ARM GAS  C:\Users\noyce\AppData\Local\Temp\ccSecU8t.s 			page 1


   1              		.syntax unified
   2              		.cpu cortex-m3
   3              		.fpu softvfp
   4              		.eabi_attribute 20, 1
   5              		.eabi_attribute 21, 1
   6              		.eabi_attribute 23, 3
   7              		.eabi_attribute 24, 1
   8              		.eabi_attribute 25, 1
   9              		.eabi_attribute 26, 1
  10              		.eabi_attribute 30, 1
  11              		.eabi_attribute 34, 1
  12              		.eabi_attribute 18, 4
  13              		.thumb
  14              		.syntax unified
  15              		.file	"main.c"
  16              		.text
  17              	.Ltext0:
  18              		.cfi_sections	.debug_frame
  19              		.section	.text.Setup_Selector_I2C_Struct,"ax",%progbits
  20              		.align	2
  21              		.global	Setup_Selector_I2C_Struct
  22              		.thumb
  23              		.thumb_func
  24              		.type	Setup_Selector_I2C_Struct, %function
  25              	Setup_Selector_I2C_Struct:
  26              	.LFB63:
  27              		.file 1 "main.c"
   1:main.c        **** #include "project.h"
   2:main.c        **** 
   3:main.c        **** struct Selector_I2C_Struct {
   4:main.c        **** 	struct {
   5:main.c        **** 		uint8 subAddress;
   6:main.c        **** 		uint8 data[126];
   7:main.c        **** 	} write;
   8:main.c        **** 	struct {
   9:main.c        **** 		uint8 subAddress;
  10:main.c        **** 		uint8 data[126];
  11:main.c        **** 	} read;
  12:main.c        **** 	uint8 busAddress;
  13:main.c        **** };
  14:main.c        **** 
  15:main.c        **** void Setup_Selector_I2C_Struct(struct Selector_I2C_Struct *selector) {
  28              		.loc 1 15 0
  29              		.cfi_startproc
  30              		@ args = 0, pretend = 0, frame = 0
  31              		@ frame_needed = 0, uses_anonymous_args = 0
  32              		@ link register save eliminated.
  33              	.LVL0:
  16:main.c        **** 	selector->write.subAddress = 1;
  34              		.loc 1 16 0
  35 0000 0123     		movs	r3, #1
  36 0002 0370     		strb	r3, [r0]
  17:main.c        **** 	selector->read.subAddress = sizeof(selector->write) + 1;
  37              		.loc 1 17 0
  38 0004 8023     		movs	r3, #128
  39 0006 80F87F30 		strb	r3, [r0, #127]
  40              	.LVL1:
ARM GAS  C:\Users\noyce\AppData\Local\Temp\ccSecU8t.s 			page 2


  41              	.LBB2:
  18:main.c        **** 	
  19:main.c        **** 	for (uint16 i = 0; i < sizeof(selector->write.data); i++) {
  42              		.loc 1 19 0
  43 000a 0023     		movs	r3, #0
  44 000c 04E0     		b	.L2
  45              	.LVL2:
  46              	.L3:
  20:main.c        **** 		selector->write.data[i] = i + 6;
  47              		.loc 1 20 0 discriminator 3
  48 000e C218     		adds	r2, r0, r3
  49 0010 991D     		adds	r1, r3, #6
  50 0012 5170     		strb	r1, [r2, #1]
  19:main.c        **** 		selector->write.data[i] = i + 6;
  51              		.loc 1 19 0 discriminator 3
  52 0014 0133     		adds	r3, r3, #1
  53              	.LVL3:
  54 0016 9BB2     		uxth	r3, r3
  55              	.LVL4:
  56              	.L2:
  19:main.c        **** 		selector->write.data[i] = i + 6;
  57              		.loc 1 19 0 is_stmt 0 discriminator 1
  58 0018 7D2B     		cmp	r3, #125
  59 001a F8D9     		bls	.L3
  60 001c 0023     		movs	r3, #0
  61              	.LVL5:
  62 001e 05E0     		b	.L4
  63              	.LVL6:
  64              	.L5:
  65              	.LBE2:
  66              	.LBB3:
  21:main.c        **** 	}
  22:main.c        **** 	for (uint16 i = 0; i < sizeof(selector->read.data); i++) {
  23:main.c        **** 		selector->read.data[i] = 0xbe;
  67              		.loc 1 23 0 is_stmt 1 discriminator 3
  68 0020 C218     		adds	r2, r0, r3
  69 0022 BE21     		movs	r1, #190
  70 0024 82F88010 		strb	r1, [r2, #128]
  22:main.c        **** 		selector->read.data[i] = 0xbe;
  71              		.loc 1 22 0 discriminator 3
  72 0028 0133     		adds	r3, r3, #1
  73              	.LVL7:
  74 002a 9BB2     		uxth	r3, r3
  75              	.LVL8:
  76              	.L4:
  22:main.c        **** 		selector->read.data[i] = 0xbe;
  77              		.loc 1 22 0 is_stmt 0 discriminator 1
  78 002c 7D2B     		cmp	r3, #125
  79 002e F7D9     		bls	.L5
  80              	.LBE3:
  24:main.c        **** 	}
  25:main.c        **** }
  81              		.loc 1 25 0 is_stmt 1
  82 0030 7047     		bx	lr
  83              		.cfi_endproc
  84              	.LFE63:
  85              		.size	Setup_Selector_I2C_Struct, .-Setup_Selector_I2C_Struct
ARM GAS  C:\Users\noyce\AppData\Local\Temp\ccSecU8t.s 			page 3


  86              		.section	.text.Update_Selector,"ax",%progbits
  87              		.align	2
  88              		.global	Update_Selector
  89              		.thumb
  90              		.thumb_func
  91              		.type	Update_Selector, %function
  92              	Update_Selector:
  93              	.LFB64:
  26:main.c        **** 
  27:main.c        **** void Update_Selector(struct Selector_I2C_Struct *selector) {
  94              		.loc 1 27 0
  95              		.cfi_startproc
  96              		@ args = 0, pretend = 0, frame = 0
  97              		@ frame_needed = 0, uses_anonymous_args = 0
  98              	.LVL9:
  99 0000 10B5     		push	{r4, lr}
 100              		.cfi_def_cfa_offset 8
 101              		.cfi_offset 4, -8
 102              		.cfi_offset 14, -4
 103 0002 0446     		mov	r4, r0
  28:main.c        **** 	I2C_1_MasterClearStatus();
 104              		.loc 1 28 0
 105 0004 FFF7FEFF 		bl	I2C_1_MasterClearStatus
 106              	.LVL10:
  29:main.c        **** 	I2C_1_MasterWriteBuf(selector->busAddress, (uint8 *) &selector->write, sizeof(selector->write), I2
 107              		.loc 1 29 0
 108 0008 0023     		movs	r3, #0
 109 000a 7F22     		movs	r2, #127
 110 000c 2146     		mov	r1, r4
 111 000e 94F8FE00 		ldrb	r0, [r4, #254]	@ zero_extendqisi2
 112 0012 FFF7FEFF 		bl	I2C_1_MasterWriteBuf
 113              	.LVL11:
 114              	.L7:
  30:main.c        **** 	while((I2C_1_MasterStatus() & I2C_1_MSTAT_WR_CMPLT) == 0);
 115              		.loc 1 30 0 discriminator 1
 116 0016 FFF7FEFF 		bl	I2C_1_MasterStatus
 117              	.LVL12:
 118 001a 10F0020F 		tst	r0, #2
 119 001e FAD0     		beq	.L7
  31:main.c        **** 	
  32:main.c        **** 	I2C_1_MasterClearStatus();
 120              		.loc 1 32 0
 121 0020 FFF7FEFF 		bl	I2C_1_MasterClearStatus
 122              	.LVL13:
  33:main.c        **** 	I2C_1_MasterWriteBuf(selector->busAddress, (uint8 *) &selector->read.subAddress, 1, I2C_1_MODE_NO_
 123              		.loc 1 33 0
 124 0024 0223     		movs	r3, #2
 125 0026 0122     		movs	r2, #1
 126 0028 04F17F01 		add	r1, r4, #127
 127 002c 94F8FE00 		ldrb	r0, [r4, #254]	@ zero_extendqisi2
 128 0030 FFF7FEFF 		bl	I2C_1_MasterWriteBuf
 129              	.LVL14:
 130              	.L8:
  34:main.c        **** 	while((I2C_1_MasterStatus() & I2C_1_MSTAT_WR_CMPLT) == 0);
 131              		.loc 1 34 0 discriminator 1
 132 0034 FFF7FEFF 		bl	I2C_1_MasterStatus
 133              	.LVL15:
ARM GAS  C:\Users\noyce\AppData\Local\Temp\ccSecU8t.s 			page 4


 134 0038 10F0020F 		tst	r0, #2
 135 003c FAD0     		beq	.L8
  35:main.c        **** 	
  36:main.c        **** 	I2C_1_MasterReadBuf(selector->busAddress, (uint8 *) &selector->read.data, sizeof(selector->read.da
 136              		.loc 1 36 0
 137 003e 0123     		movs	r3, #1
 138 0040 7E22     		movs	r2, #126
 139 0042 04F18001 		add	r1, r4, #128
 140 0046 94F8FE00 		ldrb	r0, [r4, #254]	@ zero_extendqisi2
 141 004a FFF7FEFF 		bl	I2C_1_MasterReadBuf
 142              	.LVL16:
 143              	.L9:
  37:main.c        **** 	while((I2C_1_MasterStatus() & I2C_1_MSTAT_RD_CMPLT) == 0);
 144              		.loc 1 37 0 discriminator 1
 145 004e FFF7FEFF 		bl	I2C_1_MasterStatus
 146              	.LVL17:
 147 0052 10F0010F 		tst	r0, #1
 148 0056 FAD0     		beq	.L9
  38:main.c        **** }
 149              		.loc 1 38 0
 150 0058 10BD     		pop	{r4, pc}
 151              		.cfi_endproc
 152              	.LFE64:
 153              		.size	Update_Selector, .-Update_Selector
 154 005a 00BF     		.section	.text.main,"ax",%progbits
 155              		.align	2
 156              		.global	main
 157              		.thumb
 158              		.thumb_func
 159              		.type	main, %function
 160              	main:
 161              	.LFB65:
  39:main.c        **** 
  40:main.c        **** int main(void)
  41:main.c        **** {
 162              		.loc 1 41 0
 163              		.cfi_startproc
 164              		@ args = 0, pretend = 0, frame = 1024
 165              		@ frame_needed = 0, uses_anonymous_args = 0
 166 0000 10B5     		push	{r4, lr}
 167              		.cfi_def_cfa_offset 8
 168              		.cfi_offset 4, -8
 169              		.cfi_offset 14, -4
 170 0002 ADF5806D 		sub	sp, sp, #1024
 171              		.cfi_def_cfa_offset 1032
  42:main.c        **** 	CyGlobalIntEnable;
 172              		.loc 1 42 0
 173              		.syntax unified
 174              	@ 42 "main.c" 1
 175 0006 62B6     		CPSIE   i
 176              	@ 0 "" 2
 177              	.LVL18:
 178              		.thumb
 179              		.syntax unified
 180              	.LBB4:
  43:main.c        **** 	
  44:main.c        **** 	#define SELECTOR_COUNT 4
ARM GAS  C:\Users\noyce\AppData\Local\Temp\ccSecU8t.s 			page 5


  45:main.c        **** 	struct Selector_I2C_Struct selectors[SELECTOR_COUNT];
  46:main.c        **** 	
  47:main.c        **** 	for (uint8 i = 0; i < SELECTOR_COUNT; i++) Setup_Selector_I2C_Struct(&selectors[i]);
 181              		.loc 1 47 0
 182 0008 0024     		movs	r4, #0
 183 000a 07E0     		b	.L12
 184              	.LVL19:
 185              	.L13:
 186              		.loc 1 47 0 is_stmt 0 discriminator 3
 187 000c C4EB0420 		rsb	r0, r4, r4, lsl #8
 188 0010 01AB     		add	r3, sp, #4
 189 0012 1844     		add	r0, r0, r3
 190 0014 FFF7FEFF 		bl	Setup_Selector_I2C_Struct
 191              	.LVL20:
 192 0018 0134     		adds	r4, r4, #1
 193              	.LVL21:
 194 001a E4B2     		uxtb	r4, r4
 195              	.LVL22:
 196              	.L12:
 197              		.loc 1 47 0 discriminator 1
 198 001c 032C     		cmp	r4, #3
 199 001e F5D9     		bls	.L13
 200              	.LBE4:
  48:main.c        **** 	
  49:main.c        **** 	selectors[0].busAddress = 0x66;
 201              		.loc 1 49 0 is_stmt 1
 202 0020 6623     		movs	r3, #102
 203 0022 8DF80231 		strb	r3, [sp, #258]
  50:main.c        **** 	selectors[1].busAddress = 0x11;
 204              		.loc 1 50 0
 205 0026 1123     		movs	r3, #17
 206 0028 8DF80132 		strb	r3, [sp, #513]
  51:main.c        **** 	selectors[2].busAddress = 0x44;
 207              		.loc 1 51 0
 208 002c 4423     		movs	r3, #68
 209 002e 8DF80033 		strb	r3, [sp, #768]
  52:main.c        **** 	selectors[3].busAddress = 0x22;
 210              		.loc 1 52 0
 211 0032 2223     		movs	r3, #34
 212 0034 8DF8FF33 		strb	r3, [sp, #1023]
  53:main.c        **** 	
  54:main.c        **** 	CyDelay(100);
 213              		.loc 1 54 0
 214 0038 6420     		movs	r0, #100
 215 003a FFF7FEFF 		bl	CyDelay
 216              	.LVL23:
  55:main.c        **** 	
  56:main.c        **** 	I2C_1_Start();
 217              		.loc 1 56 0
 218 003e FFF7FEFF 		bl	I2C_1_Start
 219              	.LVL24:
 220              	.L16:
 221              	.LBB5:
 222              	.LBB6:
  57:main.c        **** 	
  58:main.c        ****     while (1) {
  59:main.c        **** 		for (uint8 i = 0; i < SELECTOR_COUNT; i++) Update_Selector(&selectors[i]);
ARM GAS  C:\Users\noyce\AppData\Local\Temp\ccSecU8t.s 			page 6


 223              		.loc 1 59 0
 224 0042 0024     		movs	r4, #0
 225 0044 07E0     		b	.L14
 226              	.LVL25:
 227              	.L15:
 228              		.loc 1 59 0 is_stmt 0 discriminator 3
 229 0046 C4EB0420 		rsb	r0, r4, r4, lsl #8
 230 004a 01AB     		add	r3, sp, #4
 231 004c 1844     		add	r0, r0, r3
 232 004e FFF7FEFF 		bl	Update_Selector
 233              	.LVL26:
 234 0052 0134     		adds	r4, r4, #1
 235              	.LVL27:
 236 0054 E4B2     		uxtb	r4, r4
 237              	.LVL28:
 238              	.L14:
 239              		.loc 1 59 0 discriminator 1
 240 0056 032C     		cmp	r4, #3
 241 0058 F5D9     		bls	.L15
 242              	.LBE6:
  60:main.c        **** 		
  61:main.c        **** 		volatile uint8 temp = selectors[0].read.data[0];
 243              		.loc 1 61 0 is_stmt 1
 244 005a 9DF88430 		ldrb	r3, [sp, #132]	@ zero_extendqisi2
 245 005e 8DF80330 		strb	r3, [sp, #3]
 246              	.LBE5:
  62:main.c        **** 	}
 247              		.loc 1 62 0
 248 0062 EEE7     		b	.L16
 249              		.cfi_endproc
 250              	.LFE65:
 251              		.size	main, .-main
 252              		.text
 253              	.Letext0:
 254              		.file 2 "c:\\program files (x86)\\cypress\\psoc creator\\4.1\\psoc creator\\import\\gnu\\arm\\5.4.
 255              		.file 3 "c:\\program files (x86)\\cypress\\psoc creator\\4.1\\psoc creator\\import\\gnu\\arm\\5.4.
 256              		.file 4 "Generated_Source\\PSoC5/cytypes.h"
 257              		.file 5 "Generated_Source\\PSoC5/I2C_1.h"
 258              		.file 6 "Generated_Source\\PSoC5/CyLib.h"
 259              		.file 7 "Generated_Source\\PSoC5/core_cm3.h"