ARM GAS  C:\Users\FRANKL~1\AppData\Local\Temp\cclzeWks.s 			page 1


   1              		.syntax unified
   2              		.cpu cortex-m0
   3              		.fpu softvfp
   4              		.eabi_attribute 20, 1
   5              		.eabi_attribute 21, 1
   6              		.eabi_attribute 23, 3
   7              		.eabi_attribute 24, 1
   8              		.eabi_attribute 25, 1
   9              		.eabi_attribute 26, 1
  10              		.eabi_attribute 30, 1
  11              		.eabi_attribute 34, 0
  12              		.eabi_attribute 18, 4
  13              		.thumb
  14              		.syntax unified
  15              		.file	"cyfitter_cfg.c"
  16              		.text
  17              	.Ltext0:
  18              		.cfi_sections	.debug_frame
  19              		.section	.text.cfg_write_bytes32,"ax",%progbits
  20              		.align	2
  21              		.code	16
  22              		.thumb_func
  23              		.type	cfg_write_bytes32, %function
  24              	cfg_write_bytes32:
  25              	.LFB3:
  26              		.file 1 "Generated_Source\\PSoC4\\cyfitter_cfg.c"
   1:Generated_Source\PSoC4/cyfitter_cfg.c **** 
   2:Generated_Source\PSoC4/cyfitter_cfg.c **** /*******************************************************************************
   3:Generated_Source\PSoC4/cyfitter_cfg.c **** * File Name: cyfitter_cfg.c
   4:Generated_Source\PSoC4/cyfitter_cfg.c **** * 
   5:Generated_Source\PSoC4/cyfitter_cfg.c **** * PSoC Creator  4.1 Update 1
   6:Generated_Source\PSoC4/cyfitter_cfg.c **** *
   7:Generated_Source\PSoC4/cyfitter_cfg.c **** * Description:
   8:Generated_Source\PSoC4/cyfitter_cfg.c **** * This file contains device initialization code.
   9:Generated_Source\PSoC4/cyfitter_cfg.c **** * Except for the user defined sections in CyClockStartupError(), this file should not be modified.
  10:Generated_Source\PSoC4/cyfitter_cfg.c **** * This file is automatically generated by PSoC Creator.
  11:Generated_Source\PSoC4/cyfitter_cfg.c **** *
  12:Generated_Source\PSoC4/cyfitter_cfg.c **** ********************************************************************************
  13:Generated_Source\PSoC4/cyfitter_cfg.c **** * Copyright (c) 2007-2017 Cypress Semiconductor.  All rights reserved.
  14:Generated_Source\PSoC4/cyfitter_cfg.c **** * You may use this file only in accordance with the license, terms, conditions, 
  15:Generated_Source\PSoC4/cyfitter_cfg.c **** * disclaimers, and limitations in the end user license agreement accompanying 
  16:Generated_Source\PSoC4/cyfitter_cfg.c **** * the software package with which this file was provided.
  17:Generated_Source\PSoC4/cyfitter_cfg.c **** ********************************************************************************/
  18:Generated_Source\PSoC4/cyfitter_cfg.c **** 
  19:Generated_Source\PSoC4/cyfitter_cfg.c **** #include <string.h>
  20:Generated_Source\PSoC4/cyfitter_cfg.c **** #include "cytypes.h"
  21:Generated_Source\PSoC4/cyfitter_cfg.c **** #include "cydevice_trm.h"
  22:Generated_Source\PSoC4/cyfitter_cfg.c **** #include "cyfitter.h"
  23:Generated_Source\PSoC4/cyfitter_cfg.c **** #include "CyLib.h"
  24:Generated_Source\PSoC4/cyfitter_cfg.c **** #include "CyLFClk.h"
  25:Generated_Source\PSoC4/cyfitter_cfg.c **** #include "cyfitter_cfg.h"
  26:Generated_Source\PSoC4/cyfitter_cfg.c **** #include "cyapicallbacks.h"
  27:Generated_Source\PSoC4/cyfitter_cfg.c **** 
  28:Generated_Source\PSoC4/cyfitter_cfg.c **** 
  29:Generated_Source\PSoC4/cyfitter_cfg.c **** #if defined(__GNUC__) || defined(__ARMCC_VERSION)
  30:Generated_Source\PSoC4/cyfitter_cfg.c ****     #define CYPACKED 
  31:Generated_Source\PSoC4/cyfitter_cfg.c ****     #define CYPACKED_ATTR __attribute__ ((packed))
ARM GAS  C:\Users\FRANKL~1\AppData\Local\Temp\cclzeWks.s 			page 2


  32:Generated_Source\PSoC4/cyfitter_cfg.c ****     #define CYALIGNED __attribute__ ((aligned))
  33:Generated_Source\PSoC4/cyfitter_cfg.c ****     #define CY_CFG_UNUSED __attribute__ ((unused))
  34:Generated_Source\PSoC4/cyfitter_cfg.c ****     #ifndef CY_CFG_SECTION
  35:Generated_Source\PSoC4/cyfitter_cfg.c ****         #define CY_CFG_SECTION __attribute__ ((section(".psocinit")))
  36:Generated_Source\PSoC4/cyfitter_cfg.c ****     #endif
  37:Generated_Source\PSoC4/cyfitter_cfg.c ****     
  38:Generated_Source\PSoC4/cyfitter_cfg.c ****     #if defined(__ARMCC_VERSION)
  39:Generated_Source\PSoC4/cyfitter_cfg.c ****         #define CY_CFG_MEMORY_BARRIER() __memory_changed()
  40:Generated_Source\PSoC4/cyfitter_cfg.c ****     #else
  41:Generated_Source\PSoC4/cyfitter_cfg.c ****         #define CY_CFG_MEMORY_BARRIER() __sync_synchronize()
  42:Generated_Source\PSoC4/cyfitter_cfg.c ****     #endif
  43:Generated_Source\PSoC4/cyfitter_cfg.c ****     
  44:Generated_Source\PSoC4/cyfitter_cfg.c **** #elif defined(__ICCARM__)
  45:Generated_Source\PSoC4/cyfitter_cfg.c ****     #include <intrinsics.h>
  46:Generated_Source\PSoC4/cyfitter_cfg.c **** 
  47:Generated_Source\PSoC4/cyfitter_cfg.c ****     #define CYPACKED __packed
  48:Generated_Source\PSoC4/cyfitter_cfg.c ****     #define CYPACKED_ATTR 
  49:Generated_Source\PSoC4/cyfitter_cfg.c ****     #define CYALIGNED _Pragma("data_alignment=4")
  50:Generated_Source\PSoC4/cyfitter_cfg.c ****     #define CY_CFG_UNUSED _Pragma("diag_suppress=Pe177")
  51:Generated_Source\PSoC4/cyfitter_cfg.c ****     #define CY_CFG_SECTION _Pragma("location=\".psocinit\"")
  52:Generated_Source\PSoC4/cyfitter_cfg.c ****     
  53:Generated_Source\PSoC4/cyfitter_cfg.c ****     #define CY_CFG_MEMORY_BARRIER() __DMB()
  54:Generated_Source\PSoC4/cyfitter_cfg.c ****     
  55:Generated_Source\PSoC4/cyfitter_cfg.c **** #else
  56:Generated_Source\PSoC4/cyfitter_cfg.c ****     #error Unsupported toolchain
  57:Generated_Source\PSoC4/cyfitter_cfg.c **** #endif
  58:Generated_Source\PSoC4/cyfitter_cfg.c **** 
  59:Generated_Source\PSoC4/cyfitter_cfg.c **** #ifndef CYCODE
  60:Generated_Source\PSoC4/cyfitter_cfg.c ****     #define CYCODE
  61:Generated_Source\PSoC4/cyfitter_cfg.c **** #endif
  62:Generated_Source\PSoC4/cyfitter_cfg.c **** #ifndef CYDATA
  63:Generated_Source\PSoC4/cyfitter_cfg.c ****     #define CYDATA
  64:Generated_Source\PSoC4/cyfitter_cfg.c **** #endif
  65:Generated_Source\PSoC4/cyfitter_cfg.c **** #ifndef CYFAR
  66:Generated_Source\PSoC4/cyfitter_cfg.c ****     #define CYFAR
  67:Generated_Source\PSoC4/cyfitter_cfg.c **** #endif
  68:Generated_Source\PSoC4/cyfitter_cfg.c **** #ifndef CYXDATA
  69:Generated_Source\PSoC4/cyfitter_cfg.c ****     #define CYXDATA
  70:Generated_Source\PSoC4/cyfitter_cfg.c **** #endif
  71:Generated_Source\PSoC4/cyfitter_cfg.c **** 
  72:Generated_Source\PSoC4/cyfitter_cfg.c **** 
  73:Generated_Source\PSoC4/cyfitter_cfg.c **** CY_CFG_UNUSED
  74:Generated_Source\PSoC4/cyfitter_cfg.c **** static void CYMEMZERO(void *s, size_t n);
  75:Generated_Source\PSoC4/cyfitter_cfg.c **** CY_CFG_UNUSED
  76:Generated_Source\PSoC4/cyfitter_cfg.c **** static void CYMEMZERO(void *s, size_t n)
  77:Generated_Source\PSoC4/cyfitter_cfg.c **** {
  78:Generated_Source\PSoC4/cyfitter_cfg.c **** 	(void)memset(s, 0, n);
  79:Generated_Source\PSoC4/cyfitter_cfg.c **** }
  80:Generated_Source\PSoC4/cyfitter_cfg.c **** CY_CFG_UNUSED
  81:Generated_Source\PSoC4/cyfitter_cfg.c **** static void CYCONFIGCPY(void *dest, const void *src, size_t n);
  82:Generated_Source\PSoC4/cyfitter_cfg.c **** CY_CFG_UNUSED
  83:Generated_Source\PSoC4/cyfitter_cfg.c **** static void CYCONFIGCPY(void *dest, const void *src, size_t n)
  84:Generated_Source\PSoC4/cyfitter_cfg.c **** {
  85:Generated_Source\PSoC4/cyfitter_cfg.c **** 	(void)memcpy(dest, src, n);
  86:Generated_Source\PSoC4/cyfitter_cfg.c **** }
  87:Generated_Source\PSoC4/cyfitter_cfg.c **** CY_CFG_UNUSED
  88:Generated_Source\PSoC4/cyfitter_cfg.c **** static void CYCONFIGCPYCODE(void *dest, const void *src, size_t n);
ARM GAS  C:\Users\FRANKL~1\AppData\Local\Temp\cclzeWks.s 			page 3


  89:Generated_Source\PSoC4/cyfitter_cfg.c **** CY_CFG_UNUSED
  90:Generated_Source\PSoC4/cyfitter_cfg.c **** static void CYCONFIGCPYCODE(void *dest, const void *src, size_t n)
  91:Generated_Source\PSoC4/cyfitter_cfg.c **** {
  92:Generated_Source\PSoC4/cyfitter_cfg.c **** 	(void)memcpy(dest, src, n);
  93:Generated_Source\PSoC4/cyfitter_cfg.c **** }
  94:Generated_Source\PSoC4/cyfitter_cfg.c **** 
  95:Generated_Source\PSoC4/cyfitter_cfg.c **** 
  96:Generated_Source\PSoC4/cyfitter_cfg.c **** 
  97:Generated_Source\PSoC4/cyfitter_cfg.c **** 
  98:Generated_Source\PSoC4/cyfitter_cfg.c **** /* Clock startup error codes                                                   */
  99:Generated_Source\PSoC4/cyfitter_cfg.c **** #define CYCLOCKSTART_NO_ERROR    0u
 100:Generated_Source\PSoC4/cyfitter_cfg.c **** #define CYCLOCKSTART_XTAL_ERROR  1u
 101:Generated_Source\PSoC4/cyfitter_cfg.c **** #define CYCLOCKSTART_32KHZ_ERROR 2u
 102:Generated_Source\PSoC4/cyfitter_cfg.c **** #define CYCLOCKSTART_PLL_ERROR   3u
 103:Generated_Source\PSoC4/cyfitter_cfg.c **** #define CYCLOCKSTART_FLL_ERROR   4u
 104:Generated_Source\PSoC4/cyfitter_cfg.c **** 
 105:Generated_Source\PSoC4/cyfitter_cfg.c **** 
 106:Generated_Source\PSoC4/cyfitter_cfg.c **** #ifdef CY_NEED_CYCLOCKSTARTUPERROR
 107:Generated_Source\PSoC4/cyfitter_cfg.c **** /*******************************************************************************
 108:Generated_Source\PSoC4/cyfitter_cfg.c **** * Function Name: CyClockStartupError
 109:Generated_Source\PSoC4/cyfitter_cfg.c **** ********************************************************************************
 110:Generated_Source\PSoC4/cyfitter_cfg.c **** * Summary:
 111:Generated_Source\PSoC4/cyfitter_cfg.c **** *  If an error is encountered during clock configuration (crystal startup error,
 112:Generated_Source\PSoC4/cyfitter_cfg.c **** *  PLL lock error, etc.), the system will end up here.  Unless reimplemented by
 113:Generated_Source\PSoC4/cyfitter_cfg.c **** *  the customer, this function will stop in an infinite loop.
 114:Generated_Source\PSoC4/cyfitter_cfg.c **** *
 115:Generated_Source\PSoC4/cyfitter_cfg.c **** * Parameters:
 116:Generated_Source\PSoC4/cyfitter_cfg.c **** *   void
 117:Generated_Source\PSoC4/cyfitter_cfg.c **** *
 118:Generated_Source\PSoC4/cyfitter_cfg.c **** * Return:
 119:Generated_Source\PSoC4/cyfitter_cfg.c **** *   void
 120:Generated_Source\PSoC4/cyfitter_cfg.c **** *
 121:Generated_Source\PSoC4/cyfitter_cfg.c **** *******************************************************************************/
 122:Generated_Source\PSoC4/cyfitter_cfg.c **** CY_CFG_UNUSED
 123:Generated_Source\PSoC4/cyfitter_cfg.c **** static void CyClockStartupError(uint8 errorCode);
 124:Generated_Source\PSoC4/cyfitter_cfg.c **** CY_CFG_UNUSED
 125:Generated_Source\PSoC4/cyfitter_cfg.c **** static void CyClockStartupError(uint8 errorCode)
 126:Generated_Source\PSoC4/cyfitter_cfg.c **** {
 127:Generated_Source\PSoC4/cyfitter_cfg.c ****     /* To remove the compiler warning if errorCode not used. */
 128:Generated_Source\PSoC4/cyfitter_cfg.c **** #if defined(CY_PSOC3) && (CY_PSOC3)
 129:Generated_Source\PSoC4/cyfitter_cfg.c ****     errorCode = errorCode;
 130:Generated_Source\PSoC4/cyfitter_cfg.c **** #else
 131:Generated_Source\PSoC4/cyfitter_cfg.c ****     (void)errorCode;
 132:Generated_Source\PSoC4/cyfitter_cfg.c **** #endif /* CY_PSOC3 */
 133:Generated_Source\PSoC4/cyfitter_cfg.c **** 
 134:Generated_Source\PSoC4/cyfitter_cfg.c ****     /* If we have a clock startup error (bad MHz crystal, PLL lock, etc.),  */
 135:Generated_Source\PSoC4/cyfitter_cfg.c ****     /* we will end up here to allow the customer to implement something to  */
 136:Generated_Source\PSoC4/cyfitter_cfg.c ****     /* deal with the clock condition.                                       */
 137:Generated_Source\PSoC4/cyfitter_cfg.c **** 
 138:Generated_Source\PSoC4/cyfitter_cfg.c **** #ifdef CY_CFG_CLOCK_STARTUP_ERROR_CALLBACK
 139:Generated_Source\PSoC4/cyfitter_cfg.c ****     CY_CFG_Clock_Startup_ErrorCallback();
 140:Generated_Source\PSoC4/cyfitter_cfg.c **** #else
 141:Generated_Source\PSoC4/cyfitter_cfg.c ****     /*  If not using CY_CFG_CLOCK_STARTUP_ERROR_CALLBACK, place your clock startup code here. */
 142:Generated_Source\PSoC4/cyfitter_cfg.c ****     /* `#START CyClockStartupError` */
 143:Generated_Source\PSoC4/cyfitter_cfg.c **** 
 144:Generated_Source\PSoC4/cyfitter_cfg.c **** 
 145:Generated_Source\PSoC4/cyfitter_cfg.c **** 
ARM GAS  C:\Users\FRANKL~1\AppData\Local\Temp\cclzeWks.s 			page 4


 146:Generated_Source\PSoC4/cyfitter_cfg.c ****     /* `#END` */
 147:Generated_Source\PSoC4/cyfitter_cfg.c **** 
 148:Generated_Source\PSoC4/cyfitter_cfg.c ****     while(1) {}
 149:Generated_Source\PSoC4/cyfitter_cfg.c **** #endif /* CY_CFG_CLOCK_STARTUP_ERROR_CALLBACK */
 150:Generated_Source\PSoC4/cyfitter_cfg.c **** }
 151:Generated_Source\PSoC4/cyfitter_cfg.c **** #endif
 152:Generated_Source\PSoC4/cyfitter_cfg.c **** 
 153:Generated_Source\PSoC4/cyfitter_cfg.c **** #define CY_CFG_BASE_ADDR_COUNT 7u
 154:Generated_Source\PSoC4/cyfitter_cfg.c **** CYPACKED typedef struct
 155:Generated_Source\PSoC4/cyfitter_cfg.c **** {
 156:Generated_Source\PSoC4/cyfitter_cfg.c **** 	uint8 offset;
 157:Generated_Source\PSoC4/cyfitter_cfg.c **** 	uint8 value;
 158:Generated_Source\PSoC4/cyfitter_cfg.c **** } CYPACKED_ATTR cy_cfg_addrvalue_t;
 159:Generated_Source\PSoC4/cyfitter_cfg.c **** 
 160:Generated_Source\PSoC4/cyfitter_cfg.c **** 
 161:Generated_Source\PSoC4/cyfitter_cfg.c **** 
 162:Generated_Source\PSoC4/cyfitter_cfg.c **** /*******************************************************************************
 163:Generated_Source\PSoC4/cyfitter_cfg.c **** * Function Name: cfg_write_bytes32
 164:Generated_Source\PSoC4/cyfitter_cfg.c **** ********************************************************************************
 165:Generated_Source\PSoC4/cyfitter_cfg.c **** * Summary:
 166:Generated_Source\PSoC4/cyfitter_cfg.c **** *  This function is used for setting up the chip configuration areas that
 167:Generated_Source\PSoC4/cyfitter_cfg.c **** *  contain relatively sparse data.
 168:Generated_Source\PSoC4/cyfitter_cfg.c **** *
 169:Generated_Source\PSoC4/cyfitter_cfg.c **** * Parameters:
 170:Generated_Source\PSoC4/cyfitter_cfg.c **** *   void
 171:Generated_Source\PSoC4/cyfitter_cfg.c **** *
 172:Generated_Source\PSoC4/cyfitter_cfg.c **** * Return:
 173:Generated_Source\PSoC4/cyfitter_cfg.c **** *   void
 174:Generated_Source\PSoC4/cyfitter_cfg.c **** *
 175:Generated_Source\PSoC4/cyfitter_cfg.c **** *******************************************************************************/
 176:Generated_Source\PSoC4/cyfitter_cfg.c **** static void cfg_write_bytes32(const uint32 addr_table[], const cy_cfg_addrvalue_t data_table[]);
 177:Generated_Source\PSoC4/cyfitter_cfg.c **** static void cfg_write_bytes32(const uint32 addr_table[], const cy_cfg_addrvalue_t data_table[])
 178:Generated_Source\PSoC4/cyfitter_cfg.c **** {
  27              		.loc 1 178 0
  28              		.cfi_startproc
  29              		@ args = 0, pretend = 0, frame = 0
  30              		@ frame_needed = 0, uses_anonymous_args = 0
  31              	.LVL0:
  32 0000 F0B5     		push	{r4, r5, r6, r7, lr}
  33              		.cfi_def_cfa_offset 20
  34              		.cfi_offset 4, -20
  35              		.cfi_offset 5, -16
  36              		.cfi_offset 6, -12
  37              		.cfi_offset 7, -8
  38              		.cfi_offset 14, -4
  39              	.LVL1:
 179:Generated_Source\PSoC4/cyfitter_cfg.c **** 	/* For 32-bit little-endian architectures */
 180:Generated_Source\PSoC4/cyfitter_cfg.c **** 	uint32 i, j = 0u;
  40              		.loc 1 180 0
  41 0002 0025     		movs	r5, #0
 181:Generated_Source\PSoC4/cyfitter_cfg.c **** 	for (i = 0u; i < CY_CFG_BASE_ADDR_COUNT; i++)
  42              		.loc 1 181 0
  43 0004 0027     		movs	r7, #0
  44 0006 11E0     		b	.L2
  45              	.LVL2:
  46              	.L5:
  47              	.LBB2:
ARM GAS  C:\Users\FRANKL~1\AppData\Local\Temp\cclzeWks.s 			page 5


 182:Generated_Source\PSoC4/cyfitter_cfg.c **** 	{
 183:Generated_Source\PSoC4/cyfitter_cfg.c **** 		uint32 baseAddr = addr_table[i];
  48              		.loc 1 183 0
  49 0008 BB00     		lsls	r3, r7, #2
  50 000a C658     		ldr	r6, [r0, r3]
  51              	.LVL3:
 184:Generated_Source\PSoC4/cyfitter_cfg.c **** 		uint8 count = (uint8)baseAddr;
  52              		.loc 1 184 0
  53 000c F3B2     		uxtb	r3, r6
  54              	.LVL4:
 185:Generated_Source\PSoC4/cyfitter_cfg.c **** 		baseAddr &= 0xFFFFFF00u;
  55              		.loc 1 185 0
  56 000e FF22     		movs	r2, #255
  57 0010 9643     		bics	r6, r2
  58              	.LVL5:
 186:Generated_Source\PSoC4/cyfitter_cfg.c **** 		while (count != 0u)
  59              		.loc 1 186 0
  60 0012 08E0     		b	.L3
  61              	.L4:
 187:Generated_Source\PSoC4/cyfitter_cfg.c **** 		{
 188:Generated_Source\PSoC4/cyfitter_cfg.c **** 			CY_SET_REG8((void *)(baseAddr + data_table[j].offset), data_table[j].value);
  62              		.loc 1 188 0
  63 0014 6A00     		lsls	r2, r5, #1
  64 0016 8A18     		adds	r2, r1, r2
  65 0018 1478     		ldrb	r4, [r2]
  66 001a A419     		adds	r4, r4, r6
  67 001c 5278     		ldrb	r2, [r2, #1]
  68 001e 2270     		strb	r2, [r4]
 189:Generated_Source\PSoC4/cyfitter_cfg.c **** 			j++;
  69              		.loc 1 189 0
  70 0020 0135     		adds	r5, r5, #1
  71              	.LVL6:
 190:Generated_Source\PSoC4/cyfitter_cfg.c **** 			count--;
  72              		.loc 1 190 0
  73 0022 013B     		subs	r3, r3, #1
  74              	.LVL7:
  75 0024 DBB2     		uxtb	r3, r3
  76              	.LVL8:
  77              	.L3:
 186:Generated_Source\PSoC4/cyfitter_cfg.c **** 		{
  78              		.loc 1 186 0
  79 0026 002B     		cmp	r3, #0
  80 0028 F4D1     		bne	.L4
  81              	.LBE2:
 181:Generated_Source\PSoC4/cyfitter_cfg.c **** 	{
  82              		.loc 1 181 0 discriminator 2
  83 002a 0137     		adds	r7, r7, #1
  84              	.LVL9:
  85              	.L2:
 181:Generated_Source\PSoC4/cyfitter_cfg.c **** 	{
  86              		.loc 1 181 0 is_stmt 0 discriminator 1
  87 002c 062F     		cmp	r7, #6
  88 002e EBD9     		bls	.L5
 191:Generated_Source\PSoC4/cyfitter_cfg.c **** 		}
 192:Generated_Source\PSoC4/cyfitter_cfg.c **** 	}
 193:Generated_Source\PSoC4/cyfitter_cfg.c **** }
  89              		.loc 1 193 0 is_stmt 1
ARM GAS  C:\Users\FRANKL~1\AppData\Local\Temp\cclzeWks.s 			page 6


  90              		@ sp needed
  91              	.LVL10:
  92              	.LVL11:
  93 0030 F0BD     		pop	{r4, r5, r6, r7, pc}
  94              		.cfi_endproc
  95              	.LFE3:
  96              		.size	cfg_write_bytes32, .-cfg_write_bytes32
  97 0032 C046     		.section	.text.CYMEMZERO,"ax",%progbits
  98              		.align	2
  99              		.code	16
 100              		.thumb_func
 101              		.type	CYMEMZERO, %function
 102              	CYMEMZERO:
 103              	.LFB0:
  77:Generated_Source\PSoC4/cyfitter_cfg.c **** 	(void)memset(s, 0, n);
 104              		.loc 1 77 0
 105              		.cfi_startproc
 106              		@ args = 0, pretend = 0, frame = 0
 107              		@ frame_needed = 0, uses_anonymous_args = 0
 108              	.LVL12:
 109 0000 10B5     		push	{r4, lr}
 110              		.cfi_def_cfa_offset 8
 111              		.cfi_offset 4, -8
 112              		.cfi_offset 14, -4
 113 0002 0A00     		movs	r2, r1
  78:Generated_Source\PSoC4/cyfitter_cfg.c **** }
 114              		.loc 1 78 0
 115 0004 0021     		movs	r1, #0
 116              	.LVL13:
 117 0006 FFF7FEFF 		bl	memset
 118              	.LVL14:
  79:Generated_Source\PSoC4/cyfitter_cfg.c **** CY_CFG_UNUSED
 119              		.loc 1 79 0
 120              		@ sp needed
 121 000a 10BD     		pop	{r4, pc}
 122              		.cfi_endproc
 123              	.LFE0:
 124              		.size	CYMEMZERO, .-CYMEMZERO
 125              		.section	.psocinit,"ax",%progbits
 126              		.align	2
 127              		.code	16
 128              		.thumb_func
 129              		.type	ClockSetup, %function
 130              	ClockSetup:
 131              	.LFB4:
 194:Generated_Source\PSoC4/cyfitter_cfg.c **** 
 195:Generated_Source\PSoC4/cyfitter_cfg.c **** 
 196:Generated_Source\PSoC4/cyfitter_cfg.c **** /*******************************************************************************
 197:Generated_Source\PSoC4/cyfitter_cfg.c **** * Function Name: ClockSetup
 198:Generated_Source\PSoC4/cyfitter_cfg.c **** ********************************************************************************
 199:Generated_Source\PSoC4/cyfitter_cfg.c **** *
 200:Generated_Source\PSoC4/cyfitter_cfg.c **** * Summary:
 201:Generated_Source\PSoC4/cyfitter_cfg.c **** *   Performs the initialization of all of the clocks in the device based on the
 202:Generated_Source\PSoC4/cyfitter_cfg.c **** *   settings in the Clock tab of the DWR.  This includes enabling the requested
 203:Generated_Source\PSoC4/cyfitter_cfg.c **** *   clocks and setting the necessary dividers to produce the desired frequency. 
 204:Generated_Source\PSoC4/cyfitter_cfg.c **** *
 205:Generated_Source\PSoC4/cyfitter_cfg.c **** * Parameters:
ARM GAS  C:\Users\FRANKL~1\AppData\Local\Temp\cclzeWks.s 			page 7


 206:Generated_Source\PSoC4/cyfitter_cfg.c **** *   void
 207:Generated_Source\PSoC4/cyfitter_cfg.c **** *
 208:Generated_Source\PSoC4/cyfitter_cfg.c **** * Return:
 209:Generated_Source\PSoC4/cyfitter_cfg.c **** *   void
 210:Generated_Source\PSoC4/cyfitter_cfg.c **** *
 211:Generated_Source\PSoC4/cyfitter_cfg.c **** *******************************************************************************/
 212:Generated_Source\PSoC4/cyfitter_cfg.c **** static void ClockSetup(void);
 213:Generated_Source\PSoC4/cyfitter_cfg.c **** CY_CFG_SECTION
 214:Generated_Source\PSoC4/cyfitter_cfg.c **** static void ClockSetup(void)
 215:Generated_Source\PSoC4/cyfitter_cfg.c **** {
 132              		.loc 1 215 0
 133              		.cfi_startproc
 134              		@ args = 0, pretend = 0, frame = 0
 135              		@ frame_needed = 0, uses_anonymous_args = 0
 136 0000 70B5     		push	{r4, r5, r6, lr}
 137              		.cfi_def_cfa_offset 16
 138              		.cfi_offset 4, -16
 139              		.cfi_offset 5, -12
 140              		.cfi_offset 6, -8
 141              		.cfi_offset 14, -4
 216:Generated_Source\PSoC4/cyfitter_cfg.c **** 	/* Enable HALF_EN before trimming for the flash accelerator. */
 217:Generated_Source\PSoC4/cyfitter_cfg.c **** 	CY_SET_REG32((void CYXDATA *)(CYREG_CLK_SELECT), (CY_GET_REG32((void *)CYREG_CLK_SELECT) | 0x00040
 142              		.loc 1 217 0
 143 0002 154C     		ldr	r4, .L8
 144 0004 2368     		ldr	r3, [r4]
 145 0006 8022     		movs	r2, #128
 146 0008 D202     		lsls	r2, r2, #11
 147 000a 1343     		orrs	r3, r2
 148 000c 2360     		str	r3, [r4]
 218:Generated_Source\PSoC4/cyfitter_cfg.c **** 
 219:Generated_Source\PSoC4/cyfitter_cfg.c **** 	/* Setup and trim IMO based on desired frequency. */
 220:Generated_Source\PSoC4/cyfitter_cfg.c **** 	CySysClkWriteImoFreq(24u);
 149              		.loc 1 220 0
 150 000e 1820     		movs	r0, #24
 151 0010 FFF7FEFF 		bl	CySysClkWriteImoFreq
 152              	.LVL15:
 221:Generated_Source\PSoC4/cyfitter_cfg.c **** 
 222:Generated_Source\PSoC4/cyfitter_cfg.c **** 	/* Disable HALF_EN since it is not required at this IMO frequency. */
 223:Generated_Source\PSoC4/cyfitter_cfg.c **** 	CY_SET_REG32((void CYXDATA *)(CYREG_CLK_SELECT), (CY_GET_REG32((void *)CYREG_CLK_SELECT) & 0xFFFBF
 153              		.loc 1 223 0
 154 0014 2268     		ldr	r2, [r4]
 155 0016 114B     		ldr	r3, .L8+4
 156 0018 1340     		ands	r3, r2
 157 001a 2360     		str	r3, [r4]
 224:Generated_Source\PSoC4/cyfitter_cfg.c **** 	/* CYDEV_CLK_ILO_CONFIG Starting address: CYDEV_CLK_ILO_CONFIG */
 225:Generated_Source\PSoC4/cyfitter_cfg.c **** 	CY_SET_REG32((void *)(CYREG_CLK_ILO_CONFIG), 0x80000006u);
 158              		.loc 1 225 0
 159 001c 104A     		ldr	r2, .L8+8
 160 001e 114B     		ldr	r3, .L8+12
 161 0020 1A60     		str	r2, [r3]
 226:Generated_Source\PSoC4/cyfitter_cfg.c **** 
 227:Generated_Source\PSoC4/cyfitter_cfg.c **** 
 228:Generated_Source\PSoC4/cyfitter_cfg.c **** 	/* CYDEV_CLK_SELECT00 Starting address: CYDEV_CLK_SELECT00 */
 229:Generated_Source\PSoC4/cyfitter_cfg.c **** 	CY_SET_REG32((void *)(CYREG_CLK_SELECT03), 0x00000020u);
 162              		.loc 1 229 0
 163 0022 2022     		movs	r2, #32
 164 0024 104B     		ldr	r3, .L8+16
ARM GAS  C:\Users\FRANKL~1\AppData\Local\Temp\cclzeWks.s 			page 8


 165 0026 1A60     		str	r2, [r3]
 230:Generated_Source\PSoC4/cyfitter_cfg.c **** 	CY_SET_REG32((void *)(CYREG_CLK_SELECT07), 0x00000010u);
 166              		.loc 1 230 0
 167 0028 103A     		subs	r2, r2, #16
 168 002a 104B     		ldr	r3, .L8+20
 169 002c 1A60     		str	r2, [r3]
 231:Generated_Source\PSoC4/cyfitter_cfg.c **** 
 232:Generated_Source\PSoC4/cyfitter_cfg.c **** 	/* CYDEV_CLK_IMO_CONFIG Starting address: CYDEV_CLK_IMO_CONFIG */
 233:Generated_Source\PSoC4/cyfitter_cfg.c **** 	CY_SET_REG32((void *)(CYREG_CLK_IMO_CONFIG), 0x82000000u);
 170              		.loc 1 233 0
 171 002e 8222     		movs	r2, #130
 172 0030 1206     		lsls	r2, r2, #24
 173 0032 0F4B     		ldr	r3, .L8+24
 174 0034 1A60     		str	r2, [r3]
 234:Generated_Source\PSoC4/cyfitter_cfg.c **** 
 235:Generated_Source\PSoC4/cyfitter_cfg.c **** 	/* CYDEV_CLK_SELECT Starting address: CYDEV_CLK_SELECT */
 236:Generated_Source\PSoC4/cyfitter_cfg.c **** 	CY_SET_REG32((void *)(CYREG_CLK_SELECT), 0x00000000u);
 175              		.loc 1 236 0
 176 0036 0025     		movs	r5, #0
 177 0038 2560     		str	r5, [r4]
 237:Generated_Source\PSoC4/cyfitter_cfg.c **** 
 238:Generated_Source\PSoC4/cyfitter_cfg.c **** 	/* CYDEV_CLK_DIVIDER_A00 Starting address: CYDEV_CLK_DIVIDER_A00 */
 239:Generated_Source\PSoC4/cyfitter_cfg.c **** 	CY_SET_REG32((void *)(CYREG_CLK_DIVIDER_A00), 0x8000000Eu);
 178              		.loc 1 239 0
 179 003a 0E4B     		ldr	r3, .L8+28
 180 003c 0E4A     		ldr	r2, .L8+32
 181 003e 1360     		str	r3, [r2]
 240:Generated_Source\PSoC4/cyfitter_cfg.c **** 
 241:Generated_Source\PSoC4/cyfitter_cfg.c **** 	/* CYDEV_CLK_DIVIDER_B00 Starting address: CYDEV_CLK_DIVIDER_B00 */
 242:Generated_Source\PSoC4/cyfitter_cfg.c **** 	CY_SET_REG32((void *)(CYREG_CLK_DIVIDER_B00), 0x8000000Eu);
 182              		.loc 1 242 0
 183 0040 0E4A     		ldr	r2, .L8+36
 184 0042 1360     		str	r3, [r2]
 243:Generated_Source\PSoC4/cyfitter_cfg.c **** 
 244:Generated_Source\PSoC4/cyfitter_cfg.c **** 	(void)CyIntSetVector(9u, &CySysWdtIsr);
 185              		.loc 1 244 0
 186 0044 0E49     		ldr	r1, .L8+40
 187 0046 0920     		movs	r0, #9
 188 0048 FFF7FEFF 		bl	CyIntSetVector
 189              	.LVL16:
 245:Generated_Source\PSoC4/cyfitter_cfg.c **** 	CyIntEnable(9u);
 190              		.loc 1 245 0
 191 004c 0920     		movs	r0, #9
 192 004e FFF7FEFF 		bl	CyIntEnable
 193              	.LVL17:
 246:Generated_Source\PSoC4/cyfitter_cfg.c **** 	CY_SET_REG32((void *)(CYREG_WDT_CONFIG), 0x00000000u);
 194              		.loc 1 246 0
 195 0052 0C4B     		ldr	r3, .L8+44
 196 0054 1D60     		str	r5, [r3]
 247:Generated_Source\PSoC4/cyfitter_cfg.c **** }
 197              		.loc 1 247 0
 198              		@ sp needed
 199 0056 70BD     		pop	{r4, r5, r6, pc}
 200              	.L9:
 201              		.align	2
 202              	.L8:
 203 0058 00010B40 		.word	1074462976
ARM GAS  C:\Users\FRANKL~1\AppData\Local\Temp\cclzeWks.s 			page 9


 204 005c FFFFFBFF 		.word	-262145
 205 0060 06000080 		.word	-2147483642
 206 0064 04010B40 		.word	1074462980
 207 0068 0C020240 		.word	1073873420
 208 006c 1C020240 		.word	1073873436
 209 0070 08010B40 		.word	1074462984
 210 0074 0E000080 		.word	-2147483634
 211 0078 00000240 		.word	1073872896
 212 007c 40000240 		.word	1073872960
 213 0080 00000000 		.word	CySysWdtIsr
 214 0084 0C020B40 		.word	1074463244
 215              		.cfi_endproc
 216              	.LFE4:
 217              		.size	ClockSetup, .-ClockSetup
 218              		.section	.text.SetAnalogRoutingPumps,"ax",%progbits
 219              		.align	2
 220              		.global	SetAnalogRoutingPumps
 221              		.code	16
 222              		.thumb_func
 223              		.type	SetAnalogRoutingPumps, %function
 224              	SetAnalogRoutingPumps:
 225              	.LFB6:
 248:Generated_Source\PSoC4/cyfitter_cfg.c **** 
 249:Generated_Source\PSoC4/cyfitter_cfg.c **** 
 250:Generated_Source\PSoC4/cyfitter_cfg.c **** /* Analog API Functions */
 251:Generated_Source\PSoC4/cyfitter_cfg.c **** 
 252:Generated_Source\PSoC4/cyfitter_cfg.c **** 
 253:Generated_Source\PSoC4/cyfitter_cfg.c **** /*******************************************************************************
 254:Generated_Source\PSoC4/cyfitter_cfg.c **** * Function Name: AnalogSetDefault
 255:Generated_Source\PSoC4/cyfitter_cfg.c **** ********************************************************************************
 256:Generated_Source\PSoC4/cyfitter_cfg.c **** *
 257:Generated_Source\PSoC4/cyfitter_cfg.c **** * Summary:
 258:Generated_Source\PSoC4/cyfitter_cfg.c **** *  Sets up the analog portions of the chip to default values based on chip
 259:Generated_Source\PSoC4/cyfitter_cfg.c **** *  configuration options from the project.
 260:Generated_Source\PSoC4/cyfitter_cfg.c **** *
 261:Generated_Source\PSoC4/cyfitter_cfg.c **** * Parameters:
 262:Generated_Source\PSoC4/cyfitter_cfg.c **** *  void
 263:Generated_Source\PSoC4/cyfitter_cfg.c **** *
 264:Generated_Source\PSoC4/cyfitter_cfg.c **** * Return:
 265:Generated_Source\PSoC4/cyfitter_cfg.c **** *  void
 266:Generated_Source\PSoC4/cyfitter_cfg.c **** *
 267:Generated_Source\PSoC4/cyfitter_cfg.c **** *******************************************************************************/
 268:Generated_Source\PSoC4/cyfitter_cfg.c **** static void AnalogSetDefault(void);
 269:Generated_Source\PSoC4/cyfitter_cfg.c **** static void AnalogSetDefault(void)
 270:Generated_Source\PSoC4/cyfitter_cfg.c **** {
 271:Generated_Source\PSoC4/cyfitter_cfg.c **** 	CY_SET_XTND_REG32((void CYFAR *)CYREG_CTBM_OA0_SW, 0x00044001u);
 272:Generated_Source\PSoC4/cyfitter_cfg.c **** 	CY_SET_XTND_REG32((void CYFAR *)CYREG_SAR_MUX_SWITCH0, 0x00400000u);
 273:Generated_Source\PSoC4/cyfitter_cfg.c **** 	SetAnalogRoutingPumps(1);
 274:Generated_Source\PSoC4/cyfitter_cfg.c **** }
 275:Generated_Source\PSoC4/cyfitter_cfg.c **** 
 276:Generated_Source\PSoC4/cyfitter_cfg.c **** 
 277:Generated_Source\PSoC4/cyfitter_cfg.c **** /*******************************************************************************
 278:Generated_Source\PSoC4/cyfitter_cfg.c **** * Function Name: SetAnalogRoutingPumps
 279:Generated_Source\PSoC4/cyfitter_cfg.c **** ********************************************************************************
 280:Generated_Source\PSoC4/cyfitter_cfg.c **** *
 281:Generated_Source\PSoC4/cyfitter_cfg.c **** * Summary:
 282:Generated_Source\PSoC4/cyfitter_cfg.c **** * Enables or disables the analog pumps feeding analog routing switches.
ARM GAS  C:\Users\FRANKL~1\AppData\Local\Temp\cclzeWks.s 			page 10


 283:Generated_Source\PSoC4/cyfitter_cfg.c **** * Intended to be called at startup, based on the Vdda system configuration;
 284:Generated_Source\PSoC4/cyfitter_cfg.c **** * may be called during operation when the user informs us that the Vdda voltage crossed the pump th
 285:Generated_Source\PSoC4/cyfitter_cfg.c **** *
 286:Generated_Source\PSoC4/cyfitter_cfg.c **** * Parameters:
 287:Generated_Source\PSoC4/cyfitter_cfg.c **** *  enabled - 1 to enable the pumps, 0 to disable the pumps
 288:Generated_Source\PSoC4/cyfitter_cfg.c **** *
 289:Generated_Source\PSoC4/cyfitter_cfg.c **** * Return:
 290:Generated_Source\PSoC4/cyfitter_cfg.c **** *  void
 291:Generated_Source\PSoC4/cyfitter_cfg.c **** *
 292:Generated_Source\PSoC4/cyfitter_cfg.c **** *******************************************************************************/
 293:Generated_Source\PSoC4/cyfitter_cfg.c **** void SetAnalogRoutingPumps(uint8 enabled)
 294:Generated_Source\PSoC4/cyfitter_cfg.c **** {
 226              		.loc 1 294 0
 227              		.cfi_startproc
 228              		@ args = 0, pretend = 0, frame = 0
 229              		@ frame_needed = 0, uses_anonymous_args = 0
 230              		@ link register save eliminated.
 231              	.LVL18:
 295:Generated_Source\PSoC4/cyfitter_cfg.c **** 	uint32 regValue = CY_GET_XTND_REG32((void *)(CYREG_SAR_PUMP_CTRL));
 232              		.loc 1 295 0
 233 0000 064B     		ldr	r3, .L13
 234 0002 1B68     		ldr	r3, [r3]
 235              	.LVL19:
 296:Generated_Source\PSoC4/cyfitter_cfg.c **** 	if (enabled != 0u)
 236              		.loc 1 296 0
 237 0004 0028     		cmp	r0, #0
 238 0006 03D0     		beq	.L11
 297:Generated_Source\PSoC4/cyfitter_cfg.c **** 	{
 298:Generated_Source\PSoC4/cyfitter_cfg.c **** 		regValue |= 0x80000000u;
 239              		.loc 1 298 0
 240 0008 8022     		movs	r2, #128
 241 000a 1206     		lsls	r2, r2, #24
 242 000c 1343     		orrs	r3, r2
 243              	.LVL20:
 244 000e 01E0     		b	.L12
 245              	.L11:
 299:Generated_Source\PSoC4/cyfitter_cfg.c **** 	}
 300:Generated_Source\PSoC4/cyfitter_cfg.c **** 	else
 301:Generated_Source\PSoC4/cyfitter_cfg.c **** 	{
 302:Generated_Source\PSoC4/cyfitter_cfg.c **** 		regValue &= ~0x80000000u;
 246              		.loc 1 302 0
 247 0010 5B00     		lsls	r3, r3, #1
 248              	.LVL21:
 249 0012 5B08     		lsrs	r3, r3, #1
 250              	.LVL22:
 251              	.L12:
 303:Generated_Source\PSoC4/cyfitter_cfg.c **** 	}
 304:Generated_Source\PSoC4/cyfitter_cfg.c **** 	CY_SET_XTND_REG32((void *)(CYREG_SAR_PUMP_CTRL), regValue);
 252              		.loc 1 304 0
 253 0014 014A     		ldr	r2, .L13
 254 0016 1360     		str	r3, [r2]
 305:Generated_Source\PSoC4/cyfitter_cfg.c **** }
 255              		.loc 1 305 0
 256              		@ sp needed
 257 0018 7047     		bx	lr
 258              	.L14:
 259 001a C046     		.align	2
ARM GAS  C:\Users\FRANKL~1\AppData\Local\Temp\cclzeWks.s 			page 11


 260              	.L13:
 261 001c 80031A40 		.word	1075446656
 262              		.cfi_endproc
 263              	.LFE6:
 264              		.size	SetAnalogRoutingPumps, .-SetAnalogRoutingPumps
 265              		.section	.text.AnalogSetDefault,"ax",%progbits
 266              		.align	2
 267              		.code	16
 268              		.thumb_func
 269              		.type	AnalogSetDefault, %function
 270              	AnalogSetDefault:
 271              	.LFB5:
 270:Generated_Source\PSoC4/cyfitter_cfg.c **** 	CY_SET_XTND_REG32((void CYFAR *)CYREG_CTBM_OA0_SW, 0x00044001u);
 272              		.loc 1 270 0
 273              		.cfi_startproc
 274              		@ args = 0, pretend = 0, frame = 0
 275              		@ frame_needed = 0, uses_anonymous_args = 0
 276 0000 10B5     		push	{r4, lr}
 277              		.cfi_def_cfa_offset 8
 278              		.cfi_offset 4, -8
 279              		.cfi_offset 14, -4
 271:Generated_Source\PSoC4/cyfitter_cfg.c **** 	CY_SET_XTND_REG32((void CYFAR *)CYREG_SAR_MUX_SWITCH0, 0x00400000u);
 280              		.loc 1 271 0
 281 0002 054A     		ldr	r2, .L16
 282 0004 054B     		ldr	r3, .L16+4
 283 0006 1A60     		str	r2, [r3]
 272:Generated_Source\PSoC4/cyfitter_cfg.c **** 	SetAnalogRoutingPumps(1);
 284              		.loc 1 272 0
 285 0008 8022     		movs	r2, #128
 286 000a D203     		lsls	r2, r2, #15
 287 000c 044B     		ldr	r3, .L16+8
 288 000e 1A60     		str	r2, [r3]
 273:Generated_Source\PSoC4/cyfitter_cfg.c **** }
 289              		.loc 1 273 0
 290 0010 0120     		movs	r0, #1
 291 0012 FFF7FEFF 		bl	SetAnalogRoutingPumps
 292              	.LVL23:
 274:Generated_Source\PSoC4/cyfitter_cfg.c **** 
 293              		.loc 1 274 0
 294              		@ sp needed
 295 0016 10BD     		pop	{r4, pc}
 296              	.L17:
 297              		.align	2
 298              	.L16:
 299 0018 01400400 		.word	278529
 300 001c 80001040 		.word	1074790528
 301 0020 00031A40 		.word	1075446528
 302              		.cfi_endproc
 303              	.LFE5:
 304              		.size	AnalogSetDefault, .-AnalogSetDefault
 305              		.section	.text.AMux_1_Set,"ax",%progbits
 306              		.align	2
 307              		.global	AMux_1_Set
 308              		.code	16
 309              		.thumb_func
 310              		.type	AMux_1_Set, %function
 311              	AMux_1_Set:
ARM GAS  C:\Users\FRANKL~1\AppData\Local\Temp\cclzeWks.s 			page 12


 312              	.LFB7:
 306:Generated_Source\PSoC4/cyfitter_cfg.c **** 
 307:Generated_Source\PSoC4/cyfitter_cfg.c **** 
 308:Generated_Source\PSoC4/cyfitter_cfg.c **** #define CY_AMUX_UNUSED CYREG_CM0_ROM_DWT
 309:Generated_Source\PSoC4/cyfitter_cfg.c **** /*******************************************************************************
 310:Generated_Source\PSoC4/cyfitter_cfg.c **** * Function Name: AMux_1_Set
 311:Generated_Source\PSoC4/cyfitter_cfg.c **** ********************************************************************************
 312:Generated_Source\PSoC4/cyfitter_cfg.c **** * Summary:
 313:Generated_Source\PSoC4/cyfitter_cfg.c **** *  This function is used to set a particular channel as active on the AMux.
 314:Generated_Source\PSoC4/cyfitter_cfg.c **** *
 315:Generated_Source\PSoC4/cyfitter_cfg.c **** * Parameters:  
 316:Generated_Source\PSoC4/cyfitter_cfg.c **** *   channel - The mux channel input to set as active
 317:Generated_Source\PSoC4/cyfitter_cfg.c **** *
 318:Generated_Source\PSoC4/cyfitter_cfg.c **** * Return:
 319:Generated_Source\PSoC4/cyfitter_cfg.c **** *   void
 320:Generated_Source\PSoC4/cyfitter_cfg.c **** *
 321:Generated_Source\PSoC4/cyfitter_cfg.c **** *******************************************************************************/
 322:Generated_Source\PSoC4/cyfitter_cfg.c **** void AMux_1_Set(uint8 channel)
 323:Generated_Source\PSoC4/cyfitter_cfg.c **** {
 313              		.loc 1 323 0
 314              		.cfi_startproc
 315              		@ args = 0, pretend = 0, frame = 0
 316              		@ frame_needed = 0, uses_anonymous_args = 0
 317              		@ link register save eliminated.
 318              	.LVL24:
 324:Generated_Source\PSoC4/cyfitter_cfg.c **** 	switch (channel) {
 319              		.loc 1 324 0
 320 0000 2128     		cmp	r0, #33
 321 0002 00D9     		bls	.LCB270
 322 0004 BBE0     		b	.L18	@long jump
 323              	.LCB270:
 324 0006 8000     		lsls	r0, r0, #2
 325              	.LVL25:
 326 0008 5D4B     		ldr	r3, .L49
 327 000a 1B58     		ldr	r3, [r3, r0]
 328 000c 9F46     		mov	pc, r3
 329              		.section	.rodata
 330              		.align	2
 331              	.L21:
 332 0000 0E000000 		.word	.L20
 333 0004 16000000 		.word	.L22
 334 0008 22000000 		.word	.L23
 335 000c 30000000 		.word	.L24
 336 0010 3E000000 		.word	.L25
 337 0014 4C000000 		.word	.L26
 338 0018 5A000000 		.word	.L27
 339 001c 62000000 		.word	.L28
 340 0020 70000000 		.word	.L29
 341 0024 7C000000 		.word	.L30
 342 0028 88000000 		.word	.L31
 343 002c 96000000 		.word	.L32
 344 0030 A4000000 		.word	.L33
 345 0034 B2000000 		.word	.L34
 346 0038 C0000000 		.word	.L35
 347 003c CE000000 		.word	.L36
 348 0040 7E010000 		.word	.L18
 349 0044 7E010000 		.word	.L18
ARM GAS  C:\Users\FRANKL~1\AppData\Local\Temp\cclzeWks.s 			page 13


 350 0048 DC000000 		.word	.L37
 351 004c EA000000 		.word	.L38
 352 0050 F8000000 		.word	.L39
 353 0054 06010000 		.word	.L40
 354 0058 7E010000 		.word	.L18
 355 005c 7E010000 		.word	.L18
 356 0060 7E010000 		.word	.L18
 357 0064 7E010000 		.word	.L18
 358 0068 14010000 		.word	.L41
 359 006c 20010000 		.word	.L42
 360 0070 2C010000 		.word	.L43
 361 0074 3A010000 		.word	.L44
 362 0078 48010000 		.word	.L45
 363 007c 56010000 		.word	.L46
 364 0080 64010000 		.word	.L47
 365 0084 72010000 		.word	.L48
 366              		.section	.text.AMux_1_Set
 367              	.L20:
 325:Generated_Source\PSoC4/cyfitter_cfg.c **** 		case 0u:
 326:Generated_Source\PSoC4/cyfitter_cfg.c **** 			CY_SET_REG32((void CYXDATA *)CYREG_CTBM_OA0_SW, (0x04u));
 368              		.loc 1 326 0
 369 000e 0422     		movs	r2, #4
 370 0010 5C4B     		ldr	r3, .L49+4
 371 0012 1A60     		str	r2, [r3]
 327:Generated_Source\PSoC4/cyfitter_cfg.c **** 			break;
 372              		.loc 1 327 0
 373 0014 B3E0     		b	.L18
 374              	.L22:
 328:Generated_Source\PSoC4/cyfitter_cfg.c **** 		case 1u:
 329:Generated_Source\PSoC4/cyfitter_cfg.c **** 			CY_SET_REG32((void CYXDATA *)CYREG_HSIOM_PORT_SEL1, (CY_GET_REG32((void CYXDATA *)CYREG_HSIOM_PO
 375              		.loc 1 329 0
 376 0016 5C4A     		ldr	r2, .L49+8
 377 0018 1168     		ldr	r1, [r2]
 378 001a 6023     		movs	r3, #96
 379 001c 0B43     		orrs	r3, r1
 380 001e 1360     		str	r3, [r2]
 330:Generated_Source\PSoC4/cyfitter_cfg.c **** 			break;
 381              		.loc 1 330 0
 382 0020 ADE0     		b	.L18
 383              	.L23:
 331:Generated_Source\PSoC4/cyfitter_cfg.c **** 		case 2u:
 332:Generated_Source\PSoC4/cyfitter_cfg.c **** 			CY_SET_REG32((void CYXDATA *)CYREG_HSIOM_PORT_SEL1, (CY_GET_REG32((void CYXDATA *)CYREG_HSIOM_PO
 384              		.loc 1 332 0
 385 0022 594A     		ldr	r2, .L49+8
 386 0024 1368     		ldr	r3, [r2]
 387 0026 C021     		movs	r1, #192
 388 0028 C900     		lsls	r1, r1, #3
 389 002a 0B43     		orrs	r3, r1
 390 002c 1360     		str	r3, [r2]
 333:Generated_Source\PSoC4/cyfitter_cfg.c **** 			break;
 391              		.loc 1 333 0
 392 002e A6E0     		b	.L18
 393              	.L24:
 334:Generated_Source\PSoC4/cyfitter_cfg.c **** 		case 3u:
 335:Generated_Source\PSoC4/cyfitter_cfg.c **** 			CY_SET_REG32((void CYXDATA *)CYREG_HSIOM_PORT_SEL1, (CY_GET_REG32((void CYXDATA *)CYREG_HSIOM_PO
 394              		.loc 1 335 0
 395 0030 554A     		ldr	r2, .L49+8
ARM GAS  C:\Users\FRANKL~1\AppData\Local\Temp\cclzeWks.s 			page 14


 396 0032 1368     		ldr	r3, [r2]
 397 0034 C021     		movs	r1, #192
 398 0036 C901     		lsls	r1, r1, #7
 399 0038 0B43     		orrs	r3, r1
 400 003a 1360     		str	r3, [r2]
 336:Generated_Source\PSoC4/cyfitter_cfg.c **** 			break;
 401              		.loc 1 336 0
 402 003c 9FE0     		b	.L18
 403              	.L25:
 337:Generated_Source\PSoC4/cyfitter_cfg.c **** 		case 4u:
 338:Generated_Source\PSoC4/cyfitter_cfg.c **** 			CY_SET_REG32((void CYXDATA *)CYREG_HSIOM_PORT_SEL1, (CY_GET_REG32((void CYXDATA *)CYREG_HSIOM_PO
 404              		.loc 1 338 0
 405 003e 524A     		ldr	r2, .L49+8
 406 0040 1368     		ldr	r3, [r2]
 407 0042 C021     		movs	r1, #192
 408 0044 C902     		lsls	r1, r1, #11
 409 0046 0B43     		orrs	r3, r1
 410 0048 1360     		str	r3, [r2]
 339:Generated_Source\PSoC4/cyfitter_cfg.c **** 			break;
 411              		.loc 1 339 0
 412 004a 98E0     		b	.L18
 413              	.L26:
 340:Generated_Source\PSoC4/cyfitter_cfg.c **** 		case 5u:
 341:Generated_Source\PSoC4/cyfitter_cfg.c **** 			CY_SET_REG32((void CYXDATA *)CYREG_HSIOM_PORT_SEL1, (CY_GET_REG32((void CYXDATA *)CYREG_HSIOM_PO
 414              		.loc 1 341 0
 415 004c 4E4A     		ldr	r2, .L49+8
 416 004e 1368     		ldr	r3, [r2]
 417 0050 C021     		movs	r1, #192
 418 0052 C903     		lsls	r1, r1, #15
 419 0054 0B43     		orrs	r3, r1
 420 0056 1360     		str	r3, [r2]
 342:Generated_Source\PSoC4/cyfitter_cfg.c **** 			break;
 421              		.loc 1 342 0
 422 0058 91E0     		b	.L18
 423              	.L27:
 343:Generated_Source\PSoC4/cyfitter_cfg.c **** 		case 6u:
 344:Generated_Source\PSoC4/cyfitter_cfg.c **** 			CY_SET_REG32((void CYXDATA *)CYREG_CTBM_OA0_SW, (0x08u));
 424              		.loc 1 344 0
 425 005a 0822     		movs	r2, #8
 426 005c 494B     		ldr	r3, .L49+4
 427 005e 1A60     		str	r2, [r3]
 345:Generated_Source\PSoC4/cyfitter_cfg.c **** 			break;
 428              		.loc 1 345 0
 429 0060 8DE0     		b	.L18
 430              	.L28:
 346:Generated_Source\PSoC4/cyfitter_cfg.c **** 		case 7u:
 347:Generated_Source\PSoC4/cyfitter_cfg.c **** 			CY_SET_REG32((void CYXDATA *)CYREG_HSIOM_PORT_SEL1, (CY_GET_REG32((void CYXDATA *)CYREG_HSIOM_PO
 431              		.loc 1 347 0
 432 0062 494A     		ldr	r2, .L49+8
 433 0064 1368     		ldr	r3, [r2]
 434 0066 C021     		movs	r1, #192
 435 0068 C905     		lsls	r1, r1, #23
 436 006a 0B43     		orrs	r3, r1
 437 006c 1360     		str	r3, [r2]
 348:Generated_Source\PSoC4/cyfitter_cfg.c **** 			break;
 438              		.loc 1 348 0
 439 006e 86E0     		b	.L18
ARM GAS  C:\Users\FRANKL~1\AppData\Local\Temp\cclzeWks.s 			page 15


 440              	.L29:
 349:Generated_Source\PSoC4/cyfitter_cfg.c **** 		case 8u:
 350:Generated_Source\PSoC4/cyfitter_cfg.c **** 			CY_SET_REG32((void CYXDATA *)CYREG_HSIOM_PORT_SEL2, (CY_GET_REG32((void CYXDATA *)CYREG_HSIOM_PO
 441              		.loc 1 350 0
 442 0070 464A     		ldr	r2, .L49+12
 443 0072 1168     		ldr	r1, [r2]
 444 0074 0623     		movs	r3, #6
 445 0076 0B43     		orrs	r3, r1
 446 0078 1360     		str	r3, [r2]
 351:Generated_Source\PSoC4/cyfitter_cfg.c **** 			break;
 447              		.loc 1 351 0
 448 007a 80E0     		b	.L18
 449              	.L30:
 352:Generated_Source\PSoC4/cyfitter_cfg.c **** 		case 9u:
 353:Generated_Source\PSoC4/cyfitter_cfg.c **** 			CY_SET_REG32((void CYXDATA *)CYREG_HSIOM_PORT_SEL2, (CY_GET_REG32((void CYXDATA *)CYREG_HSIOM_PO
 450              		.loc 1 353 0
 451 007c 434A     		ldr	r2, .L49+12
 452 007e 1168     		ldr	r1, [r2]
 453 0080 6023     		movs	r3, #96
 454 0082 0B43     		orrs	r3, r1
 455 0084 1360     		str	r3, [r2]
 354:Generated_Source\PSoC4/cyfitter_cfg.c **** 			break;
 456              		.loc 1 354 0
 457 0086 7AE0     		b	.L18
 458              	.L31:
 355:Generated_Source\PSoC4/cyfitter_cfg.c **** 		case 10u:
 356:Generated_Source\PSoC4/cyfitter_cfg.c **** 			CY_SET_REG32((void CYXDATA *)CYREG_HSIOM_PORT_SEL2, (CY_GET_REG32((void CYXDATA *)CYREG_HSIOM_PO
 459              		.loc 1 356 0
 460 0088 404A     		ldr	r2, .L49+12
 461 008a 1368     		ldr	r3, [r2]
 462 008c C021     		movs	r1, #192
 463 008e C900     		lsls	r1, r1, #3
 464 0090 0B43     		orrs	r3, r1
 465 0092 1360     		str	r3, [r2]
 357:Generated_Source\PSoC4/cyfitter_cfg.c **** 			break;
 466              		.loc 1 357 0
 467 0094 73E0     		b	.L18
 468              	.L32:
 358:Generated_Source\PSoC4/cyfitter_cfg.c **** 		case 11u:
 359:Generated_Source\PSoC4/cyfitter_cfg.c **** 			CY_SET_REG32((void CYXDATA *)CYREG_HSIOM_PORT_SEL2, (CY_GET_REG32((void CYXDATA *)CYREG_HSIOM_PO
 469              		.loc 1 359 0
 470 0096 3D4A     		ldr	r2, .L49+12
 471 0098 1368     		ldr	r3, [r2]
 472 009a C021     		movs	r1, #192
 473 009c C901     		lsls	r1, r1, #7
 474 009e 0B43     		orrs	r3, r1
 475 00a0 1360     		str	r3, [r2]
 360:Generated_Source\PSoC4/cyfitter_cfg.c **** 			break;
 476              		.loc 1 360 0
 477 00a2 6CE0     		b	.L18
 478              	.L33:
 361:Generated_Source\PSoC4/cyfitter_cfg.c **** 		case 12u:
 362:Generated_Source\PSoC4/cyfitter_cfg.c **** 			CY_SET_REG32((void CYXDATA *)CYREG_HSIOM_PORT_SEL2, (CY_GET_REG32((void CYXDATA *)CYREG_HSIOM_PO
 479              		.loc 1 362 0
 480 00a4 394A     		ldr	r2, .L49+12
 481 00a6 1368     		ldr	r3, [r2]
 482 00a8 C021     		movs	r1, #192
ARM GAS  C:\Users\FRANKL~1\AppData\Local\Temp\cclzeWks.s 			page 16


 483 00aa C902     		lsls	r1, r1, #11
 484 00ac 0B43     		orrs	r3, r1
 485 00ae 1360     		str	r3, [r2]
 363:Generated_Source\PSoC4/cyfitter_cfg.c **** 			break;
 486              		.loc 1 363 0
 487 00b0 65E0     		b	.L18
 488              	.L34:
 364:Generated_Source\PSoC4/cyfitter_cfg.c **** 		case 13u:
 365:Generated_Source\PSoC4/cyfitter_cfg.c **** 			CY_SET_REG32((void CYXDATA *)CYREG_HSIOM_PORT_SEL2, (CY_GET_REG32((void CYXDATA *)CYREG_HSIOM_PO
 489              		.loc 1 365 0
 490 00b2 364A     		ldr	r2, .L49+12
 491 00b4 1368     		ldr	r3, [r2]
 492 00b6 C021     		movs	r1, #192
 493 00b8 C903     		lsls	r1, r1, #15
 494 00ba 0B43     		orrs	r3, r1
 495 00bc 1360     		str	r3, [r2]
 366:Generated_Source\PSoC4/cyfitter_cfg.c **** 			break;
 496              		.loc 1 366 0
 497 00be 5EE0     		b	.L18
 498              	.L35:
 367:Generated_Source\PSoC4/cyfitter_cfg.c **** 		case 14u:
 368:Generated_Source\PSoC4/cyfitter_cfg.c **** 			CY_SET_REG32((void CYXDATA *)CYREG_HSIOM_PORT_SEL2, (CY_GET_REG32((void CYXDATA *)CYREG_HSIOM_PO
 499              		.loc 1 368 0
 500 00c0 324A     		ldr	r2, .L49+12
 501 00c2 1368     		ldr	r3, [r2]
 502 00c4 C021     		movs	r1, #192
 503 00c6 C904     		lsls	r1, r1, #19
 504 00c8 0B43     		orrs	r3, r1
 505 00ca 1360     		str	r3, [r2]
 369:Generated_Source\PSoC4/cyfitter_cfg.c **** 			break;
 506              		.loc 1 369 0
 507 00cc 57E0     		b	.L18
 508              	.L36:
 370:Generated_Source\PSoC4/cyfitter_cfg.c **** 		case 15u:
 371:Generated_Source\PSoC4/cyfitter_cfg.c **** 			CY_SET_REG32((void CYXDATA *)CYREG_HSIOM_PORT_SEL2, (CY_GET_REG32((void CYXDATA *)CYREG_HSIOM_PO
 509              		.loc 1 371 0
 510 00ce 2F4A     		ldr	r2, .L49+12
 511 00d0 1368     		ldr	r3, [r2]
 512 00d2 C021     		movs	r1, #192
 513 00d4 C905     		lsls	r1, r1, #23
 514 00d6 0B43     		orrs	r3, r1
 515 00d8 1360     		str	r3, [r2]
 372:Generated_Source\PSoC4/cyfitter_cfg.c **** 			break;
 516              		.loc 1 372 0
 517 00da 50E0     		b	.L18
 518              	.L37:
 373:Generated_Source\PSoC4/cyfitter_cfg.c **** 		case 18u:
 374:Generated_Source\PSoC4/cyfitter_cfg.c **** 			CY_SET_REG32((void CYXDATA *)CYREG_HSIOM_PORT_SEL3, (CY_GET_REG32((void CYXDATA *)CYREG_HSIOM_PO
 519              		.loc 1 374 0
 520 00dc 2C4A     		ldr	r2, .L49+16
 521 00de 1368     		ldr	r3, [r2]
 522 00e0 C021     		movs	r1, #192
 523 00e2 C902     		lsls	r1, r1, #11
 524 00e4 0B43     		orrs	r3, r1
 525 00e6 1360     		str	r3, [r2]
 375:Generated_Source\PSoC4/cyfitter_cfg.c **** 			break;
 526              		.loc 1 375 0
ARM GAS  C:\Users\FRANKL~1\AppData\Local\Temp\cclzeWks.s 			page 17


 527 00e8 49E0     		b	.L18
 528              	.L38:
 376:Generated_Source\PSoC4/cyfitter_cfg.c **** 		case 19u:
 377:Generated_Source\PSoC4/cyfitter_cfg.c **** 			CY_SET_REG32((void CYXDATA *)CYREG_HSIOM_PORT_SEL3, (CY_GET_REG32((void CYXDATA *)CYREG_HSIOM_PO
 529              		.loc 1 377 0
 530 00ea 294A     		ldr	r2, .L49+16
 531 00ec 1368     		ldr	r3, [r2]
 532 00ee C021     		movs	r1, #192
 533 00f0 C903     		lsls	r1, r1, #15
 534 00f2 0B43     		orrs	r3, r1
 535 00f4 1360     		str	r3, [r2]
 378:Generated_Source\PSoC4/cyfitter_cfg.c **** 			break;
 536              		.loc 1 378 0
 537 00f6 42E0     		b	.L18
 538              	.L39:
 379:Generated_Source\PSoC4/cyfitter_cfg.c **** 		case 20u:
 380:Generated_Source\PSoC4/cyfitter_cfg.c **** 			CY_SET_REG32((void CYXDATA *)CYREG_HSIOM_PORT_SEL3, (CY_GET_REG32((void CYXDATA *)CYREG_HSIOM_PO
 539              		.loc 1 380 0
 540 00f8 254A     		ldr	r2, .L49+16
 541 00fa 1368     		ldr	r3, [r2]
 542 00fc C021     		movs	r1, #192
 543 00fe C904     		lsls	r1, r1, #19
 544 0100 0B43     		orrs	r3, r1
 545 0102 1360     		str	r3, [r2]
 381:Generated_Source\PSoC4/cyfitter_cfg.c **** 			break;
 546              		.loc 1 381 0
 547 0104 3BE0     		b	.L18
 548              	.L40:
 382:Generated_Source\PSoC4/cyfitter_cfg.c **** 		case 21u:
 383:Generated_Source\PSoC4/cyfitter_cfg.c **** 			CY_SET_REG32((void CYXDATA *)CYREG_HSIOM_PORT_SEL3, (CY_GET_REG32((void CYXDATA *)CYREG_HSIOM_PO
 549              		.loc 1 383 0
 550 0106 224A     		ldr	r2, .L49+16
 551 0108 1368     		ldr	r3, [r2]
 552 010a C021     		movs	r1, #192
 553 010c C905     		lsls	r1, r1, #23
 554 010e 0B43     		orrs	r3, r1
 555 0110 1360     		str	r3, [r2]
 384:Generated_Source\PSoC4/cyfitter_cfg.c **** 			break;
 556              		.loc 1 384 0
 557 0112 34E0     		b	.L18
 558              	.L41:
 385:Generated_Source\PSoC4/cyfitter_cfg.c **** 		case 26u:
 386:Generated_Source\PSoC4/cyfitter_cfg.c **** 			CY_SET_REG32((void CYXDATA *)CYREG_HSIOM_PORT_SEL0, (CY_GET_REG32((void CYXDATA *)CYREG_HSIOM_PO
 559              		.loc 1 386 0
 560 0114 1F4A     		ldr	r2, .L49+20
 561 0116 1168     		ldr	r1, [r2]
 562 0118 0623     		movs	r3, #6
 563 011a 0B43     		orrs	r3, r1
 564 011c 1360     		str	r3, [r2]
 387:Generated_Source\PSoC4/cyfitter_cfg.c **** 			break;
 565              		.loc 1 387 0
 566 011e 2EE0     		b	.L18
 567              	.L42:
 388:Generated_Source\PSoC4/cyfitter_cfg.c **** 		case 27u:
 389:Generated_Source\PSoC4/cyfitter_cfg.c **** 			CY_SET_REG32((void CYXDATA *)CYREG_HSIOM_PORT_SEL0, (CY_GET_REG32((void CYXDATA *)CYREG_HSIOM_PO
 568              		.loc 1 389 0
 569 0120 1C4A     		ldr	r2, .L49+20
ARM GAS  C:\Users\FRANKL~1\AppData\Local\Temp\cclzeWks.s 			page 18


 570 0122 1168     		ldr	r1, [r2]
 571 0124 6023     		movs	r3, #96
 572 0126 0B43     		orrs	r3, r1
 573 0128 1360     		str	r3, [r2]
 390:Generated_Source\PSoC4/cyfitter_cfg.c **** 			break;
 574              		.loc 1 390 0
 575 012a 28E0     		b	.L18
 576              	.L43:
 391:Generated_Source\PSoC4/cyfitter_cfg.c **** 		case 28u:
 392:Generated_Source\PSoC4/cyfitter_cfg.c **** 			CY_SET_REG32((void CYXDATA *)CYREG_HSIOM_PORT_SEL0, (CY_GET_REG32((void CYXDATA *)CYREG_HSIOM_PO
 577              		.loc 1 392 0
 578 012c 194A     		ldr	r2, .L49+20
 579 012e 1368     		ldr	r3, [r2]
 580 0130 C021     		movs	r1, #192
 581 0132 C900     		lsls	r1, r1, #3
 582 0134 0B43     		orrs	r3, r1
 583 0136 1360     		str	r3, [r2]
 393:Generated_Source\PSoC4/cyfitter_cfg.c **** 			break;
 584              		.loc 1 393 0
 585 0138 21E0     		b	.L18
 586              	.L44:
 394:Generated_Source\PSoC4/cyfitter_cfg.c **** 		case 29u:
 395:Generated_Source\PSoC4/cyfitter_cfg.c **** 			CY_SET_REG32((void CYXDATA *)CYREG_HSIOM_PORT_SEL0, (CY_GET_REG32((void CYXDATA *)CYREG_HSIOM_PO
 587              		.loc 1 395 0
 588 013a 164A     		ldr	r2, .L49+20
 589 013c 1368     		ldr	r3, [r2]
 590 013e C021     		movs	r1, #192
 591 0140 C901     		lsls	r1, r1, #7
 592 0142 0B43     		orrs	r3, r1
 593 0144 1360     		str	r3, [r2]
 396:Generated_Source\PSoC4/cyfitter_cfg.c **** 			break;
 594              		.loc 1 396 0
 595 0146 1AE0     		b	.L18
 596              	.L45:
 397:Generated_Source\PSoC4/cyfitter_cfg.c **** 		case 30u:
 398:Generated_Source\PSoC4/cyfitter_cfg.c **** 			CY_SET_REG32((void CYXDATA *)CYREG_HSIOM_PORT_SEL0, (CY_GET_REG32((void CYXDATA *)CYREG_HSIOM_PO
 597              		.loc 1 398 0
 598 0148 124A     		ldr	r2, .L49+20
 599 014a 1368     		ldr	r3, [r2]
 600 014c C021     		movs	r1, #192
 601 014e C902     		lsls	r1, r1, #11
 602 0150 0B43     		orrs	r3, r1
 603 0152 1360     		str	r3, [r2]
 399:Generated_Source\PSoC4/cyfitter_cfg.c **** 			break;
 604              		.loc 1 399 0
 605 0154 13E0     		b	.L18
 606              	.L46:
 400:Generated_Source\PSoC4/cyfitter_cfg.c **** 		case 31u:
 401:Generated_Source\PSoC4/cyfitter_cfg.c **** 			CY_SET_REG32((void CYXDATA *)CYREG_HSIOM_PORT_SEL0, (CY_GET_REG32((void CYXDATA *)CYREG_HSIOM_PO
 607              		.loc 1 401 0
 608 0156 0F4A     		ldr	r2, .L49+20
 609 0158 1368     		ldr	r3, [r2]
 610 015a C021     		movs	r1, #192
 611 015c C903     		lsls	r1, r1, #15
 612 015e 0B43     		orrs	r3, r1
 613 0160 1360     		str	r3, [r2]
 402:Generated_Source\PSoC4/cyfitter_cfg.c **** 			break;
ARM GAS  C:\Users\FRANKL~1\AppData\Local\Temp\cclzeWks.s 			page 19


 614              		.loc 1 402 0
 615 0162 0CE0     		b	.L18
 616              	.L47:
 403:Generated_Source\PSoC4/cyfitter_cfg.c **** 		case 32u:
 404:Generated_Source\PSoC4/cyfitter_cfg.c **** 			CY_SET_REG32((void CYXDATA *)CYREG_HSIOM_PORT_SEL0, (CY_GET_REG32((void CYXDATA *)CYREG_HSIOM_PO
 617              		.loc 1 404 0
 618 0164 0B4A     		ldr	r2, .L49+20
 619 0166 1368     		ldr	r3, [r2]
 620 0168 C021     		movs	r1, #192
 621 016a C904     		lsls	r1, r1, #19
 622 016c 0B43     		orrs	r3, r1
 623 016e 1360     		str	r3, [r2]
 405:Generated_Source\PSoC4/cyfitter_cfg.c **** 			break;
 624              		.loc 1 405 0
 625 0170 05E0     		b	.L18
 626              	.L48:
 406:Generated_Source\PSoC4/cyfitter_cfg.c **** 		case 33u:
 407:Generated_Source\PSoC4/cyfitter_cfg.c **** 			CY_SET_REG32((void CYXDATA *)CYREG_HSIOM_PORT_SEL0, (CY_GET_REG32((void CYXDATA *)CYREG_HSIOM_PO
 627              		.loc 1 407 0
 628 0172 084A     		ldr	r2, .L49+20
 629 0174 1368     		ldr	r3, [r2]
 630 0176 C021     		movs	r1, #192
 631 0178 C905     		lsls	r1, r1, #23
 632 017a 0B43     		orrs	r3, r1
 633 017c 1360     		str	r3, [r2]
 634              	.L18:
 408:Generated_Source\PSoC4/cyfitter_cfg.c **** 			break;
 409:Generated_Source\PSoC4/cyfitter_cfg.c **** 		default:
 410:Generated_Source\PSoC4/cyfitter_cfg.c **** 			break;
 411:Generated_Source\PSoC4/cyfitter_cfg.c **** 	}
 412:Generated_Source\PSoC4/cyfitter_cfg.c **** }
 635              		.loc 1 412 0
 636              		@ sp needed
 637 017e 7047     		bx	lr
 638              	.L50:
 639              		.align	2
 640              	.L49:
 641 0180 00000000 		.word	.L21
 642 0184 80001040 		.word	1074790528
 643 0188 04000140 		.word	1073807364
 644 018c 08000140 		.word	1073807368
 645 0190 0C000140 		.word	1073807372
 646 0194 00000140 		.word	1073807360
 647              		.cfi_endproc
 648              	.LFE7:
 649              		.size	AMux_1_Set, .-AMux_1_Set
 650              		.section	.text.AMux_1_Unset,"ax",%progbits
 651              		.align	2
 652              		.global	AMux_1_Unset
 653              		.code	16
 654              		.thumb_func
 655              		.type	AMux_1_Unset, %function
 656              	AMux_1_Unset:
 657              	.LFB8:
 413:Generated_Source\PSoC4/cyfitter_cfg.c **** 
 414:Generated_Source\PSoC4/cyfitter_cfg.c **** /*******************************************************************************
 415:Generated_Source\PSoC4/cyfitter_cfg.c **** * Function Name: AMux_1_Unset
ARM GAS  C:\Users\FRANKL~1\AppData\Local\Temp\cclzeWks.s 			page 20


 416:Generated_Source\PSoC4/cyfitter_cfg.c **** ********************************************************************************
 417:Generated_Source\PSoC4/cyfitter_cfg.c **** * Summary:
 418:Generated_Source\PSoC4/cyfitter_cfg.c **** *  This function is used to clear a particular channel from being active on the
 419:Generated_Source\PSoC4/cyfitter_cfg.c **** *  AMux.
 420:Generated_Source\PSoC4/cyfitter_cfg.c **** *
 421:Generated_Source\PSoC4/cyfitter_cfg.c **** * Parameters:  
 422:Generated_Source\PSoC4/cyfitter_cfg.c **** *   channel - The mux channel input to mark inactive
 423:Generated_Source\PSoC4/cyfitter_cfg.c **** *
 424:Generated_Source\PSoC4/cyfitter_cfg.c **** * Return:
 425:Generated_Source\PSoC4/cyfitter_cfg.c **** *   void
 426:Generated_Source\PSoC4/cyfitter_cfg.c **** *
 427:Generated_Source\PSoC4/cyfitter_cfg.c **** *******************************************************************************/
 428:Generated_Source\PSoC4/cyfitter_cfg.c **** void AMux_1_Unset(uint8 channel)
 429:Generated_Source\PSoC4/cyfitter_cfg.c **** {
 658              		.loc 1 429 0
 659              		.cfi_startproc
 660              		@ args = 0, pretend = 0, frame = 0
 661              		@ frame_needed = 0, uses_anonymous_args = 0
 662              		@ link register save eliminated.
 663              	.LVL26:
 430:Generated_Source\PSoC4/cyfitter_cfg.c **** 	switch (channel) {
 664              		.loc 1 430 0
 665 0000 2128     		cmp	r0, #33
 666 0002 00D9     		bls	.LCB573
 667 0004 A6E0     		b	.L51	@long jump
 668              	.LCB573:
 669 0006 8000     		lsls	r0, r0, #2
 670              	.LVL27:
 671 0008 534B     		ldr	r3, .L82
 672 000a 1B58     		ldr	r3, [r3, r0]
 673 000c 9F46     		mov	pc, r3
 674              		.section	.rodata
 675              		.align	2
 676              	.L54:
 677 0088 0E000000 		.word	.L53
 678 008c 16000000 		.word	.L55
 679 0090 22000000 		.word	.L56
 680 0094 2E000000 		.word	.L57
 681 0098 3A000000 		.word	.L58
 682 009c 46000000 		.word	.L59
 683 00a0 52000000 		.word	.L60
 684 00a4 5A000000 		.word	.L61
 685 00a8 66000000 		.word	.L62
 686 00ac 72000000 		.word	.L63
 687 00b0 7E000000 		.word	.L64
 688 00b4 8A000000 		.word	.L65
 689 00b8 96000000 		.word	.L66
 690 00bc A2000000 		.word	.L67
 691 00c0 AE000000 		.word	.L68
 692 00c4 BA000000 		.word	.L69
 693 00c8 54010000 		.word	.L51
 694 00cc 54010000 		.word	.L51
 695 00d0 C6000000 		.word	.L70
 696 00d4 D2000000 		.word	.L71
 697 00d8 DE000000 		.word	.L72
 698 00dc EA000000 		.word	.L73
 699 00e0 54010000 		.word	.L51
ARM GAS  C:\Users\FRANKL~1\AppData\Local\Temp\cclzeWks.s 			page 21


 700 00e4 54010000 		.word	.L51
 701 00e8 54010000 		.word	.L51
 702 00ec 54010000 		.word	.L51
 703 00f0 F6000000 		.word	.L74
 704 00f4 02010000 		.word	.L75
 705 00f8 0E010000 		.word	.L76
 706 00fc 1A010000 		.word	.L77
 707 0100 26010000 		.word	.L78
 708 0104 32010000 		.word	.L79
 709 0108 3E010000 		.word	.L80
 710 010c 4A010000 		.word	.L81
 711              		.section	.text.AMux_1_Unset
 712              	.L53:
 431:Generated_Source\PSoC4/cyfitter_cfg.c **** 		case 0u:
 432:Generated_Source\PSoC4/cyfitter_cfg.c **** 			CY_SET_REG32((void CYXDATA *)CYREG_CTBM_OA0_SW_CLEAR, (0x04u));
 713              		.loc 1 432 0
 714 000e 0422     		movs	r2, #4
 715 0010 524B     		ldr	r3, .L82+4
 716 0012 1A60     		str	r2, [r3]
 433:Generated_Source\PSoC4/cyfitter_cfg.c **** 			break;
 717              		.loc 1 433 0
 718 0014 9EE0     		b	.L51
 719              	.L55:
 434:Generated_Source\PSoC4/cyfitter_cfg.c **** 		case 1u:
 435:Generated_Source\PSoC4/cyfitter_cfg.c **** 			CY_SET_REG32((void CYXDATA *)CYREG_HSIOM_PORT_SEL1, (CY_GET_REG32((void CYXDATA *)CYREG_HSIOM_PO
 720              		.loc 1 435 0
 721 0016 524A     		ldr	r2, .L82+8
 722 0018 1368     		ldr	r3, [r2]
 723 001a 6021     		movs	r1, #96
 724 001c 8B43     		bics	r3, r1
 725 001e 1360     		str	r3, [r2]
 436:Generated_Source\PSoC4/cyfitter_cfg.c **** 			break;
 726              		.loc 1 436 0
 727 0020 98E0     		b	.L51
 728              	.L56:
 437:Generated_Source\PSoC4/cyfitter_cfg.c **** 		case 2u:
 438:Generated_Source\PSoC4/cyfitter_cfg.c **** 			CY_SET_REG32((void CYXDATA *)CYREG_HSIOM_PORT_SEL1, (CY_GET_REG32((void CYXDATA *)CYREG_HSIOM_PO
 729              		.loc 1 438 0
 730 0022 4F4A     		ldr	r2, .L82+8
 731 0024 1168     		ldr	r1, [r2]
 732 0026 4F4B     		ldr	r3, .L82+12
 733 0028 0B40     		ands	r3, r1
 734 002a 1360     		str	r3, [r2]
 439:Generated_Source\PSoC4/cyfitter_cfg.c **** 			break;
 735              		.loc 1 439 0
 736 002c 92E0     		b	.L51
 737              	.L57:
 440:Generated_Source\PSoC4/cyfitter_cfg.c **** 		case 3u:
 441:Generated_Source\PSoC4/cyfitter_cfg.c **** 			CY_SET_REG32((void CYXDATA *)CYREG_HSIOM_PORT_SEL1, (CY_GET_REG32((void CYXDATA *)CYREG_HSIOM_PO
 738              		.loc 1 441 0
 739 002e 4C4A     		ldr	r2, .L82+8
 740 0030 1168     		ldr	r1, [r2]
 741 0032 4D4B     		ldr	r3, .L82+16
 742 0034 0B40     		ands	r3, r1
 743 0036 1360     		str	r3, [r2]
 442:Generated_Source\PSoC4/cyfitter_cfg.c **** 			break;
 744              		.loc 1 442 0
ARM GAS  C:\Users\FRANKL~1\AppData\Local\Temp\cclzeWks.s 			page 22


 745 0038 8CE0     		b	.L51
 746              	.L58:
 443:Generated_Source\PSoC4/cyfitter_cfg.c **** 		case 4u:
 444:Generated_Source\PSoC4/cyfitter_cfg.c **** 			CY_SET_REG32((void CYXDATA *)CYREG_HSIOM_PORT_SEL1, (CY_GET_REG32((void CYXDATA *)CYREG_HSIOM_PO
 747              		.loc 1 444 0
 748 003a 494A     		ldr	r2, .L82+8
 749 003c 1168     		ldr	r1, [r2]
 750 003e 4B4B     		ldr	r3, .L82+20
 751 0040 0B40     		ands	r3, r1
 752 0042 1360     		str	r3, [r2]
 445:Generated_Source\PSoC4/cyfitter_cfg.c **** 			break;
 753              		.loc 1 445 0
 754 0044 86E0     		b	.L51
 755              	.L59:
 446:Generated_Source\PSoC4/cyfitter_cfg.c **** 		case 5u:
 447:Generated_Source\PSoC4/cyfitter_cfg.c **** 			CY_SET_REG32((void CYXDATA *)CYREG_HSIOM_PORT_SEL1, (CY_GET_REG32((void CYXDATA *)CYREG_HSIOM_PO
 756              		.loc 1 447 0
 757 0046 464A     		ldr	r2, .L82+8
 758 0048 1168     		ldr	r1, [r2]
 759 004a 494B     		ldr	r3, .L82+24
 760 004c 0B40     		ands	r3, r1
 761 004e 1360     		str	r3, [r2]
 448:Generated_Source\PSoC4/cyfitter_cfg.c **** 			break;
 762              		.loc 1 448 0
 763 0050 80E0     		b	.L51
 764              	.L60:
 449:Generated_Source\PSoC4/cyfitter_cfg.c **** 		case 6u:
 450:Generated_Source\PSoC4/cyfitter_cfg.c **** 			CY_SET_REG32((void CYXDATA *)CYREG_CTBM_OA0_SW_CLEAR, (0x08u));
 765              		.loc 1 450 0
 766 0052 0822     		movs	r2, #8
 767 0054 414B     		ldr	r3, .L82+4
 768 0056 1A60     		str	r2, [r3]
 451:Generated_Source\PSoC4/cyfitter_cfg.c **** 			break;
 769              		.loc 1 451 0
 770 0058 7CE0     		b	.L51
 771              	.L61:
 452:Generated_Source\PSoC4/cyfitter_cfg.c **** 		case 7u:
 453:Generated_Source\PSoC4/cyfitter_cfg.c **** 			CY_SET_REG32((void CYXDATA *)CYREG_HSIOM_PORT_SEL1, (CY_GET_REG32((void CYXDATA *)CYREG_HSIOM_PO
 772              		.loc 1 453 0
 773 005a 414A     		ldr	r2, .L82+8
 774 005c 1168     		ldr	r1, [r2]
 775 005e 454B     		ldr	r3, .L82+28
 776 0060 0B40     		ands	r3, r1
 777 0062 1360     		str	r3, [r2]
 454:Generated_Source\PSoC4/cyfitter_cfg.c **** 			break;
 778              		.loc 1 454 0
 779 0064 76E0     		b	.L51
 780              	.L62:
 455:Generated_Source\PSoC4/cyfitter_cfg.c **** 		case 8u:
 456:Generated_Source\PSoC4/cyfitter_cfg.c **** 			CY_SET_REG32((void CYXDATA *)CYREG_HSIOM_PORT_SEL2, (CY_GET_REG32((void CYXDATA *)CYREG_HSIOM_PO
 781              		.loc 1 456 0
 782 0066 444A     		ldr	r2, .L82+32
 783 0068 1368     		ldr	r3, [r2]
 784 006a 0621     		movs	r1, #6
 785 006c 8B43     		bics	r3, r1
 786 006e 1360     		str	r3, [r2]
 457:Generated_Source\PSoC4/cyfitter_cfg.c **** 			break;
ARM GAS  C:\Users\FRANKL~1\AppData\Local\Temp\cclzeWks.s 			page 23


 787              		.loc 1 457 0
 788 0070 70E0     		b	.L51
 789              	.L63:
 458:Generated_Source\PSoC4/cyfitter_cfg.c **** 		case 9u:
 459:Generated_Source\PSoC4/cyfitter_cfg.c **** 			CY_SET_REG32((void CYXDATA *)CYREG_HSIOM_PORT_SEL2, (CY_GET_REG32((void CYXDATA *)CYREG_HSIOM_PO
 790              		.loc 1 459 0
 791 0072 414A     		ldr	r2, .L82+32
 792 0074 1368     		ldr	r3, [r2]
 793 0076 6021     		movs	r1, #96
 794 0078 8B43     		bics	r3, r1
 795 007a 1360     		str	r3, [r2]
 460:Generated_Source\PSoC4/cyfitter_cfg.c **** 			break;
 796              		.loc 1 460 0
 797 007c 6AE0     		b	.L51
 798              	.L64:
 461:Generated_Source\PSoC4/cyfitter_cfg.c **** 		case 10u:
 462:Generated_Source\PSoC4/cyfitter_cfg.c **** 			CY_SET_REG32((void CYXDATA *)CYREG_HSIOM_PORT_SEL2, (CY_GET_REG32((void CYXDATA *)CYREG_HSIOM_PO
 799              		.loc 1 462 0
 800 007e 3E4A     		ldr	r2, .L82+32
 801 0080 1168     		ldr	r1, [r2]
 802 0082 384B     		ldr	r3, .L82+12
 803 0084 0B40     		ands	r3, r1
 804 0086 1360     		str	r3, [r2]
 463:Generated_Source\PSoC4/cyfitter_cfg.c **** 			break;
 805              		.loc 1 463 0
 806 0088 64E0     		b	.L51
 807              	.L65:
 464:Generated_Source\PSoC4/cyfitter_cfg.c **** 		case 11u:
 465:Generated_Source\PSoC4/cyfitter_cfg.c **** 			CY_SET_REG32((void CYXDATA *)CYREG_HSIOM_PORT_SEL2, (CY_GET_REG32((void CYXDATA *)CYREG_HSIOM_PO
 808              		.loc 1 465 0
 809 008a 3B4A     		ldr	r2, .L82+32
 810 008c 1168     		ldr	r1, [r2]
 811 008e 364B     		ldr	r3, .L82+16
 812 0090 0B40     		ands	r3, r1
 813 0092 1360     		str	r3, [r2]
 466:Generated_Source\PSoC4/cyfitter_cfg.c **** 			break;
 814              		.loc 1 466 0
 815 0094 5EE0     		b	.L51
 816              	.L66:
 467:Generated_Source\PSoC4/cyfitter_cfg.c **** 		case 12u:
 468:Generated_Source\PSoC4/cyfitter_cfg.c **** 			CY_SET_REG32((void CYXDATA *)CYREG_HSIOM_PORT_SEL2, (CY_GET_REG32((void CYXDATA *)CYREG_HSIOM_PO
 817              		.loc 1 468 0
 818 0096 384A     		ldr	r2, .L82+32
 819 0098 1168     		ldr	r1, [r2]
 820 009a 344B     		ldr	r3, .L82+20
 821 009c 0B40     		ands	r3, r1
 822 009e 1360     		str	r3, [r2]
 469:Generated_Source\PSoC4/cyfitter_cfg.c **** 			break;
 823              		.loc 1 469 0
 824 00a0 58E0     		b	.L51
 825              	.L67:
 470:Generated_Source\PSoC4/cyfitter_cfg.c **** 		case 13u:
 471:Generated_Source\PSoC4/cyfitter_cfg.c **** 			CY_SET_REG32((void CYXDATA *)CYREG_HSIOM_PORT_SEL2, (CY_GET_REG32((void CYXDATA *)CYREG_HSIOM_PO
 826              		.loc 1 471 0
 827 00a2 354A     		ldr	r2, .L82+32
 828 00a4 1168     		ldr	r1, [r2]
 829 00a6 324B     		ldr	r3, .L82+24
ARM GAS  C:\Users\FRANKL~1\AppData\Local\Temp\cclzeWks.s 			page 24


 830 00a8 0B40     		ands	r3, r1
 831 00aa 1360     		str	r3, [r2]
 472:Generated_Source\PSoC4/cyfitter_cfg.c **** 			break;
 832              		.loc 1 472 0
 833 00ac 52E0     		b	.L51
 834              	.L68:
 473:Generated_Source\PSoC4/cyfitter_cfg.c **** 		case 14u:
 474:Generated_Source\PSoC4/cyfitter_cfg.c **** 			CY_SET_REG32((void CYXDATA *)CYREG_HSIOM_PORT_SEL2, (CY_GET_REG32((void CYXDATA *)CYREG_HSIOM_PO
 835              		.loc 1 474 0
 836 00ae 324A     		ldr	r2, .L82+32
 837 00b0 1168     		ldr	r1, [r2]
 838 00b2 324B     		ldr	r3, .L82+36
 839 00b4 0B40     		ands	r3, r1
 840 00b6 1360     		str	r3, [r2]
 475:Generated_Source\PSoC4/cyfitter_cfg.c **** 			break;
 841              		.loc 1 475 0
 842 00b8 4CE0     		b	.L51
 843              	.L69:
 476:Generated_Source\PSoC4/cyfitter_cfg.c **** 		case 15u:
 477:Generated_Source\PSoC4/cyfitter_cfg.c **** 			CY_SET_REG32((void CYXDATA *)CYREG_HSIOM_PORT_SEL2, (CY_GET_REG32((void CYXDATA *)CYREG_HSIOM_PO
 844              		.loc 1 477 0
 845 00ba 2F4A     		ldr	r2, .L82+32
 846 00bc 1168     		ldr	r1, [r2]
 847 00be 2D4B     		ldr	r3, .L82+28
 848 00c0 0B40     		ands	r3, r1
 849 00c2 1360     		str	r3, [r2]
 478:Generated_Source\PSoC4/cyfitter_cfg.c **** 			break;
 850              		.loc 1 478 0
 851 00c4 46E0     		b	.L51
 852              	.L70:
 479:Generated_Source\PSoC4/cyfitter_cfg.c **** 		case 18u:
 480:Generated_Source\PSoC4/cyfitter_cfg.c **** 			CY_SET_REG32((void CYXDATA *)CYREG_HSIOM_PORT_SEL3, (CY_GET_REG32((void CYXDATA *)CYREG_HSIOM_PO
 853              		.loc 1 480 0
 854 00c6 2E4A     		ldr	r2, .L82+40
 855 00c8 1168     		ldr	r1, [r2]
 856 00ca 284B     		ldr	r3, .L82+20
 857 00cc 0B40     		ands	r3, r1
 858 00ce 1360     		str	r3, [r2]
 481:Generated_Source\PSoC4/cyfitter_cfg.c **** 			break;
 859              		.loc 1 481 0
 860 00d0 40E0     		b	.L51
 861              	.L71:
 482:Generated_Source\PSoC4/cyfitter_cfg.c **** 		case 19u:
 483:Generated_Source\PSoC4/cyfitter_cfg.c **** 			CY_SET_REG32((void CYXDATA *)CYREG_HSIOM_PORT_SEL3, (CY_GET_REG32((void CYXDATA *)CYREG_HSIOM_PO
 862              		.loc 1 483 0
 863 00d2 2B4A     		ldr	r2, .L82+40
 864 00d4 1168     		ldr	r1, [r2]
 865 00d6 264B     		ldr	r3, .L82+24
 866 00d8 0B40     		ands	r3, r1
 867 00da 1360     		str	r3, [r2]
 484:Generated_Source\PSoC4/cyfitter_cfg.c **** 			break;
 868              		.loc 1 484 0
 869 00dc 3AE0     		b	.L51
 870              	.L72:
 485:Generated_Source\PSoC4/cyfitter_cfg.c **** 		case 20u:
 486:Generated_Source\PSoC4/cyfitter_cfg.c **** 			CY_SET_REG32((void CYXDATA *)CYREG_HSIOM_PORT_SEL3, (CY_GET_REG32((void CYXDATA *)CYREG_HSIOM_PO
 871              		.loc 1 486 0
ARM GAS  C:\Users\FRANKL~1\AppData\Local\Temp\cclzeWks.s 			page 25


 872 00de 284A     		ldr	r2, .L82+40
 873 00e0 1168     		ldr	r1, [r2]
 874 00e2 264B     		ldr	r3, .L82+36
 875 00e4 0B40     		ands	r3, r1
 876 00e6 1360     		str	r3, [r2]
 487:Generated_Source\PSoC4/cyfitter_cfg.c **** 			break;
 877              		.loc 1 487 0
 878 00e8 34E0     		b	.L51
 879              	.L73:
 488:Generated_Source\PSoC4/cyfitter_cfg.c **** 		case 21u:
 489:Generated_Source\PSoC4/cyfitter_cfg.c **** 			CY_SET_REG32((void CYXDATA *)CYREG_HSIOM_PORT_SEL3, (CY_GET_REG32((void CYXDATA *)CYREG_HSIOM_PO
 880              		.loc 1 489 0
 881 00ea 254A     		ldr	r2, .L82+40
 882 00ec 1168     		ldr	r1, [r2]
 883 00ee 214B     		ldr	r3, .L82+28
 884 00f0 0B40     		ands	r3, r1
 885 00f2 1360     		str	r3, [r2]
 490:Generated_Source\PSoC4/cyfitter_cfg.c **** 			break;
 886              		.loc 1 490 0
 887 00f4 2EE0     		b	.L51
 888              	.L74:
 491:Generated_Source\PSoC4/cyfitter_cfg.c **** 		case 26u:
 492:Generated_Source\PSoC4/cyfitter_cfg.c **** 			CY_SET_REG32((void CYXDATA *)CYREG_HSIOM_PORT_SEL0, (CY_GET_REG32((void CYXDATA *)CYREG_HSIOM_PO
 889              		.loc 1 492 0
 890 00f6 234A     		ldr	r2, .L82+44
 891 00f8 1368     		ldr	r3, [r2]
 892 00fa 0621     		movs	r1, #6
 893 00fc 8B43     		bics	r3, r1
 894 00fe 1360     		str	r3, [r2]
 493:Generated_Source\PSoC4/cyfitter_cfg.c **** 			break;
 895              		.loc 1 493 0
 896 0100 28E0     		b	.L51
 897              	.L75:
 494:Generated_Source\PSoC4/cyfitter_cfg.c **** 		case 27u:
 495:Generated_Source\PSoC4/cyfitter_cfg.c **** 			CY_SET_REG32((void CYXDATA *)CYREG_HSIOM_PORT_SEL0, (CY_GET_REG32((void CYXDATA *)CYREG_HSIOM_PO
 898              		.loc 1 495 0
 899 0102 204A     		ldr	r2, .L82+44
 900 0104 1368     		ldr	r3, [r2]
 901 0106 6021     		movs	r1, #96
 902 0108 8B43     		bics	r3, r1
 903 010a 1360     		str	r3, [r2]
 496:Generated_Source\PSoC4/cyfitter_cfg.c **** 			break;
 904              		.loc 1 496 0
 905 010c 22E0     		b	.L51
 906              	.L76:
 497:Generated_Source\PSoC4/cyfitter_cfg.c **** 		case 28u:
 498:Generated_Source\PSoC4/cyfitter_cfg.c **** 			CY_SET_REG32((void CYXDATA *)CYREG_HSIOM_PORT_SEL0, (CY_GET_REG32((void CYXDATA *)CYREG_HSIOM_PO
 907              		.loc 1 498 0
 908 010e 1D4A     		ldr	r2, .L82+44
 909 0110 1168     		ldr	r1, [r2]
 910 0112 144B     		ldr	r3, .L82+12
 911 0114 0B40     		ands	r3, r1
 912 0116 1360     		str	r3, [r2]
 499:Generated_Source\PSoC4/cyfitter_cfg.c **** 			break;
 913              		.loc 1 499 0
 914 0118 1CE0     		b	.L51
 915              	.L77:
ARM GAS  C:\Users\FRANKL~1\AppData\Local\Temp\cclzeWks.s 			page 26


 500:Generated_Source\PSoC4/cyfitter_cfg.c **** 		case 29u:
 501:Generated_Source\PSoC4/cyfitter_cfg.c **** 			CY_SET_REG32((void CYXDATA *)CYREG_HSIOM_PORT_SEL0, (CY_GET_REG32((void CYXDATA *)CYREG_HSIOM_PO
 916              		.loc 1 501 0
 917 011a 1A4A     		ldr	r2, .L82+44
 918 011c 1168     		ldr	r1, [r2]
 919 011e 124B     		ldr	r3, .L82+16
 920 0120 0B40     		ands	r3, r1
 921 0122 1360     		str	r3, [r2]
 502:Generated_Source\PSoC4/cyfitter_cfg.c **** 			break;
 922              		.loc 1 502 0
 923 0124 16E0     		b	.L51
 924              	.L78:
 503:Generated_Source\PSoC4/cyfitter_cfg.c **** 		case 30u:
 504:Generated_Source\PSoC4/cyfitter_cfg.c **** 			CY_SET_REG32((void CYXDATA *)CYREG_HSIOM_PORT_SEL0, (CY_GET_REG32((void CYXDATA *)CYREG_HSIOM_PO
 925              		.loc 1 504 0
 926 0126 174A     		ldr	r2, .L82+44
 927 0128 1168     		ldr	r1, [r2]
 928 012a 104B     		ldr	r3, .L82+20
 929 012c 0B40     		ands	r3, r1
 930 012e 1360     		str	r3, [r2]
 505:Generated_Source\PSoC4/cyfitter_cfg.c **** 			break;
 931              		.loc 1 505 0
 932 0130 10E0     		b	.L51
 933              	.L79:
 506:Generated_Source\PSoC4/cyfitter_cfg.c **** 		case 31u:
 507:Generated_Source\PSoC4/cyfitter_cfg.c **** 			CY_SET_REG32((void CYXDATA *)CYREG_HSIOM_PORT_SEL0, (CY_GET_REG32((void CYXDATA *)CYREG_HSIOM_PO
 934              		.loc 1 507 0
 935 0132 144A     		ldr	r2, .L82+44
 936 0134 1168     		ldr	r1, [r2]
 937 0136 0E4B     		ldr	r3, .L82+24
 938 0138 0B40     		ands	r3, r1
 939 013a 1360     		str	r3, [r2]
 508:Generated_Source\PSoC4/cyfitter_cfg.c **** 			break;
 940              		.loc 1 508 0
 941 013c 0AE0     		b	.L51
 942              	.L80:
 509:Generated_Source\PSoC4/cyfitter_cfg.c **** 		case 32u:
 510:Generated_Source\PSoC4/cyfitter_cfg.c **** 			CY_SET_REG32((void CYXDATA *)CYREG_HSIOM_PORT_SEL0, (CY_GET_REG32((void CYXDATA *)CYREG_HSIOM_PO
 943              		.loc 1 510 0
 944 013e 114A     		ldr	r2, .L82+44
 945 0140 1168     		ldr	r1, [r2]
 946 0142 0E4B     		ldr	r3, .L82+36
 947 0144 0B40     		ands	r3, r1
 948 0146 1360     		str	r3, [r2]
 511:Generated_Source\PSoC4/cyfitter_cfg.c **** 			break;
 949              		.loc 1 511 0
 950 0148 04E0     		b	.L51
 951              	.L81:
 512:Generated_Source\PSoC4/cyfitter_cfg.c **** 		case 33u:
 513:Generated_Source\PSoC4/cyfitter_cfg.c **** 			CY_SET_REG32((void CYXDATA *)CYREG_HSIOM_PORT_SEL0, (CY_GET_REG32((void CYXDATA *)CYREG_HSIOM_PO
 952              		.loc 1 513 0
 953 014a 0E4A     		ldr	r2, .L82+44
 954 014c 1168     		ldr	r1, [r2]
 955 014e 094B     		ldr	r3, .L82+28
 956 0150 0B40     		ands	r3, r1
 957 0152 1360     		str	r3, [r2]
 958              	.L51:
ARM GAS  C:\Users\FRANKL~1\AppData\Local\Temp\cclzeWks.s 			page 27


 514:Generated_Source\PSoC4/cyfitter_cfg.c **** 			break;
 515:Generated_Source\PSoC4/cyfitter_cfg.c **** 		default:
 516:Generated_Source\PSoC4/cyfitter_cfg.c **** 			break;
 517:Generated_Source\PSoC4/cyfitter_cfg.c **** 	}
 518:Generated_Source\PSoC4/cyfitter_cfg.c **** }
 959              		.loc 1 518 0
 960              		@ sp needed
 961 0154 7047     		bx	lr
 962              	.L83:
 963 0156 C046     		.align	2
 964              	.L82:
 965 0158 88000000 		.word	.L54
 966 015c 84001040 		.word	1074790532
 967 0160 04000140 		.word	1073807364
 968 0164 FFF9FFFF 		.word	-1537
 969 0168 FF9FFFFF 		.word	-24577
 970 016c FFFFF9FF 		.word	-393217
 971 0170 FFFF9FFF 		.word	-6291457
 972 0174 FFFFFF9F 		.word	-1610612737
 973 0178 08000140 		.word	1073807368
 974 017c FFFFFFF9 		.word	-100663297
 975 0180 0C000140 		.word	1073807372
 976 0184 00000140 		.word	1073807360
 977              		.cfi_endproc
 978              	.LFE8:
 979              		.size	AMux_1_Unset, .-AMux_1_Unset
 980              		.section	.psocinit
 981              		.align	2
 982              		.global	cyfitter_cfg
 983              		.code	16
 984              		.thumb_func
 985              		.type	cyfitter_cfg, %function
 986              	cyfitter_cfg:
 987              	.LFB9:
 519:Generated_Source\PSoC4/cyfitter_cfg.c **** 
 520:Generated_Source\PSoC4/cyfitter_cfg.c **** 
 521:Generated_Source\PSoC4/cyfitter_cfg.c **** 
 522:Generated_Source\PSoC4/cyfitter_cfg.c **** /*******************************************************************************
 523:Generated_Source\PSoC4/cyfitter_cfg.c **** * Function Name: cyfitter_cfg
 524:Generated_Source\PSoC4/cyfitter_cfg.c **** ********************************************************************************
 525:Generated_Source\PSoC4/cyfitter_cfg.c **** * Summary:
 526:Generated_Source\PSoC4/cyfitter_cfg.c **** *  This function is called by the start-up code for the selected device. It
 527:Generated_Source\PSoC4/cyfitter_cfg.c **** *  performs all of the necessary device configuration based on the design
 528:Generated_Source\PSoC4/cyfitter_cfg.c **** *  settings.  This includes settings from the Design Wide Resources (DWR) such
 529:Generated_Source\PSoC4/cyfitter_cfg.c **** *  as Clocks and Pins as well as any component configuration that is necessary.
 530:Generated_Source\PSoC4/cyfitter_cfg.c **** *
 531:Generated_Source\PSoC4/cyfitter_cfg.c **** * Parameters:
 532:Generated_Source\PSoC4/cyfitter_cfg.c **** *   void
 533:Generated_Source\PSoC4/cyfitter_cfg.c **** *
 534:Generated_Source\PSoC4/cyfitter_cfg.c **** * Return:
 535:Generated_Source\PSoC4/cyfitter_cfg.c **** *   void
 536:Generated_Source\PSoC4/cyfitter_cfg.c **** *
 537:Generated_Source\PSoC4/cyfitter_cfg.c **** *******************************************************************************/
 538:Generated_Source\PSoC4/cyfitter_cfg.c **** CY_CFG_SECTION
 539:Generated_Source\PSoC4/cyfitter_cfg.c **** void cyfitter_cfg(void)
 540:Generated_Source\PSoC4/cyfitter_cfg.c **** {
 988              		.loc 1 540 0
ARM GAS  C:\Users\FRANKL~1\AppData\Local\Temp\cclzeWks.s 			page 28


 989              		.cfi_startproc
 990              		@ args = 0, pretend = 0, frame = 0
 991              		@ frame_needed = 0, uses_anonymous_args = 0
 992 0088 10B5     		push	{r4, lr}
 993              		.cfi_def_cfa_offset 8
 994              		.cfi_offset 4, -8
 995              		.cfi_offset 14, -4
 541:Generated_Source\PSoC4/cyfitter_cfg.c **** 	/* Disable interrupts by default. Let user enable if/when they want. */
 542:Generated_Source\PSoC4/cyfitter_cfg.c **** 	CyGlobalIntDisable;
 996              		.loc 1 542 0
 997              		.syntax divided
 998              	@ 542 "Generated_Source\PSoC4\cyfitter_cfg.c" 1
 999 008a 72B6     		CPSID   i
 1000              	@ 0 "" 2
 1001              	.LVL28:
 1002              		.thumb
 1003              		.syntax unified
 1004              	.LBB3:
 543:Generated_Source\PSoC4/cyfitter_cfg.c **** 
 544:Generated_Source\PSoC4/cyfitter_cfg.c **** 	{
 545:Generated_Source\PSoC4/cyfitter_cfg.c **** 		static const uint32 CYCODE cy_cfg_addr_table[] = {
 546:Generated_Source\PSoC4/cyfitter_cfg.c **** 			0x400F3006u, /* Base address: 0x400F3000 Count: 6 */
 547:Generated_Source\PSoC4/cyfitter_cfg.c **** 			0x400F3105u, /* Base address: 0x400F3100 Count: 5 */
 548:Generated_Source\PSoC4/cyfitter_cfg.c **** 			0x400F3303u, /* Base address: 0x400F3300 Count: 3 */
 549:Generated_Source\PSoC4/cyfitter_cfg.c **** 			0x400F4006u, /* Base address: 0x400F4000 Count: 6 */
 550:Generated_Source\PSoC4/cyfitter_cfg.c **** 			0x400F4109u, /* Base address: 0x400F4100 Count: 9 */
 551:Generated_Source\PSoC4/cyfitter_cfg.c **** 			0x400F4204u, /* Base address: 0x400F4200 Count: 4 */
 552:Generated_Source\PSoC4/cyfitter_cfg.c **** 			0x400F4306u, /* Base address: 0x400F4300 Count: 6 */
 553:Generated_Source\PSoC4/cyfitter_cfg.c **** 		};
 554:Generated_Source\PSoC4/cyfitter_cfg.c **** 
 555:Generated_Source\PSoC4/cyfitter_cfg.c **** 		static const cy_cfg_addrvalue_t CYCODE cy_cfg_data_table[] = {
 556:Generated_Source\PSoC4/cyfitter_cfg.c **** 			{0x30u, 0x01u},
 557:Generated_Source\PSoC4/cyfitter_cfg.c **** 			{0x34u, 0x01u},
 558:Generated_Source\PSoC4/cyfitter_cfg.c **** 			{0x36u, 0x01u},
 559:Generated_Source\PSoC4/cyfitter_cfg.c **** 			{0x3Eu, 0x51u},
 560:Generated_Source\PSoC4/cyfitter_cfg.c **** 			{0x58u, 0x04u},
 561:Generated_Source\PSoC4/cyfitter_cfg.c **** 			{0x5Fu, 0x01u},
 562:Generated_Source\PSoC4/cyfitter_cfg.c **** 			{0x18u, 0x01u},
 563:Generated_Source\PSoC4/cyfitter_cfg.c **** 			{0x19u, 0x20u},
 564:Generated_Source\PSoC4/cyfitter_cfg.c **** 			{0x1Au, 0x80u},
 565:Generated_Source\PSoC4/cyfitter_cfg.c **** 			{0x1Bu, 0x02u},
 566:Generated_Source\PSoC4/cyfitter_cfg.c **** 			{0x87u, 0x02u},
 567:Generated_Source\PSoC4/cyfitter_cfg.c **** 			{0xAAu, 0x40u},
 568:Generated_Source\PSoC4/cyfitter_cfg.c **** 			{0xADu, 0x20u},
 569:Generated_Source\PSoC4/cyfitter_cfg.c **** 			{0xB4u, 0x01u},
 570:Generated_Source\PSoC4/cyfitter_cfg.c **** 			{0x57u, 0x08u},
 571:Generated_Source\PSoC4/cyfitter_cfg.c **** 			{0x67u, 0x80u},
 572:Generated_Source\PSoC4/cyfitter_cfg.c **** 			{0x87u, 0x40u},
 573:Generated_Source\PSoC4/cyfitter_cfg.c **** 			{0xD4u, 0x40u},
 574:Generated_Source\PSoC4/cyfitter_cfg.c **** 			{0xD8u, 0x80u},
 575:Generated_Source\PSoC4/cyfitter_cfg.c **** 			{0xE2u, 0x10u},
 576:Generated_Source\PSoC4/cyfitter_cfg.c **** 			{0x5Bu, 0x40u},
 577:Generated_Source\PSoC4/cyfitter_cfg.c **** 			{0x63u, 0x40u},
 578:Generated_Source\PSoC4/cyfitter_cfg.c **** 			{0x93u, 0x40u},
 579:Generated_Source\PSoC4/cyfitter_cfg.c **** 			{0x9Bu, 0x40u},
 580:Generated_Source\PSoC4/cyfitter_cfg.c **** 			{0xABu, 0x40u},
 581:Generated_Source\PSoC4/cyfitter_cfg.c **** 			{0xAFu, 0x48u},
ARM GAS  C:\Users\FRANKL~1\AppData\Local\Temp\cclzeWks.s 			page 29


 582:Generated_Source\PSoC4/cyfitter_cfg.c **** 			{0xD4u, 0x80u},
 583:Generated_Source\PSoC4/cyfitter_cfg.c **** 			{0xD8u, 0x40u},
 584:Generated_Source\PSoC4/cyfitter_cfg.c **** 			{0xEEu, 0xC0u},
 585:Generated_Source\PSoC4/cyfitter_cfg.c **** 			{0x50u, 0x40u},
 586:Generated_Source\PSoC4/cyfitter_cfg.c **** 			{0x61u, 0x02u},
 587:Generated_Source\PSoC4/cyfitter_cfg.c **** 			{0xD4u, 0x04u},
 588:Generated_Source\PSoC4/cyfitter_cfg.c **** 			{0xD8u, 0x02u},
 589:Generated_Source\PSoC4/cyfitter_cfg.c **** 			{0x61u, 0x02u},
 590:Generated_Source\PSoC4/cyfitter_cfg.c **** 			{0xA1u, 0x02u},
 591:Generated_Source\PSoC4/cyfitter_cfg.c **** 			{0xB4u, 0x40u},
 592:Generated_Source\PSoC4/cyfitter_cfg.c **** 			{0xB5u, 0x02u},
 593:Generated_Source\PSoC4/cyfitter_cfg.c **** 			{0xD8u, 0x02u},
 594:Generated_Source\PSoC4/cyfitter_cfg.c **** 			{0xECu, 0x08u},
 595:Generated_Source\PSoC4/cyfitter_cfg.c **** 		};
 596:Generated_Source\PSoC4/cyfitter_cfg.c **** 
 597:Generated_Source\PSoC4/cyfitter_cfg.c **** 
 598:Generated_Source\PSoC4/cyfitter_cfg.c **** 
 599:Generated_Source\PSoC4/cyfitter_cfg.c **** 		CYPACKED typedef struct {
 600:Generated_Source\PSoC4/cyfitter_cfg.c **** 			void CYFAR *address;
 601:Generated_Source\PSoC4/cyfitter_cfg.c **** 			uint16 size;
 602:Generated_Source\PSoC4/cyfitter_cfg.c **** 		} CYPACKED_ATTR cfg_memset_t;
 603:Generated_Source\PSoC4/cyfitter_cfg.c **** 
 604:Generated_Source\PSoC4/cyfitter_cfg.c **** 		static const cfg_memset_t CYCODE cfg_memset_list[] = {
 605:Generated_Source\PSoC4/cyfitter_cfg.c **** 			/* address, size */
 606:Generated_Source\PSoC4/cyfitter_cfg.c **** 			{(void CYFAR *)(CYDEV_UDB_P0_U0_BASE), 1024u},
 607:Generated_Source\PSoC4/cyfitter_cfg.c **** 			{(void CYFAR *)(CYDEV_UDB_DSI0_BASE), 1024u},
 608:Generated_Source\PSoC4/cyfitter_cfg.c **** 		};
 609:Generated_Source\PSoC4/cyfitter_cfg.c **** 
 610:Generated_Source\PSoC4/cyfitter_cfg.c **** 		uint8 CYDATA i;
 611:Generated_Source\PSoC4/cyfitter_cfg.c **** 
 612:Generated_Source\PSoC4/cyfitter_cfg.c **** 		/* Zero out critical memory blocks before beginning configuration */
 613:Generated_Source\PSoC4/cyfitter_cfg.c **** 		for (i = 0u; i < (sizeof(cfg_memset_list)/sizeof(cfg_memset_list[0])); i++)
 1005              		.loc 1 613 0
 1006 008c 0024     		movs	r4, #0
 1007 008e 0FE0     		b	.L85
 1008              	.LVL29:
 1009              	.L86:
 1010              	.LBB4:
 614:Generated_Source\PSoC4/cyfitter_cfg.c **** 		{
 615:Generated_Source\PSoC4/cyfitter_cfg.c **** 			const cfg_memset_t CYCODE * CYDATA ms = &cfg_memset_list[i];
 616:Generated_Source\PSoC4/cyfitter_cfg.c **** 			CYMEMZERO(ms->address, (size_t)(uint32)(ms->size));
 1011              		.loc 1 616 0 discriminator 3
 1012 0090 2C48     		ldr	r0, .L87
 1013 0092 6200     		lsls	r2, r4, #1
 1014 0094 1319     		adds	r3, r2, r4
 1015 0096 5900     		lsls	r1, r3, #1
 1016 0098 0B00     		movs	r3, r1
 1017 009a 4118     		adds	r1, r0, r1
 1018 009c 8988     		ldrh	r1, [r1, #4]
 1019 009e 1A5A     		ldrh	r2, [r3, r0]
 1020 00a0 C318     		adds	r3, r0, r3
 1021 00a2 5888     		ldrh	r0, [r3, #2]
 1022 00a4 0004     		lsls	r0, r0, #16
 1023 00a6 1043     		orrs	r0, r2
 1024 00a8 FFF7FEFF 		bl	CYMEMZERO
 1025              	.LVL30:
 1026              	.LBE4:
ARM GAS  C:\Users\FRANKL~1\AppData\Local\Temp\cclzeWks.s 			page 30


 613:Generated_Source\PSoC4/cyfitter_cfg.c **** 		{
 1027              		.loc 1 613 0 discriminator 3
 1028 00ac 0134     		adds	r4, r4, #1
 1029              	.LVL31:
 1030 00ae E4B2     		uxtb	r4, r4
 1031              	.LVL32:
 1032              	.L85:
 613:Generated_Source\PSoC4/cyfitter_cfg.c **** 		{
 1033              		.loc 1 613 0 is_stmt 0 discriminator 1
 1034 00b0 012C     		cmp	r4, #1
 1035 00b2 EDD9     		bls	.L86
 617:Generated_Source\PSoC4/cyfitter_cfg.c **** 		}
 618:Generated_Source\PSoC4/cyfitter_cfg.c **** 
 619:Generated_Source\PSoC4/cyfitter_cfg.c **** 		cfg_write_bytes32(cy_cfg_addr_table, cy_cfg_data_table);
 1036              		.loc 1 619 0 is_stmt 1
 1037 00b4 2348     		ldr	r0, .L87
 1038 00b6 0100     		movs	r1, r0
 1039 00b8 0C31     		adds	r1, r1, #12
 1040 00ba 5C30     		adds	r0, r0, #92
 1041 00bc FFF7FEFF 		bl	cfg_write_bytes32
 1042              	.LVL33:
 620:Generated_Source\PSoC4/cyfitter_cfg.c **** 
 621:Generated_Source\PSoC4/cyfitter_cfg.c **** 		/* HSIOM Starting address: CYDEV_HSIOM_BASE */
 622:Generated_Source\PSoC4/cyfitter_cfg.c **** 		CY_SET_REG32((void *)(CYREG_HSIOM_PORT_SEL3), 0x0000EEEEu);
 1043              		.loc 1 622 0
 1044 00c0 214A     		ldr	r2, .L87+4
 1045 00c2 224B     		ldr	r3, .L87+8
 1046 00c4 1A60     		str	r2, [r3]
 623:Generated_Source\PSoC4/cyfitter_cfg.c **** 
 624:Generated_Source\PSoC4/cyfitter_cfg.c **** 		/* UDB_PA_0 Starting address: CYDEV_UDB_PA0_BASE */
 625:Generated_Source\PSoC4/cyfitter_cfg.c **** 		CY_SET_REG32((void *)(CYDEV_UDB_PA0_BASE), 0x00990000u);
 1047              		.loc 1 625 0
 1048 00c6 9923     		movs	r3, #153
 1049 00c8 1B04     		lsls	r3, r3, #16
 1050 00ca 214A     		ldr	r2, .L87+12
 1051 00cc 1360     		str	r3, [r2]
 626:Generated_Source\PSoC4/cyfitter_cfg.c **** 		CY_SET_REG32((void *)(CYREG_UDB_PA0_CFG8), 0xFF550000u);
 1052              		.loc 1 626 0
 1053 00ce 2149     		ldr	r1, .L87+16
 1054 00d0 214A     		ldr	r2, .L87+20
 1055 00d2 1160     		str	r1, [r2]
 627:Generated_Source\PSoC4/cyfitter_cfg.c **** 
 628:Generated_Source\PSoC4/cyfitter_cfg.c **** 		/* UDB_PA_1 Starting address: CYDEV_UDB_PA1_BASE */
 629:Generated_Source\PSoC4/cyfitter_cfg.c **** 		CY_SET_REG32((void *)(CYDEV_UDB_PA1_BASE), 0x00990000u);
 1056              		.loc 1 629 0
 1057 00d4 214A     		ldr	r2, .L87+24
 1058 00d6 1360     		str	r3, [r2]
 630:Generated_Source\PSoC4/cyfitter_cfg.c **** 		CY_SET_REG32((void *)(CYREG_UDB_PA1_CFG8), 0x8AA80000u);
 1059              		.loc 1 630 0
 1060 00d8 2149     		ldr	r1, .L87+28
 1061 00da 224A     		ldr	r2, .L87+32
 1062 00dc 1160     		str	r1, [r2]
 631:Generated_Source\PSoC4/cyfitter_cfg.c **** 
 632:Generated_Source\PSoC4/cyfitter_cfg.c **** 		/* UDB_PA_2 Starting address: CYDEV_UDB_PA2_BASE */
 633:Generated_Source\PSoC4/cyfitter_cfg.c **** 		CY_SET_REG32((void *)(CYDEV_UDB_PA2_BASE), 0x00990000u);
 1063              		.loc 1 633 0
 1064 00de 224A     		ldr	r2, .L87+36
ARM GAS  C:\Users\FRANKL~1\AppData\Local\Temp\cclzeWks.s 			page 31


 1065 00e0 1360     		str	r3, [r2]
 634:Generated_Source\PSoC4/cyfitter_cfg.c **** 		CY_SET_REG32((void *)(CYREG_UDB_PA2_CFG8), 0xAA000000u);
 1066              		.loc 1 634 0
 1067 00e2 AA22     		movs	r2, #170
 1068 00e4 1206     		lsls	r2, r2, #24
 1069 00e6 2149     		ldr	r1, .L87+40
 1070 00e8 0A60     		str	r2, [r1]
 635:Generated_Source\PSoC4/cyfitter_cfg.c **** 
 636:Generated_Source\PSoC4/cyfitter_cfg.c **** 		/* UDB_PA_3 Starting address: CYDEV_UDB_PA3_BASE */
 637:Generated_Source\PSoC4/cyfitter_cfg.c **** 		CY_SET_REG32((void *)(CYDEV_UDB_PA3_BASE), 0x00990000u);
 1071              		.loc 1 637 0
 1072 00ea 2149     		ldr	r1, .L87+44
 1073 00ec 0B60     		str	r3, [r1]
 638:Generated_Source\PSoC4/cyfitter_cfg.c **** 		CY_SET_REG32((void *)(CYREG_UDB_PA3_CFG8), 0xAA000000u);
 1074              		.loc 1 638 0
 1075 00ee 214B     		ldr	r3, .L87+48
 1076 00f0 1A60     		str	r2, [r3]
 639:Generated_Source\PSoC4/cyfitter_cfg.c **** 
 640:Generated_Source\PSoC4/cyfitter_cfg.c **** 		/* Enable UDB array and digital routing */
 641:Generated_Source\PSoC4/cyfitter_cfg.c **** 		CY_SET_XTND_REG8((void *)CYREG_UDB_UDBIF_WAIT_CFG, (uint8)((CY_GET_XTND_REG8((void *)CYREG_UDB_UD
 1077              		.loc 1 641 0
 1078 00f2 2149     		ldr	r1, .L87+52
 1079 00f4 0B78     		ldrb	r3, [r1]
 1080 00f6 3C22     		movs	r2, #60
 1081 00f8 9343     		bics	r3, r2
 1082 00fa 1422     		movs	r2, #20
 1083 00fc 1343     		orrs	r3, r2
 1084 00fe DBB2     		uxtb	r3, r3
 1085 0100 0B70     		strb	r3, [r1]
 642:Generated_Source\PSoC4/cyfitter_cfg.c **** 		CY_SET_XTND_REG8((void *)CYREG_UDB_UDBIF_BANK_CTL, (uint8)(CY_GET_XTND_REG8((void *)CYREG_UDB_UDB
 1086              		.loc 1 642 0
 1087 0102 1E4A     		ldr	r2, .L87+56
 1088 0104 1178     		ldrb	r1, [r2]
 1089 0106 1623     		movs	r3, #22
 1090 0108 0B43     		orrs	r3, r1
 1091 010a DBB2     		uxtb	r3, r3
 1092 010c 1370     		strb	r3, [r2]
 1093              	.LBE3:
 643:Generated_Source\PSoC4/cyfitter_cfg.c **** 	}
 644:Generated_Source\PSoC4/cyfitter_cfg.c **** 
 645:Generated_Source\PSoC4/cyfitter_cfg.c **** 	/* Perform second pass device configuration. These items must be configured in specific order afte
 646:Generated_Source\PSoC4/cyfitter_cfg.c **** 	/* IOPINS0_0 Starting address: CYDEV_PRT0_BASE */
 647:Generated_Source\PSoC4/cyfitter_cfg.c **** 	CY_SET_REG32((void *)(CYDEV_PRT0_BASE), 0x000000FFu);
 1094              		.loc 1 647 0
 1095 010e FF23     		movs	r3, #255
 1096 0110 1B4A     		ldr	r2, .L87+60
 1097 0112 1360     		str	r3, [r2]
 648:Generated_Source\PSoC4/cyfitter_cfg.c **** 	CY_SET_REG32((void *)(CYREG_PRT0_PC2), 0x000000FFu);
 1098              		.loc 1 648 0
 1099 0114 1B4A     		ldr	r2, .L87+64
 1100 0116 1360     		str	r3, [r2]
 649:Generated_Source\PSoC4/cyfitter_cfg.c **** 
 650:Generated_Source\PSoC4/cyfitter_cfg.c **** 	/* IOPINS0_1 Starting address: CYDEV_PRT1_BASE */
 651:Generated_Source\PSoC4/cyfitter_cfg.c **** 	CY_SET_REG32((void *)(CYDEV_PRT1_BASE), 0x000000FFu);
 1101              		.loc 1 651 0
 1102 0118 1B4A     		ldr	r2, .L87+68
 1103 011a 1360     		str	r3, [r2]
ARM GAS  C:\Users\FRANKL~1\AppData\Local\Temp\cclzeWks.s 			page 32


 652:Generated_Source\PSoC4/cyfitter_cfg.c **** 	CY_SET_REG32((void *)(CYREG_PRT1_PC2), 0x000000FFu);
 1104              		.loc 1 652 0
 1105 011c 1B4A     		ldr	r2, .L87+72
 1106 011e 1360     		str	r3, [r2]
 653:Generated_Source\PSoC4/cyfitter_cfg.c **** 
 654:Generated_Source\PSoC4/cyfitter_cfg.c **** 	/* IOPINS0_2 Starting address: CYDEV_PRT2_BASE */
 655:Generated_Source\PSoC4/cyfitter_cfg.c **** 	CY_SET_REG32((void *)(CYDEV_PRT2_BASE), 0x000000FFu);
 1107              		.loc 1 655 0
 1108 0120 1B4A     		ldr	r2, .L87+76
 1109 0122 1360     		str	r3, [r2]
 656:Generated_Source\PSoC4/cyfitter_cfg.c **** 	CY_SET_REG32((void *)(CYREG_PRT2_PC2), 0x000000FFu);
 1110              		.loc 1 656 0
 1111 0124 1B4A     		ldr	r2, .L87+80
 1112 0126 1360     		str	r3, [r2]
 657:Generated_Source\PSoC4/cyfitter_cfg.c **** 
 658:Generated_Source\PSoC4/cyfitter_cfg.c **** 	/* IOPINS0_3 Starting address: CYDEV_PRT3_BASE */
 659:Generated_Source\PSoC4/cyfitter_cfg.c **** 	CY_SET_REG32((void *)(CYDEV_PRT3_BASE), 0x000000F3u);
 1113              		.loc 1 659 0
 1114 0128 F322     		movs	r2, #243
 1115 012a 1B4B     		ldr	r3, .L87+84
 1116 012c 1A60     		str	r2, [r3]
 660:Generated_Source\PSoC4/cyfitter_cfg.c **** 	CY_SET_REG32((void *)(CYREG_PRT3_PC), 0x00000DA4u);
 1117              		.loc 1 660 0
 1118 012e 1B4A     		ldr	r2, .L87+88
 1119 0130 1B4B     		ldr	r3, .L87+92
 1120 0132 1A60     		str	r2, [r3]
 661:Generated_Source\PSoC4/cyfitter_cfg.c **** 	CY_SET_REG32((void *)(CYREG_PRT3_PC2), 0x000000F0u);
 1121              		.loc 1 661 0
 1122 0134 F022     		movs	r2, #240
 1123 0136 1B4B     		ldr	r3, .L87+96
 1124 0138 1A60     		str	r2, [r3]
 662:Generated_Source\PSoC4/cyfitter_cfg.c **** 
 663:Generated_Source\PSoC4/cyfitter_cfg.c **** 
 664:Generated_Source\PSoC4/cyfitter_cfg.c **** 	/* Setup clocks based on selections from Clock DWR */
 665:Generated_Source\PSoC4/cyfitter_cfg.c **** 	ClockSetup();
 1125              		.loc 1 665 0
 1126 013a FFF761FF 		bl	ClockSetup
 1127              	.LVL34:
 666:Generated_Source\PSoC4/cyfitter_cfg.c **** 
 667:Generated_Source\PSoC4/cyfitter_cfg.c **** 	/* Perform basic analog initialization to defaults */
 668:Generated_Source\PSoC4/cyfitter_cfg.c **** 	AnalogSetDefault();
 1128              		.loc 1 668 0
 1129 013e FFF7FEFF 		bl	AnalogSetDefault
 1130              	.LVL35:
 669:Generated_Source\PSoC4/cyfitter_cfg.c **** 
 670:Generated_Source\PSoC4/cyfitter_cfg.c **** }
 1131              		.loc 1 670 0
 1132              		@ sp needed
 1133              	.LVL36:
 1134 0142 10BD     		pop	{r4, pc}
 1135              	.L88:
 1136              		.align	2
 1137              	.L87:
 1138 0144 10010000 		.word	.LANCHOR0
 1139 0148 EEEE0000 		.word	61166
 1140 014c 0C000140 		.word	1073807372
 1141 0150 00500F40 		.word	1074745344
ARM GAS  C:\Users\FRANKL~1\AppData\Local\Temp\cclzeWks.s 			page 33


 1142 0154 000055FF 		.word	-11206656
 1143 0158 08500F40 		.word	1074745352
 1144 015c 10500F40 		.word	1074745360
 1145 0160 0000A88A 		.word	-1968701440
 1146 0164 18500F40 		.word	1074745368
 1147 0168 20500F40 		.word	1074745376
 1148 016c 28500F40 		.word	1074745384
 1149 0170 30500F40 		.word	1074745392
 1150 0174 38500F40 		.word	1074745400
 1151 0178 01700F40 		.word	1074753537
 1152 017c 00700F40 		.word	1074753536
 1153 0180 00000440 		.word	1074003968
 1154 0184 18000440 		.word	1074003992
 1155 0188 00010440 		.word	1074004224
 1156 018c 18010440 		.word	1074004248
 1157 0190 00020440 		.word	1074004480
 1158 0194 18020440 		.word	1074004504
 1159 0198 00030440 		.word	1074004736
 1160 019c A40D0000 		.word	3492
 1161 01a0 08030440 		.word	1074004744
 1162 01a4 18030440 		.word	1074004760
 1163              		.cfi_endproc
 1164              	.LFE9:
 1165              		.size	cyfitter_cfg, .-cyfitter_cfg
 1166              		.section	.rodata
 1167              		.align	2
 1168              		.set	.LANCHOR0,. + 0
 1169              		.type	cfg_memset_list.4946, %object
 1170              		.size	cfg_memset_list.4946, 12
 1171              	cfg_memset_list.4946:
 1172 0110 00300F40 		.word	1074737152
 1173 0114 0004     		.short	1024
 1174 0116 00400F40 		.4byte	1074741248
 1175 011a 0004     		.short	1024
 1176              		.type	cy_cfg_data_table.4941, %object
 1177              		.size	cy_cfg_data_table.4941, 78
 1178              	cy_cfg_data_table.4941:
 1179 011c 30       		.byte	48
 1180 011d 01       		.byte	1
 1181 011e 34       		.byte	52
 1182 011f 01       		.byte	1
 1183 0120 36       		.byte	54
 1184 0121 01       		.byte	1
 1185 0122 3E       		.byte	62
 1186 0123 51       		.byte	81
 1187 0124 58       		.byte	88
 1188 0125 04       		.byte	4
 1189 0126 5F       		.byte	95
 1190 0127 01       		.byte	1
 1191 0128 18       		.byte	24
 1192 0129 01       		.byte	1
 1193 012a 19       		.byte	25
 1194 012b 20       		.byte	32
 1195 012c 1A       		.byte	26
 1196 012d 80       		.byte	-128
 1197 012e 1B       		.byte	27
 1198 012f 02       		.byte	2
ARM GAS  C:\Users\FRANKL~1\AppData\Local\Temp\cclzeWks.s 			page 34


 1199 0130 87       		.byte	-121
 1200 0131 02       		.byte	2
 1201 0132 AA       		.byte	-86
 1202 0133 40       		.byte	64
 1203 0134 AD       		.byte	-83
 1204 0135 20       		.byte	32
 1205 0136 B4       		.byte	-76
 1206 0137 01       		.byte	1
 1207 0138 57       		.byte	87
 1208 0139 08       		.byte	8
 1209 013a 67       		.byte	103
 1210 013b 80       		.byte	-128
 1211 013c 87       		.byte	-121
 1212 013d 40       		.byte	64
 1213 013e D4       		.byte	-44
 1214 013f 40       		.byte	64
 1215 0140 D8       		.byte	-40
 1216 0141 80       		.byte	-128
 1217 0142 E2       		.byte	-30
 1218 0143 10       		.byte	16
 1219 0144 5B       		.byte	91
 1220 0145 40       		.byte	64
 1221 0146 63       		.byte	99
 1222 0147 40       		.byte	64
 1223 0148 93       		.byte	-109
 1224 0149 40       		.byte	64
 1225 014a 9B       		.byte	-101
 1226 014b 40       		.byte	64
 1227 014c AB       		.byte	-85
 1228 014d 40       		.byte	64
 1229 014e AF       		.byte	-81
 1230 014f 48       		.byte	72
 1231 0150 D4       		.byte	-44
 1232 0151 80       		.byte	-128
 1233 0152 D8       		.byte	-40
 1234 0153 40       		.byte	64
 1235 0154 EE       		.byte	-18
 1236 0155 C0       		.byte	-64
 1237 0156 50       		.byte	80
 1238 0157 40       		.byte	64
 1239 0158 61       		.byte	97
 1240 0159 02       		.byte	2
 1241 015a D4       		.byte	-44
 1242 015b 04       		.byte	4
 1243 015c D8       		.byte	-40
 1244 015d 02       		.byte	2
 1245 015e 61       		.byte	97
 1246 015f 02       		.byte	2
 1247 0160 A1       		.byte	-95
 1248 0161 02       		.byte	2
 1249 0162 B4       		.byte	-76
 1250 0163 40       		.byte	64
 1251 0164 B5       		.byte	-75
 1252 0165 02       		.byte	2
 1253 0166 D8       		.byte	-40
 1254 0167 02       		.byte	2
 1255 0168 EC       		.byte	-20
ARM GAS  C:\Users\FRANKL~1\AppData\Local\Temp\cclzeWks.s 			page 35


 1256 0169 08       		.byte	8
 1257 016a 0000     		.space	2
 1258              		.type	cy_cfg_addr_table.4940, %object
 1259              		.size	cy_cfg_addr_table.4940, 28
 1260              	cy_cfg_addr_table.4940:
 1261 016c 06300F40 		.word	1074737158
 1262 0170 05310F40 		.word	1074737413
 1263 0174 03330F40 		.word	1074737923
 1264 0178 06400F40 		.word	1074741254
 1265 017c 09410F40 		.word	1074741513
 1266 0180 04420F40 		.word	1074741764
 1267 0184 06430F40 		.word	1074742022
 1268              		.text
 1269              	.Letext0:
 1270              		.file 2 "c:\\program files (x86)\\cypress\\psoc creator\\4.1\\psoc creator\\import\\gnu\\arm\\5.4.
 1271              		.file 3 "Generated_Source\\PSoC4\\cytypes.h"
 1272              		.file 4 "Generated_Source\\PSoC4\\CyLib.h"