ARM GAS  C:\Users\FRANKL~1\AppData\Local\Temp\ccqOZivK.s 			page 1


   1              		.syntax unified
   2              		.cpu cortex-m0
   3              		.fpu softvfp
   4              		.eabi_attribute 20, 1
   5              		.eabi_attribute 21, 1
   6              		.eabi_attribute 23, 3
   7              		.eabi_attribute 24, 1
   8              		.eabi_attribute 25, 1
   9              		.eabi_attribute 26, 1
  10              		.eabi_attribute 30, 1
  11              		.eabi_attribute 34, 0
  12              		.eabi_attribute 18, 4
  13              		.thumb
  14              		.syntax unified
  15              		.file	"main.c"
  16              		.text
  17              	.Ltext0:
  18              		.cfi_sections	.debug_frame
  19              		.section	.text.main,"ax",%progbits
  20              		.align	2
  21              		.global	main
  22              		.code	16
  23              		.thumb_func
  24              		.type	main, %function
  25              	main:
  26              	.LFB32:
  27              		.file 1 "main.c"
   1:main.c        **** #include "project.h"
   2:main.c        **** 
   3:main.c        **** #define SELECTOR_ID (3)
   4:main.c        **** 
   5:main.c        **** #define SELECTOR_COUNT (4u)
   6:main.c        **** #define INTERMEDIATE_COUNT (4u)
   7:main.c        **** #define CONTACT_COUNT (64u)
   8:main.c        **** #define CONTACT_CONNECT_CODE (0xC0u)
   9:main.c        **** #define CONTACT_DISCONNECT_CODE (0xD1u)
  10:main.c        **** 
  11:main.c        **** struct Selector_I2C_Struct {
  12:main.c        **** 	struct {
  13:main.c        **** 		uint8 subAddress;
  14:main.c        **** 		uint8 data[126];
  15:main.c        **** 	} write;
  16:main.c        **** 	struct {
  17:main.c        **** 		uint8 subAddress;
  18:main.c        **** 		uint8 data[126];
  19:main.c        **** 	} read;
  20:main.c        **** 	uint8 busAddress;
  21:main.c        **** };
  22:main.c        **** 
  23:main.c        **** int main(void) {
  28              		.loc 1 23 0
  29              		.cfi_startproc
  30              		@ args = 0, pretend = 0, frame = 256
  31              		@ frame_needed = 0, uses_anonymous_args = 0
  32 0000 30B5     		push	{r4, r5, lr}
  33              		.cfi_def_cfa_offset 12
  34              		.cfi_offset 4, -12
ARM GAS  C:\Users\FRANKL~1\AppData\Local\Temp\ccqOZivK.s 			page 2


  35              		.cfi_offset 5, -8
  36              		.cfi_offset 14, -4
  37 0002 C1B0     		sub	sp, sp, #260
  38              		.cfi_def_cfa_offset 272
  24:main.c        **** 	CyGlobalIntEnable;
  39              		.loc 1 24 0
  40              		.syntax divided
  41              	@ 24 "main.c" 1
  42 0004 62B6     		CPSIE   i
  43              	@ 0 "" 2
  25:main.c        **** 	
  26:main.c        **** 	struct Selector_I2C_Struct selector;
  27:main.c        **** 	uint8 I2C_Bus_Addresses[SELECTOR_COUNT] = {0x66, 0x11, 0x44, 0x22};
  28:main.c        **** 
  29:main.c        **** 	// Start all hardware blocks
  30:main.c        **** 	//AMux_1_Start(); //not required for a passive block
  31:main.c        **** 	Opamp_1_Start();
  44              		.loc 1 31 0
  45              		.thumb
  46              		.syntax unified
  47 0006 FFF7FEFF 		bl	Opamp_1_Start
  48              	.LVL0:
  32:main.c        **** 	ADC_SAR_Seq_1_Start();
  49              		.loc 1 32 0
  50 000a FFF7FEFF 		bl	ADC_SAR_Seq_1_Start
  51              	.LVL1:
  33:main.c        **** 	
  34:main.c        **** 	EZI2C_1_Start();
  52              		.loc 1 34 0
  53 000e FFF7FEFF 		bl	EZI2C_1_Start
  54              	.LVL2:
  35:main.c        **** 	EZI2C_1_EzI2CSetAddress1(I2C_Bus_Addresses[SELECTOR_ID]);
  55              		.loc 1 35 0
  56 0012 2220     		movs	r0, #34
  57 0014 FFF7FEFF 		bl	EZI2C_1_EzI2CSetAddress1
  58              	.LVL3:
  36:main.c        **** 	EZI2C_1_EzI2CSetBuffer1(sizeof(selector), sizeof(selector), (uint8*) &selector);
  59              		.loc 1 36 0
  60 0018 6A46     		mov	r2, sp
  61 001a FF21     		movs	r1, #255
  62 001c FF20     		movs	r0, #255
  63 001e FFF7FEFF 		bl	EZI2C_1_EzI2CSetBuffer1
  64              	.LVL4:
  65              	.L6:
  66              	.LBB2:
  37:main.c        **** 	
  38:main.c        **** 	while(1) {
  39:main.c        **** 		for (uint8 i = 0; i < sizeof(selector.write.data); i++) {
  67              		.loc 1 39 0
  68 0022 0024     		movs	r4, #0
  69 0024 13E0     		b	.L2
  70              	.LVL5:
  71              	.L5:
  40:main.c        **** 			if (i < AMux_1_CHANNELS) {
  72              		.loc 1 40 0
  73 0026 212C     		cmp	r4, #33
  74 0028 0FD8     		bhi	.L3
ARM GAS  C:\Users\FRANKL~1\AppData\Local\Temp\ccqOZivK.s 			page 3


  41:main.c        **** 				if (selector.write.data[i] == CONTACT_CONNECT_CODE) {
  75              		.loc 1 41 0
  76 002a 2500     		movs	r5, r4
  77 002c 2300     		movs	r3, r4
  78 002e 6B44     		add	r3, r3, sp
  79 0030 5B78     		ldrb	r3, [r3, #1]
  80 0032 C02B     		cmp	r3, #192
  81 0034 02D1     		bne	.L4
  42:main.c        **** 					AMux_1_Connect(i);
  82              		.loc 1 42 0
  83 0036 2000     		movs	r0, r4
  84 0038 FFF7FEFF 		bl	AMux_1_Set
  85              	.LVL6:
  86              	.L4:
  43:main.c        **** 				}
  44:main.c        **** 				
  45:main.c        **** 				if (selector.write.data[i] == CONTACT_DISCONNECT_CODE) {
  87              		.loc 1 45 0
  88 003c 6D44     		add	r5, r5, sp
  89 003e 6B78     		ldrb	r3, [r5, #1]
  90 0040 D12B     		cmp	r3, #209
  91 0042 02D1     		bne	.L3
  46:main.c        **** 					AMux_1_Disconnect(i);
  92              		.loc 1 46 0
  93 0044 2000     		movs	r0, r4
  94 0046 FFF7FEFF 		bl	AMux_1_Unset
  95              	.LVL7:
  96              	.L3:
  39:main.c        **** 			if (i < AMux_1_CHANNELS) {
  97              		.loc 1 39 0 discriminator 2
  98 004a 0134     		adds	r4, r4, #1
  99              	.LVL8:
 100 004c E4B2     		uxtb	r4, r4
 101              	.LVL9:
 102              	.L2:
  39:main.c        **** 			if (i < AMux_1_CHANNELS) {
 103              		.loc 1 39 0 is_stmt 0 discriminator 1
 104 004e 7D2C     		cmp	r4, #125
 105 0050 E9D9     		bls	.L5
 106 0052 E6E7     		b	.L6
 107              	.LBE2:
 108              		.cfi_endproc
 109              	.LFE32:
 110              		.size	main, .-main
 111              		.text
 112              	.Letext0:
 113              		.file 2 "Generated_Source\\PSoC4/cyfitter_cfg.h"
 114              		.file 3 "Generated_Source\\PSoC4/Opamp_1.h"
 115              		.file 4 "Generated_Source\\PSoC4/ADC_SAR_Seq_1.h"
 116              		.file 5 "Generated_Source\\PSoC4/EZI2C_1.h"
 117              		.file 6 "Generated_Source\\PSoC4/EZI2C_1_EZI2C.h"
 118              		.file 7 "Generated_Source\\PSoC4/cytypes.h"