ARM GAS  C:\Users\noyce\AppData\Local\Temp\ccGwF8H6.s 			page 1


   1              		.syntax unified
   2              		.cpu cortex-m0
   3              		.fpu softvfp
   4              		.eabi_attribute 20, 1
   5              		.eabi_attribute 21, 1
   6              		.eabi_attribute 23, 3
   7              		.eabi_attribute 24, 1
   8              		.eabi_attribute 25, 1
   9              		.eabi_attribute 26, 1
  10              		.eabi_attribute 30, 1
  11              		.eabi_attribute 34, 0
  12              		.eabi_attribute 18, 4
  13              		.thumb
  14              		.syntax unified
  15              		.file	"main.c"
  16              		.text
  17              	.Ltext0:
  18              		.cfi_sections	.debug_frame
  19              		.section	.text.main,"ax",%progbits
  20              		.align	2
  21              		.global	main
  22              		.code	16
  23              		.thumb_func
  24              		.type	main, %function
  25              	main:
  26              	.LFB32:
  27              		.file 1 "main.c"
   1:main.c        **** #include "project.h"
   2:main.c        **** 
   3:main.c        **** struct Selector_I2C_Struct {
   4:main.c        **** 	struct {
   5:main.c        **** 		uint8 subAddress;
   6:main.c        **** 		uint8 data[126];
   7:main.c        **** 	} write;
   8:main.c        **** 	struct {
   9:main.c        **** 		uint8 subAddress;
  10:main.c        **** 		uint8 data[126];
  11:main.c        **** 	} read;
  12:main.c        **** 	uint8 busAddress;
  13:main.c        **** };
  14:main.c        **** 
  15:main.c        **** int main(void) {
  28              		.loc 1 15 0
  29              		.cfi_startproc
  30              		@ args = 0, pretend = 0, frame = 256
  31              		@ frame_needed = 0, uses_anonymous_args = 0
  32 0000 30B5     		push	{r4, r5, lr}
  33              		.cfi_def_cfa_offset 12
  34              		.cfi_offset 4, -12
  35              		.cfi_offset 5, -8
  36              		.cfi_offset 14, -4
  37 0002 C1B0     		sub	sp, sp, #260
  38              		.cfi_def_cfa_offset 272
  16:main.c        **** 	CyGlobalIntEnable;
  39              		.loc 1 16 0
  40              		.syntax divided
  41              	@ 16 "main.c" 1
ARM GAS  C:\Users\noyce\AppData\Local\Temp\ccGwF8H6.s 			page 2


  42 0004 62B6     		CPSIE   i
  43              	@ 0 "" 2
  17:main.c        **** 	
  18:main.c        **** 	struct Selector_I2C_Struct selector;
  19:main.c        **** 	uint8 I2C_Bus_Addresses[4] = {0x66, 0x11, 0x44, 0x22};
  20:main.c        **** 	
  21:main.c        **** 	EZI2C_1_Start();
  44              		.loc 1 21 0
  45              		.thumb
  46              		.syntax unified
  47 0006 FFF7FEFF 		bl	EZI2C_1_Start
  48              	.LVL0:
  22:main.c        **** 	EZI2C_1_EzI2CSetAddress1(I2C_Bus_Addresses[1]);
  49              		.loc 1 22 0
  50 000a 1120     		movs	r0, #17
  51 000c FFF7FEFF 		bl	EZI2C_1_EzI2CSetAddress1
  52              	.LVL1:
  23:main.c        **** 	EZI2C_1_EzI2CSetBuffer1(sizeof(selector), sizeof(selector), (uint8*) &selector);
  53              		.loc 1 23 0
  54 0010 6A46     		mov	r2, sp
  55 0012 FF21     		movs	r1, #255
  56 0014 FF20     		movs	r0, #255
  57 0016 FFF7FEFF 		bl	EZI2C_1_EzI2CSetBuffer1
  58              	.LVL2:
  59              	.L6:
  60              	.LBB2:
  24:main.c        **** 	
  25:main.c        **** 	while(1) {
  26:main.c        **** 		for (uint8 i = 0; i < AMux_1_CHANNELS && i < sizeof(selector.write.data); i++) {
  61              		.loc 1 26 0
  62 001a 0024     		movs	r4, #0
  63 001c 11E0     		b	.L2
  64              	.LVL3:
  65              	.L5:
  27:main.c        **** 			// Code 0xC0 stands for COnnect
  28:main.c        **** 			if (selector.write.data[i] == 0xC0) {
  66              		.loc 1 28 0
  67 001e 2500     		movs	r5, r4
  68 0020 2300     		movs	r3, r4
  69 0022 6B44     		add	r3, r3, sp
  70 0024 5B78     		ldrb	r3, [r3, #1]
  71 0026 C02B     		cmp	r3, #192
  72 0028 02D1     		bne	.L3
  29:main.c        **** 				AMux_1_Select(i);
  73              		.loc 1 29 0
  74 002a 2000     		movs	r0, r4
  75 002c FFF7FEFF 		bl	AMux_1_Select
  76              	.LVL4:
  77              	.L3:
  30:main.c        **** 			}
  31:main.c        **** 			
  32:main.c        **** 			// Code 0xD1 stands for DIsconnects
  33:main.c        **** 			if (selector.write.data[i] == 0xD1) {
  78              		.loc 1 33 0
  79 0030 6D44     		add	r5, r5, sp
  80 0032 6B78     		ldrb	r3, [r5, #1]
  81 0034 D12B     		cmp	r3, #209
ARM GAS  C:\Users\noyce\AppData\Local\Temp\ccGwF8H6.s 			page 3


  82 0036 02D1     		bne	.L4
  34:main.c        **** 				AMux_1_Disconnect(i);
  83              		.loc 1 34 0
  84 0038 2000     		movs	r0, r4
  85 003a FFF7FEFF 		bl	AMux_1_Unset
  86              	.LVL5:
  87              	.L4:
  26:main.c        **** 			// Code 0xC0 stands for COnnect
  88              		.loc 1 26 0 discriminator 2
  89 003e 0134     		adds	r4, r4, #1
  90              	.LVL6:
  91 0040 E4B2     		uxtb	r4, r4
  92              	.LVL7:
  93              	.L2:
  26:main.c        **** 			// Code 0xC0 stands for COnnect
  94              		.loc 1 26 0 is_stmt 0 discriminator 1
  95 0042 212C     		cmp	r4, #33
  96 0044 EBD9     		bls	.L5
  97 0046 E8E7     		b	.L6
  98              	.LBE2:
  99              		.cfi_endproc
 100              	.LFE32:
 101              		.size	main, .-main
 102              		.text
 103              	.Letext0:
 104              		.file 2 "Generated_Source\\PSoC4/AMux_1.h"
 105              		.file 3 "Generated_Source\\PSoC4/cyfitter_cfg.h"
 106              		.file 4 "Generated_Source\\PSoC4/EZI2C_1.h"
 107              		.file 5 "Generated_Source\\PSoC4/EZI2C_1_EZI2C.h"
 108              		.file 6 "Generated_Source\\PSoC4/cytypes.h"