ARM GAS  C:\Users\FRANKL~1\AppData\Local\Temp\cc8oCYmi.s 			page 1


   1              		.syntax unified
   2              		.cpu cortex-m3
   3              		.fpu softvfp
   4              		.eabi_attribute 20, 1
   5              		.eabi_attribute 21, 1
   6              		.eabi_attribute 23, 3
   7              		.eabi_attribute 24, 1
   8              		.eabi_attribute 25, 1
   9              		.eabi_attribute 26, 1
  10              		.eabi_attribute 30, 1
  11              		.eabi_attribute 34, 1
  12              		.eabi_attribute 18, 4
  13              		.thumb
  14              		.syntax unified
  15              		.file	"ADC_SAR_2.c"
  16              		.text
  17              	.Ltext0:
  18              		.cfi_sections	.debug_frame
  19              		.section	.text.ADC_SAR_2_CalcGain,"ax",%progbits
  20              		.align	2
  21              		.thumb
  22              		.thumb_func
  23              		.type	ADC_SAR_2_CalcGain, %function
  24              	ADC_SAR_2_CalcGain:
  25              	.LFB12:
  26              		.file 1 "Generated_Source\\PSoC5\\ADC_SAR_2.c"
   1:Generated_Source\PSoC5/ADC_SAR_2.c **** /*******************************************************************************
   2:Generated_Source\PSoC5/ADC_SAR_2.c **** * File Name: ADC_SAR_2.c
   3:Generated_Source\PSoC5/ADC_SAR_2.c **** * Version 3.10
   4:Generated_Source\PSoC5/ADC_SAR_2.c **** *
   5:Generated_Source\PSoC5/ADC_SAR_2.c **** * Description:
   6:Generated_Source\PSoC5/ADC_SAR_2.c **** *  This file provides the source code to the API for the Successive
   7:Generated_Source\PSoC5/ADC_SAR_2.c **** *  approximation ADC Component.
   8:Generated_Source\PSoC5/ADC_SAR_2.c **** *
   9:Generated_Source\PSoC5/ADC_SAR_2.c **** * Note:
  10:Generated_Source\PSoC5/ADC_SAR_2.c **** *
  11:Generated_Source\PSoC5/ADC_SAR_2.c **** ********************************************************************************
  12:Generated_Source\PSoC5/ADC_SAR_2.c **** * Copyright 2008-2015, Cypress Semiconductor Corporation.  All rights reserved.
  13:Generated_Source\PSoC5/ADC_SAR_2.c **** * You may use this file only in accordance with the license, terms, conditions,
  14:Generated_Source\PSoC5/ADC_SAR_2.c **** * disclaimers, and limitations in the end user license agreement accompanying
  15:Generated_Source\PSoC5/ADC_SAR_2.c **** * the software package with which this file was provided.
  16:Generated_Source\PSoC5/ADC_SAR_2.c **** *******************************************************************************/
  17:Generated_Source\PSoC5/ADC_SAR_2.c **** 
  18:Generated_Source\PSoC5/ADC_SAR_2.c **** #include "CyLib.h"
  19:Generated_Source\PSoC5/ADC_SAR_2.c **** #include "ADC_SAR_2.h"
  20:Generated_Source\PSoC5/ADC_SAR_2.c **** 
  21:Generated_Source\PSoC5/ADC_SAR_2.c **** #if(ADC_SAR_2_DEFAULT_INTERNAL_CLK)
  22:Generated_Source\PSoC5/ADC_SAR_2.c ****     #include "ADC_SAR_2_theACLK.h"
  23:Generated_Source\PSoC5/ADC_SAR_2.c **** #endif /* End ADC_SAR_2_DEFAULT_INTERNAL_CLK */
  24:Generated_Source\PSoC5/ADC_SAR_2.c **** 
  25:Generated_Source\PSoC5/ADC_SAR_2.c **** 
  26:Generated_Source\PSoC5/ADC_SAR_2.c **** /***************************************
  27:Generated_Source\PSoC5/ADC_SAR_2.c **** * Forward function references
  28:Generated_Source\PSoC5/ADC_SAR_2.c **** ***************************************/
  29:Generated_Source\PSoC5/ADC_SAR_2.c **** static void ADC_SAR_2_CalcGain(uint8 resolution);
  30:Generated_Source\PSoC5/ADC_SAR_2.c **** 
  31:Generated_Source\PSoC5/ADC_SAR_2.c **** 
ARM GAS  C:\Users\FRANKL~1\AppData\Local\Temp\cc8oCYmi.s 			page 2


  32:Generated_Source\PSoC5/ADC_SAR_2.c **** /***************************************
  33:Generated_Source\PSoC5/ADC_SAR_2.c **** * Global data allocation
  34:Generated_Source\PSoC5/ADC_SAR_2.c **** ***************************************/
  35:Generated_Source\PSoC5/ADC_SAR_2.c **** uint8 ADC_SAR_2_initVar = 0u;
  36:Generated_Source\PSoC5/ADC_SAR_2.c **** volatile int16 ADC_SAR_2_offset;
  37:Generated_Source\PSoC5/ADC_SAR_2.c **** volatile int16 ADC_SAR_2_countsPerVolt;     /* Obsolete Gain compensation */
  38:Generated_Source\PSoC5/ADC_SAR_2.c **** volatile int32 ADC_SAR_2_countsPer10Volt;   /* Gain compensation */
  39:Generated_Source\PSoC5/ADC_SAR_2.c **** volatile int16 ADC_SAR_2_shift;
  40:Generated_Source\PSoC5/ADC_SAR_2.c **** 
  41:Generated_Source\PSoC5/ADC_SAR_2.c **** 
  42:Generated_Source\PSoC5/ADC_SAR_2.c **** /*******************************************************************************
  43:Generated_Source\PSoC5/ADC_SAR_2.c **** * Function Name: ADC_SAR_2_Start
  44:Generated_Source\PSoC5/ADC_SAR_2.c **** ********************************************************************************
  45:Generated_Source\PSoC5/ADC_SAR_2.c **** *
  46:Generated_Source\PSoC5/ADC_SAR_2.c **** * Summary:
  47:Generated_Source\PSoC5/ADC_SAR_2.c **** *  This is the preferred method to begin component operation.
  48:Generated_Source\PSoC5/ADC_SAR_2.c **** *  ADC_SAR_2_Start() sets the initVar variable, calls the
  49:Generated_Source\PSoC5/ADC_SAR_2.c **** *  ADC_SAR_2_Init() function, and then calls the
  50:Generated_Source\PSoC5/ADC_SAR_2.c **** *  ADC_SAR_2_Enable() function.
  51:Generated_Source\PSoC5/ADC_SAR_2.c **** *
  52:Generated_Source\PSoC5/ADC_SAR_2.c **** * Parameters:
  53:Generated_Source\PSoC5/ADC_SAR_2.c **** *  None.
  54:Generated_Source\PSoC5/ADC_SAR_2.c **** *
  55:Generated_Source\PSoC5/ADC_SAR_2.c **** * Return:
  56:Generated_Source\PSoC5/ADC_SAR_2.c **** *  None.
  57:Generated_Source\PSoC5/ADC_SAR_2.c **** *
  58:Generated_Source\PSoC5/ADC_SAR_2.c **** * Global variables:
  59:Generated_Source\PSoC5/ADC_SAR_2.c **** *  The ADC_SAR_2_initVar variable is used to indicate when/if initial
  60:Generated_Source\PSoC5/ADC_SAR_2.c **** *  configuration of this component has happened. The variable is initialized to
  61:Generated_Source\PSoC5/ADC_SAR_2.c **** *  zero and set to 1 the first time ADC_Start() is called. This allows for
  62:Generated_Source\PSoC5/ADC_SAR_2.c **** *  component Re-Start without re-initialization in all subsequent calls to the
  63:Generated_Source\PSoC5/ADC_SAR_2.c **** *  ADC_SAR_2_Start() routine.
  64:Generated_Source\PSoC5/ADC_SAR_2.c **** *  If re-initialization of the component is required the variable should be set
  65:Generated_Source\PSoC5/ADC_SAR_2.c **** *  to zero before call of ADC_SAR_2_Start() routine, or the user may call
  66:Generated_Source\PSoC5/ADC_SAR_2.c **** *  ADC_SAR_2_Init() and ADC_SAR_2_Enable() as done in the
  67:Generated_Source\PSoC5/ADC_SAR_2.c **** *  ADC_SAR_2_Start() routine.
  68:Generated_Source\PSoC5/ADC_SAR_2.c **** *
  69:Generated_Source\PSoC5/ADC_SAR_2.c **** * Side Effect:
  70:Generated_Source\PSoC5/ADC_SAR_2.c **** *  If the initVar variable is already set, this function only calls the
  71:Generated_Source\PSoC5/ADC_SAR_2.c **** *  ADC_SAR_2_Enable() function.
  72:Generated_Source\PSoC5/ADC_SAR_2.c **** *
  73:Generated_Source\PSoC5/ADC_SAR_2.c **** *******************************************************************************/
  74:Generated_Source\PSoC5/ADC_SAR_2.c **** void ADC_SAR_2_Start(void)
  75:Generated_Source\PSoC5/ADC_SAR_2.c **** {
  76:Generated_Source\PSoC5/ADC_SAR_2.c **** 
  77:Generated_Source\PSoC5/ADC_SAR_2.c ****     /* If not Initialized then initialize all required hardware and software */
  78:Generated_Source\PSoC5/ADC_SAR_2.c ****     if(ADC_SAR_2_initVar == 0u)
  79:Generated_Source\PSoC5/ADC_SAR_2.c ****     {
  80:Generated_Source\PSoC5/ADC_SAR_2.c ****         ADC_SAR_2_Init();
  81:Generated_Source\PSoC5/ADC_SAR_2.c ****         ADC_SAR_2_initVar = 1u;
  82:Generated_Source\PSoC5/ADC_SAR_2.c ****     }
  83:Generated_Source\PSoC5/ADC_SAR_2.c ****     ADC_SAR_2_Enable();
  84:Generated_Source\PSoC5/ADC_SAR_2.c **** }
  85:Generated_Source\PSoC5/ADC_SAR_2.c **** 
  86:Generated_Source\PSoC5/ADC_SAR_2.c **** 
  87:Generated_Source\PSoC5/ADC_SAR_2.c **** /*******************************************************************************
  88:Generated_Source\PSoC5/ADC_SAR_2.c **** * Function Name: ADC_SAR_2_Init
ARM GAS  C:\Users\FRANKL~1\AppData\Local\Temp\cc8oCYmi.s 			page 3


  89:Generated_Source\PSoC5/ADC_SAR_2.c **** ********************************************************************************
  90:Generated_Source\PSoC5/ADC_SAR_2.c **** *
  91:Generated_Source\PSoC5/ADC_SAR_2.c **** * Summary:
  92:Generated_Source\PSoC5/ADC_SAR_2.c **** *  Initialize component's parameters to the parameters set by user in the
  93:Generated_Source\PSoC5/ADC_SAR_2.c **** *  customizer of the component placed onto schematic. Usually called in
  94:Generated_Source\PSoC5/ADC_SAR_2.c **** *  ADC_SAR_2_Start().
  95:Generated_Source\PSoC5/ADC_SAR_2.c **** *
  96:Generated_Source\PSoC5/ADC_SAR_2.c **** * Parameters:
  97:Generated_Source\PSoC5/ADC_SAR_2.c **** *  None.
  98:Generated_Source\PSoC5/ADC_SAR_2.c **** *
  99:Generated_Source\PSoC5/ADC_SAR_2.c **** * Return:
 100:Generated_Source\PSoC5/ADC_SAR_2.c **** *  None.
 101:Generated_Source\PSoC5/ADC_SAR_2.c **** *
 102:Generated_Source\PSoC5/ADC_SAR_2.c **** * Global variables:
 103:Generated_Source\PSoC5/ADC_SAR_2.c **** *  The ADC_SAR_2_offset variable is initialized to 0.
 104:Generated_Source\PSoC5/ADC_SAR_2.c **** *
 105:Generated_Source\PSoC5/ADC_SAR_2.c **** *******************************************************************************/
 106:Generated_Source\PSoC5/ADC_SAR_2.c **** void ADC_SAR_2_Init(void)
 107:Generated_Source\PSoC5/ADC_SAR_2.c **** {
 108:Generated_Source\PSoC5/ADC_SAR_2.c **** 
 109:Generated_Source\PSoC5/ADC_SAR_2.c ****     /* This is only valid if there is an internal clock */
 110:Generated_Source\PSoC5/ADC_SAR_2.c ****     #if(ADC_SAR_2_DEFAULT_INTERNAL_CLK)
 111:Generated_Source\PSoC5/ADC_SAR_2.c ****         ADC_SAR_2_theACLK_SetMode(CYCLK_DUTY);
 112:Generated_Source\PSoC5/ADC_SAR_2.c ****     #endif /* End ADC_SAR_2_DEFAULT_INTERNAL_CLK */
 113:Generated_Source\PSoC5/ADC_SAR_2.c **** 
 114:Generated_Source\PSoC5/ADC_SAR_2.c ****     #if(ADC_SAR_2_IRQ_REMOVE == 0u)
 115:Generated_Source\PSoC5/ADC_SAR_2.c ****         /* Start and set interrupt vector */
 116:Generated_Source\PSoC5/ADC_SAR_2.c ****         CyIntSetPriority(ADC_SAR_2_INTC_NUMBER, ADC_SAR_2_INTC_PRIOR_NUMBER);
 117:Generated_Source\PSoC5/ADC_SAR_2.c ****         (void)CyIntSetVector(ADC_SAR_2_INTC_NUMBER, &ADC_SAR_2_ISR);
 118:Generated_Source\PSoC5/ADC_SAR_2.c ****     #endif   /* End ADC_SAR_2_IRQ_REMOVE */
 119:Generated_Source\PSoC5/ADC_SAR_2.c **** 
 120:Generated_Source\PSoC5/ADC_SAR_2.c ****     /* Enable IRQ mode*/
 121:Generated_Source\PSoC5/ADC_SAR_2.c ****     ADC_SAR_2_SAR_CSR1_REG |= ADC_SAR_2_SAR_IRQ_MASK_EN | ADC_SAR_2_SAR_IRQ_MODE_EDGE;
 122:Generated_Source\PSoC5/ADC_SAR_2.c **** 
 123:Generated_Source\PSoC5/ADC_SAR_2.c ****     /*Set SAR ADC resolution ADC */
 124:Generated_Source\PSoC5/ADC_SAR_2.c ****     ADC_SAR_2_SetResolution(ADC_SAR_2_DEFAULT_RESOLUTION);
 125:Generated_Source\PSoC5/ADC_SAR_2.c ****     ADC_SAR_2_offset = 0;
 126:Generated_Source\PSoC5/ADC_SAR_2.c **** }
 127:Generated_Source\PSoC5/ADC_SAR_2.c **** 
 128:Generated_Source\PSoC5/ADC_SAR_2.c **** 
 129:Generated_Source\PSoC5/ADC_SAR_2.c **** /*******************************************************************************
 130:Generated_Source\PSoC5/ADC_SAR_2.c **** * Function Name: ADC_SAR_2_Enable
 131:Generated_Source\PSoC5/ADC_SAR_2.c **** ********************************************************************************
 132:Generated_Source\PSoC5/ADC_SAR_2.c **** *
 133:Generated_Source\PSoC5/ADC_SAR_2.c **** * Summary:
 134:Generated_Source\PSoC5/ADC_SAR_2.c **** *  Enables the reference, clock and power for SAR ADC.
 135:Generated_Source\PSoC5/ADC_SAR_2.c **** *
 136:Generated_Source\PSoC5/ADC_SAR_2.c **** * Parameters:
 137:Generated_Source\PSoC5/ADC_SAR_2.c **** *  None.
 138:Generated_Source\PSoC5/ADC_SAR_2.c **** *
 139:Generated_Source\PSoC5/ADC_SAR_2.c **** * Return:
 140:Generated_Source\PSoC5/ADC_SAR_2.c **** *  None.
 141:Generated_Source\PSoC5/ADC_SAR_2.c **** *
 142:Generated_Source\PSoC5/ADC_SAR_2.c **** *******************************************************************************/
 143:Generated_Source\PSoC5/ADC_SAR_2.c **** void ADC_SAR_2_Enable(void)
 144:Generated_Source\PSoC5/ADC_SAR_2.c **** {
 145:Generated_Source\PSoC5/ADC_SAR_2.c ****     uint8 tmpReg;
ARM GAS  C:\Users\FRANKL~1\AppData\Local\Temp\cc8oCYmi.s 			page 4


 146:Generated_Source\PSoC5/ADC_SAR_2.c ****     uint8 enableInterrupts;
 147:Generated_Source\PSoC5/ADC_SAR_2.c ****     enableInterrupts = CyEnterCriticalSection();
 148:Generated_Source\PSoC5/ADC_SAR_2.c **** 
 149:Generated_Source\PSoC5/ADC_SAR_2.c ****     /* Enable the SAR ADC block in Active Power Mode */
 150:Generated_Source\PSoC5/ADC_SAR_2.c ****     ADC_SAR_2_PWRMGR_SAR_REG |= ADC_SAR_2_ACT_PWR_SAR_EN;
 151:Generated_Source\PSoC5/ADC_SAR_2.c **** 
 152:Generated_Source\PSoC5/ADC_SAR_2.c ****      /* Enable the SAR ADC in Standby Power Mode*/
 153:Generated_Source\PSoC5/ADC_SAR_2.c ****     ADC_SAR_2_STBY_PWRMGR_SAR_REG |= ADC_SAR_2_STBY_PWR_SAR_EN;
 154:Generated_Source\PSoC5/ADC_SAR_2.c **** 
 155:Generated_Source\PSoC5/ADC_SAR_2.c ****     /* This is only valid if there is an internal clock */
 156:Generated_Source\PSoC5/ADC_SAR_2.c ****     #if(ADC_SAR_2_DEFAULT_INTERNAL_CLK)
 157:Generated_Source\PSoC5/ADC_SAR_2.c ****         ADC_SAR_2_PWRMGR_CLK_REG |= ADC_SAR_2_ACT_PWR_CLK_EN;
 158:Generated_Source\PSoC5/ADC_SAR_2.c ****         ADC_SAR_2_STBY_PWRMGR_CLK_REG |= ADC_SAR_2_STBY_PWR_CLK_EN;
 159:Generated_Source\PSoC5/ADC_SAR_2.c ****     #endif /* End ADC_SAR_2_DEFAULT_INTERNAL_CLK */
 160:Generated_Source\PSoC5/ADC_SAR_2.c **** 
 161:Generated_Source\PSoC5/ADC_SAR_2.c ****     /* Enable VCM buffer and Enable Int Ref Amp */
 162:Generated_Source\PSoC5/ADC_SAR_2.c ****     tmpReg = ADC_SAR_2_SAR_CSR3_REG;
 163:Generated_Source\PSoC5/ADC_SAR_2.c ****     tmpReg |= ADC_SAR_2_SAR_EN_BUF_VCM_EN;
 164:Generated_Source\PSoC5/ADC_SAR_2.c ****     /* PD_BUF_VREF is OFF in External reference or Vdda reference mode */
 165:Generated_Source\PSoC5/ADC_SAR_2.c ****     #if((ADC_SAR_2_DEFAULT_REFERENCE == ADC_SAR_2__EXT_REF) || \
 166:Generated_Source\PSoC5/ADC_SAR_2.c ****         (ADC_SAR_2_DEFAULT_RANGE == ADC_SAR_2__VNEG_VDDA_DIFF))
 167:Generated_Source\PSoC5/ADC_SAR_2.c ****         tmpReg &= (uint8)~ADC_SAR_2_SAR_EN_BUF_VREF_EN;
 168:Generated_Source\PSoC5/ADC_SAR_2.c ****     #else /* In INTREF or INTREF Bypassed this buffer is ON */
 169:Generated_Source\PSoC5/ADC_SAR_2.c ****         tmpReg |= ADC_SAR_2_SAR_EN_BUF_VREF_EN;
 170:Generated_Source\PSoC5/ADC_SAR_2.c ****     #endif /* ADC_SAR_2_DEFAULT_REFERENCE == ADC_SAR_2__EXT_REF */
 171:Generated_Source\PSoC5/ADC_SAR_2.c ****     ADC_SAR_2_SAR_CSR3_REG = tmpReg;
 172:Generated_Source\PSoC5/ADC_SAR_2.c **** 
 173:Generated_Source\PSoC5/ADC_SAR_2.c ****     /* Set reference for ADC */
 174:Generated_Source\PSoC5/ADC_SAR_2.c ****     #if(ADC_SAR_2_DEFAULT_RANGE == ADC_SAR_2__VNEG_VDDA_DIFF)
 175:Generated_Source\PSoC5/ADC_SAR_2.c ****         #if(ADC_SAR_2_DEFAULT_REFERENCE == ADC_SAR_2__EXT_REF)
 176:Generated_Source\PSoC5/ADC_SAR_2.c ****             ADC_SAR_2_SAR_CSR6_REG = ADC_SAR_2_INT_BYPASS_EXT_VREF; /* S2 */
 177:Generated_Source\PSoC5/ADC_SAR_2.c ****         #else /* Internal Vdda reference or obsolete bypass mode */
 178:Generated_Source\PSoC5/ADC_SAR_2.c ****             ADC_SAR_2_SAR_CSR6_REG = ADC_SAR_2_VDDA_VREF;           /* S7 */
 179:Generated_Source\PSoC5/ADC_SAR_2.c ****         #endif /* ADC_SAR_2_DEFAULT_REFERENCE == ADC_SAR_2__EXT_REF */
 180:Generated_Source\PSoC5/ADC_SAR_2.c ****     #else  /* Reference goes through internal buffer */
 181:Generated_Source\PSoC5/ADC_SAR_2.c ****         #if(ADC_SAR_2_DEFAULT_REFERENCE == ADC_SAR_2__INT_REF_NOT_BYPASSED)
 182:Generated_Source\PSoC5/ADC_SAR_2.c ****             ADC_SAR_2_SAR_CSR6_REG = ADC_SAR_2_INT_VREF;            /* S3 + S4 */
 183:Generated_Source\PSoC5/ADC_SAR_2.c ****         #else /* INTREF Bypassed of External */
 184:Generated_Source\PSoC5/ADC_SAR_2.c ****             ADC_SAR_2_SAR_CSR6_REG = ADC_SAR_2_INT_BYPASS_EXT_VREF; /* S2 */
 185:Generated_Source\PSoC5/ADC_SAR_2.c ****         #endif /* ADC_SAR_2_DEFAULT_REFERENCE == ADC_SAR_2__INT_REF_NOT_BYPASSED */
 186:Generated_Source\PSoC5/ADC_SAR_2.c ****     #endif /* VNEG_VDDA_DIFF */
 187:Generated_Source\PSoC5/ADC_SAR_2.c **** 
 188:Generated_Source\PSoC5/ADC_SAR_2.c ****     /* Low non-overlap delay for sampling clock signals (for 1MSPS) */
 189:Generated_Source\PSoC5/ADC_SAR_2.c ****     #if(ADC_SAR_2_HIGH_POWER_PULSE == 0u) /* MinPulseWidth <= 50 ns */
 190:Generated_Source\PSoC5/ADC_SAR_2.c ****         ADC_SAR_2_SAR_CSR5_REG &= (uint8)~ADC_SAR_2_SAR_DLY_INC;
 191:Generated_Source\PSoC5/ADC_SAR_2.c ****     #else /* Set High non-overlap delay for sampling clock signals (for <500KSPS)*/
 192:Generated_Source\PSoC5/ADC_SAR_2.c ****         ADC_SAR_2_SAR_CSR5_REG |= ADC_SAR_2_SAR_DLY_INC;
 193:Generated_Source\PSoC5/ADC_SAR_2.c ****     #endif /* ADC_SAR_2_HIGH_POWER_PULSE == 0u */
 194:Generated_Source\PSoC5/ADC_SAR_2.c **** 
 195:Generated_Source\PSoC5/ADC_SAR_2.c ****     /* Increase comparator latch enable delay by 20%, 
 196:Generated_Source\PSoC5/ADC_SAR_2.c ****     *  Increase comparator bias current by 30% without impacting delaysDelay 
 197:Generated_Source\PSoC5/ADC_SAR_2.c ****     *  Default for 1MSPS) 
 198:Generated_Source\PSoC5/ADC_SAR_2.c ****     */
 199:Generated_Source\PSoC5/ADC_SAR_2.c ****     #if(ADC_SAR_2_HIGH_POWER_PULSE == 0u)    /* MinPulseWidth <= 50 ns */
 200:Generated_Source\PSoC5/ADC_SAR_2.c ****         ADC_SAR_2_SAR_CSR5_REG |= ADC_SAR_2_SAR_SEL_CSEL_DFT_CHAR;
 201:Generated_Source\PSoC5/ADC_SAR_2.c ****     #else /* for <500ksps */
 202:Generated_Source\PSoC5/ADC_SAR_2.c ****         ADC_SAR_2_SAR_CSR5_REG &= (uint8)~ADC_SAR_2_SAR_SEL_CSEL_DFT_CHAR;
ARM GAS  C:\Users\FRANKL~1\AppData\Local\Temp\cc8oCYmi.s 			page 5


 203:Generated_Source\PSoC5/ADC_SAR_2.c ****     #endif /* ADC_SAR_2_HIGH_POWER_PULSE == 0u */
 204:Generated_Source\PSoC5/ADC_SAR_2.c **** 
 205:Generated_Source\PSoC5/ADC_SAR_2.c ****     /* Set default power and other configurations for control register 0 in multiple lines */
 206:Generated_Source\PSoC5/ADC_SAR_2.c ****     ADC_SAR_2_SAR_CSR0_REG = (uint8)((uint8)ADC_SAR_2_DEFAULT_POWER << ADC_SAR_2_SAR_POWER_SHIFT)
 207:Generated_Source\PSoC5/ADC_SAR_2.c ****     /* SAR_HIZ_CLEAR:   Should not be used for LP */
 208:Generated_Source\PSoC5/ADC_SAR_2.c ****     #if ((CY_PSOC5LP) || (ADC_SAR_2_DEFAULT_REFERENCE != ADC_SAR_2__EXT_REF))
 209:Generated_Source\PSoC5/ADC_SAR_2.c ****         | ADC_SAR_2_SAR_HIZ_CLEAR
 210:Generated_Source\PSoC5/ADC_SAR_2.c ****     #endif /* SAR_HIZ_CLEAR */
 211:Generated_Source\PSoC5/ADC_SAR_2.c ****     /*Set Convertion mode */
 212:Generated_Source\PSoC5/ADC_SAR_2.c ****     #if(ADC_SAR_2_DEFAULT_CONV_MODE != ADC_SAR_2__FREE_RUNNING)      /* If triggered mode */
 213:Generated_Source\PSoC5/ADC_SAR_2.c ****         | ADC_SAR_2_SAR_MX_SOF_UDB           /* source: UDB */
 214:Generated_Source\PSoC5/ADC_SAR_2.c ****         | ADC_SAR_2_SAR_SOF_MODE_EDGE        /* Set edge-sensitive sof source */
 215:Generated_Source\PSoC5/ADC_SAR_2.c ****     #endif /* ADC_SAR_2_DEFAULT_CONV_MODE */
 216:Generated_Source\PSoC5/ADC_SAR_2.c ****     ; /* end of multiple line initialization */
 217:Generated_Source\PSoC5/ADC_SAR_2.c **** 
 218:Generated_Source\PSoC5/ADC_SAR_2.c ****     ADC_SAR_2_SAR_TR0_REG = ADC_SAR_2_SAR_CAP_TRIM_2;
 219:Generated_Source\PSoC5/ADC_SAR_2.c **** 
 220:Generated_Source\PSoC5/ADC_SAR_2.c ****     /* Enable clock for SAR ADC*/
 221:Generated_Source\PSoC5/ADC_SAR_2.c ****     ADC_SAR_2_SAR_CLK_REG |= ADC_SAR_2_SAR_MX_CLK_EN;
 222:Generated_Source\PSoC5/ADC_SAR_2.c **** 
 223:Generated_Source\PSoC5/ADC_SAR_2.c ****     CyDelayUs(10u); /* The block is ready to use 10 us after the enable signal is set high. */
 224:Generated_Source\PSoC5/ADC_SAR_2.c **** 
 225:Generated_Source\PSoC5/ADC_SAR_2.c ****     #if(ADC_SAR_2_IRQ_REMOVE == 0u)
 226:Generated_Source\PSoC5/ADC_SAR_2.c ****         /* Clear a pending interrupt */
 227:Generated_Source\PSoC5/ADC_SAR_2.c ****         CyIntClearPending(ADC_SAR_2_INTC_NUMBER);
 228:Generated_Source\PSoC5/ADC_SAR_2.c ****     #endif   /* End ADC_SAR_2_IRQ_REMOVE */
 229:Generated_Source\PSoC5/ADC_SAR_2.c **** 
 230:Generated_Source\PSoC5/ADC_SAR_2.c ****     CyExitCriticalSection(enableInterrupts);
 231:Generated_Source\PSoC5/ADC_SAR_2.c **** }
 232:Generated_Source\PSoC5/ADC_SAR_2.c **** 
 233:Generated_Source\PSoC5/ADC_SAR_2.c **** 
 234:Generated_Source\PSoC5/ADC_SAR_2.c **** /*******************************************************************************
 235:Generated_Source\PSoC5/ADC_SAR_2.c **** * Function Name: ADC_SAR_2_Stop
 236:Generated_Source\PSoC5/ADC_SAR_2.c **** ********************************************************************************
 237:Generated_Source\PSoC5/ADC_SAR_2.c **** *
 238:Generated_Source\PSoC5/ADC_SAR_2.c **** * Summary:
 239:Generated_Source\PSoC5/ADC_SAR_2.c **** *  Stops ADC conversions and puts the ADC into its lowest power mode.
 240:Generated_Source\PSoC5/ADC_SAR_2.c **** *
 241:Generated_Source\PSoC5/ADC_SAR_2.c **** * Parameters:
 242:Generated_Source\PSoC5/ADC_SAR_2.c **** *  None.
 243:Generated_Source\PSoC5/ADC_SAR_2.c **** *
 244:Generated_Source\PSoC5/ADC_SAR_2.c **** * Return:
 245:Generated_Source\PSoC5/ADC_SAR_2.c **** *  None.
 246:Generated_Source\PSoC5/ADC_SAR_2.c **** *
 247:Generated_Source\PSoC5/ADC_SAR_2.c **** *******************************************************************************/
 248:Generated_Source\PSoC5/ADC_SAR_2.c **** void ADC_SAR_2_Stop(void)
 249:Generated_Source\PSoC5/ADC_SAR_2.c **** {
 250:Generated_Source\PSoC5/ADC_SAR_2.c ****     uint8 enableInterrupts;
 251:Generated_Source\PSoC5/ADC_SAR_2.c ****     enableInterrupts = CyEnterCriticalSection();
 252:Generated_Source\PSoC5/ADC_SAR_2.c **** 
 253:Generated_Source\PSoC5/ADC_SAR_2.c ****     /* Stop all conversions */
 254:Generated_Source\PSoC5/ADC_SAR_2.c ****     ADC_SAR_2_SAR_CSR0_REG &= (uint8)~ADC_SAR_2_SAR_SOF_START_CONV;
 255:Generated_Source\PSoC5/ADC_SAR_2.c ****     /* Disable the SAR ADC block in Active Power Mode */
 256:Generated_Source\PSoC5/ADC_SAR_2.c ****     ADC_SAR_2_PWRMGR_SAR_REG &= (uint8)~ADC_SAR_2_ACT_PWR_SAR_EN;
 257:Generated_Source\PSoC5/ADC_SAR_2.c ****     /* Disable the SAR ADC in Standby Power Mode */
 258:Generated_Source\PSoC5/ADC_SAR_2.c ****     ADC_SAR_2_STBY_PWRMGR_SAR_REG &= (uint8)~ADC_SAR_2_STBY_PWR_SAR_EN;
 259:Generated_Source\PSoC5/ADC_SAR_2.c **** 
ARM GAS  C:\Users\FRANKL~1\AppData\Local\Temp\cc8oCYmi.s 			page 6


 260:Generated_Source\PSoC5/ADC_SAR_2.c ****     /* This is only valid if there is an internal clock */
 261:Generated_Source\PSoC5/ADC_SAR_2.c ****     #if(ADC_SAR_2_DEFAULT_INTERNAL_CLK)
 262:Generated_Source\PSoC5/ADC_SAR_2.c ****         ADC_SAR_2_PWRMGR_CLK_REG &= (uint8)~ADC_SAR_2_ACT_PWR_CLK_EN;
 263:Generated_Source\PSoC5/ADC_SAR_2.c ****         ADC_SAR_2_STBY_PWRMGR_CLK_REG &= (uint8)~ADC_SAR_2_STBY_PWR_CLK_EN;
 264:Generated_Source\PSoC5/ADC_SAR_2.c ****     #endif /* End ADC_SAR_2_DEFAULT_INTERNAL_CLK */
 265:Generated_Source\PSoC5/ADC_SAR_2.c **** 
 266:Generated_Source\PSoC5/ADC_SAR_2.c ****     CyExitCriticalSection(enableInterrupts);
 267:Generated_Source\PSoC5/ADC_SAR_2.c **** 
 268:Generated_Source\PSoC5/ADC_SAR_2.c **** }
 269:Generated_Source\PSoC5/ADC_SAR_2.c **** 
 270:Generated_Source\PSoC5/ADC_SAR_2.c **** 
 271:Generated_Source\PSoC5/ADC_SAR_2.c **** /*******************************************************************************
 272:Generated_Source\PSoC5/ADC_SAR_2.c **** * Function Name: ADC_SAR_2_SetPower
 273:Generated_Source\PSoC5/ADC_SAR_2.c **** ********************************************************************************
 274:Generated_Source\PSoC5/ADC_SAR_2.c **** *
 275:Generated_Source\PSoC5/ADC_SAR_2.c **** * Summary:
 276:Generated_Source\PSoC5/ADC_SAR_2.c **** *  Sets the operational power of the ADC. You should use the higher power
 277:Generated_Source\PSoC5/ADC_SAR_2.c **** *  settings with faster clock speeds.
 278:Generated_Source\PSoC5/ADC_SAR_2.c **** *
 279:Generated_Source\PSoC5/ADC_SAR_2.c **** * Parameters:
 280:Generated_Source\PSoC5/ADC_SAR_2.c **** *  power:  Power setting for ADC
 281:Generated_Source\PSoC5/ADC_SAR_2.c **** *  0 ->    Normal
 282:Generated_Source\PSoC5/ADC_SAR_2.c **** *  1 ->    Medium power
 283:Generated_Source\PSoC5/ADC_SAR_2.c **** *  2 ->    1.25 power
 284:Generated_Source\PSoC5/ADC_SAR_2.c **** *  3 ->    Minimum power.
 285:Generated_Source\PSoC5/ADC_SAR_2.c **** *
 286:Generated_Source\PSoC5/ADC_SAR_2.c **** * Return:
 287:Generated_Source\PSoC5/ADC_SAR_2.c **** *  None.
 288:Generated_Source\PSoC5/ADC_SAR_2.c **** *
 289:Generated_Source\PSoC5/ADC_SAR_2.c **** *******************************************************************************/
 290:Generated_Source\PSoC5/ADC_SAR_2.c **** void ADC_SAR_2_SetPower(uint8 power)
 291:Generated_Source\PSoC5/ADC_SAR_2.c **** {
 292:Generated_Source\PSoC5/ADC_SAR_2.c ****     uint8 tmpReg;
 293:Generated_Source\PSoC5/ADC_SAR_2.c **** 
 294:Generated_Source\PSoC5/ADC_SAR_2.c ****     /* mask off invalid power settings */
 295:Generated_Source\PSoC5/ADC_SAR_2.c ****     power &= ADC_SAR_2_SAR_API_POWER_MASK;
 296:Generated_Source\PSoC5/ADC_SAR_2.c **** 
 297:Generated_Source\PSoC5/ADC_SAR_2.c ****     /* Set Power parameter  */
 298:Generated_Source\PSoC5/ADC_SAR_2.c ****     tmpReg = ADC_SAR_2_SAR_CSR0_REG & (uint8)~ADC_SAR_2_SAR_POWER_MASK;
 299:Generated_Source\PSoC5/ADC_SAR_2.c ****     tmpReg |= (uint8)(power << ADC_SAR_2_SAR_POWER_SHIFT);
 300:Generated_Source\PSoC5/ADC_SAR_2.c ****     ADC_SAR_2_SAR_CSR0_REG = tmpReg;
 301:Generated_Source\PSoC5/ADC_SAR_2.c **** }
 302:Generated_Source\PSoC5/ADC_SAR_2.c **** 
 303:Generated_Source\PSoC5/ADC_SAR_2.c **** 
 304:Generated_Source\PSoC5/ADC_SAR_2.c **** /*******************************************************************************
 305:Generated_Source\PSoC5/ADC_SAR_2.c **** * Function Name: ADC_SAR_2_SetResolution
 306:Generated_Source\PSoC5/ADC_SAR_2.c **** ********************************************************************************
 307:Generated_Source\PSoC5/ADC_SAR_2.c **** *
 308:Generated_Source\PSoC5/ADC_SAR_2.c **** * Summary:
 309:Generated_Source\PSoC5/ADC_SAR_2.c **** *  Sets the Relution of the SAR.
 310:Generated_Source\PSoC5/ADC_SAR_2.c **** *
 311:Generated_Source\PSoC5/ADC_SAR_2.c **** * Parameters:
 312:Generated_Source\PSoC5/ADC_SAR_2.c **** *  resolution:
 313:Generated_Source\PSoC5/ADC_SAR_2.c **** *  12 ->    RES12
 314:Generated_Source\PSoC5/ADC_SAR_2.c **** *  10 ->    RES10
 315:Generated_Source\PSoC5/ADC_SAR_2.c **** *  8  ->    RES8
 316:Generated_Source\PSoC5/ADC_SAR_2.c **** *
ARM GAS  C:\Users\FRANKL~1\AppData\Local\Temp\cc8oCYmi.s 			page 7


 317:Generated_Source\PSoC5/ADC_SAR_2.c **** * Return:
 318:Generated_Source\PSoC5/ADC_SAR_2.c **** *  None.
 319:Generated_Source\PSoC5/ADC_SAR_2.c **** *
 320:Generated_Source\PSoC5/ADC_SAR_2.c **** * Side Effects:
 321:Generated_Source\PSoC5/ADC_SAR_2.c **** *  The ADC resolution cannot be changed during a conversion cycle. The
 322:Generated_Source\PSoC5/ADC_SAR_2.c **** *  recommended best practice is to stop conversions with
 323:Generated_Source\PSoC5/ADC_SAR_2.c **** *  ADC_StopConvert(), change the resolution, then restart the
 324:Generated_Source\PSoC5/ADC_SAR_2.c **** *  conversions with ADC_StartConvert().
 325:Generated_Source\PSoC5/ADC_SAR_2.c **** *  If you decide not to stop conversions before calling this API, you
 326:Generated_Source\PSoC5/ADC_SAR_2.c **** *  should use ADC_IsEndConversion() to wait until conversion is complete
 327:Generated_Source\PSoC5/ADC_SAR_2.c **** *  before changing the resolution.
 328:Generated_Source\PSoC5/ADC_SAR_2.c **** *  If you call ADC_SetResolution() during a conversion, the resolution will
 329:Generated_Source\PSoC5/ADC_SAR_2.c **** *  not be changed until the current conversion is complete. Data will not be
 330:Generated_Source\PSoC5/ADC_SAR_2.c **** *  available in the new resolution for another 6 + "New Resolution(in bits)"
 331:Generated_Source\PSoC5/ADC_SAR_2.c **** *  clock cycles.
 332:Generated_Source\PSoC5/ADC_SAR_2.c **** *  You may need add a delay of this number of clock cycles after
 333:Generated_Source\PSoC5/ADC_SAR_2.c **** *  ADC_SetResolution() is called before data is valid again.
 334:Generated_Source\PSoC5/ADC_SAR_2.c **** *  Affects ADC_CountsTo_Volts(), ADC_CountsTo_mVolts(), and
 335:Generated_Source\PSoC5/ADC_SAR_2.c **** *  ADC_CountsTo_uVolts() by calculating the correct conversion between ADC
 336:Generated_Source\PSoC5/ADC_SAR_2.c **** *  counts and the applied input voltage. Calculation depends on resolution,
 337:Generated_Source\PSoC5/ADC_SAR_2.c **** *  input range, and voltage reference.
 338:Generated_Source\PSoC5/ADC_SAR_2.c **** *
 339:Generated_Source\PSoC5/ADC_SAR_2.c **** *******************************************************************************/
 340:Generated_Source\PSoC5/ADC_SAR_2.c **** void ADC_SAR_2_SetResolution(uint8 resolution)
 341:Generated_Source\PSoC5/ADC_SAR_2.c **** {
 342:Generated_Source\PSoC5/ADC_SAR_2.c ****     uint8 tmpReg;
 343:Generated_Source\PSoC5/ADC_SAR_2.c **** 
 344:Generated_Source\PSoC5/ADC_SAR_2.c ****     /* Set SAR ADC resolution and sample width: 18 conversion cycles at 12bits + 1 gap */
 345:Generated_Source\PSoC5/ADC_SAR_2.c ****     switch (resolution)
 346:Generated_Source\PSoC5/ADC_SAR_2.c ****     {
 347:Generated_Source\PSoC5/ADC_SAR_2.c ****         case (uint8)ADC_SAR_2__BITS_12:
 348:Generated_Source\PSoC5/ADC_SAR_2.c ****             tmpReg = ADC_SAR_2_SAR_RESOLUTION_12BIT | ADC_SAR_2_SAR_SAMPLE_WIDTH;
 349:Generated_Source\PSoC5/ADC_SAR_2.c ****             break;
 350:Generated_Source\PSoC5/ADC_SAR_2.c ****         case (uint8)ADC_SAR_2__BITS_10:
 351:Generated_Source\PSoC5/ADC_SAR_2.c ****             tmpReg = ADC_SAR_2_SAR_RESOLUTION_10BIT | ADC_SAR_2_SAR_SAMPLE_WIDTH;
 352:Generated_Source\PSoC5/ADC_SAR_2.c ****             break;
 353:Generated_Source\PSoC5/ADC_SAR_2.c ****         case (uint8)ADC_SAR_2__BITS_8:
 354:Generated_Source\PSoC5/ADC_SAR_2.c ****             tmpReg = ADC_SAR_2_SAR_RESOLUTION_8BIT | ADC_SAR_2_SAR_SAMPLE_WIDTH;
 355:Generated_Source\PSoC5/ADC_SAR_2.c ****             break;
 356:Generated_Source\PSoC5/ADC_SAR_2.c ****         default:
 357:Generated_Source\PSoC5/ADC_SAR_2.c ****             tmpReg = ADC_SAR_2_SAR_RESOLUTION_12BIT | ADC_SAR_2_SAR_SAMPLE_WIDTH;
 358:Generated_Source\PSoC5/ADC_SAR_2.c ****             /* Halt CPU in debug mode if resolution is out of valid range */
 359:Generated_Source\PSoC5/ADC_SAR_2.c ****             CYASSERT(0u != 0u);
 360:Generated_Source\PSoC5/ADC_SAR_2.c ****             break;
 361:Generated_Source\PSoC5/ADC_SAR_2.c ****     }
 362:Generated_Source\PSoC5/ADC_SAR_2.c ****     ADC_SAR_2_SAR_CSR2_REG = tmpReg;
 363:Generated_Source\PSoC5/ADC_SAR_2.c **** 
 364:Generated_Source\PSoC5/ADC_SAR_2.c ****      /* Calculate gain for convert counts to volts */
 365:Generated_Source\PSoC5/ADC_SAR_2.c ****     ADC_SAR_2_CalcGain(resolution);
 366:Generated_Source\PSoC5/ADC_SAR_2.c **** }
 367:Generated_Source\PSoC5/ADC_SAR_2.c **** 
 368:Generated_Source\PSoC5/ADC_SAR_2.c **** 
 369:Generated_Source\PSoC5/ADC_SAR_2.c **** #if(ADC_SAR_2_DEFAULT_CONV_MODE != ADC_SAR_2__HARDWARE_TRIGGER)
 370:Generated_Source\PSoC5/ADC_SAR_2.c **** 
 371:Generated_Source\PSoC5/ADC_SAR_2.c **** 
 372:Generated_Source\PSoC5/ADC_SAR_2.c ****     /*******************************************************************************
 373:Generated_Source\PSoC5/ADC_SAR_2.c ****     * Function Name: ADC_SAR_2_StartConvert
ARM GAS  C:\Users\FRANKL~1\AppData\Local\Temp\cc8oCYmi.s 			page 8


 374:Generated_Source\PSoC5/ADC_SAR_2.c ****     ********************************************************************************
 375:Generated_Source\PSoC5/ADC_SAR_2.c ****     *
 376:Generated_Source\PSoC5/ADC_SAR_2.c ****     * Summary:
 377:Generated_Source\PSoC5/ADC_SAR_2.c ****     *  Forces the ADC to initiate a conversion. In free-running mode, the ADC runs
 378:Generated_Source\PSoC5/ADC_SAR_2.c ****     *  continuously. In software trigger mode, the function also acts as a software
 379:Generated_Source\PSoC5/ADC_SAR_2.c ****     *  version of the SOC and every conversion must be triggered by
 380:Generated_Source\PSoC5/ADC_SAR_2.c ****     *  ADC_SAR_2_StartConvert(). This function is not available when the
 381:Generated_Source\PSoC5/ADC_SAR_2.c ****     *  Hardware Trigger sample mode is selected.
 382:Generated_Source\PSoC5/ADC_SAR_2.c ****     *
 383:Generated_Source\PSoC5/ADC_SAR_2.c ****     * Parameters:
 384:Generated_Source\PSoC5/ADC_SAR_2.c ****     *  None.
 385:Generated_Source\PSoC5/ADC_SAR_2.c ****     *
 386:Generated_Source\PSoC5/ADC_SAR_2.c ****     * Return:
 387:Generated_Source\PSoC5/ADC_SAR_2.c ****     *  None.
 388:Generated_Source\PSoC5/ADC_SAR_2.c ****     *
 389:Generated_Source\PSoC5/ADC_SAR_2.c ****     * Theory:
 390:Generated_Source\PSoC5/ADC_SAR_2.c ****     *  Forces the ADC to initiate a conversion. In Free Running mode, the ADC will
 391:Generated_Source\PSoC5/ADC_SAR_2.c ****     *  run continuously. In a software trigger mode the function also acts as a
 392:Generated_Source\PSoC5/ADC_SAR_2.c ****     *  software version of the SOC. Here every conversion has to be triggered by
 393:Generated_Source\PSoC5/ADC_SAR_2.c ****     *  the routine. This writes into the SOC bit in SAR_CTRL reg.
 394:Generated_Source\PSoC5/ADC_SAR_2.c ****     *
 395:Generated_Source\PSoC5/ADC_SAR_2.c ****     * Side Effects:
 396:Generated_Source\PSoC5/ADC_SAR_2.c ****     *  In a software trigger mode the function switches source for SOF from the
 397:Generated_Source\PSoC5/ADC_SAR_2.c ****     *  external pin to the internal SOF generation. Application should not call
 398:Generated_Source\PSoC5/ADC_SAR_2.c ****     *  StartConvert if external source used for SOF.
 399:Generated_Source\PSoC5/ADC_SAR_2.c ****     *
 400:Generated_Source\PSoC5/ADC_SAR_2.c ****     *******************************************************************************/
 401:Generated_Source\PSoC5/ADC_SAR_2.c ****     void ADC_SAR_2_StartConvert(void)
 402:Generated_Source\PSoC5/ADC_SAR_2.c ****     {
 403:Generated_Source\PSoC5/ADC_SAR_2.c ****         #if(ADC_SAR_2_DEFAULT_CONV_MODE != ADC_SAR_2__FREE_RUNNING)  /* If software triggered mode 
 404:Generated_Source\PSoC5/ADC_SAR_2.c ****             ADC_SAR_2_SAR_CSR0_REG &= (uint8)~ADC_SAR_2_SAR_MX_SOF_UDB;   /* source: SOF bit */
 405:Generated_Source\PSoC5/ADC_SAR_2.c ****         #endif /* End ADC_SAR_2_DEFAULT_CONV_MODE */
 406:Generated_Source\PSoC5/ADC_SAR_2.c **** 
 407:Generated_Source\PSoC5/ADC_SAR_2.c ****         /* Start the conversion */
 408:Generated_Source\PSoC5/ADC_SAR_2.c ****         ADC_SAR_2_SAR_CSR0_REG |= ADC_SAR_2_SAR_SOF_START_CONV;
 409:Generated_Source\PSoC5/ADC_SAR_2.c ****     }
 410:Generated_Source\PSoC5/ADC_SAR_2.c **** 
 411:Generated_Source\PSoC5/ADC_SAR_2.c **** 
 412:Generated_Source\PSoC5/ADC_SAR_2.c ****     /*******************************************************************************
 413:Generated_Source\PSoC5/ADC_SAR_2.c ****     * Function Name: ADC_SAR_2_StopConvert
 414:Generated_Source\PSoC5/ADC_SAR_2.c ****     ********************************************************************************
 415:Generated_Source\PSoC5/ADC_SAR_2.c ****     *
 416:Generated_Source\PSoC5/ADC_SAR_2.c ****     * Summary:
 417:Generated_Source\PSoC5/ADC_SAR_2.c ****     *  Forces the ADC to stop conversions. If a conversion is currently executing,
 418:Generated_Source\PSoC5/ADC_SAR_2.c ****     *  that conversion will complete, but no further conversions will occur. This
 419:Generated_Source\PSoC5/ADC_SAR_2.c ****     *  function is not available when the Hardware Trigger sample mode is selected.
 420:Generated_Source\PSoC5/ADC_SAR_2.c ****     *
 421:Generated_Source\PSoC5/ADC_SAR_2.c ****     * Parameters:
 422:Generated_Source\PSoC5/ADC_SAR_2.c ****     *  None.
 423:Generated_Source\PSoC5/ADC_SAR_2.c ****     *
 424:Generated_Source\PSoC5/ADC_SAR_2.c ****     * Return:
 425:Generated_Source\PSoC5/ADC_SAR_2.c ****     *  None.
 426:Generated_Source\PSoC5/ADC_SAR_2.c ****     *
 427:Generated_Source\PSoC5/ADC_SAR_2.c ****     * Theory:
 428:Generated_Source\PSoC5/ADC_SAR_2.c ****     *  Stops ADC conversion in Free Running mode.
 429:Generated_Source\PSoC5/ADC_SAR_2.c ****     *
 430:Generated_Source\PSoC5/ADC_SAR_2.c ****     * Side Effects:
ARM GAS  C:\Users\FRANKL~1\AppData\Local\Temp\cc8oCYmi.s 			page 9


 431:Generated_Source\PSoC5/ADC_SAR_2.c ****     *  In Software Trigger sample mode, this function sets a software version of the
 432:Generated_Source\PSoC5/ADC_SAR_2.c ****     *  SOC to low level and switches the SOC source to hardware SOC input.
 433:Generated_Source\PSoC5/ADC_SAR_2.c ****     *
 434:Generated_Source\PSoC5/ADC_SAR_2.c ****     *******************************************************************************/
 435:Generated_Source\PSoC5/ADC_SAR_2.c ****     void ADC_SAR_2_StopConvert(void)
 436:Generated_Source\PSoC5/ADC_SAR_2.c ****     {
 437:Generated_Source\PSoC5/ADC_SAR_2.c ****         /* Stop all conversions */
 438:Generated_Source\PSoC5/ADC_SAR_2.c ****         ADC_SAR_2_SAR_CSR0_REG &= (uint8)~ADC_SAR_2_SAR_SOF_START_CONV;
 439:Generated_Source\PSoC5/ADC_SAR_2.c **** 
 440:Generated_Source\PSoC5/ADC_SAR_2.c ****         #if(ADC_SAR_2_DEFAULT_CONV_MODE != ADC_SAR_2__FREE_RUNNING)  /* If software triggered mode 
 441:Generated_Source\PSoC5/ADC_SAR_2.c ****             /* Return source to UDB for hardware SOF signal */
 442:Generated_Source\PSoC5/ADC_SAR_2.c ****             ADC_SAR_2_SAR_CSR0_REG |= ADC_SAR_2_SAR_MX_SOF_UDB;    /* source: UDB */
 443:Generated_Source\PSoC5/ADC_SAR_2.c ****         #endif /* End ADC_SAR_2_DEFAULT_CONV_MODE */
 444:Generated_Source\PSoC5/ADC_SAR_2.c **** 
 445:Generated_Source\PSoC5/ADC_SAR_2.c ****     }
 446:Generated_Source\PSoC5/ADC_SAR_2.c **** 
 447:Generated_Source\PSoC5/ADC_SAR_2.c **** #endif /* End ADC_SAR_2_DEFAULT_CONV_MODE != ADC_SAR_2__HARDWARE_TRIGGER */
 448:Generated_Source\PSoC5/ADC_SAR_2.c **** 
 449:Generated_Source\PSoC5/ADC_SAR_2.c **** 
 450:Generated_Source\PSoC5/ADC_SAR_2.c **** /*******************************************************************************
 451:Generated_Source\PSoC5/ADC_SAR_2.c **** * Function Name: ADC_SAR_2_IsEndConversion
 452:Generated_Source\PSoC5/ADC_SAR_2.c **** ********************************************************************************
 453:Generated_Source\PSoC5/ADC_SAR_2.c **** *
 454:Generated_Source\PSoC5/ADC_SAR_2.c **** * Summary:
 455:Generated_Source\PSoC5/ADC_SAR_2.c **** *  Immediately returns the status of the conversion or does not return
 456:Generated_Source\PSoC5/ADC_SAR_2.c **** *  (blocking) until the conversion completes, depending on the retMode
 457:Generated_Source\PSoC5/ADC_SAR_2.c **** *  parameter.
 458:Generated_Source\PSoC5/ADC_SAR_2.c **** *
 459:Generated_Source\PSoC5/ADC_SAR_2.c **** * Parameters:
 460:Generated_Source\PSoC5/ADC_SAR_2.c **** *  retMode:  Check conversion return mode.
 461:Generated_Source\PSoC5/ADC_SAR_2.c **** *   ADC_SAR_2_RETURN_STATUS: Immediately returns the status. If the
 462:Generated_Source\PSoC5/ADC_SAR_2.c **** *     value returned is zero, the conversion is not complete, and this function
 463:Generated_Source\PSoC5/ADC_SAR_2.c **** *     should be retried until a nonzero result is returned.
 464:Generated_Source\PSoC5/ADC_SAR_2.c **** *   ADC_SAR_2_WAIT_FOR_RESULT: Does not return a result until the ADC
 465:Generated_Source\PSoC5/ADC_SAR_2.c **** *     conversion is complete.
 466:Generated_Source\PSoC5/ADC_SAR_2.c **** *
 467:Generated_Source\PSoC5/ADC_SAR_2.c **** * Return:
 468:Generated_Source\PSoC5/ADC_SAR_2.c **** *  (uint8)  0 =>  The ADC is still calculating the last result.
 469:Generated_Source\PSoC5/ADC_SAR_2.c **** *           1 =>  The last conversion is complete.
 470:Generated_Source\PSoC5/ADC_SAR_2.c **** *
 471:Generated_Source\PSoC5/ADC_SAR_2.c **** * Side Effects:
 472:Generated_Source\PSoC5/ADC_SAR_2.c **** *  This function reads the end of conversion status, which is cleared on read.
 473:Generated_Source\PSoC5/ADC_SAR_2.c **** *
 474:Generated_Source\PSoC5/ADC_SAR_2.c **** *******************************************************************************/
 475:Generated_Source\PSoC5/ADC_SAR_2.c **** uint8 ADC_SAR_2_IsEndConversion(uint8 retMode)
 476:Generated_Source\PSoC5/ADC_SAR_2.c **** {
 477:Generated_Source\PSoC5/ADC_SAR_2.c ****     uint8 status;
 478:Generated_Source\PSoC5/ADC_SAR_2.c **** 
 479:Generated_Source\PSoC5/ADC_SAR_2.c ****     do
 480:Generated_Source\PSoC5/ADC_SAR_2.c ****     {
 481:Generated_Source\PSoC5/ADC_SAR_2.c ****         status = ADC_SAR_2_SAR_CSR1_REG & ADC_SAR_2_SAR_EOF_1;
 482:Generated_Source\PSoC5/ADC_SAR_2.c ****     } while ((status != ADC_SAR_2_SAR_EOF_1) && (retMode == ADC_SAR_2_WAIT_FOR_RESULT));
 483:Generated_Source\PSoC5/ADC_SAR_2.c ****     /* If convertion complete, wait until EOF bit released */
 484:Generated_Source\PSoC5/ADC_SAR_2.c ****     if(status == ADC_SAR_2_SAR_EOF_1)
 485:Generated_Source\PSoC5/ADC_SAR_2.c ****     {
 486:Generated_Source\PSoC5/ADC_SAR_2.c ****         /* wait one ADC clock to let the EOC status bit release */
 487:Generated_Source\PSoC5/ADC_SAR_2.c ****         CyDelayUs(1u);
ARM GAS  C:\Users\FRANKL~1\AppData\Local\Temp\cc8oCYmi.s 			page 10


 488:Generated_Source\PSoC5/ADC_SAR_2.c ****         /* Do the unconditional read operation of the CSR1 register to make sure the EOC bit has be
 489:Generated_Source\PSoC5/ADC_SAR_2.c ****         CY_GET_REG8(ADC_SAR_2_SAR_CSR1_PTR);
 490:Generated_Source\PSoC5/ADC_SAR_2.c ****     }
 491:Generated_Source\PSoC5/ADC_SAR_2.c **** 
 492:Generated_Source\PSoC5/ADC_SAR_2.c ****     return(status);
 493:Generated_Source\PSoC5/ADC_SAR_2.c **** }
 494:Generated_Source\PSoC5/ADC_SAR_2.c **** 
 495:Generated_Source\PSoC5/ADC_SAR_2.c **** 
 496:Generated_Source\PSoC5/ADC_SAR_2.c **** /*******************************************************************************
 497:Generated_Source\PSoC5/ADC_SAR_2.c **** * Function Name: ADC_SAR_2_GetResult8
 498:Generated_Source\PSoC5/ADC_SAR_2.c **** ********************************************************************************
 499:Generated_Source\PSoC5/ADC_SAR_2.c **** *
 500:Generated_Source\PSoC5/ADC_SAR_2.c **** * Summary:
 501:Generated_Source\PSoC5/ADC_SAR_2.c **** *  Returns the result of an 8-bit conversion. If the resolution is set greater
 502:Generated_Source\PSoC5/ADC_SAR_2.c **** *  than 8 bits, the function returns the LSB of the result.
 503:Generated_Source\PSoC5/ADC_SAR_2.c **** *  ADC_SAR_2_IsEndConversion() should be called to verify that the data
 504:Generated_Source\PSoC5/ADC_SAR_2.c **** *   sample is ready.
 505:Generated_Source\PSoC5/ADC_SAR_2.c **** *
 506:Generated_Source\PSoC5/ADC_SAR_2.c **** * Parameters:
 507:Generated_Source\PSoC5/ADC_SAR_2.c **** *  None.
 508:Generated_Source\PSoC5/ADC_SAR_2.c **** *
 509:Generated_Source\PSoC5/ADC_SAR_2.c **** * Return:
 510:Generated_Source\PSoC5/ADC_SAR_2.c **** *  The LSB of the last ADC conversion.
 511:Generated_Source\PSoC5/ADC_SAR_2.c **** *
 512:Generated_Source\PSoC5/ADC_SAR_2.c **** * Global Variables:
 513:Generated_Source\PSoC5/ADC_SAR_2.c **** *  ADC_SAR_2_shift - used to convert the ADC counts to the 2s
 514:Generated_Source\PSoC5/ADC_SAR_2.c **** *  compliment form.
 515:Generated_Source\PSoC5/ADC_SAR_2.c **** *
 516:Generated_Source\PSoC5/ADC_SAR_2.c **** * Side Effects:
 517:Generated_Source\PSoC5/ADC_SAR_2.c **** *  Converts the ADC counts to the 2s complement form.
 518:Generated_Source\PSoC5/ADC_SAR_2.c **** *
 519:Generated_Source\PSoC5/ADC_SAR_2.c **** *******************************************************************************/
 520:Generated_Source\PSoC5/ADC_SAR_2.c **** int8 ADC_SAR_2_GetResult8( void )
 521:Generated_Source\PSoC5/ADC_SAR_2.c **** {
 522:Generated_Source\PSoC5/ADC_SAR_2.c ****     return( (int8)ADC_SAR_2_SAR_WRK0_REG - (int8)ADC_SAR_2_shift);
 523:Generated_Source\PSoC5/ADC_SAR_2.c **** }
 524:Generated_Source\PSoC5/ADC_SAR_2.c **** 
 525:Generated_Source\PSoC5/ADC_SAR_2.c **** 
 526:Generated_Source\PSoC5/ADC_SAR_2.c **** /*******************************************************************************
 527:Generated_Source\PSoC5/ADC_SAR_2.c **** * Function Name: ADC_SAR_2_GetResult16
 528:Generated_Source\PSoC5/ADC_SAR_2.c **** ********************************************************************************
 529:Generated_Source\PSoC5/ADC_SAR_2.c **** *
 530:Generated_Source\PSoC5/ADC_SAR_2.c **** * Summary:
 531:Generated_Source\PSoC5/ADC_SAR_2.c **** *  Returns a 16-bit result for a conversion with a result that has a resolution
 532:Generated_Source\PSoC5/ADC_SAR_2.c **** *  of 8 to 12 bits.
 533:Generated_Source\PSoC5/ADC_SAR_2.c **** *  ADC_SAR_2_IsEndConversion() should be called to verify that the data
 534:Generated_Source\PSoC5/ADC_SAR_2.c **** *   sample is ready
 535:Generated_Source\PSoC5/ADC_SAR_2.c **** *
 536:Generated_Source\PSoC5/ADC_SAR_2.c **** * Parameters:
 537:Generated_Source\PSoC5/ADC_SAR_2.c **** *  None.
 538:Generated_Source\PSoC5/ADC_SAR_2.c **** *
 539:Generated_Source\PSoC5/ADC_SAR_2.c **** * Return:
 540:Generated_Source\PSoC5/ADC_SAR_2.c **** *  The 16-bit result of the last ADC conversion
 541:Generated_Source\PSoC5/ADC_SAR_2.c **** *
 542:Generated_Source\PSoC5/ADC_SAR_2.c **** * Global Variables:
 543:Generated_Source\PSoC5/ADC_SAR_2.c **** *  ADC_SAR_2_shift - used to convert the ADC counts to the 2s
 544:Generated_Source\PSoC5/ADC_SAR_2.c **** *  compliment form.
ARM GAS  C:\Users\FRANKL~1\AppData\Local\Temp\cc8oCYmi.s 			page 11


 545:Generated_Source\PSoC5/ADC_SAR_2.c **** *
 546:Generated_Source\PSoC5/ADC_SAR_2.c **** * Side Effects:
 547:Generated_Source\PSoC5/ADC_SAR_2.c **** *  Converts the ADC counts to the 2s complement form.
 548:Generated_Source\PSoC5/ADC_SAR_2.c **** *
 549:Generated_Source\PSoC5/ADC_SAR_2.c **** *******************************************************************************/
 550:Generated_Source\PSoC5/ADC_SAR_2.c **** int16 ADC_SAR_2_GetResult16( void )
 551:Generated_Source\PSoC5/ADC_SAR_2.c **** {
 552:Generated_Source\PSoC5/ADC_SAR_2.c ****     uint16 res;
 553:Generated_Source\PSoC5/ADC_SAR_2.c **** 
 554:Generated_Source\PSoC5/ADC_SAR_2.c ****     res = CY_GET_REG16(ADC_SAR_2_SAR_WRK_PTR);
 555:Generated_Source\PSoC5/ADC_SAR_2.c **** 
 556:Generated_Source\PSoC5/ADC_SAR_2.c ****     return( (int16)res - ADC_SAR_2_shift );
 557:Generated_Source\PSoC5/ADC_SAR_2.c **** }
 558:Generated_Source\PSoC5/ADC_SAR_2.c **** 
 559:Generated_Source\PSoC5/ADC_SAR_2.c **** 
 560:Generated_Source\PSoC5/ADC_SAR_2.c **** /*******************************************************************************
 561:Generated_Source\PSoC5/ADC_SAR_2.c **** * Function Name: ADC_SAR_2_SetOffset
 562:Generated_Source\PSoC5/ADC_SAR_2.c **** ********************************************************************************
 563:Generated_Source\PSoC5/ADC_SAR_2.c **** *
 564:Generated_Source\PSoC5/ADC_SAR_2.c **** * Summary:
 565:Generated_Source\PSoC5/ADC_SAR_2.c **** *  Sets the ADC offset, which is used by ADC_SAR_2_CountsTo_Volts(),
 566:Generated_Source\PSoC5/ADC_SAR_2.c **** *  ADC_SAR_2_CountsTo_mVolts(), and ADC_SAR_2_CountsTo_uVolts()
 567:Generated_Source\PSoC5/ADC_SAR_2.c **** *  to subtract the offset from the given reading before calculating the voltage
 568:Generated_Source\PSoC5/ADC_SAR_2.c **** *  conversion.
 569:Generated_Source\PSoC5/ADC_SAR_2.c **** *
 570:Generated_Source\PSoC5/ADC_SAR_2.c **** * Parameters:
 571:Generated_Source\PSoC5/ADC_SAR_2.c **** *  int16: This value is measured when the inputs are shorted or connected to
 572:Generated_Source\PSoC5/ADC_SAR_2.c ****    the same input voltage.
 573:Generated_Source\PSoC5/ADC_SAR_2.c **** *
 574:Generated_Source\PSoC5/ADC_SAR_2.c **** * Return:
 575:Generated_Source\PSoC5/ADC_SAR_2.c **** *  None.
 576:Generated_Source\PSoC5/ADC_SAR_2.c **** *
 577:Generated_Source\PSoC5/ADC_SAR_2.c **** * Global Variables:
 578:Generated_Source\PSoC5/ADC_SAR_2.c **** *  The ADC_SAR_2_offset variable modified. This variable is used for
 579:Generated_Source\PSoC5/ADC_SAR_2.c **** *  offset calibration purpose.
 580:Generated_Source\PSoC5/ADC_SAR_2.c **** *  Affects the ADC_SAR_2_CountsTo_Volts,
 581:Generated_Source\PSoC5/ADC_SAR_2.c **** *  ADC_SAR_2_CountsTo_mVolts, ADC_SAR_2_CountsTo_uVolts functions
 582:Generated_Source\PSoC5/ADC_SAR_2.c **** *  by subtracting the given offset.
 583:Generated_Source\PSoC5/ADC_SAR_2.c **** *
 584:Generated_Source\PSoC5/ADC_SAR_2.c **** *******************************************************************************/
 585:Generated_Source\PSoC5/ADC_SAR_2.c **** void ADC_SAR_2_SetOffset(int16 offset)
 586:Generated_Source\PSoC5/ADC_SAR_2.c **** {
 587:Generated_Source\PSoC5/ADC_SAR_2.c ****     ADC_SAR_2_offset = offset;
 588:Generated_Source\PSoC5/ADC_SAR_2.c **** }
 589:Generated_Source\PSoC5/ADC_SAR_2.c **** 
 590:Generated_Source\PSoC5/ADC_SAR_2.c **** 
 591:Generated_Source\PSoC5/ADC_SAR_2.c **** /*******************************************************************************
 592:Generated_Source\PSoC5/ADC_SAR_2.c **** * Function Name: ADC_SAR_2_CalcGain
 593:Generated_Source\PSoC5/ADC_SAR_2.c **** ********************************************************************************
 594:Generated_Source\PSoC5/ADC_SAR_2.c **** *
 595:Generated_Source\PSoC5/ADC_SAR_2.c **** * Summary:
 596:Generated_Source\PSoC5/ADC_SAR_2.c **** *  This function calculates the ADC gain in counts per 10 volt.
 597:Generated_Source\PSoC5/ADC_SAR_2.c **** *
 598:Generated_Source\PSoC5/ADC_SAR_2.c **** * Parameters:
 599:Generated_Source\PSoC5/ADC_SAR_2.c **** *  uint8: resolution
 600:Generated_Source\PSoC5/ADC_SAR_2.c **** *
 601:Generated_Source\PSoC5/ADC_SAR_2.c **** * Return:
ARM GAS  C:\Users\FRANKL~1\AppData\Local\Temp\cc8oCYmi.s 			page 12


 602:Generated_Source\PSoC5/ADC_SAR_2.c **** *  None.
 603:Generated_Source\PSoC5/ADC_SAR_2.c **** *
 604:Generated_Source\PSoC5/ADC_SAR_2.c **** * Global Variables:
 605:Generated_Source\PSoC5/ADC_SAR_2.c **** *  ADC_SAR_2_shift variable initialized. This variable is used to
 606:Generated_Source\PSoC5/ADC_SAR_2.c **** *  convert the ADC counts to the 2s compliment form.
 607:Generated_Source\PSoC5/ADC_SAR_2.c **** *  ADC_SAR_2_countsPer10Volt variable initialized. This variable is used
 608:Generated_Source\PSoC5/ADC_SAR_2.c **** *  for gain calibration purpose.
 609:Generated_Source\PSoC5/ADC_SAR_2.c **** *
 610:Generated_Source\PSoC5/ADC_SAR_2.c **** *******************************************************************************/
 611:Generated_Source\PSoC5/ADC_SAR_2.c **** static void ADC_SAR_2_CalcGain( uint8 resolution )
 612:Generated_Source\PSoC5/ADC_SAR_2.c **** {
  27              		.loc 1 612 0
  28              		.cfi_startproc
  29              		@ args = 0, pretend = 0, frame = 0
  30              		@ frame_needed = 0, uses_anonymous_args = 0
  31              	.LVL0:
  32 0000 08B5     		push	{r3, lr}
  33              		.cfi_def_cfa_offset 8
  34              		.cfi_offset 3, -8
  35              		.cfi_offset 14, -4
 613:Generated_Source\PSoC5/ADC_SAR_2.c ****     int32 counts;
 614:Generated_Source\PSoC5/ADC_SAR_2.c ****     #if(!((ADC_SAR_2_DEFAULT_RANGE == ADC_SAR_2__VSS_TO_VREF) || \
 615:Generated_Source\PSoC5/ADC_SAR_2.c ****          (ADC_SAR_2_DEFAULT_RANGE == ADC_SAR_2__VSSA_TO_VDDA) || \
 616:Generated_Source\PSoC5/ADC_SAR_2.c ****          (ADC_SAR_2_DEFAULT_RANGE == ADC_SAR_2__VSSA_TO_VDAC)) )
 617:Generated_Source\PSoC5/ADC_SAR_2.c ****         uint16 diff_zero;
 618:Generated_Source\PSoC5/ADC_SAR_2.c ****     #endif /* End ADC_SAR_2_DEFAULT_RANGE */
 619:Generated_Source\PSoC5/ADC_SAR_2.c **** 
 620:Generated_Source\PSoC5/ADC_SAR_2.c ****     switch (resolution)
  36              		.loc 1 620 0
  37 0002 0A28     		cmp	r0, #10
  38 0004 13D0     		beq	.L7
  39 0006 0C28     		cmp	r0, #12
  40 0008 02D0     		beq	.L4
  41 000a 0828     		cmp	r0, #8
  42 000c 09D1     		bne	.L8
  43 000e 04E0     		b	.L5
  44              	.L4:
 621:Generated_Source\PSoC5/ADC_SAR_2.c ****     {
 622:Generated_Source\PSoC5/ADC_SAR_2.c ****         case (uint8)ADC_SAR_2__BITS_12:
 623:Generated_Source\PSoC5/ADC_SAR_2.c ****             counts = (int32)ADC_SAR_2_SAR_WRK_MAX_12BIT;
 624:Generated_Source\PSoC5/ADC_SAR_2.c ****             #if(!((ADC_SAR_2_DEFAULT_RANGE == ADC_SAR_2__VSS_TO_VREF) || \
 625:Generated_Source\PSoC5/ADC_SAR_2.c ****                  (ADC_SAR_2_DEFAULT_RANGE == ADC_SAR_2__VSSA_TO_VDDA) || \
 626:Generated_Source\PSoC5/ADC_SAR_2.c ****                  (ADC_SAR_2_DEFAULT_RANGE == ADC_SAR_2__VSSA_TO_VDAC)) )
 627:Generated_Source\PSoC5/ADC_SAR_2.c ****                 diff_zero = ADC_SAR_2_SAR_DIFF_SHIFT;
  45              		.loc 1 627 0
  46 0010 4FF40062 		mov	r2, #2048
 623:Generated_Source\PSoC5/ADC_SAR_2.c ****             #if(!((ADC_SAR_2_DEFAULT_RANGE == ADC_SAR_2__VSS_TO_VREF) || \
  47              		.loc 1 623 0
  48 0014 4FF48051 		mov	r1, #4096
  49 0018 0DE0     		b	.L3
  50              	.L5:
  51              	.LVL1:
 628:Generated_Source\PSoC5/ADC_SAR_2.c ****             #endif /* End ADC_SAR_2_DEFAULT_RANGE */
 629:Generated_Source\PSoC5/ADC_SAR_2.c ****             break;
 630:Generated_Source\PSoC5/ADC_SAR_2.c ****         case (uint8)ADC_SAR_2__BITS_10:
 631:Generated_Source\PSoC5/ADC_SAR_2.c ****             counts = (int32)ADC_SAR_2_SAR_WRK_MAX_10BIT;
 632:Generated_Source\PSoC5/ADC_SAR_2.c ****             #if(!((ADC_SAR_2_DEFAULT_RANGE == ADC_SAR_2__VSS_TO_VREF) || \
ARM GAS  C:\Users\FRANKL~1\AppData\Local\Temp\cc8oCYmi.s 			page 13


 633:Generated_Source\PSoC5/ADC_SAR_2.c ****                  (ADC_SAR_2_DEFAULT_RANGE == ADC_SAR_2__VSSA_TO_VDDA) || \
 634:Generated_Source\PSoC5/ADC_SAR_2.c ****                  (ADC_SAR_2_DEFAULT_RANGE == ADC_SAR_2__VSSA_TO_VDAC)) )
 635:Generated_Source\PSoC5/ADC_SAR_2.c ****                 diff_zero = ADC_SAR_2_SAR_DIFF_SHIFT >> 2u;
 636:Generated_Source\PSoC5/ADC_SAR_2.c ****             #endif /* End ADC_SAR_2_DEFAULT_RANGE */
 637:Generated_Source\PSoC5/ADC_SAR_2.c ****             break;
 638:Generated_Source\PSoC5/ADC_SAR_2.c ****         case (uint8)ADC_SAR_2__BITS_8:
 639:Generated_Source\PSoC5/ADC_SAR_2.c ****             counts = (int32)ADC_SAR_2_SAR_WRK_MAX_8BIT;
 640:Generated_Source\PSoC5/ADC_SAR_2.c ****             #if(!((ADC_SAR_2_DEFAULT_RANGE == ADC_SAR_2__VSS_TO_VREF) || \
 641:Generated_Source\PSoC5/ADC_SAR_2.c ****                  (ADC_SAR_2_DEFAULT_RANGE == ADC_SAR_2__VSSA_TO_VDDA) || \
 642:Generated_Source\PSoC5/ADC_SAR_2.c ****                  (ADC_SAR_2_DEFAULT_RANGE == ADC_SAR_2__VSSA_TO_VDAC)) )
 643:Generated_Source\PSoC5/ADC_SAR_2.c ****                 diff_zero = ADC_SAR_2_SAR_DIFF_SHIFT >> 4u;
  52              		.loc 1 643 0
  53 001a 8022     		movs	r2, #128
 639:Generated_Source\PSoC5/ADC_SAR_2.c ****             #if(!((ADC_SAR_2_DEFAULT_RANGE == ADC_SAR_2__VSS_TO_VREF) || \
  54              		.loc 1 639 0
  55 001c 4FF48071 		mov	r1, #256
 644:Generated_Source\PSoC5/ADC_SAR_2.c ****             #endif /* End ADC_SAR_2_DEFAULT_RANGE */
 645:Generated_Source\PSoC5/ADC_SAR_2.c ****             break;
  56              		.loc 1 645 0
  57 0020 09E0     		b	.L3
  58              	.LVL2:
  59              	.L8:
 646:Generated_Source\PSoC5/ADC_SAR_2.c ****         default: /* Halt CPU in debug mode if resolution is out of valid range */
 647:Generated_Source\PSoC5/ADC_SAR_2.c ****             counts = 0;
 648:Generated_Source\PSoC5/ADC_SAR_2.c ****             #if(!((ADC_SAR_2_DEFAULT_RANGE == ADC_SAR_2__VSS_TO_VREF) || \
 649:Generated_Source\PSoC5/ADC_SAR_2.c ****                  (ADC_SAR_2_DEFAULT_RANGE == ADC_SAR_2__VSSA_TO_VDDA) || \
 650:Generated_Source\PSoC5/ADC_SAR_2.c ****                  (ADC_SAR_2_DEFAULT_RANGE == ADC_SAR_2__VSSA_TO_VDAC)) )
 651:Generated_Source\PSoC5/ADC_SAR_2.c ****                 diff_zero = 0u;
 652:Generated_Source\PSoC5/ADC_SAR_2.c ****             #endif /* End ADC_SAR_2_DEFAULT_RANGE */
 653:Generated_Source\PSoC5/ADC_SAR_2.c ****             CYASSERT(0u != 0u);
  60              		.loc 1 653 0
  61 0022 0020     		movs	r0, #0
  62              	.LVL3:
  63 0024 FFF7FEFF 		bl	CyHalt
  64              	.LVL4:
 651:Generated_Source\PSoC5/ADC_SAR_2.c ****             #endif /* End ADC_SAR_2_DEFAULT_RANGE */
  65              		.loc 1 651 0
  66 0028 0022     		movs	r2, #0
 647:Generated_Source\PSoC5/ADC_SAR_2.c ****             #if(!((ADC_SAR_2_DEFAULT_RANGE == ADC_SAR_2__VSS_TO_VREF) || \
  67              		.loc 1 647 0
  68 002a 1146     		mov	r1, r2
  69 002c 03E0     		b	.L3
  70              	.LVL5:
  71              	.L7:
 635:Generated_Source\PSoC5/ADC_SAR_2.c ****             #endif /* End ADC_SAR_2_DEFAULT_RANGE */
  72              		.loc 1 635 0
  73 002e 4FF40072 		mov	r2, #512
 631:Generated_Source\PSoC5/ADC_SAR_2.c ****             #if(!((ADC_SAR_2_DEFAULT_RANGE == ADC_SAR_2__VSS_TO_VREF) || \
  74              		.loc 1 631 0
  75 0032 4FF48061 		mov	r1, #1024
  76              	.LVL6:
  77              	.L3:
 654:Generated_Source\PSoC5/ADC_SAR_2.c ****             break;
 655:Generated_Source\PSoC5/ADC_SAR_2.c ****     }
 656:Generated_Source\PSoC5/ADC_SAR_2.c ****     ADC_SAR_2_countsPerVolt = 0; /* Clear obsolete variable */
  78              		.loc 1 656 0
  79 0036 0020     		movs	r0, #0
ARM GAS  C:\Users\FRANKL~1\AppData\Local\Temp\cc8oCYmi.s 			page 14


  80 0038 084B     		ldr	r3, .L10
  81 003a 1880     		strh	r0, [r3]	@ movhi
 657:Generated_Source\PSoC5/ADC_SAR_2.c ****     /* Calculate gain in counts per 10 volts with rounding */
 658:Generated_Source\PSoC5/ADC_SAR_2.c ****     ADC_SAR_2_countsPer10Volt = (((counts * ADC_SAR_2_10MV_COUNTS) +
  82              		.loc 1 658 0
  83 003c 42F21073 		movw	r3, #10000
  84 0040 03FB01F3 		mul	r3, r3, r1
 659:Generated_Source\PSoC5/ADC_SAR_2.c ****                         ADC_SAR_2_DEFAULT_REF_VOLTAGE_MV) / (ADC_SAR_2_DEFAULT_REF_VOLTAGE_MV * 2))
  85              		.loc 1 659 0
  86 0044 13F58063 		adds	r3, r3, #1024
  87 0048 01D5     		bpl	.L6
  88 004a 03F2FF73 		addw	r3, r3, #2047
  89              	.L6:
  90 004e DB12     		asrs	r3, r3, #11
 658:Generated_Source\PSoC5/ADC_SAR_2.c ****                         ADC_SAR_2_DEFAULT_REF_VOLTAGE_MV) / (ADC_SAR_2_DEFAULT_REF_VOLTAGE_MV * 2))
  91              		.loc 1 658 0
  92 0050 0349     		ldr	r1, .L10+4
  93              	.LVL7:
  94 0052 0B60     		str	r3, [r1]
 660:Generated_Source\PSoC5/ADC_SAR_2.c **** 
 661:Generated_Source\PSoC5/ADC_SAR_2.c ****     #if( (ADC_SAR_2_DEFAULT_RANGE == ADC_SAR_2__VSS_TO_VREF) || \
 662:Generated_Source\PSoC5/ADC_SAR_2.c ****          (ADC_SAR_2_DEFAULT_RANGE == ADC_SAR_2__VSSA_TO_VDDA) || \
 663:Generated_Source\PSoC5/ADC_SAR_2.c ****          (ADC_SAR_2_DEFAULT_RANGE == ADC_SAR_2__VSSA_TO_VDAC) )
 664:Generated_Source\PSoC5/ADC_SAR_2.c ****         ADC_SAR_2_shift = 0;
 665:Generated_Source\PSoC5/ADC_SAR_2.c ****     #else
 666:Generated_Source\PSoC5/ADC_SAR_2.c ****         ADC_SAR_2_shift = diff_zero;
  95              		.loc 1 666 0
  96 0054 12B2     		sxth	r2, r2
  97 0056 034B     		ldr	r3, .L10+8
  98 0058 1A80     		strh	r2, [r3]	@ movhi
  99 005a 08BD     		pop	{r3, pc}
 100              	.L11:
 101              		.align	2
 102              	.L10:
 103 005c 00000000 		.word	ADC_SAR_2_countsPerVolt
 104 0060 00000000 		.word	ADC_SAR_2_countsPer10Volt
 105 0064 00000000 		.word	ADC_SAR_2_shift
 106              		.cfi_endproc
 107              	.LFE12:
 108              		.size	ADC_SAR_2_CalcGain, .-ADC_SAR_2_CalcGain
 109              		.section	.text.ADC_SAR_2_Enable,"ax",%progbits
 110              		.align	2
 111              		.global	ADC_SAR_2_Enable
 112              		.thumb
 113              		.thumb_func
 114              		.type	ADC_SAR_2_Enable, %function
 115              	ADC_SAR_2_Enable:
 116              	.LFB2:
 144:Generated_Source\PSoC5/ADC_SAR_2.c ****     uint8 tmpReg;
 117              		.loc 1 144 0
 118              		.cfi_startproc
 119              		@ args = 0, pretend = 0, frame = 0
 120              		@ frame_needed = 0, uses_anonymous_args = 0
 121 0000 38B5     		push	{r3, r4, r5, lr}
 122              		.cfi_def_cfa_offset 16
 123              		.cfi_offset 3, -16
 124              		.cfi_offset 4, -12
ARM GAS  C:\Users\FRANKL~1\AppData\Local\Temp\cc8oCYmi.s 			page 15


 125              		.cfi_offset 5, -8
 126              		.cfi_offset 14, -4
 147:Generated_Source\PSoC5/ADC_SAR_2.c **** 
 127              		.loc 1 147 0
 128 0002 FFF7FEFF 		bl	CyEnterCriticalSection
 129              	.LVL8:
 130 0006 0446     		mov	r4, r0
 131              	.LVL9:
 150:Generated_Source\PSoC5/ADC_SAR_2.c **** 
 132              		.loc 1 150 0
 133 0008 1E4A     		ldr	r2, .L14
 134 000a 1378     		ldrb	r3, [r2]	@ zero_extendqisi2
 135 000c 43F00203 		orr	r3, r3, #2
 136 0010 1370     		strb	r3, [r2]
 153:Generated_Source\PSoC5/ADC_SAR_2.c **** 
 137              		.loc 1 153 0
 138 0012 1032     		adds	r2, r2, #16
 139 0014 1378     		ldrb	r3, [r2]	@ zero_extendqisi2
 140 0016 43F00203 		orr	r3, r3, #2
 141 001a 1370     		strb	r3, [r2]
 157:Generated_Source\PSoC5/ADC_SAR_2.c ****         ADC_SAR_2_STBY_PWRMGR_CLK_REG |= ADC_SAR_2_STBY_PWR_CLK_EN;
 142              		.loc 1 157 0
 143 001c 1A3A     		subs	r2, r2, #26
 144 001e 1378     		ldrb	r3, [r2]	@ zero_extendqisi2
 145 0020 43F00203 		orr	r3, r3, #2
 146 0024 1370     		strb	r3, [r2]
 158:Generated_Source\PSoC5/ADC_SAR_2.c ****     #endif /* End ADC_SAR_2_DEFAULT_INTERNAL_CLK */
 147              		.loc 1 158 0
 148 0026 1032     		adds	r2, r2, #16
 149 0028 1378     		ldrb	r3, [r2]	@ zero_extendqisi2
 150 002a 43F00203 		orr	r3, r3, #2
 151 002e 1370     		strb	r3, [r2]
 162:Generated_Source\PSoC5/ADC_SAR_2.c ****     tmpReg |= ADC_SAR_2_SAR_EN_BUF_VCM_EN;
 152              		.loc 1 162 0
 153 0030 02F5AA52 		add	r2, r2, #5440
 154 0034 1A32     		adds	r2, r2, #26
 155 0036 1378     		ldrb	r3, [r2]	@ zero_extendqisi2
 156              	.LVL10:
 169:Generated_Source\PSoC5/ADC_SAR_2.c ****     #endif /* ADC_SAR_2_DEFAULT_REFERENCE == ADC_SAR_2__EXT_REF */
 157              		.loc 1 169 0
 158 0038 43F00303 		orr	r3, r3, #3
 159              	.LVL11:
 171:Generated_Source\PSoC5/ADC_SAR_2.c **** 
 160              		.loc 1 171 0
 161 003c 1370     		strb	r3, [r2]
 182:Generated_Source\PSoC5/ADC_SAR_2.c ****         #else /* INTREF Bypassed of External */
 162              		.loc 1 182 0
 163 003e 1822     		movs	r2, #24
 164 0040 114B     		ldr	r3, .L14+4
 165              	.LVL12:
 166 0042 1A70     		strb	r2, [r3]
 167              	.LVL13:
 192:Generated_Source\PSoC5/ADC_SAR_2.c ****     #endif /* ADC_SAR_2_HIGH_POWER_PULSE == 0u */
 168              		.loc 1 192 0
 169 0044 013B     		subs	r3, r3, #1
 170 0046 1A78     		ldrb	r2, [r3]	@ zero_extendqisi2
 171 0048 42F04002 		orr	r2, r2, #64
ARM GAS  C:\Users\FRANKL~1\AppData\Local\Temp\cc8oCYmi.s 			page 16


 172 004c 1A70     		strb	r2, [r3]
 202:Generated_Source\PSoC5/ADC_SAR_2.c ****     #endif /* ADC_SAR_2_HIGH_POWER_PULSE == 0u */
 173              		.loc 1 202 0
 174 004e 1A78     		ldrb	r2, [r3]	@ zero_extendqisi2
 175 0050 02F0FC02 		and	r2, r2, #252
 176 0054 1A70     		strb	r2, [r3]
 206:Generated_Source\PSoC5/ADC_SAR_2.c ****     /* SAR_HIZ_CLEAR:   Should not be used for LP */
 177              		.loc 1 206 0
 178 0056 C822     		movs	r2, #200
 179 0058 053B     		subs	r3, r3, #5
 180 005a 1A70     		strb	r2, [r3]
 218:Generated_Source\PSoC5/ADC_SAR_2.c **** 
 181              		.loc 1 218 0
 182 005c 0225     		movs	r5, #2
 183 005e A3F59753 		sub	r3, r3, #4832
 184 0062 123B     		subs	r3, r3, #18
 185 0064 1D70     		strb	r5, [r3]
 221:Generated_Source\PSoC5/ADC_SAR_2.c **** 
 186              		.loc 1 221 0
 187 0066 094A     		ldr	r2, .L14+8
 188 0068 1378     		ldrb	r3, [r2]	@ zero_extendqisi2
 189 006a 43F00803 		orr	r3, r3, #8
 190 006e 1370     		strb	r3, [r2]
 223:Generated_Source\PSoC5/ADC_SAR_2.c **** 
 191              		.loc 1 223 0
 192 0070 0A20     		movs	r0, #10
 193 0072 FFF7FEFF 		bl	CyDelayUs
 194              	.LVL14:
 227:Generated_Source\PSoC5/ADC_SAR_2.c ****     #endif   /* End ADC_SAR_2_IRQ_REMOVE */
 195              		.loc 1 227 0
 196 0076 064B     		ldr	r3, .L14+12
 197 0078 1D60     		str	r5, [r3]
 230:Generated_Source\PSoC5/ADC_SAR_2.c **** }
 198              		.loc 1 230 0
 199 007a 2046     		mov	r0, r4
 200 007c FFF7FEFF 		bl	CyExitCriticalSection
 201              	.LVL15:
 202 0080 38BD     		pop	{r3, r4, r5, pc}
 203              	.LVL16:
 204              	.L15:
 205 0082 00BF     		.align	2
 206              	.L14:
 207 0084 AB430040 		.word	1073759147
 208 0088 0E590040 		.word	1073764622
 209 008c 2F5B0040 		.word	1073765167
 210 0090 80E200E0 		.word	-536812928
 211              		.cfi_endproc
 212              	.LFE2:
 213              		.size	ADC_SAR_2_Enable, .-ADC_SAR_2_Enable
 214              		.section	.text.ADC_SAR_2_Stop,"ax",%progbits
 215              		.align	2
 216              		.global	ADC_SAR_2_Stop
 217              		.thumb
 218              		.thumb_func
 219              		.type	ADC_SAR_2_Stop, %function
 220              	ADC_SAR_2_Stop:
 221              	.LFB3:
ARM GAS  C:\Users\FRANKL~1\AppData\Local\Temp\cc8oCYmi.s 			page 17


 249:Generated_Source\PSoC5/ADC_SAR_2.c ****     uint8 enableInterrupts;
 222              		.loc 1 249 0
 223              		.cfi_startproc
 224              		@ args = 0, pretend = 0, frame = 0
 225              		@ frame_needed = 0, uses_anonymous_args = 0
 226 0000 08B5     		push	{r3, lr}
 227              		.cfi_def_cfa_offset 8
 228              		.cfi_offset 3, -8
 229              		.cfi_offset 14, -4
 251:Generated_Source\PSoC5/ADC_SAR_2.c **** 
 230              		.loc 1 251 0
 231 0002 FFF7FEFF 		bl	CyEnterCriticalSection
 232              	.LVL17:
 254:Generated_Source\PSoC5/ADC_SAR_2.c ****     /* Disable the SAR ADC block in Active Power Mode */
 233              		.loc 1 254 0
 234 0006 0F4A     		ldr	r2, .L18
 235 0008 1378     		ldrb	r3, [r2]	@ zero_extendqisi2
 236 000a 03F0FE03 		and	r3, r3, #254
 237 000e 1370     		strb	r3, [r2]
 256:Generated_Source\PSoC5/ADC_SAR_2.c ****     /* Disable the SAR ADC in Standby Power Mode */
 238              		.loc 1 256 0
 239 0010 A2F5AA52 		sub	r2, r2, #5440
 240 0014 1D3A     		subs	r2, r2, #29
 241 0016 1378     		ldrb	r3, [r2]	@ zero_extendqisi2
 242 0018 03F0FD03 		and	r3, r3, #253
 243 001c 1370     		strb	r3, [r2]
 258:Generated_Source\PSoC5/ADC_SAR_2.c **** 
 244              		.loc 1 258 0
 245 001e 1032     		adds	r2, r2, #16
 246 0020 1378     		ldrb	r3, [r2]	@ zero_extendqisi2
 247 0022 03F0FD03 		and	r3, r3, #253
 248 0026 1370     		strb	r3, [r2]
 262:Generated_Source\PSoC5/ADC_SAR_2.c ****         ADC_SAR_2_STBY_PWRMGR_CLK_REG &= (uint8)~ADC_SAR_2_STBY_PWR_CLK_EN;
 249              		.loc 1 262 0
 250 0028 1A3A     		subs	r2, r2, #26
 251 002a 1378     		ldrb	r3, [r2]	@ zero_extendqisi2
 252 002c 03F0FD03 		and	r3, r3, #253
 253 0030 1370     		strb	r3, [r2]
 263:Generated_Source\PSoC5/ADC_SAR_2.c ****     #endif /* End ADC_SAR_2_DEFAULT_INTERNAL_CLK */
 254              		.loc 1 263 0
 255 0032 1032     		adds	r2, r2, #16
 256 0034 1378     		ldrb	r3, [r2]	@ zero_extendqisi2
 257 0036 03F0FD03 		and	r3, r3, #253
 258 003a 1370     		strb	r3, [r2]
 266:Generated_Source\PSoC5/ADC_SAR_2.c **** 
 259              		.loc 1 266 0
 260 003c FFF7FEFF 		bl	CyExitCriticalSection
 261              	.LVL18:
 262 0040 08BD     		pop	{r3, pc}
 263              	.L19:
 264 0042 00BF     		.align	2
 265              	.L18:
 266 0044 08590040 		.word	1073764616
 267              		.cfi_endproc
 268              	.LFE3:
 269              		.size	ADC_SAR_2_Stop, .-ADC_SAR_2_Stop
 270              		.section	.text.ADC_SAR_2_SetPower,"ax",%progbits
ARM GAS  C:\Users\FRANKL~1\AppData\Local\Temp\cc8oCYmi.s 			page 18


 271              		.align	2
 272              		.global	ADC_SAR_2_SetPower
 273              		.thumb
 274              		.thumb_func
 275              		.type	ADC_SAR_2_SetPower, %function
 276              	ADC_SAR_2_SetPower:
 277              	.LFB4:
 291:Generated_Source\PSoC5/ADC_SAR_2.c ****     uint8 tmpReg;
 278              		.loc 1 291 0
 279              		.cfi_startproc
 280              		@ args = 0, pretend = 0, frame = 0
 281              		@ frame_needed = 0, uses_anonymous_args = 0
 282              		@ link register save eliminated.
 283              	.LVL19:
 298:Generated_Source\PSoC5/ADC_SAR_2.c ****     tmpReg |= (uint8)(power << ADC_SAR_2_SAR_POWER_SHIFT);
 284              		.loc 1 298 0
 285 0000 044A     		ldr	r2, .L21
 286 0002 1378     		ldrb	r3, [r2]	@ zero_extendqisi2
 287 0004 03F03F03 		and	r3, r3, #63
 288              	.LVL20:
 299:Generated_Source\PSoC5/ADC_SAR_2.c ****     ADC_SAR_2_SAR_CSR0_REG = tmpReg;
 289              		.loc 1 299 0
 290 0008 43EA8010 		orr	r0, r3, r0, lsl #6
 291              	.LVL21:
 292 000c C0B2     		uxtb	r0, r0
 293              	.LVL22:
 300:Generated_Source\PSoC5/ADC_SAR_2.c **** }
 294              		.loc 1 300 0
 295 000e 1070     		strb	r0, [r2]
 296 0010 7047     		bx	lr
 297              	.L22:
 298 0012 00BF     		.align	2
 299              	.L21:
 300 0014 08590040 		.word	1073764616
 301              		.cfi_endproc
 302              	.LFE4:
 303              		.size	ADC_SAR_2_SetPower, .-ADC_SAR_2_SetPower
 304              		.section	.text.ADC_SAR_2_SetResolution,"ax",%progbits
 305              		.align	2
 306              		.global	ADC_SAR_2_SetResolution
 307              		.thumb
 308              		.thumb_func
 309              		.type	ADC_SAR_2_SetResolution, %function
 310              	ADC_SAR_2_SetResolution:
 311              	.LFB5:
 341:Generated_Source\PSoC5/ADC_SAR_2.c ****     uint8 tmpReg;
 312              		.loc 1 341 0
 313              		.cfi_startproc
 314              		@ args = 0, pretend = 0, frame = 0
 315              		@ frame_needed = 0, uses_anonymous_args = 0
 316              	.LVL23:
 317 0000 10B5     		push	{r4, lr}
 318              		.cfi_def_cfa_offset 8
 319              		.cfi_offset 4, -8
 320              		.cfi_offset 14, -4
 321 0002 0446     		mov	r4, r0
 345:Generated_Source\PSoC5/ADC_SAR_2.c ****     {
ARM GAS  C:\Users\FRANKL~1\AppData\Local\Temp\cc8oCYmi.s 			page 19


 322              		.loc 1 345 0
 323 0004 0A28     		cmp	r0, #10
 324 0006 0DD0     		beq	.L28
 325 0008 0C28     		cmp	r0, #12
 326 000a 02D0     		beq	.L26
 327 000c 0828     		cmp	r0, #8
 328 000e 04D1     		bne	.L29
 329 0010 01E0     		b	.L27
 330              	.L26:
 348:Generated_Source\PSoC5/ADC_SAR_2.c ****             break;
 331              		.loc 1 348 0
 332 0012 C222     		movs	r2, #194
 333 0014 07E0     		b	.L25
 334              	.L27:
 335              	.LVL24:
 354:Generated_Source\PSoC5/ADC_SAR_2.c ****             break;
 336              		.loc 1 354 0
 337 0016 4222     		movs	r2, #66
 355:Generated_Source\PSoC5/ADC_SAR_2.c ****         default:
 338              		.loc 1 355 0
 339 0018 05E0     		b	.L25
 340              	.LVL25:
 341              	.L29:
 359:Generated_Source\PSoC5/ADC_SAR_2.c ****             break;
 342              		.loc 1 359 0
 343 001a 0020     		movs	r0, #0
 344              	.LVL26:
 345 001c FFF7FEFF 		bl	CyHalt
 346              	.LVL27:
 357:Generated_Source\PSoC5/ADC_SAR_2.c ****             /* Halt CPU in debug mode if resolution is out of valid range */
 347              		.loc 1 357 0
 348 0020 C222     		movs	r2, #194
 349 0022 00E0     		b	.L25
 350              	.LVL28:
 351              	.L28:
 351:Generated_Source\PSoC5/ADC_SAR_2.c ****             break;
 352              		.loc 1 351 0
 353 0024 8222     		movs	r2, #130
 354              	.LVL29:
 355              	.L25:
 362:Generated_Source\PSoC5/ADC_SAR_2.c **** 
 356              		.loc 1 362 0
 357 0026 034B     		ldr	r3, .L31
 358 0028 1A70     		strb	r2, [r3]
 365:Generated_Source\PSoC5/ADC_SAR_2.c **** }
 359              		.loc 1 365 0
 360 002a 2046     		mov	r0, r4
 361 002c FFF7FEFF 		bl	ADC_SAR_2_CalcGain
 362              	.LVL30:
 363 0030 10BD     		pop	{r4, pc}
 364              	.L32:
 365 0032 00BF     		.align	2
 366              	.L31:
 367 0034 0A590040 		.word	1073764618
 368              		.cfi_endproc
 369              	.LFE5:
 370              		.size	ADC_SAR_2_SetResolution, .-ADC_SAR_2_SetResolution
ARM GAS  C:\Users\FRANKL~1\AppData\Local\Temp\cc8oCYmi.s 			page 20


 371              		.section	.text.ADC_SAR_2_Init,"ax",%progbits
 372              		.align	2
 373              		.global	ADC_SAR_2_Init
 374              		.thumb
 375              		.thumb_func
 376              		.type	ADC_SAR_2_Init, %function
 377              	ADC_SAR_2_Init:
 378              	.LFB1:
 107:Generated_Source\PSoC5/ADC_SAR_2.c **** 
 379              		.loc 1 107 0
 380              		.cfi_startproc
 381              		@ args = 0, pretend = 0, frame = 0
 382              		@ frame_needed = 0, uses_anonymous_args = 0
 383 0000 08B5     		push	{r3, lr}
 384              		.cfi_def_cfa_offset 8
 385              		.cfi_offset 3, -8
 386              		.cfi_offset 14, -4
 111:Generated_Source\PSoC5/ADC_SAR_2.c ****     #endif /* End ADC_SAR_2_DEFAULT_INTERNAL_CLK */
 387              		.loc 1 111 0
 388 0002 1020     		movs	r0, #16
 389 0004 FFF7FEFF 		bl	ADC_SAR_2_theACLK_SetModeRegister
 390              	.LVL31:
 116:Generated_Source\PSoC5/ADC_SAR_2.c ****         (void)CyIntSetVector(ADC_SAR_2_INTC_NUMBER, &ADC_SAR_2_ISR);
 391              		.loc 1 116 0
 392 0008 0721     		movs	r1, #7
 393 000a 0120     		movs	r0, #1
 394 000c FFF7FEFF 		bl	CyIntSetPriority
 395              	.LVL32:
 117:Generated_Source\PSoC5/ADC_SAR_2.c ****     #endif   /* End ADC_SAR_2_IRQ_REMOVE */
 396              		.loc 1 117 0
 397 0010 0749     		ldr	r1, .L35
 398 0012 0120     		movs	r0, #1
 399 0014 FFF7FEFF 		bl	CyIntSetVector
 400              	.LVL33:
 121:Generated_Source\PSoC5/ADC_SAR_2.c **** 
 401              		.loc 1 121 0
 402 0018 064A     		ldr	r2, .L35+4
 403 001a 1378     		ldrb	r3, [r2]	@ zero_extendqisi2
 404 001c 43F00603 		orr	r3, r3, #6
 405 0020 1370     		strb	r3, [r2]
 124:Generated_Source\PSoC5/ADC_SAR_2.c ****     ADC_SAR_2_offset = 0;
 406              		.loc 1 124 0
 407 0022 0C20     		movs	r0, #12
 408 0024 FFF7FEFF 		bl	ADC_SAR_2_SetResolution
 409              	.LVL34:
 125:Generated_Source\PSoC5/ADC_SAR_2.c **** }
 410              		.loc 1 125 0
 411 0028 0022     		movs	r2, #0
 412 002a 034B     		ldr	r3, .L35+8
 413 002c 1A80     		strh	r2, [r3]	@ movhi
 414 002e 08BD     		pop	{r3, pc}
 415              	.L36:
 416              		.align	2
 417              	.L35:
 418 0030 00000000 		.word	ADC_SAR_2_ISR
 419 0034 09590040 		.word	1073764617
 420 0038 00000000 		.word	ADC_SAR_2_offset
ARM GAS  C:\Users\FRANKL~1\AppData\Local\Temp\cc8oCYmi.s 			page 21


 421              		.cfi_endproc
 422              	.LFE1:
 423              		.size	ADC_SAR_2_Init, .-ADC_SAR_2_Init
 424              		.section	.text.ADC_SAR_2_Start,"ax",%progbits
 425              		.align	2
 426              		.global	ADC_SAR_2_Start
 427              		.thumb
 428              		.thumb_func
 429              		.type	ADC_SAR_2_Start, %function
 430              	ADC_SAR_2_Start:
 431              	.LFB0:
  75:Generated_Source\PSoC5/ADC_SAR_2.c **** 
 432              		.loc 1 75 0
 433              		.cfi_startproc
 434              		@ args = 0, pretend = 0, frame = 0
 435              		@ frame_needed = 0, uses_anonymous_args = 0
 436 0000 08B5     		push	{r3, lr}
 437              		.cfi_def_cfa_offset 8
 438              		.cfi_offset 3, -8
 439              		.cfi_offset 14, -4
  78:Generated_Source\PSoC5/ADC_SAR_2.c ****     {
 440              		.loc 1 78 0
 441 0002 054B     		ldr	r3, .L40
 442 0004 1B78     		ldrb	r3, [r3]	@ zero_extendqisi2
 443 0006 23B9     		cbnz	r3, .L38
  80:Generated_Source\PSoC5/ADC_SAR_2.c ****         ADC_SAR_2_initVar = 1u;
 444              		.loc 1 80 0
 445 0008 FFF7FEFF 		bl	ADC_SAR_2_Init
 446              	.LVL35:
  81:Generated_Source\PSoC5/ADC_SAR_2.c ****     }
 447              		.loc 1 81 0
 448 000c 0122     		movs	r2, #1
 449 000e 024B     		ldr	r3, .L40
 450 0010 1A70     		strb	r2, [r3]
 451              	.L38:
  83:Generated_Source\PSoC5/ADC_SAR_2.c **** }
 452              		.loc 1 83 0
 453 0012 FFF7FEFF 		bl	ADC_SAR_2_Enable
 454              	.LVL36:
 455 0016 08BD     		pop	{r3, pc}
 456              	.L41:
 457              		.align	2
 458              	.L40:
 459 0018 00000000 		.word	.LANCHOR0
 460              		.cfi_endproc
 461              	.LFE0:
 462              		.size	ADC_SAR_2_Start, .-ADC_SAR_2_Start
 463              		.section	.text.ADC_SAR_2_StartConvert,"ax",%progbits
 464              		.align	2
 465              		.global	ADC_SAR_2_StartConvert
 466              		.thumb
 467              		.thumb_func
 468              		.type	ADC_SAR_2_StartConvert, %function
 469              	ADC_SAR_2_StartConvert:
 470              	.LFB6:
 402:Generated_Source\PSoC5/ADC_SAR_2.c ****         #if(ADC_SAR_2_DEFAULT_CONV_MODE != ADC_SAR_2__FREE_RUNNING)  /* If software triggered mode 
 471              		.loc 1 402 0
ARM GAS  C:\Users\FRANKL~1\AppData\Local\Temp\cc8oCYmi.s 			page 22


 472              		.cfi_startproc
 473              		@ args = 0, pretend = 0, frame = 0
 474              		@ frame_needed = 0, uses_anonymous_args = 0
 475              		@ link register save eliminated.
 408:Generated_Source\PSoC5/ADC_SAR_2.c ****     }
 476              		.loc 1 408 0
 477 0000 024A     		ldr	r2, .L43
 478 0002 1378     		ldrb	r3, [r2]	@ zero_extendqisi2
 479 0004 43F00103 		orr	r3, r3, #1
 480 0008 1370     		strb	r3, [r2]
 481 000a 7047     		bx	lr
 482              	.L44:
 483              		.align	2
 484              	.L43:
 485 000c 08590040 		.word	1073764616
 486              		.cfi_endproc
 487              	.LFE6:
 488              		.size	ADC_SAR_2_StartConvert, .-ADC_SAR_2_StartConvert
 489              		.section	.text.ADC_SAR_2_StopConvert,"ax",%progbits
 490              		.align	2
 491              		.global	ADC_SAR_2_StopConvert
 492              		.thumb
 493              		.thumb_func
 494              		.type	ADC_SAR_2_StopConvert, %function
 495              	ADC_SAR_2_StopConvert:
 496              	.LFB7:
 436:Generated_Source\PSoC5/ADC_SAR_2.c ****         /* Stop all conversions */
 497              		.loc 1 436 0
 498              		.cfi_startproc
 499              		@ args = 0, pretend = 0, frame = 0
 500              		@ frame_needed = 0, uses_anonymous_args = 0
 501              		@ link register save eliminated.
 438:Generated_Source\PSoC5/ADC_SAR_2.c **** 
 502              		.loc 1 438 0
 503 0000 024A     		ldr	r2, .L46
 504 0002 1378     		ldrb	r3, [r2]	@ zero_extendqisi2
 505 0004 03F0FE03 		and	r3, r3, #254
 506 0008 1370     		strb	r3, [r2]
 507 000a 7047     		bx	lr
 508              	.L47:
 509              		.align	2
 510              	.L46:
 511 000c 08590040 		.word	1073764616
 512              		.cfi_endproc
 513              	.LFE7:
 514              		.size	ADC_SAR_2_StopConvert, .-ADC_SAR_2_StopConvert
 515              		.section	.text.ADC_SAR_2_IsEndConversion,"ax",%progbits
 516              		.align	2
 517              		.global	ADC_SAR_2_IsEndConversion
 518              		.thumb
 519              		.thumb_func
 520              		.type	ADC_SAR_2_IsEndConversion, %function
 521              	ADC_SAR_2_IsEndConversion:
 522              	.LFB8:
 476:Generated_Source\PSoC5/ADC_SAR_2.c ****     uint8 status;
 523              		.loc 1 476 0
 524              		.cfi_startproc
ARM GAS  C:\Users\FRANKL~1\AppData\Local\Temp\cc8oCYmi.s 			page 23


 525              		@ args = 0, pretend = 0, frame = 0
 526              		@ frame_needed = 0, uses_anonymous_args = 0
 527              	.LVL37:
 528 0000 10B5     		push	{r4, lr}
 529              		.cfi_def_cfa_offset 8
 530              		.cfi_offset 4, -8
 531              		.cfi_offset 14, -4
 532              	.L50:
 481:Generated_Source\PSoC5/ADC_SAR_2.c ****     } while ((status != ADC_SAR_2_SAR_EOF_1) && (retMode == ADC_SAR_2_WAIT_FOR_RESULT));
 533              		.loc 1 481 0 discriminator 2
 534 0002 074B     		ldr	r3, .L53
 535 0004 1B78     		ldrb	r3, [r3]	@ zero_extendqisi2
 536              	.LVL38:
 482:Generated_Source\PSoC5/ADC_SAR_2.c ****     /* If convertion complete, wait until EOF bit released */
 537              		.loc 1 482 0 discriminator 2
 538 0006 13F00104 		ands	r4, r3, #1
 539 000a 01D1     		bne	.L49
 482:Generated_Source\PSoC5/ADC_SAR_2.c ****     /* If convertion complete, wait until EOF bit released */
 540              		.loc 1 482 0 is_stmt 0 discriminator 1
 541 000c 0028     		cmp	r0, #0
 542 000e F8D0     		beq	.L50
 543              	.L49:
 484:Generated_Source\PSoC5/ADC_SAR_2.c ****     {
 544              		.loc 1 484 0 is_stmt 1
 545 0010 24B1     		cbz	r4, .L51
 487:Generated_Source\PSoC5/ADC_SAR_2.c ****         /* Do the unconditional read operation of the CSR1 register to make sure the EOC bit has be
 546              		.loc 1 487 0
 547 0012 0120     		movs	r0, #1
 548              	.LVL39:
 549 0014 FFF7FEFF 		bl	CyDelayUs
 550              	.LVL40:
 489:Generated_Source\PSoC5/ADC_SAR_2.c ****     }
 551              		.loc 1 489 0
 552 0018 014B     		ldr	r3, .L53
 553 001a 1B78     		ldrb	r3, [r3]	@ zero_extendqisi2
 554              	.L51:
 493:Generated_Source\PSoC5/ADC_SAR_2.c **** 
 555              		.loc 1 493 0
 556 001c 2046     		mov	r0, r4
 557 001e 10BD     		pop	{r4, pc}
 558              	.L54:
 559              		.align	2
 560              	.L53:
 561 0020 09590040 		.word	1073764617
 562              		.cfi_endproc
 563              	.LFE8:
 564              		.size	ADC_SAR_2_IsEndConversion, .-ADC_SAR_2_IsEndConversion
 565              		.section	.text.ADC_SAR_2_GetResult8,"ax",%progbits
 566              		.align	2
 567              		.global	ADC_SAR_2_GetResult8
 568              		.thumb
 569              		.thumb_func
 570              		.type	ADC_SAR_2_GetResult8, %function
 571              	ADC_SAR_2_GetResult8:
 572              	.LFB9:
 521:Generated_Source\PSoC5/ADC_SAR_2.c ****     return( (int8)ADC_SAR_2_SAR_WRK0_REG - (int8)ADC_SAR_2_shift);
 573              		.loc 1 521 0
ARM GAS  C:\Users\FRANKL~1\AppData\Local\Temp\cc8oCYmi.s 			page 24


 574              		.cfi_startproc
 575              		@ args = 0, pretend = 0, frame = 0
 576              		@ frame_needed = 0, uses_anonymous_args = 0
 577              		@ link register save eliminated.
 522:Generated_Source\PSoC5/ADC_SAR_2.c **** }
 578              		.loc 1 522 0
 579 0000 034B     		ldr	r3, .L56
 580 0002 1B78     		ldrb	r3, [r3]	@ zero_extendqisi2
 581 0004 034A     		ldr	r2, .L56+4
 582 0006 1088     		ldrh	r0, [r2]
 583 0008 00B2     		sxth	r0, r0
 584 000a 181A     		subs	r0, r3, r0
 523:Generated_Source\PSoC5/ADC_SAR_2.c **** 
 585              		.loc 1 523 0
 586 000c 40B2     		sxtb	r0, r0
 587 000e 7047     		bx	lr
 588              	.L57:
 589              		.align	2
 590              	.L56:
 591 0010 A25B0040 		.word	1073765282
 592 0014 00000000 		.word	ADC_SAR_2_shift
 593              		.cfi_endproc
 594              	.LFE9:
 595              		.size	ADC_SAR_2_GetResult8, .-ADC_SAR_2_GetResult8
 596              		.section	.text.ADC_SAR_2_GetResult16,"ax",%progbits
 597              		.align	2
 598              		.global	ADC_SAR_2_GetResult16
 599              		.thumb
 600              		.thumb_func
 601              		.type	ADC_SAR_2_GetResult16, %function
 602              	ADC_SAR_2_GetResult16:
 603              	.LFB10:
 551:Generated_Source\PSoC5/ADC_SAR_2.c ****     uint16 res;
 604              		.loc 1 551 0
 605              		.cfi_startproc
 606              		@ args = 0, pretend = 0, frame = 0
 607              		@ frame_needed = 0, uses_anonymous_args = 0
 608              		@ link register save eliminated.
 554:Generated_Source\PSoC5/ADC_SAR_2.c **** 
 609              		.loc 1 554 0
 610 0000 034B     		ldr	r3, .L59
 611 0002 1888     		ldrh	r0, [r3]
 612 0004 80B2     		uxth	r0, r0
 613              	.LVL41:
 556:Generated_Source\PSoC5/ADC_SAR_2.c **** }
 614              		.loc 1 556 0
 615 0006 034B     		ldr	r3, .L59+4
 616 0008 1B88     		ldrh	r3, [r3]
 617 000a C01A     		subs	r0, r0, r3
 618              	.LVL42:
 557:Generated_Source\PSoC5/ADC_SAR_2.c **** 
 619              		.loc 1 557 0
 620 000c 00B2     		sxth	r0, r0
 621 000e 7047     		bx	lr
 622              	.L60:
 623              		.align	2
 624              	.L59:
ARM GAS  C:\Users\FRANKL~1\AppData\Local\Temp\cc8oCYmi.s 			page 25


 625 0010 A25B0040 		.word	1073765282
 626 0014 00000000 		.word	ADC_SAR_2_shift
 627              		.cfi_endproc
 628              	.LFE10:
 629              		.size	ADC_SAR_2_GetResult16, .-ADC_SAR_2_GetResult16
 630              		.section	.text.ADC_SAR_2_SetOffset,"ax",%progbits
 631              		.align	2
 632              		.global	ADC_SAR_2_SetOffset
 633              		.thumb
 634              		.thumb_func
 635              		.type	ADC_SAR_2_SetOffset, %function
 636              	ADC_SAR_2_SetOffset:
 637              	.LFB11:
 586:Generated_Source\PSoC5/ADC_SAR_2.c ****     ADC_SAR_2_offset = offset;
 638              		.loc 1 586 0
 639              		.cfi_startproc
 640              		@ args = 0, pretend = 0, frame = 0
 641              		@ frame_needed = 0, uses_anonymous_args = 0
 642              		@ link register save eliminated.
 643              	.LVL43:
 587:Generated_Source\PSoC5/ADC_SAR_2.c **** }
 644              		.loc 1 587 0
 645 0000 014B     		ldr	r3, .L62
 646 0002 1880     		strh	r0, [r3]	@ movhi
 647 0004 7047     		bx	lr
 648              	.L63:
 649 0006 00BF     		.align	2
 650              	.L62:
 651 0008 00000000 		.word	ADC_SAR_2_offset
 652              		.cfi_endproc
 653              	.LFE11:
 654              		.size	ADC_SAR_2_SetOffset, .-ADC_SAR_2_SetOffset
 655              		.section	.text.ADC_SAR_2_SetGain,"ax",%progbits
 656              		.align	2
 657              		.global	ADC_SAR_2_SetGain
 658              		.thumb
 659              		.thumb_func
 660              		.type	ADC_SAR_2_SetGain, %function
 661              	ADC_SAR_2_SetGain:
 662              	.LFB13:
 667:Generated_Source\PSoC5/ADC_SAR_2.c ****     #endif /* End ADC_SAR_2_DEFAULT_RANGE */
 668:Generated_Source\PSoC5/ADC_SAR_2.c **** }
 669:Generated_Source\PSoC5/ADC_SAR_2.c **** 
 670:Generated_Source\PSoC5/ADC_SAR_2.c **** 
 671:Generated_Source\PSoC5/ADC_SAR_2.c **** /*******************************************************************************
 672:Generated_Source\PSoC5/ADC_SAR_2.c **** * Function Name: ADC_SAR_2_SetGain
 673:Generated_Source\PSoC5/ADC_SAR_2.c **** ********************************************************************************
 674:Generated_Source\PSoC5/ADC_SAR_2.c **** *
 675:Generated_Source\PSoC5/ADC_SAR_2.c **** * Summary:
 676:Generated_Source\PSoC5/ADC_SAR_2.c **** *  Sets the ADC gain in counts per volt for the voltage conversion functions
 677:Generated_Source\PSoC5/ADC_SAR_2.c **** *  that follow. This value is set by default by the reference and input range
 678:Generated_Source\PSoC5/ADC_SAR_2.c **** *  settings. It should only be used to further calibrate the ADC with a known
 679:Generated_Source\PSoC5/ADC_SAR_2.c **** *  input or if the ADC is using an external reference.
 680:Generated_Source\PSoC5/ADC_SAR_2.c **** *
 681:Generated_Source\PSoC5/ADC_SAR_2.c **** * Parameters:
 682:Generated_Source\PSoC5/ADC_SAR_2.c **** *  int16 adcGain counts per volt
 683:Generated_Source\PSoC5/ADC_SAR_2.c **** *
ARM GAS  C:\Users\FRANKL~1\AppData\Local\Temp\cc8oCYmi.s 			page 26


 684:Generated_Source\PSoC5/ADC_SAR_2.c **** * Return:
 685:Generated_Source\PSoC5/ADC_SAR_2.c **** *  None.
 686:Generated_Source\PSoC5/ADC_SAR_2.c **** *
 687:Generated_Source\PSoC5/ADC_SAR_2.c **** * Global Variables:
 688:Generated_Source\PSoC5/ADC_SAR_2.c **** *  ADC_SAR_2_countsPer10Volt variable modified. This variable is used
 689:Generated_Source\PSoC5/ADC_SAR_2.c **** *  for gain calibration purpose.
 690:Generated_Source\PSoC5/ADC_SAR_2.c **** *
 691:Generated_Source\PSoC5/ADC_SAR_2.c **** *******************************************************************************/
 692:Generated_Source\PSoC5/ADC_SAR_2.c **** void ADC_SAR_2_SetGain(int16 adcGain)
 693:Generated_Source\PSoC5/ADC_SAR_2.c **** {
 663              		.loc 1 693 0
 664              		.cfi_startproc
 665              		@ args = 0, pretend = 0, frame = 0
 666              		@ frame_needed = 0, uses_anonymous_args = 0
 667              		@ link register save eliminated.
 668              	.LVL44:
 694:Generated_Source\PSoC5/ADC_SAR_2.c ****     ADC_SAR_2_countsPer10Volt = (int32)adcGain * 10;
 669              		.loc 1 694 0
 670 0000 00EB8000 		add	r0, r0, r0, lsl #2
 671              	.LVL45:
 672 0004 4300     		lsls	r3, r0, #1
 673 0006 014A     		ldr	r2, .L65
 674 0008 1360     		str	r3, [r2]
 675 000a 7047     		bx	lr
 676              	.L66:
 677              		.align	2
 678              	.L65:
 679 000c 00000000 		.word	ADC_SAR_2_countsPer10Volt
 680              		.cfi_endproc
 681              	.LFE13:
 682              		.size	ADC_SAR_2_SetGain, .-ADC_SAR_2_SetGain
 683              		.section	.text.ADC_SAR_2_SetScaledGain,"ax",%progbits
 684              		.align	2
 685              		.global	ADC_SAR_2_SetScaledGain
 686              		.thumb
 687              		.thumb_func
 688              		.type	ADC_SAR_2_SetScaledGain, %function
 689              	ADC_SAR_2_SetScaledGain:
 690              	.LFB14:
 695:Generated_Source\PSoC5/ADC_SAR_2.c **** }
 696:Generated_Source\PSoC5/ADC_SAR_2.c **** 
 697:Generated_Source\PSoC5/ADC_SAR_2.c **** 
 698:Generated_Source\PSoC5/ADC_SAR_2.c **** /*******************************************************************************
 699:Generated_Source\PSoC5/ADC_SAR_2.c **** * Function Name: ADC_SAR_2_SetScaledGain
 700:Generated_Source\PSoC5/ADC_SAR_2.c **** ********************************************************************************
 701:Generated_Source\PSoC5/ADC_SAR_2.c **** *
 702:Generated_Source\PSoC5/ADC_SAR_2.c **** * Summary:
 703:Generated_Source\PSoC5/ADC_SAR_2.c **** *  Sets the ADC gain in counts per 10 volt for the voltage conversion functions
 704:Generated_Source\PSoC5/ADC_SAR_2.c **** *  that follow. This value is set by default by the reference and input range
 705:Generated_Source\PSoC5/ADC_SAR_2.c **** *  settings. It should only be used to further calibrate the ADC with a known
 706:Generated_Source\PSoC5/ADC_SAR_2.c **** *  input or if the ADC is using an external reference.
 707:Generated_Source\PSoC5/ADC_SAR_2.c **** *
 708:Generated_Source\PSoC5/ADC_SAR_2.c **** * Parameters:
 709:Generated_Source\PSoC5/ADC_SAR_2.c **** *  int32 adcGain  counts per 10 volt
 710:Generated_Source\PSoC5/ADC_SAR_2.c **** *
 711:Generated_Source\PSoC5/ADC_SAR_2.c **** * Return:
 712:Generated_Source\PSoC5/ADC_SAR_2.c **** *  None.
ARM GAS  C:\Users\FRANKL~1\AppData\Local\Temp\cc8oCYmi.s 			page 27


 713:Generated_Source\PSoC5/ADC_SAR_2.c **** *
 714:Generated_Source\PSoC5/ADC_SAR_2.c **** * Global Variables:
 715:Generated_Source\PSoC5/ADC_SAR_2.c **** *  ADC_SAR_2_countsPer10Volt variable modified. This variable is used
 716:Generated_Source\PSoC5/ADC_SAR_2.c **** *  for gain calibration purpose.
 717:Generated_Source\PSoC5/ADC_SAR_2.c **** *
 718:Generated_Source\PSoC5/ADC_SAR_2.c **** *******************************************************************************/
 719:Generated_Source\PSoC5/ADC_SAR_2.c **** void ADC_SAR_2_SetScaledGain(int32 adcGain)
 720:Generated_Source\PSoC5/ADC_SAR_2.c **** {
 691              		.loc 1 720 0
 692              		.cfi_startproc
 693              		@ args = 0, pretend = 0, frame = 0
 694              		@ frame_needed = 0, uses_anonymous_args = 0
 695              		@ link register save eliminated.
 696              	.LVL46:
 721:Generated_Source\PSoC5/ADC_SAR_2.c ****     ADC_SAR_2_countsPer10Volt = adcGain;
 697              		.loc 1 721 0
 698 0000 014B     		ldr	r3, .L68
 699 0002 1860     		str	r0, [r3]
 700 0004 7047     		bx	lr
 701              	.L69:
 702 0006 00BF     		.align	2
 703              	.L68:
 704 0008 00000000 		.word	ADC_SAR_2_countsPer10Volt
 705              		.cfi_endproc
 706              	.LFE14:
 707              		.size	ADC_SAR_2_SetScaledGain, .-ADC_SAR_2_SetScaledGain
 708              		.section	.text.ADC_SAR_2_CountsTo_mVolts,"ax",%progbits
 709              		.align	2
 710              		.global	ADC_SAR_2_CountsTo_mVolts
 711              		.thumb
 712              		.thumb_func
 713              		.type	ADC_SAR_2_CountsTo_mVolts, %function
 714              	ADC_SAR_2_CountsTo_mVolts:
 715              	.LFB15:
 722:Generated_Source\PSoC5/ADC_SAR_2.c **** }
 723:Generated_Source\PSoC5/ADC_SAR_2.c **** 
 724:Generated_Source\PSoC5/ADC_SAR_2.c **** 
 725:Generated_Source\PSoC5/ADC_SAR_2.c **** /*******************************************************************************
 726:Generated_Source\PSoC5/ADC_SAR_2.c **** * Function Name: ADC_SAR_2_CountsTo_mVolts
 727:Generated_Source\PSoC5/ADC_SAR_2.c **** ********************************************************************************
 728:Generated_Source\PSoC5/ADC_SAR_2.c **** *
 729:Generated_Source\PSoC5/ADC_SAR_2.c **** * Summary:
 730:Generated_Source\PSoC5/ADC_SAR_2.c **** *  Converts the ADC output to millivolts as a 16-bit integer.
 731:Generated_Source\PSoC5/ADC_SAR_2.c **** *
 732:Generated_Source\PSoC5/ADC_SAR_2.c **** * Parameters:
 733:Generated_Source\PSoC5/ADC_SAR_2.c **** *  int16 adcCounts:  Result from the ADC conversion
 734:Generated_Source\PSoC5/ADC_SAR_2.c **** *
 735:Generated_Source\PSoC5/ADC_SAR_2.c **** * Return:
 736:Generated_Source\PSoC5/ADC_SAR_2.c **** *  int16 Result in mVolts
 737:Generated_Source\PSoC5/ADC_SAR_2.c **** *
 738:Generated_Source\PSoC5/ADC_SAR_2.c **** * Global Variables:
 739:Generated_Source\PSoC5/ADC_SAR_2.c **** *  ADC_SAR_2_offset variable used.
 740:Generated_Source\PSoC5/ADC_SAR_2.c **** *  ADC_SAR_2_countsPer10Volt variable used.
 741:Generated_Source\PSoC5/ADC_SAR_2.c **** *
 742:Generated_Source\PSoC5/ADC_SAR_2.c **** *******************************************************************************/
 743:Generated_Source\PSoC5/ADC_SAR_2.c **** int16 ADC_SAR_2_CountsTo_mVolts(int16 adcCounts)
 744:Generated_Source\PSoC5/ADC_SAR_2.c **** {
ARM GAS  C:\Users\FRANKL~1\AppData\Local\Temp\cc8oCYmi.s 			page 28


 716              		.loc 1 744 0
 717              		.cfi_startproc
 718              		@ args = 0, pretend = 0, frame = 0
 719              		@ frame_needed = 0, uses_anonymous_args = 0
 720              		@ link register save eliminated.
 721              	.LVL47:
 722 0000 10B4     		push	{r4}
 723              		.cfi_def_cfa_offset 4
 724              		.cfi_offset 4, -4
 745:Generated_Source\PSoC5/ADC_SAR_2.c ****     int16 mVolts;
 746:Generated_Source\PSoC5/ADC_SAR_2.c ****     int32 countsPer10Volt;
 747:Generated_Source\PSoC5/ADC_SAR_2.c **** 
 748:Generated_Source\PSoC5/ADC_SAR_2.c ****     if(ADC_SAR_2_countsPerVolt != 0)
 725              		.loc 1 748 0
 726 0002 124B     		ldr	r3, .L76
 727 0004 1B88     		ldrh	r3, [r3]
 728 0006 1BB2     		sxth	r3, r3
 729 0008 33B1     		cbz	r3, .L71
 749:Generated_Source\PSoC5/ADC_SAR_2.c ****     {   /* Support obsolete method */
 750:Generated_Source\PSoC5/ADC_SAR_2.c ****         countsPer10Volt = (int32)ADC_SAR_2_countsPerVolt * 10;
 730              		.loc 1 750 0
 731 000a 104B     		ldr	r3, .L76
 732 000c 1B88     		ldrh	r3, [r3]
 733 000e 1BB2     		sxth	r3, r3
 734 0010 03EB8303 		add	r3, r3, r3, lsl #2
 735 0014 5C00     		lsls	r4, r3, #1
 736              	.LVL48:
 737 0016 01E0     		b	.L72
 738              	.LVL49:
 739              	.L71:
 751:Generated_Source\PSoC5/ADC_SAR_2.c ****     }
 752:Generated_Source\PSoC5/ADC_SAR_2.c ****     else
 753:Generated_Source\PSoC5/ADC_SAR_2.c ****     {
 754:Generated_Source\PSoC5/ADC_SAR_2.c ****         countsPer10Volt = ADC_SAR_2_countsPer10Volt;
 740              		.loc 1 754 0
 741 0018 0D4B     		ldr	r3, .L76+4
 742 001a 1C68     		ldr	r4, [r3]
 743              	.LVL50:
 744              	.L72:
 755:Generated_Source\PSoC5/ADC_SAR_2.c ****     }
 756:Generated_Source\PSoC5/ADC_SAR_2.c **** 
 757:Generated_Source\PSoC5/ADC_SAR_2.c ****     /* Subtract ADC offset */
 758:Generated_Source\PSoC5/ADC_SAR_2.c ****     adcCounts -= ADC_SAR_2_offset;
 745              		.loc 1 758 0
 746 001c 0D4B     		ldr	r3, .L76+8
 747 001e 1988     		ldrh	r1, [r3]
 748 0020 411A     		subs	r1, r0, r1
 749 0022 09B2     		sxth	r1, r1
 750              	.LVL51:
 759:Generated_Source\PSoC5/ADC_SAR_2.c ****     /* Convert to millivolts with rounding */
 760:Generated_Source\PSoC5/ADC_SAR_2.c ****     mVolts = (int16)( (( (int32)adcCounts * ADC_SAR_2_10MV_COUNTS ) + ( (adcCounts > 0) ?
 751              		.loc 1 760 0
 752 0024 42F21073 		movw	r3, #10000
 753 0028 03FB01F2 		mul	r2, r3, r1
 761:Generated_Source\PSoC5/ADC_SAR_2.c ****                        (countsPer10Volt / 2) : (-(countsPer10Volt / 2)) )) / countsPer10Volt);
 754              		.loc 1 761 0
 755 002c 0029     		cmp	r1, #0
ARM GAS  C:\Users\FRANKL~1\AppData\Local\Temp\cc8oCYmi.s 			page 29


 756 002e 03DD     		ble	.L73
 757              		.loc 1 761 0 is_stmt 0 discriminator 1
 758 0030 04EBD470 		add	r0, r4, r4, lsr #31
 759 0034 4010     		asrs	r0, r0, #1
 760 0036 03E0     		b	.L74
 761              	.L73:
 762              		.loc 1 761 0 discriminator 2
 763 0038 04EBD470 		add	r0, r4, r4, lsr #31
 764 003c 4010     		asrs	r0, r0, #1
 765 003e 4042     		negs	r0, r0
 766              	.L74:
 760:Generated_Source\PSoC5/ADC_SAR_2.c ****                        (countsPer10Volt / 2) : (-(countsPer10Volt / 2)) )) / countsPer10Volt);
 767              		.loc 1 760 0 is_stmt 1
 768 0040 8318     		adds	r3, r0, r2
 769              		.loc 1 761 0
 770 0042 93FBF4F0 		sdiv	r0, r3, r4
 771              	.LVL52:
 762:Generated_Source\PSoC5/ADC_SAR_2.c **** 
 763:Generated_Source\PSoC5/ADC_SAR_2.c ****     return( mVolts );
 764:Generated_Source\PSoC5/ADC_SAR_2.c **** }
 772              		.loc 1 764 0
 773 0046 00B2     		sxth	r0, r0
 774 0048 10BC     		pop	{r4}
 775              		.cfi_restore 4
 776              		.cfi_def_cfa_offset 0
 777              	.LVL53:
 778 004a 7047     		bx	lr
 779              	.L77:
 780              		.align	2
 781              	.L76:
 782 004c 00000000 		.word	ADC_SAR_2_countsPerVolt
 783 0050 00000000 		.word	ADC_SAR_2_countsPer10Volt
 784 0054 00000000 		.word	ADC_SAR_2_offset
 785              		.cfi_endproc
 786              	.LFE15:
 787              		.size	ADC_SAR_2_CountsTo_mVolts, .-ADC_SAR_2_CountsTo_mVolts
 788              		.global	__aeabi_ldivmod
 789              		.section	.text.ADC_SAR_2_CountsTo_uVolts,"ax",%progbits
 790              		.align	2
 791              		.global	ADC_SAR_2_CountsTo_uVolts
 792              		.thumb
 793              		.thumb_func
 794              		.type	ADC_SAR_2_CountsTo_uVolts, %function
 795              	ADC_SAR_2_CountsTo_uVolts:
 796              	.LFB16:
 765:Generated_Source\PSoC5/ADC_SAR_2.c **** 
 766:Generated_Source\PSoC5/ADC_SAR_2.c **** 
 767:Generated_Source\PSoC5/ADC_SAR_2.c **** /*******************************************************************************
 768:Generated_Source\PSoC5/ADC_SAR_2.c **** * Function Name: ADC_SAR_2_CountsTo_uVolts
 769:Generated_Source\PSoC5/ADC_SAR_2.c **** ********************************************************************************
 770:Generated_Source\PSoC5/ADC_SAR_2.c **** *
 771:Generated_Source\PSoC5/ADC_SAR_2.c **** * Summary:
 772:Generated_Source\PSoC5/ADC_SAR_2.c **** *  Converts the ADC output to microvolts as a 32-bit integer.
 773:Generated_Source\PSoC5/ADC_SAR_2.c **** *
 774:Generated_Source\PSoC5/ADC_SAR_2.c **** * Parameters:
 775:Generated_Source\PSoC5/ADC_SAR_2.c **** *  int16 adcCounts: Result from the ADC conversion
 776:Generated_Source\PSoC5/ADC_SAR_2.c **** *
ARM GAS  C:\Users\FRANKL~1\AppData\Local\Temp\cc8oCYmi.s 			page 30


 777:Generated_Source\PSoC5/ADC_SAR_2.c **** * Return:
 778:Generated_Source\PSoC5/ADC_SAR_2.c **** *  int32 Result in micro Volts
 779:Generated_Source\PSoC5/ADC_SAR_2.c **** *
 780:Generated_Source\PSoC5/ADC_SAR_2.c **** * Global Variables:
 781:Generated_Source\PSoC5/ADC_SAR_2.c **** *  ADC_SAR_2_offset variable used.
 782:Generated_Source\PSoC5/ADC_SAR_2.c **** *  ADC_SAR_2_countsPer10Volt used to convert ADC counts to uVolts.
 783:Generated_Source\PSoC5/ADC_SAR_2.c **** *
 784:Generated_Source\PSoC5/ADC_SAR_2.c **** *******************************************************************************/
 785:Generated_Source\PSoC5/ADC_SAR_2.c **** int32 ADC_SAR_2_CountsTo_uVolts(int16 adcCounts)
 786:Generated_Source\PSoC5/ADC_SAR_2.c **** {
 797              		.loc 1 786 0
 798              		.cfi_startproc
 799              		@ args = 0, pretend = 0, frame = 0
 800              		@ frame_needed = 0, uses_anonymous_args = 0
 801              	.LVL54:
 802 0000 38B5     		push	{r3, r4, r5, lr}
 803              		.cfi_def_cfa_offset 16
 804              		.cfi_offset 3, -16
 805              		.cfi_offset 4, -12
 806              		.cfi_offset 5, -8
 807              		.cfi_offset 14, -4
 787:Generated_Source\PSoC5/ADC_SAR_2.c **** 
 788:Generated_Source\PSoC5/ADC_SAR_2.c ****     int64 uVolts;
 789:Generated_Source\PSoC5/ADC_SAR_2.c ****     int32 countsPer10Volt;
 790:Generated_Source\PSoC5/ADC_SAR_2.c **** 
 791:Generated_Source\PSoC5/ADC_SAR_2.c ****     if(ADC_SAR_2_countsPerVolt != 0)
 808              		.loc 1 791 0
 809 0002 0D4B     		ldr	r3, .L82
 810 0004 1B88     		ldrh	r3, [r3]
 811 0006 1BB2     		sxth	r3, r3
 812 0008 33B1     		cbz	r3, .L79
 792:Generated_Source\PSoC5/ADC_SAR_2.c ****     {   /* Support obsolete method */
 793:Generated_Source\PSoC5/ADC_SAR_2.c ****         countsPer10Volt = (int32)ADC_SAR_2_countsPerVolt * 10;
 813              		.loc 1 793 0
 814 000a 0B4B     		ldr	r3, .L82
 815 000c 1B88     		ldrh	r3, [r3]
 816 000e 1BB2     		sxth	r3, r3
 817 0010 03EB8303 		add	r3, r3, r3, lsl #2
 818 0014 5A00     		lsls	r2, r3, #1
 819              	.LVL55:
 820 0016 01E0     		b	.L80
 821              	.LVL56:
 822              	.L79:
 794:Generated_Source\PSoC5/ADC_SAR_2.c ****     }
 795:Generated_Source\PSoC5/ADC_SAR_2.c ****     else
 796:Generated_Source\PSoC5/ADC_SAR_2.c ****     {
 797:Generated_Source\PSoC5/ADC_SAR_2.c ****         countsPer10Volt = ADC_SAR_2_countsPer10Volt;
 823              		.loc 1 797 0
 824 0018 084B     		ldr	r3, .L82+4
 825 001a 1A68     		ldr	r2, [r3]
 826              	.LVL57:
 827              	.L80:
 798:Generated_Source\PSoC5/ADC_SAR_2.c ****     }
 799:Generated_Source\PSoC5/ADC_SAR_2.c **** 
 800:Generated_Source\PSoC5/ADC_SAR_2.c ****     /* Subtract ADC offset */
 801:Generated_Source\PSoC5/ADC_SAR_2.c ****     adcCounts -= ADC_SAR_2_offset;
 828              		.loc 1 801 0
ARM GAS  C:\Users\FRANKL~1\AppData\Local\Temp\cc8oCYmi.s 			page 31


 829 001c 084B     		ldr	r3, .L82+8
 830 001e 1C88     		ldrh	r4, [r3]
 831 0020 041B     		subs	r4, r0, r4
 832              	.LVL58:
 802:Generated_Source\PSoC5/ADC_SAR_2.c ****     /* To convert adcCounts to microVolts it is required to be multiplied
 803:Generated_Source\PSoC5/ADC_SAR_2.c ****     *  on 10 million and later divide on gain in counts per 10V.
 804:Generated_Source\PSoC5/ADC_SAR_2.c ****     */
 805:Generated_Source\PSoC5/ADC_SAR_2.c ****     uVolts = (( (int64)adcCounts * ADC_SAR_2_10UV_COUNTS ) / countsPer10Volt);
 833              		.loc 1 805 0
 834 0022 24B2     		sxth	r4, r4
 835 0024 E517     		asrs	r5, r4, #31
 836 0026 074B     		ldr	r3, .L82+12
 837 0028 A4FB0301 		umull	r0, r1, r4, r3
 838 002c 03FB0511 		mla	r1, r3, r5, r1
 839 0030 D317     		asrs	r3, r2, #31
 840 0032 FFF7FEFF 		bl	__aeabi_ldivmod
 841              	.LVL59:
 806:Generated_Source\PSoC5/ADC_SAR_2.c **** 
 807:Generated_Source\PSoC5/ADC_SAR_2.c ****     return((int32) uVolts );
 808:Generated_Source\PSoC5/ADC_SAR_2.c **** }
 842              		.loc 1 808 0
 843 0036 38BD     		pop	{r3, r4, r5, pc}
 844              	.LVL60:
 845              	.L83:
 846              		.align	2
 847              	.L82:
 848 0038 00000000 		.word	ADC_SAR_2_countsPerVolt
 849 003c 00000000 		.word	ADC_SAR_2_countsPer10Volt
 850 0040 00000000 		.word	ADC_SAR_2_offset
 851 0044 80969800 		.word	10000000
 852              		.cfi_endproc
 853              	.LFE16:
 854              		.size	ADC_SAR_2_CountsTo_uVolts, .-ADC_SAR_2_CountsTo_uVolts
 855              		.global	__aeabi_i2f
 856              		.global	__aeabi_fmul
 857              		.global	__aeabi_fdiv
 858              		.section	.text.ADC_SAR_2_CountsTo_Volts,"ax",%progbits
 859              		.align	2
 860              		.global	ADC_SAR_2_CountsTo_Volts
 861              		.thumb
 862              		.thumb_func
 863              		.type	ADC_SAR_2_CountsTo_Volts, %function
 864              	ADC_SAR_2_CountsTo_Volts:
 865              	.LFB17:
 809:Generated_Source\PSoC5/ADC_SAR_2.c **** 
 810:Generated_Source\PSoC5/ADC_SAR_2.c **** 
 811:Generated_Source\PSoC5/ADC_SAR_2.c **** /*******************************************************************************
 812:Generated_Source\PSoC5/ADC_SAR_2.c **** * Function Name: ADC_SAR_2_CountsTo_Volts
 813:Generated_Source\PSoC5/ADC_SAR_2.c **** ********************************************************************************
 814:Generated_Source\PSoC5/ADC_SAR_2.c **** *
 815:Generated_Source\PSoC5/ADC_SAR_2.c **** * Summary:
 816:Generated_Source\PSoC5/ADC_SAR_2.c **** *  Converts the ADC output to volts as a floating-point number.
 817:Generated_Source\PSoC5/ADC_SAR_2.c **** *
 818:Generated_Source\PSoC5/ADC_SAR_2.c **** * Parameters:
 819:Generated_Source\PSoC5/ADC_SAR_2.c **** *  int16 adcCounts: Result from the ADC conversion
 820:Generated_Source\PSoC5/ADC_SAR_2.c **** *
 821:Generated_Source\PSoC5/ADC_SAR_2.c **** * Return:
ARM GAS  C:\Users\FRANKL~1\AppData\Local\Temp\cc8oCYmi.s 			page 32


 822:Generated_Source\PSoC5/ADC_SAR_2.c **** *  float Result in Volts
 823:Generated_Source\PSoC5/ADC_SAR_2.c **** *
 824:Generated_Source\PSoC5/ADC_SAR_2.c **** * Global Variables:
 825:Generated_Source\PSoC5/ADC_SAR_2.c **** *  ADC_SAR_2_offset variable used.
 826:Generated_Source\PSoC5/ADC_SAR_2.c **** *  ADC_SAR_2_countsPer10Volt used to convert ADC counts to Volts.
 827:Generated_Source\PSoC5/ADC_SAR_2.c **** *
 828:Generated_Source\PSoC5/ADC_SAR_2.c **** *******************************************************************************/
 829:Generated_Source\PSoC5/ADC_SAR_2.c **** float32 ADC_SAR_2_CountsTo_Volts(int16 adcCounts)
 830:Generated_Source\PSoC5/ADC_SAR_2.c **** {
 866              		.loc 1 830 0
 867              		.cfi_startproc
 868              		@ args = 0, pretend = 0, frame = 0
 869              		@ frame_needed = 0, uses_anonymous_args = 0
 870              	.LVL61:
 871 0000 38B5     		push	{r3, r4, r5, lr}
 872              		.cfi_def_cfa_offset 16
 873              		.cfi_offset 3, -16
 874              		.cfi_offset 4, -12
 875              		.cfi_offset 5, -8
 876              		.cfi_offset 14, -4
 831:Generated_Source\PSoC5/ADC_SAR_2.c ****     float32 volts;
 832:Generated_Source\PSoC5/ADC_SAR_2.c ****     int32 countsPer10Volt;
 833:Generated_Source\PSoC5/ADC_SAR_2.c **** 
 834:Generated_Source\PSoC5/ADC_SAR_2.c ****     if(ADC_SAR_2_countsPerVolt != 0)
 877              		.loc 1 834 0
 878 0002 0F4B     		ldr	r3, .L88
 879 0004 1B88     		ldrh	r3, [r3]
 880 0006 1BB2     		sxth	r3, r3
 881 0008 33B1     		cbz	r3, .L85
 835:Generated_Source\PSoC5/ADC_SAR_2.c ****     {   /* Support obsolete method */
 836:Generated_Source\PSoC5/ADC_SAR_2.c ****         countsPer10Volt = (int32)ADC_SAR_2_countsPerVolt * 10;
 882              		.loc 1 836 0
 883 000a 0D4B     		ldr	r3, .L88
 884 000c 1B88     		ldrh	r3, [r3]
 885 000e 1BB2     		sxth	r3, r3
 886 0010 03EB8303 		add	r3, r3, r3, lsl #2
 887 0014 5C00     		lsls	r4, r3, #1
 888              	.LVL62:
 889 0016 01E0     		b	.L86
 890              	.LVL63:
 891              	.L85:
 837:Generated_Source\PSoC5/ADC_SAR_2.c ****     }
 838:Generated_Source\PSoC5/ADC_SAR_2.c ****     else
 839:Generated_Source\PSoC5/ADC_SAR_2.c ****     {
 840:Generated_Source\PSoC5/ADC_SAR_2.c ****         countsPer10Volt = ADC_SAR_2_countsPer10Volt;
 892              		.loc 1 840 0
 893 0018 0A4B     		ldr	r3, .L88+4
 894 001a 1C68     		ldr	r4, [r3]
 895              	.LVL64:
 896              	.L86:
 841:Generated_Source\PSoC5/ADC_SAR_2.c ****     }
 842:Generated_Source\PSoC5/ADC_SAR_2.c **** 
 843:Generated_Source\PSoC5/ADC_SAR_2.c ****     /* Subtract ADC offset */
 844:Generated_Source\PSoC5/ADC_SAR_2.c ****     adcCounts -= ADC_SAR_2_offset;
 897              		.loc 1 844 0
 898 001c 0A4B     		ldr	r3, .L88+8
 899 001e 1B88     		ldrh	r3, [r3]
ARM GAS  C:\Users\FRANKL~1\AppData\Local\Temp\cc8oCYmi.s 			page 33


 900 0020 C01A     		subs	r0, r0, r3
 901              	.LVL65:
 845:Generated_Source\PSoC5/ADC_SAR_2.c **** 
 846:Generated_Source\PSoC5/ADC_SAR_2.c ****     volts = ((float32)adcCounts * ADC_SAR_2_10V_COUNTS) / (float32)countsPer10Volt;
 902              		.loc 1 846 0
 903 0022 00B2     		sxth	r0, r0
 904 0024 FFF7FEFF 		bl	__aeabi_i2f
 905              	.LVL66:
 906 0028 0849     		ldr	r1, .L88+12
 907 002a FFF7FEFF 		bl	__aeabi_fmul
 908              	.LVL67:
 909 002e 0546     		mov	r5, r0
 910 0030 2046     		mov	r0, r4
 911 0032 FFF7FEFF 		bl	__aeabi_i2f
 912              	.LVL68:
 913 0036 0146     		mov	r1, r0
 914 0038 2846     		mov	r0, r5
 915 003a FFF7FEFF 		bl	__aeabi_fdiv
 916              	.LVL69:
 847:Generated_Source\PSoC5/ADC_SAR_2.c **** 
 848:Generated_Source\PSoC5/ADC_SAR_2.c ****     return( volts );
 849:Generated_Source\PSoC5/ADC_SAR_2.c **** }
 917              		.loc 1 849 0
 918 003e 38BD     		pop	{r3, r4, r5, pc}
 919              	.LVL70:
 920              	.L89:
 921              		.align	2
 922              	.L88:
 923 0040 00000000 		.word	ADC_SAR_2_countsPerVolt
 924 0044 00000000 		.word	ADC_SAR_2_countsPer10Volt
 925 0048 00000000 		.word	ADC_SAR_2_offset
 926 004c 00002041 		.word	1092616192
 927              		.cfi_endproc
 928              	.LFE17:
 929              		.size	ADC_SAR_2_CountsTo_Volts, .-ADC_SAR_2_CountsTo_Volts
 930              		.comm	ADC_SAR_2_shift,2,2
 931              		.comm	ADC_SAR_2_countsPer10Volt,4,4
 932              		.comm	ADC_SAR_2_countsPerVolt,2,2
 933              		.comm	ADC_SAR_2_offset,2,2
 934              		.global	ADC_SAR_2_initVar
 935              		.bss
 936              		.set	.LANCHOR0,. + 0
 937              		.type	ADC_SAR_2_initVar, %object
 938              		.size	ADC_SAR_2_initVar, 1
 939              	ADC_SAR_2_initVar:
 940 0000 00       		.space	1
 941              		.text
 942              	.Letext0:
 943              		.file 2 "Generated_Source\\PSoC5\\cytypes.h"
 944              		.file 3 "Generated_Source\\PSoC5\\CyLib.h"
 945              		.file 4 "Generated_Source\\PSoC5\\ADC_SAR_2_theACLK.h"