ARM GAS  C:\Users\FRANKL~1\AppData\Local\Temp\ccba5qpo.s 			page 1


   1              		.syntax unified
   2              		.cpu cortex-m3
   3              		.fpu softvfp
   4              		.eabi_attribute 20, 1
   5              		.eabi_attribute 21, 1
   6              		.eabi_attribute 23, 3
   7              		.eabi_attribute 24, 1
   8              		.eabi_attribute 25, 1
   9              		.eabi_attribute 26, 1
  10              		.eabi_attribute 30, 1
  11              		.eabi_attribute 34, 1
  12              		.eabi_attribute 18, 4
  13              		.thumb
  14              		.syntax unified
  15              		.file	"main.c"
  16              		.text
  17              	.Ltext0:
  18              		.cfi_sections	.debug_frame
  19              		.syntax unified
  20              		.global _printf_float
  21              		.thumb
  22              		.syntax unified
  23              		.section	.text.USBUARTH_Maintain_Configuration,"ax",%progbits
  24              		.align	2
  25              		.global	USBUARTH_Maintain_Configuration
  26              		.thumb
  27              		.thumb_func
  28              		.type	USBUARTH_Maintain_Configuration, %function
  29              	USBUARTH_Maintain_Configuration:
  30              	.LFB64:
  31              		.file 1 "USBUART_Helpers.h"
   1:USBUART_Helpers.h **** #include "project.h"
   2:USBUART_Helpers.h **** #include "stdio.h"
   3:USBUART_Helpers.h **** 
   4:USBUART_Helpers.h **** #if defined (__GNUC__)
   5:USBUART_Helpers.h **** 	/* Add an explicit reference to the floating point printf library */
   6:USBUART_Helpers.h **** 	/* to allow usage of the floating point conversion specifiers. */
   7:USBUART_Helpers.h **** 	/* This is not linked in by default with the newlib-nano library. */
   8:USBUART_Helpers.h **** 	asm (".global _printf_float");
   9:USBUART_Helpers.h **** #endif
  10:USBUART_Helpers.h **** 
  11:USBUART_Helpers.h **** // The buffer size is equal to the maximum packet size of the IN and OUT bulk endpoints.
  12:USBUART_Helpers.h **** #define USBUART_BUFFER_SIZE	(64u)
  13:USBUART_Helpers.h **** #define LINE_STR_LENGTH		(20u)
  14:USBUART_Helpers.h **** 
  15:USBUART_Helpers.h **** 
  16:USBUART_Helpers.h **** void USBUARTH_Maintain_Configuration() {
  32              		.loc 1 16 0
  33              		.cfi_startproc
  34              		@ args = 0, pretend = 0, frame = 0
  35              		@ frame_needed = 0, uses_anonymous_args = 0
  36 0000 08B5     		push	{r3, lr}
  37              		.cfi_def_cfa_offset 8
  38              		.cfi_offset 3, -8
  39              		.cfi_offset 14, -4
  40              	.LVL0:
  17:USBUART_Helpers.h **** 	unsigned long tries = 0;
ARM GAS  C:\Users\FRANKL~1\AppData\Local\Temp\ccba5qpo.s 			page 2


  18:USBUART_Helpers.h **** 	
  19:USBUART_Helpers.h **** 	do {
  20:USBUART_Helpers.h **** 		// Host can send double SET_INTERFACE request.
  21:USBUART_Helpers.h **** 		if (USBUART_IsConfigurationChanged()) {
  41              		.loc 1 21 0
  42 0002 FFF7FEFF 		bl	USBUART_IsConfigurationChanged
  43              	.LVL1:
  44 0006 20B1     		cbz	r0, .L2
  22:USBUART_Helpers.h **** 			// Initialize IN endpoints when device is configured.
  23:USBUART_Helpers.h **** 			if (USBUART_GetConfiguration()) {
  45              		.loc 1 23 0
  46 0008 FFF7FEFF 		bl	USBUART_GetConfiguration
  47              	.LVL2:
  48 000c 08B1     		cbz	r0, .L2
  24:USBUART_Helpers.h **** 				// Enumeration is done, enable OUT endpoint to receive data from host.
  25:USBUART_Helpers.h **** 				USBUART_CDC_Init();
  49              		.loc 1 25 0
  50 000e FFF7FEFF 		bl	USBUART_CDC_Init
  51              	.LVL3:
  52              	.L2:
  26:USBUART_Helpers.h **** 			}
  27:USBUART_Helpers.h **** 		}
  28:USBUART_Helpers.h **** 		
  29:USBUART_Helpers.h **** 		tries++;
  30:USBUART_Helpers.h **** 	// Keep trying until USB CDC device is configured
  31:USBUART_Helpers.h **** 	} while (!USBUART_GetConfiguration() && tries < 1);
  53              		.loc 1 31 0
  54 0012 FFF7FEFF 		bl	USBUART_GetConfiguration
  55              	.LVL4:
  56 0016 08BD     		pop	{r3, pc}
  57              		.cfi_endproc
  58              	.LFE64:
  59              		.size	USBUARTH_Maintain_Configuration, .-USBUARTH_Maintain_Configuration
  60              		.section	.text.USBUARTH_DataIsReady,"ax",%progbits
  61              		.align	2
  62              		.global	USBUARTH_DataIsReady
  63              		.thumb
  64              		.thumb_func
  65              		.type	USBUARTH_DataIsReady, %function
  66              	USBUARTH_DataIsReady:
  67              	.LFB65:
  32:USBUART_Helpers.h **** }
  33:USBUART_Helpers.h **** 
  34:USBUART_Helpers.h **** uint8 USBUARTH_DataIsReady() {
  68              		.loc 1 34 0
  69              		.cfi_startproc
  70              		@ args = 0, pretend = 0, frame = 0
  71              		@ frame_needed = 0, uses_anonymous_args = 0
  72 0000 08B5     		push	{r3, lr}
  73              		.cfi_def_cfa_offset 8
  74              		.cfi_offset 3, -8
  75              		.cfi_offset 14, -4
  35:USBUART_Helpers.h **** 	USBUARTH_Maintain_Configuration();
  76              		.loc 1 35 0
  77 0002 FFF7FEFF 		bl	USBUARTH_Maintain_Configuration
  78              	.LVL5:
  36:USBUART_Helpers.h **** 	
ARM GAS  C:\Users\FRANKL~1\AppData\Local\Temp\ccba5qpo.s 			page 3


  37:USBUART_Helpers.h **** 	return USBUART_GetConfiguration() && USBUART_DataIsReady();
  79              		.loc 1 37 0
  80 0006 FFF7FEFF 		bl	USBUART_GetConfiguration
  81              	.LVL6:
  82 000a 20B1     		cbz	r0, .L6
  83              		.loc 1 37 0 is_stmt 0 discriminator 1
  84 000c FFF7FEFF 		bl	USBUART_DataIsReady
  85              	.LVL7:
  86 0010 18B1     		cbz	r0, .L7
  87              		.loc 1 37 0
  88 0012 0120     		movs	r0, #1
  89 0014 08BD     		pop	{r3, pc}
  90              	.L6:
  91 0016 0020     		movs	r0, #0
  92 0018 08BD     		pop	{r3, pc}
  93              	.L7:
  94 001a 0020     		movs	r0, #0
  38:USBUART_Helpers.h **** }
  95              		.loc 1 38 0 is_stmt 1
  96 001c 08BD     		pop	{r3, pc}
  97              		.cfi_endproc
  98              	.LFE65:
  99              		.size	USBUARTH_DataIsReady, .-USBUARTH_DataIsReady
 100 001e 00BF     		.section	.text.CommunicationHandlerISR,"ax",%progbits
 101              		.align	2
 102              		.global	CommunicationHandlerISR
 103              		.thumb
 104              		.thumb_func
 105              		.type	CommunicationHandlerISR, %function
 106              	CommunicationHandlerISR:
 107              	.LFB112:
 108              		.file 2 "main.c"
   1:main.c        **** #include <stdlib.h>
   2:main.c        **** #include <stdio.h>
   3:main.c        **** #include "project.h"
   4:main.c        **** #include "USBUART_Helpers.h"
   5:main.c        **** 
   6:main.c        **** 
   7:main.c        **** struct Selector_I2C_Struct {
   8:main.c        **** 	struct {
   9:main.c        **** 		uint8 subAddress;
  10:main.c        **** 		uint8 data[126];
  11:main.c        **** 	} write;
  12:main.c        **** 	struct {
  13:main.c        **** 		uint8 subAddress;
  14:main.c        **** 		uint8 data[126];
  15:main.c        **** 	} read;
  16:main.c        **** 	uint8 busAddress;
  17:main.c        **** };
  18:main.c        **** 
  19:main.c        **** 
  20:main.c        **** // Globals ----------------------------------------------
  21:main.c        **** #define SELECTOR_COUNT (4u)
  22:main.c        **** #define INTERMEDIATE_COUNT (4u)
  23:main.c        **** #define CONTACT_COUNT (64u)
  24:main.c        **** #define CHANNEL_COUNT (34u)
  25:main.c        **** #define CONTACT_CONNECT_CODE (0xC0u)
ARM GAS  C:\Users\FRANKL~1\AppData\Local\Temp\ccba5qpo.s 			page 4


  26:main.c        **** #define CONTACT_DISCONNECT_CODE (0xD1u)
  27:main.c        **** #define COMPLIANCE_CURRENT_LIMIT (10e-6)
  28:main.c        **** 
  29:main.c        **** struct Selector_I2C_Struct selectors[SELECTOR_COUNT];
  30:main.c        **** char TransmitBuffer[USBUART_BUFFER_SIZE];
  31:main.c        **** 
  32:main.c        **** volatile uint8 newData = 0;
  33:main.c        **** volatile uint8 G_Stop = 0;
  34:main.c        **** volatile uint8 G_Break = 0;
  35:main.c        **** volatile uint8 G_Pause = 0;
  36:main.c        **** 
  37:main.c        **** volatile char UART_Receive_Buffer[USBUART_BUFFER_SIZE];
  38:main.c        **** volatile uint8 UART_Rx_Position;
  39:main.c        **** 
  40:main.c        **** volatile char USBUART_Receive_Buffer[USBUART_BUFFER_SIZE];
  41:main.c        **** volatile uint8 USBUART_Rx_Position;
  42:main.c        **** 
  43:main.c        **** enum TIA_resistor {R20K, R30K, R40K, R80K, R120K, R250K, R500K, R1000K};
  44:main.c        **** uint8 TIA_Selected_Resistor = R1000K;
  45:main.c        **** 
  46:main.c        **** uint8 TIA_Resistor_Codes[8] = {TIA_1_RES_FEEDBACK_20K, TIA_1_RES_FEEDBACK_30K, TIA_1_RES_FEEDBACK_4
  47:main.c        **** float TIA_Resistor_Values[8] = {20e3, 30e3, 40e3, 80e3, 120e3, 250e3, 500e3, 1e6};
  48:main.c        **** int32 TIA_Offsets_uV[8] = {0, 0, 0, 0, 0, 0, 0, 0};
  49:main.c        **** 
  50:main.c        **** uint8 Compliance_Reached;
  51:main.c        **** int16 Vgs_Index_Goal_Relative;
  52:main.c        **** int16 Vds_Index_Goal_Relative;
  53:main.c        **** 
  54:main.c        **** uint32 Current_Measurement_Sample_Count;
  55:main.c        **** 
  56:main.c        **** void Setup_Selector_I2C_Struct(struct Selector_I2C_Struct *selector) {
  57:main.c        **** 	selector->write.subAddress = 1;
  58:main.c        **** 	selector->read.subAddress = sizeof(selector->write) + 1;
  59:main.c        **** 	
  60:main.c        **** 	for (uint16 i = 0; i < sizeof(selector->write.data); i++) {
  61:main.c        **** 		selector->write.data[i] = i + 6;
  62:main.c        **** 	}
  63:main.c        **** 	for (uint16 i = 0; i < sizeof(selector->read.data); i++) {
  64:main.c        **** 		selector->read.data[i] = 0xbe;
  65:main.c        **** 	}
  66:main.c        **** }
  67:main.c        **** 
  68:main.c        **** void Update_Selector(uint8 selectori) {
  69:main.c        **** 	sprintf(TransmitBuffer, "Updating Selector %u\r\n", selectori + 1);
  70:main.c        **** 	USBUARTH_Send(TransmitBuffer, strlen(TransmitBuffer));
  71:main.c        **** 	UART_1_PutString(TransmitBuffer);
  72:main.c        **** 	
  73:main.c        **** 	struct Selector_I2C_Struct* selector = &selectors[selectori];
  74:main.c        **** 	
  75:main.c        **** 	I2C_1_MasterClearStatus();
  76:main.c        **** 	I2C_1_MasterWriteBuf(selector->busAddress, (uint8 *) &selector->write, sizeof(selector->write), I2
  77:main.c        **** 	for (uint32 i = 0; i < 4e5; i++) {
  78:main.c        **** 		if ((I2C_1_MasterStatus() & I2C_1_MSTAT_WR_CMPLT)) break;
  79:main.c        **** 		if (i >= 4e5 - 1) {
  80:main.c        **** 			sprintf(TransmitBuffer, "I2C Transfer Error! Type: Timeout\r\n");
  81:main.c        **** 			USBUARTH_Send(TransmitBuffer, strlen(TransmitBuffer));
  82:main.c        **** 			UART_1_PutString(TransmitBuffer);
ARM GAS  C:\Users\FRANKL~1\AppData\Local\Temp\ccba5qpo.s 			page 5


  83:main.c        **** 			I2C_1_Stop();
  84:main.c        **** 			I2C_1_Start();
  85:main.c        **** 		}
  86:main.c        **** 	}
  87:main.c        **** 	
  88:main.c        **** 	// I2C_1_MasterClearStatus();
  89:main.c        **** 	// I2C_1_MasterWriteBuf(selector->busAddress, (uint8 *) &selector->read.subAddress, 1, I2C_1_MODE_
  90:main.c        **** 	// for (uint32 i - 0; i < 4e5; i++) {
  91:main.c        **** 	// 	if ((I2C_1_MasterStatus() & I2C_1_MSTAT_WR_CMPLT)) break;
  92:main.c        **** 	// }
  93:main.c        **** 	
  94:main.c        **** 	// I2C_1_MasterReadBuf(selector->busAddress, (uint8 *) &selector->read.data, sizeof(selector->read
  95:main.c        **** 	// for (uint32 i - 0; i < 4e5; i++) {
  96:main.c        **** 	// 	if ((I2C_1_MasterStatus() & I2C_1_MSTAT_RD_CMPLT)) break;
  97:main.c        **** 	// }
  98:main.c        **** 	
  99:main.c        **** 	if (I2C_1_MasterStatus() & I2C_1_MSTAT_ERR_XFER) {
 100:main.c        **** 		sprintf(TransmitBuffer, "I2C Transfer Error! ");
 101:main.c        **** 		USBUARTH_Send(TransmitBuffer, strlen(TransmitBuffer));
 102:main.c        **** 		UART_1_PutString(TransmitBuffer);
 103:main.c        **** 		
 104:main.c        **** 		if (I2C_1_MasterStatus() & I2C_1_MSTAT_ERR_ADDR_NAK) {
 105:main.c        **** 			sprintf(TransmitBuffer, "Type: NAK");
 106:main.c        **** 			USBUARTH_Send(TransmitBuffer, strlen(TransmitBuffer));
 107:main.c        **** 			UART_1_PutString(TransmitBuffer);
 108:main.c        **** 		}
 109:main.c        **** 		
 110:main.c        **** 		sprintf(TransmitBuffer, "\r\n");
 111:main.c        **** 		USBUARTH_Send(TransmitBuffer, strlen(TransmitBuffer));
 112:main.c        **** 		UART_1_PutString(TransmitBuffer);
 113:main.c        **** 	}
 114:main.c        **** 	
 115:main.c        **** 	sprintf(TransmitBuffer, "Updated Selector %u\r\n", selectori + 1);
 116:main.c        **** 	USBUARTH_Send(TransmitBuffer, strlen(TransmitBuffer));
 117:main.c        **** 	UART_1_PutString(TransmitBuffer);
 118:main.c        **** }
 119:main.c        **** 
 120:main.c        **** void Setup_Selectors() {
 121:main.c        **** 	for (uint8 i = 0; i < SELECTOR_COUNT; i++) Setup_Selector_I2C_Struct(&selectors[i]);
 122:main.c        **** 	
 123:main.c        **** 	selectors[0].busAddress = 0x66;
 124:main.c        **** 	selectors[1].busAddress = 0x11;
 125:main.c        **** 	selectors[2].busAddress = 0x44;
 126:main.c        **** 	selectors[3].busAddress = 0x22;
 127:main.c        **** }
 128:main.c        **** 
 129:main.c        **** void Connect_Channel_On_Intermediate(uint8 channel, uint8 intermediate) {
 130:main.c        **** 	channel--;
 131:main.c        **** 	intermediate--;
 132:main.c        **** 	
 133:main.c        **** 	if (channel >= CHANNEL_COUNT) return;
 134:main.c        **** 	if (intermediate >= INTERMEDIATE_COUNT) return;
 135:main.c        **** 	
 136:main.c        **** 	selectors[intermediate].write.data[channel] = CONTACT_CONNECT_CODE;
 137:main.c        **** 	Update_Selector(intermediate);
 138:main.c        **** }
 139:main.c        **** 
ARM GAS  C:\Users\FRANKL~1\AppData\Local\Temp\ccba5qpo.s 			page 6


 140:main.c        **** void Connect_Contact_To_Intermediate(uint8 contact, uint8 intermediate) {
 141:main.c        **** 	contact--;
 142:main.c        **** 	intermediate--;
 143:main.c        **** 	
 144:main.c        **** 	if (contact >= CONTACT_COUNT) return;
 145:main.c        **** 	if (intermediate >= INTERMEDIATE_COUNT) return;
 146:main.c        **** 	
 147:main.c        **** 	uint8 offset = 0;
 148:main.c        **** 	if (intermediate >= INTERMEDIATE_COUNT/2) {
 149:main.c        **** 		offset = CONTACT_COUNT/2;
 150:main.c        **** 		if (contact < CONTACT_COUNT/2) return;
 151:main.c        **** 	} else {
 152:main.c        **** 		if (contact >= CONTACT_COUNT/2) return;
 153:main.c        **** 	}
 154:main.c        **** 	
 155:main.c        **** 	Connect_Channel_On_Intermediate(contact - offset + 1, intermediate + 1);
 156:main.c        **** }
 157:main.c        **** 
 158:main.c        **** void Disconnect_Contact_From_Intermediate(uint8 contact, uint8 intermediate) {
 159:main.c        **** 	contact--;
 160:main.c        **** 	intermediate--;
 161:main.c        **** 	
 162:main.c        **** 	if (contact >= CONTACT_COUNT) return;
 163:main.c        **** 	if (intermediate >= INTERMEDIATE_COUNT) return;
 164:main.c        **** 	
 165:main.c        **** 	uint8 offset = 0;
 166:main.c        **** 	if (intermediate >= INTERMEDIATE_COUNT/2) {
 167:main.c        **** 		offset = CONTACT_COUNT/2;
 168:main.c        **** 		if (contact < CONTACT_COUNT/2) return;
 169:main.c        **** 	} else {
 170:main.c        **** 		if (contact >= CONTACT_COUNT/2) return;
 171:main.c        **** 	}
 172:main.c        **** 	
 173:main.c        **** 	selectors[intermediate].write.data[contact - offset] = CONTACT_DISCONNECT_CODE;
 174:main.c        **** 	
 175:main.c        **** 	Update_Selector(intermediate);
 176:main.c        **** }
 177:main.c        **** 
 178:main.c        **** void Disconnect_Contact_From_All_Intermediates(uint8 contact) {
 179:main.c        **** 	contact--;
 180:main.c        **** 	
 181:main.c        **** 	for (uint8 intermediate = 0; intermediate < INTERMEDIATE_COUNT; intermediate++) {
 182:main.c        **** 		
 183:main.c        **** 		uint8 offset = 0;
 184:main.c        **** 		if (intermediate >= INTERMEDIATE_COUNT/2) {
 185:main.c        **** 			offset = CONTACT_COUNT/2;
 186:main.c        **** 			if (contact < CONTACT_COUNT/2) continue;
 187:main.c        **** 		} else {
 188:main.c        **** 			if (contact >= CONTACT_COUNT/2) continue;
 189:main.c        **** 		}
 190:main.c        **** 		
 191:main.c        **** 		selectors[intermediate].write.data[contact - offset] = CONTACT_DISCONNECT_CODE;
 192:main.c        **** 		
 193:main.c        **** 		Update_Selector(intermediate);
 194:main.c        **** 	}
 195:main.c        **** }
 196:main.c        **** 
ARM GAS  C:\Users\FRANKL~1\AppData\Local\Temp\ccba5qpo.s 			page 7


 197:main.c        **** void Disconnect_All_Contacts_From_All_Intermediates() {
 198:main.c        **** 	for (uint8 intermediate = 0; intermediate < INTERMEDIATE_COUNT/**//2; intermediate++) {
 199:main.c        **** 		for (uint8 contact = 0; contact < CONTACT_COUNT/2; contact++) {
 200:main.c        **** 			selectors[intermediate].write.data[contact] = CONTACT_DISCONNECT_CODE;
 201:main.c        **** 		}
 202:main.c        **** 		
 203:main.c        **** 		Update_Selector(intermediate);
 204:main.c        **** 	}
 205:main.c        **** }
 206:main.c        **** 
 207:main.c        **** void Disconnect_All_Contacts_From_Intermediate(uint8 intermediate) {
 208:main.c        **** 	intermediate--;
 209:main.c        **** 	
 210:main.c        **** 	for (uint8 contact = 0; contact < CONTACT_COUNT/2; contact++) {
 211:main.c        **** 		selectors[intermediate].write.data[contact] = CONTACT_DISCONNECT_CODE;
 212:main.c        **** 	}
 213:main.c        **** 	
 214:main.c        **** 	Update_Selector(intermediate);
 215:main.c        **** }
 216:main.c        **** 
 217:main.c        **** void Connect_Intermediate(uint8 intermediate) {
 218:main.c        **** 	switch (intermediate) {
 219:main.c        **** 		case 1: Connect_Channel_On_Intermediate(33, 1); break;
 220:main.c        **** 		case 2: Connect_Channel_On_Intermediate(33, 2); break;
 221:main.c        **** 		case 3: Connect_Channel_On_Intermediate(33, 3); break;
 222:main.c        **** 		case 4: Connect_Channel_On_Intermediate(33, 4); break;
 223:main.c        **** 		default: return;
 224:main.c        **** 	}
 225:main.c        **** }
 226:main.c        **** 
 227:main.c        **** void Connect_Intermediates() {
 228:main.c        **** 	for (uint8 i = 1; i <= INTERMEDIATE_COUNT/**//2; i++) {
 229:main.c        **** 		Connect_Intermediate(i);
 230:main.c        **** 	}
 231:main.c        **** }
 232:main.c        **** 
 233:main.c        **** void TIA_Set_Resistor(uint8 resistor) {
 234:main.c        **** 	TIA_Selected_Resistor = resistor;
 235:main.c        **** 	TIA_1_SetResFB(TIA_Resistor_Codes[resistor]);
 236:main.c        **** }
 237:main.c        **** 
 238:main.c        **** void ADC_Increase_Range() {
 239:main.c        **** 	switch(TIA_Selected_Resistor) {
 240:main.c        **** 		case R20K: 	 break;
 241:main.c        **** 		case R30K: 	 TIA_Set_Resistor(R20K); break;
 242:main.c        **** 		case R40K:	 TIA_Set_Resistor(R30K); break;
 243:main.c        **** 		case R80K:	 TIA_Set_Resistor(R40K); break;
 244:main.c        **** 		case R120K:	 TIA_Set_Resistor(R80K); break;
 245:main.c        **** 		case R250K:	 TIA_Set_Resistor(R120K); break;
 246:main.c        **** 		case R500K:	 TIA_Set_Resistor(R250K); break;
 247:main.c        **** 		case R1000K: TIA_Set_Resistor(R500K); break;
 248:main.c        **** 		default: return;
 249:main.c        **** 	}
 250:main.c        **** }
 251:main.c        **** 
 252:main.c        **** void ADC_Decrease_Range() {
 253:main.c        **** 	switch(TIA_Selected_Resistor) {
ARM GAS  C:\Users\FRANKL~1\AppData\Local\Temp\ccba5qpo.s 			page 8


 254:main.c        **** 		case R20K: 	 TIA_Set_Resistor(R30K); break;
 255:main.c        **** 		case R30K: 	 TIA_Set_Resistor(R40K); break;
 256:main.c        **** 		case R40K:	 TIA_Set_Resistor(R80K); break;
 257:main.c        **** 		case R80K:	 TIA_Set_Resistor(R120K); break;
 258:main.c        **** 		case R120K:	 TIA_Set_Resistor(R250K); break;
 259:main.c        **** 		case R250K:	 TIA_Set_Resistor(R500K); break;
 260:main.c        **** 		case R500K:	 TIA_Set_Resistor(R1000K); break;
 261:main.c        **** 		case R1000K: break;
 262:main.c        **** 		default: return;
 263:main.c        **** 	}
 264:main.c        **** }
 265:main.c        **** 
 266:main.c        **** // Measure Delta-Sigma ADC
 267:main.c        **** void ADC_Measure_uV(int32* average, int32* standardDeviation, uint32 sampleCount) {
 268:main.c        **** 	int32 ADC_Result = 0;
 269:main.c        **** 	int32 ADC_SD = 0;
 270:main.c        **** 	
 271:main.c        **** 	for (uint32 i = 1; i <= sampleCount; i++) {
 272:main.c        **** 		ADC_DelSig_1_StartConvert();
 273:main.c        **** 		while (!ADC_DelSig_1_IsEndConversion(ADC_DelSig_1_RETURN_STATUS));
 274:main.c        **** 		//int16 ADC_Result = ADC_DelSig_1_CountsTo_mVolts(ADC_DelSig_1_GetResult16());
 275:main.c        **** 		int32 ADC_Result_Current = ADC_DelSig_1_CountsTo_uVolts(ADC_DelSig_1_GetResult32());
 276:main.c        **** 		
 277:main.c        **** 		ADC_SD += (float)(i-1)/(float)(i)*(ADC_Result_Current - ADC_Result)*(ADC_Result_Current - ADC_Res
 278:main.c        **** 		ADC_Result += ((float)ADC_Result_Current - (float)ADC_Result)/(float)i;
 279:main.c        **** 	}
 280:main.c        **** 	
 281:main.c        **** 	*average = ADC_Result;
 282:main.c        **** 	*standardDeviation = ADC_SD;
 283:main.c        **** }
 284:main.c        **** 
 285:main.c        **** // Measure SAR1 ADC
 286:main.c        **** void SAR1_Measure_V(int32* average, int32* standardDeviation, uint32 sampleCount) {
 287:main.c        **** 	int32 SAR_Result = 0;
 288:main.c        **** 	int32 SAR_SD = 0;
 289:main.c        **** 	
 290:main.c        **** 	for (uint32 i = 1; i <= sampleCount; i++) {
 291:main.c        **** 		ADC_SAR_1_StartConvert();
 292:main.c        **** 		while (!ADC_SAR_1_IsEndConversion(ADC_SAR_1_RETURN_STATUS));
 293:main.c        **** 		
 294:main.c        **** 		int32 SAR1_Result_Current = ADC_SAR_1_CountsTo_uVolts(ADC_SAR_1_GetResult16());
 295:main.c        **** 		
 296:main.c        **** 		SAR_SD += (float)(i-1)/(float)(i)*(SAR1_Result_Current - SAR_Result)*(SAR1_Result_Current - SAR_R
 297:main.c        **** 		SAR_Result += ((float)SAR1_Result_Current - (float)SAR_Result)/(float)i;
 298:main.c        **** 	}
 299:main.c        **** 	
 300:main.c        **** 	*average = SAR_Result;
 301:main.c        **** 	*standardDeviation = SAR_SD;
 302:main.c        **** }
 303:main.c        **** 
 304:main.c        **** // Measure SAR2 ADC
 305:main.c        **** void SAR2_Measure_V(int32* average, int32* standardDeviation, uint32 sampleCount) {
 306:main.c        **** 	int32 SAR_Result = 0;
 307:main.c        **** 	int32 SAR_SD = 0;
 308:main.c        **** 	
 309:main.c        **** 	for (uint32 i = 1; i <= sampleCount; i++) {
 310:main.c        **** 		ADC_SAR_2_StartConvert();
ARM GAS  C:\Users\FRANKL~1\AppData\Local\Temp\ccba5qpo.s 			page 9


 311:main.c        **** 		while (!ADC_SAR_2_IsEndConversion(ADC_SAR_2_RETURN_STATUS));
 312:main.c        **** 		
 313:main.c        **** 		int32 SAR2_Result_Current = ADC_SAR_2_CountsTo_uVolts(ADC_SAR_2_GetResult16());
 314:main.c        **** 		
 315:main.c        **** 		SAR_SD += (float)(i-1)/(float)(i)*(SAR2_Result_Current - SAR_Result)*(SAR2_Result_Current - SAR_R
 316:main.c        **** 		SAR_Result += ((float)SAR2_Result_Current - (float)SAR_Result)/(float)i;
 317:main.c        **** 	}
 318:main.c        **** 	
 319:main.c        **** 	*average = SAR_Result;
 320:main.c        **** 	*standardDeviation = SAR_SD;
 321:main.c        **** }
 322:main.c        **** 
 323:main.c        **** // Measure current and compare it to some compliance value
 324:main.c        **** void Measure_Current_Vss(float* currentAverageIn, float* currentStdDevIn, uint32 sampleCount) {
 325:main.c        **** 	Compliance_Reached = 0;
 326:main.c        **** 	
 327:main.c        **** 	// Voltage and its standard deviation (in uV)
 328:main.c        **** 	int32 voltage = 0;
 329:main.c        **** 	int32 voltageSD = 0;
 330:main.c        **** 	
 331:main.c        **** 	// Current and its standard deviation (in A)
 332:main.c        **** 	float currentNow = 0;
 333:main.c        **** 	
 334:main.c        **** 	float currentAverage = 0;
 335:main.c        **** 	float currentStdDev = 0;
 336:main.c        **** 	
 337:main.c        **** 	float TIA_Feedback_R = TIA_Resistor_Values[TIA_Selected_Resistor];
 338:main.c        **** 	float unitConversion = -1.0e-6/TIA_Feedback_R;
 339:main.c        **** 	
 340:main.c        **** 	// Allow for the first measurement (normally not correct) to take place
 341:main.c        **** 	ADC_Measure_uV(&voltage, &voltageSD, 3);
 342:main.c        **** 	
 343:main.c        **** 	// Now take the real measurement
 344:main.c        **** 	for (uint32 i = 1; i <= sampleCount; i++) {
 345:main.c        **** 		ADC_Measure_uV(&voltage, &voltageSD, 1);
 346:main.c        **** 		
 347:main.c        **** 		currentNow = unitConversion*voltage;
 348:main.c        **** 		
 349:main.c        **** 		if (abs(currentNow) > COMPLIANCE_CURRENT_LIMIT) {
 350:main.c        **** 			Compliance_Reached += 1;
 351:main.c        **** 			break;
 352:main.c        **** 		} else {
 353:main.c        **** 			Compliance_Reached = 0;
 354:main.c        **** 		}
 355:main.c        **** 		
 356:main.c        **** 		currentStdDev += ((float)i-1.0)/(float)(i)*(currentNow - currentAverage)*(currentNow - currentAve
 357:main.c        **** 		currentAverage += (currentNow - currentAverage)/(float)i;
 358:main.c        **** 	}
 359:main.c        **** 	
 360:main.c        **** 	*currentAverageIn = currentAverage;
 361:main.c        **** 	*currentStdDevIn = currentStdDev;
 362:main.c        **** }
 363:main.c        **** 
 364:main.c        **** uint8 At_Compliance() {
 365:main.c        **** 	Compliance_Reached = 0;
 366:main.c        **** 	
 367:main.c        **** 	float current = 0;
ARM GAS  C:\Users\FRANKL~1\AppData\Local\Temp\ccba5qpo.s 			page 10


 368:main.c        **** 	float currentSD = 0;
 369:main.c        **** 	
 370:main.c        **** 	Measure_Current_Vss(&current, &currentSD, 3);
 371:main.c        **** 	
 372:main.c        **** 	if (abs(current) > COMPLIANCE_CURRENT_LIMIT) {
 373:main.c        **** 		Compliance_Reached = 1;
 374:main.c        **** 		return 1;
 375:main.c        **** 	}
 376:main.c        **** 	
 377:main.c        **** 	return 0;
 378:main.c        **** }
 379:main.c        **** 
 380:main.c        **** void Handle_Compliance_Breach() {
 381:main.c        **** 	uint8 istart = VDAC_Vds_Data;
 382:main.c        **** 	uint8 istop = VDAC_Ref_Data;
 383:main.c        **** 	int8 increment = 1;
 384:main.c        **** 	if (istart < istop) increment = -1;
 385:main.c        **** 	
 386:main.c        **** 	for (uint8 i = istart; i != istop; i += increment) {
 387:main.c        **** 		VDAC_Vds_SetValue(i);
 388:main.c        **** 		
 389:main.c        **** 		if (!At_Compliance()) return;
 390:main.c        **** 	}
 391:main.c        **** 	
 392:main.c        **** 	istart = VDAC_Vgs_Data;
 393:main.c        **** 	istop = VDAC_Ref_Data;
 394:main.c        **** 	increment = 1;
 395:main.c        **** 	if (istart < istop) increment = -1;
 396:main.c        **** 	
 397:main.c        **** 	for (uint8 i = istart; i != istop; i += increment) {
 398:main.c        **** 		VDAC_Vgs_SetValue(i);
 399:main.c        **** 		
 400:main.c        **** 		if (!At_Compliance()) return;
 401:main.c        **** 	}
 402:main.c        **** 	
 403:main.c        **** 	// To do: Should disconnect something or take some other action at this point since still at compl
 404:main.c        **** }
 405:main.c        **** 
 406:main.c        **** // Get the reference voltage in volts
 407:main.c        **** float Get_Ref() {
 408:main.c        **** 	float result = 4.080/255.0*VDAC_Ref_Data;
 409:main.c        **** 	if (VDAC_Ref_CR0 & (VDAC_Ref_RANGE_1V & VDAC_Ref_RANGE_MASK)) {
 410:main.c        **** 		result = 1.020/255.0*VDAC_Ref_Data;
 411:main.c        **** 	}
 412:main.c        **** 	return result;
 413:main.c        **** }
 414:main.c        **** 
 415:main.c        **** // Get Vgs in volts
 416:main.c        **** float Get_Vgs() {
 417:main.c        **** 	float result = 4.080/255.0*VDAC_Vgs_Data - Get_Ref();
 418:main.c        **** 	if (VDAC_Vgs_CR0 & (VDAC_Vgs_RANGE_1V & VDAC_Vgs_RANGE_MASK)) {
 419:main.c        **** 		result = 1.020/255.0*VDAC_Vgs_Data - Get_Ref();
 420:main.c        **** 	}
 421:main.c        **** 	return result;
 422:main.c        **** }
 423:main.c        **** 
 424:main.c        **** // Get Vds in volts
ARM GAS  C:\Users\FRANKL~1\AppData\Local\Temp\ccba5qpo.s 			page 11


 425:main.c        **** float Get_Vds() {
 426:main.c        **** 	float result = 4.080/255.0*VDAC_Vds_Data - Get_Ref();
 427:main.c        **** 	if (VDAC_Vds_CR0 & (VDAC_Vds_RANGE_1V & VDAC_Vds_RANGE_MASK)) {
 428:main.c        **** 		result = 1.020/255.0*VDAC_Vds_Data - Get_Ref();
 429:main.c        **** 	}
 430:main.c        **** 	return result;
 431:main.c        **** }
 432:main.c        **** 
 433:main.c        **** 
 434:main.c        **** // ****************************
 435:main.c        **** // Set the raw value of Vds
 436:main.c        **** void Set_Vds_Raw(uint8 value) {
 437:main.c        **** 	Vds_Index_Goal_Relative = (int16)value - (int16)VDAC_Ref_Data;
 438:main.c        **** 	
 439:main.c        **** 	uint8 istart = VDAC_Vds_Data;
 440:main.c        **** 	int8 increment = 1;
 441:main.c        **** 	if (istart > value) increment = -1;
 442:main.c        **** 	
 443:main.c        **** 	for (uint8 i = 0; i != value; i += increment) {
 444:main.c        **** 		if (At_Compliance()) {
 445:main.c        **** 			for (uint8 j = i; j != istart; j -= increment) {
 446:main.c        **** 				VDAC_Vds_SetValue(j);
 447:main.c        **** 				
 448:main.c        **** 				if (!At_Compliance()) return;
 449:main.c        **** 			}
 450:main.c        **** 			if (At_Compliance()) {
 451:main.c        **** 				Handle_Compliance_Breach();
 452:main.c        **** 				return;
 453:main.c        **** 			}
 454:main.c        **** 		}
 455:main.c        **** 		
 456:main.c        **** 		VDAC_Vds_SetValue(i);
 457:main.c        **** 	}
 458:main.c        **** }
 459:main.c        **** 
 460:main.c        **** // Set the raw value of Vgs
 461:main.c        **** void Set_Vgs_Raw(uint8 value) {
 462:main.c        **** 	Vgs_Index_Goal_Relative = (int16)value - (int16)VDAC_Ref_Data;
 463:main.c        **** 	
 464:main.c        **** 	int8 increment = 1;
 465:main.c        **** 	uint8 istart = VDAC_Vgs_Data;
 466:main.c        **** 	if (value < istart) increment = -1;
 467:main.c        **** 	
 468:main.c        **** 	for (uint8 i = istart; i != value; i += increment) {
 469:main.c        **** 		if (At_Compliance()) {
 470:main.c        **** 			for (uint8 j = i; j != istart; j -= increment) {
 471:main.c        **** 				VDAC_Vgs_SetValue(j);
 472:main.c        **** 				
 473:main.c        **** 				if (!At_Compliance()) return;
 474:main.c        **** 			}
 475:main.c        **** 			if (At_Compliance()) {
 476:main.c        **** 				Handle_Compliance_Breach();
 477:main.c        **** 				return;
 478:main.c        **** 			}
 479:main.c        **** 		}
 480:main.c        **** 		
 481:main.c        **** 		VDAC_Vgs_SetValue(i);
ARM GAS  C:\Users\FRANKL~1\AppData\Local\Temp\ccba5qpo.s 			page 12


 482:main.c        **** 	}
 483:main.c        **** }
 484:main.c        **** 
 485:main.c        **** // Set the raw value of the reference voltage
 486:main.c        **** void Set_Ref_Raw(uint8 value) {
 487:main.c        **** 	if (value < 6) value = 6;
 488:main.c        **** 	
 489:main.c        **** 	int8 increment = 1;
 490:main.c        **** 	if (value < VDAC_Ref_Data) increment = -1;
 491:main.c        **** 	
 492:main.c        **** 	for (uint8 i = VDAC_Ref_Data; i != value; i += increment) {
 493:main.c        **** 		
 494:main.c        **** 		if (At_Compliance()) return;
 495:main.c        **** 		
 496:main.c        **** 		int16 new_Vgs = (int16)i + Vgs_Index_Goal_Relative;
 497:main.c        **** 		int16 new_Vds = (int16)i + Vds_Index_Goal_Relative;
 498:main.c        **** 		
 499:main.c        **** 		if (new_Vgs > 255) new_Vgs = 255;
 500:main.c        **** 		if (new_Vds > 255) new_Vds = 255;
 501:main.c        **** 		
 502:main.c        **** 		if (new_Vgs < 0) new_Vgs = 0;
 503:main.c        **** 		if (new_Vds < 0) new_Vds = 0;
 504:main.c        **** 		
 505:main.c        **** 		VDAC_Ref_SetValue(i);
 506:main.c        **** 		VDAC_Vgs_SetValue(new_Vgs);
 507:main.c        **** 		VDAC_Vds_SetValue(new_Vds);
 508:main.c        **** 	}
 509:main.c        **** }
 510:main.c        **** // ****************************
 511:main.c        **** 
 512:main.c        **** // Set Vds and move the reference voltage if necessary
 513:main.c        **** void Set_Vds_Rel(int16 value) {
 514:main.c        **** 	if (value > 255) value = 255;
 515:main.c        **** 	if (value < -255) value = -255;
 516:main.c        **** 	
 517:main.c        **** 	int16 absolute = (int16)value + (int16)VDAC_Ref_Data;
 518:main.c        **** 	
 519:main.c        **** 	if (absolute > 255) {
 520:main.c        **** 		Set_Ref_Raw(VDAC_Ref_Data - (absolute - 255));
 521:main.c        **** 		Set_Vds_Raw(255);
 522:main.c        **** 	} else if (absolute < 0) {
 523:main.c        **** 		Set_Ref_Raw(VDAC_Ref_Data - absolute);
 524:main.c        **** 		Set_Vds_Raw(0);
 525:main.c        **** 	} else {
 526:main.c        **** 		Set_Vds_Raw(absolute);
 527:main.c        **** 	}
 528:main.c        **** 	
 529:main.c        **** 	Vds_Index_Goal_Relative = (int16)value;
 530:main.c        **** 	
 531:main.c        **** 	uint16 Vds_minRefRaw = Vds_Index_Goal_Relative > 0? 0: -Vds_Index_Goal_Relative;
 532:main.c        **** 	uint16 Vds_maxRefRaw = Vds_Index_Goal_Relative > 0? 255 - Vds_Index_Goal_Relative: 255;
 533:main.c        **** 	uint16 Vgs_minRefRaw = Vgs_Index_Goal_Relative > 0? 0: -Vgs_Index_Goal_Relative;
 534:main.c        **** 	uint16 Vgs_maxRefRaw = Vgs_Index_Goal_Relative > 0? 255 - Vgs_Index_Goal_Relative: 255;
 535:main.c        **** 	
 536:main.c        **** 	uint16 newRefRaw = VDAC_Ref_Data;
 537:main.c        **** 	
 538:main.c        **** 	if (newRefRaw < Vgs_minRefRaw) newRefRaw = Vgs_minRefRaw;
ARM GAS  C:\Users\FRANKL~1\AppData\Local\Temp\ccba5qpo.s 			page 13


 539:main.c        **** 	if (newRefRaw > Vgs_maxRefRaw) newRefRaw = Vgs_maxRefRaw;
 540:main.c        **** 	if (newRefRaw < Vds_minRefRaw) newRefRaw = Vds_minRefRaw;
 541:main.c        **** 	if (newRefRaw > Vds_maxRefRaw) newRefRaw = Vds_maxRefRaw;
 542:main.c        **** 	
 543:main.c        **** 	Set_Ref_Raw(newRefRaw);
 544:main.c        **** }
 545:main.c        **** 
 546:main.c        **** // Set Vgs and move the reference voltage if necessary
 547:main.c        **** void Set_Vgs_Rel(int16 value) {
 548:main.c        **** 	if (value > 255) value = 255;
 549:main.c        **** 	if (value < -255) value = -255;
 550:main.c        **** 	
 551:main.c        **** 	int16 absolute = (int16)value + (int16)VDAC_Ref_Data;
 552:main.c        **** 	
 553:main.c        **** 	if (absolute > 255) {
 554:main.c        **** 		Set_Ref_Raw(VDAC_Ref_Data - (absolute - 255));
 555:main.c        **** 		Set_Vgs_Raw(255);
 556:main.c        **** 	} else if (absolute < 0) {
 557:main.c        **** 		Set_Ref_Raw(VDAC_Ref_Data - absolute);
 558:main.c        **** 		Set_Vgs_Raw(0);
 559:main.c        **** 	} else {
 560:main.c        **** 		Set_Vgs_Raw(absolute);
 561:main.c        **** 	}
 562:main.c        **** 	
 563:main.c        **** 	Vgs_Index_Goal_Relative = (int16)value;
 564:main.c        **** 	
 565:main.c        **** 	uint16 Vds_minRefRaw = Vds_Index_Goal_Relative > 0? 0: -Vds_Index_Goal_Relative;
 566:main.c        **** 	uint16 Vds_maxRefRaw = Vds_Index_Goal_Relative > 0? 255 - Vds_Index_Goal_Relative: 255;
 567:main.c        **** 	uint16 Vgs_minRefRaw = Vgs_Index_Goal_Relative > 0? 0: -Vgs_Index_Goal_Relative;
 568:main.c        **** 	uint16 Vgs_maxRefRaw = Vgs_Index_Goal_Relative > 0? 255 - Vgs_Index_Goal_Relative: 255;
 569:main.c        **** 	
 570:main.c        **** 	uint16 newRefRaw = VDAC_Ref_Data;
 571:main.c        **** 	
 572:main.c        **** 	if (newRefRaw < Vds_minRefRaw) newRefRaw = Vds_minRefRaw;
 573:main.c        **** 	if (newRefRaw > Vds_maxRefRaw) newRefRaw = Vds_maxRefRaw;
 574:main.c        **** 	if (newRefRaw < Vgs_minRefRaw) newRefRaw = Vgs_minRefRaw;
 575:main.c        **** 	if (newRefRaw > Vgs_maxRefRaw) newRefRaw = Vgs_maxRefRaw;
 576:main.c        **** 	
 577:main.c        **** 	Set_Ref_Raw(newRefRaw);
 578:main.c        **** }
 579:main.c        **** // ****************************
 580:main.c        **** 
 581:main.c        **** // Set Vgs by volts (good for readability, but requires passing floats)
 582:main.c        **** void Set_Vgs(float voltage) {
 583:main.c        **** 	Set_Vgs_Rel((voltage/4.080)*255.0);
 584:main.c        **** }
 585:main.c        **** 
 586:main.c        **** // Set Vds by volts (good for readability, but requires passing floats)
 587:main.c        **** void Set_Vds(float voltage) {
 588:main.c        **** 	Set_Vds_Rel((voltage/4.080)*255.0);
 589:main.c        **** }
 590:main.c        **** // ****************************
 591:main.c        **** 
 592:main.c        **** // Set Vgs by mV (good for passing in integers instead of floats)
 593:main.c        **** void Set_Vgs_mV(float mV) {
 594:main.c        **** 	Set_Vgs(mV/1000.0);
 595:main.c        **** }
ARM GAS  C:\Users\FRANKL~1\AppData\Local\Temp\ccba5qpo.s 			page 14


 596:main.c        **** 
 597:main.c        **** // Set Vds by mV (good for passing in integers instead of floats)
 598:main.c        **** void Set_Vds_mV(float mV) {
 599:main.c        **** 	Set_Vds(mV/1000.0);
 600:main.c        **** }
 601:main.c        **** // ****************************
 602:main.c        **** 
 603:main.c        **** // Set Vgs and Vds to 0
 604:main.c        **** void Zero_All_DACs() {
 605:main.c        **** 	Set_Vds_Raw(0);
 606:main.c        **** 	Set_Vgs_Raw(0);
 607:main.c        **** 	
 608:main.c        **** 	VDAC_Vds_SetValue(0);
 609:main.c        **** 	VDAC_Vgs_SetValue(0);
 610:main.c        **** }
 611:main.c        **** 
 612:main.c        **** void Calibrate_ADC_Offset(uint32 sampleCount) {
 613:main.c        **** 	uint8 current_range_resistor = TIA_Selected_Resistor;
 614:main.c        **** 	
 615:main.c        **** 	// Zero the DACs
 616:main.c        **** 	Set_Vds(0);
 617:main.c        **** 	Set_Vgs(0);
 618:main.c        **** 	
 619:main.c        **** 	// Voltage and its standard deviation (in uV)
 620:main.c        **** 	int32 voltage = 0;
 621:main.c        **** 	int32 voltageSD = 0;
 622:main.c        **** 	
 623:main.c        **** 	// Measure ADC offset voltages
 624:main.c        **** 	for (uint8 i = R20K; i <= R1000K; i++) {
 625:main.c        **** 		TIA_Set_Resistor(i);
 626:main.c        **** 		// Take a few measurements to discard any problems with the initial measurements
 627:main.c        **** 		ADC_Measure_uV(&voltage, &voltageSD, 3);
 628:main.c        **** 		ADC_Measure_uV(&voltage, &voltageSD, sampleCount);
 629:main.c        **** 		TIA_Offsets_uV[i] = -voltage;
 630:main.c        **** 		sprintf(TransmitBuffer, "# Offset %e Ohm: %li uV\r\n", TIA_Resistor_Values[i], -voltage);
 631:main.c        **** 		USBUARTH_Send(TransmitBuffer, strlen(TransmitBuffer));
 632:main.c        **** 		UART_1_PutString(TransmitBuffer);
 633:main.c        **** 	}
 634:main.c        **** 	
 635:main.c        **** 	// Reset TIA Resistor
 636:main.c        **** 	TIA_Set_Resistor(current_range_resistor);
 637:main.c        **** 	
 638:main.c        **** 	sprintf(TransmitBuffer, "# Calibrated ADC Offsets\r\n");
 639:main.c        **** 	USBUARTH_Send(TransmitBuffer, strlen(TransmitBuffer));
 640:main.c        **** 	UART_1_PutString(TransmitBuffer);
 641:main.c        **** }
 642:main.c        **** 
 643:main.c        **** // Take a measurement of the system (Id - from delta-sigma ADC, Vgs, Vds, SAR1 ADC, SAR2 ADC)
 644:main.c        **** void Measure(uint32 deltaSigmaSampleCount, uint32 SAR1_SampleCount, uint32 SAR2_SampleCount) {
 645:main.c        **** 	int32 ADC_Voltage = 0;
 646:main.c        **** 	int32 ADC_Voltage_SD = 0;
 647:main.c        **** 	
 648:main.c        **** 	ADC_Measure_uV(&ADC_Voltage, &ADC_Voltage_SD, deltaSigmaSampleCount);
 649:main.c        **** 	
 650:main.c        **** 	float TIA_Feedback_R = TIA_Resistor_Values[TIA_Selected_Resistor];
 651:main.c        **** 	int32 TIA_Offset_uV = TIA_Offsets_uV[TIA_Selected_Resistor];
 652:main.c        **** 	float unitConversion = -1.0e-6/TIA_Feedback_R;
ARM GAS  C:\Users\FRANKL~1\AppData\Local\Temp\ccba5qpo.s 			page 15


 653:main.c        **** 	
 654:main.c        **** 	float IdsAverageAmps = unitConversion * (ADC_Voltage + TIA_Offset_uV);
 655:main.c        **** 	
 656:main.c        **** 	//ADC_SAR_1_StartConvert();
 657:main.c        **** 	//ADC_SAR_2_StartConvert();
 658:main.c        **** 	//while (!ADC_SAR_1_IsEndConversion(ADC_SAR_1_RETURN_STATUS));
 659:main.c        **** 	//while (!ADC_SAR_2_IsEndConversion(ADC_SAR_2_RETURN_STATUS));
 660:main.c        **** 	//float SAR1 = ADC_SAR_1_CountsTo_Volts(ADC_SAR_1_GetResult16());
 661:main.c        **** 	//float SAR2 = ADC_SAR_2_CountsTo_Volts(ADC_SAR_2_GetResult16());
 662:main.c        **** 	
 663:main.c        **** 	int32 SAR1_Average = 0;
 664:main.c        **** 	int32 SAR1_SD = 0;
 665:main.c        **** 	int32 SAR2_Average = 0;
 666:main.c        **** 	int32 SAR2_SD = 0;
 667:main.c        **** 
 668:main.c        **** 	SAR1_Measure_V(&SAR1_Average, &SAR1_SD, SAR1_SampleCount);
 669:main.c        **** 	SAR2_Measure_V(&SAR2_Average, &SAR2_SD, SAR2_SampleCount);
 670:main.c        **** 
 671:main.c        **** 	float SAR1 = 1e-6*SAR1_Average;
 672:main.c        **** 	float SAR2 = 1e-6*SAR2_Average;
 673:main.c        **** 
 674:main.c        **** 	sprintf(TransmitBuffer, "[%e,%f,%f,%f,%u]\r\n", IdsAverageAmps, Get_Vgs(), Get_Vds(), SAR1, VDAC_R
 675:main.c        **** 	USBUARTH_Send(TransmitBuffer, strlen(TransmitBuffer));
 676:main.c        **** 	UART_1_PutString(TransmitBuffer);
 677:main.c        **** }
 678:main.c        **** 
 679:main.c        **** // Repeatedly take measurements of the system
 680:main.c        **** void Measure_Multiple(uint32 n) {
 681:main.c        **** 	for (uint32 i = 0; i < n; i++) {
 682:main.c        **** 		Measure(100, 1, 10);
 683:main.c        **** 	}
 684:main.c        **** }
 685:main.c        **** 
 686:main.c        **** // Take a basic gate sweep (hardcoded voltages, hardcoded number of data points)
 687:main.c        **** void Measure_Sweep() {
 688:main.c        **** 	VDAC_Vds_SetValue(90);
 689:main.c        **** 	VDAC_Vgs_SetValue(254);
 690:main.c        **** 	
 691:main.c        **** 	for (uint16 Vgsi = 0; Vgsi < 256; Vgsi++) {
 692:main.c        **** 		VDAC_Vgs_SetValue(Vgsi);
 693:main.c        **** 		Measure(100, 1, 1);
 694:main.c        **** 	}
 695:main.c        **** }
 696:main.c        **** 
 697:main.c        **** void Measure_Gate_Sweep(uint8 loop) {
 698:main.c        **** 	
 699:main.c        **** 	if (Vds_Index_Goal_Relative > 0) {
 700:main.c        **** 		Set_Ref_Raw(254 - Vds_Index_Goal_Relative);
 701:main.c        **** 	} else {
 702:main.c        **** 		Set_Ref_Raw(254);
 703:main.c        **** 	}
 704:main.c        **** 	
 705:main.c        **** 	int8 speed = 16;
 706:main.c        **** 	
 707:main.c        **** 	for (uint8 l = 0; l <= loop; l++) {
 708:main.c        **** 		int8 direction = 1*speed;
 709:main.c        **** 		uint8 istart = 0;
ARM GAS  C:\Users\FRANKL~1\AppData\Local\Temp\ccba5qpo.s 			page 16


 710:main.c        **** 		if (Vds_Index_Goal_Relative < 0) {
 711:main.c        **** 			istart = -Vds_Index_Goal_Relative;
 712:main.c        **** 		}
 713:main.c        **** 		
 714:main.c        **** 		uint8 istop = 256-speed;
 715:main.c        **** 		
 716:main.c        **** 		if (l%2 == 1) {
 717:main.c        **** 			direction = -1*speed;
 718:main.c        **** 			istart = 256-speed;
 719:main.c        **** 			istop = 0;
 720:main.c        **** 		}
 721:main.c        **** 		
 722:main.c        **** 		for (uint8 i = istart; i != istop; i += direction) {
 723:main.c        **** 			for (uint8 j = 0; j <= 1; j++) {
 724:main.c        **** 				if (j == 1) Set_Ref_Raw(254 - i + 1);
 725:main.c        **** 				Set_Vgs_Raw(i);
 726:main.c        **** 				
 727:main.c        **** 				Measure(33, 1, 1);
 728:main.c        **** 				
 729:main.c        **** 				if (G_Stop) break;
 730:main.c        **** 				while (G_Pause);
 731:main.c        **** 			}
 732:main.c        **** 		}
 733:main.c        **** 	}
 734:main.c        **** }
 735:main.c        **** 
 736:main.c        **** void Measure_Wide_Gate_Sweep(uint8 loop) {
 737:main.c        **** 	Set_Ref_Raw(254);
 738:main.c        **** 	
 739:main.c        **** 	int8 speed = 16;
 740:main.c        **** 	
 741:main.c        **** 	for (uint8 l = 0; l <= loop; l++) {
 742:main.c        **** 		int8 direction = 1*speed;
 743:main.c        **** 		uint8 istart = 0;
 744:main.c        **** 		uint8 istop = 256-speed;
 745:main.c        **** 		
 746:main.c        **** 		if (l%2 == 1) {
 747:main.c        **** 			direction = -1*speed;
 748:main.c        **** 			istart = 256-speed;
 749:main.c        **** 			istop = 0;
 750:main.c        **** 		}
 751:main.c        **** 		
 752:main.c        **** 		for (uint8 i = istart; i != istop; i += direction) {
 753:main.c        **** 			for (uint8 j = 0; j <= 1; j++) {
 754:main.c        **** 				
 755:main.c        **** 				if (j == 1) Set_Ref_Raw(254 - i + 1);
 756:main.c        **** 				Set_Vgs_Raw(i);
 757:main.c        **** 				
 758:main.c        **** 				Measure(33, 1, 1);
 759:main.c        **** 				
 760:main.c        **** 				if (G_Stop) break;
 761:main.c        **** 				while (G_Pause);
 762:main.c        **** 			}
 763:main.c        **** 		}
 764:main.c        **** 	}
 765:main.c        **** }
 766:main.c        **** 
ARM GAS  C:\Users\FRANKL~1\AppData\Local\Temp\ccba5qpo.s 			page 17


 767:main.c        **** void Measure_Gate_Sweep_New() {
 768:main.c        **** 	uint8 refTurn = 1;
 769:main.c        **** 	int8 refIncrement = 1;
 770:main.c        **** 	uint8 startRefIndex = 0;
 771:main.c        **** 	uint8 endRefIndex = 0;
 772:main.c        **** 	uint8 refIndex = startRefIndex;
 773:main.c        **** 	uint8 refArrived = 0;
 774:main.c        **** 	
 775:main.c        **** 	int8 gateIncrement = 1;
 776:main.c        **** 	uint8 startGateIndex = 0;
 777:main.c        **** 	uint8 endGateIndex = 0;
 778:main.c        **** 	uint8 gateIndex = startGateIndex;
 779:main.c        **** 	uint8 gateArrived = 0;
 780:main.c        **** 	
 781:main.c        **** 	
 782:main.c        **** 	while (!gateArrived || !refArrived) {
 783:main.c        **** 		gateArrived = abs(gateIndex-endGateIndex) < abs(gateIncrement);
 784:main.c        **** 		refArrived = abs(refIndex-endRefIndex) < abs(refIncrement);
 785:main.c        **** 		
 786:main.c        **** 		refTurn = !refTurn;
 787:main.c        **** 		
 788:main.c        **** 		if (refTurn && refArrived) continue;
 789:main.c        **** 		if (!refTurn && gateArrived) continue;
 790:main.c        **** 		
 791:main.c        **** 		Set_Ref_Raw(refIndex);
 792:main.c        **** 		Set_Vgs_Raw(gateIndex);
 793:main.c        **** 		
 794:main.c        **** 		Measure(100, 1, 1);
 795:main.c        **** 		
 796:main.c        **** 		if (refTurn) {
 797:main.c        **** 			refIndex += refIncrement;
 798:main.c        **** 		} else {
 799:main.c        **** 			gateIndex += gateIncrement;
 800:main.c        **** 		}
 801:main.c        **** 		
 802:main.c        **** 		if (G_Stop) break;
 803:main.c        **** 		while (G_Pause);
 804:main.c        **** 	}
 805:main.c        **** }
 806:main.c        **** 
 807:main.c        **** void Scan(uint8 wide, uint8 loop) {
 808:main.c        **** 	for (uint8 device = 1; device <= CONTACT_COUNT/**//2; device++) {
 809:main.c        **** 		uint8 contact1 = device;
 810:main.c        **** 		uint8 contact2 = device + 1;
 811:main.c        **** 		uint8 intermediate1 = 1;
 812:main.c        **** 		uint8 intermediate2 = 2;
 813:main.c        **** 		
 814:main.c        **** 		Disconnect_All_Contacts_From_All_Intermediates();
 815:main.c        **** 		Zero_All_DACs();
 816:main.c        **** 		Connect_Intermediates();
 817:main.c        **** 		Connect_Contact_To_Intermediate(contact1, intermediate1);
 818:main.c        **** 		Connect_Contact_To_Intermediate(contact2, intermediate2);
 819:main.c        **** 		
 820:main.c        **** 		sprintf(TransmitBuffer, "\r\n%u\r\n", device);
 821:main.c        **** 		USBUARTH_Send(TransmitBuffer, strlen(TransmitBuffer));
 822:main.c        **** 		UART_1_PutString(TransmitBuffer);
 823:main.c        **** 		
ARM GAS  C:\Users\FRANKL~1\AppData\Local\Temp\ccba5qpo.s 			page 18


 824:main.c        **** 		if (wide) {
 825:main.c        **** 			Measure_Wide_Gate_Sweep(loop);
 826:main.c        **** 		} else {
 827:main.c        **** 			Measure_Gate_Sweep(loop);
 828:main.c        **** 		}
 829:main.c        **** 		
 830:main.c        **** 		if (G_Break || G_Stop) break;
 831:main.c        **** 		while (G_Pause);
 832:main.c        **** 	}
 833:main.c        **** }
 834:main.c        **** 
 835:main.c        **** void Scan_Range(uint8 startDevice, uint8 stopDevice, uint8 wide, uint8 loop) {
 836:main.c        **** 	if (startDevice >= CONTACT_COUNT) return;
 837:main.c        **** 	if (stopDevice >= CONTACT_COUNT) return;
 838:main.c        **** 	
 839:main.c        **** 	for (uint8 device = startDevice; device <= stopDevice; device++) {
 840:main.c        **** 		uint8 contact1 = device;
 841:main.c        **** 		uint8 contact2 = device + 1;
 842:main.c        **** 		uint8 intermediate1 = 1;
 843:main.c        **** 		uint8 intermediate2 = 2;
 844:main.c        **** 		
 845:main.c        **** 		Disconnect_All_Contacts_From_All_Intermediates();
 846:main.c        **** 		Zero_All_DACs();
 847:main.c        **** 		Connect_Intermediates();
 848:main.c        **** 		Connect_Contact_To_Intermediate(contact1, intermediate1);
 849:main.c        **** 		Connect_Contact_To_Intermediate(contact2, intermediate2);
 850:main.c        **** 		
 851:main.c        **** 		sprintf(TransmitBuffer, "\r\n%u\r\n", device);
 852:main.c        **** 		USBUARTH_Send(TransmitBuffer, strlen(TransmitBuffer));
 853:main.c        **** 		UART_1_PutString(TransmitBuffer);
 854:main.c        **** 		
 855:main.c        **** 		if (wide) {
 856:main.c        **** 			Measure_Wide_Gate_Sweep(loop);
 857:main.c        **** 		} else {
 858:main.c        **** 			Measure_Gate_Sweep(loop);
 859:main.c        **** 		}
 860:main.c        **** 		
 861:main.c        **** 		if (G_Break || G_Stop) break;
 862:main.c        **** 		while (G_Pause);
 863:main.c        **** 	}
 864:main.c        **** }
 865:main.c        **** 
 866:main.c        **** CY_ISR (CommunicationHandlerISR) {
 109              		.loc 2 866 0
 110              		.cfi_startproc
 111              		@ args = 0, pretend = 0, frame = 64
 112              		@ frame_needed = 0, uses_anonymous_args = 0
 113 0000 30B5     		push	{r4, r5, lr}
 114              		.cfi_def_cfa_offset 12
 115              		.cfi_offset 4, -12
 116              		.cfi_offset 5, -8
 117              		.cfi_offset 14, -4
 118 0002 91B0     		sub	sp, sp, #68
 119              		.cfi_def_cfa_offset 80
 867:main.c        **** 	if (USBUARTH_DataIsReady()) {
 120              		.loc 2 867 0
 121 0004 FFF7FEFF 		bl	USBUARTH_DataIsReady
ARM GAS  C:\Users\FRANKL~1\AppData\Local\Temp\ccba5qpo.s 			page 19


 122              	.LVL8:
 123 0008 0028     		cmp	r0, #0
 124 000a 37D0     		beq	.L10
 125              	.LBB2:
 868:main.c        **** 		// USBUARTH_Receive_Until(UART_Receive_Buffer, USBUART_BUFFER_SIZE, "\r");
 869:main.c        **** 		
 870:main.c        **** 		char temp_buffer[USBUART_BUFFER_SIZE];
 871:main.c        **** 		uint8 temp_count = USBUART_GetAll((uint8*) temp_buffer);
 126              		.loc 2 871 0
 127 000c 6846     		mov	r0, sp
 128 000e FFF7FEFF 		bl	USBUART_GetAll
 129              	.LVL9:
 130 0012 C0B2     		uxtb	r0, r0
 131              	.LVL10:
 132              	.LBB3:
 872:main.c        **** 		
 873:main.c        **** 		for (uint8 i = 0; i < temp_count; i++) {
 133              		.loc 2 873 0
 134 0014 0023     		movs	r3, #0
 135 0016 2EE0     		b	.L11
 136              	.LVL11:
 137              	.L17:
 138              	.LBB4:
 874:main.c        **** 			char c = temp_buffer[i];
 139              		.loc 2 874 0
 140 0018 10AA     		add	r2, sp, #64
 141 001a 1A44     		add	r2, r2, r3
 142 001c 12F8402C 		ldrb	r2, [r2, #-64]	@ zero_extendqisi2
 143              	.LVL12:
 875:main.c        **** 			
 876:main.c        **** 			USBUART_Receive_Buffer[USBUART_Rx_Position] = c;
 144              		.loc 2 876 0
 145 0020 5949     		ldr	r1, .L31
 146 0022 0978     		ldrb	r1, [r1]	@ zero_extendqisi2
 147 0024 C9B2     		uxtb	r1, r1
 148 0026 594C     		ldr	r4, .L31+4
 149 0028 6254     		strb	r2, [r4, r1]
 877:main.c        **** 			
 878:main.c        **** 			// sprintf(TransmitBuffer, "USB: %c\r\n", USBUART_Receive_Buffer[USBUART_Rx_Position]);
 879:main.c        **** 			// UART_1_PutString(TransmitBuffer);
 880:main.c        **** 			
 881:main.c        **** 			if (c == '\r' || c == '\n' || c == '!') {
 150              		.loc 2 881 0
 151 002a 0D2A     		cmp	r2, #13
 152 002c 03D0     		beq	.L12
 153              		.loc 2 881 0 is_stmt 0 discriminator 1
 154 002e 0A2A     		cmp	r2, #10
 155 0030 01D0     		beq	.L12
 156              		.loc 2 881 0 discriminator 2
 157 0032 212A     		cmp	r2, #33
 158 0034 10D1     		bne	.L13
 159              	.L12:
 882:main.c        **** 				USBUART_Receive_Buffer[USBUART_Rx_Position] = 0;
 160              		.loc 2 882 0 is_stmt 1
 161 0036 5449     		ldr	r1, .L31
 162 0038 0A78     		ldrb	r2, [r1]	@ zero_extendqisi2
 163              	.LVL13:
ARM GAS  C:\Users\FRANKL~1\AppData\Local\Temp\ccba5qpo.s 			page 20


 164 003a D2B2     		uxtb	r2, r2
 165 003c 0025     		movs	r5, #0
 166 003e 534C     		ldr	r4, .L31+4
 167 0040 A554     		strb	r5, [r4, r2]
 883:main.c        **** 				if (USBUART_Rx_Position) newData = 1;
 168              		.loc 2 883 0
 169 0042 0A78     		ldrb	r2, [r1]	@ zero_extendqisi2
 170 0044 12F0FF0F 		tst	r2, #255
 171 0048 02D0     		beq	.L14
 172              		.loc 2 883 0 is_stmt 0 discriminator 1
 173 004a 0121     		movs	r1, #1
 174 004c 504A     		ldr	r2, .L31+8
 175 004e 1170     		strb	r1, [r2]
 176              	.L14:
 884:main.c        **** 				USBUART_Rx_Position = 0;
 177              		.loc 2 884 0 is_stmt 1
 178 0050 0021     		movs	r1, #0
 179 0052 4D4A     		ldr	r2, .L31
 180 0054 1170     		strb	r1, [r2]
 181 0056 04E0     		b	.L15
 182              	.LVL14:
 183              	.L13:
 885:main.c        **** 			} else {
 886:main.c        **** 				USBUART_Rx_Position++;
 184              		.loc 2 886 0
 185 0058 4B49     		ldr	r1, .L31
 186 005a 0A78     		ldrb	r2, [r1]	@ zero_extendqisi2
 187              	.LVL15:
 188 005c 0132     		adds	r2, r2, #1
 189 005e D2B2     		uxtb	r2, r2
 190 0060 0A70     		strb	r2, [r1]
 191              	.L15:
 887:main.c        **** 			}
 888:main.c        **** 			
 889:main.c        **** 			if (USBUART_Rx_Position >= USBUART_BUFFER_SIZE) USBUART_Rx_Position = 0;
 192              		.loc 2 889 0
 193 0062 494A     		ldr	r2, .L31
 194 0064 1278     		ldrb	r2, [r2]	@ zero_extendqisi2
 195 0066 D2B2     		uxtb	r2, r2
 196 0068 3F2A     		cmp	r2, #63
 197 006a 02D9     		bls	.L16
 198              		.loc 2 889 0 is_stmt 0 discriminator 1
 199 006c 0021     		movs	r1, #0
 200 006e 464A     		ldr	r2, .L31
 201 0070 1170     		strb	r1, [r2]
 202              	.L16:
 203              	.LBE4:
 873:main.c        **** 			char c = temp_buffer[i];
 204              		.loc 2 873 0 is_stmt 1 discriminator 2
 205 0072 0133     		adds	r3, r3, #1
 206              	.LVL16:
 207 0074 DBB2     		uxtb	r3, r3
 208              	.LVL17:
 209              	.L11:
 873:main.c        **** 			char c = temp_buffer[i];
 210              		.loc 2 873 0 is_stmt 0 discriminator 1
 211 0076 8342     		cmp	r3, r0
ARM GAS  C:\Users\FRANKL~1\AppData\Local\Temp\ccba5qpo.s 			page 21


 212 0078 CED3     		bcc	.L17
 213 007a 3AE0     		b	.L18
 214              	.LVL18:
 215              	.L10:
 216              	.LBE3:
 217              	.LBE2:
 890:main.c        **** 		}
 891:main.c        **** 	} else
 892:main.c        **** 	if (UART_1_GetRxBufferSize()) {
 218              		.loc 2 892 0 is_stmt 1
 219 007c FFF7FEFF 		bl	UART_1_GetRxBufferSize
 220              	.LVL19:
 221 0080 0028     		cmp	r0, #0
 222 0082 36D0     		beq	.L18
 893:main.c        **** 		UART_Receive_Buffer[UART_Rx_Position] = UART_1_GetChar();
 223              		.loc 2 893 0
 224 0084 434D     		ldr	r5, .L31+12
 225 0086 2C78     		ldrb	r4, [r5]	@ zero_extendqisi2
 226 0088 E4B2     		uxtb	r4, r4
 227 008a FFF7FEFF 		bl	UART_1_GetChar
 228              	.LVL20:
 229 008e 424A     		ldr	r2, .L31+16
 230 0090 1055     		strb	r0, [r2, r4]
 894:main.c        **** 		
 895:main.c        **** 		if (UART_Receive_Buffer[UART_Rx_Position] == '\r' || UART_Receive_Buffer[UART_Rx_Position] == '\n
 231              		.loc 2 895 0
 232 0092 2B78     		ldrb	r3, [r5]	@ zero_extendqisi2
 233 0094 DBB2     		uxtb	r3, r3
 234 0096 D35C     		ldrb	r3, [r2, r3]	@ zero_extendqisi2
 235 0098 DBB2     		uxtb	r3, r3
 236 009a 0D2B     		cmp	r3, #13
 237 009c 0BD0     		beq	.L19
 238              		.loc 2 895 0 is_stmt 0 discriminator 1
 239 009e 2B78     		ldrb	r3, [r5]	@ zero_extendqisi2
 240 00a0 DBB2     		uxtb	r3, r3
 241 00a2 D35C     		ldrb	r3, [r2, r3]	@ zero_extendqisi2
 242 00a4 DBB2     		uxtb	r3, r3
 243 00a6 0A2B     		cmp	r3, #10
 244 00a8 05D0     		beq	.L19
 245              		.loc 2 895 0 discriminator 2
 246 00aa 2B78     		ldrb	r3, [r5]	@ zero_extendqisi2
 247 00ac DBB2     		uxtb	r3, r3
 248 00ae D35C     		ldrb	r3, [r2, r3]	@ zero_extendqisi2
 249 00b0 DBB2     		uxtb	r3, r3
 250 00b2 212B     		cmp	r3, #33
 251 00b4 10D1     		bne	.L20
 252              	.L19:
 896:main.c        **** 			UART_Receive_Buffer[UART_Rx_Position] = 0;
 253              		.loc 2 896 0 is_stmt 1
 254 00b6 374A     		ldr	r2, .L31+12
 255 00b8 1378     		ldrb	r3, [r2]	@ zero_extendqisi2
 256 00ba DBB2     		uxtb	r3, r3
 257 00bc 0020     		movs	r0, #0
 258 00be 3649     		ldr	r1, .L31+16
 259 00c0 C854     		strb	r0, [r1, r3]
 897:main.c        **** 			if (UART_Rx_Position) newData = 2;
 260              		.loc 2 897 0
ARM GAS  C:\Users\FRANKL~1\AppData\Local\Temp\ccba5qpo.s 			page 22


 261 00c2 1378     		ldrb	r3, [r2]	@ zero_extendqisi2
 262 00c4 13F0FF0F 		tst	r3, #255
 263 00c8 02D0     		beq	.L21
 264              		.loc 2 897 0 is_stmt 0 discriminator 1
 265 00ca 0222     		movs	r2, #2
 266 00cc 304B     		ldr	r3, .L31+8
 267 00ce 1A70     		strb	r2, [r3]
 268              	.L21:
 898:main.c        **** 			UART_Rx_Position = 0;
 269              		.loc 2 898 0 is_stmt 1
 270 00d0 0022     		movs	r2, #0
 271 00d2 304B     		ldr	r3, .L31+12
 272 00d4 1A70     		strb	r2, [r3]
 273 00d6 04E0     		b	.L22
 274              	.L20:
 899:main.c        **** 		} else {
 900:main.c        **** 			UART_Rx_Position++;
 275              		.loc 2 900 0
 276 00d8 2E4A     		ldr	r2, .L31+12
 277 00da 1378     		ldrb	r3, [r2]	@ zero_extendqisi2
 278 00dc 0133     		adds	r3, r3, #1
 279 00de DBB2     		uxtb	r3, r3
 280 00e0 1370     		strb	r3, [r2]
 281              	.L22:
 901:main.c        **** 		}
 902:main.c        **** 		
 903:main.c        **** 		if (UART_Rx_Position >= USBUART_BUFFER_SIZE) UART_Rx_Position = 0;
 282              		.loc 2 903 0
 283 00e2 2C4B     		ldr	r3, .L31+12
 284 00e4 1B78     		ldrb	r3, [r3]	@ zero_extendqisi2
 285 00e6 DBB2     		uxtb	r3, r3
 286 00e8 3F2B     		cmp	r3, #63
 287 00ea 02D9     		bls	.L18
 288              		.loc 2 903 0 is_stmt 0 discriminator 1
 289 00ec 0022     		movs	r2, #0
 290 00ee 294B     		ldr	r3, .L31+12
 291 00f0 1A70     		strb	r2, [r3]
 292              	.L18:
 904:main.c        **** 	}
 905:main.c        **** 	
 906:main.c        **** 	if (newData) {
 293              		.loc 2 906 0 is_stmt 1
 294 00f2 274B     		ldr	r3, .L31+8
 295 00f4 1B78     		ldrb	r3, [r3]	@ zero_extendqisi2
 296 00f6 13F0FF0F 		tst	r3, #255
 297 00fa 3FD0     		beq	.L23
 298              	.LVL21:
 299              	.LBB5:
 907:main.c        **** 		char* ReceiveBuffer = &USBUART_Receive_Buffer[0];
 908:main.c        **** 		if (newData == 2) ReceiveBuffer = &UART_Receive_Buffer[0];
 300              		.loc 2 908 0
 301 00fc 244B     		ldr	r3, .L31+8
 302 00fe 1B78     		ldrb	r3, [r3]	@ zero_extendqisi2
 303 0100 DBB2     		uxtb	r3, r3
 304 0102 022B     		cmp	r3, #2
 305 0104 01D0     		beq	.L29
 907:main.c        **** 		char* ReceiveBuffer = &USBUART_Receive_Buffer[0];
ARM GAS  C:\Users\FRANKL~1\AppData\Local\Temp\ccba5qpo.s 			page 23


 306              		.loc 2 907 0
 307 0106 214C     		ldr	r4, .L31+4
 308 0108 00E0     		b	.L24
 309              	.L29:
 310              		.loc 2 908 0
 311 010a 234C     		ldr	r4, .L31+16
 312              	.L24:
 313              	.LVL22:
 909:main.c        **** 		
 910:main.c        **** 		if (strstr(ReceiveBuffer, "stop ") == &ReceiveBuffer[0]) {
 314              		.loc 2 910 0
 315 010c 2349     		ldr	r1, .L31+20
 316 010e 2046     		mov	r0, r4
 317 0110 FFF7FEFF 		bl	strstr
 318              	.LVL23:
 319 0114 8442     		cmp	r4, r0
 320 0116 05D1     		bne	.L25
 911:main.c        **** 			G_Stop = 1;
 321              		.loc 2 911 0
 322 0118 1D4B     		ldr	r3, .L31+8
 323 011a 0122     		movs	r2, #1
 324 011c 5A70     		strb	r2, [r3, #1]
 912:main.c        **** 			newData = 0;
 325              		.loc 2 912 0
 326 011e 0022     		movs	r2, #0
 327 0120 1A70     		strb	r2, [r3]
 328 0122 2BE0     		b	.L23
 329              	.L25:
 913:main.c        **** 		} else 
 914:main.c        **** 		if (strstr(ReceiveBuffer, "break ") == &ReceiveBuffer[0]) {
 330              		.loc 2 914 0
 331 0124 1E49     		ldr	r1, .L31+24
 332 0126 2046     		mov	r0, r4
 333 0128 FFF7FEFF 		bl	strstr
 334              	.LVL24:
 335 012c 8442     		cmp	r4, r0
 336 012e 05D1     		bne	.L26
 915:main.c        **** 			G_Break = 1;
 337              		.loc 2 915 0
 338 0130 174B     		ldr	r3, .L31+8
 339 0132 0122     		movs	r2, #1
 340 0134 9A70     		strb	r2, [r3, #2]
 916:main.c        **** 			newData = 0;
 341              		.loc 2 916 0
 342 0136 0022     		movs	r2, #0
 343 0138 1A70     		strb	r2, [r3]
 344 013a 1FE0     		b	.L23
 345              	.L26:
 917:main.c        **** 		} else 
 918:main.c        **** 		if (strstr(ReceiveBuffer, "pause ") == &ReceiveBuffer[0]) {
 346              		.loc 2 918 0
 347 013c 1949     		ldr	r1, .L31+28
 348 013e 2046     		mov	r0, r4
 349 0140 FFF7FEFF 		bl	strstr
 350              	.LVL25:
 351 0144 8442     		cmp	r4, r0
 352 0146 05D1     		bne	.L27
ARM GAS  C:\Users\FRANKL~1\AppData\Local\Temp\ccba5qpo.s 			page 24


 919:main.c        **** 			G_Pause = 1;
 353              		.loc 2 919 0
 354 0148 114B     		ldr	r3, .L31+8
 355 014a 0122     		movs	r2, #1
 356 014c DA70     		strb	r2, [r3, #3]
 920:main.c        **** 			newData = 0;
 357              		.loc 2 920 0
 358 014e 0022     		movs	r2, #0
 359 0150 1A70     		strb	r2, [r3]
 360 0152 13E0     		b	.L23
 361              	.L27:
 921:main.c        **** 		} else 
 922:main.c        **** 		if (strstr(ReceiveBuffer, "resume ") == &ReceiveBuffer[0]) {
 362              		.loc 2 922 0
 363 0154 1449     		ldr	r1, .L31+32
 364 0156 2046     		mov	r0, r4
 365 0158 FFF7FEFF 		bl	strstr
 366              	.LVL26:
 367 015c 8442     		cmp	r4, r0
 368 015e 04D1     		bne	.L28
 923:main.c        **** 			G_Pause = 0;
 369              		.loc 2 923 0
 370 0160 0B4B     		ldr	r3, .L31+8
 371 0162 0022     		movs	r2, #0
 372 0164 DA70     		strb	r2, [r3, #3]
 924:main.c        **** 			newData = 0;
 373              		.loc 2 924 0
 374 0166 1A70     		strb	r2, [r3]
 375 0168 08E0     		b	.L23
 376              	.L28:
 925:main.c        **** 		} else 
 926:main.c        **** 		if (strstr(ReceiveBuffer, "tristate ") == &ReceiveBuffer[0]) {
 377              		.loc 2 926 0
 378 016a 1049     		ldr	r1, .L31+36
 379 016c 2046     		mov	r0, r4
 380 016e FFF7FEFF 		bl	strstr
 381              	.LVL27:
 382 0172 8442     		cmp	r4, r0
 383 0174 02D1     		bne	.L23
 927:main.c        **** 			// To do
 928:main.c        **** 			newData = 0;
 384              		.loc 2 928 0
 385 0176 0022     		movs	r2, #0
 386 0178 054B     		ldr	r3, .L31+8
 387 017a 1A70     		strb	r2, [r3]
 388              	.LVL28:
 389              	.L23:
 390              	.LBE5:
 929:main.c        **** 		}
 930:main.c        **** 	}
 931:main.c        **** 	
 932:main.c        **** 	CommunicationInterrupt_ClearPending();
 391              		.loc 2 932 0
 392 017c FFF7FEFF 		bl	CommunicationInterrupt_ClearPending
 393              	.LVL29:
 933:main.c        **** 	CommunicationTimer_ReadStatusRegister();
 394              		.loc 2 933 0
ARM GAS  C:\Users\FRANKL~1\AppData\Local\Temp\ccba5qpo.s 			page 25


 395 0180 FFF7FEFF 		bl	CommunicationTimer_ReadStatusRegister
 396              	.LVL30:
 934:main.c        **** }
 397              		.loc 2 934 0
 398 0184 11B0     		add	sp, sp, #68
 399              		.cfi_def_cfa_offset 12
 400              		@ sp needed
 401 0186 30BD     		pop	{r4, r5, pc}
 402              	.L32:
 403              		.align	2
 404              	.L31:
 405 0188 00000000 		.word	USBUART_Rx_Position
 406 018c 00000000 		.word	USBUART_Receive_Buffer
 407 0190 00000000 		.word	.LANCHOR0
 408 0194 00000000 		.word	UART_Rx_Position
 409 0198 00000000 		.word	UART_Receive_Buffer
 410 019c 00000000 		.word	.LC0
 411 01a0 08000000 		.word	.LC1
 412 01a4 10000000 		.word	.LC2
 413 01a8 18000000 		.word	.LC3
 414 01ac 20000000 		.word	.LC4
 415              		.cfi_endproc
 416              	.LFE112:
 417              		.size	CommunicationHandlerISR, .-CommunicationHandlerISR
 418              		.section	.text.USBUARTH_Send,"ax",%progbits
 419              		.align	2
 420              		.global	USBUARTH_Send
 421              		.thumb
 422              		.thumb_func
 423              		.type	USBUARTH_Send, %function
 424              	USBUARTH_Send:
 425              	.LFB66:
  39:USBUART_Helpers.h **** 
  40:USBUART_Helpers.h **** 
  41:USBUART_Helpers.h **** uint8 USBUARTH_Send(char* buffer, uint16 count) {
 426              		.loc 1 41 0
 427              		.cfi_startproc
 428              		@ args = 0, pretend = 0, frame = 0
 429              		@ frame_needed = 0, uses_anonymous_args = 0
 430              	.LVL31:
  42:USBUART_Helpers.h **** 	if (count > 0) {
 431              		.loc 1 42 0
 432 0000 49B9     		cbnz	r1, .L39
  43:USBUART_Helpers.h **** 		// Wait until component is ready to send data to host.
  44:USBUART_Helpers.h **** 		for (uint32 tries = 0; tries < 10; tries++) {
  45:USBUART_Helpers.h **** 			USBUARTH_Maintain_Configuration();
  46:USBUART_Helpers.h **** 			if (USBUART_CDCIsReady()) break;
  47:USBUART_Helpers.h **** 		}
  48:USBUART_Helpers.h ****         
  49:USBUART_Helpers.h **** 		if (!USBUART_CDCIsReady()) return 0;
  50:USBUART_Helpers.h **** 		
  51:USBUART_Helpers.h **** 		// Send data to host
  52:USBUART_Helpers.h **** 		USBUART_PutData((uint8*) buffer, count);
  53:USBUART_Helpers.h **** 		
  54:USBUART_Helpers.h **** 		/* If the last sent packet is exactly the maximum packet 
  55:USBUART_Helpers.h **** 		*  size, it is followed by a zero-length packet to assure
  56:USBUART_Helpers.h **** 		*  that the end of the segment is properly identified by 
ARM GAS  C:\Users\FRANKL~1\AppData\Local\Temp\ccba5qpo.s 			page 26


  57:USBUART_Helpers.h **** 		*  the terminal.
  58:USBUART_Helpers.h **** 		*/
  59:USBUART_Helpers.h **** 		if (USBUART_BUFFER_SIZE == count) {
  60:USBUART_Helpers.h **** 			// Wait until component is ready to send data to PC.
  61:USBUART_Helpers.h **** 			while (!USBUART_CDCIsReady());
  62:USBUART_Helpers.h ****             
  63:USBUART_Helpers.h **** 			// Send zero-length packet to PC.
  64:USBUART_Helpers.h **** 			USBUART_PutData(NULL, 0);
  65:USBUART_Helpers.h **** 		}
  66:USBUART_Helpers.h **** 	}
  67:USBUART_Helpers.h **** 	
  68:USBUART_Helpers.h **** 	return 1;
 433              		.loc 1 68 0
 434 0002 0123     		movs	r3, #1
  69:USBUART_Helpers.h **** }
 435              		.loc 1 69 0
 436 0004 1846     		mov	r0, r3
 437              	.LVL32:
 438 0006 7047     		bx	lr
 439              	.LVL33:
 440              	.L37:
 441              		.cfi_def_cfa_offset 16
 442              		.cfi_offset 4, -16
 443              		.cfi_offset 5, -12
 444              		.cfi_offset 6, -8
 445              		.cfi_offset 14, -4
 446              	.LBB6:
  45:USBUART_Helpers.h **** 			if (USBUART_CDCIsReady()) break;
 447              		.loc 1 45 0
 448 0008 FFF7FEFF 		bl	USBUARTH_Maintain_Configuration
 449              	.LVL34:
  46:USBUART_Helpers.h **** 		}
 450              		.loc 1 46 0
 451 000c FFF7FEFF 		bl	USBUART_CDCIsReady
 452              	.LVL35:
 453 0010 38B9     		cbnz	r0, .L36
  44:USBUART_Helpers.h **** 			USBUARTH_Maintain_Configuration();
 454              		.loc 1 44 0 discriminator 2
 455 0012 0134     		adds	r4, r4, #1
 456              	.LVL36:
 457 0014 03E0     		b	.L34
 458              	.LVL37:
 459              	.L39:
 460              		.cfi_def_cfa_offset 0
 461              		.cfi_restore 4
 462              		.cfi_restore 5
 463              		.cfi_restore 6
 464              		.cfi_restore 14
 465              	.LBE6:
  41:USBUART_Helpers.h **** 	if (count > 0) {
 466              		.loc 1 41 0
 467 0016 70B5     		push	{r4, r5, r6, lr}
 468              		.cfi_def_cfa_offset 16
 469              		.cfi_offset 4, -16
 470              		.cfi_offset 5, -12
 471              		.cfi_offset 6, -8
 472              		.cfi_offset 14, -4
ARM GAS  C:\Users\FRANKL~1\AppData\Local\Temp\ccba5qpo.s 			page 27


 473 0018 0D46     		mov	r5, r1
 474 001a 0646     		mov	r6, r0
 475 001c 0024     		movs	r4, #0
 476              	.LVL38:
 477              	.L34:
 478              	.LBB7:
  44:USBUART_Helpers.h **** 			USBUARTH_Maintain_Configuration();
 479              		.loc 1 44 0 discriminator 1
 480 001e 092C     		cmp	r4, #9
 481 0020 F2D9     		bls	.L37
 482              	.L36:
 483              	.LBE7:
  49:USBUART_Helpers.h **** 		
 484              		.loc 1 49 0
 485 0022 FFF7FEFF 		bl	USBUART_CDCIsReady
 486              	.LVL39:
 487 0026 0346     		mov	r3, r0
 488 0028 80B1     		cbz	r0, .L35
  52:USBUART_Helpers.h **** 		
 489              		.loc 1 52 0
 490 002a 2946     		mov	r1, r5
 491 002c 3046     		mov	r0, r6
 492 002e FFF7FEFF 		bl	USBUART_PutData
 493              	.LVL40:
  59:USBUART_Helpers.h **** 			// Wait until component is ready to send data to PC.
 494              		.loc 1 59 0
 495 0032 402D     		cmp	r5, #64
 496 0034 09D1     		bne	.L40
 497              	.L38:
  61:USBUART_Helpers.h ****             
 498              		.loc 1 61 0 discriminator 1
 499 0036 FFF7FEFF 		bl	USBUART_CDCIsReady
 500              	.LVL41:
 501 003a 0028     		cmp	r0, #0
 502 003c FBD0     		beq	.L38
  64:USBUART_Helpers.h **** 		}
 503              		.loc 1 64 0
 504 003e 0021     		movs	r1, #0
 505 0040 0846     		mov	r0, r1
 506 0042 FFF7FEFF 		bl	USBUART_PutData
 507              	.LVL42:
  68:USBUART_Helpers.h **** }
 508              		.loc 1 68 0
 509 0046 0123     		movs	r3, #1
 510 0048 00E0     		b	.L35
 511              	.L40:
 512 004a 0123     		movs	r3, #1
 513              	.L35:
 514              		.loc 1 69 0
 515 004c 1846     		mov	r0, r3
 516 004e 70BD     		pop	{r4, r5, r6, pc}
 517              		.cfi_endproc
 518              	.LFE66:
 519              		.size	USBUARTH_Send, .-USBUARTH_Send
 520              		.section	.text.USBUARTH_Receive,"ax",%progbits
 521              		.align	2
 522              		.global	USBUARTH_Receive
ARM GAS  C:\Users\FRANKL~1\AppData\Local\Temp\ccba5qpo.s 			page 28


 523              		.thumb
 524              		.thumb_func
 525              		.type	USBUARTH_Receive, %function
 526              	USBUARTH_Receive:
 527              	.LFB67:
  70:USBUART_Helpers.h **** 
  71:USBUART_Helpers.h **** uint8 USBUARTH_Receive(char* buffer, uint16* count) {
 528              		.loc 1 71 0
 529              		.cfi_startproc
 530              		@ args = 0, pretend = 0, frame = 0
 531              		@ frame_needed = 0, uses_anonymous_args = 0
 532              	.LVL43:
 533 0000 38B5     		push	{r3, r4, r5, lr}
 534              		.cfi_def_cfa_offset 16
 535              		.cfi_offset 3, -16
 536              		.cfi_offset 4, -12
 537              		.cfi_offset 5, -8
 538              		.cfi_offset 14, -4
 539 0002 0446     		mov	r4, r0
 540 0004 0D46     		mov	r5, r1
  72:USBUART_Helpers.h **** 	// Wait for input data from host
  73:USBUART_Helpers.h **** 	while (!USBUART_DataIsReady()) USBUARTH_Maintain_Configuration();
 541              		.loc 1 73 0
 542 0006 01E0     		b	.L43
 543              	.LVL44:
 544              	.L44:
 545              		.loc 1 73 0 is_stmt 0 discriminator 2
 546 0008 FFF7FEFF 		bl	USBUARTH_Maintain_Configuration
 547              	.LVL45:
 548              	.L43:
 549              		.loc 1 73 0 discriminator 1
 550 000c FFF7FEFF 		bl	USBUART_DataIsReady
 551              	.LVL46:
 552 0010 0028     		cmp	r0, #0
 553 0012 F9D0     		beq	.L44
  74:USBUART_Helpers.h **** 	
  75:USBUART_Helpers.h **** 	// Read received data and re-enable OUT endpoint.
  76:USBUART_Helpers.h **** 	*count = USBUART_GetAll((uint8*) buffer);
 554              		.loc 1 76 0 is_stmt 1
 555 0014 2046     		mov	r0, r4
 556 0016 FFF7FEFF 		bl	USBUART_GetAll
 557              	.LVL47:
 558 001a 2880     		strh	r0, [r5]	@ movhi
  77:USBUART_Helpers.h **** 	
  78:USBUART_Helpers.h **** 	buffer[*count] = 0;
 559              		.loc 1 78 0
 560 001c 0023     		movs	r3, #0
 561 001e 2354     		strb	r3, [r4, r0]
  79:USBUART_Helpers.h **** 	
  80:USBUART_Helpers.h **** 	return 1u;
  81:USBUART_Helpers.h **** }
 562              		.loc 1 81 0
 563 0020 0120     		movs	r0, #1
 564 0022 38BD     		pop	{r3, r4, r5, pc}
 565              		.cfi_endproc
 566              	.LFE67:
 567              		.size	USBUARTH_Receive, .-USBUARTH_Receive
ARM GAS  C:\Users\FRANKL~1\AppData\Local\Temp\ccba5qpo.s 			page 29


 568              		.section	.text.USBUARTH_GetChar,"ax",%progbits
 569              		.align	2
 570              		.global	USBUARTH_GetChar
 571              		.thumb
 572              		.thumb_func
 573              		.type	USBUARTH_GetChar, %function
 574              	USBUARTH_GetChar:
 575              	.LFB68:
  82:USBUART_Helpers.h **** 
  83:USBUART_Helpers.h **** char USBUARTH_GetChar() {
 576              		.loc 1 83 0
 577              		.cfi_startproc
 578              		@ args = 0, pretend = 0, frame = 0
 579              		@ frame_needed = 0, uses_anonymous_args = 0
 580 0000 08B5     		push	{r3, lr}
 581              		.cfi_def_cfa_offset 8
 582              		.cfi_offset 3, -8
 583              		.cfi_offset 14, -4
  84:USBUART_Helpers.h **** 	while (!USBUART_DataIsReady()) USBUARTH_Maintain_Configuration();
 584              		.loc 1 84 0
 585 0002 01E0     		b	.L47
 586              	.L48:
 587              		.loc 1 84 0 is_stmt 0 discriminator 2
 588 0004 FFF7FEFF 		bl	USBUARTH_Maintain_Configuration
 589              	.LVL48:
 590              	.L47:
 591              		.loc 1 84 0 discriminator 1
 592 0008 FFF7FEFF 		bl	USBUART_DataIsReady
 593              	.LVL49:
 594 000c 0028     		cmp	r0, #0
 595 000e F9D0     		beq	.L48
  85:USBUART_Helpers.h **** 	
  86:USBUART_Helpers.h **** 	return USBUART_GetChar();
 596              		.loc 1 86 0 is_stmt 1
 597 0010 FFF7FEFF 		bl	USBUART_GetChar
 598              	.LVL50:
  87:USBUART_Helpers.h **** }
 599              		.loc 1 87 0
 600 0014 08BD     		pop	{r3, pc}
 601              		.cfi_endproc
 602              	.LFE68:
 603              		.size	USBUARTH_GetChar, .-USBUARTH_GetChar
 604 0016 00BF     		.section	.text.USBUARTH_Receive_Until,"ax",%progbits
 605              		.align	2
 606              		.global	USBUARTH_Receive_Until
 607              		.thumb
 608              		.thumb_func
 609              		.type	USBUARTH_Receive_Until, %function
 610              	USBUARTH_Receive_Until:
 611              	.LFB69:
  88:USBUART_Helpers.h **** 
  89:USBUART_Helpers.h **** uint8 USBUARTH_Receive_Until(char* buffer, uint16 maxLength, const char* termination) {
 612              		.loc 1 89 0
 613              		.cfi_startproc
 614              		@ args = 0, pretend = 0, frame = 0
 615              		@ frame_needed = 0, uses_anonymous_args = 0
 616              	.LVL51:
ARM GAS  C:\Users\FRANKL~1\AppData\Local\Temp\ccba5qpo.s 			page 30


 617 0000 2DE9F041 		push	{r4, r5, r6, r7, r8, lr}
 618              		.cfi_def_cfa_offset 24
 619              		.cfi_offset 4, -24
 620              		.cfi_offset 5, -20
 621              		.cfi_offset 6, -16
 622              		.cfi_offset 7, -12
 623              		.cfi_offset 8, -8
 624              		.cfi_offset 14, -4
 625 0004 0546     		mov	r5, r0
 626 0006 0E46     		mov	r6, r1
 627 0008 1746     		mov	r7, r2
 628              	.LVL52:
 629              	.LBB8:
  90:USBUART_Helpers.h **** 	for (uint16 i = 0; i < maxLength; i++) {
 630              		.loc 1 90 0
 631 000a 0023     		movs	r3, #0
 632 000c 03E0     		b	.L51
 633              	.LVL53:
 634              	.L52:
  91:USBUART_Helpers.h **** 		buffer[i] = 0;
 635              		.loc 1 91 0 discriminator 3
 636 000e 0022     		movs	r2, #0
 637 0010 EA54     		strb	r2, [r5, r3]
  90:USBUART_Helpers.h **** 	for (uint16 i = 0; i < maxLength; i++) {
 638              		.loc 1 90 0 discriminator 3
 639 0012 0133     		adds	r3, r3, #1
 640              	.LVL54:
 641 0014 9BB2     		uxth	r3, r3
 642              	.LVL55:
 643              	.L51:
  90:USBUART_Helpers.h **** 	for (uint16 i = 0; i < maxLength; i++) {
 644              		.loc 1 90 0 is_stmt 0 discriminator 1
 645 0016 B342     		cmp	r3, r6
 646 0018 F9D3     		bcc	.L52
 647 001a 0024     		movs	r4, #0
 648 001c 16E0     		b	.L53
 649              	.LVL56:
 650              	.L56:
 651              	.LBE8:
 652              	.LBB9:
  92:USBUART_Helpers.h **** 	}
  93:USBUART_Helpers.h **** 	
  94:USBUART_Helpers.h **** 	for (uint16 i = 0; i < maxLength - 1; i++) {
  95:USBUART_Helpers.h **** 		buffer[i] = USBUARTH_GetChar();
 653              		.loc 1 95 0 is_stmt 1
 654 001e FFF7FEFF 		bl	USBUARTH_GetChar
 655              	.LVL57:
 656 0022 2855     		strb	r0, [r5, r4]
  96:USBUART_Helpers.h **** 		buffer[i+1] = 0;
 657              		.loc 1 96 0
 658 0024 631C     		adds	r3, r4, #1
 659 0026 0022     		movs	r2, #0
 660 0028 EA54     		strb	r2, [r5, r3]
  97:USBUART_Helpers.h **** 		
  98:USBUART_Helpers.h **** 		if (strstr(buffer, termination)) {
 661              		.loc 1 98 0
 662 002a 3946     		mov	r1, r7
ARM GAS  C:\Users\FRANKL~1\AppData\Local\Temp\ccba5qpo.s 			page 31


 663 002c 2846     		mov	r0, r5
 664 002e FFF7FEFF 		bl	strstr
 665              	.LVL58:
 666 0032 48B1     		cbz	r0, .L54
  99:USBUART_Helpers.h **** 			buffer[i + 1 - strlen(termination)] = 0;
 667              		.loc 1 99 0
 668 0034 3846     		mov	r0, r7
 669 0036 FFF7FEFF 		bl	strlen
 670              	.LVL59:
 671 003a 201A     		subs	r0, r4, r0
 672 003c 0130     		adds	r0, r0, #1
 673 003e 0023     		movs	r3, #0
 674 0040 2B54     		strb	r3, [r5, r0]
 100:USBUART_Helpers.h **** 			return 1;
 675              		.loc 1 100 0
 676 0042 0120     		movs	r0, #1
 677 0044 BDE8F081 		pop	{r4, r5, r6, r7, r8, pc}
 678              	.LVL60:
 679              	.L54:
  94:USBUART_Helpers.h **** 		buffer[i] = USBUARTH_GetChar();
 680              		.loc 1 94 0 discriminator 2
 681 0048 0134     		adds	r4, r4, #1
 682              	.LVL61:
 683 004a A4B2     		uxth	r4, r4
 684              	.LVL62:
 685              	.L53:
  94:USBUART_Helpers.h **** 		buffer[i] = USBUARTH_GetChar();
 686              		.loc 1 94 0 is_stmt 0 discriminator 1
 687 004c 731E     		subs	r3, r6, #1
 688 004e 9C42     		cmp	r4, r3
 689 0050 E5DB     		blt	.L56
 690              	.LBE9:
 101:USBUART_Helpers.h **** 		}
 102:USBUART_Helpers.h **** 	}
 103:USBUART_Helpers.h **** 	
 104:USBUART_Helpers.h **** 	return 0;
 691              		.loc 1 104 0 is_stmt 1
 692 0052 0020     		movs	r0, #0
 105:USBUART_Helpers.h **** }
 693              		.loc 1 105 0
 694 0054 BDE8F081 		pop	{r4, r5, r6, r7, r8, pc}
 695              		.cfi_endproc
 696              	.LFE69:
 697              		.size	USBUARTH_Receive_Until, .-USBUARTH_Receive_Until
 698              		.section	.text.Setup_Selector_I2C_Struct,"ax",%progbits
 699              		.align	2
 700              		.global	Setup_Selector_I2C_Struct
 701              		.thumb
 702              		.thumb_func
 703              		.type	Setup_Selector_I2C_Struct, %function
 704              	Setup_Selector_I2C_Struct:
 705              	.LFB70:
  56:main.c        **** 	selector->write.subAddress = 1;
 706              		.loc 2 56 0
 707              		.cfi_startproc
 708              		@ args = 0, pretend = 0, frame = 0
 709              		@ frame_needed = 0, uses_anonymous_args = 0
ARM GAS  C:\Users\FRANKL~1\AppData\Local\Temp\ccba5qpo.s 			page 32


 710              		@ link register save eliminated.
 711              	.LVL63:
  57:main.c        **** 	selector->read.subAddress = sizeof(selector->write) + 1;
 712              		.loc 2 57 0
 713 0000 0123     		movs	r3, #1
 714 0002 0370     		strb	r3, [r0]
  58:main.c        **** 	
 715              		.loc 2 58 0
 716 0004 8023     		movs	r3, #128
 717 0006 80F87F30 		strb	r3, [r0, #127]
 718              	.LVL64:
 719              	.LBB10:
  60:main.c        **** 		selector->write.data[i] = i + 6;
 720              		.loc 2 60 0
 721 000a 0023     		movs	r3, #0
 722 000c 04E0     		b	.L59
 723              	.LVL65:
 724              	.L60:
  61:main.c        **** 	}
 725              		.loc 2 61 0 discriminator 3
 726 000e C218     		adds	r2, r0, r3
 727 0010 991D     		adds	r1, r3, #6
 728 0012 5170     		strb	r1, [r2, #1]
  60:main.c        **** 		selector->write.data[i] = i + 6;
 729              		.loc 2 60 0 discriminator 3
 730 0014 0133     		adds	r3, r3, #1
 731              	.LVL66:
 732 0016 9BB2     		uxth	r3, r3
 733              	.LVL67:
 734              	.L59:
  60:main.c        **** 		selector->write.data[i] = i + 6;
 735              		.loc 2 60 0 is_stmt 0 discriminator 1
 736 0018 7D2B     		cmp	r3, #125
 737 001a F8D9     		bls	.L60
 738 001c 0023     		movs	r3, #0
 739              	.LVL68:
 740 001e 05E0     		b	.L61
 741              	.LVL69:
 742              	.L62:
 743              	.LBE10:
 744              	.LBB11:
  64:main.c        **** 	}
 745              		.loc 2 64 0 is_stmt 1 discriminator 3
 746 0020 C218     		adds	r2, r0, r3
 747 0022 BE21     		movs	r1, #190
 748 0024 82F88010 		strb	r1, [r2, #128]
  63:main.c        **** 		selector->read.data[i] = 0xbe;
 749              		.loc 2 63 0 discriminator 3
 750 0028 0133     		adds	r3, r3, #1
 751              	.LVL70:
 752 002a 9BB2     		uxth	r3, r3
 753              	.LVL71:
 754              	.L61:
  63:main.c        **** 		selector->read.data[i] = 0xbe;
 755              		.loc 2 63 0 is_stmt 0 discriminator 1
 756 002c 7D2B     		cmp	r3, #125
 757 002e F7D9     		bls	.L62
ARM GAS  C:\Users\FRANKL~1\AppData\Local\Temp\ccba5qpo.s 			page 33


 758              	.LBE11:
  66:main.c        **** 
 759              		.loc 2 66 0 is_stmt 1
 760 0030 7047     		bx	lr
 761              		.cfi_endproc
 762              	.LFE70:
 763              		.size	Setup_Selector_I2C_Struct, .-Setup_Selector_I2C_Struct
 764              		.global	__aeabi_dcmpge
 765              		.global	__aeabi_ui2d
 766              		.global	__aeabi_dcmplt
 767 0032 00BF     		.section	.text.Update_Selector,"ax",%progbits
 768              		.align	2
 769              		.global	Update_Selector
 770              		.thumb
 771              		.thumb_func
 772              		.type	Update_Selector, %function
 773              	Update_Selector:
 774              	.LFB71:
  68:main.c        **** 	sprintf(TransmitBuffer, "Updating Selector %u\r\n", selectori + 1);
 775              		.loc 2 68 0
 776              		.cfi_startproc
 777              		@ args = 0, pretend = 0, frame = 0
 778              		@ frame_needed = 0, uses_anonymous_args = 0
 779              	.LVL72:
 780 0000 2DE9F041 		push	{r4, r5, r6, r7, r8, lr}
 781              		.cfi_def_cfa_offset 24
 782              		.cfi_offset 4, -24
 783              		.cfi_offset 5, -20
 784              		.cfi_offset 6, -16
 785              		.cfi_offset 7, -12
 786              		.cfi_offset 8, -8
 787              		.cfi_offset 14, -4
 788 0004 0446     		mov	r4, r0
  69:main.c        **** 	USBUARTH_Send(TransmitBuffer, strlen(TransmitBuffer));
 789              		.loc 2 69 0
 790 0006 00F10108 		add	r8, r0, #1
 791 000a 594D     		ldr	r5, .L74+16
 792 000c 4246     		mov	r2, r8
 793 000e 5949     		ldr	r1, .L74+20
 794 0010 2846     		mov	r0, r5
 795              	.LVL73:
 796 0012 FFF7FEFF 		bl	sprintf
 797              	.LVL74:
  70:main.c        **** 	UART_1_PutString(TransmitBuffer);
 798              		.loc 2 70 0
 799 0016 2846     		mov	r0, r5
 800 0018 FFF7FEFF 		bl	strlen
 801              	.LVL75:
 802 001c 81B2     		uxth	r1, r0
 803 001e 2846     		mov	r0, r5
 804 0020 FFF7FEFF 		bl	USBUARTH_Send
 805              	.LVL76:
  71:main.c        **** 	
 806              		.loc 2 71 0
 807 0024 2846     		mov	r0, r5
 808 0026 FFF7FEFF 		bl	UART_1_PutString
 809              	.LVL77:
ARM GAS  C:\Users\FRANKL~1\AppData\Local\Temp\ccba5qpo.s 			page 34


  75:main.c        **** 	I2C_1_MasterWriteBuf(selector->busAddress, (uint8 *) &selector->write, sizeof(selector->write), I2
 810              		.loc 2 75 0
 811 002a FFF7FEFF 		bl	I2C_1_MasterClearStatus
 812              	.LVL78:
  76:main.c        **** 	for (uint32 i = 0; i < 4e5; i++) {
 813              		.loc 2 76 0
 814 002e C4EB0424 		rsb	r4, r4, r4, lsl #8
 815              	.LVL79:
 816 0032 514B     		ldr	r3, .L74+24
 817 0034 1C44     		add	r4, r4, r3
 818 0036 0023     		movs	r3, #0
 819 0038 7F22     		movs	r2, #127
 820 003a 2146     		mov	r1, r4
 821 003c 94F8FE00 		ldrb	r0, [r4, #254]	@ zero_extendqisi2
 822 0040 FFF7FEFF 		bl	I2C_1_MasterWriteBuf
 823              	.LVL80:
 824              	.LBB12:
  77:main.c        **** 		if ((I2C_1_MasterStatus() & I2C_1_MSTAT_WR_CMPLT)) break;
 825              		.loc 2 77 0
 826 0044 0024     		movs	r4, #0
 827 0046 2CE0     		b	.L64
 828              	.LVL81:
 829              	.L69:
  78:main.c        **** 		if (i >= 4e5 - 1) {
 830              		.loc 2 78 0
 831 0048 FFF7FEFF 		bl	I2C_1_MasterStatus
 832              	.LVL82:
 833 004c 10F0020F 		tst	r0, #2
 834 0050 33D1     		bne	.L65
  79:main.c        **** 			sprintf(TransmitBuffer, "I2C Transfer Error! Type: Timeout\r\n");
 835              		.loc 2 79 0
 836 0052 43A3     		adr	r3, .L74
 837 0054 D3E90023 		ldrd	r2, [r3]
 838 0058 3046     		mov	r0, r6
 839 005a 3946     		mov	r1, r7
 840 005c FFF7FEFF 		bl	__aeabi_dcmpge
 841              	.LVL83:
 842 0060 F0B1     		cbz	r0, .L66
  80:main.c        **** 			USBUARTH_Send(TransmitBuffer, strlen(TransmitBuffer));
 843              		.loc 2 80 0
 844 0062 464F     		ldr	r7, .L74+28
 845 0064 424D     		ldr	r5, .L74+16
 846 0066 07F1200E 		add	lr, r7, #32
 847              	.L68:
 848 006a 3E46     		mov	r6, r7
 849 006c 0FCE     		ldmia	r6!, {r0, r1, r2, r3}
 850 006e 2860     		str	r0, [r5]	@ unaligned
 851 0070 6960     		str	r1, [r5, #4]	@ unaligned
 852 0072 AA60     		str	r2, [r5, #8]	@ unaligned
 853 0074 EB60     		str	r3, [r5, #12]	@ unaligned
 854 0076 3746     		mov	r7, r6
 855 0078 1035     		adds	r5, r5, #16
 856 007a 7645     		cmp	r6, lr
 857 007c F5D1     		bne	.L68
 858 007e 3068     		ldr	r0, [r6]	@ unaligned
 859 0080 2860     		str	r0, [r5]	@ unaligned
  81:main.c        **** 			UART_1_PutString(TransmitBuffer);
ARM GAS  C:\Users\FRANKL~1\AppData\Local\Temp\ccba5qpo.s 			page 35


 860              		.loc 2 81 0
 861 0082 3B4D     		ldr	r5, .L74+16
 862 0084 2846     		mov	r0, r5
 863 0086 FFF7FEFF 		bl	strlen
 864              	.LVL84:
 865 008a 81B2     		uxth	r1, r0
 866 008c 2846     		mov	r0, r5
 867 008e FFF7FEFF 		bl	USBUARTH_Send
 868              	.LVL85:
  82:main.c        **** 			I2C_1_Stop();
 869              		.loc 2 82 0
 870 0092 2846     		mov	r0, r5
 871 0094 FFF7FEFF 		bl	UART_1_PutString
 872              	.LVL86:
  83:main.c        **** 			I2C_1_Start();
 873              		.loc 2 83 0
 874 0098 FFF7FEFF 		bl	I2C_1_Stop
 875              	.LVL87:
  84:main.c        **** 		}
 876              		.loc 2 84 0
 877 009c FFF7FEFF 		bl	I2C_1_Start
 878              	.LVL88:
 879              	.L66:
  77:main.c        **** 		if ((I2C_1_MasterStatus() & I2C_1_MSTAT_WR_CMPLT)) break;
 880              		.loc 2 77 0 discriminator 2
 881 00a0 0134     		adds	r4, r4, #1
 882              	.LVL89:
 883              	.L64:
  77:main.c        **** 		if ((I2C_1_MasterStatus() & I2C_1_MSTAT_WR_CMPLT)) break;
 884              		.loc 2 77 0 is_stmt 0 discriminator 1
 885 00a2 2046     		mov	r0, r4
 886 00a4 FFF7FEFF 		bl	__aeabi_ui2d
 887              	.LVL90:
 888 00a8 0646     		mov	r6, r0
 889 00aa 0F46     		mov	r7, r1
 890 00ac 2EA3     		adr	r3, .L74+8
 891 00ae D3E90023 		ldrd	r2, [r3]
 892 00b2 FFF7FEFF 		bl	__aeabi_dcmplt
 893              	.LVL91:
 894 00b6 0028     		cmp	r0, #0
 895 00b8 C6D1     		bne	.L69
 896              	.L65:
 897              	.LBE12:
  99:main.c        **** 		sprintf(TransmitBuffer, "I2C Transfer Error! ");
 898              		.loc 2 99 0 is_stmt 1
 899 00ba FFF7FEFF 		bl	I2C_1_MasterStatus
 900              	.LVL92:
 901 00be 10F0800F 		tst	r0, #128
 902 00c2 39D0     		beq	.L70
 100:main.c        **** 		USBUARTH_Send(TransmitBuffer, strlen(TransmitBuffer));
 903              		.loc 2 100 0
 904 00c4 2A4C     		ldr	r4, .L74+16
 905              	.LVL93:
 906 00c6 2E4D     		ldr	r5, .L74+32
 907 00c8 0FCD     		ldmia	r5!, {r0, r1, r2, r3}
 908 00ca 2060     		str	r0, [r4]	@ unaligned
 909 00cc 6160     		str	r1, [r4, #4]	@ unaligned
ARM GAS  C:\Users\FRANKL~1\AppData\Local\Temp\ccba5qpo.s 			page 36


 910 00ce A260     		str	r2, [r4, #8]	@ unaligned
 911 00d0 E360     		str	r3, [r4, #12]	@ unaligned
 912 00d2 2868     		ldr	r0, [r5]	@ unaligned
 913 00d4 2061     		str	r0, [r4, #16]	@ unaligned
 914 00d6 2B79     		ldrb	r3, [r5, #4]	@ zero_extendqisi2
 915 00d8 2375     		strb	r3, [r4, #20]
 101:main.c        **** 		UART_1_PutString(TransmitBuffer);
 916              		.loc 2 101 0
 917 00da 2046     		mov	r0, r4
 918 00dc FFF7FEFF 		bl	strlen
 919              	.LVL94:
 920 00e0 81B2     		uxth	r1, r0
 921 00e2 2046     		mov	r0, r4
 922 00e4 FFF7FEFF 		bl	USBUARTH_Send
 923              	.LVL95:
 102:main.c        **** 		
 924              		.loc 2 102 0
 925 00e8 2046     		mov	r0, r4
 926 00ea FFF7FEFF 		bl	UART_1_PutString
 927              	.LVL96:
 104:main.c        **** 			sprintf(TransmitBuffer, "Type: NAK");
 928              		.loc 2 104 0
 929 00ee FFF7FEFF 		bl	I2C_1_MasterStatus
 930              	.LVL97:
 931 00f2 10F0200F 		tst	r0, #32
 932 00f6 0FD0     		beq	.L71
 105:main.c        **** 			USBUARTH_Send(TransmitBuffer, strlen(TransmitBuffer));
 933              		.loc 2 105 0
 934 00f8 224B     		ldr	r3, .L74+36
 935 00fa 03CB     		ldmia	r3!, {r0, r1}
 936 00fc 2060     		str	r0, [r4]	@ unaligned
 937 00fe 6160     		str	r1, [r4, #4]	@ unaligned
 938 0100 1B88     		ldrh	r3, [r3]	@ unaligned
 939 0102 2381     		strh	r3, [r4, #8]	@ unaligned
 106:main.c        **** 			UART_1_PutString(TransmitBuffer);
 940              		.loc 2 106 0
 941 0104 2046     		mov	r0, r4
 942 0106 FFF7FEFF 		bl	strlen
 943              	.LVL98:
 944 010a 81B2     		uxth	r1, r0
 945 010c 2046     		mov	r0, r4
 946 010e FFF7FEFF 		bl	USBUARTH_Send
 947              	.LVL99:
 107:main.c        **** 		}
 948              		.loc 2 107 0
 949 0112 2046     		mov	r0, r4
 950 0114 FFF7FEFF 		bl	UART_1_PutString
 951              	.LVL100:
 952              	.L71:
 110:main.c        **** 		USBUARTH_Send(TransmitBuffer, strlen(TransmitBuffer));
 953              		.loc 2 110 0
 954 0118 154C     		ldr	r4, .L74+16
 955 011a 1B4B     		ldr	r3, .L74+40
 956 011c 1A88     		ldrh	r2, [r3]	@ unaligned
 957 011e 9B78     		ldrb	r3, [r3, #2]	@ zero_extendqisi2
 958 0120 2280     		strh	r2, [r4]	@ unaligned
 959 0122 A370     		strb	r3, [r4, #2]
ARM GAS  C:\Users\FRANKL~1\AppData\Local\Temp\ccba5qpo.s 			page 37


 111:main.c        **** 		UART_1_PutString(TransmitBuffer);
 960              		.loc 2 111 0
 961 0124 2046     		mov	r0, r4
 962 0126 FFF7FEFF 		bl	strlen
 963              	.LVL101:
 964 012a 81B2     		uxth	r1, r0
 965 012c 2046     		mov	r0, r4
 966 012e FFF7FEFF 		bl	USBUARTH_Send
 967              	.LVL102:
 112:main.c        **** 	}
 968              		.loc 2 112 0
 969 0132 2046     		mov	r0, r4
 970 0134 FFF7FEFF 		bl	UART_1_PutString
 971              	.LVL103:
 972              	.L70:
 115:main.c        **** 	USBUARTH_Send(TransmitBuffer, strlen(TransmitBuffer));
 973              		.loc 2 115 0
 974 0138 0D4C     		ldr	r4, .L74+16
 975 013a 4246     		mov	r2, r8
 976 013c 1349     		ldr	r1, .L74+44
 977 013e 2046     		mov	r0, r4
 978 0140 FFF7FEFF 		bl	sprintf
 979              	.LVL104:
 116:main.c        **** 	UART_1_PutString(TransmitBuffer);
 980              		.loc 2 116 0
 981 0144 2046     		mov	r0, r4
 982 0146 FFF7FEFF 		bl	strlen
 983              	.LVL105:
 984 014a 81B2     		uxth	r1, r0
 985 014c 2046     		mov	r0, r4
 986 014e FFF7FEFF 		bl	USBUARTH_Send
 987              	.LVL106:
 117:main.c        **** }
 988              		.loc 2 117 0
 989 0152 2046     		mov	r0, r4
 990 0154 FFF7FEFF 		bl	UART_1_PutString
 991              	.LVL107:
 992 0158 BDE8F081 		pop	{r4, r5, r6, r7, r8, pc}
 993              	.LVL108:
 994              	.L75:
 995 015c AFF30080 		.align	3
 996              	.L74:
 997 0160 00000000 		.word	0
 998 0164 FC691841 		.word	1092119036
 999 0168 00000000 		.word	0
 1000 016c 006A1841 		.word	1092119040
 1001 0170 00000000 		.word	TransmitBuffer
 1002 0174 2C000000 		.word	.LC5
 1003 0178 00000000 		.word	selectors
 1004 017c 44000000 		.word	.LC6
 1005 0180 68000000 		.word	.LC7
 1006 0184 80000000 		.word	.LC8
 1007 0188 8C000000 		.word	.LC9
 1008 018c 90000000 		.word	.LC10
 1009              		.cfi_endproc
 1010              	.LFE71:
 1011              		.size	Update_Selector, .-Update_Selector
ARM GAS  C:\Users\FRANKL~1\AppData\Local\Temp\ccba5qpo.s 			page 38


 1012              		.section	.text.Setup_Selectors,"ax",%progbits
 1013              		.align	2
 1014              		.global	Setup_Selectors
 1015              		.thumb
 1016              		.thumb_func
 1017              		.type	Setup_Selectors, %function
 1018              	Setup_Selectors:
 1019              	.LFB72:
 120:main.c        **** 	for (uint8 i = 0; i < SELECTOR_COUNT; i++) Setup_Selector_I2C_Struct(&selectors[i]);
 1020              		.loc 2 120 0
 1021              		.cfi_startproc
 1022              		@ args = 0, pretend = 0, frame = 0
 1023              		@ frame_needed = 0, uses_anonymous_args = 0
 1024 0000 10B5     		push	{r4, lr}
 1025              		.cfi_def_cfa_offset 8
 1026              		.cfi_offset 4, -8
 1027              		.cfi_offset 14, -4
 1028              	.LVL109:
 1029              	.LBB13:
 121:main.c        **** 	
 1030              		.loc 2 121 0
 1031 0002 0024     		movs	r4, #0
 1032 0004 07E0     		b	.L77
 1033              	.LVL110:
 1034              	.L78:
 121:main.c        **** 	
 1035              		.loc 2 121 0 is_stmt 0 discriminator 3
 1036 0006 C4EB0423 		rsb	r3, r4, r4, lsl #8
 1037 000a 0B48     		ldr	r0, .L80
 1038 000c 1844     		add	r0, r0, r3
 1039 000e FFF7FEFF 		bl	Setup_Selector_I2C_Struct
 1040              	.LVL111:
 1041 0012 0134     		adds	r4, r4, #1
 1042              	.LVL112:
 1043 0014 E4B2     		uxtb	r4, r4
 1044              	.LVL113:
 1045              	.L77:
 121:main.c        **** 	
 1046              		.loc 2 121 0 discriminator 1
 1047 0016 032C     		cmp	r4, #3
 1048 0018 F5D9     		bls	.L78
 1049              	.LBE13:
 123:main.c        **** 	selectors[1].busAddress = 0x11;
 1050              		.loc 2 123 0 is_stmt 1
 1051 001a 074B     		ldr	r3, .L80
 1052 001c 6622     		movs	r2, #102
 1053 001e 83F8FE20 		strb	r2, [r3, #254]
 124:main.c        **** 	selectors[2].busAddress = 0x44;
 1054              		.loc 2 124 0
 1055 0022 1122     		movs	r2, #17
 1056 0024 83F8FD21 		strb	r2, [r3, #509]
 125:main.c        **** 	selectors[3].busAddress = 0x22;
 1057              		.loc 2 125 0
 1058 0028 4422     		movs	r2, #68
 1059 002a 83F8FC22 		strb	r2, [r3, #764]
 126:main.c        **** }
 1060              		.loc 2 126 0
ARM GAS  C:\Users\FRANKL~1\AppData\Local\Temp\ccba5qpo.s 			page 39


 1061 002e 2222     		movs	r2, #34
 1062 0030 83F8FB23 		strb	r2, [r3, #1019]
 1063 0034 10BD     		pop	{r4, pc}
 1064              	.LVL114:
 1065              	.L81:
 1066 0036 00BF     		.align	2
 1067              	.L80:
 1068 0038 00000000 		.word	selectors
 1069              		.cfi_endproc
 1070              	.LFE72:
 1071              		.size	Setup_Selectors, .-Setup_Selectors
 1072              		.section	.text.Connect_Channel_On_Intermediate,"ax",%progbits
 1073              		.align	2
 1074              		.global	Connect_Channel_On_Intermediate
 1075              		.thumb
 1076              		.thumb_func
 1077              		.type	Connect_Channel_On_Intermediate, %function
 1078              	Connect_Channel_On_Intermediate:
 1079              	.LFB73:
 129:main.c        **** 	channel--;
 1080              		.loc 2 129 0
 1081              		.cfi_startproc
 1082              		@ args = 0, pretend = 0, frame = 0
 1083              		@ frame_needed = 0, uses_anonymous_args = 0
 1084              	.LVL115:
 1085 0000 08B5     		push	{r3, lr}
 1086              		.cfi_def_cfa_offset 8
 1087              		.cfi_offset 3, -8
 1088              		.cfi_offset 14, -4
 130:main.c        **** 	intermediate--;
 1089              		.loc 2 130 0
 1090 0002 0138     		subs	r0, r0, #1
 1091              	.LVL116:
 1092 0004 C3B2     		uxtb	r3, r0
 1093              	.LVL117:
 133:main.c        **** 	if (intermediate >= INTERMEDIATE_COUNT) return;
 1094              		.loc 2 133 0
 1095 0006 212B     		cmp	r3, #33
 1096 0008 0CD8     		bhi	.L82
 1097 000a 0139     		subs	r1, r1, #1
 1098              	.LVL118:
 1099 000c C8B2     		uxtb	r0, r1
 134:main.c        **** 	
 1100              		.loc 2 134 0
 1101 000e 0328     		cmp	r0, #3
 1102 0010 08D8     		bhi	.L82
 136:main.c        **** 	Update_Selector(intermediate);
 1103              		.loc 2 136 0
 1104 0012 C0EB0022 		rsb	r2, r0, r0, lsl #8
 1105 0016 0449     		ldr	r1, .L85
 1106 0018 0A44     		add	r2, r2, r1
 1107 001a 1344     		add	r3, r3, r2
 1108              	.LVL119:
 1109 001c C022     		movs	r2, #192
 1110 001e 5A70     		strb	r2, [r3, #1]
 137:main.c        **** }
 1111              		.loc 2 137 0
ARM GAS  C:\Users\FRANKL~1\AppData\Local\Temp\ccba5qpo.s 			page 40


 1112 0020 FFF7FEFF 		bl	Update_Selector
 1113              	.LVL120:
 1114              	.L82:
 1115 0024 08BD     		pop	{r3, pc}
 1116              	.L86:
 1117 0026 00BF     		.align	2
 1118              	.L85:
 1119 0028 00000000 		.word	selectors
 1120              		.cfi_endproc
 1121              	.LFE73:
 1122              		.size	Connect_Channel_On_Intermediate, .-Connect_Channel_On_Intermediate
 1123              		.section	.text.Connect_Contact_To_Intermediate,"ax",%progbits
 1124              		.align	2
 1125              		.global	Connect_Contact_To_Intermediate
 1126              		.thumb
 1127              		.thumb_func
 1128              		.type	Connect_Contact_To_Intermediate, %function
 1129              	Connect_Contact_To_Intermediate:
 1130              	.LFB74:
 140:main.c        **** 	contact--;
 1131              		.loc 2 140 0
 1132              		.cfi_startproc
 1133              		@ args = 0, pretend = 0, frame = 0
 1134              		@ frame_needed = 0, uses_anonymous_args = 0
 1135              	.LVL121:
 141:main.c        **** 	intermediate--;
 1136              		.loc 2 141 0
 1137 0000 0138     		subs	r0, r0, #1
 1138              	.LVL122:
 1139 0002 C0B2     		uxtb	r0, r0
 1140              	.LVL123:
 144:main.c        **** 	if (intermediate >= INTERMEDIATE_COUNT) return;
 1141              		.loc 2 144 0
 1142 0004 3F28     		cmp	r0, #63
 1143 0006 13D8     		bhi	.L92
 140:main.c        **** 	contact--;
 1144              		.loc 2 140 0
 1145 0008 08B5     		push	{r3, lr}
 1146              		.cfi_def_cfa_offset 8
 1147              		.cfi_offset 3, -8
 1148              		.cfi_offset 14, -4
 1149 000a 4B1E     		subs	r3, r1, #1
 1150 000c DBB2     		uxtb	r3, r3
 145:main.c        **** 	
 1151              		.loc 2 145 0
 1152 000e 032B     		cmp	r3, #3
 1153 0010 0DD8     		bhi	.L87
 1154              	.LVL124:
 148:main.c        **** 		offset = CONTACT_COUNT/2;
 1155              		.loc 2 148 0
 1156 0012 012B     		cmp	r3, #1
 1157 0014 03D9     		bls	.L89
 1158              	.LVL125:
 150:main.c        **** 	} else {
 1159              		.loc 2 150 0
 1160 0016 1F28     		cmp	r0, #31
 1161 0018 09D9     		bls	.L87
ARM GAS  C:\Users\FRANKL~1\AppData\Local\Temp\ccba5qpo.s 			page 41


 149:main.c        **** 		if (contact < CONTACT_COUNT/2) return;
 1162              		.loc 2 149 0
 1163 001a 2023     		movs	r3, #32
 1164 001c 02E0     		b	.L90
 1165              	.LVL126:
 1166              	.L89:
 152:main.c        **** 	}
 1167              		.loc 2 152 0
 1168 001e 1F28     		cmp	r0, #31
 1169 0020 05D8     		bhi	.L87
 147:main.c        **** 	if (intermediate >= INTERMEDIATE_COUNT/2) {
 1170              		.loc 2 147 0
 1171 0022 0023     		movs	r3, #0
 1172              	.LVL127:
 1173              	.L90:
 155:main.c        **** }
 1174              		.loc 2 155 0
 1175 0024 C01A     		subs	r0, r0, r3
 1176              	.LVL128:
 1177 0026 0130     		adds	r0, r0, #1
 1178 0028 C0B2     		uxtb	r0, r0
 1179 002a FFF7FEFF 		bl	Connect_Channel_On_Intermediate
 1180              	.LVL129:
 1181              	.L87:
 1182 002e 08BD     		pop	{r3, pc}
 1183              	.LVL130:
 1184              	.L92:
 1185              		.cfi_def_cfa_offset 0
 1186              		.cfi_restore 3
 1187              		.cfi_restore 14
 1188 0030 7047     		bx	lr
 1189              		.cfi_endproc
 1190              	.LFE74:
 1191              		.size	Connect_Contact_To_Intermediate, .-Connect_Contact_To_Intermediate
 1192 0032 00BF     		.section	.text.Disconnect_Contact_From_Intermediate,"ax",%progbits
 1193              		.align	2
 1194              		.global	Disconnect_Contact_From_Intermediate
 1195              		.thumb
 1196              		.thumb_func
 1197              		.type	Disconnect_Contact_From_Intermediate, %function
 1198              	Disconnect_Contact_From_Intermediate:
 1199              	.LFB75:
 158:main.c        **** 	contact--;
 1200              		.loc 2 158 0
 1201              		.cfi_startproc
 1202              		@ args = 0, pretend = 0, frame = 0
 1203              		@ frame_needed = 0, uses_anonymous_args = 0
 1204              	.LVL131:
 1205 0000 08B5     		push	{r3, lr}
 1206              		.cfi_def_cfa_offset 8
 1207              		.cfi_offset 3, -8
 1208              		.cfi_offset 14, -4
 159:main.c        **** 	intermediate--;
 1209              		.loc 2 159 0
 1210 0002 0138     		subs	r0, r0, #1
 1211              	.LVL132:
 1212 0004 C3B2     		uxtb	r3, r0
ARM GAS  C:\Users\FRANKL~1\AppData\Local\Temp\ccba5qpo.s 			page 42


 1213              	.LVL133:
 162:main.c        **** 	if (intermediate >= INTERMEDIATE_COUNT) return;
 1214              		.loc 2 162 0
 1215 0006 3F2B     		cmp	r3, #63
 1216 0008 16D8     		bhi	.L93
 1217 000a 0139     		subs	r1, r1, #1
 1218              	.LVL134:
 1219 000c C8B2     		uxtb	r0, r1
 163:main.c        **** 	
 1220              		.loc 2 163 0
 1221 000e 0328     		cmp	r0, #3
 1222 0010 12D8     		bhi	.L93
 1223              	.LVL135:
 166:main.c        **** 		offset = CONTACT_COUNT/2;
 1224              		.loc 2 166 0
 1225 0012 0128     		cmp	r0, #1
 1226 0014 03D9     		bls	.L95
 1227              	.LVL136:
 168:main.c        **** 	} else {
 1228              		.loc 2 168 0
 1229 0016 1F2B     		cmp	r3, #31
 1230 0018 0ED9     		bls	.L93
 167:main.c        **** 		if (contact < CONTACT_COUNT/2) return;
 1231              		.loc 2 167 0
 1232 001a 2022     		movs	r2, #32
 1233 001c 02E0     		b	.L96
 1234              	.LVL137:
 1235              	.L95:
 170:main.c        **** 	}
 1236              		.loc 2 170 0
 1237 001e 1F2B     		cmp	r3, #31
 1238 0020 0AD8     		bhi	.L93
 165:main.c        **** 	if (intermediate >= INTERMEDIATE_COUNT/2) {
 1239              		.loc 2 165 0
 1240 0022 0022     		movs	r2, #0
 1241              	.LVL138:
 1242              	.L96:
 173:main.c        **** 	
 1243              		.loc 2 173 0
 1244 0024 9B1A     		subs	r3, r3, r2
 1245              	.LVL139:
 1246 0026 C0EB0022 		rsb	r2, r0, r0, lsl #8
 1247              	.LVL140:
 1248 002a 0449     		ldr	r1, .L98
 1249 002c 0A44     		add	r2, r2, r1
 1250 002e 1344     		add	r3, r3, r2
 1251 0030 D122     		movs	r2, #209
 1252 0032 5A70     		strb	r2, [r3, #1]
 175:main.c        **** }
 1253              		.loc 2 175 0
 1254 0034 FFF7FEFF 		bl	Update_Selector
 1255              	.LVL141:
 1256              	.L93:
 1257 0038 08BD     		pop	{r3, pc}
 1258              	.L99:
 1259 003a 00BF     		.align	2
 1260              	.L98:
ARM GAS  C:\Users\FRANKL~1\AppData\Local\Temp\ccba5qpo.s 			page 43


 1261 003c 00000000 		.word	selectors
 1262              		.cfi_endproc
 1263              	.LFE75:
 1264              		.size	Disconnect_Contact_From_Intermediate, .-Disconnect_Contact_From_Intermediate
 1265              		.section	.text.Disconnect_Contact_From_All_Intermediates,"ax",%progbits
 1266              		.align	2
 1267              		.global	Disconnect_Contact_From_All_Intermediates
 1268              		.thumb
 1269              		.thumb_func
 1270              		.type	Disconnect_Contact_From_All_Intermediates, %function
 1271              	Disconnect_Contact_From_All_Intermediates:
 1272              	.LFB76:
 178:main.c        **** 	contact--;
 1273              		.loc 2 178 0
 1274              		.cfi_startproc
 1275              		@ args = 0, pretend = 0, frame = 0
 1276              		@ frame_needed = 0, uses_anonymous_args = 0
 1277              	.LVL142:
 1278 0000 38B5     		push	{r3, r4, r5, lr}
 1279              		.cfi_def_cfa_offset 16
 1280              		.cfi_offset 3, -16
 1281              		.cfi_offset 4, -12
 1282              		.cfi_offset 5, -8
 1283              		.cfi_offset 14, -4
 179:main.c        **** 	
 1284              		.loc 2 179 0
 1285 0002 0138     		subs	r0, r0, #1
 1286              	.LVL143:
 1287 0004 C5B2     		uxtb	r5, r0
 1288              	.LVL144:
 1289              	.LBB14:
 181:main.c        **** 		
 1290              		.loc 2 181 0
 1291 0006 0024     		movs	r4, #0
 1292 0008 15E0     		b	.L101
 1293              	.LVL145:
 1294              	.L105:
 1295              	.LBB15:
 184:main.c        **** 			offset = CONTACT_COUNT/2;
 1296              		.loc 2 184 0
 1297 000a 012C     		cmp	r4, #1
 1298 000c 03D9     		bls	.L102
 1299              	.LVL146:
 186:main.c        **** 		} else {
 1300              		.loc 2 186 0
 1301 000e 1F2D     		cmp	r5, #31
 1302 0010 0FD9     		bls	.L103
 185:main.c        **** 			if (contact < CONTACT_COUNT/2) continue;
 1303              		.loc 2 185 0
 1304 0012 2023     		movs	r3, #32
 1305 0014 02E0     		b	.L104
 1306              	.LVL147:
 1307              	.L102:
 188:main.c        **** 		}
 1308              		.loc 2 188 0
 1309 0016 1F2D     		cmp	r5, #31
 1310 0018 0BD8     		bhi	.L103
ARM GAS  C:\Users\FRANKL~1\AppData\Local\Temp\ccba5qpo.s 			page 44


 183:main.c        **** 		if (intermediate >= INTERMEDIATE_COUNT/2) {
 1311              		.loc 2 183 0
 1312 001a 0023     		movs	r3, #0
 1313              	.LVL148:
 1314              	.L104:
 191:main.c        **** 		
 1315              		.loc 2 191 0
 1316 001c EA1A     		subs	r2, r5, r3
 1317 001e C4EB0423 		rsb	r3, r4, r4, lsl #8
 1318              	.LVL149:
 1319 0022 0649     		ldr	r1, .L107
 1320 0024 0B44     		add	r3, r3, r1
 1321 0026 1344     		add	r3, r3, r2
 1322 0028 D122     		movs	r2, #209
 1323 002a 5A70     		strb	r2, [r3, #1]
 193:main.c        **** 	}
 1324              		.loc 2 193 0
 1325 002c 2046     		mov	r0, r4
 1326 002e FFF7FEFF 		bl	Update_Selector
 1327              	.LVL150:
 1328              	.L103:
 1329              	.LBE15:
 181:main.c        **** 		
 1330              		.loc 2 181 0 discriminator 2
 1331 0032 0134     		adds	r4, r4, #1
 1332              	.LVL151:
 1333 0034 E4B2     		uxtb	r4, r4
 1334              	.LVL152:
 1335              	.L101:
 181:main.c        **** 		
 1336              		.loc 2 181 0 is_stmt 0 discriminator 1
 1337 0036 032C     		cmp	r4, #3
 1338 0038 E7D9     		bls	.L105
 1339              	.LBE14:
 195:main.c        **** 
 1340              		.loc 2 195 0 is_stmt 1
 1341 003a 38BD     		pop	{r3, r4, r5, pc}
 1342              	.LVL153:
 1343              	.L108:
 1344              		.align	2
 1345              	.L107:
 1346 003c 00000000 		.word	selectors
 1347              		.cfi_endproc
 1348              	.LFE76:
 1349              		.size	Disconnect_Contact_From_All_Intermediates, .-Disconnect_Contact_From_All_Intermediates
 1350              		.section	.text.Disconnect_All_Contacts_From_All_Intermediates,"ax",%progbits
 1351              		.align	2
 1352              		.global	Disconnect_All_Contacts_From_All_Intermediates
 1353              		.thumb
 1354              		.thumb_func
 1355              		.type	Disconnect_All_Contacts_From_All_Intermediates, %function
 1356              	Disconnect_All_Contacts_From_All_Intermediates:
 1357              	.LFB77:
 197:main.c        **** 	for (uint8 intermediate = 0; intermediate < INTERMEDIATE_COUNT/**//2; intermediate++) {
 1358              		.loc 2 197 0
 1359              		.cfi_startproc
 1360              		@ args = 0, pretend = 0, frame = 0
ARM GAS  C:\Users\FRANKL~1\AppData\Local\Temp\ccba5qpo.s 			page 45


 1361              		@ frame_needed = 0, uses_anonymous_args = 0
 1362 0000 10B5     		push	{r4, lr}
 1363              		.cfi_def_cfa_offset 8
 1364              		.cfi_offset 4, -8
 1365              		.cfi_offset 14, -4
 1366              	.LVL154:
 1367              	.LBB16:
 198:main.c        **** 		for (uint8 contact = 0; contact < CONTACT_COUNT/2; contact++) {
 1368              		.loc 2 198 0
 1369 0002 0024     		movs	r4, #0
 1370 0004 11E0     		b	.L110
 1371              	.LVL155:
 1372              	.L111:
 1373              	.LBB17:
 200:main.c        **** 		}
 1374              		.loc 2 200 0 discriminator 3
 1375 0006 C4EB0422 		rsb	r2, r4, r4, lsl #8
 1376 000a 0949     		ldr	r1, .L115
 1377 000c 0A44     		add	r2, r2, r1
 1378 000e 1A44     		add	r2, r2, r3
 1379 0010 D121     		movs	r1, #209
 1380 0012 5170     		strb	r1, [r2, #1]
 199:main.c        **** 			selectors[intermediate].write.data[contact] = CONTACT_DISCONNECT_CODE;
 1381              		.loc 2 199 0 discriminator 3
 1382 0014 0133     		adds	r3, r3, #1
 1383              	.LVL156:
 1384 0016 DBB2     		uxtb	r3, r3
 1385              	.LVL157:
 1386 0018 00E0     		b	.L112
 1387              	.LVL158:
 1388              	.L113:
 1389              	.LBE17:
 1390 001a 0023     		movs	r3, #0
 1391              	.L112:
 1392              	.LVL159:
 1393              	.LBB18:
 199:main.c        **** 			selectors[intermediate].write.data[contact] = CONTACT_DISCONNECT_CODE;
 1394              		.loc 2 199 0 is_stmt 0 discriminator 1
 1395 001c 1F2B     		cmp	r3, #31
 1396 001e F2D9     		bls	.L111
 1397              	.LBE18:
 203:main.c        **** 	}
 1398              		.loc 2 203 0 is_stmt 1 discriminator 2
 1399 0020 2046     		mov	r0, r4
 1400 0022 FFF7FEFF 		bl	Update_Selector
 1401              	.LVL160:
 198:main.c        **** 		for (uint8 contact = 0; contact < CONTACT_COUNT/2; contact++) {
 1402              		.loc 2 198 0 discriminator 2
 1403 0026 0134     		adds	r4, r4, #1
 1404              	.LVL161:
 1405 0028 E4B2     		uxtb	r4, r4
 1406              	.LVL162:
 1407              	.L110:
 198:main.c        **** 		for (uint8 contact = 0; contact < CONTACT_COUNT/2; contact++) {
 1408              		.loc 2 198 0 is_stmt 0 discriminator 1
 1409 002a 012C     		cmp	r4, #1
 1410 002c F5D9     		bls	.L113
ARM GAS  C:\Users\FRANKL~1\AppData\Local\Temp\ccba5qpo.s 			page 46


 1411              	.LBE16:
 205:main.c        **** 
 1412              		.loc 2 205 0 is_stmt 1
 1413 002e 10BD     		pop	{r4, pc}
 1414              	.LVL163:
 1415              	.L116:
 1416              		.align	2
 1417              	.L115:
 1418 0030 00000000 		.word	selectors
 1419              		.cfi_endproc
 1420              	.LFE77:
 1421              		.size	Disconnect_All_Contacts_From_All_Intermediates, .-Disconnect_All_Contacts_From_All_Intermedi
 1422              		.section	.text.Disconnect_All_Contacts_From_Intermediate,"ax",%progbits
 1423              		.align	2
 1424              		.global	Disconnect_All_Contacts_From_Intermediate
 1425              		.thumb
 1426              		.thumb_func
 1427              		.type	Disconnect_All_Contacts_From_Intermediate, %function
 1428              	Disconnect_All_Contacts_From_Intermediate:
 1429              	.LFB78:
 207:main.c        **** 	intermediate--;
 1430              		.loc 2 207 0
 1431              		.cfi_startproc
 1432              		@ args = 0, pretend = 0, frame = 0
 1433              		@ frame_needed = 0, uses_anonymous_args = 0
 1434              	.LVL164:
 1435 0000 08B5     		push	{r3, lr}
 1436              		.cfi_def_cfa_offset 8
 1437              		.cfi_offset 3, -8
 1438              		.cfi_offset 14, -4
 208:main.c        **** 	
 1439              		.loc 2 208 0
 1440 0002 0138     		subs	r0, r0, #1
 1441              	.LVL165:
 1442 0004 C0B2     		uxtb	r0, r0
 1443              	.LVL166:
 1444              	.LBB19:
 210:main.c        **** 		selectors[intermediate].write.data[contact] = CONTACT_DISCONNECT_CODE;
 1445              		.loc 2 210 0
 1446 0006 0023     		movs	r3, #0
 1447 0008 08E0     		b	.L118
 1448              	.LVL167:
 1449              	.L119:
 211:main.c        **** 	}
 1450              		.loc 2 211 0 discriminator 3
 1451 000a C0EB0022 		rsb	r2, r0, r0, lsl #8
 1452 000e 0649     		ldr	r1, .L121
 1453 0010 0A44     		add	r2, r2, r1
 1454 0012 1A44     		add	r2, r2, r3
 1455 0014 D121     		movs	r1, #209
 1456 0016 5170     		strb	r1, [r2, #1]
 210:main.c        **** 		selectors[intermediate].write.data[contact] = CONTACT_DISCONNECT_CODE;
 1457              		.loc 2 210 0 discriminator 3
 1458 0018 0133     		adds	r3, r3, #1
 1459              	.LVL168:
 1460 001a DBB2     		uxtb	r3, r3
 1461              	.LVL169:
ARM GAS  C:\Users\FRANKL~1\AppData\Local\Temp\ccba5qpo.s 			page 47


 1462              	.L118:
 210:main.c        **** 		selectors[intermediate].write.data[contact] = CONTACT_DISCONNECT_CODE;
 1463              		.loc 2 210 0 is_stmt 0 discriminator 1
 1464 001c 1F2B     		cmp	r3, #31
 1465 001e F4D9     		bls	.L119
 1466              	.LBE19:
 214:main.c        **** }
 1467              		.loc 2 214 0 is_stmt 1
 1468 0020 FFF7FEFF 		bl	Update_Selector
 1469              	.LVL170:
 1470 0024 08BD     		pop	{r3, pc}
 1471              	.L122:
 1472 0026 00BF     		.align	2
 1473              	.L121:
 1474 0028 00000000 		.word	selectors
 1475              		.cfi_endproc
 1476              	.LFE78:
 1477              		.size	Disconnect_All_Contacts_From_Intermediate, .-Disconnect_All_Contacts_From_Intermediate
 1478              		.section	.text.Connect_Intermediate,"ax",%progbits
 1479              		.align	2
 1480              		.global	Connect_Intermediate
 1481              		.thumb
 1482              		.thumb_func
 1483              		.type	Connect_Intermediate, %function
 1484              	Connect_Intermediate:
 1485              	.LFB79:
 217:main.c        **** 	switch (intermediate) {
 1486              		.loc 2 217 0
 1487              		.cfi_startproc
 1488              		@ args = 0, pretend = 0, frame = 0
 1489              		@ frame_needed = 0, uses_anonymous_args = 0
 1490              	.LVL171:
 1491 0000 08B5     		push	{r3, lr}
 1492              		.cfi_def_cfa_offset 8
 1493              		.cfi_offset 3, -8
 1494              		.cfi_offset 14, -4
 218:main.c        **** 		case 1: Connect_Channel_On_Intermediate(33, 1); break;
 1495              		.loc 2 218 0
 1496 0002 0138     		subs	r0, r0, #1
 1497              	.LVL172:
 1498 0004 0328     		cmp	r0, #3
 1499 0006 16D8     		bhi	.L123
 1500 0008 DFE800F0 		tbb	[pc, r0]
 1501              	.L126:
 1502 000c 02       		.byte	(.L125-.L126)/2
 1503 000d 07       		.byte	(.L127-.L126)/2
 1504 000e 0C       		.byte	(.L128-.L126)/2
 1505 000f 11       		.byte	(.L129-.L126)/2
 1506              		.p2align 1
 1507              	.L125:
 219:main.c        **** 		case 2: Connect_Channel_On_Intermediate(33, 2); break;
 1508              		.loc 2 219 0
 1509 0010 0121     		movs	r1, #1
 1510 0012 2120     		movs	r0, #33
 1511 0014 FFF7FEFF 		bl	Connect_Channel_On_Intermediate
 1512              	.LVL173:
 1513 0018 08BD     		pop	{r3, pc}
ARM GAS  C:\Users\FRANKL~1\AppData\Local\Temp\ccba5qpo.s 			page 48


 1514              	.L127:
 220:main.c        **** 		case 3: Connect_Channel_On_Intermediate(33, 3); break;
 1515              		.loc 2 220 0
 1516 001a 0221     		movs	r1, #2
 1517 001c 2120     		movs	r0, #33
 1518 001e FFF7FEFF 		bl	Connect_Channel_On_Intermediate
 1519              	.LVL174:
 1520 0022 08BD     		pop	{r3, pc}
 1521              	.L128:
 221:main.c        **** 		case 4: Connect_Channel_On_Intermediate(33, 4); break;
 1522              		.loc 2 221 0
 1523 0024 0321     		movs	r1, #3
 1524 0026 2120     		movs	r0, #33
 1525 0028 FFF7FEFF 		bl	Connect_Channel_On_Intermediate
 1526              	.LVL175:
 1527 002c 08BD     		pop	{r3, pc}
 1528              	.L129:
 222:main.c        **** 		default: return;
 1529              		.loc 2 222 0
 1530 002e 0421     		movs	r1, #4
 1531 0030 2120     		movs	r0, #33
 1532 0032 FFF7FEFF 		bl	Connect_Channel_On_Intermediate
 1533              	.LVL176:
 1534              	.L123:
 1535 0036 08BD     		pop	{r3, pc}
 1536              		.cfi_endproc
 1537              	.LFE79:
 1538              		.size	Connect_Intermediate, .-Connect_Intermediate
 1539              		.section	.text.Connect_Intermediates,"ax",%progbits
 1540              		.align	2
 1541              		.global	Connect_Intermediates
 1542              		.thumb
 1543              		.thumb_func
 1544              		.type	Connect_Intermediates, %function
 1545              	Connect_Intermediates:
 1546              	.LFB80:
 227:main.c        **** 	for (uint8 i = 1; i <= INTERMEDIATE_COUNT/**//2; i++) {
 1547              		.loc 2 227 0
 1548              		.cfi_startproc
 1549              		@ args = 0, pretend = 0, frame = 0
 1550              		@ frame_needed = 0, uses_anonymous_args = 0
 1551 0000 10B5     		push	{r4, lr}
 1552              		.cfi_def_cfa_offset 8
 1553              		.cfi_offset 4, -8
 1554              		.cfi_offset 14, -4
 1555              	.LVL177:
 1556              	.LBB20:
 228:main.c        **** 		Connect_Intermediate(i);
 1557              		.loc 2 228 0
 1558 0002 0124     		movs	r4, #1
 1559 0004 04E0     		b	.L132
 1560              	.LVL178:
 1561              	.L133:
 229:main.c        **** 	}
 1562              		.loc 2 229 0 discriminator 3
 1563 0006 2046     		mov	r0, r4
 1564 0008 FFF7FEFF 		bl	Connect_Intermediate
ARM GAS  C:\Users\FRANKL~1\AppData\Local\Temp\ccba5qpo.s 			page 49


 1565              	.LVL179:
 228:main.c        **** 		Connect_Intermediate(i);
 1566              		.loc 2 228 0 discriminator 3
 1567 000c 0134     		adds	r4, r4, #1
 1568              	.LVL180:
 1569 000e E4B2     		uxtb	r4, r4
 1570              	.LVL181:
 1571              	.L132:
 228:main.c        **** 		Connect_Intermediate(i);
 1572              		.loc 2 228 0 is_stmt 0 discriminator 1
 1573 0010 022C     		cmp	r4, #2
 1574 0012 F8D9     		bls	.L133
 1575              	.LBE20:
 231:main.c        **** 
 1576              		.loc 2 231 0 is_stmt 1
 1577 0014 10BD     		pop	{r4, pc}
 1578              		.cfi_endproc
 1579              	.LFE80:
 1580              		.size	Connect_Intermediates, .-Connect_Intermediates
 1581 0016 00BF     		.section	.text.TIA_Set_Resistor,"ax",%progbits
 1582              		.align	2
 1583              		.global	TIA_Set_Resistor
 1584              		.thumb
 1585              		.thumb_func
 1586              		.type	TIA_Set_Resistor, %function
 1587              	TIA_Set_Resistor:
 1588              	.LFB81:
 233:main.c        **** 	TIA_Selected_Resistor = resistor;
 1589              		.loc 2 233 0
 1590              		.cfi_startproc
 1591              		@ args = 0, pretend = 0, frame = 0
 1592              		@ frame_needed = 0, uses_anonymous_args = 0
 1593              	.LVL182:
 1594 0000 08B5     		push	{r3, lr}
 1595              		.cfi_def_cfa_offset 8
 1596              		.cfi_offset 3, -8
 1597              		.cfi_offset 14, -4
 234:main.c        **** 	TIA_1_SetResFB(TIA_Resistor_Codes[resistor]);
 1598              		.loc 2 234 0
 1599 0002 034B     		ldr	r3, .L137
 1600 0004 1870     		strb	r0, [r3]
 235:main.c        **** }
 1601              		.loc 2 235 0
 1602 0006 1844     		add	r0, r0, r3
 1603              	.LVL183:
 1604 0008 0079     		ldrb	r0, [r0, #4]	@ zero_extendqisi2
 1605 000a FFF7FEFF 		bl	TIA_1_SetResFB
 1606              	.LVL184:
 1607 000e 08BD     		pop	{r3, pc}
 1608              	.L138:
 1609              		.align	2
 1610              	.L137:
 1611 0010 00000000 		.word	.LANCHOR1
 1612              		.cfi_endproc
 1613              	.LFE81:
 1614              		.size	TIA_Set_Resistor, .-TIA_Set_Resistor
 1615              		.section	.text.ADC_Increase_Range,"ax",%progbits
ARM GAS  C:\Users\FRANKL~1\AppData\Local\Temp\ccba5qpo.s 			page 50


 1616              		.align	2
 1617              		.global	ADC_Increase_Range
 1618              		.thumb
 1619              		.thumb_func
 1620              		.type	ADC_Increase_Range, %function
 1621              	ADC_Increase_Range:
 1622              	.LFB82:
 238:main.c        **** 	switch(TIA_Selected_Resistor) {
 1623              		.loc 2 238 0
 1624              		.cfi_startproc
 1625              		@ args = 0, pretend = 0, frame = 0
 1626              		@ frame_needed = 0, uses_anonymous_args = 0
 1627 0000 08B5     		push	{r3, lr}
 1628              		.cfi_def_cfa_offset 8
 1629              		.cfi_offset 3, -8
 1630              		.cfi_offset 14, -4
 239:main.c        **** 		case R20K: 	 break;
 1631              		.loc 2 239 0
 1632 0002 134B     		ldr	r3, .L150
 1633 0004 1B78     		ldrb	r3, [r3]	@ zero_extendqisi2
 1634 0006 013B     		subs	r3, r3, #1
 1635 0008 062B     		cmp	r3, #6
 1636 000a 20D8     		bhi	.L139
 1637 000c DFE803F0 		tbb	[pc, r3]
 1638              	.L142:
 1639 0010 04       		.byte	(.L141-.L142)/2
 1640 0011 08       		.byte	(.L143-.L142)/2
 1641 0012 0C       		.byte	(.L144-.L142)/2
 1642 0013 10       		.byte	(.L145-.L142)/2
 1643 0014 14       		.byte	(.L146-.L142)/2
 1644 0015 18       		.byte	(.L147-.L142)/2
 1645 0016 1C       		.byte	(.L148-.L142)/2
 1646 0017 00       		.p2align 1
 1647              	.L141:
 241:main.c        **** 		case R40K:	 TIA_Set_Resistor(R30K); break;
 1648              		.loc 2 241 0
 1649 0018 0020     		movs	r0, #0
 1650 001a FFF7FEFF 		bl	TIA_Set_Resistor
 1651              	.LVL185:
 1652 001e 08BD     		pop	{r3, pc}
 1653              	.L143:
 242:main.c        **** 		case R80K:	 TIA_Set_Resistor(R40K); break;
 1654              		.loc 2 242 0
 1655 0020 0120     		movs	r0, #1
 1656 0022 FFF7FEFF 		bl	TIA_Set_Resistor
 1657              	.LVL186:
 1658 0026 08BD     		pop	{r3, pc}
 1659              	.L144:
 243:main.c        **** 		case R120K:	 TIA_Set_Resistor(R80K); break;
 1660              		.loc 2 243 0
 1661 0028 0220     		movs	r0, #2
 1662 002a FFF7FEFF 		bl	TIA_Set_Resistor
 1663              	.LVL187:
 1664 002e 08BD     		pop	{r3, pc}
 1665              	.L145:
 244:main.c        **** 		case R250K:	 TIA_Set_Resistor(R120K); break;
 1666              		.loc 2 244 0
ARM GAS  C:\Users\FRANKL~1\AppData\Local\Temp\ccba5qpo.s 			page 51


 1667 0030 0320     		movs	r0, #3
 1668 0032 FFF7FEFF 		bl	TIA_Set_Resistor
 1669              	.LVL188:
 1670 0036 08BD     		pop	{r3, pc}
 1671              	.L146:
 245:main.c        **** 		case R500K:	 TIA_Set_Resistor(R250K); break;
 1672              		.loc 2 245 0
 1673 0038 0420     		movs	r0, #4
 1674 003a FFF7FEFF 		bl	TIA_Set_Resistor
 1675              	.LVL189:
 1676 003e 08BD     		pop	{r3, pc}
 1677              	.L147:
 246:main.c        **** 		case R1000K: TIA_Set_Resistor(R500K); break;
 1678              		.loc 2 246 0
 1679 0040 0520     		movs	r0, #5
 1680 0042 FFF7FEFF 		bl	TIA_Set_Resistor
 1681              	.LVL190:
 1682 0046 08BD     		pop	{r3, pc}
 1683              	.L148:
 247:main.c        **** 		default: return;
 1684              		.loc 2 247 0
 1685 0048 0620     		movs	r0, #6
 1686 004a FFF7FEFF 		bl	TIA_Set_Resistor
 1687              	.LVL191:
 1688              	.L139:
 1689 004e 08BD     		pop	{r3, pc}
 1690              	.L151:
 1691              		.align	2
 1692              	.L150:
 1693 0050 00000000 		.word	.LANCHOR1
 1694              		.cfi_endproc
 1695              	.LFE82:
 1696              		.size	ADC_Increase_Range, .-ADC_Increase_Range
 1697              		.section	.text.ADC_Decrease_Range,"ax",%progbits
 1698              		.align	2
 1699              		.global	ADC_Decrease_Range
 1700              		.thumb
 1701              		.thumb_func
 1702              		.type	ADC_Decrease_Range, %function
 1703              	ADC_Decrease_Range:
 1704              	.LFB83:
 252:main.c        **** 	switch(TIA_Selected_Resistor) {
 1705              		.loc 2 252 0
 1706              		.cfi_startproc
 1707              		@ args = 0, pretend = 0, frame = 0
 1708              		@ frame_needed = 0, uses_anonymous_args = 0
 1709 0000 08B5     		push	{r3, lr}
 1710              		.cfi_def_cfa_offset 8
 1711              		.cfi_offset 3, -8
 1712              		.cfi_offset 14, -4
 253:main.c        **** 		case R20K: 	 TIA_Set_Resistor(R30K); break;
 1713              		.loc 2 253 0
 1714 0002 134B     		ldr	r3, .L163
 1715 0004 1B78     		ldrb	r3, [r3]	@ zero_extendqisi2
 1716 0006 062B     		cmp	r3, #6
 1717 0008 20D8     		bhi	.L152
 1718 000a DFE803F0 		tbb	[pc, r3]
ARM GAS  C:\Users\FRANKL~1\AppData\Local\Temp\ccba5qpo.s 			page 52


 1719              	.L155:
 1720 000e 04       		.byte	(.L154-.L155)/2
 1721 000f 08       		.byte	(.L156-.L155)/2
 1722 0010 0C       		.byte	(.L157-.L155)/2
 1723 0011 10       		.byte	(.L158-.L155)/2
 1724 0012 14       		.byte	(.L159-.L155)/2
 1725 0013 18       		.byte	(.L160-.L155)/2
 1726 0014 1C       		.byte	(.L161-.L155)/2
 1727 0015 00       		.p2align 1
 1728              	.L154:
 254:main.c        **** 		case R30K: 	 TIA_Set_Resistor(R40K); break;
 1729              		.loc 2 254 0
 1730 0016 0120     		movs	r0, #1
 1731 0018 FFF7FEFF 		bl	TIA_Set_Resistor
 1732              	.LVL192:
 1733 001c 08BD     		pop	{r3, pc}
 1734              	.L156:
 255:main.c        **** 		case R40K:	 TIA_Set_Resistor(R80K); break;
 1735              		.loc 2 255 0
 1736 001e 0220     		movs	r0, #2
 1737 0020 FFF7FEFF 		bl	TIA_Set_Resistor
 1738              	.LVL193:
 1739 0024 08BD     		pop	{r3, pc}
 1740              	.L157:
 256:main.c        **** 		case R80K:	 TIA_Set_Resistor(R120K); break;
 1741              		.loc 2 256 0
 1742 0026 0320     		movs	r0, #3
 1743 0028 FFF7FEFF 		bl	TIA_Set_Resistor
 1744              	.LVL194:
 1745 002c 08BD     		pop	{r3, pc}
 1746              	.L158:
 257:main.c        **** 		case R120K:	 TIA_Set_Resistor(R250K); break;
 1747              		.loc 2 257 0
 1748 002e 0420     		movs	r0, #4
 1749 0030 FFF7FEFF 		bl	TIA_Set_Resistor
 1750              	.LVL195:
 1751 0034 08BD     		pop	{r3, pc}
 1752              	.L159:
 258:main.c        **** 		case R250K:	 TIA_Set_Resistor(R500K); break;
 1753              		.loc 2 258 0
 1754 0036 0520     		movs	r0, #5
 1755 0038 FFF7FEFF 		bl	TIA_Set_Resistor
 1756              	.LVL196:
 1757 003c 08BD     		pop	{r3, pc}
 1758              	.L160:
 259:main.c        **** 		case R500K:	 TIA_Set_Resistor(R1000K); break;
 1759              		.loc 2 259 0
 1760 003e 0620     		movs	r0, #6
 1761 0040 FFF7FEFF 		bl	TIA_Set_Resistor
 1762              	.LVL197:
 1763 0044 08BD     		pop	{r3, pc}
 1764              	.L161:
 260:main.c        **** 		case R1000K: break;
 1765              		.loc 2 260 0
 1766 0046 0720     		movs	r0, #7
 1767 0048 FFF7FEFF 		bl	TIA_Set_Resistor
 1768              	.LVL198:
ARM GAS  C:\Users\FRANKL~1\AppData\Local\Temp\ccba5qpo.s 			page 53


 1769              	.L152:
 1770 004c 08BD     		pop	{r3, pc}
 1771              	.L164:
 1772 004e 00BF     		.align	2
 1773              	.L163:
 1774 0050 00000000 		.word	.LANCHOR1
 1775              		.cfi_endproc
 1776              	.LFE83:
 1777              		.size	ADC_Decrease_Range, .-ADC_Decrease_Range
 1778              		.global	__aeabi_ui2f
 1779              		.global	__aeabi_fdiv
 1780              		.global	__aeabi_i2f
 1781              		.global	__aeabi_fmul
 1782              		.global	__aeabi_fadd
 1783              		.global	__aeabi_f2iz
 1784              		.global	__aeabi_fsub
 1785              		.section	.text.ADC_Measure_uV,"ax",%progbits
 1786              		.align	2
 1787              		.global	ADC_Measure_uV
 1788              		.thumb
 1789              		.thumb_func
 1790              		.type	ADC_Measure_uV, %function
 1791              	ADC_Measure_uV:
 1792              	.LFB84:
 267:main.c        **** 	int32 ADC_Result = 0;
 1793              		.loc 2 267 0
 1794              		.cfi_startproc
 1795              		@ args = 0, pretend = 0, frame = 8
 1796              		@ frame_needed = 0, uses_anonymous_args = 0
 1797              	.LVL199:
 1798 0000 2DE9F04F 		push	{r4, r5, r6, r7, r8, r9, r10, fp, lr}
 1799              		.cfi_def_cfa_offset 36
 1800              		.cfi_offset 4, -36
 1801              		.cfi_offset 5, -32
 1802              		.cfi_offset 6, -28
 1803              		.cfi_offset 7, -24
 1804              		.cfi_offset 8, -20
 1805              		.cfi_offset 9, -16
 1806              		.cfi_offset 10, -12
 1807              		.cfi_offset 11, -8
 1808              		.cfi_offset 14, -4
 1809 0004 83B0     		sub	sp, sp, #12
 1810              		.cfi_def_cfa_offset 48
 1811 0006 0090     		str	r0, [sp]
 1812 0008 0191     		str	r1, [sp, #4]
 1813 000a 9346     		mov	fp, r2
 1814              	.LVL200:
 1815              	.LBB21:
 271:main.c        **** 		ADC_DelSig_1_StartConvert();
 1816              		.loc 2 271 0
 1817 000c 0124     		movs	r4, #1
 1818              	.LBE21:
 269:main.c        **** 	
 1819              		.loc 2 269 0
 1820 000e 4FF00009 		mov	r9, #0
 268:main.c        **** 	int32 ADC_SD = 0;
 1821              		.loc 2 268 0
ARM GAS  C:\Users\FRANKL~1\AppData\Local\Temp\ccba5qpo.s 			page 54


 1822 0012 4D46     		mov	r5, r9
 1823              	.LBB23:
 271:main.c        **** 		ADC_DelSig_1_StartConvert();
 1824              		.loc 2 271 0
 1825 0014 45E0     		b	.L166
 1826              	.LVL201:
 1827              	.L168:
 1828              	.LBB22:
 272:main.c        **** 		while (!ADC_DelSig_1_IsEndConversion(ADC_DelSig_1_RETURN_STATUS));
 1829              		.loc 2 272 0
 1830 0016 FFF7FEFF 		bl	ADC_DelSig_1_StartConvert
 1831              	.LVL202:
 1832              	.L167:
 273:main.c        **** 		//int16 ADC_Result = ADC_DelSig_1_CountsTo_mVolts(ADC_DelSig_1_GetResult16());
 1833              		.loc 2 273 0 discriminator 1
 1834 001a 0120     		movs	r0, #1
 1835 001c FFF7FEFF 		bl	ADC_DelSig_1_IsEndConversion
 1836              	.LVL203:
 1837 0020 0028     		cmp	r0, #0
 1838 0022 FAD0     		beq	.L167
 275:main.c        **** 		
 1839              		.loc 2 275 0 discriminator 2
 1840 0024 FFF7FEFF 		bl	ADC_DelSig_1_GetResult32
 1841              	.LVL204:
 1842 0028 FFF7FEFF 		bl	ADC_DelSig_1_CountsTo_uVolts
 1843              	.LVL205:
 1844 002c 0746     		mov	r7, r0
 1845              	.LVL206:
 277:main.c        **** 		ADC_Result += ((float)ADC_Result_Current - (float)ADC_Result)/(float)i;
 1846              		.loc 2 277 0 discriminator 2
 1847 002e 601E     		subs	r0, r4, #1
 1848              	.LVL207:
 1849 0030 FFF7FEFF 		bl	__aeabi_ui2f
 1850              	.LVL208:
 1851 0034 8046     		mov	r8, r0
 1852 0036 2046     		mov	r0, r4
 1853 0038 FFF7FEFF 		bl	__aeabi_ui2f
 1854              	.LVL209:
 1855 003c 0646     		mov	r6, r0
 1856 003e 0146     		mov	r1, r0
 1857 0040 4046     		mov	r0, r8
 1858 0042 FFF7FEFF 		bl	__aeabi_fdiv
 1859              	.LVL210:
 1860 0046 8246     		mov	r10, r0
 1861 0048 781B     		subs	r0, r7, r5
 1862 004a FFF7FEFF 		bl	__aeabi_i2f
 1863              	.LVL211:
 1864 004e 8046     		mov	r8, r0
 1865 0050 0146     		mov	r1, r0
 1866 0052 5046     		mov	r0, r10
 1867 0054 FFF7FEFF 		bl	__aeabi_fmul
 1868              	.LVL212:
 1869 0058 0146     		mov	r1, r0
 1870 005a 4046     		mov	r0, r8
 1871 005c FFF7FEFF 		bl	__aeabi_fmul
 1872              	.LVL213:
 1873 0060 8046     		mov	r8, r0
ARM GAS  C:\Users\FRANKL~1\AppData\Local\Temp\ccba5qpo.s 			page 55


 1874 0062 4846     		mov	r0, r9
 1875 0064 FFF7FEFF 		bl	__aeabi_i2f
 1876              	.LVL214:
 1877 0068 4146     		mov	r1, r8
 1878 006a FFF7FEFF 		bl	__aeabi_fadd
 1879              	.LVL215:
 1880 006e FFF7FEFF 		bl	__aeabi_f2iz
 1881              	.LVL216:
 1882 0072 8146     		mov	r9, r0
 1883              	.LVL217:
 278:main.c        **** 	}
 1884              		.loc 2 278 0 discriminator 2
 1885 0074 3846     		mov	r0, r7
 1886              	.LVL218:
 1887 0076 FFF7FEFF 		bl	__aeabi_i2f
 1888              	.LVL219:
 1889 007a 0746     		mov	r7, r0
 1890              	.LVL220:
 1891 007c 2846     		mov	r0, r5
 1892 007e FFF7FEFF 		bl	__aeabi_i2f
 1893              	.LVL221:
 1894 0082 0546     		mov	r5, r0
 1895              	.LVL222:
 1896 0084 0146     		mov	r1, r0
 1897 0086 3846     		mov	r0, r7
 1898 0088 FFF7FEFF 		bl	__aeabi_fsub
 1899              	.LVL223:
 1900 008c 3146     		mov	r1, r6
 1901 008e FFF7FEFF 		bl	__aeabi_fdiv
 1902              	.LVL224:
 1903 0092 0146     		mov	r1, r0
 1904 0094 2846     		mov	r0, r5
 1905 0096 FFF7FEFF 		bl	__aeabi_fadd
 1906              	.LVL225:
 1907 009a FFF7FEFF 		bl	__aeabi_f2iz
 1908              	.LVL226:
 1909 009e 0546     		mov	r5, r0
 1910              	.LVL227:
 1911              	.LBE22:
 271:main.c        **** 		ADC_DelSig_1_StartConvert();
 1912              		.loc 2 271 0 discriminator 2
 1913 00a0 0134     		adds	r4, r4, #1
 1914              	.LVL228:
 1915              	.L166:
 271:main.c        **** 		ADC_DelSig_1_StartConvert();
 1916              		.loc 2 271 0 is_stmt 0 discriminator 1
 1917 00a2 5C45     		cmp	r4, fp
 1918 00a4 B7D9     		bls	.L168
 1919              	.LBE23:
 281:main.c        **** 	*standardDeviation = ADC_SD;
 1920              		.loc 2 281 0 is_stmt 1
 1921 00a6 009B     		ldr	r3, [sp]
 1922 00a8 1D60     		str	r5, [r3]
 282:main.c        **** }
 1923              		.loc 2 282 0
 1924 00aa 019B     		ldr	r3, [sp, #4]
 1925 00ac C3F80090 		str	r9, [r3]
ARM GAS  C:\Users\FRANKL~1\AppData\Local\Temp\ccba5qpo.s 			page 56


 283:main.c        **** 
 1926              		.loc 2 283 0
 1927 00b0 03B0     		add	sp, sp, #12
 1928              		.cfi_def_cfa_offset 36
 1929              	.LVL229:
 1930              		@ sp needed
 1931 00b2 BDE8F08F 		pop	{r4, r5, r6, r7, r8, r9, r10, fp, pc}
 1932              		.cfi_endproc
 1933              	.LFE84:
 1934              		.size	ADC_Measure_uV, .-ADC_Measure_uV
 1935 00b6 00BF     		.section	.text.SAR1_Measure_V,"ax",%progbits
 1936              		.align	2
 1937              		.global	SAR1_Measure_V
 1938              		.thumb
 1939              		.thumb_func
 1940              		.type	SAR1_Measure_V, %function
 1941              	SAR1_Measure_V:
 1942              	.LFB85:
 286:main.c        **** 	int32 SAR_Result = 0;
 1943              		.loc 2 286 0
 1944              		.cfi_startproc
 1945              		@ args = 0, pretend = 0, frame = 8
 1946              		@ frame_needed = 0, uses_anonymous_args = 0
 1947              	.LVL230:
 1948 0000 2DE9F04F 		push	{r4, r5, r6, r7, r8, r9, r10, fp, lr}
 1949              		.cfi_def_cfa_offset 36
 1950              		.cfi_offset 4, -36
 1951              		.cfi_offset 5, -32
 1952              		.cfi_offset 6, -28
 1953              		.cfi_offset 7, -24
 1954              		.cfi_offset 8, -20
 1955              		.cfi_offset 9, -16
 1956              		.cfi_offset 10, -12
 1957              		.cfi_offset 11, -8
 1958              		.cfi_offset 14, -4
 1959 0004 83B0     		sub	sp, sp, #12
 1960              		.cfi_def_cfa_offset 48
 1961 0006 0090     		str	r0, [sp]
 1962 0008 0191     		str	r1, [sp, #4]
 1963 000a 9346     		mov	fp, r2
 1964              	.LVL231:
 1965              	.LBB24:
 290:main.c        **** 		ADC_SAR_1_StartConvert();
 1966              		.loc 2 290 0
 1967 000c 0124     		movs	r4, #1
 1968              	.LBE24:
 288:main.c        **** 	
 1969              		.loc 2 288 0
 1970 000e 4FF00009 		mov	r9, #0
 287:main.c        **** 	int32 SAR_SD = 0;
 1971              		.loc 2 287 0
 1972 0012 4D46     		mov	r5, r9
 1973              	.LBB26:
 290:main.c        **** 		ADC_SAR_1_StartConvert();
 1974              		.loc 2 290 0
 1975 0014 45E0     		b	.L171
 1976              	.LVL232:
ARM GAS  C:\Users\FRANKL~1\AppData\Local\Temp\ccba5qpo.s 			page 57


 1977              	.L173:
 1978              	.LBB25:
 291:main.c        **** 		while (!ADC_SAR_1_IsEndConversion(ADC_SAR_1_RETURN_STATUS));
 1979              		.loc 2 291 0
 1980 0016 FFF7FEFF 		bl	ADC_SAR_1_StartConvert
 1981              	.LVL233:
 1982              	.L172:
 292:main.c        **** 		
 1983              		.loc 2 292 0 discriminator 1
 1984 001a 0120     		movs	r0, #1
 1985 001c FFF7FEFF 		bl	ADC_SAR_1_IsEndConversion
 1986              	.LVL234:
 1987 0020 0028     		cmp	r0, #0
 1988 0022 FAD0     		beq	.L172
 294:main.c        **** 		
 1989              		.loc 2 294 0 discriminator 2
 1990 0024 FFF7FEFF 		bl	ADC_SAR_1_GetResult16
 1991              	.LVL235:
 1992 0028 FFF7FEFF 		bl	ADC_SAR_1_CountsTo_uVolts
 1993              	.LVL236:
 1994 002c 0746     		mov	r7, r0
 1995              	.LVL237:
 296:main.c        **** 		SAR_Result += ((float)SAR1_Result_Current - (float)SAR_Result)/(float)i;
 1996              		.loc 2 296 0 discriminator 2
 1997 002e 601E     		subs	r0, r4, #1
 1998              	.LVL238:
 1999 0030 FFF7FEFF 		bl	__aeabi_ui2f
 2000              	.LVL239:
 2001 0034 8046     		mov	r8, r0
 2002 0036 2046     		mov	r0, r4
 2003 0038 FFF7FEFF 		bl	__aeabi_ui2f
 2004              	.LVL240:
 2005 003c 0646     		mov	r6, r0
 2006 003e 0146     		mov	r1, r0
 2007 0040 4046     		mov	r0, r8
 2008 0042 FFF7FEFF 		bl	__aeabi_fdiv
 2009              	.LVL241:
 2010 0046 8246     		mov	r10, r0
 2011 0048 781B     		subs	r0, r7, r5
 2012 004a FFF7FEFF 		bl	__aeabi_i2f
 2013              	.LVL242:
 2014 004e 8046     		mov	r8, r0
 2015 0050 0146     		mov	r1, r0
 2016 0052 5046     		mov	r0, r10
 2017 0054 FFF7FEFF 		bl	__aeabi_fmul
 2018              	.LVL243:
 2019 0058 0146     		mov	r1, r0
 2020 005a 4046     		mov	r0, r8
 2021 005c FFF7FEFF 		bl	__aeabi_fmul
 2022              	.LVL244:
 2023 0060 8046     		mov	r8, r0
 2024 0062 4846     		mov	r0, r9
 2025 0064 FFF7FEFF 		bl	__aeabi_i2f
 2026              	.LVL245:
 2027 0068 4146     		mov	r1, r8
 2028 006a FFF7FEFF 		bl	__aeabi_fadd
 2029              	.LVL246:
ARM GAS  C:\Users\FRANKL~1\AppData\Local\Temp\ccba5qpo.s 			page 58


 2030 006e FFF7FEFF 		bl	__aeabi_f2iz
 2031              	.LVL247:
 2032 0072 8146     		mov	r9, r0
 2033              	.LVL248:
 297:main.c        **** 	}
 2034              		.loc 2 297 0 discriminator 2
 2035 0074 3846     		mov	r0, r7
 2036              	.LVL249:
 2037 0076 FFF7FEFF 		bl	__aeabi_i2f
 2038              	.LVL250:
 2039 007a 0746     		mov	r7, r0
 2040              	.LVL251:
 2041 007c 2846     		mov	r0, r5
 2042 007e FFF7FEFF 		bl	__aeabi_i2f
 2043              	.LVL252:
 2044 0082 0546     		mov	r5, r0
 2045              	.LVL253:
 2046 0084 0146     		mov	r1, r0
 2047 0086 3846     		mov	r0, r7
 2048 0088 FFF7FEFF 		bl	__aeabi_fsub
 2049              	.LVL254:
 2050 008c 3146     		mov	r1, r6
 2051 008e FFF7FEFF 		bl	__aeabi_fdiv
 2052              	.LVL255:
 2053 0092 0146     		mov	r1, r0
 2054 0094 2846     		mov	r0, r5
 2055 0096 FFF7FEFF 		bl	__aeabi_fadd
 2056              	.LVL256:
 2057 009a FFF7FEFF 		bl	__aeabi_f2iz
 2058              	.LVL257:
 2059 009e 0546     		mov	r5, r0
 2060              	.LVL258:
 2061              	.LBE25:
 290:main.c        **** 		ADC_SAR_1_StartConvert();
 2062              		.loc 2 290 0 discriminator 2
 2063 00a0 0134     		adds	r4, r4, #1
 2064              	.LVL259:
 2065              	.L171:
 290:main.c        **** 		ADC_SAR_1_StartConvert();
 2066              		.loc 2 290 0 is_stmt 0 discriminator 1
 2067 00a2 5C45     		cmp	r4, fp
 2068 00a4 B7D9     		bls	.L173
 2069              	.LBE26:
 300:main.c        **** 	*standardDeviation = SAR_SD;
 2070              		.loc 2 300 0 is_stmt 1
 2071 00a6 009B     		ldr	r3, [sp]
 2072 00a8 1D60     		str	r5, [r3]
 301:main.c        **** }
 2073              		.loc 2 301 0
 2074 00aa 019B     		ldr	r3, [sp, #4]
 2075 00ac C3F80090 		str	r9, [r3]
 302:main.c        **** 
 2076              		.loc 2 302 0
 2077 00b0 03B0     		add	sp, sp, #12
 2078              		.cfi_def_cfa_offset 36
 2079              	.LVL260:
 2080              		@ sp needed
ARM GAS  C:\Users\FRANKL~1\AppData\Local\Temp\ccba5qpo.s 			page 59


 2081 00b2 BDE8F08F 		pop	{r4, r5, r6, r7, r8, r9, r10, fp, pc}
 2082              		.cfi_endproc
 2083              	.LFE85:
 2084              		.size	SAR1_Measure_V, .-SAR1_Measure_V
 2085 00b6 00BF     		.section	.text.SAR2_Measure_V,"ax",%progbits
 2086              		.align	2
 2087              		.global	SAR2_Measure_V
 2088              		.thumb
 2089              		.thumb_func
 2090              		.type	SAR2_Measure_V, %function
 2091              	SAR2_Measure_V:
 2092              	.LFB86:
 305:main.c        **** 	int32 SAR_Result = 0;
 2093              		.loc 2 305 0
 2094              		.cfi_startproc
 2095              		@ args = 0, pretend = 0, frame = 8
 2096              		@ frame_needed = 0, uses_anonymous_args = 0
 2097              	.LVL261:
 2098 0000 2DE9F04F 		push	{r4, r5, r6, r7, r8, r9, r10, fp, lr}
 2099              		.cfi_def_cfa_offset 36
 2100              		.cfi_offset 4, -36
 2101              		.cfi_offset 5, -32
 2102              		.cfi_offset 6, -28
 2103              		.cfi_offset 7, -24
 2104              		.cfi_offset 8, -20
 2105              		.cfi_offset 9, -16
 2106              		.cfi_offset 10, -12
 2107              		.cfi_offset 11, -8
 2108              		.cfi_offset 14, -4
 2109 0004 83B0     		sub	sp, sp, #12
 2110              		.cfi_def_cfa_offset 48
 2111 0006 0090     		str	r0, [sp]
 2112 0008 0191     		str	r1, [sp, #4]
 2113 000a 9346     		mov	fp, r2
 2114              	.LVL262:
 2115              	.LBB27:
 309:main.c        **** 		ADC_SAR_2_StartConvert();
 2116              		.loc 2 309 0
 2117 000c 0124     		movs	r4, #1
 2118              	.LBE27:
 307:main.c        **** 	
 2119              		.loc 2 307 0
 2120 000e 4FF00009 		mov	r9, #0
 306:main.c        **** 	int32 SAR_SD = 0;
 2121              		.loc 2 306 0
 2122 0012 4D46     		mov	r5, r9
 2123              	.LBB29:
 309:main.c        **** 		ADC_SAR_2_StartConvert();
 2124              		.loc 2 309 0
 2125 0014 45E0     		b	.L176
 2126              	.LVL263:
 2127              	.L178:
 2128              	.LBB28:
 310:main.c        **** 		while (!ADC_SAR_2_IsEndConversion(ADC_SAR_2_RETURN_STATUS));
 2129              		.loc 2 310 0
 2130 0016 FFF7FEFF 		bl	ADC_SAR_2_StartConvert
 2131              	.LVL264:
ARM GAS  C:\Users\FRANKL~1\AppData\Local\Temp\ccba5qpo.s 			page 60


 2132              	.L177:
 311:main.c        **** 		
 2133              		.loc 2 311 0 discriminator 1
 2134 001a 0120     		movs	r0, #1
 2135 001c FFF7FEFF 		bl	ADC_SAR_2_IsEndConversion
 2136              	.LVL265:
 2137 0020 0028     		cmp	r0, #0
 2138 0022 FAD0     		beq	.L177
 313:main.c        **** 		
 2139              		.loc 2 313 0 discriminator 2
 2140 0024 FFF7FEFF 		bl	ADC_SAR_2_GetResult16
 2141              	.LVL266:
 2142 0028 FFF7FEFF 		bl	ADC_SAR_2_CountsTo_uVolts
 2143              	.LVL267:
 2144 002c 0746     		mov	r7, r0
 2145              	.LVL268:
 315:main.c        **** 		SAR_Result += ((float)SAR2_Result_Current - (float)SAR_Result)/(float)i;
 2146              		.loc 2 315 0 discriminator 2
 2147 002e 601E     		subs	r0, r4, #1
 2148              	.LVL269:
 2149 0030 FFF7FEFF 		bl	__aeabi_ui2f
 2150              	.LVL270:
 2151 0034 8046     		mov	r8, r0
 2152 0036 2046     		mov	r0, r4
 2153 0038 FFF7FEFF 		bl	__aeabi_ui2f
 2154              	.LVL271:
 2155 003c 0646     		mov	r6, r0
 2156 003e 0146     		mov	r1, r0
 2157 0040 4046     		mov	r0, r8
 2158 0042 FFF7FEFF 		bl	__aeabi_fdiv
 2159              	.LVL272:
 2160 0046 8246     		mov	r10, r0
 2161 0048 781B     		subs	r0, r7, r5
 2162 004a FFF7FEFF 		bl	__aeabi_i2f
 2163              	.LVL273:
 2164 004e 8046     		mov	r8, r0
 2165 0050 0146     		mov	r1, r0
 2166 0052 5046     		mov	r0, r10
 2167 0054 FFF7FEFF 		bl	__aeabi_fmul
 2168              	.LVL274:
 2169 0058 0146     		mov	r1, r0
 2170 005a 4046     		mov	r0, r8
 2171 005c FFF7FEFF 		bl	__aeabi_fmul
 2172              	.LVL275:
 2173 0060 8046     		mov	r8, r0
 2174 0062 4846     		mov	r0, r9
 2175 0064 FFF7FEFF 		bl	__aeabi_i2f
 2176              	.LVL276:
 2177 0068 4146     		mov	r1, r8
 2178 006a FFF7FEFF 		bl	__aeabi_fadd
 2179              	.LVL277:
 2180 006e FFF7FEFF 		bl	__aeabi_f2iz
 2181              	.LVL278:
 2182 0072 8146     		mov	r9, r0
 2183              	.LVL279:
 316:main.c        **** 	}
 2184              		.loc 2 316 0 discriminator 2
ARM GAS  C:\Users\FRANKL~1\AppData\Local\Temp\ccba5qpo.s 			page 61


 2185 0074 3846     		mov	r0, r7
 2186              	.LVL280:
 2187 0076 FFF7FEFF 		bl	__aeabi_i2f
 2188              	.LVL281:
 2189 007a 0746     		mov	r7, r0
 2190              	.LVL282:
 2191 007c 2846     		mov	r0, r5
 2192 007e FFF7FEFF 		bl	__aeabi_i2f
 2193              	.LVL283:
 2194 0082 0546     		mov	r5, r0
 2195              	.LVL284:
 2196 0084 0146     		mov	r1, r0
 2197 0086 3846     		mov	r0, r7
 2198 0088 FFF7FEFF 		bl	__aeabi_fsub
 2199              	.LVL285:
 2200 008c 3146     		mov	r1, r6
 2201 008e FFF7FEFF 		bl	__aeabi_fdiv
 2202              	.LVL286:
 2203 0092 0146     		mov	r1, r0
 2204 0094 2846     		mov	r0, r5
 2205 0096 FFF7FEFF 		bl	__aeabi_fadd
 2206              	.LVL287:
 2207 009a FFF7FEFF 		bl	__aeabi_f2iz
 2208              	.LVL288:
 2209 009e 0546     		mov	r5, r0
 2210              	.LVL289:
 2211              	.LBE28:
 309:main.c        **** 		ADC_SAR_2_StartConvert();
 2212              		.loc 2 309 0 discriminator 2
 2213 00a0 0134     		adds	r4, r4, #1
 2214              	.LVL290:
 2215              	.L176:
 309:main.c        **** 		ADC_SAR_2_StartConvert();
 2216              		.loc 2 309 0 is_stmt 0 discriminator 1
 2217 00a2 5C45     		cmp	r4, fp
 2218 00a4 B7D9     		bls	.L178
 2219              	.LBE29:
 319:main.c        **** 	*standardDeviation = SAR_SD;
 2220              		.loc 2 319 0 is_stmt 1
 2221 00a6 009B     		ldr	r3, [sp]
 2222 00a8 1D60     		str	r5, [r3]
 320:main.c        **** }
 2223              		.loc 2 320 0
 2224 00aa 019B     		ldr	r3, [sp, #4]
 2225 00ac C3F80090 		str	r9, [r3]
 321:main.c        **** 
 2226              		.loc 2 321 0
 2227 00b0 03B0     		add	sp, sp, #12
 2228              		.cfi_def_cfa_offset 36
 2229              	.LVL291:
 2230              		@ sp needed
 2231 00b2 BDE8F08F 		pop	{r4, r5, r6, r7, r8, r9, r10, fp, pc}
 2232              		.cfi_endproc
 2233              	.LFE86:
 2234              		.size	SAR2_Measure_V, .-SAR2_Measure_V
 2235              		.global	__aeabi_f2d
 2236              		.global	__aeabi_ddiv
ARM GAS  C:\Users\FRANKL~1\AppData\Local\Temp\ccba5qpo.s 			page 62


 2237              		.global	__aeabi_d2f
 2238              		.global	__aeabi_i2d
 2239              		.global	__aeabi_dcmpgt
 2240              		.global	__aeabi_dsub
 2241              		.global	__aeabi_dmul
 2242              		.global	__aeabi_dadd
 2243 00b6 00BF     		.section	.text.Measure_Current_Vss,"ax",%progbits
 2244              		.align	2
 2245              		.global	Measure_Current_Vss
 2246              		.thumb
 2247              		.thumb_func
 2248              		.type	Measure_Current_Vss, %function
 2249              	Measure_Current_Vss:
 2250              	.LFB87:
 324:main.c        **** 	Compliance_Reached = 0;
 2251              		.loc 2 324 0
 2252              		.cfi_startproc
 2253              		@ args = 0, pretend = 0, frame = 32
 2254              		@ frame_needed = 0, uses_anonymous_args = 0
 2255              	.LVL292:
 2256 0000 2DE9F04F 		push	{r4, r5, r6, r7, r8, r9, r10, fp, lr}
 2257              		.cfi_def_cfa_offset 36
 2258              		.cfi_offset 4, -36
 2259              		.cfi_offset 5, -32
 2260              		.cfi_offset 6, -28
 2261              		.cfi_offset 7, -24
 2262              		.cfi_offset 8, -20
 2263              		.cfi_offset 9, -16
 2264              		.cfi_offset 10, -12
 2265              		.cfi_offset 11, -8
 2266              		.cfi_offset 14, -4
 2267 0004 89B0     		sub	sp, sp, #36
 2268              		.cfi_def_cfa_offset 72
 2269 0006 0490     		str	r0, [sp, #16]
 2270 0008 0591     		str	r1, [sp, #20]
 2271 000a 9346     		mov	fp, r2
 325:main.c        **** 	
 2272              		.loc 2 325 0
 2273 000c 0023     		movs	r3, #0
 2274 000e 4A4A     		ldr	r2, .L189+16
 2275              	.LVL293:
 2276 0010 1370     		strb	r3, [r2]
 328:main.c        **** 	int32 voltageSD = 0;
 2277              		.loc 2 328 0
 2278 0012 0793     		str	r3, [sp, #28]
 329:main.c        **** 	
 2279              		.loc 2 329 0
 2280 0014 08AC     		add	r4, sp, #32
 2281 0016 44F8083D 		str	r3, [r4, #-8]!
 2282              	.LVL294:
 337:main.c        **** 	float unitConversion = -1.0e-6/TIA_Feedback_R;
 2283              		.loc 2 337 0
 2284 001a 484B     		ldr	r3, .L189+20
 2285 001c 1A78     		ldrb	r2, [r3]	@ zero_extendqisi2
 2286 001e 03EB8203 		add	r3, r3, r2, lsl #2
 2287              	.LVL295:
 338:main.c        **** 	
ARM GAS  C:\Users\FRANKL~1\AppData\Local\Temp\ccba5qpo.s 			page 63


 2288              		.loc 2 338 0
 2289 0022 D868     		ldr	r0, [r3, #12]	@ float
 2290              	.LVL296:
 2291 0024 FFF7FEFF 		bl	__aeabi_f2d
 2292              	.LVL297:
 2293 0028 0246     		mov	r2, r0
 2294 002a 0B46     		mov	r3, r1
 2295 002c 3EA1     		adr	r1, .L189
 2296 002e D1E90001 		ldrd	r0, [r1]
 2297 0032 FFF7FEFF 		bl	__aeabi_ddiv
 2298              	.LVL298:
 2299 0036 FFF7FEFF 		bl	__aeabi_d2f
 2300              	.LVL299:
 2301 003a 0390     		str	r0, [sp, #12]	@ float
 2302              	.LVL300:
 341:main.c        **** 	
 2303              		.loc 2 341 0
 2304 003c 0322     		movs	r2, #3
 2305 003e 2146     		mov	r1, r4
 2306 0040 07A8     		add	r0, sp, #28
 2307              	.LVL301:
 2308 0042 FFF7FEFF 		bl	ADC_Measure_uV
 2309              	.LVL302:
 2310              	.LBB30:
 344:main.c        **** 		ADC_Measure_uV(&voltage, &voltageSD, 1);
 2311              		.loc 2 344 0
 2312 0046 0124     		movs	r4, #1
 2313              	.LBE30:
 335:main.c        **** 	
 2314              		.loc 2 335 0
 2315 0048 4FF00008 		mov	r8, #0
 334:main.c        **** 	float currentStdDev = 0;
 2316              		.loc 2 334 0
 2317 004c C146     		mov	r9, r8
 2318              	.LBB31:
 344:main.c        **** 		ADC_Measure_uV(&voltage, &voltageSD, 1);
 2319              		.loc 2 344 0
 2320 004e 5EE0     		b	.L181
 2321              	.LVL303:
 2322              	.L185:
 345:main.c        **** 		
 2323              		.loc 2 345 0
 2324 0050 0122     		movs	r2, #1
 2325 0052 06A9     		add	r1, sp, #24
 2326 0054 07A8     		add	r0, sp, #28
 2327 0056 FFF7FEFF 		bl	ADC_Measure_uV
 2328              	.LVL304:
 347:main.c        **** 		
 2329              		.loc 2 347 0
 2330 005a 0798     		ldr	r0, [sp, #28]
 2331 005c FFF7FEFF 		bl	__aeabi_i2f
 2332              	.LVL305:
 2333 0060 0146     		mov	r1, r0
 2334 0062 0398     		ldr	r0, [sp, #12]	@ float
 2335 0064 FFF7FEFF 		bl	__aeabi_fmul
 2336              	.LVL306:
 2337 0068 0546     		mov	r5, r0
ARM GAS  C:\Users\FRANKL~1\AppData\Local\Temp\ccba5qpo.s 			page 64


 2338              	.LVL307:
 349:main.c        **** 			Compliance_Reached += 1;
 2339              		.loc 2 349 0
 2340 006a FFF7FEFF 		bl	__aeabi_f2iz
 2341              	.LVL308:
 2342 006e 0028     		cmp	r0, #0
 2343 0070 B8BF     		it	lt
 2344 0072 4042     		rsblt	r0, r0, #0
 2345 0074 FFF7FEFF 		bl	__aeabi_i2d
 2346              	.LVL309:
 2347 0078 2DA3     		adr	r3, .L189+8
 2348 007a D3E90023 		ldrd	r2, [r3]
 2349 007e FFF7FEFF 		bl	__aeabi_dcmpgt
 2350              	.LVL310:
 2351 0082 20B1     		cbz	r0, .L187
 350:main.c        **** 			break;
 2352              		.loc 2 350 0
 2353 0084 2C4A     		ldr	r2, .L189+16
 2354 0086 1378     		ldrb	r3, [r2]	@ zero_extendqisi2
 2355 0088 0133     		adds	r3, r3, #1
 2356 008a 1370     		strb	r3, [r2]
 351:main.c        **** 		} else {
 2357              		.loc 2 351 0
 2358 008c 41E0     		b	.L184
 2359              	.L187:
 353:main.c        **** 		}
 2360              		.loc 2 353 0 discriminator 2
 2361 008e 0022     		movs	r2, #0
 2362 0090 294B     		ldr	r3, .L189+16
 2363 0092 1A70     		strb	r2, [r3]
 356:main.c        **** 		currentAverage += (currentNow - currentAverage)/(float)i;
 2364              		.loc 2 356 0 discriminator 2
 2365 0094 2046     		mov	r0, r4
 2366 0096 FFF7FEFF 		bl	__aeabi_ui2f
 2367              	.LVL311:
 2368 009a 8246     		mov	r10, r0
 2369 009c FFF7FEFF 		bl	__aeabi_f2d
 2370              	.LVL312:
 2371 00a0 0646     		mov	r6, r0
 2372 00a2 0F46     		mov	r7, r1
 2373 00a4 0022     		movs	r2, #0
 2374 00a6 264B     		ldr	r3, .L189+24
 2375 00a8 FFF7FEFF 		bl	__aeabi_dsub
 2376              	.LVL313:
 2377 00ac 3246     		mov	r2, r6
 2378 00ae 3B46     		mov	r3, r7
 2379 00b0 FFF7FEFF 		bl	__aeabi_ddiv
 2380              	.LVL314:
 2381 00b4 CDE90001 		strd	r0, [sp]
 2382 00b8 4946     		mov	r1, r9
 2383 00ba 2846     		mov	r0, r5
 2384 00bc FFF7FEFF 		bl	__aeabi_fsub
 2385              	.LVL315:
 2386 00c0 0546     		mov	r5, r0
 2387              	.LVL316:
 2388 00c2 FFF7FEFF 		bl	__aeabi_f2d
 2389              	.LVL317:
ARM GAS  C:\Users\FRANKL~1\AppData\Local\Temp\ccba5qpo.s 			page 65


 2390 00c6 0646     		mov	r6, r0
 2391 00c8 0F46     		mov	r7, r1
 2392 00ca 0246     		mov	r2, r0
 2393 00cc 0B46     		mov	r3, r1
 2394 00ce DDE90001 		ldrd	r0, [sp]
 2395 00d2 FFF7FEFF 		bl	__aeabi_dmul
 2396              	.LVL318:
 2397 00d6 0246     		mov	r2, r0
 2398 00d8 0B46     		mov	r3, r1
 2399 00da 3046     		mov	r0, r6
 2400 00dc 3946     		mov	r1, r7
 2401 00de FFF7FEFF 		bl	__aeabi_dmul
 2402              	.LVL319:
 2403 00e2 0646     		mov	r6, r0
 2404 00e4 0F46     		mov	r7, r1
 2405 00e6 4046     		mov	r0, r8
 2406 00e8 FFF7FEFF 		bl	__aeabi_f2d
 2407              	.LVL320:
 2408 00ec 3246     		mov	r2, r6
 2409 00ee 3B46     		mov	r3, r7
 2410 00f0 FFF7FEFF 		bl	__aeabi_dadd
 2411              	.LVL321:
 2412 00f4 FFF7FEFF 		bl	__aeabi_d2f
 2413              	.LVL322:
 2414 00f8 8046     		mov	r8, r0
 2415              	.LVL323:
 357:main.c        **** 	}
 2416              		.loc 2 357 0 discriminator 2
 2417 00fa 5146     		mov	r1, r10
 2418 00fc 2846     		mov	r0, r5
 2419              	.LVL324:
 2420 00fe FFF7FEFF 		bl	__aeabi_fdiv
 2421              	.LVL325:
 2422 0102 0146     		mov	r1, r0
 2423 0104 4846     		mov	r0, r9
 2424 0106 FFF7FEFF 		bl	__aeabi_fadd
 2425              	.LVL326:
 2426 010a 8146     		mov	r9, r0
 2427              	.LVL327:
 344:main.c        **** 		ADC_Measure_uV(&voltage, &voltageSD, 1);
 2428              		.loc 2 344 0 discriminator 2
 2429 010c 0134     		adds	r4, r4, #1
 2430              	.LVL328:
 2431              	.L181:
 344:main.c        **** 		ADC_Measure_uV(&voltage, &voltageSD, 1);
 2432              		.loc 2 344 0 is_stmt 0 discriminator 1
 2433 010e 5C45     		cmp	r4, fp
 2434 0110 9ED9     		bls	.L185
 2435              	.L184:
 2436              	.LBE31:
 360:main.c        **** 	*currentStdDevIn = currentStdDev;
 2437              		.loc 2 360 0 is_stmt 1
 2438 0112 049B     		ldr	r3, [sp, #16]
 2439 0114 C3F80090 		str	r9, [r3]	@ float
 361:main.c        **** }
 2440              		.loc 2 361 0
 2441 0118 059B     		ldr	r3, [sp, #20]
ARM GAS  C:\Users\FRANKL~1\AppData\Local\Temp\ccba5qpo.s 			page 66


 2442 011a C3F80080 		str	r8, [r3]	@ float
 362:main.c        **** 
 2443              		.loc 2 362 0
 2444 011e 09B0     		add	sp, sp, #36
 2445              		.cfi_def_cfa_offset 36
 2446              		@ sp needed
 2447 0120 BDE8F08F 		pop	{r4, r5, r6, r7, r8, r9, r10, fp, pc}
 2448              	.LVL329:
 2449              	.L190:
 2450 0124 AFF30080 		.align	3
 2451              	.L189:
 2452 0128 8DEDB5A0 		.word	-1598689907
 2453 012c F7C6B0BE 		.word	-1095710985
 2454 0130 F168E388 		.word	-1998362383
 2455 0134 B5F8E43E 		.word	1055193269
 2456 0138 00000000 		.word	Compliance_Reached
 2457 013c 00000000 		.word	.LANCHOR1
 2458 0140 0000F03F 		.word	1072693248
 2459              		.cfi_endproc
 2460              	.LFE87:
 2461              		.size	Measure_Current_Vss, .-Measure_Current_Vss
 2462              		.section	.text.At_Compliance,"ax",%progbits
 2463              		.align	2
 2464              		.global	At_Compliance
 2465              		.thumb
 2466              		.thumb_func
 2467              		.type	At_Compliance, %function
 2468              	At_Compliance:
 2469              	.LFB88:
 364:main.c        **** 	Compliance_Reached = 0;
 2470              		.loc 2 364 0
 2471              		.cfi_startproc
 2472              		@ args = 0, pretend = 0, frame = 8
 2473              		@ frame_needed = 0, uses_anonymous_args = 0
 2474 0000 00B5     		push	{lr}
 2475              		.cfi_def_cfa_offset 4
 2476              		.cfi_offset 14, -4
 2477 0002 83B0     		sub	sp, sp, #12
 2478              		.cfi_def_cfa_offset 16
 365:main.c        **** 	
 2479              		.loc 2 365 0
 2480 0004 0022     		movs	r2, #0
 2481 0006 124B     		ldr	r3, .L198+8
 2482 0008 1A70     		strb	r2, [r3]
 367:main.c        **** 	float currentSD = 0;
 2483              		.loc 2 367 0
 2484 000a 0023     		movs	r3, #0
 2485 000c 0193     		str	r3, [sp, #4]	@ float
 368:main.c        **** 	
 2486              		.loc 2 368 0
 2487 000e 02A9     		add	r1, sp, #8
 2488 0010 41F8083D 		str	r3, [r1, #-8]!	@ float
 370:main.c        **** 	
 2489              		.loc 2 370 0
 2490 0014 0322     		movs	r2, #3
 2491 0016 01A8     		add	r0, sp, #4
 2492 0018 FFF7FEFF 		bl	Measure_Current_Vss
ARM GAS  C:\Users\FRANKL~1\AppData\Local\Temp\ccba5qpo.s 			page 67


 2493              	.LVL330:
 372:main.c        **** 		Compliance_Reached = 1;
 2494              		.loc 2 372 0
 2495 001c 0198     		ldr	r0, [sp, #4]	@ float
 2496 001e FFF7FEFF 		bl	__aeabi_f2iz
 2497              	.LVL331:
 2498 0022 0028     		cmp	r0, #0
 2499 0024 B8BF     		it	lt
 2500 0026 4042     		rsblt	r0, r0, #0
 2501 0028 FFF7FEFF 		bl	__aeabi_i2d
 2502              	.LVL332:
 2503 002c 06A3     		adr	r3, .L198
 2504 002e D3E90023 		ldrd	r2, [r3]
 2505 0032 FFF7FEFF 		bl	__aeabi_dcmpgt
 2506              	.LVL333:
 2507 0036 18B1     		cbz	r0, .L196
 373:main.c        **** 		return 1;
 2508              		.loc 2 373 0
 2509 0038 0120     		movs	r0, #1
 2510 003a 054B     		ldr	r3, .L198+8
 2511 003c 1870     		strb	r0, [r3]
 374:main.c        **** 	}
 2512              		.loc 2 374 0
 2513 003e 00E0     		b	.L192
 2514              	.L196:
 377:main.c        **** }
 2515              		.loc 2 377 0
 2516 0040 0020     		movs	r0, #0
 2517              	.L192:
 378:main.c        **** 
 2518              		.loc 2 378 0
 2519 0042 03B0     		add	sp, sp, #12
 2520              		.cfi_def_cfa_offset 4
 2521              		@ sp needed
 2522 0044 5DF804FB 		ldr	pc, [sp], #4
 2523              	.L199:
 2524              		.align	3
 2525              	.L198:
 2526 0048 F168E388 		.word	-1998362383
 2527 004c B5F8E43E 		.word	1055193269
 2528 0050 00000000 		.word	Compliance_Reached
 2529              		.cfi_endproc
 2530              	.LFE88:
 2531              		.size	At_Compliance, .-At_Compliance
 2532              		.section	.text.Handle_Compliance_Breach,"ax",%progbits
 2533              		.align	2
 2534              		.global	Handle_Compliance_Breach
 2535              		.thumb
 2536              		.thumb_func
 2537              		.type	Handle_Compliance_Breach, %function
 2538              	Handle_Compliance_Breach:
 2539              	.LFB89:
 380:main.c        **** 	uint8 istart = VDAC_Vds_Data;
 2540              		.loc 2 380 0
 2541              		.cfi_startproc
 2542              		@ args = 0, pretend = 0, frame = 0
 2543              		@ frame_needed = 0, uses_anonymous_args = 0
ARM GAS  C:\Users\FRANKL~1\AppData\Local\Temp\ccba5qpo.s 			page 68


 2544 0000 70B5     		push	{r4, r5, r6, lr}
 2545              		.cfi_def_cfa_offset 16
 2546              		.cfi_offset 4, -16
 2547              		.cfi_offset 5, -12
 2548              		.cfi_offset 6, -8
 2549              		.cfi_offset 14, -4
 381:main.c        **** 	uint8 istop = VDAC_Ref_Data;
 2550              		.loc 2 381 0
 2551 0002 174B     		ldr	r3, .L211
 2552 0004 1C78     		ldrb	r4, [r3]	@ zero_extendqisi2
 2553 0006 E4B2     		uxtb	r4, r4
 2554              	.LVL334:
 382:main.c        **** 	int8 increment = 1;
 2555              		.loc 2 382 0
 2556 0008 0233     		adds	r3, r3, #2
 2557 000a 1D78     		ldrb	r5, [r3]	@ zero_extendqisi2
 2558 000c EDB2     		uxtb	r5, r5
 2559              	.LVL335:
 384:main.c        **** 	
 2560              		.loc 2 384 0
 2561 000e AC42     		cmp	r4, r5
 2562 0010 01D3     		bcc	.L208
 383:main.c        **** 	if (istart < istop) increment = -1;
 2563              		.loc 2 383 0
 2564 0012 0126     		movs	r6, #1
 2565 0014 0AE0     		b	.L202
 2566              	.L208:
 384:main.c        **** 	
 2567              		.loc 2 384 0
 2568 0016 4FF0FF36 		mov	r6, #-1
 2569              	.LVL336:
 2570              	.LBB32:
 386:main.c        **** 		VDAC_Vds_SetValue(i);
 2571              		.loc 2 386 0
 2572 001a 07E0     		b	.L202
 2573              	.LVL337:
 2574              	.L204:
 387:main.c        **** 		
 2575              		.loc 2 387 0
 2576 001c 2046     		mov	r0, r4
 2577 001e FFF7FEFF 		bl	VDAC_Vds_SetValue
 2578              	.LVL338:
 389:main.c        **** 	}
 2579              		.loc 2 389 0
 2580 0022 FFF7FEFF 		bl	At_Compliance
 2581              	.LVL339:
 2582 0026 D0B1     		cbz	r0, .L200
 386:main.c        **** 		VDAC_Vds_SetValue(i);
 2583              		.loc 2 386 0 discriminator 2
 2584 0028 3444     		add	r4, r4, r6
 2585              	.LVL340:
 2586 002a E4B2     		uxtb	r4, r4
 2587              	.LVL341:
 2588              	.L202:
 386:main.c        **** 		VDAC_Vds_SetValue(i);
 2589              		.loc 2 386 0 is_stmt 0 discriminator 1
 2590 002c AC42     		cmp	r4, r5
ARM GAS  C:\Users\FRANKL~1\AppData\Local\Temp\ccba5qpo.s 			page 69


 2591 002e F5D1     		bne	.L204
 2592              	.LBE32:
 392:main.c        **** 	istop = VDAC_Ref_Data;
 2593              		.loc 2 392 0 is_stmt 1
 2594 0030 0C4B     		ldr	r3, .L211+4
 2595 0032 1C78     		ldrb	r4, [r3]	@ zero_extendqisi2
 2596              	.LVL342:
 2597 0034 E4B2     		uxtb	r4, r4
 2598              	.LVL343:
 393:main.c        **** 	increment = 1;
 2599              		.loc 2 393 0
 2600 0036 013B     		subs	r3, r3, #1
 2601 0038 1D78     		ldrb	r5, [r3]	@ zero_extendqisi2
 2602              	.LVL344:
 2603 003a EDB2     		uxtb	r5, r5
 2604              	.LVL345:
 395:main.c        **** 	
 2605              		.loc 2 395 0
 2606 003c AC42     		cmp	r4, r5
 2607 003e 01D3     		bcc	.L209
 394:main.c        **** 	if (istart < istop) increment = -1;
 2608              		.loc 2 394 0
 2609 0040 0126     		movs	r6, #1
 2610 0042 0AE0     		b	.L206
 2611              	.L209:
 395:main.c        **** 	
 2612              		.loc 2 395 0
 2613 0044 4FF0FF36 		mov	r6, #-1
 2614              	.LVL346:
 2615              	.LBB33:
 397:main.c        **** 		VDAC_Vgs_SetValue(i);
 2616              		.loc 2 397 0
 2617 0048 07E0     		b	.L206
 2618              	.LVL347:
 2619              	.L207:
 398:main.c        **** 		
 2620              		.loc 2 398 0
 2621 004a 2046     		mov	r0, r4
 2622 004c FFF7FEFF 		bl	VDAC_Vgs_SetValue
 2623              	.LVL348:
 400:main.c        **** 	}
 2624              		.loc 2 400 0
 2625 0050 FFF7FEFF 		bl	At_Compliance
 2626              	.LVL349:
 2627 0054 18B1     		cbz	r0, .L200
 397:main.c        **** 		VDAC_Vgs_SetValue(i);
 2628              		.loc 2 397 0 discriminator 2
 2629 0056 3444     		add	r4, r4, r6
 2630              	.LVL350:
 2631 0058 E4B2     		uxtb	r4, r4
 2632              	.LVL351:
 2633              	.L206:
 397:main.c        **** 		VDAC_Vgs_SetValue(i);
 2634              		.loc 2 397 0 is_stmt 0 discriminator 1
 2635 005a AC42     		cmp	r4, r5
 2636 005c F5D1     		bne	.L207
 2637              	.LVL352:
ARM GAS  C:\Users\FRANKL~1\AppData\Local\Temp\ccba5qpo.s 			page 70


 2638              	.L200:
 2639 005e 70BD     		pop	{r4, r5, r6, pc}
 2640              	.LVL353:
 2641              	.L212:
 2642              		.align	2
 2643              	.L211:
 2644 0060 805B0040 		.word	1073765248
 2645 0064 835B0040 		.word	1073765251
 2646              	.LBE33:
 2647              		.cfi_endproc
 2648              	.LFE89:
 2649              		.size	Handle_Compliance_Breach, .-Handle_Compliance_Breach
 2650              		.section	.text.Get_Ref,"ax",%progbits
 2651              		.align	2
 2652              		.global	Get_Ref
 2653              		.thumb
 2654              		.thumb_func
 2655              		.type	Get_Ref, %function
 2656              	Get_Ref:
 2657              	.LFB90:
 407:main.c        **** 	float result = 4.080/255.0*VDAC_Ref_Data;
 2658              		.loc 2 407 0 is_stmt 1
 2659              		.cfi_startproc
 2660              		@ args = 0, pretend = 0, frame = 0
 2661              		@ frame_needed = 0, uses_anonymous_args = 0
 2662 0000 08B5     		push	{r3, lr}
 2663              		.cfi_def_cfa_offset 8
 2664              		.cfi_offset 3, -8
 2665              		.cfi_offset 14, -4
 408:main.c        **** 	if (VDAC_Ref_CR0 & (VDAC_Ref_RANGE_1V & VDAC_Ref_RANGE_MASK)) {
 2666              		.loc 2 408 0
 2667 0002 094B     		ldr	r3, .L215+8
 2668 0004 1878     		ldrb	r0, [r3]	@ zero_extendqisi2
 2669 0006 FFF7FEFF 		bl	__aeabi_i2d
 2670              	.LVL354:
 2671 000a 05A3     		adr	r3, .L215
 2672 000c D3E90023 		ldrd	r2, [r3]
 2673 0010 FFF7FEFF 		bl	__aeabi_dmul
 2674              	.LVL355:
 2675 0014 FFF7FEFF 		bl	__aeabi_d2f
 2676              	.LVL356:
 409:main.c        **** 		result = 1.020/255.0*VDAC_Ref_Data;
 2677              		.loc 2 409 0
 2678 0018 044B     		ldr	r3, .L215+12
 2679 001a 1B78     		ldrb	r3, [r3]	@ zero_extendqisi2
 413:main.c        **** 
 2680              		.loc 2 413 0
 2681 001c 08BD     		pop	{r3, pc}
 2682              	.L216:
 2683 001e 00BF     		.align	3
 2684              	.L215:
 2685 0020 FCA9F1D2 		.word	-755914244
 2686 0024 4D62903F 		.word	1066426957
 2687 0028 825B0040 		.word	1073765250
 2688 002c 28580040 		.word	1073764392
 2689              		.cfi_endproc
 2690              	.LFE90:
ARM GAS  C:\Users\FRANKL~1\AppData\Local\Temp\ccba5qpo.s 			page 71


 2691              		.size	Get_Ref, .-Get_Ref
 2692              		.section	.text.Get_Vgs,"ax",%progbits
 2693              		.align	2
 2694              		.global	Get_Vgs
 2695              		.thumb
 2696              		.thumb_func
 2697              		.type	Get_Vgs, %function
 2698              	Get_Vgs:
 2699              	.LFB91:
 416:main.c        **** 	float result = 4.080/255.0*VDAC_Vgs_Data - Get_Ref();
 2700              		.loc 2 416 0
 2701              		.cfi_startproc
 2702              		@ args = 0, pretend = 0, frame = 0
 2703              		@ frame_needed = 0, uses_anonymous_args = 0
 2704 0000 38B5     		push	{r3, r4, r5, lr}
 2705              		.cfi_def_cfa_offset 16
 2706              		.cfi_offset 3, -16
 2707              		.cfi_offset 4, -12
 2708              		.cfi_offset 5, -8
 2709              		.cfi_offset 14, -4
 417:main.c        **** 	if (VDAC_Vgs_CR0 & (VDAC_Vgs_RANGE_1V & VDAC_Vgs_RANGE_MASK)) {
 2710              		.loc 2 417 0
 2711 0002 0F4B     		ldr	r3, .L219+8
 2712 0004 1878     		ldrb	r0, [r3]	@ zero_extendqisi2
 2713 0006 FFF7FEFF 		bl	__aeabi_i2d
 2714              	.LVL357:
 2715 000a 0BA3     		adr	r3, .L219
 2716 000c D3E90023 		ldrd	r2, [r3]
 2717 0010 FFF7FEFF 		bl	__aeabi_dmul
 2718              	.LVL358:
 2719 0014 0446     		mov	r4, r0
 2720 0016 0D46     		mov	r5, r1
 2721 0018 FFF7FEFF 		bl	Get_Ref
 2722              	.LVL359:
 2723 001c FFF7FEFF 		bl	__aeabi_f2d
 2724              	.LVL360:
 2725 0020 0246     		mov	r2, r0
 2726 0022 0B46     		mov	r3, r1
 2727 0024 2046     		mov	r0, r4
 2728 0026 2946     		mov	r1, r5
 2729 0028 FFF7FEFF 		bl	__aeabi_dsub
 2730              	.LVL361:
 2731 002c FFF7FEFF 		bl	__aeabi_d2f
 2732              	.LVL362:
 418:main.c        **** 		result = 1.020/255.0*VDAC_Vgs_Data - Get_Ref();
 2733              		.loc 2 418 0
 2734 0030 044B     		ldr	r3, .L219+12
 2735 0032 1B78     		ldrb	r3, [r3]	@ zero_extendqisi2
 422:main.c        **** 
 2736              		.loc 2 422 0
 2737 0034 38BD     		pop	{r3, r4, r5, pc}
 2738              	.L220:
 2739 0036 00BF     		.align	3
 2740              	.L219:
 2741 0038 FCA9F1D2 		.word	-755914244
 2742 003c 4D62903F 		.word	1066426957
 2743 0040 835B0040 		.word	1073765251
ARM GAS  C:\Users\FRANKL~1\AppData\Local\Temp\ccba5qpo.s 			page 72


 2744 0044 2C580040 		.word	1073764396
 2745              		.cfi_endproc
 2746              	.LFE91:
 2747              		.size	Get_Vgs, .-Get_Vgs
 2748              		.section	.text.Get_Vds,"ax",%progbits
 2749              		.align	2
 2750              		.global	Get_Vds
 2751              		.thumb
 2752              		.thumb_func
 2753              		.type	Get_Vds, %function
 2754              	Get_Vds:
 2755              	.LFB92:
 425:main.c        **** 	float result = 4.080/255.0*VDAC_Vds_Data - Get_Ref();
 2756              		.loc 2 425 0
 2757              		.cfi_startproc
 2758              		@ args = 0, pretend = 0, frame = 0
 2759              		@ frame_needed = 0, uses_anonymous_args = 0
 2760 0000 38B5     		push	{r3, r4, r5, lr}
 2761              		.cfi_def_cfa_offset 16
 2762              		.cfi_offset 3, -16
 2763              		.cfi_offset 4, -12
 2764              		.cfi_offset 5, -8
 2765              		.cfi_offset 14, -4
 426:main.c        **** 	if (VDAC_Vds_CR0 & (VDAC_Vds_RANGE_1V & VDAC_Vds_RANGE_MASK)) {
 2766              		.loc 2 426 0
 2767 0002 0F4B     		ldr	r3, .L223+8
 2768 0004 1878     		ldrb	r0, [r3]	@ zero_extendqisi2
 2769 0006 FFF7FEFF 		bl	__aeabi_i2d
 2770              	.LVL363:
 2771 000a 0BA3     		adr	r3, .L223
 2772 000c D3E90023 		ldrd	r2, [r3]
 2773 0010 FFF7FEFF 		bl	__aeabi_dmul
 2774              	.LVL364:
 2775 0014 0446     		mov	r4, r0
 2776 0016 0D46     		mov	r5, r1
 2777 0018 FFF7FEFF 		bl	Get_Ref
 2778              	.LVL365:
 2779 001c FFF7FEFF 		bl	__aeabi_f2d
 2780              	.LVL366:
 2781 0020 0246     		mov	r2, r0
 2782 0022 0B46     		mov	r3, r1
 2783 0024 2046     		mov	r0, r4
 2784 0026 2946     		mov	r1, r5
 2785 0028 FFF7FEFF 		bl	__aeabi_dsub
 2786              	.LVL367:
 2787 002c FFF7FEFF 		bl	__aeabi_d2f
 2788              	.LVL368:
 427:main.c        **** 		result = 1.020/255.0*VDAC_Vds_Data - Get_Ref();
 2789              		.loc 2 427 0
 2790 0030 044B     		ldr	r3, .L223+12
 2791 0032 1B78     		ldrb	r3, [r3]	@ zero_extendqisi2
 431:main.c        **** 
 2792              		.loc 2 431 0
 2793 0034 38BD     		pop	{r3, r4, r5, pc}
 2794              	.L224:
 2795 0036 00BF     		.align	3
 2796              	.L223:
ARM GAS  C:\Users\FRANKL~1\AppData\Local\Temp\ccba5qpo.s 			page 73


 2797 0038 FCA9F1D2 		.word	-755914244
 2798 003c 4D62903F 		.word	1066426957
 2799 0040 805B0040 		.word	1073765248
 2800 0044 20580040 		.word	1073764384
 2801              		.cfi_endproc
 2802              	.LFE92:
 2803              		.size	Get_Vds, .-Get_Vds
 2804              		.section	.text.Set_Vds_Raw,"ax",%progbits
 2805              		.align	2
 2806              		.global	Set_Vds_Raw
 2807              		.thumb
 2808              		.thumb_func
 2809              		.type	Set_Vds_Raw, %function
 2810              	Set_Vds_Raw:
 2811              	.LFB93:
 436:main.c        **** 	Vds_Index_Goal_Relative = (int16)value - (int16)VDAC_Ref_Data;
 2812              		.loc 2 436 0
 2813              		.cfi_startproc
 2814              		@ args = 0, pretend = 0, frame = 0
 2815              		@ frame_needed = 0, uses_anonymous_args = 0
 2816              	.LVL369:
 2817 0000 2DE9F041 		push	{r4, r5, r6, r7, r8, lr}
 2818              		.cfi_def_cfa_offset 24
 2819              		.cfi_offset 4, -24
 2820              		.cfi_offset 5, -20
 2821              		.cfi_offset 6, -16
 2822              		.cfi_offset 7, -12
 2823              		.cfi_offset 8, -8
 2824              		.cfi_offset 14, -4
 2825 0004 8046     		mov	r8, r0
 437:main.c        **** 	
 2826              		.loc 2 437 0
 2827 0006 184B     		ldr	r3, .L236
 2828 0008 1B78     		ldrb	r3, [r3]	@ zero_extendqisi2
 2829 000a C31A     		subs	r3, r0, r3
 2830 000c 174A     		ldr	r2, .L236+4
 2831 000e 1380     		strh	r3, [r2]	@ movhi
 439:main.c        **** 	int8 increment = 1;
 2832              		.loc 2 439 0
 2833 0010 174B     		ldr	r3, .L236+8
 2834 0012 1D78     		ldrb	r5, [r3]	@ zero_extendqisi2
 2835 0014 EDB2     		uxtb	r5, r5
 2836              	.LVL370:
 441:main.c        **** 	
 2837              		.loc 2 441 0
 2838 0016 A842     		cmp	r0, r5
 2839 0018 01D3     		bcc	.L233
 440:main.c        **** 	if (istart > value) increment = -1;
 2840              		.loc 2 440 0
 2841 001a 0126     		movs	r6, #1
 2842 001c 01E0     		b	.L226
 2843              	.L233:
 441:main.c        **** 	
 2844              		.loc 2 441 0
 2845 001e 4FF0FF36 		mov	r6, #-1
 2846              	.L226:
 2847              	.LVL371:
ARM GAS  C:\Users\FRANKL~1\AppData\Local\Temp\ccba5qpo.s 			page 74


 2848              	.LBB34:
 443:main.c        **** 		if (At_Compliance()) {
 2849              		.loc 2 443 0
 2850 0022 0027     		movs	r7, #0
 2851 0024 1BE0     		b	.L227
 2852              	.LVL372:
 2853              	.L232:
 444:main.c        **** 			for (uint8 j = i; j != istart; j -= increment) {
 2854              		.loc 2 444 0
 2855 0026 FFF7FEFF 		bl	At_Compliance
 2856              	.LVL373:
 2857 002a 48B9     		cbnz	r0, .L234
 2858 002c 12E0     		b	.L229
 2859              	.LVL374:
 2860              	.L231:
 2861              	.LBB35:
 446:main.c        **** 				
 2862              		.loc 2 446 0
 2863 002e 2046     		mov	r0, r4
 2864 0030 FFF7FEFF 		bl	VDAC_Vds_SetValue
 2865              	.LVL375:
 448:main.c        **** 			}
 2866              		.loc 2 448 0
 2867 0034 FFF7FEFF 		bl	At_Compliance
 2868              	.LVL376:
 2869 0038 98B1     		cbz	r0, .L225
 445:main.c        **** 				VDAC_Vds_SetValue(j);
 2870              		.loc 2 445 0 discriminator 2
 2871 003a A41B     		subs	r4, r4, r6
 2872              	.LVL377:
 2873 003c E4B2     		uxtb	r4, r4
 2874              	.LVL378:
 2875 003e 00E0     		b	.L228
 2876              	.LVL379:
 2877              	.L234:
 2878              	.LBE35:
 2879 0040 3C46     		mov	r4, r7
 2880              	.L228:
 2881              	.LVL380:
 2882              	.LBB36:
 445:main.c        **** 				VDAC_Vds_SetValue(j);
 2883              		.loc 2 445 0 is_stmt 0 discriminator 1
 2884 0042 AC42     		cmp	r4, r5
 2885 0044 F3D1     		bne	.L231
 2886              	.LBE36:
 450:main.c        **** 				Handle_Compliance_Breach();
 2887              		.loc 2 450 0 is_stmt 1
 2888 0046 FFF7FEFF 		bl	At_Compliance
 2889              	.LVL381:
 2890 004a 18B1     		cbz	r0, .L229
 451:main.c        **** 				return;
 2891              		.loc 2 451 0
 2892 004c FFF7FEFF 		bl	Handle_Compliance_Breach
 2893              	.LVL382:
 452:main.c        **** 			}
 2894              		.loc 2 452 0
 2895 0050 BDE8F081 		pop	{r4, r5, r6, r7, r8, pc}
ARM GAS  C:\Users\FRANKL~1\AppData\Local\Temp\ccba5qpo.s 			page 75


 2896              	.LVL383:
 2897              	.L229:
 456:main.c        **** 	}
 2898              		.loc 2 456 0 discriminator 2
 2899 0054 3846     		mov	r0, r7
 2900 0056 FFF7FEFF 		bl	VDAC_Vds_SetValue
 2901              	.LVL384:
 443:main.c        **** 		if (At_Compliance()) {
 2902              		.loc 2 443 0 discriminator 2
 2903 005a 3744     		add	r7, r7, r6
 2904              	.LVL385:
 2905 005c FFB2     		uxtb	r7, r7
 2906              	.LVL386:
 2907              	.L227:
 443:main.c        **** 		if (At_Compliance()) {
 2908              		.loc 2 443 0 is_stmt 0 discriminator 1
 2909 005e 4745     		cmp	r7, r8
 2910 0060 E1D1     		bne	.L232
 2911              	.L225:
 2912 0062 BDE8F081 		pop	{r4, r5, r6, r7, r8, pc}
 2913              	.LVL387:
 2914              	.L237:
 2915 0066 00BF     		.align	2
 2916              	.L236:
 2917 0068 825B0040 		.word	1073765250
 2918 006c 00000000 		.word	Vds_Index_Goal_Relative
 2919 0070 805B0040 		.word	1073765248
 2920              	.LBE34:
 2921              		.cfi_endproc
 2922              	.LFE93:
 2923              		.size	Set_Vds_Raw, .-Set_Vds_Raw
 2924              		.section	.text.Set_Vgs_Raw,"ax",%progbits
 2925              		.align	2
 2926              		.global	Set_Vgs_Raw
 2927              		.thumb
 2928              		.thumb_func
 2929              		.type	Set_Vgs_Raw, %function
 2930              	Set_Vgs_Raw:
 2931              	.LFB94:
 461:main.c        **** 	Vgs_Index_Goal_Relative = (int16)value - (int16)VDAC_Ref_Data;
 2932              		.loc 2 461 0 is_stmt 1
 2933              		.cfi_startproc
 2934              		@ args = 0, pretend = 0, frame = 0
 2935              		@ frame_needed = 0, uses_anonymous_args = 0
 2936              	.LVL388:
 2937 0000 2DE9F041 		push	{r4, r5, r6, r7, r8, lr}
 2938              		.cfi_def_cfa_offset 24
 2939              		.cfi_offset 4, -24
 2940              		.cfi_offset 5, -20
 2941              		.cfi_offset 6, -16
 2942              		.cfi_offset 7, -12
 2943              		.cfi_offset 8, -8
 2944              		.cfi_offset 14, -4
 2945 0004 8046     		mov	r8, r0
 462:main.c        **** 	
 2946              		.loc 2 462 0
 2947 0006 184B     		ldr	r3, .L249
ARM GAS  C:\Users\FRANKL~1\AppData\Local\Temp\ccba5qpo.s 			page 76


 2948 0008 1B78     		ldrb	r3, [r3]	@ zero_extendqisi2
 2949 000a C31A     		subs	r3, r0, r3
 2950 000c 174A     		ldr	r2, .L249+4
 2951 000e 1380     		strh	r3, [r2]	@ movhi
 2952              	.LVL389:
 465:main.c        **** 	if (value < istart) increment = -1;
 2953              		.loc 2 465 0
 2954 0010 174B     		ldr	r3, .L249+8
 2955 0012 1D78     		ldrb	r5, [r3]	@ zero_extendqisi2
 2956 0014 EDB2     		uxtb	r5, r5
 2957              	.LVL390:
 466:main.c        **** 	
 2958              		.loc 2 466 0
 2959 0016 A842     		cmp	r0, r5
 2960 0018 01D3     		bcc	.L246
 464:main.c        **** 	uint8 istart = VDAC_Vgs_Data;
 2961              		.loc 2 464 0
 2962 001a 0126     		movs	r6, #1
 2963 001c 01E0     		b	.L239
 2964              	.L246:
 466:main.c        **** 	
 2965              		.loc 2 466 0
 2966 001e 4FF0FF36 		mov	r6, #-1
 2967              	.L239:
 2968              	.LVL391:
 2969              	.LBB37:
 468:main.c        **** 		if (At_Compliance()) {
 2970              		.loc 2 468 0
 2971 0022 2F46     		mov	r7, r5
 2972 0024 1BE0     		b	.L240
 2973              	.LVL392:
 2974              	.L245:
 469:main.c        **** 			for (uint8 j = i; j != istart; j -= increment) {
 2975              		.loc 2 469 0
 2976 0026 FFF7FEFF 		bl	At_Compliance
 2977              	.LVL393:
 2978 002a 48B9     		cbnz	r0, .L247
 2979 002c 12E0     		b	.L242
 2980              	.LVL394:
 2981              	.L244:
 2982              	.LBB38:
 471:main.c        **** 				
 2983              		.loc 2 471 0
 2984 002e 2046     		mov	r0, r4
 2985 0030 FFF7FEFF 		bl	VDAC_Vgs_SetValue
 2986              	.LVL395:
 473:main.c        **** 			}
 2987              		.loc 2 473 0
 2988 0034 FFF7FEFF 		bl	At_Compliance
 2989              	.LVL396:
 2990 0038 98B1     		cbz	r0, .L238
 470:main.c        **** 				VDAC_Vgs_SetValue(j);
 2991              		.loc 2 470 0 discriminator 2
 2992 003a A41B     		subs	r4, r4, r6
 2993              	.LVL397:
 2994 003c E4B2     		uxtb	r4, r4
 2995              	.LVL398:
ARM GAS  C:\Users\FRANKL~1\AppData\Local\Temp\ccba5qpo.s 			page 77


 2996 003e 00E0     		b	.L241
 2997              	.LVL399:
 2998              	.L247:
 2999              	.LBE38:
 3000 0040 3C46     		mov	r4, r7
 3001              	.L241:
 3002              	.LVL400:
 3003              	.LBB39:
 470:main.c        **** 				VDAC_Vgs_SetValue(j);
 3004              		.loc 2 470 0 is_stmt 0 discriminator 1
 3005 0042 AC42     		cmp	r4, r5
 3006 0044 F3D1     		bne	.L244
 3007              	.LBE39:
 475:main.c        **** 				Handle_Compliance_Breach();
 3008              		.loc 2 475 0 is_stmt 1
 3009 0046 FFF7FEFF 		bl	At_Compliance
 3010              	.LVL401:
 3011 004a 18B1     		cbz	r0, .L242
 476:main.c        **** 				return;
 3012              		.loc 2 476 0
 3013 004c FFF7FEFF 		bl	Handle_Compliance_Breach
 3014              	.LVL402:
 477:main.c        **** 			}
 3015              		.loc 2 477 0
 3016 0050 BDE8F081 		pop	{r4, r5, r6, r7, r8, pc}
 3017              	.LVL403:
 3018              	.L242:
 481:main.c        **** 	}
 3019              		.loc 2 481 0 discriminator 2
 3020 0054 3846     		mov	r0, r7
 3021 0056 FFF7FEFF 		bl	VDAC_Vgs_SetValue
 3022              	.LVL404:
 468:main.c        **** 		if (At_Compliance()) {
 3023              		.loc 2 468 0 discriminator 2
 3024 005a 3744     		add	r7, r7, r6
 3025              	.LVL405:
 3026 005c FFB2     		uxtb	r7, r7
 3027              	.LVL406:
 3028              	.L240:
 468:main.c        **** 		if (At_Compliance()) {
 3029              		.loc 2 468 0 is_stmt 0 discriminator 1
 3030 005e 4745     		cmp	r7, r8
 3031 0060 E1D1     		bne	.L245
 3032              	.L238:
 3033 0062 BDE8F081 		pop	{r4, r5, r6, r7, r8, pc}
 3034              	.LVL407:
 3035              	.L250:
 3036 0066 00BF     		.align	2
 3037              	.L249:
 3038 0068 825B0040 		.word	1073765250
 3039 006c 00000000 		.word	Vgs_Index_Goal_Relative
 3040 0070 835B0040 		.word	1073765251
 3041              	.LBE37:
 3042              		.cfi_endproc
 3043              	.LFE94:
 3044              		.size	Set_Vgs_Raw, .-Set_Vgs_Raw
 3045              		.section	.text.Set_Ref_Raw,"ax",%progbits
ARM GAS  C:\Users\FRANKL~1\AppData\Local\Temp\ccba5qpo.s 			page 78


 3046              		.align	2
 3047              		.global	Set_Ref_Raw
 3048              		.thumb
 3049              		.thumb_func
 3050              		.type	Set_Ref_Raw, %function
 3051              	Set_Ref_Raw:
 3052              	.LFB95:
 486:main.c        **** 	if (value < 6) value = 6;
 3053              		.loc 2 486 0 is_stmt 1
 3054              		.cfi_startproc
 3055              		@ args = 0, pretend = 0, frame = 0
 3056              		@ frame_needed = 0, uses_anonymous_args = 0
 3057              	.LVL408:
 3058 0000 2DE9F041 		push	{r4, r5, r6, r7, r8, lr}
 3059              		.cfi_def_cfa_offset 24
 3060              		.cfi_offset 4, -24
 3061              		.cfi_offset 5, -20
 3062              		.cfi_offset 6, -16
 3063              		.cfi_offset 7, -12
 3064              		.cfi_offset 8, -8
 3065              		.cfi_offset 14, -4
 3066 0004 0746     		mov	r7, r0
 487:main.c        **** 	
 3067              		.loc 2 487 0
 3068 0006 0528     		cmp	r0, #5
 3069 0008 00D8     		bhi	.L252
 3070 000a 0627     		movs	r7, #6
 3071              	.L252:
 3072              	.LVL409:
 490:main.c        **** 	
 3073              		.loc 2 490 0
 3074 000c 1A4B     		ldr	r3, .L268
 3075 000e 1B78     		ldrb	r3, [r3]	@ zero_extendqisi2
 3076 0010 DBB2     		uxtb	r3, r3
 3077 0012 9F42     		cmp	r7, r3
 3078 0014 02D3     		bcc	.L262
 489:main.c        **** 	if (value < VDAC_Ref_Data) increment = -1;
 3079              		.loc 2 489 0
 3080 0016 4FF00108 		mov	r8, #1
 3081 001a 01E0     		b	.L253
 3082              	.L262:
 490:main.c        **** 	
 3083              		.loc 2 490 0
 3084 001c 4FF0FF38 		mov	r8, #-1
 3085              	.L253:
 3086              	.LVL410:
 3087              	.LBB40:
 492:main.c        **** 		
 3088              		.loc 2 492 0
 3089 0020 154B     		ldr	r3, .L268
 3090 0022 1E78     		ldrb	r6, [r3]	@ zero_extendqisi2
 3091 0024 F6B2     		uxtb	r6, r6
 3092              	.LVL411:
 3093 0026 22E0     		b	.L254
 3094              	.L260:
 3095              	.LBB41:
 494:main.c        **** 		
ARM GAS  C:\Users\FRANKL~1\AppData\Local\Temp\ccba5qpo.s 			page 79


 3096              		.loc 2 494 0
 3097 0028 FFF7FEFF 		bl	At_Compliance
 3098              	.LVL412:
 3099 002c 08BB     		cbnz	r0, .L251
 496:main.c        **** 		int16 new_Vds = (int16)i + Vds_Index_Goal_Relative;
 3100              		.loc 2 496 0
 3101 002e B4B2     		uxth	r4, r6
 3102 0030 124B     		ldr	r3, .L268+4
 3103 0032 1D88     		ldrh	r5, [r3]
 3104 0034 2544     		add	r5, r5, r4
 3105 0036 2DB2     		sxth	r5, r5
 3106              	.LVL413:
 497:main.c        **** 		
 3107              		.loc 2 497 0
 3108 0038 114B     		ldr	r3, .L268+8
 3109 003a 1B88     		ldrh	r3, [r3]
 3110 003c 1C44     		add	r4, r4, r3
 3111 003e 24B2     		sxth	r4, r4
 3112              	.LVL414:
 499:main.c        **** 		if (new_Vds > 255) new_Vds = 255;
 3113              		.loc 2 499 0
 3114 0040 FF2D     		cmp	r5, #255
 3115 0042 00DD     		ble	.L256
 3116 0044 FF25     		movs	r5, #255
 3117              	.LVL415:
 3118              	.L256:
 500:main.c        **** 		
 3119              		.loc 2 500 0
 3120 0046 FF2C     		cmp	r4, #255
 3121 0048 00DD     		ble	.L257
 3122 004a FF24     		movs	r4, #255
 3123              	.LVL416:
 3124              	.L257:
 502:main.c        **** 		if (new_Vds < 0) new_Vds = 0;
 3125              		.loc 2 502 0
 3126 004c 002D     		cmp	r5, #0
 3127 004e 00DA     		bge	.L258
 3128 0050 0025     		movs	r5, #0
 3129              	.LVL417:
 3130              	.L258:
 503:main.c        **** 		
 3131              		.loc 2 503 0
 3132 0052 002C     		cmp	r4, #0
 3133 0054 00DA     		bge	.L259
 3134 0056 0024     		movs	r4, #0
 3135              	.LVL418:
 3136              	.L259:
 505:main.c        **** 		VDAC_Vgs_SetValue(new_Vgs);
 3137              		.loc 2 505 0 discriminator 2
 3138 0058 3046     		mov	r0, r6
 3139 005a FFF7FEFF 		bl	VDAC_Ref_SetValue
 3140              	.LVL419:
 506:main.c        **** 		VDAC_Vds_SetValue(new_Vds);
 3141              		.loc 2 506 0 discriminator 2
 3142 005e E8B2     		uxtb	r0, r5
 3143 0060 FFF7FEFF 		bl	VDAC_Vgs_SetValue
 3144              	.LVL420:
ARM GAS  C:\Users\FRANKL~1\AppData\Local\Temp\ccba5qpo.s 			page 80


 507:main.c        **** 	}
 3145              		.loc 2 507 0 discriminator 2
 3146 0064 E0B2     		uxtb	r0, r4
 3147 0066 FFF7FEFF 		bl	VDAC_Vds_SetValue
 3148              	.LVL421:
 3149              	.LBE41:
 492:main.c        **** 		
 3150              		.loc 2 492 0 discriminator 2
 3151 006a 4644     		add	r6, r6, r8
 3152              	.LVL422:
 3153 006c F6B2     		uxtb	r6, r6
 3154              	.LVL423:
 3155              	.L254:
 492:main.c        **** 		
 3156              		.loc 2 492 0 is_stmt 0 discriminator 1
 3157 006e B742     		cmp	r7, r6
 3158 0070 DAD1     		bne	.L260
 3159              	.L251:
 3160 0072 BDE8F081 		pop	{r4, r5, r6, r7, r8, pc}
 3161              	.LVL424:
 3162              	.L269:
 3163 0076 00BF     		.align	2
 3164              	.L268:
 3165 0078 825B0040 		.word	1073765250
 3166 007c 00000000 		.word	Vgs_Index_Goal_Relative
 3167 0080 00000000 		.word	Vds_Index_Goal_Relative
 3168              	.LBE40:
 3169              		.cfi_endproc
 3170              	.LFE95:
 3171              		.size	Set_Ref_Raw, .-Set_Ref_Raw
 3172              		.section	.text.Set_Vds_Rel,"ax",%progbits
 3173              		.align	2
 3174              		.global	Set_Vds_Rel
 3175              		.thumb
 3176              		.thumb_func
 3177              		.type	Set_Vds_Rel, %function
 3178              	Set_Vds_Rel:
 3179              	.LFB96:
 513:main.c        **** 	if (value > 255) value = 255;
 3180              		.loc 2 513 0 is_stmt 1
 3181              		.cfi_startproc
 3182              		@ args = 0, pretend = 0, frame = 0
 3183              		@ frame_needed = 0, uses_anonymous_args = 0
 3184              	.LVL425:
 3185 0000 70B5     		push	{r4, r5, r6, lr}
 3186              		.cfi_def_cfa_offset 16
 3187              		.cfi_offset 4, -16
 3188              		.cfi_offset 5, -12
 3189              		.cfi_offset 6, -8
 3190              		.cfi_offset 14, -4
 3191 0002 0446     		mov	r4, r0
 514:main.c        **** 	if (value < -255) value = -255;
 3192              		.loc 2 514 0
 3193 0004 FF28     		cmp	r0, #255
 3194 0006 00DD     		ble	.L271
 3195 0008 FF24     		movs	r4, #255
 3196              	.L271:
ARM GAS  C:\Users\FRANKL~1\AppData\Local\Temp\ccba5qpo.s 			page 81


 3197              	.LVL426:
 515:main.c        **** 	
 3198              		.loc 2 515 0
 3199 000a 14F1FF0F 		cmn	r4, #255
 3200 000e 01DA     		bge	.L272
 3201 0010 6FF0FE04 		mvn	r4, #254
 3202              	.LVL427:
 3203              	.L272:
 517:main.c        **** 	
 3204              		.loc 2 517 0
 3205 0014 294B     		ldr	r3, .L291
 3206 0016 1878     		ldrb	r0, [r3]	@ zero_extendqisi2
 3207 0018 A5B2     		uxth	r5, r4
 3208 001a 2844     		add	r0, r0, r5
 3209 001c 80B2     		uxth	r0, r0
 3210 001e 03B2     		sxth	r3, r0
 3211              	.LVL428:
 519:main.c        **** 		Set_Ref_Raw(VDAC_Ref_Data - (absolute - 255));
 3212              		.loc 2 519 0
 3213 0020 FF2B     		cmp	r3, #255
 3214 0022 0ADD     		ble	.L273
 520:main.c        **** 		Set_Vds_Raw(255);
 3215              		.loc 2 520 0
 3216 0024 254B     		ldr	r3, .L291
 3217              	.LVL429:
 3218 0026 1B78     		ldrb	r3, [r3]	@ zero_extendqisi2
 3219 0028 181A     		subs	r0, r3, r0
 3220              	.LVL430:
 3221 002a 0138     		subs	r0, r0, #1
 3222 002c C0B2     		uxtb	r0, r0
 3223 002e FFF7FEFF 		bl	Set_Ref_Raw
 3224              	.LVL431:
 521:main.c        **** 	} else if (absolute < 0) {
 3225              		.loc 2 521 0
 3226 0032 FF20     		movs	r0, #255
 3227 0034 FFF7FEFF 		bl	Set_Vds_Raw
 3228              	.LVL432:
 3229 0038 0EE0     		b	.L274
 3230              	.LVL433:
 3231              	.L273:
 522:main.c        **** 		Set_Ref_Raw(VDAC_Ref_Data - absolute);
 3232              		.loc 2 522 0
 3233 003a 002B     		cmp	r3, #0
 3234 003c 09DA     		bge	.L275
 523:main.c        **** 		Set_Vds_Raw(0);
 3235              		.loc 2 523 0
 3236 003e 1F4B     		ldr	r3, .L291
 3237              	.LVL434:
 3238 0040 1B78     		ldrb	r3, [r3]	@ zero_extendqisi2
 3239 0042 181A     		subs	r0, r3, r0
 3240              	.LVL435:
 3241 0044 C0B2     		uxtb	r0, r0
 3242 0046 FFF7FEFF 		bl	Set_Ref_Raw
 3243              	.LVL436:
 524:main.c        **** 	} else {
 3244              		.loc 2 524 0
 3245 004a 0020     		movs	r0, #0
ARM GAS  C:\Users\FRANKL~1\AppData\Local\Temp\ccba5qpo.s 			page 82


 3246 004c FFF7FEFF 		bl	Set_Vds_Raw
 3247              	.LVL437:
 3248 0050 02E0     		b	.L274
 3249              	.LVL438:
 3250              	.L275:
 526:main.c        **** 	}
 3251              		.loc 2 526 0
 3252 0052 C0B2     		uxtb	r0, r0
 3253 0054 FFF7FEFF 		bl	Set_Vds_Raw
 3254              	.LVL439:
 3255              	.L274:
 529:main.c        **** 	
 3256              		.loc 2 529 0
 3257 0058 194B     		ldr	r3, .L291+4
 3258 005a 1C80     		strh	r4, [r3]	@ movhi
 531:main.c        **** 	uint16 Vds_maxRefRaw = Vds_Index_Goal_Relative > 0? 255 - Vds_Index_Goal_Relative: 255;
 3259              		.loc 2 531 0
 3260 005c 002C     		cmp	r4, #0
 3261 005e 02DC     		bgt	.L286
 531:main.c        **** 	uint16 Vds_maxRefRaw = Vds_Index_Goal_Relative > 0? 255 - Vds_Index_Goal_Relative: 255;
 3262              		.loc 2 531 0 is_stmt 0 discriminator 1
 3263 0060 6E42     		negs	r6, r5
 3264 0062 B6B2     		uxth	r6, r6
 3265 0064 00E0     		b	.L276
 3266              	.L286:
 531:main.c        **** 	uint16 Vds_maxRefRaw = Vds_Index_Goal_Relative > 0? 255 - Vds_Index_Goal_Relative: 255;
 3267              		.loc 2 531 0
 3268 0066 0026     		movs	r6, #0
 3269              	.L276:
 3270              	.LVL440:
 532:main.c        **** 	uint16 Vgs_minRefRaw = Vgs_Index_Goal_Relative > 0? 0: -Vgs_Index_Goal_Relative;
 3271              		.loc 2 532 0 is_stmt 1 discriminator 4
 3272 0068 002C     		cmp	r4, #0
 3273 006a 03DD     		ble	.L287
 532:main.c        **** 	uint16 Vgs_minRefRaw = Vgs_Index_Goal_Relative > 0? 0: -Vgs_Index_Goal_Relative;
 3274              		.loc 2 532 0 is_stmt 0 discriminator 1
 3275 006c C5F1FF00 		rsb	r0, r5, #255
 3276 0070 80B2     		uxth	r0, r0
 3277 0072 00E0     		b	.L277
 3278              	.L287:
 532:main.c        **** 	uint16 Vgs_minRefRaw = Vgs_Index_Goal_Relative > 0? 0: -Vgs_Index_Goal_Relative;
 3279              		.loc 2 532 0
 3280 0074 FF20     		movs	r0, #255
 3281              	.L277:
 3282              	.LVL441:
 533:main.c        **** 	uint16 Vgs_maxRefRaw = Vgs_Index_Goal_Relative > 0? 255 - Vgs_Index_Goal_Relative: 255;
 3283              		.loc 2 533 0 is_stmt 1 discriminator 4
 3284 0076 134B     		ldr	r3, .L291+8
 3285 0078 B3F90030 		ldrsh	r3, [r3]
 3286 007c 002B     		cmp	r3, #0
 3287 007e 02DC     		bgt	.L288
 533:main.c        **** 	uint16 Vgs_maxRefRaw = Vgs_Index_Goal_Relative > 0? 255 - Vgs_Index_Goal_Relative: 255;
 3288              		.loc 2 533 0 is_stmt 0 discriminator 1
 3289 0080 5A42     		negs	r2, r3
 3290 0082 92B2     		uxth	r2, r2
 3291 0084 00E0     		b	.L278
 3292              	.L288:
ARM GAS  C:\Users\FRANKL~1\AppData\Local\Temp\ccba5qpo.s 			page 83


 533:main.c        **** 	uint16 Vgs_maxRefRaw = Vgs_Index_Goal_Relative > 0? 255 - Vgs_Index_Goal_Relative: 255;
 3293              		.loc 2 533 0
 3294 0086 0022     		movs	r2, #0
 3295              	.L278:
 3296              	.LVL442:
 534:main.c        **** 	
 3297              		.loc 2 534 0 is_stmt 1 discriminator 4
 3298 0088 002B     		cmp	r3, #0
 3299 008a 03DD     		ble	.L289
 534:main.c        **** 	
 3300              		.loc 2 534 0 is_stmt 0 discriminator 1
 3301 008c C3F1FF03 		rsb	r3, r3, #255
 3302 0090 9BB2     		uxth	r3, r3
 3303 0092 00E0     		b	.L279
 3304              	.L289:
 534:main.c        **** 	
 3305              		.loc 2 534 0
 3306 0094 FF23     		movs	r3, #255
 3307              	.L279:
 3308              	.LVL443:
 536:main.c        **** 	
 3309              		.loc 2 536 0 is_stmt 1 discriminator 4
 3310 0096 0949     		ldr	r1, .L291
 3311 0098 0978     		ldrb	r1, [r1]	@ zero_extendqisi2
 3312              	.LVL444:
 538:main.c        **** 	if (newRefRaw > Vgs_maxRefRaw) newRefRaw = Vgs_maxRefRaw;
 3313              		.loc 2 538 0 discriminator 4
 3314 009a 8A42     		cmp	r2, r1
 3315 009c 00D8     		bhi	.L280
 536:main.c        **** 	
 3316              		.loc 2 536 0
 3317 009e 0A46     		mov	r2, r1
 3318              	.LVL445:
 3319              	.L280:
 539:main.c        **** 	if (newRefRaw < Vds_minRefRaw) newRefRaw = Vds_minRefRaw;
 3320              		.loc 2 539 0
 3321 00a0 9A42     		cmp	r2, r3
 3322 00a2 00D8     		bhi	.L281
 3323 00a4 1346     		mov	r3, r2
 3324              	.LVL446:
 3325              	.L281:
 540:main.c        **** 	if (newRefRaw > Vds_maxRefRaw) newRefRaw = Vds_maxRefRaw;
 3326              		.loc 2 540 0
 3327 00a6 B342     		cmp	r3, r6
 3328 00a8 00D3     		bcc	.L282
 3329 00aa 1E46     		mov	r6, r3
 3330              	.LVL447:
 3331              	.L282:
 541:main.c        **** 	
 3332              		.loc 2 541 0
 3333 00ac 8642     		cmp	r6, r0
 3334 00ae 00D8     		bhi	.L283
 3335 00b0 3046     		mov	r0, r6
 3336              	.LVL448:
 3337              	.L283:
 543:main.c        **** }
 3338              		.loc 2 543 0
ARM GAS  C:\Users\FRANKL~1\AppData\Local\Temp\ccba5qpo.s 			page 84


 3339 00b2 C0B2     		uxtb	r0, r0
 3340              	.LVL449:
 3341 00b4 FFF7FEFF 		bl	Set_Ref_Raw
 3342              	.LVL450:
 3343 00b8 70BD     		pop	{r4, r5, r6, pc}
 3344              	.LVL451:
 3345              	.L292:
 3346 00ba 00BF     		.align	2
 3347              	.L291:
 3348 00bc 825B0040 		.word	1073765250
 3349 00c0 00000000 		.word	Vds_Index_Goal_Relative
 3350 00c4 00000000 		.word	Vgs_Index_Goal_Relative
 3351              		.cfi_endproc
 3352              	.LFE96:
 3353              		.size	Set_Vds_Rel, .-Set_Vds_Rel
 3354              		.section	.text.Set_Vgs_Rel,"ax",%progbits
 3355              		.align	2
 3356              		.global	Set_Vgs_Rel
 3357              		.thumb
 3358              		.thumb_func
 3359              		.type	Set_Vgs_Rel, %function
 3360              	Set_Vgs_Rel:
 3361              	.LFB97:
 547:main.c        **** 	if (value > 255) value = 255;
 3362              		.loc 2 547 0
 3363              		.cfi_startproc
 3364              		@ args = 0, pretend = 0, frame = 0
 3365              		@ frame_needed = 0, uses_anonymous_args = 0
 3366              	.LVL452:
 3367 0000 70B5     		push	{r4, r5, r6, lr}
 3368              		.cfi_def_cfa_offset 16
 3369              		.cfi_offset 4, -16
 3370              		.cfi_offset 5, -12
 3371              		.cfi_offset 6, -8
 3372              		.cfi_offset 14, -4
 3373 0002 0446     		mov	r4, r0
 548:main.c        **** 	if (value < -255) value = -255;
 3374              		.loc 2 548 0
 3375 0004 FF28     		cmp	r0, #255
 3376 0006 00DD     		ble	.L294
 3377 0008 FF24     		movs	r4, #255
 3378              	.L294:
 3379              	.LVL453:
 549:main.c        **** 	
 3380              		.loc 2 549 0
 3381 000a 14F1FF0F 		cmn	r4, #255
 3382 000e 01DA     		bge	.L295
 3383 0010 6FF0FE04 		mvn	r4, #254
 3384              	.LVL454:
 3385              	.L295:
 551:main.c        **** 	
 3386              		.loc 2 551 0
 3387 0014 294B     		ldr	r3, .L314
 3388 0016 1878     		ldrb	r0, [r3]	@ zero_extendqisi2
 3389 0018 A5B2     		uxth	r5, r4
 3390 001a 2844     		add	r0, r0, r5
 3391 001c 80B2     		uxth	r0, r0
ARM GAS  C:\Users\FRANKL~1\AppData\Local\Temp\ccba5qpo.s 			page 85


 3392 001e 03B2     		sxth	r3, r0
 3393              	.LVL455:
 553:main.c        **** 		Set_Ref_Raw(VDAC_Ref_Data - (absolute - 255));
 3394              		.loc 2 553 0
 3395 0020 FF2B     		cmp	r3, #255
 3396 0022 0ADD     		ble	.L296
 554:main.c        **** 		Set_Vgs_Raw(255);
 3397              		.loc 2 554 0
 3398 0024 254B     		ldr	r3, .L314
 3399              	.LVL456:
 3400 0026 1B78     		ldrb	r3, [r3]	@ zero_extendqisi2
 3401 0028 181A     		subs	r0, r3, r0
 3402              	.LVL457:
 3403 002a 0138     		subs	r0, r0, #1
 3404 002c C0B2     		uxtb	r0, r0
 3405 002e FFF7FEFF 		bl	Set_Ref_Raw
 3406              	.LVL458:
 555:main.c        **** 	} else if (absolute < 0) {
 3407              		.loc 2 555 0
 3408 0032 FF20     		movs	r0, #255
 3409 0034 FFF7FEFF 		bl	Set_Vgs_Raw
 3410              	.LVL459:
 3411 0038 0EE0     		b	.L297
 3412              	.LVL460:
 3413              	.L296:
 556:main.c        **** 		Set_Ref_Raw(VDAC_Ref_Data - absolute);
 3414              		.loc 2 556 0
 3415 003a 002B     		cmp	r3, #0
 3416 003c 09DA     		bge	.L298
 557:main.c        **** 		Set_Vgs_Raw(0);
 3417              		.loc 2 557 0
 3418 003e 1F4B     		ldr	r3, .L314
 3419              	.LVL461:
 3420 0040 1B78     		ldrb	r3, [r3]	@ zero_extendqisi2
 3421 0042 181A     		subs	r0, r3, r0
 3422              	.LVL462:
 3423 0044 C0B2     		uxtb	r0, r0
 3424 0046 FFF7FEFF 		bl	Set_Ref_Raw
 3425              	.LVL463:
 558:main.c        **** 	} else {
 3426              		.loc 2 558 0
 3427 004a 0020     		movs	r0, #0
 3428 004c FFF7FEFF 		bl	Set_Vgs_Raw
 3429              	.LVL464:
 3430 0050 02E0     		b	.L297
 3431              	.LVL465:
 3432              	.L298:
 560:main.c        **** 	}
 3433              		.loc 2 560 0
 3434 0052 C0B2     		uxtb	r0, r0
 3435 0054 FFF7FEFF 		bl	Set_Vgs_Raw
 3436              	.LVL466:
 3437              	.L297:
 563:main.c        **** 	
 3438              		.loc 2 563 0
 3439 0058 194B     		ldr	r3, .L314+4
 3440 005a 1C80     		strh	r4, [r3]	@ movhi
ARM GAS  C:\Users\FRANKL~1\AppData\Local\Temp\ccba5qpo.s 			page 86


 565:main.c        **** 	uint16 Vds_maxRefRaw = Vds_Index_Goal_Relative > 0? 255 - Vds_Index_Goal_Relative: 255;
 3441              		.loc 2 565 0
 3442 005c 194B     		ldr	r3, .L314+8
 3443 005e B3F90030 		ldrsh	r3, [r3]
 3444 0062 002B     		cmp	r3, #0
 3445 0064 02DC     		bgt	.L309
 565:main.c        **** 	uint16 Vds_maxRefRaw = Vds_Index_Goal_Relative > 0? 255 - Vds_Index_Goal_Relative: 255;
 3446              		.loc 2 565 0 is_stmt 0 discriminator 1
 3447 0066 5A42     		negs	r2, r3
 3448 0068 92B2     		uxth	r2, r2
 3449 006a 00E0     		b	.L299
 3450              	.L309:
 565:main.c        **** 	uint16 Vds_maxRefRaw = Vds_Index_Goal_Relative > 0? 255 - Vds_Index_Goal_Relative: 255;
 3451              		.loc 2 565 0
 3452 006c 0022     		movs	r2, #0
 3453              	.L299:
 3454              	.LVL467:
 566:main.c        **** 	uint16 Vgs_minRefRaw = Vgs_Index_Goal_Relative > 0? 0: -Vgs_Index_Goal_Relative;
 3455              		.loc 2 566 0 is_stmt 1 discriminator 4
 3456 006e 002B     		cmp	r3, #0
 3457 0070 03DD     		ble	.L310
 566:main.c        **** 	uint16 Vgs_minRefRaw = Vgs_Index_Goal_Relative > 0? 0: -Vgs_Index_Goal_Relative;
 3458              		.loc 2 566 0 is_stmt 0 discriminator 1
 3459 0072 C3F1FF03 		rsb	r3, r3, #255
 3460 0076 9BB2     		uxth	r3, r3
 3461 0078 00E0     		b	.L300
 3462              	.L310:
 566:main.c        **** 	uint16 Vgs_minRefRaw = Vgs_Index_Goal_Relative > 0? 0: -Vgs_Index_Goal_Relative;
 3463              		.loc 2 566 0
 3464 007a FF23     		movs	r3, #255
 3465              	.L300:
 3466              	.LVL468:
 567:main.c        **** 	uint16 Vgs_maxRefRaw = Vgs_Index_Goal_Relative > 0? 255 - Vgs_Index_Goal_Relative: 255;
 3467              		.loc 2 567 0 is_stmt 1 discriminator 4
 3468 007c 002C     		cmp	r4, #0
 3469 007e 02DC     		bgt	.L311
 567:main.c        **** 	uint16 Vgs_maxRefRaw = Vgs_Index_Goal_Relative > 0? 255 - Vgs_Index_Goal_Relative: 255;
 3470              		.loc 2 567 0 is_stmt 0 discriminator 1
 3471 0080 6E42     		negs	r6, r5
 3472 0082 B6B2     		uxth	r6, r6
 3473 0084 00E0     		b	.L301
 3474              	.L311:
 567:main.c        **** 	uint16 Vgs_maxRefRaw = Vgs_Index_Goal_Relative > 0? 255 - Vgs_Index_Goal_Relative: 255;
 3475              		.loc 2 567 0
 3476 0086 0026     		movs	r6, #0
 3477              	.L301:
 3478              	.LVL469:
 568:main.c        **** 	
 3479              		.loc 2 568 0 is_stmt 1 discriminator 4
 3480 0088 002C     		cmp	r4, #0
 3481 008a 03DD     		ble	.L312
 568:main.c        **** 	
 3482              		.loc 2 568 0 is_stmt 0 discriminator 1
 3483 008c C5F1FF00 		rsb	r0, r5, #255
 3484 0090 80B2     		uxth	r0, r0
 3485 0092 00E0     		b	.L302
 3486              	.L312:
ARM GAS  C:\Users\FRANKL~1\AppData\Local\Temp\ccba5qpo.s 			page 87


 568:main.c        **** 	
 3487              		.loc 2 568 0
 3488 0094 FF20     		movs	r0, #255
 3489              	.L302:
 3490              	.LVL470:
 570:main.c        **** 	
 3491              		.loc 2 570 0 is_stmt 1 discriminator 4
 3492 0096 0949     		ldr	r1, .L314
 3493 0098 0978     		ldrb	r1, [r1]	@ zero_extendqisi2
 3494              	.LVL471:
 572:main.c        **** 	if (newRefRaw > Vds_maxRefRaw) newRefRaw = Vds_maxRefRaw;
 3495              		.loc 2 572 0 discriminator 4
 3496 009a 8A42     		cmp	r2, r1
 3497 009c 00D8     		bhi	.L303
 570:main.c        **** 	
 3498              		.loc 2 570 0
 3499 009e 0A46     		mov	r2, r1
 3500              	.LVL472:
 3501              	.L303:
 573:main.c        **** 	if (newRefRaw < Vgs_minRefRaw) newRefRaw = Vgs_minRefRaw;
 3502              		.loc 2 573 0
 3503 00a0 9A42     		cmp	r2, r3
 3504 00a2 00D8     		bhi	.L304
 3505 00a4 1346     		mov	r3, r2
 3506              	.LVL473:
 3507              	.L304:
 574:main.c        **** 	if (newRefRaw > Vgs_maxRefRaw) newRefRaw = Vgs_maxRefRaw;
 3508              		.loc 2 574 0
 3509 00a6 B342     		cmp	r3, r6
 3510 00a8 00D3     		bcc	.L305
 3511 00aa 1E46     		mov	r6, r3
 3512              	.LVL474:
 3513              	.L305:
 575:main.c        **** 	
 3514              		.loc 2 575 0
 3515 00ac 8642     		cmp	r6, r0
 3516 00ae 00D8     		bhi	.L306
 3517 00b0 3046     		mov	r0, r6
 3518              	.LVL475:
 3519              	.L306:
 577:main.c        **** }
 3520              		.loc 2 577 0
 3521 00b2 C0B2     		uxtb	r0, r0
 3522              	.LVL476:
 3523 00b4 FFF7FEFF 		bl	Set_Ref_Raw
 3524              	.LVL477:
 3525 00b8 70BD     		pop	{r4, r5, r6, pc}
 3526              	.LVL478:
 3527              	.L315:
 3528 00ba 00BF     		.align	2
 3529              	.L314:
 3530 00bc 825B0040 		.word	1073765250
 3531 00c0 00000000 		.word	Vgs_Index_Goal_Relative
 3532 00c4 00000000 		.word	Vds_Index_Goal_Relative
 3533              		.cfi_endproc
 3534              	.LFE97:
 3535              		.size	Set_Vgs_Rel, .-Set_Vgs_Rel
ARM GAS  C:\Users\FRANKL~1\AppData\Local\Temp\ccba5qpo.s 			page 88


 3536              		.global	__aeabi_d2iz
 3537              		.section	.text.Set_Vgs,"ax",%progbits
 3538              		.align	2
 3539              		.global	Set_Vgs
 3540              		.thumb
 3541              		.thumb_func
 3542              		.type	Set_Vgs, %function
 3543              	Set_Vgs:
 3544              	.LFB98:
 582:main.c        **** 	Set_Vgs_Rel((voltage/4.080)*255.0);
 3545              		.loc 2 582 0
 3546              		.cfi_startproc
 3547              		@ args = 0, pretend = 0, frame = 0
 3548              		@ frame_needed = 0, uses_anonymous_args = 0
 3549              	.LVL479:
 3550 0000 08B5     		push	{r3, lr}
 3551              		.cfi_def_cfa_offset 8
 3552              		.cfi_offset 3, -8
 3553              		.cfi_offset 14, -4
 583:main.c        **** }
 3554              		.loc 2 583 0
 3555 0002 FFF7FEFF 		bl	__aeabi_f2d
 3556              	.LVL480:
 3557 0006 08A3     		adr	r3, .L318
 3558 0008 D3E90023 		ldrd	r2, [r3]
 3559 000c FFF7FEFF 		bl	__aeabi_ddiv
 3560              	.LVL481:
 3561 0010 07A3     		adr	r3, .L318+8
 3562 0012 D3E90023 		ldrd	r2, [r3]
 3563 0016 FFF7FEFF 		bl	__aeabi_dmul
 3564              	.LVL482:
 3565 001a FFF7FEFF 		bl	__aeabi_d2iz
 3566              	.LVL483:
 3567 001e 00B2     		sxth	r0, r0
 3568 0020 FFF7FEFF 		bl	Set_Vgs_Rel
 3569              	.LVL484:
 3570 0024 08BD     		pop	{r3, pc}
 3571              	.L319:
 3572 0026 00BF     		.align	3
 3573              	.L318:
 3574 0028 52B81E85 		.word	-2061584302
 3575 002c EB511040 		.word	1074811371
 3576 0030 00000000 		.word	0
 3577 0034 00E06F40 		.word	1081073664
 3578              		.cfi_endproc
 3579              	.LFE98:
 3580              		.size	Set_Vgs, .-Set_Vgs
 3581              		.section	.text.Set_Vds,"ax",%progbits
 3582              		.align	2
 3583              		.global	Set_Vds
 3584              		.thumb
 3585              		.thumb_func
 3586              		.type	Set_Vds, %function
 3587              	Set_Vds:
 3588              	.LFB99:
 587:main.c        **** 	Set_Vds_Rel((voltage/4.080)*255.0);
 3589              		.loc 2 587 0
ARM GAS  C:\Users\FRANKL~1\AppData\Local\Temp\ccba5qpo.s 			page 89


 3590              		.cfi_startproc
 3591              		@ args = 0, pretend = 0, frame = 0
 3592              		@ frame_needed = 0, uses_anonymous_args = 0
 3593              	.LVL485:
 3594 0000 08B5     		push	{r3, lr}
 3595              		.cfi_def_cfa_offset 8
 3596              		.cfi_offset 3, -8
 3597              		.cfi_offset 14, -4
 588:main.c        **** }
 3598              		.loc 2 588 0
 3599 0002 FFF7FEFF 		bl	__aeabi_f2d
 3600              	.LVL486:
 3601 0006 08A3     		adr	r3, .L322
 3602 0008 D3E90023 		ldrd	r2, [r3]
 3603 000c FFF7FEFF 		bl	__aeabi_ddiv
 3604              	.LVL487:
 3605 0010 07A3     		adr	r3, .L322+8
 3606 0012 D3E90023 		ldrd	r2, [r3]
 3607 0016 FFF7FEFF 		bl	__aeabi_dmul
 3608              	.LVL488:
 3609 001a FFF7FEFF 		bl	__aeabi_d2iz
 3610              	.LVL489:
 3611 001e 00B2     		sxth	r0, r0
 3612 0020 FFF7FEFF 		bl	Set_Vds_Rel
 3613              	.LVL490:
 3614 0024 08BD     		pop	{r3, pc}
 3615              	.L323:
 3616 0026 00BF     		.align	3
 3617              	.L322:
 3618 0028 52B81E85 		.word	-2061584302
 3619 002c EB511040 		.word	1074811371
 3620 0030 00000000 		.word	0
 3621 0034 00E06F40 		.word	1081073664
 3622              		.cfi_endproc
 3623              	.LFE99:
 3624              		.size	Set_Vds, .-Set_Vds
 3625              		.section	.text.Set_Vgs_mV,"ax",%progbits
 3626              		.align	2
 3627              		.global	Set_Vgs_mV
 3628              		.thumb
 3629              		.thumb_func
 3630              		.type	Set_Vgs_mV, %function
 3631              	Set_Vgs_mV:
 3632              	.LFB100:
 593:main.c        **** 	Set_Vgs(mV/1000.0);
 3633              		.loc 2 593 0
 3634              		.cfi_startproc
 3635              		@ args = 0, pretend = 0, frame = 0
 3636              		@ frame_needed = 0, uses_anonymous_args = 0
 3637              	.LVL491:
 3638 0000 08B5     		push	{r3, lr}
 3639              		.cfi_def_cfa_offset 8
 3640              		.cfi_offset 3, -8
 3641              		.cfi_offset 14, -4
 594:main.c        **** }
 3642              		.loc 2 594 0
 3643 0002 0349     		ldr	r1, .L326
ARM GAS  C:\Users\FRANKL~1\AppData\Local\Temp\ccba5qpo.s 			page 90


 3644 0004 FFF7FEFF 		bl	__aeabi_fdiv
 3645              	.LVL492:
 3646 0008 FFF7FEFF 		bl	Set_Vgs
 3647              	.LVL493:
 3648 000c 08BD     		pop	{r3, pc}
 3649              	.L327:
 3650 000e 00BF     		.align	2
 3651              	.L326:
 3652 0010 00007A44 		.word	1148846080
 3653              		.cfi_endproc
 3654              	.LFE100:
 3655              		.size	Set_Vgs_mV, .-Set_Vgs_mV
 3656              		.section	.text.Set_Vds_mV,"ax",%progbits
 3657              		.align	2
 3658              		.global	Set_Vds_mV
 3659              		.thumb
 3660              		.thumb_func
 3661              		.type	Set_Vds_mV, %function
 3662              	Set_Vds_mV:
 3663              	.LFB101:
 598:main.c        **** 	Set_Vds(mV/1000.0);
 3664              		.loc 2 598 0
 3665              		.cfi_startproc
 3666              		@ args = 0, pretend = 0, frame = 0
 3667              		@ frame_needed = 0, uses_anonymous_args = 0
 3668              	.LVL494:
 3669 0000 08B5     		push	{r3, lr}
 3670              		.cfi_def_cfa_offset 8
 3671              		.cfi_offset 3, -8
 3672              		.cfi_offset 14, -4
 599:main.c        **** }
 3673              		.loc 2 599 0
 3674 0002 0349     		ldr	r1, .L330
 3675 0004 FFF7FEFF 		bl	__aeabi_fdiv
 3676              	.LVL495:
 3677 0008 FFF7FEFF 		bl	Set_Vds
 3678              	.LVL496:
 3679 000c 08BD     		pop	{r3, pc}
 3680              	.L331:
 3681 000e 00BF     		.align	2
 3682              	.L330:
 3683 0010 00007A44 		.word	1148846080
 3684              		.cfi_endproc
 3685              	.LFE101:
 3686              		.size	Set_Vds_mV, .-Set_Vds_mV
 3687              		.section	.text.Zero_All_DACs,"ax",%progbits
 3688              		.align	2
 3689              		.global	Zero_All_DACs
 3690              		.thumb
 3691              		.thumb_func
 3692              		.type	Zero_All_DACs, %function
 3693              	Zero_All_DACs:
 3694              	.LFB102:
 604:main.c        **** 	Set_Vds_Raw(0);
 3695              		.loc 2 604 0
 3696              		.cfi_startproc
 3697              		@ args = 0, pretend = 0, frame = 0
ARM GAS  C:\Users\FRANKL~1\AppData\Local\Temp\ccba5qpo.s 			page 91


 3698              		@ frame_needed = 0, uses_anonymous_args = 0
 3699 0000 08B5     		push	{r3, lr}
 3700              		.cfi_def_cfa_offset 8
 3701              		.cfi_offset 3, -8
 3702              		.cfi_offset 14, -4
 605:main.c        **** 	Set_Vgs_Raw(0);
 3703              		.loc 2 605 0
 3704 0002 0020     		movs	r0, #0
 3705 0004 FFF7FEFF 		bl	Set_Vds_Raw
 3706              	.LVL497:
 606:main.c        **** 	
 3707              		.loc 2 606 0
 3708 0008 0020     		movs	r0, #0
 3709 000a FFF7FEFF 		bl	Set_Vgs_Raw
 3710              	.LVL498:
 608:main.c        **** 	VDAC_Vgs_SetValue(0);
 3711              		.loc 2 608 0
 3712 000e 0020     		movs	r0, #0
 3713 0010 FFF7FEFF 		bl	VDAC_Vds_SetValue
 3714              	.LVL499:
 609:main.c        **** }
 3715              		.loc 2 609 0
 3716 0014 0020     		movs	r0, #0
 3717 0016 FFF7FEFF 		bl	VDAC_Vgs_SetValue
 3718              	.LVL500:
 3719 001a 08BD     		pop	{r3, pc}
 3720              		.cfi_endproc
 3721              	.LFE102:
 3722              		.size	Zero_All_DACs, .-Zero_All_DACs
 3723              		.section	.text.Calibrate_ADC_Offset,"ax",%progbits
 3724              		.align	2
 3725              		.global	Calibrate_ADC_Offset
 3726              		.thumb
 3727              		.thumb_func
 3728              		.type	Calibrate_ADC_Offset, %function
 3729              	Calibrate_ADC_Offset:
 3730              	.LFB103:
 612:main.c        **** 	uint8 current_range_resistor = TIA_Selected_Resistor;
 3731              		.loc 2 612 0
 3732              		.cfi_startproc
 3733              		@ args = 0, pretend = 0, frame = 8
 3734              		@ frame_needed = 0, uses_anonymous_args = 0
 3735              	.LVL501:
 3736 0000 2DE9F041 		push	{r4, r5, r6, r7, r8, lr}
 3737              		.cfi_def_cfa_offset 24
 3738              		.cfi_offset 4, -24
 3739              		.cfi_offset 5, -20
 3740              		.cfi_offset 6, -16
 3741              		.cfi_offset 7, -12
 3742              		.cfi_offset 8, -8
 3743              		.cfi_offset 14, -4
 3744 0004 84B0     		sub	sp, sp, #16
 3745              		.cfi_def_cfa_offset 40
 3746 0006 0746     		mov	r7, r0
 613:main.c        **** 	
 3747              		.loc 2 613 0
 3748 0008 2C4B     		ldr	r3, .L338
ARM GAS  C:\Users\FRANKL~1\AppData\Local\Temp\ccba5qpo.s 			page 92


 3749 000a 93F80080 		ldrb	r8, [r3]	@ zero_extendqisi2
 3750              	.LVL502:
 616:main.c        **** 	Set_Vgs(0);
 3751              		.loc 2 616 0
 3752 000e 0024     		movs	r4, #0
 3753 0010 2046     		mov	r0, r4
 3754              	.LVL503:
 3755 0012 FFF7FEFF 		bl	Set_Vds
 3756              	.LVL504:
 617:main.c        **** 	
 3757              		.loc 2 617 0
 3758 0016 2046     		mov	r0, r4
 3759 0018 FFF7FEFF 		bl	Set_Vgs
 3760              	.LVL505:
 620:main.c        **** 	int32 voltageSD = 0;
 3761              		.loc 2 620 0
 3762 001c 0024     		movs	r4, #0
 3763 001e 0394     		str	r4, [sp, #12]
 621:main.c        **** 	
 3764              		.loc 2 621 0
 3765 0020 0294     		str	r4, [sp, #8]
 3766              	.LVL506:
 3767              	.LBB42:
 624:main.c        **** 		TIA_Set_Resistor(i);
 3768              		.loc 2 624 0
 3769 0022 2BE0     		b	.L335
 3770              	.LVL507:
 3771              	.L336:
 625:main.c        **** 		// Take a few measurements to discard any problems with the initial measurements
 3772              		.loc 2 625 0 discriminator 3
 3773 0024 2046     		mov	r0, r4
 3774 0026 FFF7FEFF 		bl	TIA_Set_Resistor
 3775              	.LVL508:
 627:main.c        **** 		ADC_Measure_uV(&voltage, &voltageSD, sampleCount);
 3776              		.loc 2 627 0 discriminator 3
 3777 002a 0322     		movs	r2, #3
 3778 002c 02A9     		add	r1, sp, #8
 3779 002e 03A8     		add	r0, sp, #12
 3780 0030 FFF7FEFF 		bl	ADC_Measure_uV
 3781              	.LVL509:
 628:main.c        **** 		TIA_Offsets_uV[i] = -voltage;
 3782              		.loc 2 628 0 discriminator 3
 3783 0034 3A46     		mov	r2, r7
 3784 0036 02A9     		add	r1, sp, #8
 3785 0038 03A8     		add	r0, sp, #12
 3786 003a FFF7FEFF 		bl	ADC_Measure_uV
 3787              	.LVL510:
 629:main.c        **** 		sprintf(TransmitBuffer, "# Offset %e Ohm: %li uV\r\n", TIA_Resistor_Values[i], -voltage);
 3788              		.loc 2 629 0 discriminator 3
 3789 003e 039E     		ldr	r6, [sp, #12]
 3790 0040 7642     		negs	r6, r6
 3791 0042 A300     		lsls	r3, r4, #2
 3792 0044 1E4A     		ldr	r2, .L338+4
 3793 0046 1A44     		add	r2, r2, r3
 3794 0048 5660     		str	r6, [r2, #4]
 630:main.c        **** 		USBUARTH_Send(TransmitBuffer, strlen(TransmitBuffer));
 3795              		.loc 2 630 0 discriminator 3
ARM GAS  C:\Users\FRANKL~1\AppData\Local\Temp\ccba5qpo.s 			page 93


 3796 004a 1C4A     		ldr	r2, .L338
 3797 004c 1344     		add	r3, r3, r2
 3798 004e D868     		ldr	r0, [r3, #12]	@ float
 3799 0050 FFF7FEFF 		bl	__aeabi_f2d
 3800              	.LVL511:
 3801 0054 1B4D     		ldr	r5, .L338+8
 3802 0056 0096     		str	r6, [sp]
 3803 0058 0246     		mov	r2, r0
 3804 005a 0B46     		mov	r3, r1
 3805 005c 1A49     		ldr	r1, .L338+12
 3806 005e 2846     		mov	r0, r5
 3807 0060 FFF7FEFF 		bl	sprintf
 3808              	.LVL512:
 631:main.c        **** 		UART_1_PutString(TransmitBuffer);
 3809              		.loc 2 631 0 discriminator 3
 3810 0064 2846     		mov	r0, r5
 3811 0066 FFF7FEFF 		bl	strlen
 3812              	.LVL513:
 3813 006a 81B2     		uxth	r1, r0
 3814 006c 2846     		mov	r0, r5
 3815 006e FFF7FEFF 		bl	USBUARTH_Send
 3816              	.LVL514:
 632:main.c        **** 	}
 3817              		.loc 2 632 0 discriminator 3
 3818 0072 2846     		mov	r0, r5
 3819 0074 FFF7FEFF 		bl	UART_1_PutString
 3820              	.LVL515:
 624:main.c        **** 		TIA_Set_Resistor(i);
 3821              		.loc 2 624 0 discriminator 3
 3822 0078 0134     		adds	r4, r4, #1
 3823              	.LVL516:
 3824 007a E4B2     		uxtb	r4, r4
 3825              	.LVL517:
 3826              	.L335:
 624:main.c        **** 		TIA_Set_Resistor(i);
 3827              		.loc 2 624 0 is_stmt 0 discriminator 1
 3828 007c 072C     		cmp	r4, #7
 3829 007e D1D9     		bls	.L336
 3830              	.LBE42:
 636:main.c        **** 	
 3831              		.loc 2 636 0 is_stmt 1
 3832 0080 4046     		mov	r0, r8
 3833 0082 FFF7FEFF 		bl	TIA_Set_Resistor
 3834              	.LVL518:
 638:main.c        **** 	USBUARTH_Send(TransmitBuffer, strlen(TransmitBuffer));
 3835              		.loc 2 638 0
 3836 0086 0F4D     		ldr	r5, .L338+8
 3837 0088 104C     		ldr	r4, .L338+16
 3838              	.LVL519:
 3839 008a 0FCC     		ldmia	r4!, {r0, r1, r2, r3}
 3840 008c 2860     		str	r0, [r5]	@ unaligned
 3841 008e 6960     		str	r1, [r5, #4]	@ unaligned
 3842 0090 AA60     		str	r2, [r5, #8]	@ unaligned
 3843 0092 EB60     		str	r3, [r5, #12]	@ unaligned
 3844 0094 03CC     		ldmia	r4!, {r0, r1}
 3845 0096 2861     		str	r0, [r5, #16]	@ unaligned
 3846 0098 6961     		str	r1, [r5, #20]	@ unaligned
ARM GAS  C:\Users\FRANKL~1\AppData\Local\Temp\ccba5qpo.s 			page 94


 3847 009a 2288     		ldrh	r2, [r4]	@ unaligned
 3848 009c A378     		ldrb	r3, [r4, #2]	@ zero_extendqisi2
 3849 009e 2A83     		strh	r2, [r5, #24]	@ unaligned
 3850 00a0 AB76     		strb	r3, [r5, #26]
 639:main.c        **** 	UART_1_PutString(TransmitBuffer);
 3851              		.loc 2 639 0
 3852 00a2 2846     		mov	r0, r5
 3853 00a4 FFF7FEFF 		bl	strlen
 3854              	.LVL520:
 3855 00a8 81B2     		uxth	r1, r0
 3856 00aa 2846     		mov	r0, r5
 3857 00ac FFF7FEFF 		bl	USBUARTH_Send
 3858              	.LVL521:
 640:main.c        **** }
 3859              		.loc 2 640 0
 3860 00b0 2846     		mov	r0, r5
 3861 00b2 FFF7FEFF 		bl	UART_1_PutString
 3862              	.LVL522:
 641:main.c        **** 
 3863              		.loc 2 641 0
 3864 00b6 04B0     		add	sp, sp, #16
 3865              		.cfi_def_cfa_offset 24
 3866              		@ sp needed
 3867 00b8 BDE8F081 		pop	{r4, r5, r6, r7, r8, pc}
 3868              	.LVL523:
 3869              	.L339:
 3870              		.align	2
 3871              	.L338:
 3872 00bc 00000000 		.word	.LANCHOR1
 3873 00c0 00000000 		.word	.LANCHOR0
 3874 00c4 00000000 		.word	TransmitBuffer
 3875 00c8 A8000000 		.word	.LC11
 3876 00cc C4000000 		.word	.LC12
 3877              		.cfi_endproc
 3878              	.LFE103:
 3879              		.size	Calibrate_ADC_Offset, .-Calibrate_ADC_Offset
 3880              		.section	.text.Measure,"ax",%progbits
 3881              		.align	2
 3882              		.global	Measure
 3883              		.thumb
 3884              		.thumb_func
 3885              		.type	Measure, %function
 3886              	Measure:
 3887              	.LFB104:
 644:main.c        **** 	int32 ADC_Voltage = 0;
 3888              		.loc 2 644 0
 3889              		.cfi_startproc
 3890              		@ args = 0, pretend = 0, frame = 24
 3891              		@ frame_needed = 0, uses_anonymous_args = 0
 3892              	.LVL524:
 3893 0000 2DE9F047 		push	{r4, r5, r6, r7, r8, r9, r10, lr}
 3894              		.cfi_def_cfa_offset 32
 3895              		.cfi_offset 4, -32
 3896              		.cfi_offset 5, -28
 3897              		.cfi_offset 6, -24
 3898              		.cfi_offset 7, -20
 3899              		.cfi_offset 8, -16
ARM GAS  C:\Users\FRANKL~1\AppData\Local\Temp\ccba5qpo.s 			page 95


 3900              		.cfi_offset 9, -12
 3901              		.cfi_offset 10, -8
 3902              		.cfi_offset 14, -4
 3903 0004 8EB0     		sub	sp, sp, #56
 3904              		.cfi_def_cfa_offset 88
 3905 0006 0E46     		mov	r6, r1
 3906 0008 1546     		mov	r5, r2
 645:main.c        **** 	int32 ADC_Voltage_SD = 0;
 3907              		.loc 2 645 0
 3908 000a 0024     		movs	r4, #0
 3909 000c 0D94     		str	r4, [sp, #52]
 646:main.c        **** 	
 3910              		.loc 2 646 0
 3911 000e 0EA9     		add	r1, sp, #56
 3912              	.LVL525:
 3913 0010 41F8084D 		str	r4, [r1, #-8]!
 648:main.c        **** 	
 3914              		.loc 2 648 0
 3915 0014 0246     		mov	r2, r0
 3916              	.LVL526:
 3917 0016 0DA8     		add	r0, sp, #52
 3918              	.LVL527:
 3919 0018 FFF7FEFF 		bl	ADC_Measure_uV
 3920              	.LVL528:
 650:main.c        **** 	int32 TIA_Offset_uV = TIA_Offsets_uV[TIA_Selected_Resistor];
 3921              		.loc 2 650 0
 3922 001c 384A     		ldr	r2, .L342+16
 3923 001e 1378     		ldrb	r3, [r2]	@ zero_extendqisi2
 3924 0020 9B00     		lsls	r3, r3, #2
 3925 0022 1A44     		add	r2, r2, r3
 3926              	.LVL529:
 651:main.c        **** 	float unitConversion = -1.0e-6/TIA_Feedback_R;
 3927              		.loc 2 651 0
 3928 0024 3749     		ldr	r1, .L342+20
 3929 0026 0B44     		add	r3, r3, r1
 3930 0028 D3F80480 		ldr	r8, [r3, #4]
 3931              	.LVL530:
 652:main.c        **** 	
 3932              		.loc 2 652 0
 3933 002c D068     		ldr	r0, [r2, #12]	@ float
 3934 002e FFF7FEFF 		bl	__aeabi_f2d
 3935              	.LVL531:
 3936 0032 0246     		mov	r2, r0
 3937 0034 0B46     		mov	r3, r1
 3938 0036 2EA1     		adr	r1, .L342
 3939 0038 D1E90001 		ldrd	r0, [r1]
 3940 003c FFF7FEFF 		bl	__aeabi_ddiv
 3941              	.LVL532:
 3942 0040 FFF7FEFF 		bl	__aeabi_d2f
 3943              	.LVL533:
 3944 0044 0746     		mov	r7, r0
 3945              	.LVL534:
 654:main.c        **** 	
 3946              		.loc 2 654 0
 3947 0046 0D98     		ldr	r0, [sp, #52]
 3948              	.LVL535:
 3949 0048 4044     		add	r0, r0, r8
ARM GAS  C:\Users\FRANKL~1\AppData\Local\Temp\ccba5qpo.s 			page 96


 3950 004a FFF7FEFF 		bl	__aeabi_i2f
 3951              	.LVL536:
 3952 004e 0146     		mov	r1, r0
 3953 0050 3846     		mov	r0, r7
 3954 0052 FFF7FEFF 		bl	__aeabi_fmul
 3955              	.LVL537:
 3956 0056 0746     		mov	r7, r0
 3957              	.LVL538:
 663:main.c        **** 	int32 SAR1_SD = 0;
 3958              		.loc 2 663 0
 3959 0058 0B94     		str	r4, [sp, #44]
 664:main.c        **** 	int32 SAR2_Average = 0;
 3960              		.loc 2 664 0
 3961 005a 0A94     		str	r4, [sp, #40]
 665:main.c        **** 	int32 SAR2_SD = 0;
 3962              		.loc 2 665 0
 3963 005c 0994     		str	r4, [sp, #36]
 666:main.c        **** 
 3964              		.loc 2 666 0
 3965 005e 0894     		str	r4, [sp, #32]
 668:main.c        **** 	SAR2_Measure_V(&SAR2_Average, &SAR2_SD, SAR2_SampleCount);
 3966              		.loc 2 668 0
 3967 0060 3246     		mov	r2, r6
 3968 0062 0AA9     		add	r1, sp, #40
 3969 0064 0BA8     		add	r0, sp, #44
 3970              	.LVL539:
 3971 0066 FFF7FEFF 		bl	SAR1_Measure_V
 3972              	.LVL540:
 669:main.c        **** 
 3973              		.loc 2 669 0
 3974 006a 2A46     		mov	r2, r5
 3975 006c 08A9     		add	r1, sp, #32
 3976 006e 09A8     		add	r0, sp, #36
 3977 0070 FFF7FEFF 		bl	SAR2_Measure_V
 3978              	.LVL541:
 671:main.c        **** 	float SAR2 = 1e-6*SAR2_Average;
 3979              		.loc 2 671 0
 3980 0074 0B98     		ldr	r0, [sp, #44]
 3981 0076 FFF7FEFF 		bl	__aeabi_i2d
 3982              	.LVL542:
 3983 007a 1FA3     		adr	r3, .L342+8
 3984 007c D3E90023 		ldrd	r2, [r3]
 3985 0080 FFF7FEFF 		bl	__aeabi_dmul
 3986              	.LVL543:
 3987 0084 FFF7FEFF 		bl	__aeabi_d2f
 3988              	.LVL544:
 3989 0088 8246     		mov	r10, r0
 3990              	.LVL545:
 674:main.c        **** 	USBUARTH_Send(TransmitBuffer, strlen(TransmitBuffer));
 3991              		.loc 2 674 0
 3992 008a FFF7FEFF 		bl	Get_Vgs
 3993              	.LVL546:
 3994 008e 8046     		mov	r8, r0
 3995              	.LVL547:
 3996 0090 FFF7FEFF 		bl	Get_Vds
 3997              	.LVL548:
 3998 0094 8146     		mov	r9, r0
ARM GAS  C:\Users\FRANKL~1\AppData\Local\Temp\ccba5qpo.s 			page 97


 3999 0096 1C4B     		ldr	r3, .L342+24
 4000 0098 1D78     		ldrb	r5, [r3]	@ zero_extendqisi2
 4001              	.LVL549:
 4002 009a EDB2     		uxtb	r5, r5
 4003 009c 3846     		mov	r0, r7
 4004 009e FFF7FEFF 		bl	__aeabi_f2d
 4005              	.LVL550:
 4006 00a2 0646     		mov	r6, r0
 4007              	.LVL551:
 4008 00a4 0F46     		mov	r7, r1
 4009              	.LVL552:
 4010 00a6 194C     		ldr	r4, .L342+28
 4011 00a8 0695     		str	r5, [sp, #24]
 4012 00aa 5046     		mov	r0, r10
 4013 00ac FFF7FEFF 		bl	__aeabi_f2d
 4014              	.LVL553:
 4015 00b0 CDE90401 		strd	r0, [sp, #16]
 4016 00b4 4846     		mov	r0, r9
 4017 00b6 FFF7FEFF 		bl	__aeabi_f2d
 4018              	.LVL554:
 4019 00ba CDE90201 		strd	r0, [sp, #8]
 4020 00be 4046     		mov	r0, r8
 4021 00c0 FFF7FEFF 		bl	__aeabi_f2d
 4022              	.LVL555:
 4023 00c4 CDE90001 		strd	r0, [sp]
 4024 00c8 3246     		mov	r2, r6
 4025 00ca 3B46     		mov	r3, r7
 4026 00cc 1049     		ldr	r1, .L342+32
 4027 00ce 2046     		mov	r0, r4
 4028 00d0 FFF7FEFF 		bl	sprintf
 4029              	.LVL556:
 675:main.c        **** 	UART_1_PutString(TransmitBuffer);
 4030              		.loc 2 675 0
 4031 00d4 2046     		mov	r0, r4
 4032 00d6 FFF7FEFF 		bl	strlen
 4033              	.LVL557:
 4034 00da 81B2     		uxth	r1, r0
 4035 00dc 2046     		mov	r0, r4
 4036 00de FFF7FEFF 		bl	USBUARTH_Send
 4037              	.LVL558:
 676:main.c        **** }
 4038              		.loc 2 676 0
 4039 00e2 2046     		mov	r0, r4
 4040 00e4 FFF7FEFF 		bl	UART_1_PutString
 4041              	.LVL559:
 677:main.c        **** 
 4042              		.loc 2 677 0
 4043 00e8 0EB0     		add	sp, sp, #56
 4044              		.cfi_def_cfa_offset 32
 4045              		@ sp needed
 4046 00ea BDE8F087 		pop	{r4, r5, r6, r7, r8, r9, r10, pc}
 4047              	.LVL560:
 4048              	.L343:
 4049 00ee 00BF     		.align	3
 4050              	.L342:
 4051 00f0 8DEDB5A0 		.word	-1598689907
 4052 00f4 F7C6B0BE 		.word	-1095710985
ARM GAS  C:\Users\FRANKL~1\AppData\Local\Temp\ccba5qpo.s 			page 98


 4053 00f8 8DEDB5A0 		.word	-1598689907
 4054 00fc F7C6B03E 		.word	1051772663
 4055 0100 00000000 		.word	.LANCHOR1
 4056 0104 00000000 		.word	.LANCHOR0
 4057 0108 825B0040 		.word	1073765250
 4058 010c 00000000 		.word	TransmitBuffer
 4059 0110 E0000000 		.word	.LC13
 4060              		.cfi_endproc
 4061              	.LFE104:
 4062              		.size	Measure, .-Measure
 4063              		.section	.text.Measure_Multiple,"ax",%progbits
 4064              		.align	2
 4065              		.global	Measure_Multiple
 4066              		.thumb
 4067              		.thumb_func
 4068              		.type	Measure_Multiple, %function
 4069              	Measure_Multiple:
 4070              	.LFB105:
 680:main.c        **** 	for (uint32 i = 0; i < n; i++) {
 4071              		.loc 2 680 0
 4072              		.cfi_startproc
 4073              		@ args = 0, pretend = 0, frame = 0
 4074              		@ frame_needed = 0, uses_anonymous_args = 0
 4075              	.LVL561:
 4076 0000 38B5     		push	{r3, r4, r5, lr}
 4077              		.cfi_def_cfa_offset 16
 4078              		.cfi_offset 3, -16
 4079              		.cfi_offset 4, -12
 4080              		.cfi_offset 5, -8
 4081              		.cfi_offset 14, -4
 4082 0002 0546     		mov	r5, r0
 4083              	.LVL562:
 4084              	.LBB43:
 681:main.c        **** 		Measure(100, 1, 10);
 4085              		.loc 2 681 0
 4086 0004 0024     		movs	r4, #0
 4087 0006 05E0     		b	.L345
 4088              	.LVL563:
 4089              	.L346:
 682:main.c        **** 	}
 4090              		.loc 2 682 0 discriminator 3
 4091 0008 0A22     		movs	r2, #10
 4092 000a 0121     		movs	r1, #1
 4093 000c 6420     		movs	r0, #100
 4094 000e FFF7FEFF 		bl	Measure
 4095              	.LVL564:
 681:main.c        **** 		Measure(100, 1, 10);
 4096              		.loc 2 681 0 discriminator 3
 4097 0012 0134     		adds	r4, r4, #1
 4098              	.LVL565:
 4099              	.L345:
 681:main.c        **** 		Measure(100, 1, 10);
 4100              		.loc 2 681 0 is_stmt 0 discriminator 1
 4101 0014 AC42     		cmp	r4, r5
 4102 0016 F7D3     		bcc	.L346
 4103              	.LBE43:
 684:main.c        **** 
ARM GAS  C:\Users\FRANKL~1\AppData\Local\Temp\ccba5qpo.s 			page 99


 4104              		.loc 2 684 0 is_stmt 1
 4105 0018 38BD     		pop	{r3, r4, r5, pc}
 4106              		.cfi_endproc
 4107              	.LFE105:
 4108              		.size	Measure_Multiple, .-Measure_Multiple
 4109 001a 00BF     		.section	.text.Measure_Sweep,"ax",%progbits
 4110              		.align	2
 4111              		.global	Measure_Sweep
 4112              		.thumb
 4113              		.thumb_func
 4114              		.type	Measure_Sweep, %function
 4115              	Measure_Sweep:
 4116              	.LFB106:
 687:main.c        **** 	VDAC_Vds_SetValue(90);
 4117              		.loc 2 687 0
 4118              		.cfi_startproc
 4119              		@ args = 0, pretend = 0, frame = 0
 4120              		@ frame_needed = 0, uses_anonymous_args = 0
 4121 0000 10B5     		push	{r4, lr}
 4122              		.cfi_def_cfa_offset 8
 4123              		.cfi_offset 4, -8
 4124              		.cfi_offset 14, -4
 688:main.c        **** 	VDAC_Vgs_SetValue(254);
 4125              		.loc 2 688 0
 4126 0002 5A20     		movs	r0, #90
 4127 0004 FFF7FEFF 		bl	VDAC_Vds_SetValue
 4128              	.LVL566:
 689:main.c        **** 	
 4129              		.loc 2 689 0
 4130 0008 FE20     		movs	r0, #254
 4131 000a FFF7FEFF 		bl	VDAC_Vgs_SetValue
 4132              	.LVL567:
 4133              	.LBB44:
 691:main.c        **** 		VDAC_Vgs_SetValue(Vgsi);
 4134              		.loc 2 691 0
 4135 000e 0024     		movs	r4, #0
 4136 0010 09E0     		b	.L349
 4137              	.LVL568:
 4138              	.L350:
 692:main.c        **** 		Measure(100, 1, 1);
 4139              		.loc 2 692 0 discriminator 3
 4140 0012 E0B2     		uxtb	r0, r4
 4141 0014 FFF7FEFF 		bl	VDAC_Vgs_SetValue
 4142              	.LVL569:
 693:main.c        **** 	}
 4143              		.loc 2 693 0 discriminator 3
 4144 0018 0122     		movs	r2, #1
 4145 001a 1146     		mov	r1, r2
 4146 001c 6420     		movs	r0, #100
 4147 001e FFF7FEFF 		bl	Measure
 4148              	.LVL570:
 691:main.c        **** 		VDAC_Vgs_SetValue(Vgsi);
 4149              		.loc 2 691 0 discriminator 3
 4150 0022 0134     		adds	r4, r4, #1
 4151              	.LVL571:
 4152 0024 A4B2     		uxth	r4, r4
 4153              	.LVL572:
ARM GAS  C:\Users\FRANKL~1\AppData\Local\Temp\ccba5qpo.s 			page 100


 4154              	.L349:
 691:main.c        **** 		VDAC_Vgs_SetValue(Vgsi);
 4155              		.loc 2 691 0 is_stmt 0 discriminator 1
 4156 0026 FF2C     		cmp	r4, #255
 4157 0028 F3D9     		bls	.L350
 4158              	.LBE44:
 695:main.c        **** 
 4159              		.loc 2 695 0 is_stmt 1
 4160 002a 10BD     		pop	{r4, pc}
 4161              		.cfi_endproc
 4162              	.LFE106:
 4163              		.size	Measure_Sweep, .-Measure_Sweep
 4164              		.section	.text.Measure_Gate_Sweep,"ax",%progbits
 4165              		.align	2
 4166              		.global	Measure_Gate_Sweep
 4167              		.thumb
 4168              		.thumb_func
 4169              		.type	Measure_Gate_Sweep, %function
 4170              	Measure_Gate_Sweep:
 4171              	.LFB107:
 697:main.c        **** 	
 4172              		.loc 2 697 0
 4173              		.cfi_startproc
 4174              		@ args = 0, pretend = 0, frame = 0
 4175              		@ frame_needed = 0, uses_anonymous_args = 0
 4176              	.LVL573:
 4177 0000 2DE9F843 		push	{r3, r4, r5, r6, r7, r8, r9, lr}
 4178              		.cfi_def_cfa_offset 32
 4179              		.cfi_offset 3, -32
 4180              		.cfi_offset 4, -28
 4181              		.cfi_offset 5, -24
 4182              		.cfi_offset 6, -20
 4183              		.cfi_offset 7, -16
 4184              		.cfi_offset 8, -12
 4185              		.cfi_offset 9, -8
 4186              		.cfi_offset 14, -4
 4187 0004 8146     		mov	r9, r0
 699:main.c        **** 		Set_Ref_Raw(254 - Vds_Index_Goal_Relative);
 4188              		.loc 2 699 0
 4189 0006 274B     		ldr	r3, .L369
 4190 0008 B3F90030 		ldrsh	r3, [r3]
 4191 000c 002B     		cmp	r3, #0
 4192 000e 07DD     		ble	.L353
 700:main.c        **** 	} else {
 4193              		.loc 2 700 0
 4194 0010 C3F1FE00 		rsb	r0, r3, #254
 4195              	.LVL574:
 4196 0014 C0B2     		uxtb	r0, r0
 4197 0016 FFF7FEFF 		bl	Set_Ref_Raw
 4198              	.LVL575:
 4199              	.L355:
 4200              	.LBB45:
 4201              	.LBB46:
 4202              	.LBB47:
 4203 001a 4FF00008 		mov	r8, #0
 4204 001e 3DE0     		b	.L354
 4205              	.LVL576:
ARM GAS  C:\Users\FRANKL~1\AppData\Local\Temp\ccba5qpo.s 			page 101


 4206              	.L353:
 4207              	.LBE47:
 4208              	.LBE46:
 4209              	.LBE45:
 702:main.c        **** 	}
 4210              		.loc 2 702 0
 4211 0020 FE20     		movs	r0, #254
 4212              	.LVL577:
 4213 0022 FFF7FEFF 		bl	Set_Ref_Raw
 4214              	.LVL578:
 4215 0026 F8E7     		b	.L355
 4216              	.LVL579:
 4217              	.L364:
 4218              	.LBB52:
 4219              	.LBB51:
 710:main.c        **** 			istart = -Vds_Index_Goal_Relative;
 4220              		.loc 2 710 0
 4221 0028 1E4B     		ldr	r3, .L369
 4222 002a B3F90030 		ldrsh	r3, [r3]
 4223 002e 002B     		cmp	r3, #0
 4224 0030 02DA     		bge	.L365
 711:main.c        **** 		}
 4225              		.loc 2 711 0
 4226 0032 5B42     		negs	r3, r3
 4227 0034 DDB2     		uxtb	r5, r3
 4228              	.LVL580:
 4229 0036 00E0     		b	.L356
 4230              	.LVL581:
 4231              	.L365:
 709:main.c        **** 		if (Vds_Index_Goal_Relative < 0) {
 4232              		.loc 2 709 0
 4233 0038 0025     		movs	r5, #0
 4234              	.LVL582:
 4235              	.L356:
 716:main.c        **** 			direction = -1*speed;
 4236              		.loc 2 716 0
 4237 003a 18F0010F 		tst	r8, #1
 4238 003e 02D1     		bne	.L366
 714:main.c        **** 		
 4239              		.loc 2 714 0
 4240 0040 F026     		movs	r6, #240
 708:main.c        **** 		uint8 istart = 0;
 4241              		.loc 2 708 0
 4242 0042 1027     		movs	r7, #16
 4243 0044 24E0     		b	.L358
 4244              	.L366:
 719:main.c        **** 		}
 4245              		.loc 2 719 0
 4246 0046 0026     		movs	r6, #0
 718:main.c        **** 			istop = 0;
 4247              		.loc 2 718 0
 4248 0048 F025     		movs	r5, #240
 4249              	.LVL583:
 717:main.c        **** 			istart = 256-speed;
 4250              		.loc 2 717 0
 4251 004a 6FF00F07 		mvn	r7, #15
 4252              	.LVL584:
ARM GAS  C:\Users\FRANKL~1\AppData\Local\Temp\ccba5qpo.s 			page 102


 4253              	.LBB50:
 722:main.c        **** 			for (uint8 j = 0; j <= 1; j++) {
 4254              		.loc 2 722 0
 4255 004e 1FE0     		b	.L358
 4256              	.LVL585:
 4257              	.L362:
 4258              	.LBB48:
 724:main.c        **** 				Set_Vgs_Raw(i);
 4259              		.loc 2 724 0
 4260 0050 012C     		cmp	r4, #1
 4261 0052 03D1     		bne	.L359
 724:main.c        **** 				Set_Vgs_Raw(i);
 4262              		.loc 2 724 0 is_stmt 0 discriminator 1
 4263 0054 E843     		mvns	r0, r5
 4264 0056 C0B2     		uxtb	r0, r0
 4265 0058 FFF7FEFF 		bl	Set_Ref_Raw
 4266              	.LVL586:
 4267              	.L359:
 725:main.c        **** 				
 4268              		.loc 2 725 0 is_stmt 1
 4269 005c 2846     		mov	r0, r5
 4270 005e FFF7FEFF 		bl	Set_Vgs_Raw
 4271              	.LVL587:
 727:main.c        **** 				
 4272              		.loc 2 727 0
 4273 0062 0122     		movs	r2, #1
 4274 0064 1146     		mov	r1, r2
 4275 0066 2120     		movs	r0, #33
 4276 0068 FFF7FEFF 		bl	Measure
 4277              	.LVL588:
 729:main.c        **** 				while (G_Pause);
 4278              		.loc 2 729 0
 4279 006c 0E4B     		ldr	r3, .L369+4
 4280 006e 5B78     		ldrb	r3, [r3, #1]	@ zero_extendqisi2
 4281 0070 13F0FF0F 		tst	r3, #255
 4282 0074 0AD1     		bne	.L360
 4283              	.L361:
 730:main.c        **** 			}
 4284              		.loc 2 730 0 discriminator 1
 4285 0076 0C4B     		ldr	r3, .L369+4
 4286 0078 DB78     		ldrb	r3, [r3, #3]	@ zero_extendqisi2
 4287 007a 13F0FF0F 		tst	r3, #255
 4288 007e FAD1     		bne	.L361
 723:main.c        **** 				if (j == 1) Set_Ref_Raw(254 - i + 1);
 4289              		.loc 2 723 0 discriminator 2
 4290 0080 0134     		adds	r4, r4, #1
 4291              	.LVL589:
 4292 0082 E4B2     		uxtb	r4, r4
 4293              	.LVL590:
 4294 0084 00E0     		b	.L363
 4295              	.LVL591:
 4296              	.L367:
 4297              	.LBE48:
 4298 0086 0024     		movs	r4, #0
 4299              	.L363:
 4300              	.LVL592:
 4301              	.LBB49:
ARM GAS  C:\Users\FRANKL~1\AppData\Local\Temp\ccba5qpo.s 			page 103


 723:main.c        **** 				if (j == 1) Set_Ref_Raw(254 - i + 1);
 4302              		.loc 2 723 0 is_stmt 0 discriminator 1
 4303 0088 012C     		cmp	r4, #1
 4304 008a E1D9     		bls	.L362
 4305              	.L360:
 4306              	.LBE49:
 722:main.c        **** 			for (uint8 j = 0; j <= 1; j++) {
 4307              		.loc 2 722 0 is_stmt 1 discriminator 2
 4308 008c 3D44     		add	r5, r5, r7
 4309              	.LVL593:
 4310 008e EDB2     		uxtb	r5, r5
 4311              	.LVL594:
 4312              	.L358:
 722:main.c        **** 			for (uint8 j = 0; j <= 1; j++) {
 4313              		.loc 2 722 0 is_stmt 0 discriminator 1
 4314 0090 AE42     		cmp	r6, r5
 4315 0092 F8D1     		bne	.L367
 4316              	.LBE50:
 4317              	.LBE51:
 707:main.c        **** 		int8 direction = 1*speed;
 4318              		.loc 2 707 0 is_stmt 1 discriminator 2
 4319 0094 08F10108 		add	r8, r8, #1
 4320              	.LVL595:
 4321 0098 5FFA88F8 		uxtb	r8, r8
 4322              	.LVL596:
 4323              	.L354:
 707:main.c        **** 		int8 direction = 1*speed;
 4324              		.loc 2 707 0 is_stmt 0 discriminator 1
 4325 009c C845     		cmp	r8, r9
 4326 009e C3D9     		bls	.L364
 4327              	.LBE52:
 734:main.c        **** 
 4328              		.loc 2 734 0 is_stmt 1
 4329 00a0 BDE8F883 		pop	{r3, r4, r5, r6, r7, r8, r9, pc}
 4330              	.LVL597:
 4331              	.L370:
 4332              		.align	2
 4333              	.L369:
 4334 00a4 00000000 		.word	Vds_Index_Goal_Relative
 4335 00a8 00000000 		.word	.LANCHOR0
 4336              		.cfi_endproc
 4337              	.LFE107:
 4338              		.size	Measure_Gate_Sweep, .-Measure_Gate_Sweep
 4339              		.section	.text.Measure_Wide_Gate_Sweep,"ax",%progbits
 4340              		.align	2
 4341              		.global	Measure_Wide_Gate_Sweep
 4342              		.thumb
 4343              		.thumb_func
 4344              		.type	Measure_Wide_Gate_Sweep, %function
 4345              	Measure_Wide_Gate_Sweep:
 4346              	.LFB108:
 736:main.c        **** 	Set_Ref_Raw(254);
 4347              		.loc 2 736 0
 4348              		.cfi_startproc
 4349              		@ args = 0, pretend = 0, frame = 0
 4350              		@ frame_needed = 0, uses_anonymous_args = 0
 4351              	.LVL598:
ARM GAS  C:\Users\FRANKL~1\AppData\Local\Temp\ccba5qpo.s 			page 104


 4352 0000 2DE9F843 		push	{r3, r4, r5, r6, r7, r8, r9, lr}
 4353              		.cfi_def_cfa_offset 32
 4354              		.cfi_offset 3, -32
 4355              		.cfi_offset 4, -28
 4356              		.cfi_offset 5, -24
 4357              		.cfi_offset 6, -20
 4358              		.cfi_offset 7, -16
 4359              		.cfi_offset 8, -12
 4360              		.cfi_offset 9, -8
 4361              		.cfi_offset 14, -4
 4362 0004 8146     		mov	r9, r0
 737:main.c        **** 	
 4363              		.loc 2 737 0
 4364 0006 FE20     		movs	r0, #254
 4365              	.LVL599:
 4366 0008 FFF7FEFF 		bl	Set_Ref_Raw
 4367              	.LVL600:
 4368              	.LBB53:
 741:main.c        **** 		int8 direction = 1*speed;
 4369              		.loc 2 741 0
 4370 000c 4FF00008 		mov	r8, #0
 4371 0010 31E0     		b	.L372
 4372              	.LVL601:
 4373              	.L380:
 4374              	.LBB54:
 746:main.c        **** 			direction = -1*speed;
 4375              		.loc 2 746 0
 4376 0012 18F0010F 		tst	r8, #1
 4377 0016 03D1     		bne	.L381
 744:main.c        **** 		
 4378              		.loc 2 744 0
 4379 0018 F026     		movs	r6, #240
 743:main.c        **** 		uint8 istop = 256-speed;
 4380              		.loc 2 743 0
 4381 001a 0025     		movs	r5, #0
 742:main.c        **** 		uint8 istart = 0;
 4382              		.loc 2 742 0
 4383 001c 1027     		movs	r7, #16
 4384 001e 24E0     		b	.L374
 4385              	.L381:
 749:main.c        **** 		}
 4386              		.loc 2 749 0
 4387 0020 0026     		movs	r6, #0
 748:main.c        **** 			istop = 0;
 4388              		.loc 2 748 0
 4389 0022 F025     		movs	r5, #240
 747:main.c        **** 			istart = 256-speed;
 4390              		.loc 2 747 0
 4391 0024 6FF00F07 		mvn	r7, #15
 4392              	.LVL602:
 4393              	.LBB55:
 752:main.c        **** 			for (uint8 j = 0; j <= 1; j++) {
 4394              		.loc 2 752 0
 4395 0028 1FE0     		b	.L374
 4396              	.LVL603:
 4397              	.L378:
 4398              	.LBB56:
ARM GAS  C:\Users\FRANKL~1\AppData\Local\Temp\ccba5qpo.s 			page 105


 755:main.c        **** 				Set_Vgs_Raw(i);
 4399              		.loc 2 755 0
 4400 002a 012C     		cmp	r4, #1
 4401 002c 03D1     		bne	.L375
 755:main.c        **** 				Set_Vgs_Raw(i);
 4402              		.loc 2 755 0 is_stmt 0 discriminator 1
 4403 002e E843     		mvns	r0, r5
 4404 0030 C0B2     		uxtb	r0, r0
 4405 0032 FFF7FEFF 		bl	Set_Ref_Raw
 4406              	.LVL604:
 4407              	.L375:
 756:main.c        **** 				
 4408              		.loc 2 756 0 is_stmt 1
 4409 0036 2846     		mov	r0, r5
 4410 0038 FFF7FEFF 		bl	Set_Vgs_Raw
 4411              	.LVL605:
 758:main.c        **** 				
 4412              		.loc 2 758 0
 4413 003c 0122     		movs	r2, #1
 4414 003e 1146     		mov	r1, r2
 4415 0040 2120     		movs	r0, #33
 4416 0042 FFF7FEFF 		bl	Measure
 4417              	.LVL606:
 760:main.c        **** 				while (G_Pause);
 4418              		.loc 2 760 0
 4419 0046 0E4B     		ldr	r3, .L384
 4420 0048 5B78     		ldrb	r3, [r3, #1]	@ zero_extendqisi2
 4421 004a 13F0FF0F 		tst	r3, #255
 4422 004e 0AD1     		bne	.L376
 4423              	.L377:
 761:main.c        **** 			}
 4424              		.loc 2 761 0 discriminator 1
 4425 0050 0B4B     		ldr	r3, .L384
 4426 0052 DB78     		ldrb	r3, [r3, #3]	@ zero_extendqisi2
 4427 0054 13F0FF0F 		tst	r3, #255
 4428 0058 FAD1     		bne	.L377
 753:main.c        **** 				
 4429              		.loc 2 753 0 discriminator 2
 4430 005a 0134     		adds	r4, r4, #1
 4431              	.LVL607:
 4432 005c E4B2     		uxtb	r4, r4
 4433              	.LVL608:
 4434 005e 00E0     		b	.L379
 4435              	.LVL609:
 4436              	.L382:
 4437              	.LBE56:
 4438 0060 0024     		movs	r4, #0
 4439              	.L379:
 4440              	.LVL610:
 4441              	.LBB57:
 753:main.c        **** 				
 4442              		.loc 2 753 0 is_stmt 0 discriminator 1
 4443 0062 012C     		cmp	r4, #1
 4444 0064 E1D9     		bls	.L378
 4445              	.L376:
 4446              	.LBE57:
 752:main.c        **** 			for (uint8 j = 0; j <= 1; j++) {
ARM GAS  C:\Users\FRANKL~1\AppData\Local\Temp\ccba5qpo.s 			page 106


 4447              		.loc 2 752 0 is_stmt 1 discriminator 2
 4448 0066 3D44     		add	r5, r5, r7
 4449              	.LVL611:
 4450 0068 EDB2     		uxtb	r5, r5
 4451              	.LVL612:
 4452              	.L374:
 752:main.c        **** 			for (uint8 j = 0; j <= 1; j++) {
 4453              		.loc 2 752 0 is_stmt 0 discriminator 1
 4454 006a AE42     		cmp	r6, r5
 4455 006c F8D1     		bne	.L382
 4456              	.LBE55:
 4457              	.LBE54:
 741:main.c        **** 		int8 direction = 1*speed;
 4458              		.loc 2 741 0 is_stmt 1 discriminator 2
 4459 006e 08F10108 		add	r8, r8, #1
 4460              	.LVL613:
 4461 0072 5FFA88F8 		uxtb	r8, r8
 4462              	.LVL614:
 4463              	.L372:
 741:main.c        **** 		int8 direction = 1*speed;
 4464              		.loc 2 741 0 is_stmt 0 discriminator 1
 4465 0076 C845     		cmp	r8, r9
 4466 0078 CBD9     		bls	.L380
 4467              	.LBE53:
 765:main.c        **** 
 4468              		.loc 2 765 0 is_stmt 1
 4469 007a BDE8F883 		pop	{r3, r4, r5, r6, r7, r8, r9, pc}
 4470              	.LVL615:
 4471              	.L385:
 4472 007e 00BF     		.align	2
 4473              	.L384:
 4474 0080 00000000 		.word	.LANCHOR0
 4475              		.cfi_endproc
 4476              	.LFE108:
 4477              		.size	Measure_Wide_Gate_Sweep, .-Measure_Wide_Gate_Sweep
 4478              		.section	.text.Measure_Gate_Sweep_New,"ax",%progbits
 4479              		.align	2
 4480              		.global	Measure_Gate_Sweep_New
 4481              		.thumb
 4482              		.thumb_func
 4483              		.type	Measure_Gate_Sweep_New, %function
 4484              	Measure_Gate_Sweep_New:
 4485              	.LFB109:
 767:main.c        **** 	uint8 refTurn = 1;
 4486              		.loc 2 767 0
 4487              		.cfi_startproc
 4488              		@ args = 0, pretend = 0, frame = 0
 4489              		@ frame_needed = 0, uses_anonymous_args = 0
 4490 0000 2DE9F843 		push	{r3, r4, r5, r6, r7, r8, r9, lr}
 4491              		.cfi_def_cfa_offset 32
 4492              		.cfi_offset 3, -32
 4493              		.cfi_offset 4, -28
 4494              		.cfi_offset 5, -24
 4495              		.cfi_offset 6, -20
 4496              		.cfi_offset 7, -16
 4497              		.cfi_offset 8, -12
 4498              		.cfi_offset 9, -8
ARM GAS  C:\Users\FRANKL~1\AppData\Local\Temp\ccba5qpo.s 			page 107


 4499              		.cfi_offset 14, -4
 4500              	.LVL616:
 779:main.c        **** 	
 4501              		.loc 2 779 0
 4502 0004 0027     		movs	r7, #0
 778:main.c        **** 	uint8 gateArrived = 0;
 4503              		.loc 2 778 0
 4504 0006 3E46     		mov	r6, r7
 773:main.c        **** 	
 4505              		.loc 2 773 0
 4506 0008 B946     		mov	r9, r7
 772:main.c        **** 	uint8 refArrived = 0;
 4507              		.loc 2 772 0
 4508 000a 3D46     		mov	r5, r7
 768:main.c        **** 	int8 refIncrement = 1;
 4509              		.loc 2 768 0
 4510 000c 0124     		movs	r4, #1
 782:main.c        **** 		gateArrived = abs(gateIndex-endGateIndex) < abs(gateIncrement);
 4511              		.loc 2 782 0
 4512 000e 39E0     		b	.L387
 4513              	.LVL617:
 4514              	.L395:
 783:main.c        **** 		refArrived = abs(refIndex-endRefIndex) < abs(refIncrement);
 4515              		.loc 2 783 0
 4516 0010 86EAE673 		eor	r3, r6, r6, asr #31
 4517 0014 A3EBE673 		sub	r3, r3, r6, asr #31
 4518 0018 002B     		cmp	r3, #0
 4519 001a CCBF     		ite	gt
 4520 001c 0027     		movgt	r7, #0
 4521              	.LVL618:
 4522 001e 0127     		movle	r7, #1
 4523              	.LVL619:
 784:main.c        **** 		
 4524              		.loc 2 784 0
 4525 0020 85EAE572 		eor	r2, r5, r5, asr #31
 4526 0024 A2EBE572 		sub	r2, r2, r5, asr #31
 4527 0028 002A     		cmp	r2, #0
 4528 002a CCBF     		ite	gt
 4529 002c 4FF00009 		movgt	r9, #0
 4530              	.LVL620:
 4531 0030 4FF00109 		movle	r9, #1
 4532              	.LVL621:
 786:main.c        **** 		
 4533              		.loc 2 786 0
 4534 0034 002C     		cmp	r4, #0
 4535 0036 0CBF     		ite	eq
 4536 0038 4FF00108 		moveq	r8, #1
 4537 003c 4FF00008 		movne	r8, #0
 4538              	.LVL622:
 788:main.c        **** 		if (!refTurn && gateArrived) continue;
 4539              		.loc 2 788 0
 4540 0040 01D1     		bne	.L388
 788:main.c        **** 		if (!refTurn && gateArrived) continue;
 4541              		.loc 2 788 0 is_stmt 0 discriminator 1
 4542 0042 002A     		cmp	r2, #0
 4543 0044 1DDD     		ble	.L389
 4544              	.L388:
ARM GAS  C:\Users\FRANKL~1\AppData\Local\Temp\ccba5qpo.s 			page 108


 789:main.c        **** 		
 4545              		.loc 2 789 0 is_stmt 1
 4546 0046 0CB1     		cbz	r4, .L390
 789:main.c        **** 		
 4547              		.loc 2 789 0 is_stmt 0 discriminator 1
 4548 0048 002B     		cmp	r3, #0
 4549 004a 1ADD     		ble	.L389
 4550              	.L390:
 791:main.c        **** 		Set_Vgs_Raw(gateIndex);
 4551              		.loc 2 791 0 is_stmt 1
 4552 004c 2846     		mov	r0, r5
 4553 004e FFF7FEFF 		bl	Set_Ref_Raw
 4554              	.LVL623:
 792:main.c        **** 		
 4555              		.loc 2 792 0
 4556 0052 3046     		mov	r0, r6
 4557 0054 FFF7FEFF 		bl	Set_Vgs_Raw
 4558              	.LVL624:
 794:main.c        **** 		
 4559              		.loc 2 794 0
 4560 0058 0122     		movs	r2, #1
 4561 005a 1146     		mov	r1, r2
 4562 005c 6420     		movs	r0, #100
 4563 005e FFF7FEFF 		bl	Measure
 4564              	.LVL625:
 796:main.c        **** 			refIndex += refIncrement;
 4565              		.loc 2 796 0
 4566 0062 14B9     		cbnz	r4, .L391
 797:main.c        **** 		} else {
 4567              		.loc 2 797 0
 4568 0064 0135     		adds	r5, r5, #1
 4569              	.LVL626:
 4570 0066 EDB2     		uxtb	r5, r5
 4571              	.LVL627:
 4572 0068 01E0     		b	.L392
 4573              	.L391:
 799:main.c        **** 		}
 4574              		.loc 2 799 0
 4575 006a 0136     		adds	r6, r6, #1
 4576              	.LVL628:
 4577 006c F6B2     		uxtb	r6, r6
 4578              	.LVL629:
 4579              	.L392:
 802:main.c        **** 		while (G_Pause);
 4580              		.loc 2 802 0
 4581 006e 094B     		ldr	r3, .L397
 4582 0070 5B78     		ldrb	r3, [r3, #1]	@ zero_extendqisi2
 4583 0072 13F0FF0F 		tst	r3, #255
 4584 0076 0AD1     		bne	.L386
 4585              	.L394:
 803:main.c        **** 	}
 4586              		.loc 2 803 0 discriminator 1
 4587 0078 064B     		ldr	r3, .L397
 4588 007a DB78     		ldrb	r3, [r3, #3]	@ zero_extendqisi2
 4589 007c 13F0FF0F 		tst	r3, #255
 4590 0080 FAD1     		bne	.L394
 4591              	.L389:
ARM GAS  C:\Users\FRANKL~1\AppData\Local\Temp\ccba5qpo.s 			page 109


 767:main.c        **** 	uint8 refTurn = 1;
 4592              		.loc 2 767 0
 4593 0082 4446     		mov	r4, r8
 4594              	.LVL630:
 4595              	.L387:
 782:main.c        **** 		gateArrived = abs(gateIndex-endGateIndex) < abs(gateIncrement);
 4596              		.loc 2 782 0
 4597 0084 002F     		cmp	r7, #0
 4598 0086 C3D0     		beq	.L395
 782:main.c        **** 		gateArrived = abs(gateIndex-endGateIndex) < abs(gateIncrement);
 4599              		.loc 2 782 0 is_stmt 0 discriminator 1
 4600 0088 B9F1000F 		cmp	r9, #0
 4601 008c C0D0     		beq	.L395
 4602              	.LVL631:
 4603              	.L386:
 4604 008e BDE8F883 		pop	{r3, r4, r5, r6, r7, r8, r9, pc}
 4605              	.LVL632:
 4606              	.L398:
 4607 0092 00BF     		.align	2
 4608              	.L397:
 4609 0094 00000000 		.word	.LANCHOR0
 4610              		.cfi_endproc
 4611              	.LFE109:
 4612              		.size	Measure_Gate_Sweep_New, .-Measure_Gate_Sweep_New
 4613              		.section	.text.Scan,"ax",%progbits
 4614              		.align	2
 4615              		.global	Scan
 4616              		.thumb
 4617              		.thumb_func
 4618              		.type	Scan, %function
 4619              	Scan:
 4620              	.LFB110:
 807:main.c        **** 	for (uint8 device = 1; device <= CONTACT_COUNT/**//2; device++) {
 4621              		.loc 2 807 0 is_stmt 1
 4622              		.cfi_startproc
 4623              		@ args = 0, pretend = 0, frame = 0
 4624              		@ frame_needed = 0, uses_anonymous_args = 0
 4625              	.LVL633:
 4626 0000 2DE9F041 		push	{r4, r5, r6, r7, r8, lr}
 4627              		.cfi_def_cfa_offset 24
 4628              		.cfi_offset 4, -24
 4629              		.cfi_offset 5, -20
 4630              		.cfi_offset 6, -16
 4631              		.cfi_offset 7, -12
 4632              		.cfi_offset 8, -8
 4633              		.cfi_offset 14, -4
 4634 0004 0746     		mov	r7, r0
 4635 0006 8846     		mov	r8, r1
 4636              	.LVL634:
 4637              	.LBB58:
 808:main.c        **** 		uint8 contact1 = device;
 4638              		.loc 2 808 0
 4639 0008 0124     		movs	r4, #1
 4640 000a 37E0     		b	.L400
 4641              	.LVL635:
 4642              	.L405:
 4643              	.LBB59:
ARM GAS  C:\Users\FRANKL~1\AppData\Local\Temp\ccba5qpo.s 			page 110


 810:main.c        **** 		uint8 intermediate1 = 1;
 4644              		.loc 2 810 0
 4645 000c 661C     		adds	r6, r4, #1
 4646 000e F6B2     		uxtb	r6, r6
 4647              	.LVL636:
 814:main.c        **** 		Zero_All_DACs();
 4648              		.loc 2 814 0
 4649 0010 FFF7FEFF 		bl	Disconnect_All_Contacts_From_All_Intermediates
 4650              	.LVL637:
 815:main.c        **** 		Connect_Intermediates();
 4651              		.loc 2 815 0
 4652 0014 FFF7FEFF 		bl	Zero_All_DACs
 4653              	.LVL638:
 816:main.c        **** 		Connect_Contact_To_Intermediate(contact1, intermediate1);
 4654              		.loc 2 816 0
 4655 0018 FFF7FEFF 		bl	Connect_Intermediates
 4656              	.LVL639:
 817:main.c        **** 		Connect_Contact_To_Intermediate(contact2, intermediate2);
 4657              		.loc 2 817 0
 4658 001c 0121     		movs	r1, #1
 4659 001e 2046     		mov	r0, r4
 4660 0020 FFF7FEFF 		bl	Connect_Contact_To_Intermediate
 4661              	.LVL640:
 818:main.c        **** 		
 4662              		.loc 2 818 0
 4663 0024 0221     		movs	r1, #2
 4664 0026 3046     		mov	r0, r6
 4665 0028 FFF7FEFF 		bl	Connect_Contact_To_Intermediate
 4666              	.LVL641:
 820:main.c        **** 		USBUARTH_Send(TransmitBuffer, strlen(TransmitBuffer));
 4667              		.loc 2 820 0
 4668 002c 154D     		ldr	r5, .L407
 4669 002e 2246     		mov	r2, r4
 4670 0030 1549     		ldr	r1, .L407+4
 4671 0032 2846     		mov	r0, r5
 4672 0034 FFF7FEFF 		bl	sprintf
 4673              	.LVL642:
 821:main.c        **** 		UART_1_PutString(TransmitBuffer);
 4674              		.loc 2 821 0
 4675 0038 2846     		mov	r0, r5
 4676 003a FFF7FEFF 		bl	strlen
 4677              	.LVL643:
 4678 003e 81B2     		uxth	r1, r0
 4679 0040 2846     		mov	r0, r5
 4680 0042 FFF7FEFF 		bl	USBUARTH_Send
 4681              	.LVL644:
 822:main.c        **** 		
 4682              		.loc 2 822 0
 4683 0046 2846     		mov	r0, r5
 4684 0048 FFF7FEFF 		bl	UART_1_PutString
 4685              	.LVL645:
 824:main.c        **** 			Measure_Wide_Gate_Sweep(loop);
 4686              		.loc 2 824 0
 4687 004c 1FB1     		cbz	r7, .L401
 825:main.c        **** 		} else {
 4688              		.loc 2 825 0
 4689 004e 4046     		mov	r0, r8
ARM GAS  C:\Users\FRANKL~1\AppData\Local\Temp\ccba5qpo.s 			page 111


 4690 0050 FFF7FEFF 		bl	Measure_Wide_Gate_Sweep
 4691              	.LVL646:
 4692 0054 02E0     		b	.L402
 4693              	.L401:
 827:main.c        **** 		}
 4694              		.loc 2 827 0
 4695 0056 4046     		mov	r0, r8
 4696 0058 FFF7FEFF 		bl	Measure_Gate_Sweep
 4697              	.LVL647:
 4698              	.L402:
 830:main.c        **** 		while (G_Pause);
 4699              		.loc 2 830 0
 4700 005c 0B4B     		ldr	r3, .L407+8
 4701 005e 9B78     		ldrb	r3, [r3, #2]	@ zero_extendqisi2
 4702 0060 13F0FF0F 		tst	r3, #255
 4703 0064 0CD1     		bne	.L399
 830:main.c        **** 		while (G_Pause);
 4704              		.loc 2 830 0 is_stmt 0 discriminator 1
 4705 0066 094B     		ldr	r3, .L407+8
 4706 0068 5B78     		ldrb	r3, [r3, #1]	@ zero_extendqisi2
 4707 006a 13F0FF0F 		tst	r3, #255
 4708 006e 07D1     		bne	.L399
 4709              	.L404:
 831:main.c        **** 	}
 4710              		.loc 2 831 0 is_stmt 1 discriminator 1
 4711 0070 064B     		ldr	r3, .L407+8
 4712 0072 DB78     		ldrb	r3, [r3, #3]	@ zero_extendqisi2
 4713 0074 13F0FF0F 		tst	r3, #255
 4714 0078 FAD1     		bne	.L404
 4715              	.LBE59:
 808:main.c        **** 		uint8 contact1 = device;
 4716              		.loc 2 808 0
 4717 007a 3446     		mov	r4, r6
 4718              	.LVL648:
 4719              	.L400:
 808:main.c        **** 		uint8 contact1 = device;
 4720              		.loc 2 808 0 is_stmt 0 discriminator 1
 4721 007c 202C     		cmp	r4, #32
 4722 007e C5D9     		bls	.L405
 4723              	.L399:
 4724 0080 BDE8F081 		pop	{r4, r5, r6, r7, r8, pc}
 4725              	.LVL649:
 4726              	.L408:
 4727              		.align	2
 4728              	.L407:
 4729 0084 00000000 		.word	TransmitBuffer
 4730 0088 F4000000 		.word	.LC14
 4731 008c 00000000 		.word	.LANCHOR0
 4732              	.LBE58:
 4733              		.cfi_endproc
 4734              	.LFE110:
 4735              		.size	Scan, .-Scan
 4736              		.section	.text.Scan_Range,"ax",%progbits
 4737              		.align	2
 4738              		.global	Scan_Range
 4739              		.thumb
 4740              		.thumb_func
ARM GAS  C:\Users\FRANKL~1\AppData\Local\Temp\ccba5qpo.s 			page 112


 4741              		.type	Scan_Range, %function
 4742              	Scan_Range:
 4743              	.LFB111:
 835:main.c        **** 	if (startDevice >= CONTACT_COUNT) return;
 4744              		.loc 2 835 0 is_stmt 1
 4745              		.cfi_startproc
 4746              		@ args = 0, pretend = 0, frame = 0
 4747              		@ frame_needed = 0, uses_anonymous_args = 0
 4748              	.LVL650:
 836:main.c        **** 	if (stopDevice >= CONTACT_COUNT) return;
 4749              		.loc 2 836 0
 4750 0000 3F28     		cmp	r0, #63
 4751 0002 47D8     		bhi	.L417
 835:main.c        **** 	if (startDevice >= CONTACT_COUNT) return;
 4752              		.loc 2 835 0
 4753 0004 2DE9F843 		push	{r3, r4, r5, r6, r7, r8, r9, lr}
 4754              		.cfi_def_cfa_offset 32
 4755              		.cfi_offset 3, -32
 4756              		.cfi_offset 4, -28
 4757              		.cfi_offset 5, -24
 4758              		.cfi_offset 6, -20
 4759              		.cfi_offset 7, -16
 4760              		.cfi_offset 8, -12
 4761              		.cfi_offset 9, -8
 4762              		.cfi_offset 14, -4
 4763 0008 0446     		mov	r4, r0
 4764 000a 0F46     		mov	r7, r1
 4765 000c 9046     		mov	r8, r2
 4766 000e 9946     		mov	r9, r3
 837:main.c        **** 	
 4767              		.loc 2 837 0
 4768 0010 3F29     		cmp	r1, #63
 4769 0012 3BD9     		bls	.L411
 4770 0014 BDE8F883 		pop	{r3, r4, r5, r6, r7, r8, r9, pc}
 4771              	.LVL651:
 4772              	.L415:
 4773              	.LBB60:
 4774              	.LBB61:
 841:main.c        **** 		uint8 intermediate1 = 1;
 4775              		.loc 2 841 0
 4776 0018 661C     		adds	r6, r4, #1
 4777 001a F6B2     		uxtb	r6, r6
 4778              	.LVL652:
 845:main.c        **** 		Zero_All_DACs();
 4779              		.loc 2 845 0
 4780 001c FFF7FEFF 		bl	Disconnect_All_Contacts_From_All_Intermediates
 4781              	.LVL653:
 846:main.c        **** 		Connect_Intermediates();
 4782              		.loc 2 846 0
 4783 0020 FFF7FEFF 		bl	Zero_All_DACs
 4784              	.LVL654:
 847:main.c        **** 		Connect_Contact_To_Intermediate(contact1, intermediate1);
 4785              		.loc 2 847 0
 4786 0024 FFF7FEFF 		bl	Connect_Intermediates
 4787              	.LVL655:
 848:main.c        **** 		Connect_Contact_To_Intermediate(contact2, intermediate2);
 4788              		.loc 2 848 0
ARM GAS  C:\Users\FRANKL~1\AppData\Local\Temp\ccba5qpo.s 			page 113


 4789 0028 0121     		movs	r1, #1
 4790 002a 2046     		mov	r0, r4
 4791 002c FFF7FEFF 		bl	Connect_Contact_To_Intermediate
 4792              	.LVL656:
 849:main.c        **** 		
 4793              		.loc 2 849 0
 4794 0030 0221     		movs	r1, #2
 4795 0032 3046     		mov	r0, r6
 4796 0034 FFF7FEFF 		bl	Connect_Contact_To_Intermediate
 4797              	.LVL657:
 851:main.c        **** 		USBUARTH_Send(TransmitBuffer, strlen(TransmitBuffer));
 4798              		.loc 2 851 0
 4799 0038 174D     		ldr	r5, .L418
 4800 003a 2246     		mov	r2, r4
 4801 003c 1749     		ldr	r1, .L418+4
 4802 003e 2846     		mov	r0, r5
 4803 0040 FFF7FEFF 		bl	sprintf
 4804              	.LVL658:
 852:main.c        **** 		UART_1_PutString(TransmitBuffer);
 4805              		.loc 2 852 0
 4806 0044 2846     		mov	r0, r5
 4807 0046 FFF7FEFF 		bl	strlen
 4808              	.LVL659:
 4809 004a 81B2     		uxth	r1, r0
 4810 004c 2846     		mov	r0, r5
 4811 004e FFF7FEFF 		bl	USBUARTH_Send
 4812              	.LVL660:
 853:main.c        **** 		
 4813              		.loc 2 853 0
 4814 0052 2846     		mov	r0, r5
 4815 0054 FFF7FEFF 		bl	UART_1_PutString
 4816              	.LVL661:
 855:main.c        **** 			Measure_Wide_Gate_Sweep(loop);
 4817              		.loc 2 855 0
 4818 0058 B8F1000F 		cmp	r8, #0
 4819 005c 03D0     		beq	.L412
 856:main.c        **** 		} else {
 4820              		.loc 2 856 0
 4821 005e 4846     		mov	r0, r9
 4822 0060 FFF7FEFF 		bl	Measure_Wide_Gate_Sweep
 4823              	.LVL662:
 4824 0064 02E0     		b	.L413
 4825              	.L412:
 858:main.c        **** 		}
 4826              		.loc 2 858 0
 4827 0066 4846     		mov	r0, r9
 4828 0068 FFF7FEFF 		bl	Measure_Gate_Sweep
 4829              	.LVL663:
 4830              	.L413:
 861:main.c        **** 		while (G_Pause);
 4831              		.loc 2 861 0
 4832 006c 0C4B     		ldr	r3, .L418+8
 4833 006e 9B78     		ldrb	r3, [r3, #2]	@ zero_extendqisi2
 4834 0070 13F0FF0F 		tst	r3, #255
 4835 0074 0CD1     		bne	.L409
 861:main.c        **** 		while (G_Pause);
 4836              		.loc 2 861 0 is_stmt 0 discriminator 1
ARM GAS  C:\Users\FRANKL~1\AppData\Local\Temp\ccba5qpo.s 			page 114


 4837 0076 0A4B     		ldr	r3, .L418+8
 4838 0078 5B78     		ldrb	r3, [r3, #1]	@ zero_extendqisi2
 4839 007a 13F0FF0F 		tst	r3, #255
 4840 007e 07D1     		bne	.L409
 4841              	.L414:
 862:main.c        **** 	}
 4842              		.loc 2 862 0 is_stmt 1 discriminator 1
 4843 0080 074B     		ldr	r3, .L418+8
 4844 0082 DB78     		ldrb	r3, [r3, #3]	@ zero_extendqisi2
 4845 0084 13F0FF0F 		tst	r3, #255
 4846 0088 FAD1     		bne	.L414
 4847              	.LBE61:
 839:main.c        **** 		uint8 contact1 = device;
 4848              		.loc 2 839 0
 4849 008a 3446     		mov	r4, r6
 4850              	.LVL664:
 4851              	.L411:
 839:main.c        **** 		uint8 contact1 = device;
 4852              		.loc 2 839 0 is_stmt 0 discriminator 1
 4853 008c BC42     		cmp	r4, r7
 4854 008e C3D9     		bls	.L415
 4855              	.L409:
 4856 0090 BDE8F883 		pop	{r3, r4, r5, r6, r7, r8, r9, pc}
 4857              	.LVL665:
 4858              	.L417:
 4859              		.cfi_def_cfa_offset 0
 4860              		.cfi_restore 3
 4861              		.cfi_restore 4
 4862              		.cfi_restore 5
 4863              		.cfi_restore 6
 4864              		.cfi_restore 7
 4865              		.cfi_restore 8
 4866              		.cfi_restore 9
 4867              		.cfi_restore 14
 4868 0094 7047     		bx	lr
 4869              	.L419:
 4870 0096 00BF     		.align	2
 4871              	.L418:
 4872 0098 00000000 		.word	TransmitBuffer
 4873 009c F4000000 		.word	.LC14
 4874 00a0 00000000 		.word	.LANCHOR0
 4875              	.LBE60:
 4876              		.cfi_endproc
 4877              	.LFE111:
 4878              		.size	Scan_Range, .-Scan_Range
 4879              		.section	.text.main,"ax",%progbits
 4880              		.align	2
 4881              		.global	main
 4882              		.thumb
 4883              		.thumb_func
 4884              		.type	main, %function
 4885              	main:
 4886              	.LFB113:
 935:main.c        **** 
 936:main.c        **** int main(void) {
 4887              		.loc 2 936 0 is_stmt 1
 4888              		.cfi_startproc
ARM GAS  C:\Users\FRANKL~1\AppData\Local\Temp\ccba5qpo.s 			page 115


 4889              		@ args = 0, pretend = 0, frame = 8
 4890              		@ frame_needed = 0, uses_anonymous_args = 0
 4891 0000 F0B5     		push	{r4, r5, r6, r7, lr}
 4892              		.cfi_def_cfa_offset 20
 4893              		.cfi_offset 4, -20
 4894              		.cfi_offset 5, -16
 4895              		.cfi_offset 6, -12
 4896              		.cfi_offset 7, -8
 4897              		.cfi_offset 14, -4
 4898 0002 83B0     		sub	sp, sp, #12
 4899              		.cfi_def_cfa_offset 32
 937:main.c        **** 	CyGlobalIntEnable;
 4900              		.loc 2 937 0
 4901              		.syntax unified
 4902              	@ 937 "main.c" 1
 4903 0004 62B6     		CPSIE   i
 4904              	@ 0 "" 2
 938:main.c        **** 	
 939:main.c        **** 	Setup_Selectors();
 4905              		.loc 2 939 0
 4906              		.thumb
 4907              		.syntax unified
 4908 0006 FFF7FEFF 		bl	Setup_Selectors
 4909              	.LVL666:
 940:main.c        **** 	
 941:main.c        **** 	USBUART_Start(0u, USBUART_5V_OPERATION);
 4910              		.loc 2 941 0
 4911 000a 0121     		movs	r1, #1
 4912 000c 0020     		movs	r0, #0
 4913 000e FFF7FEFF 		bl	USBUART_Start
 4914              	.LVL667:
 942:main.c        **** 	UART_1_Start();
 4915              		.loc 2 942 0
 4916 0012 FFF7FEFF 		bl	UART_1_Start
 4917              	.LVL668:
 943:main.c        **** 	VDAC_Vds_Start();
 4918              		.loc 2 943 0
 4919 0016 FFF7FEFF 		bl	VDAC_Vds_Start
 4920              	.LVL669:
 944:main.c        **** 	VDAC_Vgs_Start();
 4921              		.loc 2 944 0
 4922 001a FFF7FEFF 		bl	VDAC_Vgs_Start
 4923              	.LVL670:
 945:main.c        **** 	VDAC_Ref_Start();
 4924              		.loc 2 945 0
 4925 001e FFF7FEFF 		bl	VDAC_Ref_Start
 4926              	.LVL671:
 946:main.c        **** 	ADC_DelSig_1_Start();
 4927              		.loc 2 946 0
 4928 0022 FFF7FEFF 		bl	ADC_DelSig_1_Start
 4929              	.LVL672:
 947:main.c        **** 	TIA_1_Start();
 4930              		.loc 2 947 0
 4931 0026 FFF7FEFF 		bl	TIA_1_Start
 4932              	.LVL673:
 948:main.c        **** 	I2C_1_Start();
 4933              		.loc 2 948 0
ARM GAS  C:\Users\FRANKL~1\AppData\Local\Temp\ccba5qpo.s 			page 116


 4934 002a FFF7FEFF 		bl	I2C_1_Start
 4935              	.LVL674:
 949:main.c        **** 	ADC_SAR_1_Start();
 4936              		.loc 2 949 0
 4937 002e FFF7FEFF 		bl	ADC_SAR_1_Start
 4938              	.LVL675:
 950:main.c        **** 	ADC_SAR_2_Start();
 4939              		.loc 2 950 0
 4940 0032 FFF7FEFF 		bl	ADC_SAR_2_Start
 4941              	.LVL676:
 951:main.c        **** 	
 952:main.c        **** 	CyDelay(1000);
 4942              		.loc 2 952 0
 4943 0036 4FF47A70 		mov	r0, #1000
 4944 003a FFF7FEFF 		bl	CyDelay
 4945              	.LVL677:
 953:main.c        **** 	
 954:main.c        **** 	UART_1_PutString("\r\n# Starting\r\n");
 4946              		.loc 2 954 0
 4947 003e BA48     		ldr	r0, .L457
 4948 0040 FFF7FEFF 		bl	UART_1_PutString
 4949              	.LVL678:
 955:main.c        **** 	
 956:main.c        **** 	Connect_Intermediates();
 4950              		.loc 2 956 0
 4951 0044 FFF7FEFF 		bl	Connect_Intermediates
 4952              	.LVL679:
 957:main.c        **** 	
 958:main.c        **** 	newData = 0;
 4953              		.loc 2 958 0
 4954 0048 0023     		movs	r3, #0
 4955 004a B84A     		ldr	r2, .L457+4
 4956 004c 1370     		strb	r3, [r2]
 959:main.c        **** 	UART_Rx_Position = 0;
 4957              		.loc 2 959 0
 4958 004e B84A     		ldr	r2, .L457+8
 4959 0050 1370     		strb	r3, [r2]
 960:main.c        **** 	USBUART_Rx_Position = 0;
 4960              		.loc 2 960 0
 4961 0052 B84A     		ldr	r2, .L457+12
 4962 0054 1370     		strb	r3, [r2]
 961:main.c        **** 	
 962:main.c        **** 	CommunicationTimer_Start();
 4963              		.loc 2 962 0
 4964 0056 FFF7FEFF 		bl	CommunicationTimer_Start
 4965              	.LVL680:
 963:main.c        **** 	CommunicationInterrupt_StartEx(CommunicationHandlerISR);
 4966              		.loc 2 963 0
 4967 005a B748     		ldr	r0, .L457+16
 4968 005c FFF7FEFF 		bl	CommunicationInterrupt_StartEx
 4969              	.LVL681:
 964:main.c        **** 	
 965:main.c        **** 	Current_Measurement_Sample_Count = 100;
 4970              		.loc 2 965 0
 4971 0060 6422     		movs	r2, #100
 4972 0062 B64B     		ldr	r3, .L457+20
 4973 0064 1A60     		str	r2, [r3]
ARM GAS  C:\Users\FRANKL~1\AppData\Local\Temp\ccba5qpo.s 			page 117


 966:main.c        **** 	
 967:main.c        **** 	Calibrate_ADC_Offset(300);
 4974              		.loc 2 967 0
 4975 0066 4FF49670 		mov	r0, #300
 4976 006a FFF7FEFF 		bl	Calibrate_ADC_Offset
 4977              	.LVL682:
 968:main.c        **** 	TIA_Set_Resistor(TIA_Selected_Resistor);
 4978              		.loc 2 968 0
 4979 006e B44B     		ldr	r3, .L457+24
 4980 0070 1878     		ldrb	r0, [r3]	@ zero_extendqisi2
 4981 0072 FFF7FEFF 		bl	TIA_Set_Resistor
 4982              	.LVL683:
 4983              	.L422:
 969:main.c        **** 	
 970:main.c        **** 	while (1) {
 971:main.c        **** 		G_Stop = 0;
 4984              		.loc 2 971 0
 4985 0076 AD4B     		ldr	r3, .L457+4
 4986 0078 0022     		movs	r2, #0
 4987 007a 5A70     		strb	r2, [r3, #1]
 972:main.c        **** 		G_Break = 0;
 4988              		.loc 2 972 0
 4989 007c 9A70     		strb	r2, [r3, #2]
 973:main.c        **** 		
 974:main.c        **** 		if (newData) {
 4990              		.loc 2 974 0
 4991 007e 1B78     		ldrb	r3, [r3]	@ zero_extendqisi2
 4992 0080 13F0FF0F 		tst	r3, #255
 4993 0084 F7D0     		beq	.L422
 4994              	.LVL684:
 4995              	.LBB62:
 975:main.c        **** 			char* ReceiveBuffer = &USBUART_Receive_Buffer[0];
 976:main.c        **** 			if (newData == 2) ReceiveBuffer = &UART_Receive_Buffer[0];
 4996              		.loc 2 976 0
 4997 0086 A94B     		ldr	r3, .L457+4
 4998 0088 1B78     		ldrb	r3, [r3]	@ zero_extendqisi2
 4999 008a DBB2     		uxtb	r3, r3
 5000 008c 022B     		cmp	r3, #2
 5001 008e 01D0     		beq	.L455
 975:main.c        **** 			char* ReceiveBuffer = &USBUART_Receive_Buffer[0];
 5002              		.loc 2 975 0
 5003 0090 AC4C     		ldr	r4, .L457+28
 5004 0092 00E0     		b	.L423
 5005              	.L455:
 5006              		.loc 2 976 0
 5007 0094 AC4C     		ldr	r4, .L457+32
 5008              	.L423:
 5009              	.LVL685:
 977:main.c        **** 			
 978:main.c        **** 			newData = 0;
 5010              		.loc 2 978 0
 5011 0096 0022     		movs	r2, #0
 5012 0098 A44B     		ldr	r3, .L457+4
 5013 009a 1A70     		strb	r2, [r3]
 979:main.c        **** 			
 980:main.c        **** 			if (strstr(ReceiveBuffer, "measure ") == &ReceiveBuffer[0]) {
 5014              		.loc 2 980 0
ARM GAS  C:\Users\FRANKL~1\AppData\Local\Temp\ccba5qpo.s 			page 118


 5015 009c AB49     		ldr	r1, .L457+36
 5016 009e 2046     		mov	r0, r4
 5017 00a0 FFF7FEFF 		bl	strstr
 5018              	.LVL686:
 5019 00a4 8442     		cmp	r4, r0
 5020 00a6 05D1     		bne	.L424
 981:main.c        **** 				Measure(100, 1, 10);
 5021              		.loc 2 981 0
 5022 00a8 0A22     		movs	r2, #10
 5023 00aa 0121     		movs	r1, #1
 5024 00ac 6420     		movs	r0, #100
 5025 00ae FFF7FEFF 		bl	Measure
 5026              	.LVL687:
 5027 00b2 E0E7     		b	.L422
 5028              	.L424:
 982:main.c        **** 			} else 
 983:main.c        **** 			if (strstr(ReceiveBuffer, "measure-multiple ") == &ReceiveBuffer[0]) {
 5029              		.loc 2 983 0
 5030 00b4 A649     		ldr	r1, .L457+40
 5031 00b6 2046     		mov	r0, r4
 5032 00b8 FFF7FEFF 		bl	strstr
 5033              	.LVL688:
 5034 00bc 8442     		cmp	r4, r0
 5035 00be 0CD1     		bne	.L426
 5036              	.LBB63:
 984:main.c        **** 				char* location = strstr(ReceiveBuffer, " ");
 5037              		.loc 2 984 0
 5038 00c0 2021     		movs	r1, #32
 5039 00c2 2046     		mov	r0, r4
 5040 00c4 FFF7FEFF 		bl	strchr
 5041              	.LVL689:
 5042 00c8 02A9     		add	r1, sp, #8
 5043 00ca 41F8040D 		str	r0, [r1, #-4]!
 985:main.c        **** 				uint32 n = strtol(location, &location, 10);
 5044              		.loc 2 985 0
 5045 00ce 0A22     		movs	r2, #10
 5046 00d0 FFF7FEFF 		bl	strtol
 5047              	.LVL690:
 986:main.c        **** 				
 987:main.c        **** 				Measure_Multiple(n);
 5048              		.loc 2 987 0
 5049 00d4 FFF7FEFF 		bl	Measure_Multiple
 5050              	.LVL691:
 5051              	.LBE63:
 5052 00d8 CDE7     		b	.L422
 5053              	.L426:
 988:main.c        **** 			} else 
 989:main.c        **** 			if (strstr(ReceiveBuffer, "measure-sweep ") == &ReceiveBuffer[0]) {
 5054              		.loc 2 989 0
 5055 00da 9E49     		ldr	r1, .L457+44
 5056 00dc 2046     		mov	r0, r4
 5057 00de FFF7FEFF 		bl	strstr
 5058              	.LVL692:
 5059 00e2 8442     		cmp	r4, r0
 5060 00e4 02D1     		bne	.L427
 990:main.c        **** 				Measure_Sweep();
 5061              		.loc 2 990 0
ARM GAS  C:\Users\FRANKL~1\AppData\Local\Temp\ccba5qpo.s 			page 119


 5062 00e6 FFF7FEFF 		bl	Measure_Sweep
 5063              	.LVL693:
 5064 00ea C4E7     		b	.L422
 5065              	.L427:
 991:main.c        **** 			} else 
 992:main.c        **** 			if (strstr(ReceiveBuffer, "measure-gate-sweep ") == &ReceiveBuffer[0]) {
 5066              		.loc 2 992 0
 5067 00ec 9A49     		ldr	r1, .L457+48
 5068 00ee 2046     		mov	r0, r4
 5069 00f0 FFF7FEFF 		bl	strstr
 5070              	.LVL694:
 5071 00f4 8442     		cmp	r4, r0
 5072 00f6 03D1     		bne	.L428
 993:main.c        **** 				Measure_Gate_Sweep(0);
 5073              		.loc 2 993 0
 5074 00f8 0020     		movs	r0, #0
 5075 00fa FFF7FEFF 		bl	Measure_Gate_Sweep
 5076              	.LVL695:
 5077 00fe BAE7     		b	.L422
 5078              	.L428:
 994:main.c        **** 			} else 
 995:main.c        **** 			if (strstr(ReceiveBuffer, "measure-gate-sweep-loop ") == &ReceiveBuffer[0]) {
 5079              		.loc 2 995 0
 5080 0100 9649     		ldr	r1, .L457+52
 5081 0102 2046     		mov	r0, r4
 5082 0104 FFF7FEFF 		bl	strstr
 5083              	.LVL696:
 5084 0108 8442     		cmp	r4, r0
 5085 010a 03D1     		bne	.L429
 996:main.c        **** 				Measure_Gate_Sweep(1);
 5086              		.loc 2 996 0
 5087 010c 0120     		movs	r0, #1
 5088 010e FFF7FEFF 		bl	Measure_Gate_Sweep
 5089              	.LVL697:
 5090 0112 B0E7     		b	.L422
 5091              	.L429:
 997:main.c        **** 			} else 
 998:main.c        **** 			if (strstr(ReceiveBuffer, "calibrate-offset ") == &ReceiveBuffer[0]) {
 5092              		.loc 2 998 0
 5093 0114 9249     		ldr	r1, .L457+56
 5094 0116 2046     		mov	r0, r4
 5095 0118 FFF7FEFF 		bl	strstr
 5096              	.LVL698:
 5097 011c 8442     		cmp	r4, r0
 5098 011e 04D1     		bne	.L430
 999:main.c        **** 				Calibrate_ADC_Offset(300);
 5099              		.loc 2 999 0
 5100 0120 4FF49670 		mov	r0, #300
 5101 0124 FFF7FEFF 		bl	Calibrate_ADC_Offset
 5102              	.LVL699:
 5103 0128 A5E7     		b	.L422
 5104              	.L430:
1000:main.c        **** 			} else
1001:main.c        **** 			if (strstr(ReceiveBuffer, "set-vgs-raw ") == &ReceiveBuffer[0]) {
 5105              		.loc 2 1001 0
 5106 012a 8E49     		ldr	r1, .L457+60
 5107 012c 2046     		mov	r0, r4
ARM GAS  C:\Users\FRANKL~1\AppData\Local\Temp\ccba5qpo.s 			page 120


 5108 012e FFF7FEFF 		bl	strstr
 5109              	.LVL700:
 5110 0132 8442     		cmp	r4, r0
 5111 0134 0DD1     		bne	.L431
 5112              	.LBB64:
1002:main.c        **** 				char* location = strstr(ReceiveBuffer, " ");
 5113              		.loc 2 1002 0 discriminator 2
 5114 0136 2021     		movs	r1, #32
 5115 0138 2046     		mov	r0, r4
 5116 013a FFF7FEFF 		bl	strchr
 5117              	.LVL701:
 5118 013e 02A9     		add	r1, sp, #8
 5119 0140 41F8040D 		str	r0, [r1, #-4]!
1003:main.c        **** 				uint8 vgsi = strtol(location, &location, 10);
 5120              		.loc 2 1003 0 discriminator 2
 5121 0144 0A22     		movs	r2, #10
 5122 0146 FFF7FEFF 		bl	strtol
 5123              	.LVL702:
1004:main.c        **** 				
1005:main.c        **** 				Set_Vgs_Raw(vgsi);
 5124              		.loc 2 1005 0 discriminator 2
 5125 014a C0B2     		uxtb	r0, r0
 5126 014c FFF7FEFF 		bl	Set_Vgs_Raw
 5127              	.LVL703:
 5128              	.LBE64:
 5129 0150 91E7     		b	.L422
 5130              	.L431:
1006:main.c        **** 			} else 
1007:main.c        **** 			if (strstr(ReceiveBuffer, "set-vds-raw ") == &ReceiveBuffer[0]) {
 5131              		.loc 2 1007 0
 5132 0152 8549     		ldr	r1, .L457+64
 5133 0154 2046     		mov	r0, r4
 5134 0156 FFF7FEFF 		bl	strstr
 5135              	.LVL704:
 5136 015a 8442     		cmp	r4, r0
 5137 015c 0DD1     		bne	.L432
 5138              	.LBB65:
1008:main.c        **** 				char* location = strstr(ReceiveBuffer, " ");
 5139              		.loc 2 1008 0 discriminator 3
 5140 015e 2021     		movs	r1, #32
 5141 0160 2046     		mov	r0, r4
 5142 0162 FFF7FEFF 		bl	strchr
 5143              	.LVL705:
 5144 0166 02A9     		add	r1, sp, #8
 5145 0168 41F8040D 		str	r0, [r1, #-4]!
1009:main.c        **** 				uint8 vdsi = strtol(location, &location, 10);
 5146              		.loc 2 1009 0 discriminator 3
 5147 016c 0A22     		movs	r2, #10
 5148 016e FFF7FEFF 		bl	strtol
 5149              	.LVL706:
1010:main.c        **** 				
1011:main.c        **** 				Set_Vds_Raw(vdsi);
 5150              		.loc 2 1011 0 discriminator 3
 5151 0172 C0B2     		uxtb	r0, r0
 5152 0174 FFF7FEFF 		bl	Set_Vds_Raw
 5153              	.LVL707:
 5154              	.LBE65:
ARM GAS  C:\Users\FRANKL~1\AppData\Local\Temp\ccba5qpo.s 			page 121


 5155 0178 7DE7     		b	.L422
 5156              	.L432:
1012:main.c        **** 			} else 
1013:main.c        **** 			if (strstr(ReceiveBuffer, "set-vgs-rel ") == &ReceiveBuffer[0]) {
 5157              		.loc 2 1013 0
 5158 017a 7C49     		ldr	r1, .L457+68
 5159 017c 2046     		mov	r0, r4
 5160 017e FFF7FEFF 		bl	strstr
 5161              	.LVL708:
 5162 0182 8442     		cmp	r4, r0
 5163 0184 0DD1     		bne	.L433
 5164              	.LBB66:
1014:main.c        **** 				char* location = strstr(ReceiveBuffer, " ");
 5165              		.loc 2 1014 0 discriminator 4
 5166 0186 2021     		movs	r1, #32
 5167 0188 2046     		mov	r0, r4
 5168 018a FFF7FEFF 		bl	strchr
 5169              	.LVL709:
 5170 018e 02A9     		add	r1, sp, #8
 5171 0190 41F8040D 		str	r0, [r1, #-4]!
1015:main.c        **** 				int8 vgsi = strtol(location, &location, 10);
 5172              		.loc 2 1015 0 discriminator 4
 5173 0194 0A22     		movs	r2, #10
 5174 0196 FFF7FEFF 		bl	strtol
 5175              	.LVL710:
1016:main.c        **** 				
1017:main.c        **** 				Set_Vgs_Rel(vgsi);
 5176              		.loc 2 1017 0 discriminator 4
 5177 019a 40B2     		sxtb	r0, r0
 5178 019c FFF7FEFF 		bl	Set_Vgs_Rel
 5179              	.LVL711:
 5180              	.LBE66:
 5181 01a0 69E7     		b	.L422
 5182              	.L433:
1018:main.c        **** 			} else 
1019:main.c        **** 			if (strstr(ReceiveBuffer, "set-vds-rel ") == &ReceiveBuffer[0]) {
 5183              		.loc 2 1019 0
 5184 01a2 7349     		ldr	r1, .L457+72
 5185 01a4 2046     		mov	r0, r4
 5186 01a6 FFF7FEFF 		bl	strstr
 5187              	.LVL712:
 5188 01aa 8442     		cmp	r4, r0
 5189 01ac 0DD1     		bne	.L434
 5190              	.LBB67:
1020:main.c        **** 				char* location = strstr(ReceiveBuffer, " ");
 5191              		.loc 2 1020 0 discriminator 5
 5192 01ae 2021     		movs	r1, #32
 5193 01b0 2046     		mov	r0, r4
 5194 01b2 FFF7FEFF 		bl	strchr
 5195              	.LVL713:
 5196 01b6 02A9     		add	r1, sp, #8
 5197 01b8 41F8040D 		str	r0, [r1, #-4]!
1021:main.c        **** 				int8 vdsi = strtol(location, &location, 10);
 5198              		.loc 2 1021 0 discriminator 5
 5199 01bc 0A22     		movs	r2, #10
 5200 01be FFF7FEFF 		bl	strtol
 5201              	.LVL714:
ARM GAS  C:\Users\FRANKL~1\AppData\Local\Temp\ccba5qpo.s 			page 122


1022:main.c        **** 				
1023:main.c        **** 				Set_Vds_Rel(vdsi);
 5202              		.loc 2 1023 0 discriminator 5
 5203 01c2 40B2     		sxtb	r0, r0
 5204 01c4 FFF7FEFF 		bl	Set_Vds_Rel
 5205              	.LVL715:
 5206              	.LBE67:
 5207 01c8 55E7     		b	.L422
 5208              	.L434:
1024:main.c        **** 			} else 
1025:main.c        **** 			if (strstr(ReceiveBuffer, "set-vgs ") == &ReceiveBuffer[0]) {
 5209              		.loc 2 1025 0
 5210 01ca 6A49     		ldr	r1, .L457+76
 5211 01cc 2046     		mov	r0, r4
 5212 01ce FFF7FEFF 		bl	strstr
 5213              	.LVL716:
 5214 01d2 8442     		cmp	r4, r0
 5215 01d4 0ED1     		bne	.L435
 5216              	.LBB68:
1026:main.c        **** 				char* location = strstr(ReceiveBuffer, " ");
 5217              		.loc 2 1026 0 discriminator 6
 5218 01d6 2021     		movs	r1, #32
 5219 01d8 2046     		mov	r0, r4
 5220 01da FFF7FEFF 		bl	strchr
 5221              	.LVL717:
1027:main.c        **** 				float vgs = 0;
 5222              		.loc 2 1027 0 discriminator 6
 5223 01de 02AA     		add	r2, sp, #8
 5224 01e0 0023     		movs	r3, #0
 5225 01e2 42F8043D 		str	r3, [r2, #-4]!	@ float
1028:main.c        **** 				int8 success = sscanf(location, "%f", &vgs);
 5226              		.loc 2 1028 0 discriminator 6
 5227 01e6 6449     		ldr	r1, .L457+80
 5228 01e8 FFF7FEFF 		bl	sscanf
 5229              	.LVL718:
1029:main.c        **** 				
1030:main.c        **** 				Set_Vgs(vgs);
 5230              		.loc 2 1030 0 discriminator 6
 5231 01ec 0198     		ldr	r0, [sp, #4]	@ float
 5232 01ee FFF7FEFF 		bl	Set_Vgs
 5233              	.LVL719:
 5234              	.LBE68:
 5235 01f2 40E7     		b	.L422
 5236              	.L435:
1031:main.c        **** 			} else 
1032:main.c        **** 			if (strstr(ReceiveBuffer, "set-vds ") == &ReceiveBuffer[0]) {
 5237              		.loc 2 1032 0
 5238 01f4 6149     		ldr	r1, .L457+84
 5239 01f6 2046     		mov	r0, r4
 5240 01f8 FFF7FEFF 		bl	strstr
 5241              	.LVL720:
 5242 01fc 8442     		cmp	r4, r0
 5243 01fe 0ED1     		bne	.L436
 5244              	.LBB69:
1033:main.c        **** 				char* location = strstr(ReceiveBuffer, " ");
 5245              		.loc 2 1033 0 discriminator 7
 5246 0200 2021     		movs	r1, #32
ARM GAS  C:\Users\FRANKL~1\AppData\Local\Temp\ccba5qpo.s 			page 123


 5247 0202 2046     		mov	r0, r4
 5248 0204 FFF7FEFF 		bl	strchr
 5249              	.LVL721:
1034:main.c        **** 				float vds = 0;
 5250              		.loc 2 1034 0 discriminator 7
 5251 0208 02AA     		add	r2, sp, #8
 5252 020a 0023     		movs	r3, #0
 5253 020c 42F8043D 		str	r3, [r2, #-4]!	@ float
1035:main.c        **** 				int8 success = sscanf(location, "%f", &vds);
 5254              		.loc 2 1035 0 discriminator 7
 5255 0210 5949     		ldr	r1, .L457+80
 5256 0212 FFF7FEFF 		bl	sscanf
 5257              	.LVL722:
1036:main.c        **** 				
1037:main.c        **** 				Set_Vds(vds);
 5258              		.loc 2 1037 0 discriminator 7
 5259 0216 0198     		ldr	r0, [sp, #4]	@ float
 5260 0218 FFF7FEFF 		bl	Set_Vds
 5261              	.LVL723:
 5262              	.LBE69:
 5263 021c 2BE7     		b	.L422
 5264              	.L436:
1038:main.c        **** 			} else 
1039:main.c        **** 			if (strstr(ReceiveBuffer, "set-vgs-mv ") == &ReceiveBuffer[0]) {
 5265              		.loc 2 1039 0
 5266 021e 5849     		ldr	r1, .L457+88
 5267 0220 2046     		mov	r0, r4
 5268 0222 FFF7FEFF 		bl	strstr
 5269              	.LVL724:
 5270 0226 8442     		cmp	r4, r0
 5271 0228 23D1     		bne	.L437
 5272              	.LBB70:
1040:main.c        **** 				char* location = strstr(ReceiveBuffer, " ");
 5273              		.loc 2 1040 0 discriminator 8
 5274 022a 2021     		movs	r1, #32
 5275 022c 2046     		mov	r0, r4
 5276 022e FFF7FEFF 		bl	strchr
 5277              	.LVL725:
 5278 0232 02A9     		add	r1, sp, #8
 5279 0234 41F8040D 		str	r0, [r1, #-4]!
1041:main.c        **** 				float Vgs_mV = (float)(strtol(location, &location, 10));
 5280              		.loc 2 1041 0 discriminator 8
 5281 0238 0A22     		movs	r2, #10
 5282 023a FFF7FEFF 		bl	strtol
 5283              	.LVL726:
 5284 023e FFF7FEFF 		bl	__aeabi_i2f
 5285              	.LVL727:
 5286 0242 0446     		mov	r4, r0
 5287              	.LVL728:
1042:main.c        **** 				
1043:main.c        **** 				Set_Vgs_mV(Vgs_mV);
 5288              		.loc 2 1043 0 discriminator 8
 5289 0244 FFF7FEFF 		bl	Set_Vgs_mV
 5290              	.LVL729:
1044:main.c        **** 				
1045:main.c        **** 				sprintf(TransmitBuffer, "# Vgs set to %f mV\r\n", Vgs_mV);
 5291              		.loc 2 1045 0 discriminator 8
ARM GAS  C:\Users\FRANKL~1\AppData\Local\Temp\ccba5qpo.s 			page 124


 5292 0248 2046     		mov	r0, r4
 5293 024a FFF7FEFF 		bl	__aeabi_f2d
 5294              	.LVL730:
 5295 024e 4D4C     		ldr	r4, .L457+92
 5296              	.LVL731:
 5297 0250 0246     		mov	r2, r0
 5298 0252 0B46     		mov	r3, r1
 5299 0254 4C49     		ldr	r1, .L457+96
 5300 0256 2046     		mov	r0, r4
 5301 0258 FFF7FEFF 		bl	sprintf
 5302              	.LVL732:
1046:main.c        **** 				USBUARTH_Send(TransmitBuffer, strlen(TransmitBuffer));
 5303              		.loc 2 1046 0 discriminator 8
 5304 025c 2046     		mov	r0, r4
 5305 025e FFF7FEFF 		bl	strlen
 5306              	.LVL733:
 5307 0262 81B2     		uxth	r1, r0
 5308 0264 2046     		mov	r0, r4
 5309 0266 FFF7FEFF 		bl	USBUARTH_Send
 5310              	.LVL734:
1047:main.c        **** 				UART_1_PutString(TransmitBuffer);
 5311              		.loc 2 1047 0 discriminator 8
 5312 026a 2046     		mov	r0, r4
 5313 026c FFF7FEFF 		bl	UART_1_PutString
 5314              	.LVL735:
 5315              	.LBE70:
 5316 0270 01E7     		b	.L422
 5317              	.LVL736:
 5318              	.L437:
1048:main.c        **** 			} else 
1049:main.c        **** 			if (strstr(ReceiveBuffer, "set-vds-mv ") == &ReceiveBuffer[0]) {
 5319              		.loc 2 1049 0
 5320 0272 4649     		ldr	r1, .L457+100
 5321 0274 2046     		mov	r0, r4
 5322 0276 FFF7FEFF 		bl	strstr
 5323              	.LVL737:
 5324 027a 8442     		cmp	r4, r0
 5325 027c 23D1     		bne	.L438
 5326              	.LBB71:
1050:main.c        **** 				char* location = strstr(ReceiveBuffer, " ");
 5327              		.loc 2 1050 0 discriminator 9
 5328 027e 2021     		movs	r1, #32
 5329 0280 2046     		mov	r0, r4
 5330 0282 FFF7FEFF 		bl	strchr
 5331              	.LVL738:
 5332 0286 02A9     		add	r1, sp, #8
 5333 0288 41F8040D 		str	r0, [r1, #-4]!
1051:main.c        **** 				float Vds_mV = (float)(strtol(location, &location, 10));
 5334              		.loc 2 1051 0 discriminator 9
 5335 028c 0A22     		movs	r2, #10
 5336 028e FFF7FEFF 		bl	strtol
 5337              	.LVL739:
 5338 0292 FFF7FEFF 		bl	__aeabi_i2f
 5339              	.LVL740:
 5340 0296 0446     		mov	r4, r0
 5341              	.LVL741:
1052:main.c        **** 				
ARM GAS  C:\Users\FRANKL~1\AppData\Local\Temp\ccba5qpo.s 			page 125


1053:main.c        **** 				Set_Vds_mV(Vds_mV);
 5342              		.loc 2 1053 0 discriminator 9
 5343 0298 FFF7FEFF 		bl	Set_Vds_mV
 5344              	.LVL742:
1054:main.c        **** 				
1055:main.c        **** 				sprintf(TransmitBuffer, "# Vds set to %f mV\r\n", Vds_mV);
 5345              		.loc 2 1055 0 discriminator 9
 5346 029c 2046     		mov	r0, r4
 5347 029e FFF7FEFF 		bl	__aeabi_f2d
 5348              	.LVL743:
 5349 02a2 384C     		ldr	r4, .L457+92
 5350              	.LVL744:
 5351 02a4 0246     		mov	r2, r0
 5352 02a6 0B46     		mov	r3, r1
 5353 02a8 3949     		ldr	r1, .L457+104
 5354 02aa 2046     		mov	r0, r4
 5355 02ac FFF7FEFF 		bl	sprintf
 5356              	.LVL745:
1056:main.c        **** 				USBUARTH_Send(TransmitBuffer, strlen(TransmitBuffer));
 5357              		.loc 2 1056 0 discriminator 9
 5358 02b0 2046     		mov	r0, r4
 5359 02b2 FFF7FEFF 		bl	strlen
 5360              	.LVL746:
 5361 02b6 81B2     		uxth	r1, r0
 5362 02b8 2046     		mov	r0, r4
 5363 02ba FFF7FEFF 		bl	USBUARTH_Send
 5364              	.LVL747:
1057:main.c        **** 				UART_1_PutString(TransmitBuffer);
 5365              		.loc 2 1057 0 discriminator 9
 5366 02be 2046     		mov	r0, r4
 5367 02c0 FFF7FEFF 		bl	UART_1_PutString
 5368              	.LVL748:
 5369              	.LBE71:
 5370 02c4 D7E6     		b	.L422
 5371              	.LVL749:
 5372              	.L438:
1058:main.c        **** 			} else 
1059:main.c        **** 			if (strstr(ReceiveBuffer, "scan ") == &ReceiveBuffer[0]) {
 5373              		.loc 2 1059 0
 5374 02c6 3349     		ldr	r1, .L457+108
 5375 02c8 2046     		mov	r0, r4
 5376 02ca FFF7FEFF 		bl	strstr
 5377              	.LVL750:
 5378 02ce 8442     		cmp	r4, r0
 5379 02d0 66D1     		bne	.L439
1060:main.c        **** 				sprintf(TransmitBuffer, "\r\n# Scan Starting\r\n");
 5380              		.loc 2 1060 0
 5381 02d2 2C4C     		ldr	r4, .L457+92
 5382              	.LVL751:
 5383 02d4 304D     		ldr	r5, .L457+112
 5384 02d6 0FCD     		ldmia	r5!, {r0, r1, r2, r3}
 5385 02d8 2060     		str	r0, [r4]	@ unaligned
 5386 02da 6160     		str	r1, [r4, #4]	@ unaligned
 5387 02dc A260     		str	r2, [r4, #8]	@ unaligned
 5388 02de E360     		str	r3, [r4, #12]	@ unaligned
 5389 02e0 2868     		ldr	r0, [r5]	@ unaligned
 5390 02e2 2061     		str	r0, [r4, #16]	@ unaligned
ARM GAS  C:\Users\FRANKL~1\AppData\Local\Temp\ccba5qpo.s 			page 126


1061:main.c        **** 				USBUARTH_Send(TransmitBuffer, strlen(TransmitBuffer));
 5391              		.loc 2 1061 0
 5392 02e4 2046     		mov	r0, r4
 5393 02e6 FFF7FEFF 		bl	strlen
 5394              	.LVL752:
 5395 02ea 81B2     		uxth	r1, r0
 5396 02ec 2046     		mov	r0, r4
 5397 02ee FFF7FEFF 		bl	USBUARTH_Send
 5398              	.LVL753:
1062:main.c        **** 				UART_1_PutString(TransmitBuffer);
 5399              		.loc 2 1062 0
 5400 02f2 2046     		mov	r0, r4
 5401 02f4 FFF7FEFF 		bl	UART_1_PutString
 5402              	.LVL754:
1063:main.c        **** 				
1064:main.c        **** 				Scan(0, 0);
 5403              		.loc 2 1064 0
 5404 02f8 0021     		movs	r1, #0
 5405 02fa 0846     		mov	r0, r1
 5406 02fc FFF7FEFF 		bl	Scan
 5407              	.LVL755:
1065:main.c        **** 				
1066:main.c        **** 				sprintf(TransmitBuffer, "\r\n# Scan Complete\r\n");
 5408              		.loc 2 1066 0
 5409 0300 264D     		ldr	r5, .L457+116
 5410 0302 0FCD     		ldmia	r5!, {r0, r1, r2, r3}
 5411 0304 2060     		str	r0, [r4]	@ unaligned
 5412 0306 6160     		str	r1, [r4, #4]	@ unaligned
 5413 0308 A260     		str	r2, [r4, #8]	@ unaligned
 5414 030a E360     		str	r3, [r4, #12]	@ unaligned
 5415 030c 2868     		ldr	r0, [r5]	@ unaligned
 5416 030e 2061     		str	r0, [r4, #16]	@ unaligned
1067:main.c        **** 				USBUARTH_Send(TransmitBuffer, strlen(TransmitBuffer));
 5417              		.loc 2 1067 0
 5418 0310 2046     		mov	r0, r4
 5419 0312 FFF7FEFF 		bl	strlen
 5420              	.LVL756:
 5421 0316 81B2     		uxth	r1, r0
 5422 0318 2046     		mov	r0, r4
 5423 031a FFF7FEFF 		bl	USBUARTH_Send
 5424              	.LVL757:
1068:main.c        **** 				UART_1_PutString(TransmitBuffer);
 5425              		.loc 2 1068 0
 5426 031e 2046     		mov	r0, r4
 5427 0320 FFF7FEFF 		bl	UART_1_PutString
 5428              	.LVL758:
 5429 0324 A7E6     		b	.L422
 5430              	.L458:
 5431 0326 00BF     		.align	2
 5432              	.L457:
 5433 0328 FC000000 		.word	.LC15
 5434 032c 00000000 		.word	.LANCHOR0
 5435 0330 00000000 		.word	UART_Rx_Position
 5436 0334 00000000 		.word	USBUART_Rx_Position
 5437 0338 00000000 		.word	CommunicationHandlerISR
 5438 033c 00000000 		.word	Current_Measurement_Sample_Count
 5439 0340 00000000 		.word	.LANCHOR1
ARM GAS  C:\Users\FRANKL~1\AppData\Local\Temp\ccba5qpo.s 			page 127


 5440 0344 00000000 		.word	USBUART_Receive_Buffer
 5441 0348 00000000 		.word	UART_Receive_Buffer
 5442 034c 0C010000 		.word	.LC16
 5443 0350 18010000 		.word	.LC17
 5444 0354 2C010000 		.word	.LC18
 5445 0358 3C010000 		.word	.LC19
 5446 035c 50010000 		.word	.LC20
 5447 0360 6C010000 		.word	.LC21
 5448 0364 80010000 		.word	.LC22
 5449 0368 90010000 		.word	.LC23
 5450 036c A0010000 		.word	.LC24
 5451 0370 B0010000 		.word	.LC25
 5452 0374 C0010000 		.word	.LC26
 5453 0378 CC010000 		.word	.LC27
 5454 037c D0010000 		.word	.LC28
 5455 0380 DC010000 		.word	.LC29
 5456 0384 00000000 		.word	TransmitBuffer
 5457 0388 E8010000 		.word	.LC30
 5458 038c 00020000 		.word	.LC31
 5459 0390 0C020000 		.word	.LC32
 5460 0394 24020000 		.word	.LC33
 5461 0398 2C020000 		.word	.LC34
 5462 039c 40020000 		.word	.LC35
 5463              	.LVL759:
 5464              	.L439:
1069:main.c        **** 			} else 
1070:main.c        **** 			if (strstr(ReceiveBuffer, "scan-range ") == &ReceiveBuffer[0]) {
 5465              		.loc 2 1070 0
 5466 03a0 CD49     		ldr	r1, .L459
 5467 03a2 2046     		mov	r0, r4
 5468 03a4 FFF7FEFF 		bl	strstr
 5469              	.LVL760:
 5470 03a8 8442     		cmp	r4, r0
 5471 03aa 42D1     		bne	.L440
 5472              	.LBB72:
1071:main.c        **** 				sprintf(TransmitBuffer, "\r\n# Scan-Range Starting\r\n");
 5473              		.loc 2 1071 0 discriminator 10
 5474 03ac CB4D     		ldr	r5, .L459+4
 5475 03ae CC4E     		ldr	r6, .L459+8
 5476 03b0 0FCE     		ldmia	r6!, {r0, r1, r2, r3}
 5477 03b2 2860     		str	r0, [r5]	@ unaligned
 5478 03b4 6960     		str	r1, [r5, #4]	@ unaligned
 5479 03b6 AA60     		str	r2, [r5, #8]	@ unaligned
 5480 03b8 EB60     		str	r3, [r5, #12]	@ unaligned
 5481 03ba 03CE     		ldmia	r6!, {r0, r1}
 5482 03bc 2861     		str	r0, [r5, #16]	@ unaligned
 5483 03be 6961     		str	r1, [r5, #20]	@ unaligned
 5484 03c0 3388     		ldrh	r3, [r6]	@ unaligned
 5485 03c2 2B83     		strh	r3, [r5, #24]	@ unaligned
1072:main.c        **** 				USBUARTH_Send(TransmitBuffer, strlen(TransmitBuffer));
 5486              		.loc 2 1072 0 discriminator 10
 5487 03c4 2846     		mov	r0, r5
 5488 03c6 FFF7FEFF 		bl	strlen
 5489              	.LVL761:
 5490 03ca 81B2     		uxth	r1, r0
 5491 03cc 2846     		mov	r0, r5
 5492 03ce FFF7FEFF 		bl	USBUARTH_Send
ARM GAS  C:\Users\FRANKL~1\AppData\Local\Temp\ccba5qpo.s 			page 128


 5493              	.LVL762:
1073:main.c        **** 				UART_1_PutString(TransmitBuffer);
 5494              		.loc 2 1073 0 discriminator 10
 5495 03d2 2846     		mov	r0, r5
 5496 03d4 FFF7FEFF 		bl	UART_1_PutString
 5497              	.LVL763:
1074:main.c        **** 				
1075:main.c        **** 				char* location = strstr(ReceiveBuffer, " ");
 5498              		.loc 2 1075 0 discriminator 10
 5499 03d8 2021     		movs	r1, #32
 5500 03da 2046     		mov	r0, r4
 5501 03dc FFF7FEFF 		bl	strchr
 5502              	.LVL764:
 5503 03e0 02AC     		add	r4, sp, #8
 5504              	.LVL765:
 5505 03e2 44F8040D 		str	r0, [r4, #-4]!
1076:main.c        **** 				uint8 startDevice = strtol(location, &location, 10);
 5506              		.loc 2 1076 0 discriminator 10
 5507 03e6 0A22     		movs	r2, #10
 5508 03e8 2146     		mov	r1, r4
 5509 03ea FFF7FEFF 		bl	strtol
 5510              	.LVL766:
 5511 03ee C6B2     		uxtb	r6, r0
 5512              	.LVL767:
1077:main.c        **** 				uint8 stopDevice = strtol(location, &location, 10);
 5513              		.loc 2 1077 0 discriminator 10
 5514 03f0 0A22     		movs	r2, #10
 5515 03f2 2146     		mov	r1, r4
 5516 03f4 0198     		ldr	r0, [sp, #4]
 5517 03f6 FFF7FEFF 		bl	strtol
 5518              	.LVL768:
1078:main.c        **** 				Scan_Range(startDevice, stopDevice, 0, 0);
 5519              		.loc 2 1078 0 discriminator 10
 5520 03fa 0023     		movs	r3, #0
 5521 03fc 1A46     		mov	r2, r3
 5522 03fe C1B2     		uxtb	r1, r0
 5523 0400 3046     		mov	r0, r6
 5524              	.LVL769:
 5525 0402 FFF7FEFF 		bl	Scan_Range
 5526              	.LVL770:
1079:main.c        **** 				
1080:main.c        **** 				sprintf(TransmitBuffer, "\r\n# Scan Range Complete\r\n");
 5527              		.loc 2 1080 0 discriminator 10
 5528 0406 B74C     		ldr	r4, .L459+12
 5529 0408 0FCC     		ldmia	r4!, {r0, r1, r2, r3}
 5530 040a 2860     		str	r0, [r5]	@ unaligned
 5531 040c 6960     		str	r1, [r5, #4]	@ unaligned
 5532 040e AA60     		str	r2, [r5, #8]	@ unaligned
 5533 0410 EB60     		str	r3, [r5, #12]	@ unaligned
 5534 0412 03CC     		ldmia	r4!, {r0, r1}
 5535 0414 2861     		str	r0, [r5, #16]	@ unaligned
 5536 0416 6961     		str	r1, [r5, #20]	@ unaligned
 5537 0418 2388     		ldrh	r3, [r4]	@ unaligned
 5538 041a 2B83     		strh	r3, [r5, #24]	@ unaligned
1081:main.c        **** 				USBUARTH_Send(TransmitBuffer, strlen(TransmitBuffer));
 5539              		.loc 2 1081 0 discriminator 10
 5540 041c 2846     		mov	r0, r5
ARM GAS  C:\Users\FRANKL~1\AppData\Local\Temp\ccba5qpo.s 			page 129


 5541 041e FFF7FEFF 		bl	strlen
 5542              	.LVL771:
 5543 0422 81B2     		uxth	r1, r0
 5544 0424 2846     		mov	r0, r5
 5545 0426 FFF7FEFF 		bl	USBUARTH_Send
 5546              	.LVL772:
1082:main.c        **** 				UART_1_PutString(TransmitBuffer);
 5547              		.loc 2 1082 0 discriminator 10
 5548 042a 2846     		mov	r0, r5
 5549 042c FFF7FEFF 		bl	UART_1_PutString
 5550              	.LVL773:
 5551              	.LBE72:
 5552 0430 21E6     		b	.L422
 5553              	.LVL774:
 5554              	.L440:
1083:main.c        **** 			} else 
1084:main.c        **** 			if (strstr(ReceiveBuffer, "scan-range-loop ") == &ReceiveBuffer[0]) {
 5555              		.loc 2 1084 0
 5556 0432 AD49     		ldr	r1, .L459+16
 5557 0434 2046     		mov	r0, r4
 5558 0436 FFF7FEFF 		bl	strstr
 5559              	.LVL775:
 5560 043a 8442     		cmp	r4, r0
 5561 043c 48D1     		bne	.L441
 5562              	.LBB73:
1085:main.c        **** 				sprintf(TransmitBuffer, "\r\n# Scan-Range-Loop Starting\r\n");
 5563              		.loc 2 1085 0 discriminator 11
 5564 043e A74D     		ldr	r5, .L459+4
 5565 0440 AA4E     		ldr	r6, .L459+20
 5566 0442 0FCE     		ldmia	r6!, {r0, r1, r2, r3}
 5567 0444 2860     		str	r0, [r5]	@ unaligned
 5568 0446 6960     		str	r1, [r5, #4]	@ unaligned
 5569 0448 AA60     		str	r2, [r5, #8]	@ unaligned
 5570 044a EB60     		str	r3, [r5, #12]	@ unaligned
 5571 044c 07CE     		ldmia	r6!, {r0, r1, r2}
 5572 044e 2861     		str	r0, [r5, #16]	@ unaligned
 5573 0450 6961     		str	r1, [r5, #20]	@ unaligned
 5574 0452 AA61     		str	r2, [r5, #24]	@ unaligned
 5575 0454 3288     		ldrh	r2, [r6]	@ unaligned
 5576 0456 B378     		ldrb	r3, [r6, #2]	@ zero_extendqisi2
 5577 0458 AA83     		strh	r2, [r5, #28]	@ unaligned
 5578 045a AB77     		strb	r3, [r5, #30]
1086:main.c        **** 				USBUARTH_Send(TransmitBuffer, strlen(TransmitBuffer));
 5579              		.loc 2 1086 0 discriminator 11
 5580 045c 2846     		mov	r0, r5
 5581 045e FFF7FEFF 		bl	strlen
 5582              	.LVL776:
 5583 0462 81B2     		uxth	r1, r0
 5584 0464 2846     		mov	r0, r5
 5585 0466 FFF7FEFF 		bl	USBUARTH_Send
 5586              	.LVL777:
1087:main.c        **** 				UART_1_PutString(TransmitBuffer);
 5587              		.loc 2 1087 0 discriminator 11
 5588 046a 2846     		mov	r0, r5
 5589 046c FFF7FEFF 		bl	UART_1_PutString
 5590              	.LVL778:
1088:main.c        **** 				
ARM GAS  C:\Users\FRANKL~1\AppData\Local\Temp\ccba5qpo.s 			page 130


1089:main.c        **** 				char* location = strstr(ReceiveBuffer, " ");
 5591              		.loc 2 1089 0 discriminator 11
 5592 0470 2021     		movs	r1, #32
 5593 0472 2046     		mov	r0, r4
 5594 0474 FFF7FEFF 		bl	strchr
 5595              	.LVL779:
 5596 0478 02AC     		add	r4, sp, #8
 5597              	.LVL780:
 5598 047a 44F8040D 		str	r0, [r4, #-4]!
1090:main.c        **** 				uint8 startDevice = strtol(location, &location, 10);
 5599              		.loc 2 1090 0 discriminator 11
 5600 047e 0A22     		movs	r2, #10
 5601 0480 2146     		mov	r1, r4
 5602 0482 FFF7FEFF 		bl	strtol
 5603              	.LVL781:
 5604 0486 C6B2     		uxtb	r6, r0
 5605              	.LVL782:
1091:main.c        **** 				uint8 stopDevice = strtol(location, &location, 10);
 5606              		.loc 2 1091 0 discriminator 11
 5607 0488 0A22     		movs	r2, #10
 5608 048a 2146     		mov	r1, r4
 5609 048c 0198     		ldr	r0, [sp, #4]
 5610 048e FFF7FEFF 		bl	strtol
 5611              	.LVL783:
1092:main.c        **** 				Scan_Range(startDevice, stopDevice, 0, 1);
 5612              		.loc 2 1092 0 discriminator 11
 5613 0492 0123     		movs	r3, #1
 5614 0494 0022     		movs	r2, #0
 5615 0496 C1B2     		uxtb	r1, r0
 5616 0498 3046     		mov	r0, r6
 5617              	.LVL784:
 5618 049a FFF7FEFF 		bl	Scan_Range
 5619              	.LVL785:
1093:main.c        **** 				
1094:main.c        **** 				sprintf(TransmitBuffer, "\r\n# Scan Range Loop Complete\r\n");
 5620              		.loc 2 1094 0 discriminator 11
 5621 049e 944C     		ldr	r4, .L459+24
 5622 04a0 0FCC     		ldmia	r4!, {r0, r1, r2, r3}
 5623 04a2 2860     		str	r0, [r5]	@ unaligned
 5624 04a4 6960     		str	r1, [r5, #4]	@ unaligned
 5625 04a6 AA60     		str	r2, [r5, #8]	@ unaligned
 5626 04a8 EB60     		str	r3, [r5, #12]	@ unaligned
 5627 04aa 07CC     		ldmia	r4!, {r0, r1, r2}
 5628 04ac 2861     		str	r0, [r5, #16]	@ unaligned
 5629 04ae 6961     		str	r1, [r5, #20]	@ unaligned
 5630 04b0 AA61     		str	r2, [r5, #24]	@ unaligned
 5631 04b2 2288     		ldrh	r2, [r4]	@ unaligned
 5632 04b4 A378     		ldrb	r3, [r4, #2]	@ zero_extendqisi2
 5633 04b6 AA83     		strh	r2, [r5, #28]	@ unaligned
 5634 04b8 AB77     		strb	r3, [r5, #30]
1095:main.c        **** 				USBUARTH_Send(TransmitBuffer, strlen(TransmitBuffer));
 5635              		.loc 2 1095 0 discriminator 11
 5636 04ba 2846     		mov	r0, r5
 5637 04bc FFF7FEFF 		bl	strlen
 5638              	.LVL786:
 5639 04c0 81B2     		uxth	r1, r0
 5640 04c2 2846     		mov	r0, r5
ARM GAS  C:\Users\FRANKL~1\AppData\Local\Temp\ccba5qpo.s 			page 131


 5641 04c4 FFF7FEFF 		bl	USBUARTH_Send
 5642              	.LVL787:
1096:main.c        **** 				UART_1_PutString(TransmitBuffer);
 5643              		.loc 2 1096 0 discriminator 11
 5644 04c8 2846     		mov	r0, r5
 5645 04ca FFF7FEFF 		bl	UART_1_PutString
 5646              	.LVL788:
 5647              	.LBE73:
 5648 04ce D2E5     		b	.L422
 5649              	.LVL789:
 5650              	.L441:
1097:main.c        **** 			} else 
1098:main.c        **** 			if (strstr(ReceiveBuffer, "scan-range-wide-loop ") == &ReceiveBuffer[0]) {
 5651              		.loc 2 1098 0
 5652 04d0 8849     		ldr	r1, .L459+28
 5653 04d2 2046     		mov	r0, r4
 5654 04d4 FFF7FEFF 		bl	strstr
 5655              	.LVL790:
 5656 04d8 8442     		cmp	r4, r0
 5657 04da 4DD1     		bne	.L442
 5658              	.LBB74:
1099:main.c        **** 				sprintf(TransmitBuffer, "\r\n# Scan-Range-Wide-Loop Starting\r\n");
 5659              		.loc 2 1099 0 discriminator 12
 5660 04dc 864E     		ldr	r6, .L459+32
 5661 04de 7F4D     		ldr	r5, .L459+4
 5662 04e0 06F1200E 		add	lr, r6, #32
 5663              	.L443:
 5664 04e4 3746     		mov	r7, r6
 5665 04e6 0FCF     		ldmia	r7!, {r0, r1, r2, r3}
 5666 04e8 2860     		str	r0, [r5]	@ unaligned
 5667 04ea 6960     		str	r1, [r5, #4]	@ unaligned
 5668 04ec AA60     		str	r2, [r5, #8]	@ unaligned
 5669 04ee EB60     		str	r3, [r5, #12]	@ unaligned
 5670 04f0 3E46     		mov	r6, r7
 5671 04f2 1035     		adds	r5, r5, #16
 5672 04f4 7745     		cmp	r7, lr
 5673 04f6 F5D1     		bne	.L443
 5674 04f8 3868     		ldr	r0, [r7]	@ unaligned
 5675 04fa 2860     		str	r0, [r5]	@ unaligned
1100:main.c        **** 				USBUARTH_Send(TransmitBuffer, strlen(TransmitBuffer));
 5676              		.loc 2 1100 0 discriminator 12
 5677 04fc 774D     		ldr	r5, .L459+4
 5678 04fe 2846     		mov	r0, r5
 5679 0500 FFF7FEFF 		bl	strlen
 5680              	.LVL791:
 5681 0504 81B2     		uxth	r1, r0
 5682 0506 2846     		mov	r0, r5
 5683 0508 FFF7FEFF 		bl	USBUARTH_Send
 5684              	.LVL792:
1101:main.c        **** 				UART_1_PutString(TransmitBuffer);
 5685              		.loc 2 1101 0 discriminator 12
 5686 050c 2846     		mov	r0, r5
 5687 050e FFF7FEFF 		bl	UART_1_PutString
 5688              	.LVL793:
1102:main.c        **** 				
1103:main.c        **** 				char* location = strstr(ReceiveBuffer, " ");
 5689              		.loc 2 1103 0 discriminator 12
ARM GAS  C:\Users\FRANKL~1\AppData\Local\Temp\ccba5qpo.s 			page 132


 5690 0512 2021     		movs	r1, #32
 5691 0514 2046     		mov	r0, r4
 5692 0516 FFF7FEFF 		bl	strchr
 5693              	.LVL794:
 5694 051a 02AC     		add	r4, sp, #8
 5695              	.LVL795:
 5696 051c 44F8040D 		str	r0, [r4, #-4]!
1104:main.c        **** 				uint8 startDevice = strtol(location, &location, 10);
 5697              		.loc 2 1104 0 discriminator 12
 5698 0520 0A22     		movs	r2, #10
 5699 0522 2146     		mov	r1, r4
 5700 0524 FFF7FEFF 		bl	strtol
 5701              	.LVL796:
 5702 0528 C6B2     		uxtb	r6, r0
 5703              	.LVL797:
1105:main.c        **** 				uint8 stopDevice = strtol(location, &location, 10);
 5704              		.loc 2 1105 0 discriminator 12
 5705 052a 0A22     		movs	r2, #10
 5706 052c 2146     		mov	r1, r4
 5707 052e 0198     		ldr	r0, [sp, #4]
 5708 0530 FFF7FEFF 		bl	strtol
 5709              	.LVL798:
1106:main.c        **** 				Scan_Range(startDevice, stopDevice, 1, 1);
 5710              		.loc 2 1106 0 discriminator 12
 5711 0534 0123     		movs	r3, #1
 5712 0536 1A46     		mov	r2, r3
 5713 0538 C1B2     		uxtb	r1, r0
 5714 053a 3046     		mov	r0, r6
 5715              	.LVL799:
 5716 053c FFF7FEFF 		bl	Scan_Range
 5717              	.LVL800:
1107:main.c        **** 				
1108:main.c        **** 				sprintf(TransmitBuffer, "\r\n# Scan Range Wide Loop Complete\r\n");
 5718              		.loc 2 1108 0 discriminator 12
 5719 0540 6E4E     		ldr	r6, .L459+36
 5720              	.LVL801:
 5721 0542 2C46     		mov	r4, r5
 5722 0544 06F12007 		add	r7, r6, #32
 5723              	.L444:
 5724 0548 3546     		mov	r5, r6
 5725 054a 0FCD     		ldmia	r5!, {r0, r1, r2, r3}
 5726 054c 2060     		str	r0, [r4]	@ unaligned
 5727 054e 6160     		str	r1, [r4, #4]	@ unaligned
 5728 0550 A260     		str	r2, [r4, #8]	@ unaligned
 5729 0552 E360     		str	r3, [r4, #12]	@ unaligned
 5730 0554 2E46     		mov	r6, r5
 5731 0556 1034     		adds	r4, r4, #16
 5732 0558 BD42     		cmp	r5, r7
 5733 055a F5D1     		bne	.L444
 5734 055c 2868     		ldr	r0, [r5]	@ unaligned
 5735 055e 2060     		str	r0, [r4]	@ unaligned
1109:main.c        **** 				USBUARTH_Send(TransmitBuffer, strlen(TransmitBuffer));
 5736              		.loc 2 1109 0 discriminator 12
 5737 0560 5E4C     		ldr	r4, .L459+4
 5738 0562 2046     		mov	r0, r4
 5739 0564 FFF7FEFF 		bl	strlen
 5740              	.LVL802:
ARM GAS  C:\Users\FRANKL~1\AppData\Local\Temp\ccba5qpo.s 			page 133


 5741 0568 81B2     		uxth	r1, r0
 5742 056a 2046     		mov	r0, r4
 5743 056c FFF7FEFF 		bl	USBUARTH_Send
 5744              	.LVL803:
1110:main.c        **** 				UART_1_PutString(TransmitBuffer);
 5745              		.loc 2 1110 0 discriminator 12
 5746 0570 2046     		mov	r0, r4
 5747 0572 FFF7FEFF 		bl	UART_1_PutString
 5748              	.LVL804:
 5749              	.LBE74:
 5750 0576 7EE5     		b	.L422
 5751              	.LVL805:
 5752              	.L442:
1111:main.c        **** 			} else 
1112:main.c        **** 			if (strstr(ReceiveBuffer, "connect ") == &ReceiveBuffer[0]) {
 5753              		.loc 2 1112 0
 5754 0578 6149     		ldr	r1, .L459+40
 5755 057a 2046     		mov	r0, r4
 5756 057c FFF7FEFF 		bl	strstr
 5757              	.LVL806:
 5758 0580 8442     		cmp	r4, r0
 5759 0582 27D1     		bne	.L445
 5760              	.LBB75:
1113:main.c        **** 				char* location = strstr(ReceiveBuffer, " ");
 5761              		.loc 2 1113 0 discriminator 13
 5762 0584 2021     		movs	r1, #32
 5763 0586 2046     		mov	r0, r4
 5764 0588 FFF7FEFF 		bl	strchr
 5765              	.LVL807:
 5766 058c 02AC     		add	r4, sp, #8
 5767              	.LVL808:
 5768 058e 44F8040D 		str	r0, [r4, #-4]!
1114:main.c        **** 				uint8 contact = strtol(location, &location, 10);
 5769              		.loc 2 1114 0 discriminator 13
 5770 0592 0A22     		movs	r2, #10
 5771 0594 2146     		mov	r1, r4
 5772 0596 FFF7FEFF 		bl	strtol
 5773              	.LVL809:
 5774 059a C5B2     		uxtb	r5, r0
 5775              	.LVL810:
1115:main.c        **** 				uint8 intermediate = strtol(location, &location, 10);
 5776              		.loc 2 1115 0 discriminator 13
 5777 059c 0A22     		movs	r2, #10
 5778 059e 2146     		mov	r1, r4
 5779 05a0 0198     		ldr	r0, [sp, #4]
 5780 05a2 FFF7FEFF 		bl	strtol
 5781              	.LVL811:
 5782 05a6 C6B2     		uxtb	r6, r0
 5783              	.LVL812:
1116:main.c        **** 				Connect_Contact_To_Intermediate(contact, intermediate);
 5784              		.loc 2 1116 0 discriminator 13
 5785 05a8 3146     		mov	r1, r6
 5786 05aa 2846     		mov	r0, r5
 5787 05ac FFF7FEFF 		bl	Connect_Contact_To_Intermediate
 5788              	.LVL813:
1117:main.c        **** 				
1118:main.c        **** 				sprintf(TransmitBuffer, "# Connected %u to %u\r\n", contact, intermediate);
ARM GAS  C:\Users\FRANKL~1\AppData\Local\Temp\ccba5qpo.s 			page 134


 5789              		.loc 2 1118 0 discriminator 13
 5790 05b0 4A4C     		ldr	r4, .L459+4
 5791 05b2 3346     		mov	r3, r6
 5792 05b4 2A46     		mov	r2, r5
 5793 05b6 5349     		ldr	r1, .L459+44
 5794 05b8 2046     		mov	r0, r4
 5795 05ba FFF7FEFF 		bl	sprintf
 5796              	.LVL814:
1119:main.c        **** 				USBUARTH_Send(TransmitBuffer, strlen(TransmitBuffer));
 5797              		.loc 2 1119 0 discriminator 13
 5798 05be 2046     		mov	r0, r4
 5799 05c0 FFF7FEFF 		bl	strlen
 5800              	.LVL815:
 5801 05c4 81B2     		uxth	r1, r0
 5802 05c6 2046     		mov	r0, r4
 5803 05c8 FFF7FEFF 		bl	USBUARTH_Send
 5804              	.LVL816:
1120:main.c        **** 				UART_1_PutString(TransmitBuffer);
 5805              		.loc 2 1120 0 discriminator 13
 5806 05cc 2046     		mov	r0, r4
 5807 05ce FFF7FEFF 		bl	UART_1_PutString
 5808              	.LVL817:
 5809              	.LBE75:
 5810 05d2 50E5     		b	.L422
 5811              	.LVL818:
 5812              	.L445:
1121:main.c        **** 			} else 
1122:main.c        **** 			if (strstr(ReceiveBuffer, "connect-c ") == &ReceiveBuffer[0]) {
 5813              		.loc 2 1122 0
 5814 05d4 4C49     		ldr	r1, .L459+48
 5815 05d6 2046     		mov	r0, r4
 5816 05d8 FFF7FEFF 		bl	strstr
 5817              	.LVL819:
 5818 05dc 8442     		cmp	r4, r0
 5819 05de 27D1     		bne	.L446
 5820              	.LBB76:
1123:main.c        **** 				char* location = strstr(ReceiveBuffer, " ");
 5821              		.loc 2 1123 0 discriminator 14
 5822 05e0 2021     		movs	r1, #32
 5823 05e2 2046     		mov	r0, r4
 5824 05e4 FFF7FEFF 		bl	strchr
 5825              	.LVL820:
 5826 05e8 02AC     		add	r4, sp, #8
 5827              	.LVL821:
 5828 05ea 44F8040D 		str	r0, [r4, #-4]!
1124:main.c        **** 				uint8 channel = strtol(location, &location, 10);
 5829              		.loc 2 1124 0 discriminator 14
 5830 05ee 0A22     		movs	r2, #10
 5831 05f0 2146     		mov	r1, r4
 5832 05f2 FFF7FEFF 		bl	strtol
 5833              	.LVL822:
 5834 05f6 C5B2     		uxtb	r5, r0
 5835              	.LVL823:
1125:main.c        **** 				uint8 intermediate = strtol(location, &location, 10);
 5836              		.loc 2 1125 0 discriminator 14
 5837 05f8 0A22     		movs	r2, #10
 5838 05fa 2146     		mov	r1, r4
ARM GAS  C:\Users\FRANKL~1\AppData\Local\Temp\ccba5qpo.s 			page 135


 5839 05fc 0198     		ldr	r0, [sp, #4]
 5840 05fe FFF7FEFF 		bl	strtol
 5841              	.LVL824:
 5842 0602 C6B2     		uxtb	r6, r0
 5843              	.LVL825:
1126:main.c        **** 				Connect_Channel_On_Intermediate(channel, intermediate);
 5844              		.loc 2 1126 0 discriminator 14
 5845 0604 3146     		mov	r1, r6
 5846 0606 2846     		mov	r0, r5
 5847 0608 FFF7FEFF 		bl	Connect_Channel_On_Intermediate
 5848              	.LVL826:
1127:main.c        **** 				
1128:main.c        **** 				sprintf(TransmitBuffer, "# Connected channel %u to %u\r\n", channel, intermediate);
 5849              		.loc 2 1128 0 discriminator 14
 5850 060c 334C     		ldr	r4, .L459+4
 5851 060e 3346     		mov	r3, r6
 5852 0610 2A46     		mov	r2, r5
 5853 0612 3E49     		ldr	r1, .L459+52
 5854 0614 2046     		mov	r0, r4
 5855 0616 FFF7FEFF 		bl	sprintf
 5856              	.LVL827:
1129:main.c        **** 				USBUARTH_Send(TransmitBuffer, strlen(TransmitBuffer));
 5857              		.loc 2 1129 0 discriminator 14
 5858 061a 2046     		mov	r0, r4
 5859 061c FFF7FEFF 		bl	strlen
 5860              	.LVL828:
 5861 0620 81B2     		uxth	r1, r0
 5862 0622 2046     		mov	r0, r4
 5863 0624 FFF7FEFF 		bl	USBUARTH_Send
 5864              	.LVL829:
1130:main.c        **** 				UART_1_PutString(TransmitBuffer);
 5865              		.loc 2 1130 0 discriminator 14
 5866 0628 2046     		mov	r0, r4
 5867 062a FFF7FEFF 		bl	UART_1_PutString
 5868              	.LVL830:
 5869              	.LBE76:
 5870 062e 22E5     		b	.L422
 5871              	.LVL831:
 5872              	.L446:
1131:main.c        **** 			} else 
1132:main.c        **** 			if (strstr(ReceiveBuffer, "disconnect ") == &ReceiveBuffer[0]) {
 5873              		.loc 2 1132 0
 5874 0630 3749     		ldr	r1, .L459+56
 5875 0632 2046     		mov	r0, r4
 5876 0634 FFF7FEFF 		bl	strstr
 5877              	.LVL832:
 5878 0638 8442     		cmp	r4, r0
 5879 063a 27D1     		bne	.L447
 5880              	.LBB77:
1133:main.c        **** 				char* location = strstr(ReceiveBuffer, " ");
 5881              		.loc 2 1133 0 discriminator 15
 5882 063c 2021     		movs	r1, #32
 5883 063e 2046     		mov	r0, r4
 5884 0640 FFF7FEFF 		bl	strchr
 5885              	.LVL833:
 5886 0644 02AC     		add	r4, sp, #8
 5887              	.LVL834:
ARM GAS  C:\Users\FRANKL~1\AppData\Local\Temp\ccba5qpo.s 			page 136


 5888 0646 44F8040D 		str	r0, [r4, #-4]!
1134:main.c        **** 				uint8 contact = strtol(location, &location, 10);
 5889              		.loc 2 1134 0 discriminator 15
 5890 064a 0A22     		movs	r2, #10
 5891 064c 2146     		mov	r1, r4
 5892 064e FFF7FEFF 		bl	strtol
 5893              	.LVL835:
 5894 0652 C5B2     		uxtb	r5, r0
 5895              	.LVL836:
1135:main.c        **** 				uint8 intermediate = strtol(location, &location, 10);
 5896              		.loc 2 1135 0 discriminator 15
 5897 0654 0A22     		movs	r2, #10
 5898 0656 2146     		mov	r1, r4
 5899 0658 0198     		ldr	r0, [sp, #4]
 5900 065a FFF7FEFF 		bl	strtol
 5901              	.LVL837:
 5902 065e C6B2     		uxtb	r6, r0
 5903              	.LVL838:
1136:main.c        **** 				Disconnect_Contact_From_Intermediate(contact, intermediate);
 5904              		.loc 2 1136 0 discriminator 15
 5905 0660 3146     		mov	r1, r6
 5906 0662 2846     		mov	r0, r5
 5907 0664 FFF7FEFF 		bl	Disconnect_Contact_From_Intermediate
 5908              	.LVL839:
1137:main.c        **** 				
1138:main.c        **** 				sprintf(TransmitBuffer, "# Disonnected %u from %u\r\n", contact, intermediate);
 5909              		.loc 2 1138 0 discriminator 15
 5910 0668 1C4C     		ldr	r4, .L459+4
 5911 066a 3346     		mov	r3, r6
 5912 066c 2A46     		mov	r2, r5
 5913 066e 2949     		ldr	r1, .L459+60
 5914 0670 2046     		mov	r0, r4
 5915 0672 FFF7FEFF 		bl	sprintf
 5916              	.LVL840:
1139:main.c        **** 				USBUARTH_Send(TransmitBuffer, strlen(TransmitBuffer));
 5917              		.loc 2 1139 0 discriminator 15
 5918 0676 2046     		mov	r0, r4
 5919 0678 FFF7FEFF 		bl	strlen
 5920              	.LVL841:
 5921 067c 81B2     		uxth	r1, r0
 5922 067e 2046     		mov	r0, r4
 5923 0680 FFF7FEFF 		bl	USBUARTH_Send
 5924              	.LVL842:
1140:main.c        **** 				UART_1_PutString(TransmitBuffer);
 5925              		.loc 2 1140 0 discriminator 15
 5926 0684 2046     		mov	r0, r4
 5927 0686 FFF7FEFF 		bl	UART_1_PutString
 5928              	.LVL843:
 5929              	.LBE77:
 5930 068a F4E4     		b	.L422
 5931              	.LVL844:
 5932              	.L447:
1141:main.c        **** 			} else 
1142:main.c        **** 			if (strstr(ReceiveBuffer, "disconnect-all-from ") == &ReceiveBuffer[0]) {
 5933              		.loc 2 1142 0
 5934 068c 2249     		ldr	r1, .L459+64
 5935 068e 2046     		mov	r0, r4
ARM GAS  C:\Users\FRANKL~1\AppData\Local\Temp\ccba5qpo.s 			page 137


 5936 0690 FFF7FEFF 		bl	strstr
 5937              	.LVL845:
 5938 0694 8442     		cmp	r4, r0
 5939 0696 43D1     		bne	.L448
 5940              	.LBB78:
1143:main.c        **** 				char* location = strstr(ReceiveBuffer, " ");
 5941              		.loc 2 1143 0 discriminator 16
 5942 0698 2021     		movs	r1, #32
 5943 069a 2046     		mov	r0, r4
 5944 069c FFF7FEFF 		bl	strchr
 5945              	.LVL846:
 5946 06a0 02A9     		add	r1, sp, #8
 5947 06a2 41F8040D 		str	r0, [r1, #-4]!
1144:main.c        **** 				uint8 intermediate = strtol(location, &location, 10);
 5948              		.loc 2 1144 0 discriminator 16
 5949 06a6 0A22     		movs	r2, #10
 5950 06a8 FFF7FEFF 		bl	strtol
 5951              	.LVL847:
 5952 06ac C5B2     		uxtb	r5, r0
 5953              	.LVL848:
1145:main.c        **** 				Disconnect_All_Contacts_From_Intermediate(intermediate);
 5954              		.loc 2 1145 0 discriminator 16
 5955 06ae 2846     		mov	r0, r5
 5956 06b0 FFF7FEFF 		bl	Disconnect_All_Contacts_From_Intermediate
 5957              	.LVL849:
1146:main.c        **** 				
1147:main.c        **** 				sprintf(TransmitBuffer, "# Disconnected all from  %u\r\n", intermediate);
 5958              		.loc 2 1147 0 discriminator 16
 5959 06b4 094C     		ldr	r4, .L459+4
 5960              	.LVL850:
 5961 06b6 2A46     		mov	r2, r5
 5962 06b8 1849     		ldr	r1, .L459+68
 5963 06ba 2046     		mov	r0, r4
 5964 06bc FFF7FEFF 		bl	sprintf
 5965              	.LVL851:
1148:main.c        **** 				USBUARTH_Send(TransmitBuffer, strlen(TransmitBuffer));
 5966              		.loc 2 1148 0 discriminator 16
 5967 06c0 2046     		mov	r0, r4
 5968 06c2 FFF7FEFF 		bl	strlen
 5969              	.LVL852:
 5970 06c6 81B2     		uxth	r1, r0
 5971 06c8 2046     		mov	r0, r4
 5972 06ca FFF7FEFF 		bl	USBUARTH_Send
 5973              	.LVL853:
1149:main.c        **** 				UART_1_PutString(TransmitBuffer);
 5974              		.loc 2 1149 0 discriminator 16
 5975 06ce 2046     		mov	r0, r4
 5976 06d0 FFF7FEFF 		bl	UART_1_PutString
 5977              	.LVL854:
 5978              	.LBE78:
 5979 06d4 CFE4     		b	.L422
 5980              	.L460:
 5981 06d6 00BF     		.align	2
 5982              	.L459:
 5983 06d8 54020000 		.word	.LC36
 5984 06dc 00000000 		.word	TransmitBuffer
 5985 06e0 60020000 		.word	.LC37
ARM GAS  C:\Users\FRANKL~1\AppData\Local\Temp\ccba5qpo.s 			page 138


 5986 06e4 7C020000 		.word	.LC38
 5987 06e8 98020000 		.word	.LC39
 5988 06ec AC020000 		.word	.LC40
 5989 06f0 CC020000 		.word	.LC41
 5990 06f4 EC020000 		.word	.LC42
 5991 06f8 04030000 		.word	.LC43
 5992 06fc 28030000 		.word	.LC44
 5993 0700 4C030000 		.word	.LC45
 5994 0704 58030000 		.word	.LC46
 5995 0708 70030000 		.word	.LC47
 5996 070c 7C030000 		.word	.LC48
 5997 0710 9C030000 		.word	.LC49
 5998 0714 A8030000 		.word	.LC50
 5999 0718 C4030000 		.word	.LC51
 6000 071c DC030000 		.word	.LC52
 6001              	.LVL855:
 6002              	.L448:
1150:main.c        **** 			} else 
1151:main.c        **** 			if (strstr(ReceiveBuffer, "disconnect-all-from-all ") == &ReceiveBuffer[0]) {
 6003              		.loc 2 1151 0
 6004 0720 6549     		ldr	r1, .L461
 6005 0722 2046     		mov	r0, r4
 6006 0724 FFF7FEFF 		bl	strstr
 6007              	.LVL856:
 6008 0728 8442     		cmp	r4, r0
 6009 072a 19D1     		bne	.L449
1152:main.c        **** 				Disconnect_All_Contacts_From_All_Intermediates();
 6010              		.loc 2 1152 0
 6011 072c FFF7FEFF 		bl	Disconnect_All_Contacts_From_All_Intermediates
 6012              	.LVL857:
1153:main.c        **** 				
1154:main.c        **** 				sprintf(TransmitBuffer, "# Disconnected all from all\r\n");
 6013              		.loc 2 1154 0
 6014 0730 624D     		ldr	r5, .L461+4
 6015 0732 634C     		ldr	r4, .L461+8
 6016              	.LVL858:
 6017 0734 0FCC     		ldmia	r4!, {r0, r1, r2, r3}
 6018 0736 2860     		str	r0, [r5]	@ unaligned
 6019 0738 6960     		str	r1, [r5, #4]	@ unaligned
 6020 073a AA60     		str	r2, [r5, #8]	@ unaligned
 6021 073c EB60     		str	r3, [r5, #12]	@ unaligned
 6022 073e 07CC     		ldmia	r4!, {r0, r1, r2}
 6023 0740 2861     		str	r0, [r5, #16]	@ unaligned
 6024 0742 6961     		str	r1, [r5, #20]	@ unaligned
 6025 0744 AA61     		str	r2, [r5, #24]	@ unaligned
 6026 0746 2388     		ldrh	r3, [r4]	@ unaligned
 6027 0748 AB83     		strh	r3, [r5, #28]	@ unaligned
1155:main.c        **** 				USBUARTH_Send(TransmitBuffer, strlen(TransmitBuffer));
 6028              		.loc 2 1155 0
 6029 074a 2846     		mov	r0, r5
 6030 074c FFF7FEFF 		bl	strlen
 6031              	.LVL859:
 6032 0750 81B2     		uxth	r1, r0
 6033 0752 2846     		mov	r0, r5
 6034 0754 FFF7FEFF 		bl	USBUARTH_Send
 6035              	.LVL860:
1156:main.c        **** 				UART_1_PutString(TransmitBuffer);
ARM GAS  C:\Users\FRANKL~1\AppData\Local\Temp\ccba5qpo.s 			page 139


 6036              		.loc 2 1156 0
 6037 0758 2846     		mov	r0, r5
 6038 075a FFF7FEFF 		bl	UART_1_PutString
 6039              	.LVL861:
 6040 075e 8AE4     		b	.L422
 6041              	.LVL862:
 6042              	.L449:
1157:main.c        **** 			} else 
1158:main.c        **** 			if (strstr(ReceiveBuffer, "disconnect-from-all ") == &ReceiveBuffer[0]) {
 6043              		.loc 2 1158 0
 6044 0760 5849     		ldr	r1, .L461+12
 6045 0762 2046     		mov	r0, r4
 6046 0764 FFF7FEFF 		bl	strstr
 6047              	.LVL863:
 6048 0768 8442     		cmp	r4, r0
 6049 076a 1ED1     		bne	.L450
 6050              	.LBB79:
1159:main.c        **** 				char* location = strstr(ReceiveBuffer, " ");
 6051              		.loc 2 1159 0 discriminator 17
 6052 076c 2021     		movs	r1, #32
 6053 076e 2046     		mov	r0, r4
 6054 0770 FFF7FEFF 		bl	strchr
 6055              	.LVL864:
 6056 0774 02A9     		add	r1, sp, #8
 6057 0776 41F8040D 		str	r0, [r1, #-4]!
1160:main.c        **** 				uint8 contact = strtol(location, &location, 10);
 6058              		.loc 2 1160 0 discriminator 17
 6059 077a 0A22     		movs	r2, #10
 6060 077c FFF7FEFF 		bl	strtol
 6061              	.LVL865:
 6062 0780 C5B2     		uxtb	r5, r0
 6063              	.LVL866:
1161:main.c        **** 				Disconnect_Contact_From_All_Intermediates(contact);
 6064              		.loc 2 1161 0 discriminator 17
 6065 0782 2846     		mov	r0, r5
 6066 0784 FFF7FEFF 		bl	Disconnect_Contact_From_All_Intermediates
 6067              	.LVL867:
1162:main.c        **** 				
1163:main.c        **** 				sprintf(TransmitBuffer, "# Disconnected %u from all\r\n", contact);
 6068              		.loc 2 1163 0 discriminator 17
 6069 0788 4C4C     		ldr	r4, .L461+4
 6070              	.LVL868:
 6071 078a 2A46     		mov	r2, r5
 6072 078c 4E49     		ldr	r1, .L461+16
 6073 078e 2046     		mov	r0, r4
 6074 0790 FFF7FEFF 		bl	sprintf
 6075              	.LVL869:
1164:main.c        **** 				USBUARTH_Send(TransmitBuffer, strlen(TransmitBuffer));
 6076              		.loc 2 1164 0 discriminator 17
 6077 0794 2046     		mov	r0, r4
 6078 0796 FFF7FEFF 		bl	strlen
 6079              	.LVL870:
 6080 079a 81B2     		uxth	r1, r0
 6081 079c 2046     		mov	r0, r4
 6082 079e FFF7FEFF 		bl	USBUARTH_Send
 6083              	.LVL871:
1165:main.c        **** 				UART_1_PutString(TransmitBuffer);
ARM GAS  C:\Users\FRANKL~1\AppData\Local\Temp\ccba5qpo.s 			page 140


 6084              		.loc 2 1165 0 discriminator 17
 6085 07a2 2046     		mov	r0, r4
 6086 07a4 FFF7FEFF 		bl	UART_1_PutString
 6087              	.LVL872:
 6088              	.LBE79:
 6089 07a8 65E4     		b	.L422
 6090              	.LVL873:
 6091              	.L450:
1166:main.c        **** 			} else 
1167:main.c        **** 			if (strstr(ReceiveBuffer, "connect-intermediate ") == &ReceiveBuffer[0]) {
 6092              		.loc 2 1167 0
 6093 07aa 4849     		ldr	r1, .L461+20
 6094 07ac 2046     		mov	r0, r4
 6095 07ae FFF7FEFF 		bl	strstr
 6096              	.LVL874:
 6097 07b2 8442     		cmp	r4, r0
 6098 07b4 1ED1     		bne	.L451
 6099              	.LBB80:
1168:main.c        **** 				char* location = strstr(ReceiveBuffer, " ");
 6100              		.loc 2 1168 0 discriminator 18
 6101 07b6 2021     		movs	r1, #32
 6102 07b8 2046     		mov	r0, r4
 6103 07ba FFF7FEFF 		bl	strchr
 6104              	.LVL875:
 6105 07be 02A9     		add	r1, sp, #8
 6106 07c0 41F8040D 		str	r0, [r1, #-4]!
1169:main.c        **** 				uint8 intermediate = strtol(location, &location, 10);
 6107              		.loc 2 1169 0 discriminator 18
 6108 07c4 0A22     		movs	r2, #10
 6109 07c6 FFF7FEFF 		bl	strtol
 6110              	.LVL876:
 6111 07ca C5B2     		uxtb	r5, r0
 6112              	.LVL877:
1170:main.c        **** 				Connect_Intermediate(intermediate);
 6113              		.loc 2 1170 0 discriminator 18
 6114 07cc 2846     		mov	r0, r5
 6115 07ce FFF7FEFF 		bl	Connect_Intermediate
 6116              	.LVL878:
1171:main.c        **** 				
1172:main.c        **** 				sprintf(TransmitBuffer, "# Connected intermediate %u\r\n", intermediate);
 6117              		.loc 2 1172 0 discriminator 18
 6118 07d2 3A4C     		ldr	r4, .L461+4
 6119              	.LVL879:
 6120 07d4 2A46     		mov	r2, r5
 6121 07d6 3E49     		ldr	r1, .L461+24
 6122 07d8 2046     		mov	r0, r4
 6123 07da FFF7FEFF 		bl	sprintf
 6124              	.LVL880:
1173:main.c        **** 				USBUARTH_Send(TransmitBuffer, strlen(TransmitBuffer));
 6125              		.loc 2 1173 0 discriminator 18
 6126 07de 2046     		mov	r0, r4
 6127 07e0 FFF7FEFF 		bl	strlen
 6128              	.LVL881:
 6129 07e4 81B2     		uxth	r1, r0
 6130 07e6 2046     		mov	r0, r4
 6131 07e8 FFF7FEFF 		bl	USBUARTH_Send
 6132              	.LVL882:
ARM GAS  C:\Users\FRANKL~1\AppData\Local\Temp\ccba5qpo.s 			page 141


1174:main.c        **** 				UART_1_PutString(TransmitBuffer);
 6133              		.loc 2 1174 0 discriminator 18
 6134 07ec 2046     		mov	r0, r4
 6135 07ee FFF7FEFF 		bl	UART_1_PutString
 6136              	.LVL883:
 6137              	.LBE80:
 6138 07f2 40E4     		b	.L422
 6139              	.LVL884:
 6140              	.L451:
1175:main.c        **** 			} else 
1176:main.c        **** 			if (strstr(ReceiveBuffer, "connect-intermediates ") == &ReceiveBuffer[0]) {
 6141              		.loc 2 1176 0
 6142 07f4 3749     		ldr	r1, .L461+28
 6143 07f6 2046     		mov	r0, r4
 6144 07f8 FFF7FEFF 		bl	strstr
 6145              	.LVL885:
 6146 07fc 8442     		cmp	r4, r0
 6147 07fe 17D1     		bne	.L452
1177:main.c        **** 				Connect_Intermediates();
 6148              		.loc 2 1177 0
 6149 0800 FFF7FEFF 		bl	Connect_Intermediates
 6150              	.LVL886:
1178:main.c        **** 				
1179:main.c        **** 				sprintf(TransmitBuffer, "# Connected intermediates\r\n");
 6151              		.loc 2 1179 0
 6152 0804 2D4D     		ldr	r5, .L461+4
 6153 0806 344C     		ldr	r4, .L461+32
 6154              	.LVL887:
 6155 0808 0FCC     		ldmia	r4!, {r0, r1, r2, r3}
 6156 080a 2860     		str	r0, [r5]	@ unaligned
 6157 080c 6960     		str	r1, [r5, #4]	@ unaligned
 6158 080e AA60     		str	r2, [r5, #8]	@ unaligned
 6159 0810 EB60     		str	r3, [r5, #12]	@ unaligned
 6160 0812 07CC     		ldmia	r4!, {r0, r1, r2}
 6161 0814 2861     		str	r0, [r5, #16]	@ unaligned
 6162 0816 6961     		str	r1, [r5, #20]	@ unaligned
 6163 0818 AA61     		str	r2, [r5, #24]	@ unaligned
1180:main.c        **** 				USBUARTH_Send(TransmitBuffer, strlen(TransmitBuffer));
 6164              		.loc 2 1180 0
 6165 081a 2846     		mov	r0, r5
 6166 081c FFF7FEFF 		bl	strlen
 6167              	.LVL888:
 6168 0820 81B2     		uxth	r1, r0
 6169 0822 2846     		mov	r0, r5
 6170 0824 FFF7FEFF 		bl	USBUARTH_Send
 6171              	.LVL889:
1181:main.c        **** 				UART_1_PutString(TransmitBuffer);
 6172              		.loc 2 1181 0
 6173 0828 2846     		mov	r0, r5
 6174 082a FFF7FEFF 		bl	UART_1_PutString
 6175              	.LVL890:
 6176 082e 22E4     		b	.L422
 6177              	.LVL891:
 6178              	.L452:
1182:main.c        **** 			} else 
1183:main.c        **** 			if (strstr(ReceiveBuffer, "Set_Current_Measurement_Sample_Count ") == &ReceiveBuffer[0]) {
 6179              		.loc 2 1183 0
ARM GAS  C:\Users\FRANKL~1\AppData\Local\Temp\ccba5qpo.s 			page 142


 6180 0830 2A49     		ldr	r1, .L461+36
 6181 0832 2046     		mov	r0, r4
 6182 0834 FFF7FEFF 		bl	strstr
 6183              	.LVL892:
 6184 0838 8442     		cmp	r4, r0
 6185 083a 2BD1     		bne	.L453
 6186              	.LBB81:
1184:main.c        **** 				char* location = strstr(ReceiveBuffer, " ");
 6187              		.loc 2 1184 0 discriminator 19
 6188 083c 2021     		movs	r1, #32
 6189 083e 2046     		mov	r0, r4
 6190 0840 FFF7FEFF 		bl	strchr
 6191              	.LVL893:
 6192 0844 02A9     		add	r1, sp, #8
 6193 0846 41F8040D 		str	r0, [r1, #-4]!
1185:main.c        **** 				uint32 sampleCount = strtol(location, &location, 10);
 6194              		.loc 2 1185 0 discriminator 19
 6195 084a 0A22     		movs	r2, #10
 6196 084c FFF7FEFF 		bl	strtol
 6197              	.LVL894:
1186:main.c        **** 				
1187:main.c        **** 				Current_Measurement_Sample_Count = sampleCount;
 6198              		.loc 2 1187 0 discriminator 19
 6199 0850 234B     		ldr	r3, .L461+40
 6200 0852 1860     		str	r0, [r3]
1188:main.c        **** 				
1189:main.c        **** 				sprintf(TransmitBuffer, "# Set Current Measurement Sample Count\r\n");
 6201              		.loc 2 1189 0 discriminator 19
 6202 0854 234C     		ldr	r4, .L461+44
 6203              	.LVL895:
 6204 0856 194D     		ldr	r5, .L461+4
 6205 0858 04F12007 		add	r7, r4, #32
 6206              	.LVL896:
 6207              	.L454:
 6208 085c 2646     		mov	r6, r4
 6209 085e 0FCE     		ldmia	r6!, {r0, r1, r2, r3}
 6210 0860 2860     		str	r0, [r5]	@ unaligned
 6211 0862 6960     		str	r1, [r5, #4]	@ unaligned
 6212 0864 AA60     		str	r2, [r5, #8]	@ unaligned
 6213 0866 EB60     		str	r3, [r5, #12]	@ unaligned
 6214 0868 3446     		mov	r4, r6
 6215 086a 1035     		adds	r5, r5, #16
 6216 086c BE42     		cmp	r6, r7
 6217 086e F5D1     		bne	.L454
 6218 0870 03CC     		ldmia	r4!, {r0, r1}
 6219 0872 2860     		str	r0, [r5]	@ unaligned
 6220 0874 6960     		str	r1, [r5, #4]	@ unaligned
 6221 0876 2378     		ldrb	r3, [r4]	@ zero_extendqisi2
 6222 0878 2B72     		strb	r3, [r5, #8]
1190:main.c        **** 				USBUARTH_Send(TransmitBuffer, strlen(TransmitBuffer));
 6223              		.loc 2 1190 0 discriminator 19
 6224 087a 104C     		ldr	r4, .L461+4
 6225 087c 2046     		mov	r0, r4
 6226 087e FFF7FEFF 		bl	strlen
 6227              	.LVL897:
 6228 0882 81B2     		uxth	r1, r0
 6229 0884 2046     		mov	r0, r4
ARM GAS  C:\Users\FRANKL~1\AppData\Local\Temp\ccba5qpo.s 			page 143


 6230 0886 FFF7FEFF 		bl	USBUARTH_Send
 6231              	.LVL898:
1191:main.c        **** 				UART_1_PutString(TransmitBuffer);
 6232              		.loc 2 1191 0 discriminator 19
 6233 088a 2046     		mov	r0, r4
 6234 088c FFF7FEFF 		bl	UART_1_PutString
 6235              	.LVL899:
 6236              	.LBE81:
 6237 0890 FFF7F1BB 		b	.L422
 6238              	.LVL900:
 6239              	.L453:
1192:main.c        **** 			} else {
1193:main.c        **** 				sprintf(TransmitBuffer, "! Unidentified command: |%s|\r\n", ReceiveBuffer);
 6240              		.loc 2 1193 0
 6241 0894 094D     		ldr	r5, .L461+4
 6242 0896 2246     		mov	r2, r4
 6243 0898 1349     		ldr	r1, .L461+48
 6244 089a 2846     		mov	r0, r5
 6245 089c FFF7FEFF 		bl	sprintf
 6246              	.LVL901:
1194:main.c        **** 				USBUARTH_Send(TransmitBuffer, strlen(TransmitBuffer));
 6247              		.loc 2 1194 0
 6248 08a0 2846     		mov	r0, r5
 6249 08a2 FFF7FEFF 		bl	strlen
 6250              	.LVL902:
 6251 08a6 81B2     		uxth	r1, r0
 6252 08a8 2846     		mov	r0, r5
 6253 08aa FFF7FEFF 		bl	USBUARTH_Send
 6254              	.LVL903:
1195:main.c        **** 				UART_1_PutString(TransmitBuffer);
 6255              		.loc 2 1195 0
 6256 08ae 2846     		mov	r0, r5
 6257 08b0 FFF7FEFF 		bl	UART_1_PutString
 6258              	.LVL904:
 6259 08b4 FFF7DFBB 		b	.L422
 6260              	.L462:
 6261              		.align	2
 6262              	.L461:
 6263 08b8 FC030000 		.word	.LC53
 6264 08bc 00000000 		.word	TransmitBuffer
 6265 08c0 18040000 		.word	.LC54
 6266 08c4 38040000 		.word	.LC55
 6267 08c8 50040000 		.word	.LC56
 6268 08cc 70040000 		.word	.LC57
 6269 08d0 88040000 		.word	.LC58
 6270 08d4 A8040000 		.word	.LC59
 6271 08d8 C0040000 		.word	.LC60
 6272 08dc DC040000 		.word	.LC61
 6273 08e0 00000000 		.word	Current_Measurement_Sample_Count
 6274 08e4 04050000 		.word	.LC62
 6275 08e8 30050000 		.word	.LC63
 6276              	.LBE62:
 6277              		.cfi_endproc
 6278              	.LFE113:
 6279              		.size	main, .-main
 6280              		.comm	Current_Measurement_Sample_Count,4,4
 6281              		.comm	Vds_Index_Goal_Relative,2,2
ARM GAS  C:\Users\FRANKL~1\AppData\Local\Temp\ccba5qpo.s 			page 144


 6282              		.comm	Vgs_Index_Goal_Relative,2,2
 6283              		.comm	Compliance_Reached,1,1
 6284              		.global	TIA_Offsets_uV
 6285              		.global	TIA_Resistor_Values
 6286              		.global	TIA_Resistor_Codes
 6287              		.global	TIA_Selected_Resistor
 6288              		.comm	USBUART_Rx_Position,1,1
 6289              		.comm	USBUART_Receive_Buffer,64,4
 6290              		.comm	UART_Rx_Position,1,1
 6291              		.comm	UART_Receive_Buffer,64,4
 6292              		.global	G_Pause
 6293              		.global	G_Break
 6294              		.global	G_Stop
 6295              		.global	newData
 6296              		.comm	TransmitBuffer,64,4
 6297              		.comm	selectors,1020,4
 6298              		.data
 6299              		.align	2
 6300              		.set	.LANCHOR1,. + 0
 6301              		.type	TIA_Selected_Resistor, %object
 6302              		.size	TIA_Selected_Resistor, 1
 6303              	TIA_Selected_Resistor:
 6304 0000 07       		.byte	7
 6305 0001 000000   		.space	3
 6306              		.type	TIA_Resistor_Codes, %object
 6307              		.size	TIA_Resistor_Codes, 8
 6308              	TIA_Resistor_Codes:
 6309 0004 00       		.byte	0
 6310 0005 01       		.byte	1
 6311 0006 02       		.byte	2
 6312 0007 03       		.byte	3
 6313 0008 04       		.byte	4
 6314 0009 05       		.byte	5
 6315 000a 06       		.byte	6
 6316 000b 07       		.byte	7
 6317              		.type	TIA_Resistor_Values, %object
 6318              		.size	TIA_Resistor_Values, 32
 6319              	TIA_Resistor_Values:
 6320 000c 00409C46 		.word	1184645120
 6321 0010 0060EA46 		.word	1189765120
 6322 0014 00401C47 		.word	1193033728
 6323 0018 00409C47 		.word	1201422336
 6324 001c 0060EA47 		.word	1206542336
 6325 0020 00247448 		.word	1215570944
 6326 0024 0024F448 		.word	1223959552
 6327 0028 00247449 		.word	1232348160
 6328              		.section	.rodata.str1.4,"aMS",%progbits,1
 6329              		.align	2
 6330              	.LC0:
 6331 0000 73746F70 		.ascii	"stop \000"
 6331      2000
 6332 0006 0000     		.space	2
 6333              	.LC1:
 6334 0008 62726561 		.ascii	"break \000"
 6334      6B2000
 6335 000f 00       		.space	1
 6336              	.LC2:
ARM GAS  C:\Users\FRANKL~1\AppData\Local\Temp\ccba5qpo.s 			page 145


 6337 0010 70617573 		.ascii	"pause \000"
 6337      652000
 6338 0017 00       		.space	1
 6339              	.LC3:
 6340 0018 72657375 		.ascii	"resume \000"
 6340      6D652000 
 6341              	.LC4:
 6342 0020 74726973 		.ascii	"tristate \000"
 6342      74617465 
 6342      2000
 6343 002a 0000     		.space	2
 6344              	.LC5:
 6345 002c 55706461 		.ascii	"Updating Selector %u\015\012\000"
 6345      74696E67 
 6345      2053656C 
 6345      6563746F 
 6345      72202575 
 6346 0043 00       		.space	1
 6347              	.LC6:
 6348 0044 49324320 		.ascii	"I2C Transfer Error! Type: Timeout\015\012\000"
 6348      5472616E 
 6348      73666572 
 6348      20457272 
 6348      6F722120 
 6349              	.LC7:
 6350 0068 49324320 		.ascii	"I2C Transfer Error! \000"
 6350      5472616E 
 6350      73666572 
 6350      20457272 
 6350      6F722120 
 6351 007d 000000   		.space	3
 6352              	.LC8:
 6353 0080 54797065 		.ascii	"Type: NAK\000"
 6353      3A204E41 
 6353      4B00
 6354 008a 0000     		.space	2
 6355              	.LC9:
 6356 008c 0D0A00   		.ascii	"\015\012\000"
 6357 008f 00       		.space	1
 6358              	.LC10:
 6359 0090 55706461 		.ascii	"Updated Selector %u\015\012\000"
 6359      74656420 
 6359      53656C65 
 6359      63746F72 
 6359      2025750D 
 6360 00a6 0000     		.space	2
 6361              	.LC11:
 6362 00a8 23204F66 		.ascii	"# Offset %e Ohm: %li uV\015\012\000"
 6362      66736574 
 6362      20256520 
 6362      4F686D3A 
 6362      20256C69 
 6363 00c2 0000     		.space	2
 6364              	.LC12:
 6365 00c4 23204361 		.ascii	"# Calibrated ADC Offsets\015\012\000"
 6365      6C696272 
 6365      61746564 
ARM GAS  C:\Users\FRANKL~1\AppData\Local\Temp\ccba5qpo.s 			page 146


 6365      20414443 
 6365      204F6666 
 6366 00df 00       		.space	1
 6367              	.LC13:
 6368 00e0 5B25652C 		.ascii	"[%e,%f,%f,%f,%u]\015\012\000"
 6368      25662C25 
 6368      662C2566 
 6368      2C25755D 
 6368      0D0A00
 6369 00f3 00       		.space	1
 6370              	.LC14:
 6371 00f4 0D0A2575 		.ascii	"\015\012%u\015\012\000"
 6371      0D0A00
 6372 00fb 00       		.space	1
 6373              	.LC15:
 6374 00fc 0D0A2320 		.ascii	"\015\012# Starting\015\012\000"
 6374      53746172 
 6374      74696E67 
 6374      0D0A00
 6375 010b 00       		.space	1
 6376              	.LC16:
 6377 010c 6D656173 		.ascii	"measure \000"
 6377      75726520 
 6377      00
 6378 0115 000000   		.space	3
 6379              	.LC17:
 6380 0118 6D656173 		.ascii	"measure-multiple \000"
 6380      7572652D 
 6380      6D756C74 
 6380      69706C65 
 6380      2000
 6381 012a 0000     		.space	2
 6382              	.LC18:
 6383 012c 6D656173 		.ascii	"measure-sweep \000"
 6383      7572652D 
 6383      73776565 
 6383      702000
 6384 013b 00       		.space	1
 6385              	.LC19:
 6386 013c 6D656173 		.ascii	"measure-gate-sweep \000"
 6386      7572652D 
 6386      67617465 
 6386      2D737765 
 6386      65702000 
 6387              	.LC20:
 6388 0150 6D656173 		.ascii	"measure-gate-sweep-loop \000"
 6388      7572652D 
 6388      67617465 
 6388      2D737765 
 6388      65702D6C 
 6389 0169 000000   		.space	3
 6390              	.LC21:
 6391 016c 63616C69 		.ascii	"calibrate-offset \000"
 6391      62726174 
 6391      652D6F66 
 6391      66736574 
 6391      2000
ARM GAS  C:\Users\FRANKL~1\AppData\Local\Temp\ccba5qpo.s 			page 147


 6392 017e 0000     		.space	2
 6393              	.LC22:
 6394 0180 7365742D 		.ascii	"set-vgs-raw \000"
 6394      7667732D 
 6394      72617720 
 6394      00
 6395 018d 000000   		.space	3
 6396              	.LC23:
 6397 0190 7365742D 		.ascii	"set-vds-raw \000"
 6397      7664732D 
 6397      72617720 
 6397      00
 6398 019d 000000   		.space	3
 6399              	.LC24:
 6400 01a0 7365742D 		.ascii	"set-vgs-rel \000"
 6400      7667732D 
 6400      72656C20 
 6400      00
 6401 01ad 000000   		.space	3
 6402              	.LC25:
 6403 01b0 7365742D 		.ascii	"set-vds-rel \000"
 6403      7664732D 
 6403      72656C20 
 6403      00
 6404 01bd 000000   		.space	3
 6405              	.LC26:
 6406 01c0 7365742D 		.ascii	"set-vgs \000"
 6406      76677320 
 6406      00
 6407 01c9 000000   		.space	3
 6408              	.LC27:
 6409 01cc 256600   		.ascii	"%f\000"
 6410 01cf 00       		.space	1
 6411              	.LC28:
 6412 01d0 7365742D 		.ascii	"set-vds \000"
 6412      76647320 
 6412      00
 6413 01d9 000000   		.space	3
 6414              	.LC29:
 6415 01dc 7365742D 		.ascii	"set-vgs-mv \000"
 6415      7667732D 
 6415      6D762000 
 6416              	.LC30:
 6417 01e8 23205667 		.ascii	"# Vgs set to %f mV\015\012\000"
 6417      73207365 
 6417      7420746F 
 6417      20256620 
 6417      6D560D0A 
 6418 01fd 000000   		.space	3
 6419              	.LC31:
 6420 0200 7365742D 		.ascii	"set-vds-mv \000"
 6420      7664732D 
 6420      6D762000 
 6421              	.LC32:
 6422 020c 23205664 		.ascii	"# Vds set to %f mV\015\012\000"
 6422      73207365 
 6422      7420746F 
ARM GAS  C:\Users\FRANKL~1\AppData\Local\Temp\ccba5qpo.s 			page 148


 6422      20256620 
 6422      6D560D0A 
 6423 0221 000000   		.space	3
 6424              	.LC33:
 6425 0224 7363616E 		.ascii	"scan \000"
 6425      2000
 6426 022a 0000     		.space	2
 6427              	.LC34:
 6428 022c 0D0A2320 		.ascii	"\015\012# Scan Starting\015\012\000"
 6428      5363616E 
 6428      20537461 
 6428      7274696E 
 6428      670D0A00 
 6429              	.LC35:
 6430 0240 0D0A2320 		.ascii	"\015\012# Scan Complete\015\012\000"
 6430      5363616E 
 6430      20436F6D 
 6430      706C6574 
 6430      650D0A00 
 6431              	.LC36:
 6432 0254 7363616E 		.ascii	"scan-range \000"
 6432      2D72616E 
 6432      67652000 
 6433              	.LC37:
 6434 0260 0D0A2320 		.ascii	"\015\012# Scan-Range Starting\015\012\000"
 6434      5363616E 
 6434      2D52616E 
 6434      67652053 
 6434      74617274 
 6435 027a 0000     		.space	2
 6436              	.LC38:
 6437 027c 0D0A2320 		.ascii	"\015\012# Scan Range Complete\015\012\000"
 6437      5363616E 
 6437      2052616E 
 6437      67652043 
 6437      6F6D706C 
 6438 0296 0000     		.space	2
 6439              	.LC39:
 6440 0298 7363616E 		.ascii	"scan-range-loop \000"
 6440      2D72616E 
 6440      67652D6C 
 6440      6F6F7020 
 6440      00
 6441 02a9 000000   		.space	3
 6442              	.LC40:
 6443 02ac 0D0A2320 		.ascii	"\015\012# Scan-Range-Loop Starting\015\012\000"
 6443      5363616E 
 6443      2D52616E 
 6443      67652D4C 
 6443      6F6F7020 
 6444 02cb 00       		.space	1
 6445              	.LC41:
 6446 02cc 0D0A2320 		.ascii	"\015\012# Scan Range Loop Complete\015\012\000"
 6446      5363616E 
 6446      2052616E 
 6446      6765204C 
 6446      6F6F7020 
ARM GAS  C:\Users\FRANKL~1\AppData\Local\Temp\ccba5qpo.s 			page 149


 6447 02eb 00       		.space	1
 6448              	.LC42:
 6449 02ec 7363616E 		.ascii	"scan-range-wide-loop \000"
 6449      2D72616E 
 6449      67652D77 
 6449      6964652D 
 6449      6C6F6F70 
 6450 0302 0000     		.space	2
 6451              	.LC43:
 6452 0304 0D0A2320 		.ascii	"\015\012# Scan-Range-Wide-Loop Starting\015\012\000"
 6452      5363616E 
 6452      2D52616E 
 6452      67652D57 
 6452      6964652D 
 6453              	.LC44:
 6454 0328 0D0A2320 		.ascii	"\015\012# Scan Range Wide Loop Complete\015\012\000"
 6454      5363616E 
 6454      2052616E 
 6454      67652057 
 6454      69646520 
 6455              	.LC45:
 6456 034c 636F6E6E 		.ascii	"connect \000"
 6456      65637420 
 6456      00
 6457 0355 000000   		.space	3
 6458              	.LC46:
 6459 0358 2320436F 		.ascii	"# Connected %u to %u\015\012\000"
 6459      6E6E6563 
 6459      74656420 
 6459      25752074 
 6459      6F202575 
 6460 036f 00       		.space	1
 6461              	.LC47:
 6462 0370 636F6E6E 		.ascii	"connect-c \000"
 6462      6563742D 
 6462      632000
 6463 037b 00       		.space	1
 6464              	.LC48:
 6465 037c 2320436F 		.ascii	"# Connected channel %u to %u\015\012\000"
 6465      6E6E6563 
 6465      74656420 
 6465      6368616E 
 6465      6E656C20 
 6466 039b 00       		.space	1
 6467              	.LC49:
 6468 039c 64697363 		.ascii	"disconnect \000"
 6468      6F6E6E65 
 6468      63742000 
 6469              	.LC50:
 6470 03a8 23204469 		.ascii	"# Disonnected %u from %u\015\012\000"
 6470      736F6E6E 
 6470      65637465 
 6470      64202575 
 6470      2066726F 
 6471 03c3 00       		.space	1
 6472              	.LC51:
 6473 03c4 64697363 		.ascii	"disconnect-all-from \000"
ARM GAS  C:\Users\FRANKL~1\AppData\Local\Temp\ccba5qpo.s 			page 150


 6473      6F6E6E65 
 6473      63742D61 
 6473      6C6C2D66 
 6473      726F6D20 
 6474 03d9 000000   		.space	3
 6475              	.LC52:
 6476 03dc 23204469 		.ascii	"# Disconnected all from  %u\015\012\000"
 6476      73636F6E 
 6476      6E656374 
 6476      65642061 
 6476      6C6C2066 
 6477 03fa 0000     		.space	2
 6478              	.LC53:
 6479 03fc 64697363 		.ascii	"disconnect-all-from-all \000"
 6479      6F6E6E65 
 6479      63742D61 
 6479      6C6C2D66 
 6479      726F6D2D 
 6480 0415 000000   		.space	3
 6481              	.LC54:
 6482 0418 23204469 		.ascii	"# Disconnected all from all\015\012\000"
 6482      73636F6E 
 6482      6E656374 
 6482      65642061 
 6482      6C6C2066 
 6483 0436 0000     		.space	2
 6484              	.LC55:
 6485 0438 64697363 		.ascii	"disconnect-from-all \000"
 6485      6F6E6E65 
 6485      63742D66 
 6485      726F6D2D 
 6485      616C6C20 
 6486 044d 000000   		.space	3
 6487              	.LC56:
 6488 0450 23204469 		.ascii	"# Disconnected %u from all\015\012\000"
 6488      73636F6E 
 6488      6E656374 
 6488      65642025 
 6488      75206672 
 6489 046d 000000   		.space	3
 6490              	.LC57:
 6491 0470 636F6E6E 		.ascii	"connect-intermediate \000"
 6491      6563742D 
 6491      696E7465 
 6491      726D6564 
 6491      69617465 
 6492 0486 0000     		.space	2
 6493              	.LC58:
 6494 0488 2320436F 		.ascii	"# Connected intermediate %u\015\012\000"
 6494      6E6E6563 
 6494      74656420 
 6494      696E7465 
 6494      726D6564 
 6495 04a6 0000     		.space	2
 6496              	.LC59:
 6497 04a8 636F6E6E 		.ascii	"connect-intermediates \000"
 6497      6563742D 
ARM GAS  C:\Users\FRANKL~1\AppData\Local\Temp\ccba5qpo.s 			page 151


 6497      696E7465 
 6497      726D6564 
 6497      69617465 
 6498 04bf 00       		.space	1
 6499              	.LC60:
 6500 04c0 2320436F 		.ascii	"# Connected intermediates\015\012\000"
 6500      6E6E6563 
 6500      74656420 
 6500      696E7465 
 6500      726D6564 
 6501              	.LC61:
 6502 04dc 5365745F 		.ascii	"Set_Current_Measurement_Sample_Count \000"
 6502      43757272 
 6502      656E745F 
 6502      4D656173 
 6502      7572656D 
 6503 0502 0000     		.space	2
 6504              	.LC62:
 6505 0504 23205365 		.ascii	"# Set Current Measurement Sample Count\015\012\000"
 6505      74204375 
 6505      7272656E 
 6505      74204D65 
 6505      61737572 
 6506 052d 000000   		.space	3
 6507              	.LC63:
 6508 0530 2120556E 		.ascii	"! Unidentified command: |%s|\015\012\000"
 6508      6964656E 
 6508      74696669 
 6508      65642063 
 6508      6F6D6D61 
 6509              		.bss
 6510              		.align	2
 6511              		.set	.LANCHOR0,. + 0
 6512              		.type	newData, %object
 6513              		.size	newData, 1
 6514              	newData:
 6515 0000 00       		.space	1
 6516              		.type	G_Stop, %object
 6517              		.size	G_Stop, 1
 6518              	G_Stop:
 6519 0001 00       		.space	1
 6520              		.type	G_Break, %object
 6521              		.size	G_Break, 1
 6522              	G_Break:
 6523 0002 00       		.space	1
 6524              		.type	G_Pause, %object
 6525              		.size	G_Pause, 1
 6526              	G_Pause:
 6527 0003 00       		.space	1
 6528              		.type	TIA_Offsets_uV, %object
 6529              		.size	TIA_Offsets_uV, 32
 6530              	TIA_Offsets_uV:
 6531 0004 00000000 		.space	32
 6531      00000000 
 6531      00000000 
 6531      00000000 
 6531      00000000 
ARM GAS  C:\Users\FRANKL~1\AppData\Local\Temp\ccba5qpo.s 			page 152


 6532              		.text
 6533              	.Letext0:
 6534              		.file 3 "c:\\program files (x86)\\cypress\\psoc creator\\4.1\\psoc creator\\import\\gnu\\arm\\5.4.
 6535              		.file 4 "c:\\program files (x86)\\cypress\\psoc creator\\4.1\\psoc creator\\import\\gnu\\arm\\5.4.
 6536              		.file 5 "Generated_Source\\PSoC5/cytypes.h"
 6537              		.file 6 "Generated_Source\\PSoC5/core_cm3.h"
 6538              		.file 7 "Generated_Source\\PSoC5/USBUART.h"
 6539              		.file 8 "Generated_Source\\PSoC5/USBUART_cdc.h"
 6540              		.file 9 "c:\\program files (x86)\\cypress\\psoc creator\\4.1\\psoc creator\\import\\gnu\\arm\\5.4.
 6541              		.file 10 "Generated_Source\\PSoC5/UART_1.h"
 6542              		.file 11 "Generated_Source\\PSoC5/CommunicationInterrupt.h"
 6543              		.file 12 "Generated_Source\\PSoC5/CommunicationTimer.h"
 6544              		.file 13 "Generated_Source\\PSoC5/I2C_1.h"
 6545              		.file 14 "c:\\program files (x86)\\cypress\\psoc creator\\4.1\\psoc creator\\import\\gnu\\arm\\5.4
 6546              		.file 15 "Generated_Source\\PSoC5/TIA_1.h"
 6547              		.file 16 "Generated_Source\\PSoC5/ADC_DelSig_1.h"
 6548              		.file 17 "Generated_Source\\PSoC5/ADC_SAR_1.h"
 6549              		.file 18 "Generated_Source\\PSoC5/ADC_SAR_2.h"
 6550              		.file 19 "Generated_Source\\PSoC5/VDAC_Vds.h"
 6551              		.file 20 "Generated_Source\\PSoC5/VDAC_Vgs.h"
 6552              		.file 21 "Generated_Source\\PSoC5/VDAC_Ref.h"
 6553              		.file 22 "c:\\program files (x86)\\cypress\\psoc creator\\4.1\\psoc creator\\import\\gnu\\arm\\5.4
 6554              		.file 23 "Generated_Source\\PSoC5/CyLib.h"
 6555              		.file 24 "<built-in>"
 6556              		.section	.debug_info,"",%progbits
 6557              	.Ldebug_info0:
 6558 0000 92380000 		.4byte	0x3892
 6559 0004 0400     		.2byte	0x4
 6560 0006 00000000 		.4byte	.Ldebug_abbrev0
 6561 000a 04       		.byte	0x4
 6562 000b 01       		.uleb128 0x1
 6563 000c 7E020000 		.4byte	.LASF247
 6564 0010 0C       		.byte	0xc
 6565 0011 BA060000 		.4byte	.LASF248
 6566 0015 D50B0000 		.4byte	.LASF249
 6567 0019 38010000 		.4byte	.Ldebug_ranges0+0x138
 6568 001d 00000000 		.4byte	0
 6569 0021 00000000 		.4byte	.Ldebug_line0
 6570 0025 02       		.uleb128 0x2
 6571 0026 04       		.byte	0x4
 6572 0027 04       		.byte	0x4
 6573 0028 540E0000 		.4byte	.LASF0
 6574 002c 02       		.uleb128 0x2
 6575 002d 08       		.byte	0x8
 6576 002e 04       		.byte	0x4
 6577 002f B3060000 		.4byte	.LASF1
 6578 0033 03       		.uleb128 0x3
 6579 0034 04       		.byte	0x4
 6580 0035 05       		.byte	0x5
 6581 0036 696E7400 		.ascii	"int\000"
 6582 003a 02       		.uleb128 0x2
 6583 003b 04       		.byte	0x4
 6584 003c 07       		.byte	0x7
 6585 003d A3070000 		.4byte	.LASF2
 6586 0041 02       		.uleb128 0x2
 6587 0042 08       		.byte	0x8
 6588 0043 05       		.byte	0x5
ARM GAS  C:\Users\FRANKL~1\AppData\Local\Temp\ccba5qpo.s 			page 153


 6589 0044 9A060000 		.4byte	.LASF3
 6590 0048 02       		.uleb128 0x2
 6591 0049 08       		.byte	0x8
 6592 004a 04       		.byte	0x4
 6593 004b 86090000 		.4byte	.LASF4
 6594 004f 02       		.uleb128 0x2
 6595 0050 01       		.byte	0x1
 6596 0051 06       		.byte	0x6
 6597 0052 53030000 		.4byte	.LASF5
 6598 0056 02       		.uleb128 0x2
 6599 0057 01       		.byte	0x1
 6600 0058 08       		.byte	0x8
 6601 0059 8A030000 		.4byte	.LASF6
 6602 005d 02       		.uleb128 0x2
 6603 005e 02       		.byte	0x2
 6604 005f 05       		.byte	0x5
 6605 0060 980C0000 		.4byte	.LASF7
 6606 0064 02       		.uleb128 0x2
 6607 0065 02       		.byte	0x2
 6608 0066 07       		.byte	0x7
 6609 0067 66020000 		.4byte	.LASF8
 6610 006b 04       		.uleb128 0x4
 6611 006c 7C0E0000 		.4byte	.LASF14
 6612 0070 03       		.byte	0x3
 6613 0071 3F       		.byte	0x3f
 6614 0072 76000000 		.4byte	0x76
 6615 0076 02       		.uleb128 0x2
 6616 0077 04       		.byte	0x4
 6617 0078 05       		.byte	0x5
 6618 0079 0E020000 		.4byte	.LASF9
 6619 007d 02       		.uleb128 0x2
 6620 007e 04       		.byte	0x4
 6621 007f 07       		.byte	0x7
 6622 0080 7F050000 		.4byte	.LASF10
 6623 0084 02       		.uleb128 0x2
 6624 0085 08       		.byte	0x8
 6625 0086 07       		.byte	0x7
 6626 0087 680A0000 		.4byte	.LASF11
 6627 008b 02       		.uleb128 0x2
 6628 008c 04       		.byte	0x4
 6629 008d 07       		.byte	0x7
 6630 008e 0D000000 		.4byte	.LASF12
 6631 0092 05       		.uleb128 0x5
 6632 0093 04       		.byte	0x4
 6633 0094 98000000 		.4byte	0x98
 6634 0098 02       		.uleb128 0x2
 6635 0099 01       		.byte	0x1
 6636 009a 08       		.byte	0x8
 6637 009b F0030000 		.4byte	.LASF13
 6638 009f 05       		.uleb128 0x5
 6639 00a0 04       		.byte	0x4
 6640 00a1 A5000000 		.4byte	0xa5
 6641 00a5 06       		.uleb128 0x6
 6642 00a6 98000000 		.4byte	0x98
 6643 00aa 04       		.uleb128 0x4
 6644 00ab 58000000 		.4byte	.LASF15
 6645 00af 04       		.byte	0x4
ARM GAS  C:\Users\FRANKL~1\AppData\Local\Temp\ccba5qpo.s 			page 154


 6646 00b0 2C       		.byte	0x2c
 6647 00b1 6B000000 		.4byte	0x6b
 6648 00b5 07       		.uleb128 0x7
 6649 00b6 4E0C0000 		.4byte	.LASF16
 6650 00ba 05       		.byte	0x5
 6651 00bb 9201     		.2byte	0x192
 6652 00bd 56000000 		.4byte	0x56
 6653 00c1 07       		.uleb128 0x7
 6654 00c2 E60E0000 		.4byte	.LASF17
 6655 00c6 05       		.byte	0x5
 6656 00c7 9301     		.2byte	0x193
 6657 00c9 64000000 		.4byte	0x64
 6658 00cd 07       		.uleb128 0x7
 6659 00ce 75000000 		.4byte	.LASF18
 6660 00d2 05       		.byte	0x5
 6661 00d3 9401     		.2byte	0x194
 6662 00d5 7D000000 		.4byte	0x7d
 6663 00d9 07       		.uleb128 0x7
 6664 00da 45010000 		.4byte	.LASF19
 6665 00de 05       		.byte	0x5
 6666 00df 9501     		.2byte	0x195
 6667 00e1 4F000000 		.4byte	0x4f
 6668 00e5 07       		.uleb128 0x7
 6669 00e6 A80D0000 		.4byte	.LASF20
 6670 00ea 05       		.byte	0x5
 6671 00eb 9601     		.2byte	0x196
 6672 00ed 5D000000 		.4byte	0x5d
 6673 00f1 07       		.uleb128 0x7
 6674 00f2 760E0000 		.4byte	.LASF21
 6675 00f6 05       		.byte	0x5
 6676 00f7 9701     		.2byte	0x197
 6677 00f9 76000000 		.4byte	0x76
 6678 00fd 07       		.uleb128 0x7
 6679 00fe D80A0000 		.4byte	.LASF22
 6680 0102 05       		.byte	0x5
 6681 0103 3C02     		.2byte	0x23c
 6682 0105 09010000 		.4byte	0x109
 6683 0109 08       		.uleb128 0x8
 6684 010a B5000000 		.4byte	0xb5
 6685 010e 09       		.uleb128 0x9
 6686 010f B5000000 		.4byte	0xb5
 6687 0113 1E010000 		.4byte	0x11e
 6688 0117 0A       		.uleb128 0xa
 6689 0118 8B000000 		.4byte	0x8b
 6690 011c 07       		.byte	0x7
 6691 011d 00       		.byte	0
 6692 011e 0B       		.uleb128 0xb
 6693 011f 7F       		.byte	0x7f
 6694 0120 02       		.byte	0x2
 6695 0121 08       		.byte	0x8
 6696 0122 3F010000 		.4byte	0x13f
 6697 0126 0C       		.uleb128 0xc
 6698 0127 A8060000 		.4byte	.LASF23
 6699 012b 02       		.byte	0x2
 6700 012c 09       		.byte	0x9
 6701 012d B5000000 		.4byte	0xb5
 6702 0131 00       		.byte	0
ARM GAS  C:\Users\FRANKL~1\AppData\Local\Temp\ccba5qpo.s 			page 155


 6703 0132 0C       		.uleb128 0xc
 6704 0133 BF0E0000 		.4byte	.LASF24
 6705 0137 02       		.byte	0x2
 6706 0138 0A       		.byte	0xa
 6707 0139 3F010000 		.4byte	0x13f
 6708 013d 01       		.byte	0x1
 6709 013e 00       		.byte	0
 6710 013f 09       		.uleb128 0x9
 6711 0140 B5000000 		.4byte	0xb5
 6712 0144 4F010000 		.4byte	0x14f
 6713 0148 0A       		.uleb128 0xa
 6714 0149 8B000000 		.4byte	0x8b
 6715 014d 7D       		.byte	0x7d
 6716 014e 00       		.byte	0
 6717 014f 0B       		.uleb128 0xb
 6718 0150 7F       		.byte	0x7f
 6719 0151 02       		.byte	0x2
 6720 0152 0C       		.byte	0xc
 6721 0153 70010000 		.4byte	0x170
 6722 0157 0C       		.uleb128 0xc
 6723 0158 A8060000 		.4byte	.LASF23
 6724 015c 02       		.byte	0x2
 6725 015d 0D       		.byte	0xd
 6726 015e B5000000 		.4byte	0xb5
 6727 0162 00       		.byte	0
 6728 0163 0C       		.uleb128 0xc
 6729 0164 BF0E0000 		.4byte	.LASF24
 6730 0168 02       		.byte	0x2
 6731 0169 0E       		.byte	0xe
 6732 016a 3F010000 		.4byte	0x13f
 6733 016e 01       		.byte	0x1
 6734 016f 00       		.byte	0
 6735 0170 0D       		.uleb128 0xd
 6736 0171 5F030000 		.4byte	.LASF250
 6737 0175 FF       		.byte	0xff
 6738 0176 02       		.byte	0x2
 6739 0177 07       		.byte	0x7
 6740 0178 A1010000 		.4byte	0x1a1
 6741 017c 0C       		.uleb128 0xc
 6742 017d 7C000000 		.4byte	.LASF25
 6743 0181 02       		.byte	0x2
 6744 0182 0B       		.byte	0xb
 6745 0183 1E010000 		.4byte	0x11e
 6746 0187 00       		.byte	0
 6747 0188 0C       		.uleb128 0xc
 6748 0189 75070000 		.4byte	.LASF26
 6749 018d 02       		.byte	0x2
 6750 018e 0F       		.byte	0xf
 6751 018f 4F010000 		.4byte	0x14f
 6752 0193 7F       		.byte	0x7f
 6753 0194 0C       		.uleb128 0xc
 6754 0195 2E0D0000 		.4byte	.LASF27
 6755 0199 02       		.byte	0x2
 6756 019a 10       		.byte	0x10
 6757 019b B5000000 		.4byte	0xb5
 6758 019f FE       		.byte	0xfe
 6759 01a0 00       		.byte	0
ARM GAS  C:\Users\FRANKL~1\AppData\Local\Temp\ccba5qpo.s 			page 156


 6760 01a1 0E       		.uleb128 0xe
 6761 01a2 60000000 		.4byte	.LASF251
 6762 01a6 01       		.byte	0x1
 6763 01a7 56000000 		.4byte	0x56
 6764 01ab 02       		.byte	0x2
 6765 01ac 2B       		.byte	0x2b
 6766 01ad E2010000 		.4byte	0x1e2
 6767 01b1 0F       		.uleb128 0xf
 6768 01b2 4A020000 		.4byte	.LASF28
 6769 01b6 00       		.byte	0
 6770 01b7 0F       		.uleb128 0xf
 6771 01b8 E7040000 		.4byte	.LASF29
 6772 01bc 01       		.byte	0x1
 6773 01bd 0F       		.uleb128 0xf
 6774 01be 01080000 		.4byte	.LASF30
 6775 01c2 02       		.byte	0x2
 6776 01c3 0F       		.uleb128 0xf
 6777 01c4 20050000 		.4byte	.LASF31
 6778 01c8 03       		.byte	0x3
 6779 01c9 0F       		.uleb128 0xf
 6780 01ca 43040000 		.4byte	.LASF32
 6781 01ce 04       		.byte	0x4
 6782 01cf 0F       		.uleb128 0xf
 6783 01d0 63050000 		.4byte	.LASF33
 6784 01d4 05       		.byte	0x5
 6785 01d5 0F       		.uleb128 0xf
 6786 01d6 370E0000 		.4byte	.LASF34
 6787 01da 06       		.byte	0x6
 6788 01db 0F       		.uleb128 0xf
 6789 01dc 1C030000 		.4byte	.LASF35
 6790 01e0 07       		.byte	0x7
 6791 01e1 00       		.byte	0
 6792 01e2 10       		.uleb128 0x10
 6793 01e3 E1070000 		.4byte	.LASF54
 6794 01e7 01       		.byte	0x1
 6795 01e8 10       		.byte	0x10
 6796 01e9 00000000 		.4byte	.LFB64
 6797 01ed 18000000 		.4byte	.LFE64-.LFB64
 6798 01f1 01       		.uleb128 0x1
 6799 01f2 9C       		.byte	0x9c
 6800 01f3 2B020000 		.4byte	0x22b
 6801 01f7 11       		.uleb128 0x11
 6802 01f8 52000000 		.4byte	.LASF38
 6803 01fc 01       		.byte	0x1
 6804 01fd 11       		.byte	0x11
 6805 01fe 7D000000 		.4byte	0x7d
 6806 0202 00000000 		.4byte	.LLST0
 6807 0206 12       		.uleb128 0x12
 6808 0207 06000000 		.4byte	.LVL1
 6809 020b 52360000 		.4byte	0x3652
 6810 020f 12       		.uleb128 0x12
 6811 0210 0C000000 		.4byte	.LVL2
 6812 0214 5E360000 		.4byte	0x365e
 6813 0218 12       		.uleb128 0x12
 6814 0219 12000000 		.4byte	.LVL3
 6815 021d 6A360000 		.4byte	0x366a
 6816 0221 12       		.uleb128 0x12
ARM GAS  C:\Users\FRANKL~1\AppData\Local\Temp\ccba5qpo.s 			page 157


 6817 0222 16000000 		.4byte	.LVL4
 6818 0226 5E360000 		.4byte	0x365e
 6819 022a 00       		.byte	0
 6820 022b 13       		.uleb128 0x13
 6821 022c E6060000 		.4byte	.LASF36
 6822 0230 01       		.byte	0x1
 6823 0231 22       		.byte	0x22
 6824 0232 B5000000 		.4byte	0xb5
 6825 0236 00000000 		.4byte	.LFB65
 6826 023a 1E000000 		.4byte	.LFE65-.LFB65
 6827 023e 01       		.uleb128 0x1
 6828 023f 9C       		.byte	0x9c
 6829 0240 60020000 		.4byte	0x260
 6830 0244 12       		.uleb128 0x12
 6831 0245 06000000 		.4byte	.LVL5
 6832 0249 E2010000 		.4byte	0x1e2
 6833 024d 12       		.uleb128 0x12
 6834 024e 0A000000 		.4byte	.LVL6
 6835 0252 5E360000 		.4byte	0x365e
 6836 0256 12       		.uleb128 0x12
 6837 0257 10000000 		.4byte	.LVL7
 6838 025b 75360000 		.4byte	0x3675
 6839 025f 00       		.byte	0
 6840 0260 14       		.uleb128 0x14
 6841 0261 820B0000 		.4byte	.LASF37
 6842 0265 02       		.byte	0x2
 6843 0266 6203     		.2byte	0x362
 6844 0268 00000000 		.4byte	.LFB112
 6845 026c B0010000 		.4byte	.LFE112-.LFB112
 6846 0270 01       		.uleb128 0x1
 6847 0271 9C       		.byte	0x9c
 6848 0272 C1030000 		.4byte	0x3c1
 6849 0276 15       		.uleb128 0x15
 6850 0277 0C000000 		.4byte	.LBB2
 6851 027b 70000000 		.4byte	.LBE2-.LBB2
 6852 027f E8020000 		.4byte	0x2e8
 6853 0283 16       		.uleb128 0x16
 6854 0284 DB040000 		.4byte	.LASF39
 6855 0288 02       		.byte	0x2
 6856 0289 6603     		.2byte	0x366
 6857 028b C1030000 		.4byte	0x3c1
 6858 028f 03       		.uleb128 0x3
 6859 0290 91       		.byte	0x91
 6860 0291 B07F     		.sleb128 -80
 6861 0293 17       		.uleb128 0x17
 6862 0294 F50A0000 		.4byte	.LASF40
 6863 0298 02       		.byte	0x2
 6864 0299 6703     		.2byte	0x367
 6865 029b B5000000 		.4byte	0xb5
 6866 029f 20000000 		.4byte	.LLST1
 6867 02a3 15       		.uleb128 0x15
 6868 02a4 14000000 		.4byte	.LBB3
 6869 02a8 68000000 		.4byte	.LBE3-.LBB3
 6870 02ac D7020000 		.4byte	0x2d7
 6871 02b0 18       		.uleb128 0x18
 6872 02b1 6900     		.ascii	"i\000"
 6873 02b3 02       		.byte	0x2
ARM GAS  C:\Users\FRANKL~1\AppData\Local\Temp\ccba5qpo.s 			page 158


 6874 02b4 6903     		.2byte	0x369
 6875 02b6 B5000000 		.4byte	0xb5
 6876 02ba 33000000 		.4byte	.LLST2
 6877 02be 19       		.uleb128 0x19
 6878 02bf 18000000 		.4byte	.LBB4
 6879 02c3 5A000000 		.4byte	.LBE4-.LBB4
 6880 02c7 18       		.uleb128 0x18
 6881 02c8 6300     		.ascii	"c\000"
 6882 02ca 02       		.byte	0x2
 6883 02cb 6A03     		.2byte	0x36a
 6884 02cd 98000000 		.4byte	0x98
 6885 02d1 5D000000 		.4byte	.LLST3
 6886 02d5 00       		.byte	0
 6887 02d6 00       		.byte	0
 6888 02d7 1A       		.uleb128 0x1a
 6889 02d8 12000000 		.4byte	.LVL9
 6890 02dc 80360000 		.4byte	0x3680
 6891 02e0 1B       		.uleb128 0x1b
 6892 02e1 01       		.uleb128 0x1
 6893 02e2 50       		.byte	0x50
 6894 02e3 02       		.uleb128 0x2
 6895 02e4 7D       		.byte	0x7d
 6896 02e5 00       		.sleb128 0
 6897 02e6 00       		.byte	0
 6898 02e7 00       		.byte	0
 6899 02e8 15       		.uleb128 0x15
 6900 02e9 FC000000 		.4byte	.LBB5
 6901 02ed 80000000 		.4byte	.LBE5-.LBB5
 6902 02f1 93030000 		.4byte	0x393
 6903 02f5 17       		.uleb128 0x17
 6904 02f6 A1090000 		.4byte	.LASF41
 6905 02fa 02       		.byte	0x2
 6906 02fb 8B03     		.2byte	0x38b
 6907 02fd 92000000 		.4byte	0x92
 6908 0301 B1000000 		.4byte	.LLST4
 6909 0305 1C       		.uleb128 0x1c
 6910 0306 14010000 		.4byte	.LVL23
 6911 030a 8B360000 		.4byte	0x368b
 6912 030e 22030000 		.4byte	0x322
 6913 0312 1B       		.uleb128 0x1b
 6914 0313 01       		.uleb128 0x1
 6915 0314 50       		.byte	0x50
 6916 0315 02       		.uleb128 0x2
 6917 0316 74       		.byte	0x74
 6918 0317 00       		.sleb128 0
 6919 0318 1B       		.uleb128 0x1b
 6920 0319 01       		.uleb128 0x1
 6921 031a 51       		.byte	0x51
 6922 031b 05       		.uleb128 0x5
 6923 031c 03       		.byte	0x3
 6924 031d 00000000 		.4byte	.LC0
 6925 0321 00       		.byte	0
 6926 0322 1C       		.uleb128 0x1c
 6927 0323 2C010000 		.4byte	.LVL24
 6928 0327 8B360000 		.4byte	0x368b
 6929 032b 3F030000 		.4byte	0x33f
 6930 032f 1B       		.uleb128 0x1b
ARM GAS  C:\Users\FRANKL~1\AppData\Local\Temp\ccba5qpo.s 			page 159


 6931 0330 01       		.uleb128 0x1
 6932 0331 50       		.byte	0x50
 6933 0332 02       		.uleb128 0x2
 6934 0333 74       		.byte	0x74
 6935 0334 00       		.sleb128 0
 6936 0335 1B       		.uleb128 0x1b
 6937 0336 01       		.uleb128 0x1
 6938 0337 51       		.byte	0x51
 6939 0338 05       		.uleb128 0x5
 6940 0339 03       		.byte	0x3
 6941 033a 08000000 		.4byte	.LC1
 6942 033e 00       		.byte	0
 6943 033f 1C       		.uleb128 0x1c
 6944 0340 44010000 		.4byte	.LVL25
 6945 0344 8B360000 		.4byte	0x368b
 6946 0348 5C030000 		.4byte	0x35c
 6947 034c 1B       		.uleb128 0x1b
 6948 034d 01       		.uleb128 0x1
 6949 034e 50       		.byte	0x50
 6950 034f 02       		.uleb128 0x2
 6951 0350 74       		.byte	0x74
 6952 0351 00       		.sleb128 0
 6953 0352 1B       		.uleb128 0x1b
 6954 0353 01       		.uleb128 0x1
 6955 0354 51       		.byte	0x51
 6956 0355 05       		.uleb128 0x5
 6957 0356 03       		.byte	0x3
 6958 0357 10000000 		.4byte	.LC2
 6959 035b 00       		.byte	0
 6960 035c 1C       		.uleb128 0x1c
 6961 035d 5C010000 		.4byte	.LVL26
 6962 0361 8B360000 		.4byte	0x368b
 6963 0365 79030000 		.4byte	0x379
 6964 0369 1B       		.uleb128 0x1b
 6965 036a 01       		.uleb128 0x1
 6966 036b 50       		.byte	0x50
 6967 036c 02       		.uleb128 0x2
 6968 036d 74       		.byte	0x74
 6969 036e 00       		.sleb128 0
 6970 036f 1B       		.uleb128 0x1b
 6971 0370 01       		.uleb128 0x1
 6972 0371 51       		.byte	0x51
 6973 0372 05       		.uleb128 0x5
 6974 0373 03       		.byte	0x3
 6975 0374 18000000 		.4byte	.LC3
 6976 0378 00       		.byte	0
 6977 0379 1A       		.uleb128 0x1a
 6978 037a 72010000 		.4byte	.LVL27
 6979 037e 8B360000 		.4byte	0x368b
 6980 0382 1B       		.uleb128 0x1b
 6981 0383 01       		.uleb128 0x1
 6982 0384 50       		.byte	0x50
 6983 0385 02       		.uleb128 0x2
 6984 0386 74       		.byte	0x74
 6985 0387 00       		.sleb128 0
 6986 0388 1B       		.uleb128 0x1b
 6987 0389 01       		.uleb128 0x1
ARM GAS  C:\Users\FRANKL~1\AppData\Local\Temp\ccba5qpo.s 			page 160


 6988 038a 51       		.byte	0x51
 6989 038b 05       		.uleb128 0x5
 6990 038c 03       		.byte	0x3
 6991 038d 20000000 		.4byte	.LC4
 6992 0391 00       		.byte	0
 6993 0392 00       		.byte	0
 6994 0393 12       		.uleb128 0x12
 6995 0394 08000000 		.4byte	.LVL8
 6996 0398 2B020000 		.4byte	0x22b
 6997 039c 12       		.uleb128 0x12
 6998 039d 80000000 		.4byte	.LVL19
 6999 03a1 96360000 		.4byte	0x3696
 7000 03a5 12       		.uleb128 0x12
 7001 03a6 8E000000 		.4byte	.LVL20
 7002 03aa A1360000 		.4byte	0x36a1
 7003 03ae 12       		.uleb128 0x12
 7004 03af 80010000 		.4byte	.LVL29
 7005 03b3 AC360000 		.4byte	0x36ac
 7006 03b7 12       		.uleb128 0x12
 7007 03b8 84010000 		.4byte	.LVL30
 7008 03bc B7360000 		.4byte	0x36b7
 7009 03c0 00       		.byte	0
 7010 03c1 09       		.uleb128 0x9
 7011 03c2 98000000 		.4byte	0x98
 7012 03c6 D1030000 		.4byte	0x3d1
 7013 03ca 0A       		.uleb128 0xa
 7014 03cb 8B000000 		.4byte	0x8b
 7015 03cf 3F       		.byte	0x3f
 7016 03d0 00       		.byte	0
 7017 03d1 1D       		.uleb128 0x1d
 7018 03d2 D3000000 		.4byte	.LASF44
 7019 03d6 01       		.byte	0x1
 7020 03d7 29       		.byte	0x29
 7021 03d8 B5000000 		.4byte	0xb5
 7022 03dc 00000000 		.4byte	.LFB66
 7023 03e0 50000000 		.4byte	.LFE66-.LFB66
 7024 03e4 01       		.uleb128 0x1
 7025 03e5 9C       		.byte	0x9c
 7026 03e6 74040000 		.4byte	0x474
 7027 03ea 1E       		.uleb128 0x1e
 7028 03eb C3040000 		.4byte	.LASF42
 7029 03ef 01       		.byte	0x1
 7030 03f0 29       		.byte	0x29
 7031 03f1 92000000 		.4byte	0x92
 7032 03f5 D4000000 		.4byte	.LLST5
 7033 03f9 1E       		.uleb128 0x1e
 7034 03fa 6F070000 		.4byte	.LASF43
 7035 03fe 01       		.byte	0x1
 7036 03ff 29       		.byte	0x29
 7037 0400 C1000000 		.4byte	0xc1
 7038 0404 16010000 		.4byte	.LLST6
 7039 0408 1F       		.uleb128 0x1f
 7040 0409 00000000 		.4byte	.Ldebug_ranges0+0
 7041 040d 33040000 		.4byte	0x433
 7042 0411 11       		.uleb128 0x11
 7043 0412 52000000 		.4byte	.LASF38
 7044 0416 01       		.byte	0x1
ARM GAS  C:\Users\FRANKL~1\AppData\Local\Temp\ccba5qpo.s 			page 161


 7045 0417 2C       		.byte	0x2c
 7046 0418 CD000000 		.4byte	0xcd
 7047 041c 50010000 		.4byte	.LLST7
 7048 0420 12       		.uleb128 0x12
 7049 0421 0C000000 		.4byte	.LVL34
 7050 0425 E2010000 		.4byte	0x1e2
 7051 0429 12       		.uleb128 0x12
 7052 042a 10000000 		.4byte	.LVL35
 7053 042e C2360000 		.4byte	0x36c2
 7054 0432 00       		.byte	0
 7055 0433 12       		.uleb128 0x12
 7056 0434 26000000 		.4byte	.LVL39
 7057 0438 C2360000 		.4byte	0x36c2
 7058 043c 1C       		.uleb128 0x1c
 7059 043d 32000000 		.4byte	.LVL40
 7060 0441 CD360000 		.4byte	0x36cd
 7061 0445 56040000 		.4byte	0x456
 7062 0449 1B       		.uleb128 0x1b
 7063 044a 01       		.uleb128 0x1
 7064 044b 50       		.byte	0x50
 7065 044c 02       		.uleb128 0x2
 7066 044d 76       		.byte	0x76
 7067 044e 00       		.sleb128 0
 7068 044f 1B       		.uleb128 0x1b
 7069 0450 01       		.uleb128 0x1
 7070 0451 51       		.byte	0x51
 7071 0452 02       		.uleb128 0x2
 7072 0453 75       		.byte	0x75
 7073 0454 00       		.sleb128 0
 7074 0455 00       		.byte	0
 7075 0456 12       		.uleb128 0x12
 7076 0457 3A000000 		.4byte	.LVL41
 7077 045b C2360000 		.4byte	0x36c2
 7078 045f 1A       		.uleb128 0x1a
 7079 0460 46000000 		.4byte	.LVL42
 7080 0464 CD360000 		.4byte	0x36cd
 7081 0468 1B       		.uleb128 0x1b
 7082 0469 01       		.uleb128 0x1
 7083 046a 50       		.byte	0x50
 7084 046b 01       		.uleb128 0x1
 7085 046c 30       		.byte	0x30
 7086 046d 1B       		.uleb128 0x1b
 7087 046e 01       		.uleb128 0x1
 7088 046f 51       		.byte	0x51
 7089 0470 01       		.uleb128 0x1
 7090 0471 30       		.byte	0x30
 7091 0472 00       		.byte	0
 7092 0473 00       		.byte	0
 7093 0474 1D       		.uleb128 0x1d
 7094 0475 870C0000 		.4byte	.LASF45
 7095 0479 01       		.byte	0x1
 7096 047a 47       		.byte	0x47
 7097 047b B5000000 		.4byte	0xb5
 7098 047f 00000000 		.4byte	.LFB67
 7099 0483 24000000 		.4byte	.LFE67-.LFB67
 7100 0487 01       		.uleb128 0x1
 7101 0488 9C       		.byte	0x9c
ARM GAS  C:\Users\FRANKL~1\AppData\Local\Temp\ccba5qpo.s 			page 162


 7102 0489 CE040000 		.4byte	0x4ce
 7103 048d 1E       		.uleb128 0x1e
 7104 048e C3040000 		.4byte	.LASF42
 7105 0492 01       		.byte	0x1
 7106 0493 47       		.byte	0x47
 7107 0494 92000000 		.4byte	0x92
 7108 0498 6E010000 		.4byte	.LLST8
 7109 049c 1E       		.uleb128 0x1e
 7110 049d 6F070000 		.4byte	.LASF43
 7111 04a1 01       		.byte	0x1
 7112 04a2 47       		.byte	0x47
 7113 04a3 CE040000 		.4byte	0x4ce
 7114 04a7 8C010000 		.4byte	.LLST9
 7115 04ab 12       		.uleb128 0x12
 7116 04ac 0C000000 		.4byte	.LVL45
 7117 04b0 E2010000 		.4byte	0x1e2
 7118 04b4 12       		.uleb128 0x12
 7119 04b5 10000000 		.4byte	.LVL46
 7120 04b9 75360000 		.4byte	0x3675
 7121 04bd 1A       		.uleb128 0x1a
 7122 04be 1A000000 		.4byte	.LVL47
 7123 04c2 80360000 		.4byte	0x3680
 7124 04c6 1B       		.uleb128 0x1b
 7125 04c7 01       		.uleb128 0x1
 7126 04c8 50       		.byte	0x50
 7127 04c9 02       		.uleb128 0x2
 7128 04ca 74       		.byte	0x74
 7129 04cb 00       		.sleb128 0
 7130 04cc 00       		.byte	0
 7131 04cd 00       		.byte	0
 7132 04ce 05       		.uleb128 0x5
 7133 04cf 04       		.byte	0x4
 7134 04d0 C1000000 		.4byte	0xc1
 7135 04d4 13       		.uleb128 0x13
 7136 04d5 B9030000 		.4byte	.LASF46
 7137 04d9 01       		.byte	0x1
 7138 04da 53       		.byte	0x53
 7139 04db 98000000 		.4byte	0x98
 7140 04df 00000000 		.4byte	.LFB68
 7141 04e3 16000000 		.4byte	.LFE68-.LFB68
 7142 04e7 01       		.uleb128 0x1
 7143 04e8 9C       		.byte	0x9c
 7144 04e9 09050000 		.4byte	0x509
 7145 04ed 12       		.uleb128 0x12
 7146 04ee 08000000 		.4byte	.LVL48
 7147 04f2 E2010000 		.4byte	0x1e2
 7148 04f6 12       		.uleb128 0x12
 7149 04f7 0C000000 		.4byte	.LVL49
 7150 04fb 75360000 		.4byte	0x3675
 7151 04ff 12       		.uleb128 0x12
 7152 0500 14000000 		.4byte	.LVL50
 7153 0504 D8360000 		.4byte	0x36d8
 7154 0508 00       		.byte	0
 7155 0509 1D       		.uleb128 0x1d
 7156 050a C6080000 		.4byte	.LASF47
 7157 050e 01       		.byte	0x1
 7158 050f 59       		.byte	0x59
ARM GAS  C:\Users\FRANKL~1\AppData\Local\Temp\ccba5qpo.s 			page 163


 7159 0510 B5000000 		.4byte	0xb5
 7160 0514 00000000 		.4byte	.LFB69
 7161 0518 58000000 		.4byte	.LFE69-.LFB69
 7162 051c 01       		.uleb128 0x1
 7163 051d 9C       		.byte	0x9c
 7164 051e B5050000 		.4byte	0x5b5
 7165 0522 1E       		.uleb128 0x1e
 7166 0523 C3040000 		.4byte	.LASF42
 7167 0527 01       		.byte	0x1
 7168 0528 59       		.byte	0x59
 7169 0529 92000000 		.4byte	0x92
 7170 052d AA010000 		.4byte	.LLST10
 7171 0531 1E       		.uleb128 0x1e
 7172 0532 4A050000 		.4byte	.LASF48
 7173 0536 01       		.byte	0x1
 7174 0537 59       		.byte	0x59
 7175 0538 C1000000 		.4byte	0xc1
 7176 053c C8010000 		.4byte	.LLST11
 7177 0540 1E       		.uleb128 0x1e
 7178 0541 FB060000 		.4byte	.LASF49
 7179 0545 01       		.byte	0x1
 7180 0546 59       		.byte	0x59
 7181 0547 9F000000 		.4byte	0x9f
 7182 054b E9010000 		.4byte	.LLST12
 7183 054f 15       		.uleb128 0x15
 7184 0550 0A000000 		.4byte	.LBB8
 7185 0554 14000000 		.4byte	.LBE8-.LBB8
 7186 0558 6A050000 		.4byte	0x56a
 7187 055c 20       		.uleb128 0x20
 7188 055d 6900     		.ascii	"i\000"
 7189 055f 01       		.byte	0x1
 7190 0560 5A       		.byte	0x5a
 7191 0561 C1000000 		.4byte	0xc1
 7192 0565 07020000 		.4byte	.LLST13
 7193 0569 00       		.byte	0
 7194 056a 19       		.uleb128 0x19
 7195 056b 1E000000 		.4byte	.LBB9
 7196 056f 34000000 		.4byte	.LBE9-.LBB9
 7197 0573 20       		.uleb128 0x20
 7198 0574 6900     		.ascii	"i\000"
 7199 0576 01       		.byte	0x1
 7200 0577 5E       		.byte	0x5e
 7201 0578 C1000000 		.4byte	0xc1
 7202 057c 31020000 		.4byte	.LLST14
 7203 0580 12       		.uleb128 0x12
 7204 0581 22000000 		.4byte	.LVL57
 7205 0585 D4040000 		.4byte	0x4d4
 7206 0589 1C       		.uleb128 0x1c
 7207 058a 32000000 		.4byte	.LVL58
 7208 058e 8B360000 		.4byte	0x368b
 7209 0592 A3050000 		.4byte	0x5a3
 7210 0596 1B       		.uleb128 0x1b
 7211 0597 01       		.uleb128 0x1
 7212 0598 50       		.byte	0x50
 7213 0599 02       		.uleb128 0x2
 7214 059a 75       		.byte	0x75
 7215 059b 00       		.sleb128 0
ARM GAS  C:\Users\FRANKL~1\AppData\Local\Temp\ccba5qpo.s 			page 164


 7216 059c 1B       		.uleb128 0x1b
 7217 059d 01       		.uleb128 0x1
 7218 059e 51       		.byte	0x51
 7219 059f 02       		.uleb128 0x2
 7220 05a0 77       		.byte	0x77
 7221 05a1 00       		.sleb128 0
 7222 05a2 00       		.byte	0
 7223 05a3 1A       		.uleb128 0x1a
 7224 05a4 3A000000 		.4byte	.LVL59
 7225 05a8 E3360000 		.4byte	0x36e3
 7226 05ac 1B       		.uleb128 0x1b
 7227 05ad 01       		.uleb128 0x1
 7228 05ae 50       		.byte	0x50
 7229 05af 02       		.uleb128 0x2
 7230 05b0 77       		.byte	0x77
 7231 05b1 00       		.sleb128 0
 7232 05b2 00       		.byte	0
 7233 05b3 00       		.byte	0
 7234 05b4 00       		.byte	0
 7235 05b5 21       		.uleb128 0x21
 7236 05b6 39030000 		.4byte	.LASF50
 7237 05ba 02       		.byte	0x2
 7238 05bb 38       		.byte	0x38
 7239 05bc 00000000 		.4byte	.LFB70
 7240 05c0 32000000 		.4byte	.LFE70-.LFB70
 7241 05c4 01       		.uleb128 0x1
 7242 05c5 9C       		.byte	0x9c
 7243 05c6 0A060000 		.4byte	0x60a
 7244 05ca 22       		.uleb128 0x22
 7245 05cb 860E0000 		.4byte	.LASF51
 7246 05cf 02       		.byte	0x2
 7247 05d0 38       		.byte	0x38
 7248 05d1 0A060000 		.4byte	0x60a
 7249 05d5 01       		.uleb128 0x1
 7250 05d6 50       		.byte	0x50
 7251 05d7 15       		.uleb128 0x15
 7252 05d8 0A000000 		.4byte	.LBB10
 7253 05dc 16000000 		.4byte	.LBE10-.LBB10
 7254 05e0 F2050000 		.4byte	0x5f2
 7255 05e4 20       		.uleb128 0x20
 7256 05e5 6900     		.ascii	"i\000"
 7257 05e7 02       		.byte	0x2
 7258 05e8 3C       		.byte	0x3c
 7259 05e9 C1000000 		.4byte	0xc1
 7260 05ed 4F020000 		.4byte	.LLST15
 7261 05f1 00       		.byte	0
 7262 05f2 19       		.uleb128 0x19
 7263 05f3 20000000 		.4byte	.LBB11
 7264 05f7 10000000 		.4byte	.LBE11-.LBB11
 7265 05fb 20       		.uleb128 0x20
 7266 05fc 6900     		.ascii	"i\000"
 7267 05fe 02       		.byte	0x2
 7268 05ff 3F       		.byte	0x3f
 7269 0600 C1000000 		.4byte	0xc1
 7270 0604 79020000 		.4byte	.LLST16
 7271 0608 00       		.byte	0
 7272 0609 00       		.byte	0
ARM GAS  C:\Users\FRANKL~1\AppData\Local\Temp\ccba5qpo.s 			page 165


 7273 060a 05       		.uleb128 0x5
 7274 060b 04       		.byte	0x4
 7275 060c 70010000 		.4byte	0x170
 7276 0610 23       		.uleb128 0x23
 7277 0611 AD0B0000 		.4byte	.LASF52
 7278 0615 02       		.byte	0x2
 7279 0616 44       		.byte	0x44
 7280 0617 00000000 		.4byte	.LFB71
 7281 061b 90010000 		.4byte	.LFE71-.LFB71
 7282 061f 01       		.uleb128 0x1
 7283 0620 9C       		.byte	0x9c
 7284 0621 5E080000 		.4byte	0x85e
 7285 0625 1E       		.uleb128 0x1e
 7286 0626 3C070000 		.4byte	.LASF53
 7287 062a 02       		.byte	0x2
 7288 062b 44       		.byte	0x44
 7289 062c B5000000 		.4byte	0xb5
 7290 0630 97020000 		.4byte	.LLST17
 7291 0634 11       		.uleb128 0x11
 7292 0635 860E0000 		.4byte	.LASF51
 7293 0639 02       		.byte	0x2
 7294 063a 49       		.byte	0x49
 7295 063b 0A060000 		.4byte	0x60a
 7296 063f B8020000 		.4byte	.LLST18
 7297 0643 15       		.uleb128 0x15
 7298 0644 44000000 		.4byte	.LBB12
 7299 0648 76000000 		.4byte	.LBE12-.LBB12
 7300 064c B5060000 		.4byte	0x6b5
 7301 0650 20       		.uleb128 0x20
 7302 0651 6900     		.ascii	"i\000"
 7303 0653 02       		.byte	0x2
 7304 0654 4D       		.byte	0x4d
 7305 0655 CD000000 		.4byte	0xcd
 7306 0659 EC020000 		.4byte	.LLST19
 7307 065d 12       		.uleb128 0x12
 7308 065e 4C000000 		.4byte	.LVL82
 7309 0662 EE360000 		.4byte	0x36ee
 7310 0666 1C       		.uleb128 0x1c
 7311 0667 8A000000 		.4byte	.LVL84
 7312 066b E3360000 		.4byte	0x36e3
 7313 066f 7A060000 		.4byte	0x67a
 7314 0673 1B       		.uleb128 0x1b
 7315 0674 01       		.uleb128 0x1
 7316 0675 50       		.byte	0x50
 7317 0676 02       		.uleb128 0x2
 7318 0677 75       		.byte	0x75
 7319 0678 00       		.sleb128 0
 7320 0679 00       		.byte	0
 7321 067a 1C       		.uleb128 0x1c
 7322 067b 92000000 		.4byte	.LVL85
 7323 067f D1030000 		.4byte	0x3d1
 7324 0683 8E060000 		.4byte	0x68e
 7325 0687 1B       		.uleb128 0x1b
 7326 0688 01       		.uleb128 0x1
 7327 0689 50       		.byte	0x50
 7328 068a 02       		.uleb128 0x2
 7329 068b 75       		.byte	0x75
ARM GAS  C:\Users\FRANKL~1\AppData\Local\Temp\ccba5qpo.s 			page 166


 7330 068c 00       		.sleb128 0
 7331 068d 00       		.byte	0
 7332 068e 1C       		.uleb128 0x1c
 7333 068f 98000000 		.4byte	.LVL86
 7334 0693 F9360000 		.4byte	0x36f9
 7335 0697 A2060000 		.4byte	0x6a2
 7336 069b 1B       		.uleb128 0x1b
 7337 069c 01       		.uleb128 0x1
 7338 069d 50       		.byte	0x50
 7339 069e 02       		.uleb128 0x2
 7340 069f 75       		.byte	0x75
 7341 06a0 00       		.sleb128 0
 7342 06a1 00       		.byte	0
 7343 06a2 12       		.uleb128 0x12
 7344 06a3 9C000000 		.4byte	.LVL87
 7345 06a7 04370000 		.4byte	0x3704
 7346 06ab 12       		.uleb128 0x12
 7347 06ac A0000000 		.4byte	.LVL88
 7348 06b0 0F370000 		.4byte	0x370f
 7349 06b4 00       		.byte	0
 7350 06b5 1C       		.uleb128 0x1c
 7351 06b6 16000000 		.4byte	.LVL74
 7352 06ba 1A370000 		.4byte	0x371a
 7353 06be D8060000 		.4byte	0x6d8
 7354 06c2 1B       		.uleb128 0x1b
 7355 06c3 01       		.uleb128 0x1
 7356 06c4 50       		.byte	0x50
 7357 06c5 02       		.uleb128 0x2
 7358 06c6 75       		.byte	0x75
 7359 06c7 00       		.sleb128 0
 7360 06c8 1B       		.uleb128 0x1b
 7361 06c9 01       		.uleb128 0x1
 7362 06ca 51       		.byte	0x51
 7363 06cb 05       		.uleb128 0x5
 7364 06cc 03       		.byte	0x3
 7365 06cd 2C000000 		.4byte	.LC5
 7366 06d1 1B       		.uleb128 0x1b
 7367 06d2 01       		.uleb128 0x1
 7368 06d3 52       		.byte	0x52
 7369 06d4 02       		.uleb128 0x2
 7370 06d5 78       		.byte	0x78
 7371 06d6 00       		.sleb128 0
 7372 06d7 00       		.byte	0
 7373 06d8 1C       		.uleb128 0x1c
 7374 06d9 1C000000 		.4byte	.LVL75
 7375 06dd E3360000 		.4byte	0x36e3
 7376 06e1 EC060000 		.4byte	0x6ec
 7377 06e5 1B       		.uleb128 0x1b
 7378 06e6 01       		.uleb128 0x1
 7379 06e7 50       		.byte	0x50
 7380 06e8 02       		.uleb128 0x2
 7381 06e9 75       		.byte	0x75
 7382 06ea 00       		.sleb128 0
 7383 06eb 00       		.byte	0
 7384 06ec 1C       		.uleb128 0x1c
 7385 06ed 24000000 		.4byte	.LVL76
 7386 06f1 D1030000 		.4byte	0x3d1
ARM GAS  C:\Users\FRANKL~1\AppData\Local\Temp\ccba5qpo.s 			page 167


 7387 06f5 00070000 		.4byte	0x700
 7388 06f9 1B       		.uleb128 0x1b
 7389 06fa 01       		.uleb128 0x1
 7390 06fb 50       		.byte	0x50
 7391 06fc 02       		.uleb128 0x2
 7392 06fd 75       		.byte	0x75
 7393 06fe 00       		.sleb128 0
 7394 06ff 00       		.byte	0
 7395 0700 1C       		.uleb128 0x1c
 7396 0701 2A000000 		.4byte	.LVL77
 7397 0705 F9360000 		.4byte	0x36f9
 7398 0709 14070000 		.4byte	0x714
 7399 070d 1B       		.uleb128 0x1b
 7400 070e 01       		.uleb128 0x1
 7401 070f 50       		.byte	0x50
 7402 0710 02       		.uleb128 0x2
 7403 0711 75       		.byte	0x75
 7404 0712 00       		.sleb128 0
 7405 0713 00       		.byte	0
 7406 0714 12       		.uleb128 0x12
 7407 0715 2E000000 		.4byte	.LVL78
 7408 0719 25370000 		.4byte	0x3725
 7409 071d 1C       		.uleb128 0x1c
 7410 071e 44000000 		.4byte	.LVL80
 7411 0722 30370000 		.4byte	0x3730
 7412 0726 3C070000 		.4byte	0x73c
 7413 072a 1B       		.uleb128 0x1b
 7414 072b 01       		.uleb128 0x1
 7415 072c 51       		.byte	0x51
 7416 072d 02       		.uleb128 0x2
 7417 072e 74       		.byte	0x74
 7418 072f 00       		.sleb128 0
 7419 0730 1B       		.uleb128 0x1b
 7420 0731 01       		.uleb128 0x1
 7421 0732 52       		.byte	0x52
 7422 0733 02       		.uleb128 0x2
 7423 0734 08       		.byte	0x8
 7424 0735 7F       		.byte	0x7f
 7425 0736 1B       		.uleb128 0x1b
 7426 0737 01       		.uleb128 0x1
 7427 0738 53       		.byte	0x53
 7428 0739 01       		.uleb128 0x1
 7429 073a 30       		.byte	0x30
 7430 073b 00       		.byte	0
 7431 073c 12       		.uleb128 0x12
 7432 073d BE000000 		.4byte	.LVL92
 7433 0741 EE360000 		.4byte	0x36ee
 7434 0745 1C       		.uleb128 0x1c
 7435 0746 E0000000 		.4byte	.LVL94
 7436 074a E3360000 		.4byte	0x36e3
 7437 074e 59070000 		.4byte	0x759
 7438 0752 1B       		.uleb128 0x1b
 7439 0753 01       		.uleb128 0x1
 7440 0754 50       		.byte	0x50
 7441 0755 02       		.uleb128 0x2
 7442 0756 75       		.byte	0x75
 7443 0757 00       		.sleb128 0
ARM GAS  C:\Users\FRANKL~1\AppData\Local\Temp\ccba5qpo.s 			page 168


 7444 0758 00       		.byte	0
 7445 0759 1C       		.uleb128 0x1c
 7446 075a E8000000 		.4byte	.LVL95
 7447 075e D1030000 		.4byte	0x3d1
 7448 0762 6D070000 		.4byte	0x76d
 7449 0766 1B       		.uleb128 0x1b
 7450 0767 01       		.uleb128 0x1
 7451 0768 50       		.byte	0x50
 7452 0769 02       		.uleb128 0x2
 7453 076a 75       		.byte	0x75
 7454 076b 00       		.sleb128 0
 7455 076c 00       		.byte	0
 7456 076d 1C       		.uleb128 0x1c
 7457 076e EE000000 		.4byte	.LVL96
 7458 0772 F9360000 		.4byte	0x36f9
 7459 0776 81070000 		.4byte	0x781
 7460 077a 1B       		.uleb128 0x1b
 7461 077b 01       		.uleb128 0x1
 7462 077c 50       		.byte	0x50
 7463 077d 02       		.uleb128 0x2
 7464 077e 75       		.byte	0x75
 7465 077f 00       		.sleb128 0
 7466 0780 00       		.byte	0
 7467 0781 12       		.uleb128 0x12
 7468 0782 F2000000 		.4byte	.LVL97
 7469 0786 EE360000 		.4byte	0x36ee
 7470 078a 1C       		.uleb128 0x1c
 7471 078b 0A010000 		.4byte	.LVL98
 7472 078f E3360000 		.4byte	0x36e3
 7473 0793 9E070000 		.4byte	0x79e
 7474 0797 1B       		.uleb128 0x1b
 7475 0798 01       		.uleb128 0x1
 7476 0799 50       		.byte	0x50
 7477 079a 02       		.uleb128 0x2
 7478 079b 75       		.byte	0x75
 7479 079c 00       		.sleb128 0
 7480 079d 00       		.byte	0
 7481 079e 1C       		.uleb128 0x1c
 7482 079f 12010000 		.4byte	.LVL99
 7483 07a3 D1030000 		.4byte	0x3d1
 7484 07a7 B2070000 		.4byte	0x7b2
 7485 07ab 1B       		.uleb128 0x1b
 7486 07ac 01       		.uleb128 0x1
 7487 07ad 50       		.byte	0x50
 7488 07ae 02       		.uleb128 0x2
 7489 07af 75       		.byte	0x75
 7490 07b0 00       		.sleb128 0
 7491 07b1 00       		.byte	0
 7492 07b2 1C       		.uleb128 0x1c
 7493 07b3 18010000 		.4byte	.LVL100
 7494 07b7 F9360000 		.4byte	0x36f9
 7495 07bb C6070000 		.4byte	0x7c6
 7496 07bf 1B       		.uleb128 0x1b
 7497 07c0 01       		.uleb128 0x1
 7498 07c1 50       		.byte	0x50
 7499 07c2 02       		.uleb128 0x2
 7500 07c3 75       		.byte	0x75
ARM GAS  C:\Users\FRANKL~1\AppData\Local\Temp\ccba5qpo.s 			page 169


 7501 07c4 00       		.sleb128 0
 7502 07c5 00       		.byte	0
 7503 07c6 1C       		.uleb128 0x1c
 7504 07c7 2A010000 		.4byte	.LVL101
 7505 07cb E3360000 		.4byte	0x36e3
 7506 07cf DA070000 		.4byte	0x7da
 7507 07d3 1B       		.uleb128 0x1b
 7508 07d4 01       		.uleb128 0x1
 7509 07d5 50       		.byte	0x50
 7510 07d6 02       		.uleb128 0x2
 7511 07d7 74       		.byte	0x74
 7512 07d8 00       		.sleb128 0
 7513 07d9 00       		.byte	0
 7514 07da 1C       		.uleb128 0x1c
 7515 07db 32010000 		.4byte	.LVL102
 7516 07df D1030000 		.4byte	0x3d1
 7517 07e3 EE070000 		.4byte	0x7ee
 7518 07e7 1B       		.uleb128 0x1b
 7519 07e8 01       		.uleb128 0x1
 7520 07e9 50       		.byte	0x50
 7521 07ea 02       		.uleb128 0x2
 7522 07eb 74       		.byte	0x74
 7523 07ec 00       		.sleb128 0
 7524 07ed 00       		.byte	0
 7525 07ee 1C       		.uleb128 0x1c
 7526 07ef 38010000 		.4byte	.LVL103
 7527 07f3 F9360000 		.4byte	0x36f9
 7528 07f7 02080000 		.4byte	0x802
 7529 07fb 1B       		.uleb128 0x1b
 7530 07fc 01       		.uleb128 0x1
 7531 07fd 50       		.byte	0x50
 7532 07fe 02       		.uleb128 0x2
 7533 07ff 74       		.byte	0x74
 7534 0800 00       		.sleb128 0
 7535 0801 00       		.byte	0
 7536 0802 1C       		.uleb128 0x1c
 7537 0803 44010000 		.4byte	.LVL104
 7538 0807 1A370000 		.4byte	0x371a
 7539 080b 25080000 		.4byte	0x825
 7540 080f 1B       		.uleb128 0x1b
 7541 0810 01       		.uleb128 0x1
 7542 0811 50       		.byte	0x50
 7543 0812 02       		.uleb128 0x2
 7544 0813 74       		.byte	0x74
 7545 0814 00       		.sleb128 0
 7546 0815 1B       		.uleb128 0x1b
 7547 0816 01       		.uleb128 0x1
 7548 0817 51       		.byte	0x51
 7549 0818 05       		.uleb128 0x5
 7550 0819 03       		.byte	0x3
 7551 081a 90000000 		.4byte	.LC10
 7552 081e 1B       		.uleb128 0x1b
 7553 081f 01       		.uleb128 0x1
 7554 0820 52       		.byte	0x52
 7555 0821 02       		.uleb128 0x2
 7556 0822 78       		.byte	0x78
 7557 0823 00       		.sleb128 0
ARM GAS  C:\Users\FRANKL~1\AppData\Local\Temp\ccba5qpo.s 			page 170


 7558 0824 00       		.byte	0
 7559 0825 1C       		.uleb128 0x1c
 7560 0826 4A010000 		.4byte	.LVL105
 7561 082a E3360000 		.4byte	0x36e3
 7562 082e 39080000 		.4byte	0x839
 7563 0832 1B       		.uleb128 0x1b
 7564 0833 01       		.uleb128 0x1
 7565 0834 50       		.byte	0x50
 7566 0835 02       		.uleb128 0x2
 7567 0836 74       		.byte	0x74
 7568 0837 00       		.sleb128 0
 7569 0838 00       		.byte	0
 7570 0839 1C       		.uleb128 0x1c
 7571 083a 52010000 		.4byte	.LVL106
 7572 083e D1030000 		.4byte	0x3d1
 7573 0842 4D080000 		.4byte	0x84d
 7574 0846 1B       		.uleb128 0x1b
 7575 0847 01       		.uleb128 0x1
 7576 0848 50       		.byte	0x50
 7577 0849 02       		.uleb128 0x2
 7578 084a 74       		.byte	0x74
 7579 084b 00       		.sleb128 0
 7580 084c 00       		.byte	0
 7581 084d 1A       		.uleb128 0x1a
 7582 084e 58010000 		.4byte	.LVL107
 7583 0852 F9360000 		.4byte	0x36f9
 7584 0856 1B       		.uleb128 0x1b
 7585 0857 01       		.uleb128 0x1
 7586 0858 50       		.byte	0x50
 7587 0859 02       		.uleb128 0x2
 7588 085a 74       		.byte	0x74
 7589 085b 00       		.sleb128 0
 7590 085c 00       		.byte	0
 7591 085d 00       		.byte	0
 7592 085e 10       		.uleb128 0x10
 7593 085f 0C030000 		.4byte	.LASF55
 7594 0863 02       		.byte	0x2
 7595 0864 78       		.byte	0x78
 7596 0865 00000000 		.4byte	.LFB72
 7597 0869 3C000000 		.4byte	.LFE72-.LFB72
 7598 086d 01       		.uleb128 0x1
 7599 086e 9C       		.byte	0x9c
 7600 086f A6080000 		.4byte	0x8a6
 7601 0873 19       		.uleb128 0x19
 7602 0874 02000000 		.4byte	.LBB13
 7603 0878 18000000 		.4byte	.LBE13-.LBB13
 7604 087c 20       		.uleb128 0x20
 7605 087d 6900     		.ascii	"i\000"
 7606 087f 02       		.byte	0x2
 7607 0880 79       		.byte	0x79
 7608 0881 B5000000 		.4byte	0xb5
 7609 0885 0B030000 		.4byte	.LLST20
 7610 0889 1A       		.uleb128 0x1a
 7611 088a 12000000 		.4byte	.LVL111
 7612 088e B5050000 		.4byte	0x5b5
 7613 0892 1B       		.uleb128 0x1b
 7614 0893 01       		.uleb128 0x1
ARM GAS  C:\Users\FRANKL~1\AppData\Local\Temp\ccba5qpo.s 			page 171


 7615 0894 50       		.byte	0x50
 7616 0895 0D       		.uleb128 0xd
 7617 0896 74       		.byte	0x74
 7618 0897 00       		.sleb128 0
 7619 0898 38       		.byte	0x38
 7620 0899 24       		.byte	0x24
 7621 089a 74       		.byte	0x74
 7622 089b 00       		.sleb128 0
 7623 089c 1C       		.byte	0x1c
 7624 089d 03       		.byte	0x3
 7625 089e 00000000 		.4byte	selectors
 7626 08a2 22       		.byte	0x22
 7627 08a3 00       		.byte	0
 7628 08a4 00       		.byte	0
 7629 08a5 00       		.byte	0
 7630 08a6 21       		.uleb128 0x21
 7631 08a7 170E0000 		.4byte	.LASF56
 7632 08ab 02       		.byte	0x2
 7633 08ac 81       		.byte	0x81
 7634 08ad 00000000 		.4byte	.LFB73
 7635 08b1 2C000000 		.4byte	.LFE73-.LFB73
 7636 08b5 01       		.uleb128 0x1
 7637 08b6 9C       		.byte	0x9c
 7638 08b7 E3080000 		.4byte	0x8e3
 7639 08bb 1E       		.uleb128 0x1e
 7640 08bc A7050000 		.4byte	.LASF57
 7641 08c0 02       		.byte	0x2
 7642 08c1 81       		.byte	0x81
 7643 08c2 B5000000 		.4byte	0xb5
 7644 08c6 35030000 		.4byte	.LLST21
 7645 08ca 1E       		.uleb128 0x1e
 7646 08cb 00000000 		.4byte	.LASF58
 7647 08cf 02       		.byte	0x2
 7648 08d0 81       		.byte	0x81
 7649 08d1 B5000000 		.4byte	0xb5
 7650 08d5 61030000 		.4byte	.LLST22
 7651 08d9 12       		.uleb128 0x12
 7652 08da 24000000 		.4byte	.LVL120
 7653 08de 10060000 		.4byte	0x610
 7654 08e2 00       		.byte	0
 7655 08e3 21       		.uleb128 0x21
 7656 08e4 CA0C0000 		.4byte	.LASF59
 7657 08e8 02       		.byte	0x2
 7658 08e9 8C       		.byte	0x8c
 7659 08ea 00000000 		.4byte	.LFB74
 7660 08ee 32000000 		.4byte	.LFE74-.LFB74
 7661 08f2 01       		.uleb128 0x1
 7662 08f3 9C       		.byte	0x9c
 7663 08f4 2F090000 		.4byte	0x92f
 7664 08f8 1E       		.uleb128 0x1e
 7665 08f9 C50A0000 		.4byte	.LASF60
 7666 08fd 02       		.byte	0x2
 7667 08fe 8C       		.byte	0x8c
 7668 08ff B5000000 		.4byte	0xb5
 7669 0903 91030000 		.4byte	.LLST23
 7670 0907 1E       		.uleb128 0x1e
 7671 0908 00000000 		.4byte	.LASF58
ARM GAS  C:\Users\FRANKL~1\AppData\Local\Temp\ccba5qpo.s 			page 172


 7672 090c 02       		.byte	0x2
 7673 090d 8C       		.byte	0x8c
 7674 090e B5000000 		.4byte	0xb5
 7675 0912 C8030000 		.4byte	.LLST24
 7676 0916 11       		.uleb128 0x11
 7677 0917 E9080000 		.4byte	.LASF61
 7678 091b 02       		.byte	0x2
 7679 091c 93       		.byte	0x93
 7680 091d B5000000 		.4byte	0xb5
 7681 0921 05040000 		.4byte	.LLST25
 7682 0925 12       		.uleb128 0x12
 7683 0926 2E000000 		.4byte	.LVL129
 7684 092a A6080000 		.4byte	0x8a6
 7685 092e 00       		.byte	0
 7686 092f 21       		.uleb128 0x21
 7687 0930 430A0000 		.4byte	.LASF62
 7688 0934 02       		.byte	0x2
 7689 0935 9E       		.byte	0x9e
 7690 0936 00000000 		.4byte	.LFB75
 7691 093a 40000000 		.4byte	.LFE75-.LFB75
 7692 093e 01       		.uleb128 0x1
 7693 093f 9C       		.byte	0x9c
 7694 0940 7B090000 		.4byte	0x97b
 7695 0944 1E       		.uleb128 0x1e
 7696 0945 C50A0000 		.4byte	.LASF60
 7697 0949 02       		.byte	0x2
 7698 094a 9E       		.byte	0x9e
 7699 094b B5000000 		.4byte	0xb5
 7700 094f 3D040000 		.4byte	.LLST26
 7701 0953 1E       		.uleb128 0x1e
 7702 0954 00000000 		.4byte	.LASF58
 7703 0958 02       		.byte	0x2
 7704 0959 9E       		.byte	0x9e
 7705 095a B5000000 		.4byte	0xb5
 7706 095e 69040000 		.4byte	.LLST27
 7707 0962 11       		.uleb128 0x11
 7708 0963 E9080000 		.4byte	.LASF61
 7709 0967 02       		.byte	0x2
 7710 0968 A5       		.byte	0xa5
 7711 0969 B5000000 		.4byte	0xb5
 7712 096d 99040000 		.4byte	.LLST28
 7713 0971 12       		.uleb128 0x12
 7714 0972 38000000 		.4byte	.LVL141
 7715 0976 10060000 		.4byte	0x610
 7716 097a 00       		.byte	0
 7717 097b 21       		.uleb128 0x21
 7718 097c 06080000 		.4byte	.LASF63
 7719 0980 02       		.byte	0x2
 7720 0981 B2       		.byte	0xb2
 7721 0982 00000000 		.4byte	.LFB76
 7722 0986 40000000 		.4byte	.LFE76-.LFB76
 7723 098a 01       		.uleb128 0x1
 7724 098b 9C       		.byte	0x9c
 7725 098c E2090000 		.4byte	0x9e2
 7726 0990 1E       		.uleb128 0x1e
 7727 0991 C50A0000 		.4byte	.LASF60
 7728 0995 02       		.byte	0x2
ARM GAS  C:\Users\FRANKL~1\AppData\Local\Temp\ccba5qpo.s 			page 173


 7729 0996 B2       		.byte	0xb2
 7730 0997 B5000000 		.4byte	0xb5
 7731 099b D1040000 		.4byte	.LLST29
 7732 099f 19       		.uleb128 0x19
 7733 09a0 06000000 		.4byte	.LBB14
 7734 09a4 34000000 		.4byte	.LBE14-.LBB14
 7735 09a8 11       		.uleb128 0x11
 7736 09a9 00000000 		.4byte	.LASF58
 7737 09ad 02       		.byte	0x2
 7738 09ae B5       		.byte	0xb5
 7739 09af B5000000 		.4byte	0xb5
 7740 09b3 FD040000 		.4byte	.LLST30
 7741 09b7 19       		.uleb128 0x19
 7742 09b8 0A000000 		.4byte	.LBB15
 7743 09bc 28000000 		.4byte	.LBE15-.LBB15
 7744 09c0 11       		.uleb128 0x11
 7745 09c1 E9080000 		.4byte	.LASF61
 7746 09c5 02       		.byte	0x2
 7747 09c6 B7       		.byte	0xb7
 7748 09c7 B5000000 		.4byte	0xb5
 7749 09cb 27050000 		.4byte	.LLST31
 7750 09cf 1A       		.uleb128 0x1a
 7751 09d0 32000000 		.4byte	.LVL150
 7752 09d4 10060000 		.4byte	0x610
 7753 09d8 1B       		.uleb128 0x1b
 7754 09d9 01       		.uleb128 0x1
 7755 09da 50       		.byte	0x50
 7756 09db 02       		.uleb128 0x2
 7757 09dc 74       		.byte	0x74
 7758 09dd 00       		.sleb128 0
 7759 09de 00       		.byte	0
 7760 09df 00       		.byte	0
 7761 09e0 00       		.byte	0
 7762 09e1 00       		.byte	0
 7763 09e2 10       		.uleb128 0x10
 7764 09e3 8A010000 		.4byte	.LASF64
 7765 09e7 02       		.byte	0x2
 7766 09e8 C5       		.byte	0xc5
 7767 09e9 00000000 		.4byte	.LFB77
 7768 09ed 34000000 		.4byte	.LFE77-.LFB77
 7769 09f1 01       		.uleb128 0x1
 7770 09f2 9C       		.byte	0x9c
 7771 09f3 3A0A0000 		.4byte	0xa3a
 7772 09f7 19       		.uleb128 0x19
 7773 09f8 02000000 		.4byte	.LBB16
 7774 09fc 2C000000 		.4byte	.LBE16-.LBB16
 7775 0a00 11       		.uleb128 0x11
 7776 0a01 00000000 		.4byte	.LASF58
 7777 0a05 02       		.byte	0x2
 7778 0a06 C6       		.byte	0xc6
 7779 0a07 B5000000 		.4byte	0xb5
 7780 0a0b 5F050000 		.4byte	.LLST32
 7781 0a0f 1F       		.uleb128 0x1f
 7782 0a10 18000000 		.4byte	.Ldebug_ranges0+0x18
 7783 0a14 280A0000 		.4byte	0xa28
 7784 0a18 11       		.uleb128 0x11
 7785 0a19 C50A0000 		.4byte	.LASF60
ARM GAS  C:\Users\FRANKL~1\AppData\Local\Temp\ccba5qpo.s 			page 174


 7786 0a1d 02       		.byte	0x2
 7787 0a1e C7       		.byte	0xc7
 7788 0a1f B5000000 		.4byte	0xb5
 7789 0a23 89050000 		.4byte	.LLST33
 7790 0a27 00       		.byte	0
 7791 0a28 1A       		.uleb128 0x1a
 7792 0a29 26000000 		.4byte	.LVL160
 7793 0a2d 10060000 		.4byte	0x610
 7794 0a31 1B       		.uleb128 0x1b
 7795 0a32 01       		.uleb128 0x1
 7796 0a33 50       		.byte	0x50
 7797 0a34 02       		.uleb128 0x2
 7798 0a35 74       		.byte	0x74
 7799 0a36 00       		.sleb128 0
 7800 0a37 00       		.byte	0
 7801 0a38 00       		.byte	0
 7802 0a39 00       		.byte	0
 7803 0a3a 21       		.uleb128 0x21
 7804 0a3b 0C090000 		.4byte	.LASF65
 7805 0a3f 02       		.byte	0x2
 7806 0a40 CF       		.byte	0xcf
 7807 0a41 00000000 		.4byte	.LFB78
 7808 0a45 2C000000 		.4byte	.LFE78-.LFB78
 7809 0a49 01       		.uleb128 0x1
 7810 0a4a 9C       		.byte	0x9c
 7811 0a4b 850A0000 		.4byte	0xa85
 7812 0a4f 1E       		.uleb128 0x1e
 7813 0a50 00000000 		.4byte	.LASF58
 7814 0a54 02       		.byte	0x2
 7815 0a55 CF       		.byte	0xcf
 7816 0a56 B5000000 		.4byte	0xb5
 7817 0a5a B2050000 		.4byte	.LLST34
 7818 0a5e 15       		.uleb128 0x15
 7819 0a5f 06000000 		.4byte	.LBB19
 7820 0a63 1A000000 		.4byte	.LBE19-.LBB19
 7821 0a67 7B0A0000 		.4byte	0xa7b
 7822 0a6b 11       		.uleb128 0x11
 7823 0a6c C50A0000 		.4byte	.LASF60
 7824 0a70 02       		.byte	0x2
 7825 0a71 D2       		.byte	0xd2
 7826 0a72 B5000000 		.4byte	0xb5
 7827 0a76 DE050000 		.4byte	.LLST35
 7828 0a7a 00       		.byte	0
 7829 0a7b 12       		.uleb128 0x12
 7830 0a7c 24000000 		.4byte	.LVL170
 7831 0a80 10060000 		.4byte	0x610
 7832 0a84 00       		.byte	0
 7833 0a85 21       		.uleb128 0x21
 7834 0a86 8C000000 		.4byte	.LASF66
 7835 0a8a 02       		.byte	0x2
 7836 0a8b D9       		.byte	0xd9
 7837 0a8c 00000000 		.4byte	.LFB79
 7838 0a90 38000000 		.4byte	.LFE79-.LFB79
 7839 0a94 01       		.uleb128 0x1
 7840 0a95 9C       		.byte	0x9c
 7841 0a96 0A0B0000 		.4byte	0xb0a
 7842 0a9a 1E       		.uleb128 0x1e
ARM GAS  C:\Users\FRANKL~1\AppData\Local\Temp\ccba5qpo.s 			page 175


 7843 0a9b 00000000 		.4byte	.LASF58
 7844 0a9f 02       		.byte	0x2
 7845 0aa0 D9       		.byte	0xd9
 7846 0aa1 B5000000 		.4byte	0xb5
 7847 0aa5 08060000 		.4byte	.LLST36
 7848 0aa9 1C       		.uleb128 0x1c
 7849 0aaa 18000000 		.4byte	.LVL173
 7850 0aae A6080000 		.4byte	0x8a6
 7851 0ab2 C20A0000 		.4byte	0xac2
 7852 0ab6 1B       		.uleb128 0x1b
 7853 0ab7 01       		.uleb128 0x1
 7854 0ab8 50       		.byte	0x50
 7855 0ab9 02       		.uleb128 0x2
 7856 0aba 08       		.byte	0x8
 7857 0abb 21       		.byte	0x21
 7858 0abc 1B       		.uleb128 0x1b
 7859 0abd 01       		.uleb128 0x1
 7860 0abe 51       		.byte	0x51
 7861 0abf 01       		.uleb128 0x1
 7862 0ac0 31       		.byte	0x31
 7863 0ac1 00       		.byte	0
 7864 0ac2 1C       		.uleb128 0x1c
 7865 0ac3 22000000 		.4byte	.LVL174
 7866 0ac7 A6080000 		.4byte	0x8a6
 7867 0acb DB0A0000 		.4byte	0xadb
 7868 0acf 1B       		.uleb128 0x1b
 7869 0ad0 01       		.uleb128 0x1
 7870 0ad1 50       		.byte	0x50
 7871 0ad2 02       		.uleb128 0x2
 7872 0ad3 08       		.byte	0x8
 7873 0ad4 21       		.byte	0x21
 7874 0ad5 1B       		.uleb128 0x1b
 7875 0ad6 01       		.uleb128 0x1
 7876 0ad7 51       		.byte	0x51
 7877 0ad8 01       		.uleb128 0x1
 7878 0ad9 32       		.byte	0x32
 7879 0ada 00       		.byte	0
 7880 0adb 1C       		.uleb128 0x1c
 7881 0adc 2C000000 		.4byte	.LVL175
 7882 0ae0 A6080000 		.4byte	0x8a6
 7883 0ae4 F40A0000 		.4byte	0xaf4
 7884 0ae8 1B       		.uleb128 0x1b
 7885 0ae9 01       		.uleb128 0x1
 7886 0aea 50       		.byte	0x50
 7887 0aeb 02       		.uleb128 0x2
 7888 0aec 08       		.byte	0x8
 7889 0aed 21       		.byte	0x21
 7890 0aee 1B       		.uleb128 0x1b
 7891 0aef 01       		.uleb128 0x1
 7892 0af0 51       		.byte	0x51
 7893 0af1 01       		.uleb128 0x1
 7894 0af2 33       		.byte	0x33
 7895 0af3 00       		.byte	0
 7896 0af4 1A       		.uleb128 0x1a
 7897 0af5 36000000 		.4byte	.LVL176
 7898 0af9 A6080000 		.4byte	0x8a6
 7899 0afd 1B       		.uleb128 0x1b
ARM GAS  C:\Users\FRANKL~1\AppData\Local\Temp\ccba5qpo.s 			page 176


 7900 0afe 01       		.uleb128 0x1
 7901 0aff 50       		.byte	0x50
 7902 0b00 02       		.uleb128 0x2
 7903 0b01 08       		.byte	0x8
 7904 0b02 21       		.byte	0x21
 7905 0b03 1B       		.uleb128 0x1b
 7906 0b04 01       		.uleb128 0x1
 7907 0b05 51       		.byte	0x51
 7908 0b06 01       		.uleb128 0x1
 7909 0b07 34       		.byte	0x34
 7910 0b08 00       		.byte	0
 7911 0b09 00       		.byte	0
 7912 0b0a 10       		.uleb128 0x10
 7913 0b0b 76060000 		.4byte	.LASF67
 7914 0b0f 02       		.byte	0x2
 7915 0b10 E3       		.byte	0xe3
 7916 0b11 00000000 		.4byte	.LFB80
 7917 0b15 16000000 		.4byte	.LFE80-.LFB80
 7918 0b19 01       		.uleb128 0x1
 7919 0b1a 9C       		.byte	0x9c
 7920 0b1b 470B0000 		.4byte	0xb47
 7921 0b1f 19       		.uleb128 0x19
 7922 0b20 02000000 		.4byte	.LBB20
 7923 0b24 12000000 		.4byte	.LBE20-.LBB20
 7924 0b28 20       		.uleb128 0x20
 7925 0b29 6900     		.ascii	"i\000"
 7926 0b2b 02       		.byte	0x2
 7927 0b2c E4       		.byte	0xe4
 7928 0b2d B5000000 		.4byte	0xb5
 7929 0b31 29060000 		.4byte	.LLST37
 7930 0b35 1A       		.uleb128 0x1a
 7931 0b36 0C000000 		.4byte	.LVL179
 7932 0b3a 850A0000 		.4byte	0xa85
 7933 0b3e 1B       		.uleb128 0x1b
 7934 0b3f 01       		.uleb128 0x1
 7935 0b40 50       		.byte	0x50
 7936 0b41 02       		.uleb128 0x2
 7937 0b42 74       		.byte	0x74
 7938 0b43 00       		.sleb128 0
 7939 0b44 00       		.byte	0
 7940 0b45 00       		.byte	0
 7941 0b46 00       		.byte	0
 7942 0b47 21       		.uleb128 0x21
 7943 0b48 27000000 		.4byte	.LASF68
 7944 0b4c 02       		.byte	0x2
 7945 0b4d E9       		.byte	0xe9
 7946 0b4e 00000000 		.4byte	.LFB81
 7947 0b52 14000000 		.4byte	.LFE81-.LFB81
 7948 0b56 01       		.uleb128 0x1
 7949 0b57 9C       		.byte	0x9c
 7950 0b58 750B0000 		.4byte	0xb75
 7951 0b5c 1E       		.uleb128 0x1e
 7952 0b5d 370B0000 		.4byte	.LASF69
 7953 0b61 02       		.byte	0x2
 7954 0b62 E9       		.byte	0xe9
 7955 0b63 B5000000 		.4byte	0xb5
 7956 0b67 53060000 		.4byte	.LLST38
ARM GAS  C:\Users\FRANKL~1\AppData\Local\Temp\ccba5qpo.s 			page 177


 7957 0b6b 12       		.uleb128 0x12
 7958 0b6c 0E000000 		.4byte	.LVL184
 7959 0b70 3B370000 		.4byte	0x373b
 7960 0b74 00       		.byte	0
 7961 0b75 10       		.uleb128 0x10
 7962 0b76 9A0B0000 		.4byte	.LASF70
 7963 0b7a 02       		.byte	0x2
 7964 0b7b EE       		.byte	0xee
 7965 0b7c 00000000 		.4byte	.LFB82
 7966 0b80 54000000 		.4byte	.LFE82-.LFB82
 7967 0b84 01       		.uleb128 0x1
 7968 0b85 9C       		.byte	0x9c
 7969 0b86 0C0C0000 		.4byte	0xc0c
 7970 0b8a 1C       		.uleb128 0x1c
 7971 0b8b 1E000000 		.4byte	.LVL185
 7972 0b8f 470B0000 		.4byte	0xb47
 7973 0b93 9D0B0000 		.4byte	0xb9d
 7974 0b97 1B       		.uleb128 0x1b
 7975 0b98 01       		.uleb128 0x1
 7976 0b99 50       		.byte	0x50
 7977 0b9a 01       		.uleb128 0x1
 7978 0b9b 30       		.byte	0x30
 7979 0b9c 00       		.byte	0
 7980 0b9d 1C       		.uleb128 0x1c
 7981 0b9e 26000000 		.4byte	.LVL186
 7982 0ba2 470B0000 		.4byte	0xb47
 7983 0ba6 B00B0000 		.4byte	0xbb0
 7984 0baa 1B       		.uleb128 0x1b
 7985 0bab 01       		.uleb128 0x1
 7986 0bac 50       		.byte	0x50
 7987 0bad 01       		.uleb128 0x1
 7988 0bae 31       		.byte	0x31
 7989 0baf 00       		.byte	0
 7990 0bb0 1C       		.uleb128 0x1c
 7991 0bb1 2E000000 		.4byte	.LVL187
 7992 0bb5 470B0000 		.4byte	0xb47
 7993 0bb9 C30B0000 		.4byte	0xbc3
 7994 0bbd 1B       		.uleb128 0x1b
 7995 0bbe 01       		.uleb128 0x1
 7996 0bbf 50       		.byte	0x50
 7997 0bc0 01       		.uleb128 0x1
 7998 0bc1 32       		.byte	0x32
 7999 0bc2 00       		.byte	0
 8000 0bc3 1C       		.uleb128 0x1c
 8001 0bc4 36000000 		.4byte	.LVL188
 8002 0bc8 470B0000 		.4byte	0xb47
 8003 0bcc D60B0000 		.4byte	0xbd6
 8004 0bd0 1B       		.uleb128 0x1b
 8005 0bd1 01       		.uleb128 0x1
 8006 0bd2 50       		.byte	0x50
 8007 0bd3 01       		.uleb128 0x1
 8008 0bd4 33       		.byte	0x33
 8009 0bd5 00       		.byte	0
 8010 0bd6 1C       		.uleb128 0x1c
 8011 0bd7 3E000000 		.4byte	.LVL189
 8012 0bdb 470B0000 		.4byte	0xb47
 8013 0bdf E90B0000 		.4byte	0xbe9
ARM GAS  C:\Users\FRANKL~1\AppData\Local\Temp\ccba5qpo.s 			page 178


 8014 0be3 1B       		.uleb128 0x1b
 8015 0be4 01       		.uleb128 0x1
 8016 0be5 50       		.byte	0x50
 8017 0be6 01       		.uleb128 0x1
 8018 0be7 34       		.byte	0x34
 8019 0be8 00       		.byte	0
 8020 0be9 1C       		.uleb128 0x1c
 8021 0bea 46000000 		.4byte	.LVL190
 8022 0bee 470B0000 		.4byte	0xb47
 8023 0bf2 FC0B0000 		.4byte	0xbfc
 8024 0bf6 1B       		.uleb128 0x1b
 8025 0bf7 01       		.uleb128 0x1
 8026 0bf8 50       		.byte	0x50
 8027 0bf9 01       		.uleb128 0x1
 8028 0bfa 35       		.byte	0x35
 8029 0bfb 00       		.byte	0
 8030 0bfc 1A       		.uleb128 0x1a
 8031 0bfd 4E000000 		.4byte	.LVL191
 8032 0c01 470B0000 		.4byte	0xb47
 8033 0c05 1B       		.uleb128 0x1b
 8034 0c06 01       		.uleb128 0x1
 8035 0c07 50       		.byte	0x50
 8036 0c08 01       		.uleb128 0x1
 8037 0c09 36       		.byte	0x36
 8038 0c0a 00       		.byte	0
 8039 0c0b 00       		.byte	0
 8040 0c0c 10       		.uleb128 0x10
 8041 0c0d 4A060000 		.4byte	.LASF71
 8042 0c11 02       		.byte	0x2
 8043 0c12 FC       		.byte	0xfc
 8044 0c13 00000000 		.4byte	.LFB83
 8045 0c17 54000000 		.4byte	.LFE83-.LFB83
 8046 0c1b 01       		.uleb128 0x1
 8047 0c1c 9C       		.byte	0x9c
 8048 0c1d A30C0000 		.4byte	0xca3
 8049 0c21 1C       		.uleb128 0x1c
 8050 0c22 1C000000 		.4byte	.LVL192
 8051 0c26 470B0000 		.4byte	0xb47
 8052 0c2a 340C0000 		.4byte	0xc34
 8053 0c2e 1B       		.uleb128 0x1b
 8054 0c2f 01       		.uleb128 0x1
 8055 0c30 50       		.byte	0x50
 8056 0c31 01       		.uleb128 0x1
 8057 0c32 31       		.byte	0x31
 8058 0c33 00       		.byte	0
 8059 0c34 1C       		.uleb128 0x1c
 8060 0c35 24000000 		.4byte	.LVL193
 8061 0c39 470B0000 		.4byte	0xb47
 8062 0c3d 470C0000 		.4byte	0xc47
 8063 0c41 1B       		.uleb128 0x1b
 8064 0c42 01       		.uleb128 0x1
 8065 0c43 50       		.byte	0x50
 8066 0c44 01       		.uleb128 0x1
 8067 0c45 32       		.byte	0x32
 8068 0c46 00       		.byte	0
 8069 0c47 1C       		.uleb128 0x1c
 8070 0c48 2C000000 		.4byte	.LVL194
ARM GAS  C:\Users\FRANKL~1\AppData\Local\Temp\ccba5qpo.s 			page 179


 8071 0c4c 470B0000 		.4byte	0xb47
 8072 0c50 5A0C0000 		.4byte	0xc5a
 8073 0c54 1B       		.uleb128 0x1b
 8074 0c55 01       		.uleb128 0x1
 8075 0c56 50       		.byte	0x50
 8076 0c57 01       		.uleb128 0x1
 8077 0c58 33       		.byte	0x33
 8078 0c59 00       		.byte	0
 8079 0c5a 1C       		.uleb128 0x1c
 8080 0c5b 34000000 		.4byte	.LVL195
 8081 0c5f 470B0000 		.4byte	0xb47
 8082 0c63 6D0C0000 		.4byte	0xc6d
 8083 0c67 1B       		.uleb128 0x1b
 8084 0c68 01       		.uleb128 0x1
 8085 0c69 50       		.byte	0x50
 8086 0c6a 01       		.uleb128 0x1
 8087 0c6b 34       		.byte	0x34
 8088 0c6c 00       		.byte	0
 8089 0c6d 1C       		.uleb128 0x1c
 8090 0c6e 3C000000 		.4byte	.LVL196
 8091 0c72 470B0000 		.4byte	0xb47
 8092 0c76 800C0000 		.4byte	0xc80
 8093 0c7a 1B       		.uleb128 0x1b
 8094 0c7b 01       		.uleb128 0x1
 8095 0c7c 50       		.byte	0x50
 8096 0c7d 01       		.uleb128 0x1
 8097 0c7e 35       		.byte	0x35
 8098 0c7f 00       		.byte	0
 8099 0c80 1C       		.uleb128 0x1c
 8100 0c81 44000000 		.4byte	.LVL197
 8101 0c85 470B0000 		.4byte	0xb47
 8102 0c89 930C0000 		.4byte	0xc93
 8103 0c8d 1B       		.uleb128 0x1b
 8104 0c8e 01       		.uleb128 0x1
 8105 0c8f 50       		.byte	0x50
 8106 0c90 01       		.uleb128 0x1
 8107 0c91 36       		.byte	0x36
 8108 0c92 00       		.byte	0
 8109 0c93 1A       		.uleb128 0x1a
 8110 0c94 4C000000 		.4byte	.LVL198
 8111 0c98 470B0000 		.4byte	0xb47
 8112 0c9c 1B       		.uleb128 0x1b
 8113 0c9d 01       		.uleb128 0x1
 8114 0c9e 50       		.byte	0x50
 8115 0c9f 01       		.uleb128 0x1
 8116 0ca0 37       		.byte	0x37
 8117 0ca1 00       		.byte	0
 8118 0ca2 00       		.byte	0
 8119 0ca3 24       		.uleb128 0x24
 8120 0ca4 C0010000 		.4byte	.LASF72
 8121 0ca8 02       		.byte	0x2
 8122 0ca9 0B01     		.2byte	0x10b
 8123 0cab 00000000 		.4byte	.LFB84
 8124 0caf B6000000 		.4byte	.LFE84-.LFB84
 8125 0cb3 01       		.uleb128 0x1
 8126 0cb4 9C       		.byte	0x9c
 8127 0cb5 660D0000 		.4byte	0xd66
ARM GAS  C:\Users\FRANKL~1\AppData\Local\Temp\ccba5qpo.s 			page 180


 8128 0cb9 25       		.uleb128 0x25
 8129 0cba CB000000 		.4byte	.LASF73
 8130 0cbe 02       		.byte	0x2
 8131 0cbf 0B01     		.2byte	0x10b
 8132 0cc1 660D0000 		.4byte	0xd66
 8133 0cc5 83060000 		.4byte	.LLST39
 8134 0cc9 25       		.uleb128 0x25
 8135 0cca B4080000 		.4byte	.LASF74
 8136 0cce 02       		.byte	0x2
 8137 0ccf 0B01     		.2byte	0x10b
 8138 0cd1 660D0000 		.4byte	0xd66
 8139 0cd5 AE060000 		.4byte	.LLST40
 8140 0cd9 25       		.uleb128 0x25
 8141 0cda 59070000 		.4byte	.LASF75
 8142 0cde 02       		.byte	0x2
 8143 0cdf 0B01     		.2byte	0x10b
 8144 0ce1 CD000000 		.4byte	0xcd
 8145 0ce5 CD060000 		.4byte	.LLST41
 8146 0ce9 17       		.uleb128 0x17
 8147 0cea 770B0000 		.4byte	.LASF76
 8148 0cee 02       		.byte	0x2
 8149 0cef 0C01     		.2byte	0x10c
 8150 0cf1 F1000000 		.4byte	0xf1
 8151 0cf5 EB060000 		.4byte	.LLST42
 8152 0cf9 17       		.uleb128 0x17
 8153 0cfa 09050000 		.4byte	.LASF77
 8154 0cfe 02       		.byte	0x2
 8155 0cff 0D01     		.2byte	0x10d
 8156 0d01 F1000000 		.4byte	0xf1
 8157 0d05 20070000 		.4byte	.LLST43
 8158 0d09 26       		.uleb128 0x26
 8159 0d0a 30000000 		.4byte	.Ldebug_ranges0+0x30
 8160 0d0e 18       		.uleb128 0x18
 8161 0d0f 6900     		.ascii	"i\000"
 8162 0d11 02       		.byte	0x2
 8163 0d12 0F01     		.2byte	0x10f
 8164 0d14 CD000000 		.4byte	0xcd
 8165 0d18 55070000 		.4byte	.LLST44
 8166 0d1c 19       		.uleb128 0x19
 8167 0d1d 16000000 		.4byte	.LBB22
 8168 0d21 8A000000 		.4byte	.LBE22-.LBB22
 8169 0d25 17       		.uleb128 0x17
 8170 0d26 10040000 		.4byte	.LASF78
 8171 0d2a 02       		.byte	0x2
 8172 0d2b 1301     		.2byte	0x113
 8173 0d2d F1000000 		.4byte	0xf1
 8174 0d31 74070000 		.4byte	.LLST45
 8175 0d35 12       		.uleb128 0x12
 8176 0d36 1A000000 		.4byte	.LVL202
 8177 0d3a 46370000 		.4byte	0x3746
 8178 0d3e 1C       		.uleb128 0x1c
 8179 0d3f 20000000 		.4byte	.LVL203
 8180 0d43 51370000 		.4byte	0x3751
 8181 0d47 510D0000 		.4byte	0xd51
 8182 0d4b 1B       		.uleb128 0x1b
 8183 0d4c 01       		.uleb128 0x1
 8184 0d4d 50       		.byte	0x50
ARM GAS  C:\Users\FRANKL~1\AppData\Local\Temp\ccba5qpo.s 			page 181


 8185 0d4e 01       		.uleb128 0x1
 8186 0d4f 31       		.byte	0x31
 8187 0d50 00       		.byte	0
 8188 0d51 12       		.uleb128 0x12
 8189 0d52 28000000 		.4byte	.LVL204
 8190 0d56 5C370000 		.4byte	0x375c
 8191 0d5a 12       		.uleb128 0x12
 8192 0d5b 2C000000 		.4byte	.LVL205
 8193 0d5f 67370000 		.4byte	0x3767
 8194 0d63 00       		.byte	0
 8195 0d64 00       		.byte	0
 8196 0d65 00       		.byte	0
 8197 0d66 05       		.uleb128 0x5
 8198 0d67 04       		.byte	0x4
 8199 0d68 F1000000 		.4byte	0xf1
 8200 0d6c 24       		.uleb128 0x24
 8201 0d6d 190A0000 		.4byte	.LASF79
 8202 0d71 02       		.byte	0x2
 8203 0d72 1E01     		.2byte	0x11e
 8204 0d74 00000000 		.4byte	.LFB85
 8205 0d78 B6000000 		.4byte	.LFE85-.LFB85
 8206 0d7c 01       		.uleb128 0x1
 8207 0d7d 9C       		.byte	0x9c
 8208 0d7e 2F0E0000 		.4byte	0xe2f
 8209 0d82 25       		.uleb128 0x25
 8210 0d83 CB000000 		.4byte	.LASF73
 8211 0d87 02       		.byte	0x2
 8212 0d88 1E01     		.2byte	0x11e
 8213 0d8a 660D0000 		.4byte	0xd66
 8214 0d8e 92070000 		.4byte	.LLST46
 8215 0d92 25       		.uleb128 0x25
 8216 0d93 B4080000 		.4byte	.LASF74
 8217 0d97 02       		.byte	0x2
 8218 0d98 1E01     		.2byte	0x11e
 8219 0d9a 660D0000 		.4byte	0xd66
 8220 0d9e BD070000 		.4byte	.LLST47
 8221 0da2 25       		.uleb128 0x25
 8222 0da3 59070000 		.4byte	.LASF75
 8223 0da7 02       		.byte	0x2
 8224 0da8 1E01     		.2byte	0x11e
 8225 0daa CD000000 		.4byte	0xcd
 8226 0dae DC070000 		.4byte	.LLST48
 8227 0db2 17       		.uleb128 0x17
 8228 0db3 33050000 		.4byte	.LASF80
 8229 0db7 02       		.byte	0x2
 8230 0db8 1F01     		.2byte	0x11f
 8231 0dba F1000000 		.4byte	0xf1
 8232 0dbe FA070000 		.4byte	.LLST49
 8233 0dc2 17       		.uleb128 0x17
 8234 0dc3 CB050000 		.4byte	.LASF81
 8235 0dc7 02       		.byte	0x2
 8236 0dc8 2001     		.2byte	0x120
 8237 0dca F1000000 		.4byte	0xf1
 8238 0dce 2F080000 		.4byte	.LLST50
 8239 0dd2 26       		.uleb128 0x26
 8240 0dd3 48000000 		.4byte	.Ldebug_ranges0+0x48
 8241 0dd7 18       		.uleb128 0x18
ARM GAS  C:\Users\FRANKL~1\AppData\Local\Temp\ccba5qpo.s 			page 182


 8242 0dd8 6900     		.ascii	"i\000"
 8243 0dda 02       		.byte	0x2
 8244 0ddb 2201     		.2byte	0x122
 8245 0ddd CD000000 		.4byte	0xcd
 8246 0de1 64080000 		.4byte	.LLST51
 8247 0de5 19       		.uleb128 0x19
 8248 0de6 16000000 		.4byte	.LBB25
 8249 0dea 8A000000 		.4byte	.LBE25-.LBB25
 8250 0dee 17       		.uleb128 0x17
 8251 0def 76010000 		.4byte	.LASF82
 8252 0df3 02       		.byte	0x2
 8253 0df4 2601     		.2byte	0x126
 8254 0df6 F1000000 		.4byte	0xf1
 8255 0dfa 83080000 		.4byte	.LLST52
 8256 0dfe 12       		.uleb128 0x12
 8257 0dff 1A000000 		.4byte	.LVL233
 8258 0e03 72370000 		.4byte	0x3772
 8259 0e07 1C       		.uleb128 0x1c
 8260 0e08 20000000 		.4byte	.LVL234
 8261 0e0c 7D370000 		.4byte	0x377d
 8262 0e10 1A0E0000 		.4byte	0xe1a
 8263 0e14 1B       		.uleb128 0x1b
 8264 0e15 01       		.uleb128 0x1
 8265 0e16 50       		.byte	0x50
 8266 0e17 01       		.uleb128 0x1
 8267 0e18 31       		.byte	0x31
 8268 0e19 00       		.byte	0
 8269 0e1a 12       		.uleb128 0x12
 8270 0e1b 28000000 		.4byte	.LVL235
 8271 0e1f 88370000 		.4byte	0x3788
 8272 0e23 12       		.uleb128 0x12
 8273 0e24 2C000000 		.4byte	.LVL236
 8274 0e28 93370000 		.4byte	0x3793
 8275 0e2c 00       		.byte	0
 8276 0e2d 00       		.byte	0
 8277 0e2e 00       		.byte	0
 8278 0e2f 24       		.uleb128 0x24
 8279 0e30 C1060000 		.4byte	.LASF83
 8280 0e34 02       		.byte	0x2
 8281 0e35 3101     		.2byte	0x131
 8282 0e37 00000000 		.4byte	.LFB86
 8283 0e3b B6000000 		.4byte	.LFE86-.LFB86
 8284 0e3f 01       		.uleb128 0x1
 8285 0e40 9C       		.byte	0x9c
 8286 0e41 F20E0000 		.4byte	0xef2
 8287 0e45 25       		.uleb128 0x25
 8288 0e46 CB000000 		.4byte	.LASF73
 8289 0e4a 02       		.byte	0x2
 8290 0e4b 3101     		.2byte	0x131
 8291 0e4d 660D0000 		.4byte	0xd66
 8292 0e51 A1080000 		.4byte	.LLST53
 8293 0e55 25       		.uleb128 0x25
 8294 0e56 B4080000 		.4byte	.LASF74
 8295 0e5a 02       		.byte	0x2
 8296 0e5b 3101     		.2byte	0x131
 8297 0e5d 660D0000 		.4byte	0xd66
 8298 0e61 CC080000 		.4byte	.LLST54
ARM GAS  C:\Users\FRANKL~1\AppData\Local\Temp\ccba5qpo.s 			page 183


 8299 0e65 25       		.uleb128 0x25
 8300 0e66 59070000 		.4byte	.LASF75
 8301 0e6a 02       		.byte	0x2
 8302 0e6b 3101     		.2byte	0x131
 8303 0e6d CD000000 		.4byte	0xcd
 8304 0e71 EB080000 		.4byte	.LLST55
 8305 0e75 17       		.uleb128 0x17
 8306 0e76 33050000 		.4byte	.LASF80
 8307 0e7a 02       		.byte	0x2
 8308 0e7b 3201     		.2byte	0x132
 8309 0e7d F1000000 		.4byte	0xf1
 8310 0e81 09090000 		.4byte	.LLST56
 8311 0e85 17       		.uleb128 0x17
 8312 0e86 CB050000 		.4byte	.LASF81
 8313 0e8a 02       		.byte	0x2
 8314 0e8b 3301     		.2byte	0x133
 8315 0e8d F1000000 		.4byte	0xf1
 8316 0e91 3E090000 		.4byte	.LLST57
 8317 0e95 26       		.uleb128 0x26
 8318 0e96 60000000 		.4byte	.Ldebug_ranges0+0x60
 8319 0e9a 18       		.uleb128 0x18
 8320 0e9b 6900     		.ascii	"i\000"
 8321 0e9d 02       		.byte	0x2
 8322 0e9e 3501     		.2byte	0x135
 8323 0ea0 CD000000 		.4byte	0xcd
 8324 0ea4 73090000 		.4byte	.LLST58
 8325 0ea8 19       		.uleb128 0x19
 8326 0ea9 16000000 		.4byte	.LBB28
 8327 0ead 8A000000 		.4byte	.LBE28-.LBB28
 8328 0eb1 17       		.uleb128 0x17
 8329 0eb2 5E0D0000 		.4byte	.LASF84
 8330 0eb6 02       		.byte	0x2
 8331 0eb7 3901     		.2byte	0x139
 8332 0eb9 F1000000 		.4byte	0xf1
 8333 0ebd 92090000 		.4byte	.LLST59
 8334 0ec1 12       		.uleb128 0x12
 8335 0ec2 1A000000 		.4byte	.LVL264
 8336 0ec6 9E370000 		.4byte	0x379e
 8337 0eca 1C       		.uleb128 0x1c
 8338 0ecb 20000000 		.4byte	.LVL265
 8339 0ecf A9370000 		.4byte	0x37a9
 8340 0ed3 DD0E0000 		.4byte	0xedd
 8341 0ed7 1B       		.uleb128 0x1b
 8342 0ed8 01       		.uleb128 0x1
 8343 0ed9 50       		.byte	0x50
 8344 0eda 01       		.uleb128 0x1
 8345 0edb 31       		.byte	0x31
 8346 0edc 00       		.byte	0
 8347 0edd 12       		.uleb128 0x12
 8348 0ede 28000000 		.4byte	.LVL266
 8349 0ee2 B4370000 		.4byte	0x37b4
 8350 0ee6 12       		.uleb128 0x12
 8351 0ee7 2C000000 		.4byte	.LVL267
 8352 0eeb BF370000 		.4byte	0x37bf
 8353 0eef 00       		.byte	0
 8354 0ef0 00       		.byte	0
 8355 0ef1 00       		.byte	0
ARM GAS  C:\Users\FRANKL~1\AppData\Local\Temp\ccba5qpo.s 			page 184


 8356 0ef2 24       		.uleb128 0x24
 8357 0ef3 2F020000 		.4byte	.LASF85
 8358 0ef7 02       		.byte	0x2
 8359 0ef8 4401     		.2byte	0x144
 8360 0efa 00000000 		.4byte	.LFB87
 8361 0efe 44010000 		.4byte	.LFE87-.LFB87
 8362 0f02 01       		.uleb128 0x1
 8363 0f03 9C       		.byte	0x9c
 8364 0f04 F50F0000 		.4byte	0xff5
 8365 0f08 25       		.uleb128 0x25
 8366 0f09 CA040000 		.4byte	.LASF86
 8367 0f0d 02       		.byte	0x2
 8368 0f0e 4401     		.2byte	0x144
 8369 0f10 F50F0000 		.4byte	0xff5
 8370 0f14 B0090000 		.4byte	.LLST60
 8371 0f18 25       		.uleb128 0x25
 8372 0f19 35080000 		.4byte	.LASF87
 8373 0f1d 02       		.byte	0x2
 8374 0f1e 4401     		.2byte	0x144
 8375 0f20 F50F0000 		.4byte	0xff5
 8376 0f24 DB090000 		.4byte	.LLST61
 8377 0f28 25       		.uleb128 0x25
 8378 0f29 59070000 		.4byte	.LASF75
 8379 0f2d 02       		.byte	0x2
 8380 0f2e 4401     		.2byte	0x144
 8381 0f30 CD000000 		.4byte	0xcd
 8382 0f34 060A0000 		.4byte	.LLST62
 8383 0f38 16       		.uleb128 0x16
 8384 0f39 9F050000 		.4byte	.LASF88
 8385 0f3d 02       		.byte	0x2
 8386 0f3e 4801     		.2byte	0x148
 8387 0f40 F1000000 		.4byte	0xf1
 8388 0f44 02       		.uleb128 0x2
 8389 0f45 91       		.byte	0x91
 8390 0f46 54       		.sleb128 -44
 8391 0f47 16       		.uleb128 0x16
 8392 0f48 C1050000 		.4byte	.LASF89
 8393 0f4c 02       		.byte	0x2
 8394 0f4d 4901     		.2byte	0x149
 8395 0f4f F1000000 		.4byte	0xf1
 8396 0f53 02       		.uleb128 0x2
 8397 0f54 91       		.byte	0x91
 8398 0f55 50       		.sleb128 -48
 8399 0f56 17       		.uleb128 0x17
 8400 0f57 A1080000 		.4byte	.LASF90
 8401 0f5b 02       		.byte	0x2
 8402 0f5c 4C01     		.2byte	0x14c
 8403 0f5e 25000000 		.4byte	0x25
 8404 0f62 320A0000 		.4byte	.LLST63
 8405 0f66 17       		.uleb128 0x17
 8406 0f67 1F060000 		.4byte	.LASF91
 8407 0f6b 02       		.byte	0x2
 8408 0f6c 4E01     		.2byte	0x14e
 8409 0f6e 25000000 		.4byte	0x25
 8410 0f72 600A0000 		.4byte	.LLST64
 8411 0f76 17       		.uleb128 0x17
 8412 0f77 CF010000 		.4byte	.LASF92
ARM GAS  C:\Users\FRANKL~1\AppData\Local\Temp\ccba5qpo.s 			page 185


 8413 0f7b 02       		.byte	0x2
 8414 0f7c 4F01     		.2byte	0x14f
 8415 0f7e 25000000 		.4byte	0x25
 8416 0f82 990A0000 		.4byte	.LLST65
 8417 0f86 17       		.uleb128 0x17
 8418 0f87 36010000 		.4byte	.LASF93
 8419 0f8b 02       		.byte	0x2
 8420 0f8c 5101     		.2byte	0x151
 8421 0f8e 25000000 		.4byte	0x25
 8422 0f92 DE0A0000 		.4byte	.LLST66
 8423 0f96 17       		.uleb128 0x17
 8424 0f97 34040000 		.4byte	.LASF94
 8425 0f9b 02       		.byte	0x2
 8426 0f9c 5201     		.2byte	0x152
 8427 0f9e 25000000 		.4byte	0x25
 8428 0fa2 F20A0000 		.4byte	.LLST67
 8429 0fa6 1F       		.uleb128 0x1f
 8430 0fa7 78000000 		.4byte	.Ldebug_ranges0+0x78
 8431 0fab D90F0000 		.4byte	0xfd9
 8432 0faf 18       		.uleb128 0x18
 8433 0fb0 6900     		.ascii	"i\000"
 8434 0fb2 02       		.byte	0x2
 8435 0fb3 5801     		.2byte	0x158
 8436 0fb5 CD000000 		.4byte	0xcd
 8437 0fb9 1D0B0000 		.4byte	.LLST68
 8438 0fbd 1A       		.uleb128 0x1a
 8439 0fbe 5A000000 		.4byte	.LVL304
 8440 0fc2 A30C0000 		.4byte	0xca3
 8441 0fc6 1B       		.uleb128 0x1b
 8442 0fc7 01       		.uleb128 0x1
 8443 0fc8 50       		.byte	0x50
 8444 0fc9 02       		.uleb128 0x2
 8445 0fca 91       		.byte	0x91
 8446 0fcb 54       		.sleb128 -44
 8447 0fcc 1B       		.uleb128 0x1b
 8448 0fcd 01       		.uleb128 0x1
 8449 0fce 51       		.byte	0x51
 8450 0fcf 02       		.uleb128 0x2
 8451 0fd0 91       		.byte	0x91
 8452 0fd1 50       		.sleb128 -48
 8453 0fd2 1B       		.uleb128 0x1b
 8454 0fd3 01       		.uleb128 0x1
 8455 0fd4 52       		.byte	0x52
 8456 0fd5 01       		.uleb128 0x1
 8457 0fd6 31       		.byte	0x31
 8458 0fd7 00       		.byte	0
 8459 0fd8 00       		.byte	0
 8460 0fd9 1A       		.uleb128 0x1a
 8461 0fda 46000000 		.4byte	.LVL302
 8462 0fde A30C0000 		.4byte	0xca3
 8463 0fe2 1B       		.uleb128 0x1b
 8464 0fe3 01       		.uleb128 0x1
 8465 0fe4 50       		.byte	0x50
 8466 0fe5 02       		.uleb128 0x2
 8467 0fe6 91       		.byte	0x91
 8468 0fe7 54       		.sleb128 -44
 8469 0fe8 1B       		.uleb128 0x1b
ARM GAS  C:\Users\FRANKL~1\AppData\Local\Temp\ccba5qpo.s 			page 186


 8470 0fe9 01       		.uleb128 0x1
 8471 0fea 51       		.byte	0x51
 8472 0feb 02       		.uleb128 0x2
 8473 0fec 74       		.byte	0x74
 8474 0fed 00       		.sleb128 0
 8475 0fee 1B       		.uleb128 0x1b
 8476 0fef 01       		.uleb128 0x1
 8477 0ff0 52       		.byte	0x52
 8478 0ff1 01       		.uleb128 0x1
 8479 0ff2 33       		.byte	0x33
 8480 0ff3 00       		.byte	0
 8481 0ff4 00       		.byte	0
 8482 0ff5 05       		.uleb128 0x5
 8483 0ff6 04       		.byte	0x4
 8484 0ff7 25000000 		.4byte	0x25
 8485 0ffb 27       		.uleb128 0x27
 8486 0ffc 610B0000 		.4byte	.LASF95
 8487 1000 02       		.byte	0x2
 8488 1001 6C01     		.2byte	0x16c
 8489 1003 B5000000 		.4byte	0xb5
 8490 1007 00000000 		.4byte	.LFB88
 8491 100b 54000000 		.4byte	.LFE88-.LFB88
 8492 100f 01       		.uleb128 0x1
 8493 1010 9C       		.byte	0x9c
 8494 1011 4F100000 		.4byte	0x104f
 8495 1015 16       		.uleb128 0x16
 8496 1016 AC080000 		.4byte	.LASF96
 8497 101a 02       		.byte	0x2
 8498 101b 6F01     		.2byte	0x16f
 8499 101d 25000000 		.4byte	0x25
 8500 1021 02       		.uleb128 0x2
 8501 1022 91       		.byte	0x91
 8502 1023 74       		.sleb128 -12
 8503 1024 16       		.uleb128 0x16
 8504 1025 82000000 		.4byte	.LASF97
 8505 1029 02       		.byte	0x2
 8506 102a 7001     		.2byte	0x170
 8507 102c 25000000 		.4byte	0x25
 8508 1030 02       		.uleb128 0x2
 8509 1031 91       		.byte	0x91
 8510 1032 70       		.sleb128 -16
 8511 1033 1A       		.uleb128 0x1a
 8512 1034 1C000000 		.4byte	.LVL330
 8513 1038 F20E0000 		.4byte	0xef2
 8514 103c 1B       		.uleb128 0x1b
 8515 103d 01       		.uleb128 0x1
 8516 103e 50       		.byte	0x50
 8517 103f 02       		.uleb128 0x2
 8518 1040 91       		.byte	0x91
 8519 1041 74       		.sleb128 -12
 8520 1042 1B       		.uleb128 0x1b
 8521 1043 01       		.uleb128 0x1
 8522 1044 51       		.byte	0x51
 8523 1045 02       		.uleb128 0x2
 8524 1046 91       		.byte	0x91
 8525 1047 70       		.sleb128 -16
 8526 1048 1B       		.uleb128 0x1b
ARM GAS  C:\Users\FRANKL~1\AppData\Local\Temp\ccba5qpo.s 			page 187


 8527 1049 01       		.uleb128 0x1
 8528 104a 52       		.byte	0x52
 8529 104b 01       		.uleb128 0x1
 8530 104c 33       		.byte	0x33
 8531 104d 00       		.byte	0
 8532 104e 00       		.byte	0
 8533 104f 28       		.uleb128 0x28
 8534 1050 7A070000 		.4byte	.LASF98
 8535 1054 02       		.byte	0x2
 8536 1055 7C01     		.2byte	0x17c
 8537 1057 00000000 		.4byte	.LFB89
 8538 105b 68000000 		.4byte	.LFE89-.LFB89
 8539 105f 01       		.uleb128 0x1
 8540 1060 9C       		.byte	0x9c
 8541 1061 04110000 		.4byte	0x1104
 8542 1065 17       		.uleb128 0x17
 8543 1066 B9010000 		.4byte	.LASF99
 8544 106a 02       		.byte	0x2
 8545 106b 7D01     		.2byte	0x17d
 8546 106d B5000000 		.4byte	0xb5
 8547 1071 3C0B0000 		.4byte	.LLST69
 8548 1075 17       		.uleb128 0x17
 8549 1076 0C060000 		.4byte	.LASF100
 8550 107a 02       		.byte	0x2
 8551 107b 7E01     		.2byte	0x17e
 8552 107d B5000000 		.4byte	0xb5
 8553 1081 5A0B0000 		.4byte	.LLST70
 8554 1085 17       		.uleb128 0x17
 8555 1086 98030000 		.4byte	.LASF101
 8556 108a 02       		.byte	0x2
 8557 108b 7F01     		.2byte	0x17f
 8558 108d D9000000 		.4byte	0xd9
 8559 1091 780B0000 		.4byte	.LLST71
 8560 1095 15       		.uleb128 0x15
 8561 1096 1A000000 		.4byte	.LBB32
 8562 109a 16000000 		.4byte	.LBE32-.LBB32
 8563 109e CE100000 		.4byte	0x10ce
 8564 10a2 18       		.uleb128 0x18
 8565 10a3 6900     		.ascii	"i\000"
 8566 10a5 02       		.byte	0x2
 8567 10a6 8201     		.2byte	0x182
 8568 10a8 B5000000 		.4byte	0xb5
 8569 10ac AE0B0000 		.4byte	.LLST72
 8570 10b0 1C       		.uleb128 0x1c
 8571 10b1 22000000 		.4byte	.LVL338
 8572 10b5 CA370000 		.4byte	0x37ca
 8573 10b9 C4100000 		.4byte	0x10c4
 8574 10bd 1B       		.uleb128 0x1b
 8575 10be 01       		.uleb128 0x1
 8576 10bf 50       		.byte	0x50
 8577 10c0 02       		.uleb128 0x2
 8578 10c1 74       		.byte	0x74
 8579 10c2 00       		.sleb128 0
 8580 10c3 00       		.byte	0
 8581 10c4 12       		.uleb128 0x12
 8582 10c5 26000000 		.4byte	.LVL339
 8583 10c9 FB0F0000 		.4byte	0xffb
ARM GAS  C:\Users\FRANKL~1\AppData\Local\Temp\ccba5qpo.s 			page 188


 8584 10cd 00       		.byte	0
 8585 10ce 19       		.uleb128 0x19
 8586 10cf 48000000 		.4byte	.LBB33
 8587 10d3 20000000 		.4byte	.LBE33-.LBB33
 8588 10d7 18       		.uleb128 0x18
 8589 10d8 6900     		.ascii	"i\000"
 8590 10da 02       		.byte	0x2
 8591 10db 8D01     		.2byte	0x18d
 8592 10dd B5000000 		.4byte	0xb5
 8593 10e1 CC0B0000 		.4byte	.LLST73
 8594 10e5 1C       		.uleb128 0x1c
 8595 10e6 50000000 		.4byte	.LVL348
 8596 10ea D5370000 		.4byte	0x37d5
 8597 10ee F9100000 		.4byte	0x10f9
 8598 10f2 1B       		.uleb128 0x1b
 8599 10f3 01       		.uleb128 0x1
 8600 10f4 50       		.byte	0x50
 8601 10f5 02       		.uleb128 0x2
 8602 10f6 74       		.byte	0x74
 8603 10f7 00       		.sleb128 0
 8604 10f8 00       		.byte	0
 8605 10f9 12       		.uleb128 0x12
 8606 10fa 54000000 		.4byte	.LVL349
 8607 10fe FB0F0000 		.4byte	0xffb
 8608 1102 00       		.byte	0
 8609 1103 00       		.byte	0
 8610 1104 27       		.uleb128 0x27
 8611 1105 6D000000 		.4byte	.LASF102
 8612 1109 02       		.byte	0x2
 8613 110a 9701     		.2byte	0x197
 8614 110c 25000000 		.4byte	0x25
 8615 1110 00000000 		.4byte	.LFB90
 8616 1114 30000000 		.4byte	.LFE90-.LFB90
 8617 1118 01       		.uleb128 0x1
 8618 1119 9C       		.byte	0x9c
 8619 111a 2D110000 		.4byte	0x112d
 8620 111e 16       		.uleb128 0x16
 8621 111f E8010000 		.4byte	.LASF103
 8622 1123 02       		.byte	0x2
 8623 1124 9801     		.2byte	0x198
 8624 1126 25000000 		.4byte	0x25
 8625 112a 01       		.uleb128 0x1
 8626 112b 50       		.byte	0x50
 8627 112c 00       		.byte	0
 8628 112d 27       		.uleb128 0x27
 8629 112e 3D0E0000 		.4byte	.LASF104
 8630 1132 02       		.byte	0x2
 8631 1133 A001     		.2byte	0x1a0
 8632 1135 25000000 		.4byte	0x25
 8633 1139 00000000 		.4byte	.LFB91
 8634 113d 48000000 		.4byte	.LFE91-.LFB91
 8635 1141 01       		.uleb128 0x1
 8636 1142 9C       		.byte	0x9c
 8637 1143 5F110000 		.4byte	0x115f
 8638 1147 16       		.uleb128 0x16
 8639 1148 E8010000 		.4byte	.LASF103
 8640 114c 02       		.byte	0x2
ARM GAS  C:\Users\FRANKL~1\AppData\Local\Temp\ccba5qpo.s 			page 189


 8641 114d A101     		.2byte	0x1a1
 8642 114f 25000000 		.4byte	0x25
 8643 1153 01       		.uleb128 0x1
 8644 1154 50       		.byte	0x50
 8645 1155 12       		.uleb128 0x12
 8646 1156 1C000000 		.4byte	.LVL359
 8647 115a 04110000 		.4byte	0x1104
 8648 115e 00       		.byte	0
 8649 115f 27       		.uleb128 0x27
 8650 1160 F80C0000 		.4byte	.LASF105
 8651 1164 02       		.byte	0x2
 8652 1165 A901     		.2byte	0x1a9
 8653 1167 25000000 		.4byte	0x25
 8654 116b 00000000 		.4byte	.LFB92
 8655 116f 48000000 		.4byte	.LFE92-.LFB92
 8656 1173 01       		.uleb128 0x1
 8657 1174 9C       		.byte	0x9c
 8658 1175 91110000 		.4byte	0x1191
 8659 1179 16       		.uleb128 0x16
 8660 117a E8010000 		.4byte	.LASF103
 8661 117e 02       		.byte	0x2
 8662 117f AA01     		.2byte	0x1aa
 8663 1181 25000000 		.4byte	0x25
 8664 1185 01       		.uleb128 0x1
 8665 1186 50       		.byte	0x50
 8666 1187 12       		.uleb128 0x12
 8667 1188 1C000000 		.4byte	.LVL365
 8668 118c 04110000 		.4byte	0x1104
 8669 1190 00       		.byte	0
 8670 1191 14       		.uleb128 0x14
 8671 1192 8F0E0000 		.4byte	.LASF106
 8672 1196 02       		.byte	0x2
 8673 1197 B401     		.2byte	0x1b4
 8674 1199 00000000 		.4byte	.LFB93
 8675 119d 74000000 		.4byte	.LFE93-.LFB93
 8676 11a1 01       		.uleb128 0x1
 8677 11a2 9C       		.byte	0x9c
 8678 11a3 50120000 		.4byte	0x1250
 8679 11a7 25       		.uleb128 0x25
 8680 11a8 EA030000 		.4byte	.LASF107
 8681 11ac 02       		.byte	0x2
 8682 11ad B401     		.2byte	0x1b4
 8683 11af B5000000 		.4byte	0xb5
 8684 11b3 EA0B0000 		.4byte	.LLST74
 8685 11b7 17       		.uleb128 0x17
 8686 11b8 B9010000 		.4byte	.LASF99
 8687 11bc 02       		.byte	0x2
 8688 11bd B701     		.2byte	0x1b7
 8689 11bf B5000000 		.4byte	0xb5
 8690 11c3 0B0C0000 		.4byte	.LLST75
 8691 11c7 17       		.uleb128 0x17
 8692 11c8 98030000 		.4byte	.LASF101
 8693 11cc 02       		.byte	0x2
 8694 11cd B801     		.2byte	0x1b8
 8695 11cf D9000000 		.4byte	0xd9
 8696 11d3 1E0C0000 		.4byte	.LLST76
 8697 11d7 19       		.uleb128 0x19
ARM GAS  C:\Users\FRANKL~1\AppData\Local\Temp\ccba5qpo.s 			page 190


 8698 11d8 22000000 		.4byte	.LBB34
 8699 11dc 52000000 		.4byte	.LBE34-.LBB34
 8700 11e0 18       		.uleb128 0x18
 8701 11e1 6900     		.ascii	"i\000"
 8702 11e3 02       		.byte	0x2
 8703 11e4 BB01     		.2byte	0x1bb
 8704 11e6 B5000000 		.4byte	0xb5
 8705 11ea 3D0C0000 		.4byte	.LLST77
 8706 11ee 1F       		.uleb128 0x1f
 8707 11ef 90000000 		.4byte	.Ldebug_ranges0+0x90
 8708 11f3 23120000 		.4byte	0x1223
 8709 11f7 18       		.uleb128 0x18
 8710 11f8 6A00     		.ascii	"j\000"
 8711 11fa 02       		.byte	0x2
 8712 11fb BD01     		.2byte	0x1bd
 8713 11fd B5000000 		.4byte	0xb5
 8714 1201 670C0000 		.4byte	.LLST78
 8715 1205 1C       		.uleb128 0x1c
 8716 1206 34000000 		.4byte	.LVL375
 8717 120a CA370000 		.4byte	0x37ca
 8718 120e 19120000 		.4byte	0x1219
 8719 1212 1B       		.uleb128 0x1b
 8720 1213 01       		.uleb128 0x1
 8721 1214 50       		.byte	0x50
 8722 1215 02       		.uleb128 0x2
 8723 1216 74       		.byte	0x74
 8724 1217 00       		.sleb128 0
 8725 1218 00       		.byte	0
 8726 1219 12       		.uleb128 0x12
 8727 121a 38000000 		.4byte	.LVL376
 8728 121e FB0F0000 		.4byte	0xffb
 8729 1222 00       		.byte	0
 8730 1223 12       		.uleb128 0x12
 8731 1224 2A000000 		.4byte	.LVL373
 8732 1228 FB0F0000 		.4byte	0xffb
 8733 122c 12       		.uleb128 0x12
 8734 122d 4A000000 		.4byte	.LVL381
 8735 1231 FB0F0000 		.4byte	0xffb
 8736 1235 12       		.uleb128 0x12
 8737 1236 50000000 		.4byte	.LVL382
 8738 123a 4F100000 		.4byte	0x104f
 8739 123e 1A       		.uleb128 0x1a
 8740 123f 5A000000 		.4byte	.LVL384
 8741 1243 CA370000 		.4byte	0x37ca
 8742 1247 1B       		.uleb128 0x1b
 8743 1248 01       		.uleb128 0x1
 8744 1249 50       		.byte	0x50
 8745 124a 02       		.uleb128 0x2
 8746 124b 77       		.byte	0x77
 8747 124c 00       		.sleb128 0
 8748 124d 00       		.byte	0
 8749 124e 00       		.byte	0
 8750 124f 00       		.byte	0
 8751 1250 14       		.uleb128 0x14
 8752 1251 2A010000 		.4byte	.LASF108
 8753 1255 02       		.byte	0x2
 8754 1256 CD01     		.2byte	0x1cd
ARM GAS  C:\Users\FRANKL~1\AppData\Local\Temp\ccba5qpo.s 			page 191


 8755 1258 00000000 		.4byte	.LFB94
 8756 125c 74000000 		.4byte	.LFE94-.LFB94
 8757 1260 01       		.uleb128 0x1
 8758 1261 9C       		.byte	0x9c
 8759 1262 0F130000 		.4byte	0x130f
 8760 1266 25       		.uleb128 0x25
 8761 1267 EA030000 		.4byte	.LASF107
 8762 126b 02       		.byte	0x2
 8763 126c CD01     		.2byte	0x1cd
 8764 126e B5000000 		.4byte	0xb5
 8765 1272 900C0000 		.4byte	.LLST79
 8766 1276 17       		.uleb128 0x17
 8767 1277 98030000 		.4byte	.LASF101
 8768 127b 02       		.byte	0x2
 8769 127c D001     		.2byte	0x1d0
 8770 127e D9000000 		.4byte	0xd9
 8771 1282 B10C0000 		.4byte	.LLST80
 8772 1286 17       		.uleb128 0x17
 8773 1287 B9010000 		.4byte	.LASF99
 8774 128b 02       		.byte	0x2
 8775 128c D101     		.2byte	0x1d1
 8776 128e B5000000 		.4byte	0xb5
 8777 1292 D00C0000 		.4byte	.LLST81
 8778 1296 19       		.uleb128 0x19
 8779 1297 22000000 		.4byte	.LBB37
 8780 129b 52000000 		.4byte	.LBE37-.LBB37
 8781 129f 18       		.uleb128 0x18
 8782 12a0 6900     		.ascii	"i\000"
 8783 12a2 02       		.byte	0x2
 8784 12a3 D401     		.2byte	0x1d4
 8785 12a5 B5000000 		.4byte	0xb5
 8786 12a9 E30C0000 		.4byte	.LLST82
 8787 12ad 1F       		.uleb128 0x1f
 8788 12ae A8000000 		.4byte	.Ldebug_ranges0+0xa8
 8789 12b2 E2120000 		.4byte	0x12e2
 8790 12b6 18       		.uleb128 0x18
 8791 12b7 6A00     		.ascii	"j\000"
 8792 12b9 02       		.byte	0x2
 8793 12ba D601     		.2byte	0x1d6
 8794 12bc B5000000 		.4byte	0xb5
 8795 12c0 0C0D0000 		.4byte	.LLST83
 8796 12c4 1C       		.uleb128 0x1c
 8797 12c5 34000000 		.4byte	.LVL395
 8798 12c9 D5370000 		.4byte	0x37d5
 8799 12cd D8120000 		.4byte	0x12d8
 8800 12d1 1B       		.uleb128 0x1b
 8801 12d2 01       		.uleb128 0x1
 8802 12d3 50       		.byte	0x50
 8803 12d4 02       		.uleb128 0x2
 8804 12d5 74       		.byte	0x74
 8805 12d6 00       		.sleb128 0
 8806 12d7 00       		.byte	0
 8807 12d8 12       		.uleb128 0x12
 8808 12d9 38000000 		.4byte	.LVL396
 8809 12dd FB0F0000 		.4byte	0xffb
 8810 12e1 00       		.byte	0
 8811 12e2 12       		.uleb128 0x12
ARM GAS  C:\Users\FRANKL~1\AppData\Local\Temp\ccba5qpo.s 			page 192


 8812 12e3 2A000000 		.4byte	.LVL393
 8813 12e7 FB0F0000 		.4byte	0xffb
 8814 12eb 12       		.uleb128 0x12
 8815 12ec 4A000000 		.4byte	.LVL401
 8816 12f0 FB0F0000 		.4byte	0xffb
 8817 12f4 12       		.uleb128 0x12
 8818 12f5 50000000 		.4byte	.LVL402
 8819 12f9 4F100000 		.4byte	0x104f
 8820 12fd 1A       		.uleb128 0x1a
 8821 12fe 5A000000 		.4byte	.LVL404
 8822 1302 D5370000 		.4byte	0x37d5
 8823 1306 1B       		.uleb128 0x1b
 8824 1307 01       		.uleb128 0x1
 8825 1308 50       		.byte	0x50
 8826 1309 02       		.uleb128 0x2
 8827 130a 77       		.byte	0x77
 8828 130b 00       		.sleb128 0
 8829 130c 00       		.byte	0
 8830 130d 00       		.byte	0
 8831 130e 00       		.byte	0
 8832 130f 14       		.uleb128 0x14
 8833 1310 3E050000 		.4byte	.LASF109
 8834 1314 02       		.byte	0x2
 8835 1315 E601     		.2byte	0x1e6
 8836 1317 00000000 		.4byte	.LFB95
 8837 131b 84000000 		.4byte	.LFE95-.LFB95
 8838 131f 01       		.uleb128 0x1
 8839 1320 9C       		.byte	0x9c
 8840 1321 C9130000 		.4byte	0x13c9
 8841 1325 25       		.uleb128 0x25
 8842 1326 EA030000 		.4byte	.LASF107
 8843 132a 02       		.byte	0x2
 8844 132b E601     		.2byte	0x1e6
 8845 132d B5000000 		.4byte	0xb5
 8846 1331 350D0000 		.4byte	.LLST84
 8847 1335 17       		.uleb128 0x17
 8848 1336 98030000 		.4byte	.LASF101
 8849 133a 02       		.byte	0x2
 8850 133b E901     		.2byte	0x1e9
 8851 133d D9000000 		.4byte	0xd9
 8852 1341 530D0000 		.4byte	.LLST85
 8853 1345 19       		.uleb128 0x19
 8854 1346 20000000 		.4byte	.LBB40
 8855 134a 64000000 		.4byte	.LBE40-.LBB40
 8856 134e 18       		.uleb128 0x18
 8857 134f 6900     		.ascii	"i\000"
 8858 1351 02       		.byte	0x2
 8859 1352 EC01     		.2byte	0x1ec
 8860 1354 B5000000 		.4byte	0xb5
 8861 1358 720D0000 		.4byte	.LLST86
 8862 135c 19       		.uleb128 0x19
 8863 135d 28000000 		.4byte	.LBB41
 8864 1361 42000000 		.4byte	.LBE41-.LBB41
 8865 1365 17       		.uleb128 0x17
 8866 1366 18050000 		.4byte	.LASF110
 8867 136a 02       		.byte	0x2
 8868 136b F001     		.2byte	0x1f0
ARM GAS  C:\Users\FRANKL~1\AppData\Local\Temp\ccba5qpo.s 			page 193


 8869 136d E5000000 		.4byte	0xe5
 8870 1371 900D0000 		.4byte	.LLST87
 8871 1375 17       		.uleb128 0x17
 8872 1376 08040000 		.4byte	.LASF111
 8873 137a 02       		.byte	0x2
 8874 137b F101     		.2byte	0x1f1
 8875 137d E5000000 		.4byte	0xe5
 8876 1381 A30D0000 		.4byte	.LLST88
 8877 1385 12       		.uleb128 0x12
 8878 1386 2C000000 		.4byte	.LVL412
 8879 138a FB0F0000 		.4byte	0xffb
 8880 138e 1C       		.uleb128 0x1c
 8881 138f 5E000000 		.4byte	.LVL419
 8882 1393 E0370000 		.4byte	0x37e0
 8883 1397 A2130000 		.4byte	0x13a2
 8884 139b 1B       		.uleb128 0x1b
 8885 139c 01       		.uleb128 0x1
 8886 139d 50       		.byte	0x50
 8887 139e 02       		.uleb128 0x2
 8888 139f 76       		.byte	0x76
 8889 13a0 00       		.sleb128 0
 8890 13a1 00       		.byte	0
 8891 13a2 1C       		.uleb128 0x1c
 8892 13a3 64000000 		.4byte	.LVL420
 8893 13a7 D5370000 		.4byte	0x37d5
 8894 13ab B6130000 		.4byte	0x13b6
 8895 13af 1B       		.uleb128 0x1b
 8896 13b0 01       		.uleb128 0x1
 8897 13b1 50       		.byte	0x50
 8898 13b2 02       		.uleb128 0x2
 8899 13b3 75       		.byte	0x75
 8900 13b4 00       		.sleb128 0
 8901 13b5 00       		.byte	0
 8902 13b6 1A       		.uleb128 0x1a
 8903 13b7 6A000000 		.4byte	.LVL421
 8904 13bb CA370000 		.4byte	0x37ca
 8905 13bf 1B       		.uleb128 0x1b
 8906 13c0 01       		.uleb128 0x1
 8907 13c1 50       		.byte	0x50
 8908 13c2 02       		.uleb128 0x2
 8909 13c3 74       		.byte	0x74
 8910 13c4 00       		.sleb128 0
 8911 13c5 00       		.byte	0
 8912 13c6 00       		.byte	0
 8913 13c7 00       		.byte	0
 8914 13c8 00       		.byte	0
 8915 13c9 14       		.uleb128 0x14
 8916 13ca BA000000 		.4byte	.LASF112
 8917 13ce 02       		.byte	0x2
 8918 13cf 0102     		.2byte	0x201
 8919 13d1 00000000 		.4byte	.LFB96
 8920 13d5 C8000000 		.4byte	.LFE96-.LFB96
 8921 13d9 01       		.uleb128 0x1
 8922 13da 9C       		.byte	0x9c
 8923 13db 9B140000 		.4byte	0x149b
 8924 13df 25       		.uleb128 0x25
 8925 13e0 EA030000 		.4byte	.LASF107
ARM GAS  C:\Users\FRANKL~1\AppData\Local\Temp\ccba5qpo.s 			page 194


 8926 13e4 02       		.byte	0x2
 8927 13e5 0102     		.2byte	0x201
 8928 13e7 E5000000 		.4byte	0xe5
 8929 13eb B60D0000 		.4byte	.LLST89
 8930 13ef 17       		.uleb128 0x17
 8931 13f0 1E000000 		.4byte	.LASF113
 8932 13f4 02       		.byte	0x2
 8933 13f5 0502     		.2byte	0x205
 8934 13f7 E5000000 		.4byte	0xe5
 8935 13fb D40D0000 		.4byte	.LLST90
 8936 13ff 17       		.uleb128 0x17
 8937 1400 DE050000 		.4byte	.LASF114
 8938 1404 02       		.byte	0x2
 8939 1405 1302     		.2byte	0x213
 8940 1407 C1000000 		.4byte	0xc1
 8941 140b 130E0000 		.4byte	.LLST91
 8942 140f 17       		.uleb128 0x17
 8943 1410 21070000 		.4byte	.LASF115
 8944 1414 02       		.byte	0x2
 8945 1415 1402     		.2byte	0x214
 8946 1417 C1000000 		.4byte	0xc1
 8947 141b 260E0000 		.4byte	.LLST92
 8948 141f 17       		.uleb128 0x17
 8949 1420 91050000 		.4byte	.LASF116
 8950 1424 02       		.byte	0x2
 8951 1425 1502     		.2byte	0x215
 8952 1427 C1000000 		.4byte	0xc1
 8953 142b 390E0000 		.4byte	.LLST93
 8954 142f 17       		.uleb128 0x17
 8955 1430 EA0C0000 		.4byte	.LASF117
 8956 1434 02       		.byte	0x2
 8957 1435 1602     		.2byte	0x216
 8958 1437 C1000000 		.4byte	0xc1
 8959 143b 4C0E0000 		.4byte	.LLST94
 8960 143f 17       		.uleb128 0x17
 8961 1440 D40D0000 		.4byte	.LASF118
 8962 1444 02       		.byte	0x2
 8963 1445 1802     		.2byte	0x218
 8964 1447 C1000000 		.4byte	0xc1
 8965 144b 5F0E0000 		.4byte	.LLST95
 8966 144f 12       		.uleb128 0x12
 8967 1450 32000000 		.4byte	.LVL431
 8968 1454 0F130000 		.4byte	0x130f
 8969 1458 1C       		.uleb128 0x1c
 8970 1459 38000000 		.4byte	.LVL432
 8971 145d 91110000 		.4byte	0x1191
 8972 1461 6C140000 		.4byte	0x146c
 8973 1465 1B       		.uleb128 0x1b
 8974 1466 01       		.uleb128 0x1
 8975 1467 50       		.byte	0x50
 8976 1468 02       		.uleb128 0x2
 8977 1469 09       		.byte	0x9
 8978 146a FF       		.byte	0xff
 8979 146b 00       		.byte	0
 8980 146c 12       		.uleb128 0x12
 8981 146d 4A000000 		.4byte	.LVL436
 8982 1471 0F130000 		.4byte	0x130f
ARM GAS  C:\Users\FRANKL~1\AppData\Local\Temp\ccba5qpo.s 			page 195


 8983 1475 1C       		.uleb128 0x1c
 8984 1476 50000000 		.4byte	.LVL437
 8985 147a 91110000 		.4byte	0x1191
 8986 147e 88140000 		.4byte	0x1488
 8987 1482 1B       		.uleb128 0x1b
 8988 1483 01       		.uleb128 0x1
 8989 1484 50       		.byte	0x50
 8990 1485 01       		.uleb128 0x1
 8991 1486 30       		.byte	0x30
 8992 1487 00       		.byte	0
 8993 1488 12       		.uleb128 0x12
 8994 1489 58000000 		.4byte	.LVL439
 8995 148d 91110000 		.4byte	0x1191
 8996 1491 12       		.uleb128 0x12
 8997 1492 B8000000 		.4byte	.LVL450
 8998 1496 0F130000 		.4byte	0x130f
 8999 149a 00       		.byte	0
 9000 149b 14       		.uleb128 0x14
 9001 149c DE030000 		.4byte	.LASF119
 9002 14a0 02       		.byte	0x2
 9003 14a1 2302     		.2byte	0x223
 9004 14a3 00000000 		.4byte	.LFB97
 9005 14a7 C8000000 		.4byte	.LFE97-.LFB97
 9006 14ab 01       		.uleb128 0x1
 9007 14ac 9C       		.byte	0x9c
 9008 14ad 6D150000 		.4byte	0x156d
 9009 14b1 25       		.uleb128 0x25
 9010 14b2 EA030000 		.4byte	.LASF107
 9011 14b6 02       		.byte	0x2
 9012 14b7 2302     		.2byte	0x223
 9013 14b9 E5000000 		.4byte	0xe5
 9014 14bd 9E0E0000 		.4byte	.LLST96
 9015 14c1 17       		.uleb128 0x17
 9016 14c2 1E000000 		.4byte	.LASF113
 9017 14c6 02       		.byte	0x2
 9018 14c7 2702     		.2byte	0x227
 9019 14c9 E5000000 		.4byte	0xe5
 9020 14cd BC0E0000 		.4byte	.LLST97
 9021 14d1 17       		.uleb128 0x17
 9022 14d2 DE050000 		.4byte	.LASF114
 9023 14d6 02       		.byte	0x2
 9024 14d7 3502     		.2byte	0x235
 9025 14d9 C1000000 		.4byte	0xc1
 9026 14dd FB0E0000 		.4byte	.LLST98
 9027 14e1 17       		.uleb128 0x17
 9028 14e2 21070000 		.4byte	.LASF115
 9029 14e6 02       		.byte	0x2
 9030 14e7 3602     		.2byte	0x236
 9031 14e9 C1000000 		.4byte	0xc1
 9032 14ed 0E0F0000 		.4byte	.LLST99
 9033 14f1 17       		.uleb128 0x17
 9034 14f2 91050000 		.4byte	.LASF116
 9035 14f6 02       		.byte	0x2
 9036 14f7 3702     		.2byte	0x237
 9037 14f9 C1000000 		.4byte	0xc1
 9038 14fd 210F0000 		.4byte	.LLST100
 9039 1501 17       		.uleb128 0x17
ARM GAS  C:\Users\FRANKL~1\AppData\Local\Temp\ccba5qpo.s 			page 196


 9040 1502 EA0C0000 		.4byte	.LASF117
 9041 1506 02       		.byte	0x2
 9042 1507 3802     		.2byte	0x238
 9043 1509 C1000000 		.4byte	0xc1
 9044 150d 340F0000 		.4byte	.LLST101
 9045 1511 17       		.uleb128 0x17
 9046 1512 D40D0000 		.4byte	.LASF118
 9047 1516 02       		.byte	0x2
 9048 1517 3A02     		.2byte	0x23a
 9049 1519 C1000000 		.4byte	0xc1
 9050 151d 470F0000 		.4byte	.LLST102
 9051 1521 12       		.uleb128 0x12
 9052 1522 32000000 		.4byte	.LVL458
 9053 1526 0F130000 		.4byte	0x130f
 9054 152a 1C       		.uleb128 0x1c
 9055 152b 38000000 		.4byte	.LVL459
 9056 152f 50120000 		.4byte	0x1250
 9057 1533 3E150000 		.4byte	0x153e
 9058 1537 1B       		.uleb128 0x1b
 9059 1538 01       		.uleb128 0x1
 9060 1539 50       		.byte	0x50
 9061 153a 02       		.uleb128 0x2
 9062 153b 09       		.byte	0x9
 9063 153c FF       		.byte	0xff
 9064 153d 00       		.byte	0
 9065 153e 12       		.uleb128 0x12
 9066 153f 4A000000 		.4byte	.LVL463
 9067 1543 0F130000 		.4byte	0x130f
 9068 1547 1C       		.uleb128 0x1c
 9069 1548 50000000 		.4byte	.LVL464
 9070 154c 50120000 		.4byte	0x1250
 9071 1550 5A150000 		.4byte	0x155a
 9072 1554 1B       		.uleb128 0x1b
 9073 1555 01       		.uleb128 0x1
 9074 1556 50       		.byte	0x50
 9075 1557 01       		.uleb128 0x1
 9076 1558 30       		.byte	0x30
 9077 1559 00       		.byte	0
 9078 155a 12       		.uleb128 0x12
 9079 155b 58000000 		.4byte	.LVL466
 9080 155f 50120000 		.4byte	0x1250
 9081 1563 12       		.uleb128 0x12
 9082 1564 B8000000 		.4byte	.LVL477
 9083 1568 0F130000 		.4byte	0x130f
 9084 156c 00       		.byte	0
 9085 156d 24       		.uleb128 0x24
 9086 156e 390D0000 		.4byte	.LASF120
 9087 1572 02       		.byte	0x2
 9088 1573 4602     		.2byte	0x246
 9089 1575 00000000 		.4byte	.LFB98
 9090 1579 38000000 		.4byte	.LFE98-.LFB98
 9091 157d 01       		.uleb128 0x1
 9092 157e 9C       		.byte	0x9c
 9093 157f 9D150000 		.4byte	0x159d
 9094 1583 25       		.uleb128 0x25
 9095 1584 9F050000 		.4byte	.LASF88
 9096 1588 02       		.byte	0x2
ARM GAS  C:\Users\FRANKL~1\AppData\Local\Temp\ccba5qpo.s 			page 197


 9097 1589 4602     		.2byte	0x246
 9098 158b 25000000 		.4byte	0x25
 9099 158f 860F0000 		.4byte	.LLST103
 9100 1593 12       		.uleb128 0x12
 9101 1594 24000000 		.4byte	.LVL484
 9102 1598 9B140000 		.4byte	0x149b
 9103 159c 00       		.byte	0
 9104 159d 24       		.uleb128 0x24
 9105 159e 6F0B0000 		.4byte	.LASF121
 9106 15a2 02       		.byte	0x2
 9107 15a3 4B02     		.2byte	0x24b
 9108 15a5 00000000 		.4byte	.LFB99
 9109 15a9 38000000 		.4byte	.LFE99-.LFB99
 9110 15ad 01       		.uleb128 0x1
 9111 15ae 9C       		.byte	0x9c
 9112 15af CD150000 		.4byte	0x15cd
 9113 15b3 25       		.uleb128 0x25
 9114 15b4 9F050000 		.4byte	.LASF88
 9115 15b8 02       		.byte	0x2
 9116 15b9 4B02     		.2byte	0x24b
 9117 15bb 25000000 		.4byte	0x25
 9118 15bf A90F0000 		.4byte	.LLST104
 9119 15c3 12       		.uleb128 0x12
 9120 15c4 24000000 		.4byte	.LVL490
 9121 15c8 C9130000 		.4byte	0x13c9
 9122 15cc 00       		.byte	0
 9123 15cd 24       		.uleb128 0x24
 9124 15ce E5090000 		.4byte	.LASF122
 9125 15d2 02       		.byte	0x2
 9126 15d3 5102     		.2byte	0x251
 9127 15d5 00000000 		.4byte	.LFB100
 9128 15d9 14000000 		.4byte	.LFE100-.LFB100
 9129 15dd 01       		.uleb128 0x1
 9130 15de 9C       		.byte	0x9c
 9131 15df FC150000 		.4byte	0x15fc
 9132 15e3 29       		.uleb128 0x29
 9133 15e4 6D5600   		.ascii	"mV\000"
 9134 15e7 02       		.byte	0x2
 9135 15e8 5102     		.2byte	0x251
 9136 15ea 25000000 		.4byte	0x25
 9137 15ee CC0F0000 		.4byte	.LLST105
 9138 15f2 12       		.uleb128 0x12
 9139 15f3 0C000000 		.4byte	.LVL493
 9140 15f7 6D150000 		.4byte	0x156d
 9141 15fb 00       		.byte	0
 9142 15fc 24       		.uleb128 0x24
 9143 15fd DD010000 		.4byte	.LASF123
 9144 1601 02       		.byte	0x2
 9145 1602 5602     		.2byte	0x256
 9146 1604 00000000 		.4byte	.LFB101
 9147 1608 14000000 		.4byte	.LFE101-.LFB101
 9148 160c 01       		.uleb128 0x1
 9149 160d 9C       		.byte	0x9c
 9150 160e 2B160000 		.4byte	0x162b
 9151 1612 29       		.uleb128 0x29
 9152 1613 6D5600   		.ascii	"mV\000"
 9153 1616 02       		.byte	0x2
ARM GAS  C:\Users\FRANKL~1\AppData\Local\Temp\ccba5qpo.s 			page 198


 9154 1617 5602     		.2byte	0x256
 9155 1619 25000000 		.4byte	0x25
 9156 161d EF0F0000 		.4byte	.LLST106
 9157 1621 12       		.uleb128 0x12
 9158 1622 0C000000 		.4byte	.LVL496
 9159 1626 9D150000 		.4byte	0x159d
 9160 162a 00       		.byte	0
 9161 162b 28       		.uleb128 0x28
 9162 162c 9B040000 		.4byte	.LASF124
 9163 1630 02       		.byte	0x2
 9164 1631 5C02     		.2byte	0x25c
 9165 1633 00000000 		.4byte	.LFB102
 9166 1637 1C000000 		.4byte	.LFE102-.LFB102
 9167 163b 01       		.uleb128 0x1
 9168 163c 9C       		.byte	0x9c
 9169 163d 8A160000 		.4byte	0x168a
 9170 1641 1C       		.uleb128 0x1c
 9171 1642 08000000 		.4byte	.LVL497
 9172 1646 91110000 		.4byte	0x1191
 9173 164a 54160000 		.4byte	0x1654
 9174 164e 1B       		.uleb128 0x1b
 9175 164f 01       		.uleb128 0x1
 9176 1650 50       		.byte	0x50
 9177 1651 01       		.uleb128 0x1
 9178 1652 30       		.byte	0x30
 9179 1653 00       		.byte	0
 9180 1654 1C       		.uleb128 0x1c
 9181 1655 0E000000 		.4byte	.LVL498
 9182 1659 50120000 		.4byte	0x1250
 9183 165d 67160000 		.4byte	0x1667
 9184 1661 1B       		.uleb128 0x1b
 9185 1662 01       		.uleb128 0x1
 9186 1663 50       		.byte	0x50
 9187 1664 01       		.uleb128 0x1
 9188 1665 30       		.byte	0x30
 9189 1666 00       		.byte	0
 9190 1667 1C       		.uleb128 0x1c
 9191 1668 14000000 		.4byte	.LVL499
 9192 166c CA370000 		.4byte	0x37ca
 9193 1670 7A160000 		.4byte	0x167a
 9194 1674 1B       		.uleb128 0x1b
 9195 1675 01       		.uleb128 0x1
 9196 1676 50       		.byte	0x50
 9197 1677 01       		.uleb128 0x1
 9198 1678 30       		.byte	0x30
 9199 1679 00       		.byte	0
 9200 167a 1A       		.uleb128 0x1a
 9201 167b 1A000000 		.4byte	.LVL500
 9202 167f D5370000 		.4byte	0x37d5
 9203 1683 1B       		.uleb128 0x1b
 9204 1684 01       		.uleb128 0x1
 9205 1685 50       		.byte	0x50
 9206 1686 01       		.uleb128 0x1
 9207 1687 30       		.byte	0x30
 9208 1688 00       		.byte	0
 9209 1689 00       		.byte	0
 9210 168a 24       		.uleb128 0x24
ARM GAS  C:\Users\FRANKL~1\AppData\Local\Temp\ccba5qpo.s 			page 199


 9211 168b BF0D0000 		.4byte	.LASF125
 9212 168f 02       		.byte	0x2
 9213 1690 6402     		.2byte	0x264
 9214 1692 00000000 		.4byte	.LFB103
 9215 1696 D0000000 		.4byte	.LFE103-.LFB103
 9216 169a 01       		.uleb128 0x1
 9217 169b 9C       		.byte	0x9c
 9218 169c 20180000 		.4byte	0x1820
 9219 16a0 25       		.uleb128 0x25
 9220 16a1 59070000 		.4byte	.LASF75
 9221 16a5 02       		.byte	0x2
 9222 16a6 6402     		.2byte	0x264
 9223 16a8 CD000000 		.4byte	0xcd
 9224 16ac 12100000 		.4byte	.LLST107
 9225 16b0 17       		.uleb128 0x17
 9226 16b1 A2030000 		.4byte	.LASF126
 9227 16b5 02       		.byte	0x2
 9228 16b6 6502     		.2byte	0x265
 9229 16b8 B5000000 		.4byte	0xb5
 9230 16bc 3E100000 		.4byte	.LLST108
 9231 16c0 16       		.uleb128 0x16
 9232 16c1 9F050000 		.4byte	.LASF88
 9233 16c5 02       		.byte	0x2
 9234 16c6 6C02     		.2byte	0x26c
 9235 16c8 F1000000 		.4byte	0xf1
 9236 16cc 02       		.uleb128 0x2
 9237 16cd 91       		.byte	0x91
 9238 16ce 64       		.sleb128 -28
 9239 16cf 16       		.uleb128 0x16
 9240 16d0 C1050000 		.4byte	.LASF89
 9241 16d4 02       		.byte	0x2
 9242 16d5 6D02     		.2byte	0x26d
 9243 16d7 F1000000 		.4byte	0xf1
 9244 16db 02       		.uleb128 0x2
 9245 16dc 91       		.byte	0x91
 9246 16dd 60       		.sleb128 -32
 9247 16de 15       		.uleb128 0x15
 9248 16df 22000000 		.4byte	.LBB42
 9249 16e3 5E000000 		.4byte	.LBE42-.LBB42
 9250 16e7 A9170000 		.4byte	0x17a9
 9251 16eb 18       		.uleb128 0x18
 9252 16ec 6900     		.ascii	"i\000"
 9253 16ee 02       		.byte	0x2
 9254 16ef 7002     		.2byte	0x270
 9255 16f1 B5000000 		.4byte	0xb5
 9256 16f5 51100000 		.4byte	.LLST109
 9257 16f9 1C       		.uleb128 0x1c
 9258 16fa 2A000000 		.4byte	.LVL508
 9259 16fe 470B0000 		.4byte	0xb47
 9260 1702 0D170000 		.4byte	0x170d
 9261 1706 1B       		.uleb128 0x1b
 9262 1707 01       		.uleb128 0x1
 9263 1708 50       		.byte	0x50
 9264 1709 02       		.uleb128 0x2
 9265 170a 74       		.byte	0x74
 9266 170b 00       		.sleb128 0
 9267 170c 00       		.byte	0
ARM GAS  C:\Users\FRANKL~1\AppData\Local\Temp\ccba5qpo.s 			page 200


 9268 170d 1C       		.uleb128 0x1c
 9269 170e 34000000 		.4byte	.LVL509
 9270 1712 A30C0000 		.4byte	0xca3
 9271 1716 2C170000 		.4byte	0x172c
 9272 171a 1B       		.uleb128 0x1b
 9273 171b 01       		.uleb128 0x1
 9274 171c 50       		.byte	0x50
 9275 171d 02       		.uleb128 0x2
 9276 171e 91       		.byte	0x91
 9277 171f 64       		.sleb128 -28
 9278 1720 1B       		.uleb128 0x1b
 9279 1721 01       		.uleb128 0x1
 9280 1722 51       		.byte	0x51
 9281 1723 02       		.uleb128 0x2
 9282 1724 91       		.byte	0x91
 9283 1725 60       		.sleb128 -32
 9284 1726 1B       		.uleb128 0x1b
 9285 1727 01       		.uleb128 0x1
 9286 1728 52       		.byte	0x52
 9287 1729 01       		.uleb128 0x1
 9288 172a 33       		.byte	0x33
 9289 172b 00       		.byte	0
 9290 172c 1C       		.uleb128 0x1c
 9291 172d 3E000000 		.4byte	.LVL510
 9292 1731 A30C0000 		.4byte	0xca3
 9293 1735 4C170000 		.4byte	0x174c
 9294 1739 1B       		.uleb128 0x1b
 9295 173a 01       		.uleb128 0x1
 9296 173b 50       		.byte	0x50
 9297 173c 02       		.uleb128 0x2
 9298 173d 91       		.byte	0x91
 9299 173e 64       		.sleb128 -28
 9300 173f 1B       		.uleb128 0x1b
 9301 1740 01       		.uleb128 0x1
 9302 1741 51       		.byte	0x51
 9303 1742 02       		.uleb128 0x2
 9304 1743 91       		.byte	0x91
 9305 1744 60       		.sleb128 -32
 9306 1745 1B       		.uleb128 0x1b
 9307 1746 01       		.uleb128 0x1
 9308 1747 52       		.byte	0x52
 9309 1748 02       		.uleb128 0x2
 9310 1749 77       		.byte	0x77
 9311 174a 00       		.sleb128 0
 9312 174b 00       		.byte	0
 9313 174c 1C       		.uleb128 0x1c
 9314 174d 64000000 		.4byte	.LVL512
 9315 1751 1A370000 		.4byte	0x371a
 9316 1755 70170000 		.4byte	0x1770
 9317 1759 1B       		.uleb128 0x1b
 9318 175a 01       		.uleb128 0x1
 9319 175b 50       		.byte	0x50
 9320 175c 02       		.uleb128 0x2
 9321 175d 75       		.byte	0x75
 9322 175e 00       		.sleb128 0
 9323 175f 1B       		.uleb128 0x1b
 9324 1760 01       		.uleb128 0x1
ARM GAS  C:\Users\FRANKL~1\AppData\Local\Temp\ccba5qpo.s 			page 201


 9325 1761 51       		.byte	0x51
 9326 1762 05       		.uleb128 0x5
 9327 1763 03       		.byte	0x3
 9328 1764 A8000000 		.4byte	.LC11
 9329 1768 1B       		.uleb128 0x1b
 9330 1769 02       		.uleb128 0x2
 9331 176a 7D       		.byte	0x7d
 9332 176b 00       		.sleb128 0
 9333 176c 02       		.uleb128 0x2
 9334 176d 76       		.byte	0x76
 9335 176e 00       		.sleb128 0
 9336 176f 00       		.byte	0
 9337 1770 1C       		.uleb128 0x1c
 9338 1771 6A000000 		.4byte	.LVL513
 9339 1775 E3360000 		.4byte	0x36e3
 9340 1779 84170000 		.4byte	0x1784
 9341 177d 1B       		.uleb128 0x1b
 9342 177e 01       		.uleb128 0x1
 9343 177f 50       		.byte	0x50
 9344 1780 02       		.uleb128 0x2
 9345 1781 75       		.byte	0x75
 9346 1782 00       		.sleb128 0
 9347 1783 00       		.byte	0
 9348 1784 1C       		.uleb128 0x1c
 9349 1785 72000000 		.4byte	.LVL514
 9350 1789 D1030000 		.4byte	0x3d1
 9351 178d 98170000 		.4byte	0x1798
 9352 1791 1B       		.uleb128 0x1b
 9353 1792 01       		.uleb128 0x1
 9354 1793 50       		.byte	0x50
 9355 1794 02       		.uleb128 0x2
 9356 1795 75       		.byte	0x75
 9357 1796 00       		.sleb128 0
 9358 1797 00       		.byte	0
 9359 1798 1A       		.uleb128 0x1a
 9360 1799 78000000 		.4byte	.LVL515
 9361 179d F9360000 		.4byte	0x36f9
 9362 17a1 1B       		.uleb128 0x1b
 9363 17a2 01       		.uleb128 0x1
 9364 17a3 50       		.byte	0x50
 9365 17a4 02       		.uleb128 0x2
 9366 17a5 75       		.byte	0x75
 9367 17a6 00       		.sleb128 0
 9368 17a7 00       		.byte	0
 9369 17a8 00       		.byte	0
 9370 17a9 1C       		.uleb128 0x1c
 9371 17aa 16000000 		.4byte	.LVL504
 9372 17ae 9D150000 		.4byte	0x159d
 9373 17b2 BE170000 		.4byte	0x17be
 9374 17b6 1B       		.uleb128 0x1b
 9375 17b7 01       		.uleb128 0x1
 9376 17b8 50       		.byte	0x50
 9377 17b9 03       		.uleb128 0x3
 9378 17ba F5       		.byte	0xf5
 9379 17bb 04       		.uleb128 0x4
 9380 17bc 25       		.uleb128 0x25
 9381 17bd 00       		.byte	0
ARM GAS  C:\Users\FRANKL~1\AppData\Local\Temp\ccba5qpo.s 			page 202


 9382 17be 1C       		.uleb128 0x1c
 9383 17bf 1C000000 		.4byte	.LVL505
 9384 17c3 6D150000 		.4byte	0x156d
 9385 17c7 D3170000 		.4byte	0x17d3
 9386 17cb 1B       		.uleb128 0x1b
 9387 17cc 01       		.uleb128 0x1
 9388 17cd 50       		.byte	0x50
 9389 17ce 03       		.uleb128 0x3
 9390 17cf F5       		.byte	0xf5
 9391 17d0 04       		.uleb128 0x4
 9392 17d1 25       		.uleb128 0x25
 9393 17d2 00       		.byte	0
 9394 17d3 1C       		.uleb128 0x1c
 9395 17d4 86000000 		.4byte	.LVL518
 9396 17d8 470B0000 		.4byte	0xb47
 9397 17dc E7170000 		.4byte	0x17e7
 9398 17e0 1B       		.uleb128 0x1b
 9399 17e1 01       		.uleb128 0x1
 9400 17e2 50       		.byte	0x50
 9401 17e3 02       		.uleb128 0x2
 9402 17e4 78       		.byte	0x78
 9403 17e5 00       		.sleb128 0
 9404 17e6 00       		.byte	0
 9405 17e7 1C       		.uleb128 0x1c
 9406 17e8 A8000000 		.4byte	.LVL520
 9407 17ec E3360000 		.4byte	0x36e3
 9408 17f0 FB170000 		.4byte	0x17fb
 9409 17f4 1B       		.uleb128 0x1b
 9410 17f5 01       		.uleb128 0x1
 9411 17f6 50       		.byte	0x50
 9412 17f7 02       		.uleb128 0x2
 9413 17f8 75       		.byte	0x75
 9414 17f9 00       		.sleb128 0
 9415 17fa 00       		.byte	0
 9416 17fb 1C       		.uleb128 0x1c
 9417 17fc B0000000 		.4byte	.LVL521
 9418 1800 D1030000 		.4byte	0x3d1
 9419 1804 0F180000 		.4byte	0x180f
 9420 1808 1B       		.uleb128 0x1b
 9421 1809 01       		.uleb128 0x1
 9422 180a 50       		.byte	0x50
 9423 180b 02       		.uleb128 0x2
 9424 180c 75       		.byte	0x75
 9425 180d 00       		.sleb128 0
 9426 180e 00       		.byte	0
 9427 180f 1A       		.uleb128 0x1a
 9428 1810 B6000000 		.4byte	.LVL522
 9429 1814 F9360000 		.4byte	0x36f9
 9430 1818 1B       		.uleb128 0x1b
 9431 1819 01       		.uleb128 0x1
 9432 181a 50       		.byte	0x50
 9433 181b 02       		.uleb128 0x2
 9434 181c 75       		.byte	0x75
 9435 181d 00       		.sleb128 0
 9436 181e 00       		.byte	0
 9437 181f 00       		.byte	0
 9438 1820 24       		.uleb128 0x24
ARM GAS  C:\Users\FRANKL~1\AppData\Local\Temp\ccba5qpo.s 			page 203


 9439 1821 B60A0000 		.4byte	.LASF127
 9440 1825 02       		.byte	0x2
 9441 1826 8402     		.2byte	0x284
 9442 1828 00000000 		.4byte	.LFB104
 9443 182c 14010000 		.4byte	.LFE104-.LFB104
 9444 1830 01       		.uleb128 0x1
 9445 1831 9C       		.byte	0x9c
 9446 1832 F0190000 		.4byte	0x19f0
 9447 1836 25       		.uleb128 0x25
 9448 1837 4B0B0000 		.4byte	.LASF128
 9449 183b 02       		.byte	0x2
 9450 183c 8402     		.2byte	0x284
 9451 183e CD000000 		.4byte	0xcd
 9452 1842 7B100000 		.4byte	.LLST110
 9453 1846 25       		.uleb128 0x25
 9454 1847 AE0D0000 		.4byte	.LASF129
 9455 184b 02       		.byte	0x2
 9456 184c 8402     		.2byte	0x284
 9457 184e CD000000 		.4byte	0xcd
 9458 1852 A7100000 		.4byte	.LLST111
 9459 1856 25       		.uleb128 0x25
 9460 1857 23040000 		.4byte	.LASF130
 9461 185b 02       		.byte	0x2
 9462 185c 8402     		.2byte	0x284
 9463 185e CD000000 		.4byte	0xcd
 9464 1862 D3100000 		.4byte	.LLST112
 9465 1866 16       		.uleb128 0x16
 9466 1867 D2050000 		.4byte	.LASF131
 9467 186b 02       		.byte	0x2
 9468 186c 8502     		.2byte	0x285
 9469 186e F1000000 		.4byte	0xf1
 9470 1872 02       		.uleb128 0x2
 9471 1873 91       		.byte	0x91
 9472 1874 5C       		.sleb128 -36
 9473 1875 16       		.uleb128 0x16
 9474 1876 A1000000 		.4byte	.LASF132
 9475 187a 02       		.byte	0x2
 9476 187b 8602     		.2byte	0x286
 9477 187d F1000000 		.4byte	0xf1
 9478 1881 02       		.uleb128 0x2
 9479 1882 91       		.byte	0x91
 9480 1883 58       		.sleb128 -40
 9481 1884 17       		.uleb128 0x17
 9482 1885 36010000 		.4byte	.LASF93
 9483 1889 02       		.byte	0x2
 9484 188a 8A02     		.2byte	0x28a
 9485 188c 25000000 		.4byte	0x25
 9486 1890 FF100000 		.4byte	.LLST113
 9487 1894 17       		.uleb128 0x17
 9488 1895 8D040000 		.4byte	.LASF133
 9489 1899 02       		.byte	0x2
 9490 189a 8B02     		.2byte	0x28b
 9491 189c F1000000 		.4byte	0xf1
 9492 18a0 13110000 		.4byte	.LLST114
 9493 18a4 17       		.uleb128 0x17
 9494 18a5 34040000 		.4byte	.LASF94
 9495 18a9 02       		.byte	0x2
ARM GAS  C:\Users\FRANKL~1\AppData\Local\Temp\ccba5qpo.s 			page 204


 9496 18aa 8C02     		.2byte	0x28c
 9497 18ac 25000000 		.4byte	0x25
 9498 18b0 26110000 		.4byte	.LLST115
 9499 18b4 17       		.uleb128 0x17
 9500 18b5 450E0000 		.4byte	.LASF134
 9501 18b9 02       		.byte	0x2
 9502 18ba 8E02     		.2byte	0x28e
 9503 18bc 25000000 		.4byte	0x25
 9504 18c0 44110000 		.4byte	.LLST116
 9505 18c4 16       		.uleb128 0x16
 9506 18c5 CA030000 		.4byte	.LASF135
 9507 18c9 02       		.byte	0x2
 9508 18ca 9702     		.2byte	0x297
 9509 18cc F1000000 		.4byte	0xf1
 9510 18d0 02       		.uleb128 0x2
 9511 18d1 91       		.byte	0x91
 9512 18d2 54       		.sleb128 -44
 9513 18d3 16       		.uleb128 0x16
 9514 18d4 9B0E0000 		.4byte	.LASF136
 9515 18d8 02       		.byte	0x2
 9516 18d9 9802     		.2byte	0x298
 9517 18db F1000000 		.4byte	0xf1
 9518 18df 02       		.uleb128 0x2
 9519 18e0 91       		.byte	0x91
 9520 18e1 50       		.sleb128 -48
 9521 18e2 16       		.uleb128 0x16
 9522 18e3 12060000 		.4byte	.LASF137
 9523 18e7 02       		.byte	0x2
 9524 18e8 9902     		.2byte	0x299
 9525 18ea F1000000 		.4byte	0xf1
 9526 18ee 02       		.uleb128 0x2
 9527 18ef 91       		.byte	0x91
 9528 18f0 4C       		.sleb128 -52
 9529 18f1 16       		.uleb128 0x16
 9530 18f2 16000000 		.4byte	.LASF138
 9531 18f6 02       		.byte	0x2
 9532 18f7 9A02     		.2byte	0x29a
 9533 18f9 F1000000 		.4byte	0xf1
 9534 18fd 02       		.uleb128 0x2
 9535 18fe 91       		.byte	0x91
 9536 18ff 48       		.sleb128 -56
 9537 1900 17       		.uleb128 0x17
 9538 1901 CB0B0000 		.4byte	.LASF139
 9539 1905 02       		.byte	0x2
 9540 1906 9F02     		.2byte	0x29f
 9541 1908 25000000 		.4byte	0x25
 9542 190c 62110000 		.4byte	.LLST117
 9543 1910 17       		.uleb128 0x17
 9544 1911 D00B0000 		.4byte	.LASF140
 9545 1915 02       		.byte	0x2
 9546 1916 A002     		.2byte	0x2a0
 9547 1918 25000000 		.4byte	0x25
 9548 191c 80110000 		.4byte	.LLST118
 9549 1920 1C       		.uleb128 0x1c
 9550 1921 1C000000 		.4byte	.LVL528
 9551 1925 A30C0000 		.4byte	0xca3
 9552 1929 41190000 		.4byte	0x1941
ARM GAS  C:\Users\FRANKL~1\AppData\Local\Temp\ccba5qpo.s 			page 205


 9553 192d 1B       		.uleb128 0x1b
 9554 192e 01       		.uleb128 0x1
 9555 192f 50       		.byte	0x50
 9556 1930 02       		.uleb128 0x2
 9557 1931 91       		.byte	0x91
 9558 1932 5C       		.sleb128 -36
 9559 1933 1B       		.uleb128 0x1b
 9560 1934 01       		.uleb128 0x1
 9561 1935 51       		.byte	0x51
 9562 1936 02       		.uleb128 0x2
 9563 1937 91       		.byte	0x91
 9564 1938 58       		.sleb128 -40
 9565 1939 1B       		.uleb128 0x1b
 9566 193a 01       		.uleb128 0x1
 9567 193b 52       		.byte	0x52
 9568 193c 03       		.uleb128 0x3
 9569 193d F3       		.byte	0xf3
 9570 193e 01       		.uleb128 0x1
 9571 193f 50       		.byte	0x50
 9572 1940 00       		.byte	0
 9573 1941 1C       		.uleb128 0x1c
 9574 1942 6A000000 		.4byte	.LVL540
 9575 1946 6C0D0000 		.4byte	0xd6c
 9576 194a 61190000 		.4byte	0x1961
 9577 194e 1B       		.uleb128 0x1b
 9578 194f 01       		.uleb128 0x1
 9579 1950 50       		.byte	0x50
 9580 1951 02       		.uleb128 0x2
 9581 1952 91       		.byte	0x91
 9582 1953 54       		.sleb128 -44
 9583 1954 1B       		.uleb128 0x1b
 9584 1955 01       		.uleb128 0x1
 9585 1956 51       		.byte	0x51
 9586 1957 02       		.uleb128 0x2
 9587 1958 91       		.byte	0x91
 9588 1959 50       		.sleb128 -48
 9589 195a 1B       		.uleb128 0x1b
 9590 195b 01       		.uleb128 0x1
 9591 195c 52       		.byte	0x52
 9592 195d 02       		.uleb128 0x2
 9593 195e 76       		.byte	0x76
 9594 195f 00       		.sleb128 0
 9595 1960 00       		.byte	0
 9596 1961 1C       		.uleb128 0x1c
 9597 1962 74000000 		.4byte	.LVL541
 9598 1966 2F0E0000 		.4byte	0xe2f
 9599 196a 81190000 		.4byte	0x1981
 9600 196e 1B       		.uleb128 0x1b
 9601 196f 01       		.uleb128 0x1
 9602 1970 50       		.byte	0x50
 9603 1971 02       		.uleb128 0x2
 9604 1972 91       		.byte	0x91
 9605 1973 4C       		.sleb128 -52
 9606 1974 1B       		.uleb128 0x1b
 9607 1975 01       		.uleb128 0x1
 9608 1976 51       		.byte	0x51
 9609 1977 02       		.uleb128 0x2
ARM GAS  C:\Users\FRANKL~1\AppData\Local\Temp\ccba5qpo.s 			page 206


 9610 1978 91       		.byte	0x91
 9611 1979 48       		.sleb128 -56
 9612 197a 1B       		.uleb128 0x1b
 9613 197b 01       		.uleb128 0x1
 9614 197c 52       		.byte	0x52
 9615 197d 02       		.uleb128 0x2
 9616 197e 75       		.byte	0x75
 9617 197f 00       		.sleb128 0
 9618 1980 00       		.byte	0
 9619 1981 12       		.uleb128 0x12
 9620 1982 8E000000 		.4byte	.LVL546
 9621 1986 2D110000 		.4byte	0x112d
 9622 198a 12       		.uleb128 0x12
 9623 198b 94000000 		.4byte	.LVL548
 9624 198f 5F110000 		.4byte	0x115f
 9625 1993 1C       		.uleb128 0x1c
 9626 1994 D4000000 		.4byte	.LVL556
 9627 1998 1A370000 		.4byte	0x371a
 9628 199c B7190000 		.4byte	0x19b7
 9629 19a0 1B       		.uleb128 0x1b
 9630 19a1 01       		.uleb128 0x1
 9631 19a2 50       		.byte	0x50
 9632 19a3 02       		.uleb128 0x2
 9633 19a4 74       		.byte	0x74
 9634 19a5 00       		.sleb128 0
 9635 19a6 1B       		.uleb128 0x1b
 9636 19a7 01       		.uleb128 0x1
 9637 19a8 51       		.byte	0x51
 9638 19a9 05       		.uleb128 0x5
 9639 19aa 03       		.byte	0x3
 9640 19ab E0000000 		.4byte	.LC13
 9641 19af 1B       		.uleb128 0x1b
 9642 19b0 02       		.uleb128 0x2
 9643 19b1 7D       		.byte	0x7d
 9644 19b2 18       		.sleb128 24
 9645 19b3 02       		.uleb128 0x2
 9646 19b4 75       		.byte	0x75
 9647 19b5 00       		.sleb128 0
 9648 19b6 00       		.byte	0
 9649 19b7 1C       		.uleb128 0x1c
 9650 19b8 DA000000 		.4byte	.LVL557
 9651 19bc E3360000 		.4byte	0x36e3
 9652 19c0 CB190000 		.4byte	0x19cb
 9653 19c4 1B       		.uleb128 0x1b
 9654 19c5 01       		.uleb128 0x1
 9655 19c6 50       		.byte	0x50
 9656 19c7 02       		.uleb128 0x2
 9657 19c8 74       		.byte	0x74
 9658 19c9 00       		.sleb128 0
 9659 19ca 00       		.byte	0
 9660 19cb 1C       		.uleb128 0x1c
 9661 19cc E2000000 		.4byte	.LVL558
 9662 19d0 D1030000 		.4byte	0x3d1
 9663 19d4 DF190000 		.4byte	0x19df
 9664 19d8 1B       		.uleb128 0x1b
 9665 19d9 01       		.uleb128 0x1
 9666 19da 50       		.byte	0x50
ARM GAS  C:\Users\FRANKL~1\AppData\Local\Temp\ccba5qpo.s 			page 207


 9667 19db 02       		.uleb128 0x2
 9668 19dc 74       		.byte	0x74
 9669 19dd 00       		.sleb128 0
 9670 19de 00       		.byte	0
 9671 19df 1A       		.uleb128 0x1a
 9672 19e0 E8000000 		.4byte	.LVL559
 9673 19e4 F9360000 		.4byte	0x36f9
 9674 19e8 1B       		.uleb128 0x1b
 9675 19e9 01       		.uleb128 0x1
 9676 19ea 50       		.byte	0x50
 9677 19eb 02       		.uleb128 0x2
 9678 19ec 74       		.byte	0x74
 9679 19ed 00       		.sleb128 0
 9680 19ee 00       		.byte	0
 9681 19ef 00       		.byte	0
 9682 19f0 14       		.uleb128 0x14
 9683 19f1 A20C0000 		.4byte	.LASF141
 9684 19f5 02       		.byte	0x2
 9685 19f6 A802     		.2byte	0x2a8
 9686 19f8 00000000 		.4byte	.LFB105
 9687 19fc 1A000000 		.4byte	.LFE105-.LFB105
 9688 1a00 01       		.uleb128 0x1
 9689 1a01 9C       		.byte	0x9c
 9690 1a02 471A0000 		.4byte	0x1a47
 9691 1a06 29       		.uleb128 0x29
 9692 1a07 6E00     		.ascii	"n\000"
 9693 1a09 02       		.byte	0x2
 9694 1a0a A802     		.2byte	0x2a8
 9695 1a0c CD000000 		.4byte	0xcd
 9696 1a10 A8110000 		.4byte	.LLST119
 9697 1a14 19       		.uleb128 0x19
 9698 1a15 04000000 		.4byte	.LBB43
 9699 1a19 14000000 		.4byte	.LBE43-.LBB43
 9700 1a1d 18       		.uleb128 0x18
 9701 1a1e 6900     		.ascii	"i\000"
 9702 1a20 02       		.byte	0x2
 9703 1a21 A902     		.2byte	0x2a9
 9704 1a23 CD000000 		.4byte	0xcd
 9705 1a27 C6110000 		.4byte	.LLST120
 9706 1a2b 1A       		.uleb128 0x1a
 9707 1a2c 12000000 		.4byte	.LVL564
 9708 1a30 20180000 		.4byte	0x1820
 9709 1a34 1B       		.uleb128 0x1b
 9710 1a35 01       		.uleb128 0x1
 9711 1a36 50       		.byte	0x50
 9712 1a37 02       		.uleb128 0x2
 9713 1a38 08       		.byte	0x8
 9714 1a39 64       		.byte	0x64
 9715 1a3a 1B       		.uleb128 0x1b
 9716 1a3b 01       		.uleb128 0x1
 9717 1a3c 51       		.byte	0x51
 9718 1a3d 01       		.uleb128 0x1
 9719 1a3e 31       		.byte	0x31
 9720 1a3f 1B       		.uleb128 0x1b
 9721 1a40 01       		.uleb128 0x1
 9722 1a41 52       		.byte	0x52
 9723 1a42 01       		.uleb128 0x1
ARM GAS  C:\Users\FRANKL~1\AppData\Local\Temp\ccba5qpo.s 			page 208


 9724 1a43 3A       		.byte	0x3a
 9725 1a44 00       		.byte	0
 9726 1a45 00       		.byte	0
 9727 1a46 00       		.byte	0
 9728 1a47 28       		.uleb128 0x28
 9729 1a48 63040000 		.4byte	.LASF142
 9730 1a4c 02       		.byte	0x2
 9731 1a4d AF02     		.2byte	0x2af
 9732 1a4f 00000000 		.4byte	.LFB106
 9733 1a53 2C000000 		.4byte	.LFE106-.LFB106
 9734 1a57 01       		.uleb128 0x1
 9735 1a58 9C       		.byte	0x9c
 9736 1a59 CE1A0000 		.4byte	0x1ace
 9737 1a5d 15       		.uleb128 0x15
 9738 1a5e 0E000000 		.4byte	.LBB44
 9739 1a62 1C000000 		.4byte	.LBE44-.LBB44
 9740 1a66 A91A0000 		.4byte	0x1aa9
 9741 1a6a 17       		.uleb128 0x17
 9742 1a6b C6000000 		.4byte	.LASF143
 9743 1a6f 02       		.byte	0x2
 9744 1a70 B302     		.2byte	0x2b3
 9745 1a72 C1000000 		.4byte	0xc1
 9746 1a76 E5110000 		.4byte	.LLST121
 9747 1a7a 1C       		.uleb128 0x1c
 9748 1a7b 18000000 		.4byte	.LVL569
 9749 1a7f D5370000 		.4byte	0x37d5
 9750 1a83 8E1A0000 		.4byte	0x1a8e
 9751 1a87 1B       		.uleb128 0x1b
 9752 1a88 01       		.uleb128 0x1
 9753 1a89 50       		.byte	0x50
 9754 1a8a 02       		.uleb128 0x2
 9755 1a8b 74       		.byte	0x74
 9756 1a8c 00       		.sleb128 0
 9757 1a8d 00       		.byte	0
 9758 1a8e 1A       		.uleb128 0x1a
 9759 1a8f 22000000 		.4byte	.LVL570
 9760 1a93 20180000 		.4byte	0x1820
 9761 1a97 1B       		.uleb128 0x1b
 9762 1a98 01       		.uleb128 0x1
 9763 1a99 50       		.byte	0x50
 9764 1a9a 02       		.uleb128 0x2
 9765 1a9b 08       		.byte	0x8
 9766 1a9c 64       		.byte	0x64
 9767 1a9d 1B       		.uleb128 0x1b
 9768 1a9e 01       		.uleb128 0x1
 9769 1a9f 51       		.byte	0x51
 9770 1aa0 01       		.uleb128 0x1
 9771 1aa1 31       		.byte	0x31
 9772 1aa2 1B       		.uleb128 0x1b
 9773 1aa3 01       		.uleb128 0x1
 9774 1aa4 52       		.byte	0x52
 9775 1aa5 01       		.uleb128 0x1
 9776 1aa6 31       		.byte	0x31
 9777 1aa7 00       		.byte	0
 9778 1aa8 00       		.byte	0
 9779 1aa9 1C       		.uleb128 0x1c
 9780 1aaa 08000000 		.4byte	.LVL566
ARM GAS  C:\Users\FRANKL~1\AppData\Local\Temp\ccba5qpo.s 			page 209


 9781 1aae CA370000 		.4byte	0x37ca
 9782 1ab2 BD1A0000 		.4byte	0x1abd
 9783 1ab6 1B       		.uleb128 0x1b
 9784 1ab7 01       		.uleb128 0x1
 9785 1ab8 50       		.byte	0x50
 9786 1ab9 02       		.uleb128 0x2
 9787 1aba 08       		.byte	0x8
 9788 1abb 5A       		.byte	0x5a
 9789 1abc 00       		.byte	0
 9790 1abd 1A       		.uleb128 0x1a
 9791 1abe 0E000000 		.4byte	.LVL567
 9792 1ac2 D5370000 		.4byte	0x37d5
 9793 1ac6 1B       		.uleb128 0x1b
 9794 1ac7 01       		.uleb128 0x1
 9795 1ac8 50       		.byte	0x50
 9796 1ac9 02       		.uleb128 0x2
 9797 1aca 09       		.byte	0x9
 9798 1acb FE       		.byte	0xfe
 9799 1acc 00       		.byte	0
 9800 1acd 00       		.byte	0
 9801 1ace 14       		.uleb128 0x14
 9802 1acf 2E060000 		.4byte	.LASF144
 9803 1ad3 02       		.byte	0x2
 9804 1ad4 B902     		.2byte	0x2b9
 9805 1ad6 00000000 		.4byte	.LFB107
 9806 1ada AC000000 		.4byte	.LFE107-.LFB107
 9807 1ade 01       		.uleb128 0x1
 9808 1adf 9C       		.byte	0x9c
 9809 1ae0 D31B0000 		.4byte	0x1bd3
 9810 1ae4 25       		.uleb128 0x25
 9811 1ae5 370A0000 		.4byte	.LASF145
 9812 1ae9 02       		.byte	0x2
 9813 1aea B902     		.2byte	0x2b9
 9814 1aec B5000000 		.4byte	0xb5
 9815 1af0 0F120000 		.4byte	.LLST122
 9816 1af4 2A       		.uleb128 0x2a
 9817 1af5 A30E0000 		.4byte	.LASF148
 9818 1af9 02       		.byte	0x2
 9819 1afa C102     		.2byte	0x2c1
 9820 1afc D9000000 		.4byte	0xd9
 9821 1b00 1F       		.uleb128 0x1f
 9822 1b01 C0000000 		.4byte	.Ldebug_ranges0+0xc0
 9823 1b05 B91B0000 		.4byte	0x1bb9
 9824 1b09 18       		.uleb128 0x18
 9825 1b0a 6C00     		.ascii	"l\000"
 9826 1b0c 02       		.byte	0x2
 9827 1b0d C302     		.2byte	0x2c3
 9828 1b0f B5000000 		.4byte	0xb5
 9829 1b13 49120000 		.4byte	.LLST123
 9830 1b17 26       		.uleb128 0x26
 9831 1b18 D8000000 		.4byte	.Ldebug_ranges0+0xd8
 9832 1b1c 17       		.uleb128 0x17
 9833 1b1d B0000000 		.4byte	.LASF146
 9834 1b21 02       		.byte	0x2
 9835 1b22 C402     		.2byte	0x2c4
 9836 1b24 D9000000 		.4byte	0xd9
 9837 1b28 67120000 		.4byte	.LLST124
ARM GAS  C:\Users\FRANKL~1\AppData\Local\Temp\ccba5qpo.s 			page 210


 9838 1b2c 17       		.uleb128 0x17
 9839 1b2d B9010000 		.4byte	.LASF99
 9840 1b31 02       		.byte	0x2
 9841 1b32 C502     		.2byte	0x2c5
 9842 1b34 B5000000 		.4byte	0xb5
 9843 1b38 86120000 		.4byte	.LLST125
 9844 1b3c 17       		.uleb128 0x17
 9845 1b3d 0C060000 		.4byte	.LASF100
 9846 1b41 02       		.byte	0x2
 9847 1b42 CA02     		.2byte	0x2ca
 9848 1b44 B5000000 		.4byte	0xb5
 9849 1b48 C7120000 		.4byte	.LLST126
 9850 1b4c 26       		.uleb128 0x26
 9851 1b4d F0000000 		.4byte	.Ldebug_ranges0+0xf0
 9852 1b51 18       		.uleb128 0x18
 9853 1b52 6900     		.ascii	"i\000"
 9854 1b54 02       		.byte	0x2
 9855 1b55 D202     		.2byte	0x2d2
 9856 1b57 B5000000 		.4byte	0xb5
 9857 1b5b E7120000 		.4byte	.LLST127
 9858 1b5f 26       		.uleb128 0x26
 9859 1b60 08010000 		.4byte	.Ldebug_ranges0+0x108
 9860 1b64 18       		.uleb128 0x18
 9861 1b65 6A00     		.ascii	"j\000"
 9862 1b67 02       		.byte	0x2
 9863 1b68 D302     		.2byte	0x2d3
 9864 1b6a B5000000 		.4byte	0xb5
 9865 1b6e 05130000 		.4byte	.LLST128
 9866 1b72 1C       		.uleb128 0x1c
 9867 1b73 5C000000 		.4byte	.LVL586
 9868 1b77 0F130000 		.4byte	0x130f
 9869 1b7b 871B0000 		.4byte	0x1b87
 9870 1b7f 1B       		.uleb128 0x1b
 9871 1b80 01       		.uleb128 0x1
 9872 1b81 50       		.byte	0x50
 9873 1b82 03       		.uleb128 0x3
 9874 1b83 75       		.byte	0x75
 9875 1b84 00       		.sleb128 0
 9876 1b85 20       		.byte	0x20
 9877 1b86 00       		.byte	0
 9878 1b87 1C       		.uleb128 0x1c
 9879 1b88 62000000 		.4byte	.LVL587
 9880 1b8c 50120000 		.4byte	0x1250
 9881 1b90 9B1B0000 		.4byte	0x1b9b
 9882 1b94 1B       		.uleb128 0x1b
 9883 1b95 01       		.uleb128 0x1
 9884 1b96 50       		.byte	0x50
 9885 1b97 02       		.uleb128 0x2
 9886 1b98 75       		.byte	0x75
 9887 1b99 00       		.sleb128 0
 9888 1b9a 00       		.byte	0
 9889 1b9b 1A       		.uleb128 0x1a
 9890 1b9c 6C000000 		.4byte	.LVL588
 9891 1ba0 20180000 		.4byte	0x1820
 9892 1ba4 1B       		.uleb128 0x1b
 9893 1ba5 01       		.uleb128 0x1
 9894 1ba6 50       		.byte	0x50
ARM GAS  C:\Users\FRANKL~1\AppData\Local\Temp\ccba5qpo.s 			page 211


 9895 1ba7 02       		.uleb128 0x2
 9896 1ba8 08       		.byte	0x8
 9897 1ba9 21       		.byte	0x21
 9898 1baa 1B       		.uleb128 0x1b
 9899 1bab 01       		.uleb128 0x1
 9900 1bac 51       		.byte	0x51
 9901 1bad 01       		.uleb128 0x1
 9902 1bae 31       		.byte	0x31
 9903 1baf 1B       		.uleb128 0x1b
 9904 1bb0 01       		.uleb128 0x1
 9905 1bb1 52       		.byte	0x52
 9906 1bb2 01       		.uleb128 0x1
 9907 1bb3 31       		.byte	0x31
 9908 1bb4 00       		.byte	0
 9909 1bb5 00       		.byte	0
 9910 1bb6 00       		.byte	0
 9911 1bb7 00       		.byte	0
 9912 1bb8 00       		.byte	0
 9913 1bb9 12       		.uleb128 0x12
 9914 1bba 1A000000 		.4byte	.LVL575
 9915 1bbe 0F130000 		.4byte	0x130f
 9916 1bc2 1A       		.uleb128 0x1a
 9917 1bc3 26000000 		.4byte	.LVL578
 9918 1bc7 0F130000 		.4byte	0x130f
 9919 1bcb 1B       		.uleb128 0x1b
 9920 1bcc 01       		.uleb128 0x1
 9921 1bcd 50       		.byte	0x50
 9922 1bce 02       		.uleb128 0x2
 9923 1bcf 09       		.byte	0x9
 9924 1bd0 FE       		.byte	0xfe
 9925 1bd1 00       		.byte	0
 9926 1bd2 00       		.byte	0
 9927 1bd3 14       		.uleb128 0x14
 9928 1bd4 DD0A0000 		.4byte	.LASF147
 9929 1bd8 02       		.byte	0x2
 9930 1bd9 E002     		.2byte	0x2e0
 9931 1bdb 00000000 		.4byte	.LFB108
 9932 1bdf 84000000 		.4byte	.LFE108-.LFB108
 9933 1be3 01       		.uleb128 0x1
 9934 1be4 9C       		.byte	0x9c
 9935 1be5 DC1C0000 		.4byte	0x1cdc
 9936 1be9 25       		.uleb128 0x25
 9937 1bea 370A0000 		.4byte	.LASF145
 9938 1bee 02       		.byte	0x2
 9939 1bef E002     		.2byte	0x2e0
 9940 1bf1 B5000000 		.4byte	0xb5
 9941 1bf5 2E130000 		.4byte	.LLST129
 9942 1bf9 2B       		.uleb128 0x2b
 9943 1bfa A30E0000 		.4byte	.LASF148
 9944 1bfe 02       		.byte	0x2
 9945 1bff E302     		.2byte	0x2e3
 9946 1c01 D9000000 		.4byte	0xd9
 9947 1c05 10       		.byte	0x10
 9948 1c06 15       		.uleb128 0x15
 9949 1c07 0C000000 		.4byte	.LBB53
 9950 1c0b 6E000000 		.4byte	.LBE53-.LBB53
 9951 1c0f CB1C0000 		.4byte	0x1ccb
ARM GAS  C:\Users\FRANKL~1\AppData\Local\Temp\ccba5qpo.s 			page 212


 9952 1c13 18       		.uleb128 0x18
 9953 1c14 6C00     		.ascii	"l\000"
 9954 1c16 02       		.byte	0x2
 9955 1c17 E502     		.2byte	0x2e5
 9956 1c19 B5000000 		.4byte	0xb5
 9957 1c1d 4F130000 		.4byte	.LLST130
 9958 1c21 19       		.uleb128 0x19
 9959 1c22 12000000 		.4byte	.LBB54
 9960 1c26 5C000000 		.4byte	.LBE54-.LBB54
 9961 1c2a 17       		.uleb128 0x17
 9962 1c2b B0000000 		.4byte	.LASF146
 9963 1c2f 02       		.byte	0x2
 9964 1c30 E602     		.2byte	0x2e6
 9965 1c32 D9000000 		.4byte	0xd9
 9966 1c36 79130000 		.4byte	.LLST131
 9967 1c3a 17       		.uleb128 0x17
 9968 1c3b B9010000 		.4byte	.LASF99
 9969 1c3f 02       		.byte	0x2
 9970 1c40 E702     		.2byte	0x2e7
 9971 1c42 B5000000 		.4byte	0xb5
 9972 1c46 98130000 		.4byte	.LLST132
 9973 1c4a 17       		.uleb128 0x17
 9974 1c4b 0C060000 		.4byte	.LASF100
 9975 1c4f 02       		.byte	0x2
 9976 1c50 E802     		.2byte	0x2e8
 9977 1c52 B5000000 		.4byte	0xb5
 9978 1c56 B7130000 		.4byte	.LLST133
 9979 1c5a 19       		.uleb128 0x19
 9980 1c5b 28000000 		.4byte	.LBB55
 9981 1c5f 46000000 		.4byte	.LBE55-.LBB55
 9982 1c63 18       		.uleb128 0x18
 9983 1c64 6900     		.ascii	"i\000"
 9984 1c66 02       		.byte	0x2
 9985 1c67 F002     		.2byte	0x2f0
 9986 1c69 B5000000 		.4byte	0xb5
 9987 1c6d D7130000 		.4byte	.LLST134
 9988 1c71 26       		.uleb128 0x26
 9989 1c72 20010000 		.4byte	.Ldebug_ranges0+0x120
 9990 1c76 18       		.uleb128 0x18
 9991 1c77 6A00     		.ascii	"j\000"
 9992 1c79 02       		.byte	0x2
 9993 1c7a F102     		.2byte	0x2f1
 9994 1c7c B5000000 		.4byte	0xb5
 9995 1c80 F5130000 		.4byte	.LLST135
 9996 1c84 1C       		.uleb128 0x1c
 9997 1c85 36000000 		.4byte	.LVL604
 9998 1c89 0F130000 		.4byte	0x130f
 9999 1c8d 991C0000 		.4byte	0x1c99
 10000 1c91 1B       		.uleb128 0x1b
 10001 1c92 01       		.uleb128 0x1
 10002 1c93 50       		.byte	0x50
 10003 1c94 03       		.uleb128 0x3
 10004 1c95 75       		.byte	0x75
 10005 1c96 00       		.sleb128 0
 10006 1c97 20       		.byte	0x20
 10007 1c98 00       		.byte	0
 10008 1c99 1C       		.uleb128 0x1c
ARM GAS  C:\Users\FRANKL~1\AppData\Local\Temp\ccba5qpo.s 			page 213


 10009 1c9a 3C000000 		.4byte	.LVL605
 10010 1c9e 50120000 		.4byte	0x1250
 10011 1ca2 AD1C0000 		.4byte	0x1cad
 10012 1ca6 1B       		.uleb128 0x1b
 10013 1ca7 01       		.uleb128 0x1
 10014 1ca8 50       		.byte	0x50
 10015 1ca9 02       		.uleb128 0x2
 10016 1caa 75       		.byte	0x75
 10017 1cab 00       		.sleb128 0
 10018 1cac 00       		.byte	0
 10019 1cad 1A       		.uleb128 0x1a
 10020 1cae 46000000 		.4byte	.LVL606
 10021 1cb2 20180000 		.4byte	0x1820
 10022 1cb6 1B       		.uleb128 0x1b
 10023 1cb7 01       		.uleb128 0x1
 10024 1cb8 50       		.byte	0x50
 10025 1cb9 02       		.uleb128 0x2
 10026 1cba 08       		.byte	0x8
 10027 1cbb 21       		.byte	0x21
 10028 1cbc 1B       		.uleb128 0x1b
 10029 1cbd 01       		.uleb128 0x1
 10030 1cbe 51       		.byte	0x51
 10031 1cbf 01       		.uleb128 0x1
 10032 1cc0 31       		.byte	0x31
 10033 1cc1 1B       		.uleb128 0x1b
 10034 1cc2 01       		.uleb128 0x1
 10035 1cc3 52       		.byte	0x52
 10036 1cc4 01       		.uleb128 0x1
 10037 1cc5 31       		.byte	0x31
 10038 1cc6 00       		.byte	0
 10039 1cc7 00       		.byte	0
 10040 1cc8 00       		.byte	0
 10041 1cc9 00       		.byte	0
 10042 1cca 00       		.byte	0
 10043 1ccb 1A       		.uleb128 0x1a
 10044 1ccc 0C000000 		.4byte	.LVL600
 10045 1cd0 0F130000 		.4byte	0x130f
 10046 1cd4 1B       		.uleb128 0x1b
 10047 1cd5 01       		.uleb128 0x1
 10048 1cd6 50       		.byte	0x50
 10049 1cd7 02       		.uleb128 0x2
 10050 1cd8 09       		.byte	0x9
 10051 1cd9 FE       		.byte	0xfe
 10052 1cda 00       		.byte	0
 10053 1cdb 00       		.byte	0
 10054 1cdc 28       		.uleb128 0x28
 10055 1cdd B0070000 		.4byte	.LASF149
 10056 1ce1 02       		.byte	0x2
 10057 1ce2 FF02     		.2byte	0x2ff
 10058 1ce4 00000000 		.4byte	.LFB109
 10059 1ce8 98000000 		.4byte	.LFE109-.LFB109
 10060 1cec 01       		.uleb128 0x1
 10061 1ced 9C       		.byte	0x9c
 10062 1cee D31D0000 		.4byte	0x1dd3
 10063 1cf2 17       		.uleb128 0x17
 10064 1cf3 870D0000 		.4byte	.LASF150
 10065 1cf7 02       		.byte	0x2
ARM GAS  C:\Users\FRANKL~1\AppData\Local\Temp\ccba5qpo.s 			page 214


 10066 1cf8 0003     		.2byte	0x300
 10067 1cfa B5000000 		.4byte	0xb5
 10068 1cfe 1E140000 		.4byte	.LLST136
 10069 1d02 2B       		.uleb128 0x2b
 10070 1d03 410D0000 		.4byte	.LASF151
 10071 1d07 02       		.byte	0x2
 10072 1d08 0103     		.2byte	0x301
 10073 1d0a D9000000 		.4byte	0xd9
 10074 1d0e 01       		.byte	0x1
 10075 1d0f 2B       		.uleb128 0x2b
 10076 1d10 090F0000 		.4byte	.LASF152
 10077 1d14 02       		.byte	0x2
 10078 1d15 0203     		.2byte	0x302
 10079 1d17 B5000000 		.4byte	0xb5
 10080 1d1b 00       		.byte	0
 10081 1d1c 2B       		.uleb128 0x2b
 10082 1d1d DD080000 		.4byte	.LASF153
 10083 1d21 02       		.byte	0x2
 10084 1d22 0303     		.2byte	0x303
 10085 1d24 B5000000 		.4byte	0xb5
 10086 1d28 00       		.byte	0
 10087 1d29 17       		.uleb128 0x17
 10088 1d2a 71040000 		.4byte	.LASF154
 10089 1d2e 02       		.byte	0x2
 10090 1d2f 0403     		.2byte	0x304
 10091 1d31 B5000000 		.4byte	0xb5
 10092 1d35 53140000 		.4byte	.LLST137
 10093 1d39 17       		.uleb128 0x17
 10094 1d3a 17020000 		.4byte	.LASF155
 10095 1d3e 02       		.byte	0x2
 10096 1d3f 0503     		.2byte	0x305
 10097 1d41 B5000000 		.4byte	0xb5
 10098 1d45 7D140000 		.4byte	.LLST138
 10099 1d49 2B       		.uleb128 0x2b
 10100 1d4a 8C060000 		.4byte	.LASF156
 10101 1d4e 02       		.byte	0x2
 10102 1d4f 0703     		.2byte	0x307
 10103 1d51 D9000000 		.4byte	0xd9
 10104 1d55 01       		.byte	0x1
 10105 1d56 2B       		.uleb128 0x2b
 10106 1d57 77090000 		.4byte	.LASF157
 10107 1d5b 02       		.byte	0x2
 10108 1d5c 0803     		.2byte	0x308
 10109 1d5e B5000000 		.4byte	0xb5
 10110 1d62 00       		.byte	0
 10111 1d63 2B       		.uleb128 0x2b
 10112 1d64 DE0D0000 		.4byte	.LASF158
 10113 1d68 02       		.byte	0x2
 10114 1d69 0903     		.2byte	0x309
 10115 1d6b B5000000 		.4byte	0xb5
 10116 1d6f 00       		.byte	0
 10117 1d70 17       		.uleb128 0x17
 10118 1d71 20010000 		.4byte	.LASF159
 10119 1d75 02       		.byte	0x2
 10120 1d76 0A03     		.2byte	0x30a
 10121 1d78 B5000000 		.4byte	0xb5
 10122 1d7c A7140000 		.4byte	.LLST139
ARM GAS  C:\Users\FRANKL~1\AppData\Local\Temp\ccba5qpo.s 			page 215


 10123 1d80 17       		.uleb128 0x17
 10124 1d81 6C0C0000 		.4byte	.LASF160
 10125 1d85 02       		.byte	0x2
 10126 1d86 0B03     		.2byte	0x30b
 10127 1d88 B5000000 		.4byte	0xb5
 10128 1d8c D1140000 		.4byte	.LLST140
 10129 1d90 1C       		.uleb128 0x1c
 10130 1d91 52000000 		.4byte	.LVL623
 10131 1d95 0F130000 		.4byte	0x130f
 10132 1d99 A41D0000 		.4byte	0x1da4
 10133 1d9d 1B       		.uleb128 0x1b
 10134 1d9e 01       		.uleb128 0x1
 10135 1d9f 50       		.byte	0x50
 10136 1da0 02       		.uleb128 0x2
 10137 1da1 75       		.byte	0x75
 10138 1da2 00       		.sleb128 0
 10139 1da3 00       		.byte	0
 10140 1da4 1C       		.uleb128 0x1c
 10141 1da5 58000000 		.4byte	.LVL624
 10142 1da9 50120000 		.4byte	0x1250
 10143 1dad B81D0000 		.4byte	0x1db8
 10144 1db1 1B       		.uleb128 0x1b
 10145 1db2 01       		.uleb128 0x1
 10146 1db3 50       		.byte	0x50
 10147 1db4 02       		.uleb128 0x2
 10148 1db5 76       		.byte	0x76
 10149 1db6 00       		.sleb128 0
 10150 1db7 00       		.byte	0
 10151 1db8 1A       		.uleb128 0x1a
 10152 1db9 62000000 		.4byte	.LVL625
 10153 1dbd 20180000 		.4byte	0x1820
 10154 1dc1 1B       		.uleb128 0x1b
 10155 1dc2 01       		.uleb128 0x1
 10156 1dc3 50       		.byte	0x50
 10157 1dc4 02       		.uleb128 0x2
 10158 1dc5 08       		.byte	0x8
 10159 1dc6 64       		.byte	0x64
 10160 1dc7 1B       		.uleb128 0x1b
 10161 1dc8 01       		.uleb128 0x1
 10162 1dc9 51       		.byte	0x51
 10163 1dca 01       		.uleb128 0x1
 10164 1dcb 31       		.byte	0x31
 10165 1dcc 1B       		.uleb128 0x1b
 10166 1dcd 01       		.uleb128 0x1
 10167 1dce 52       		.byte	0x52
 10168 1dcf 01       		.uleb128 0x1
 10169 1dd0 31       		.byte	0x31
 10170 1dd1 00       		.byte	0
 10171 1dd2 00       		.byte	0
 10172 1dd3 14       		.uleb128 0x14
 10173 1dd4 79020000 		.4byte	.LASF161
 10174 1dd8 02       		.byte	0x2
 10175 1dd9 2703     		.2byte	0x327
 10176 1ddb 00000000 		.4byte	.LFB110
 10177 1ddf 90000000 		.4byte	.LFE110-.LFB110
 10178 1de3 01       		.uleb128 0x1
 10179 1de4 9C       		.byte	0x9c
ARM GAS  C:\Users\FRANKL~1\AppData\Local\Temp\ccba5qpo.s 			page 216


 10180 1de5 3E1F0000 		.4byte	0x1f3e
 10181 1de9 25       		.uleb128 0x25
 10182 1dea ED0E0000 		.4byte	.LASF162
 10183 1dee 02       		.byte	0x2
 10184 1def 2703     		.2byte	0x327
 10185 1df1 B5000000 		.4byte	0xb5
 10186 1df5 FB140000 		.4byte	.LLST141
 10187 1df9 25       		.uleb128 0x25
 10188 1dfa 370A0000 		.4byte	.LASF145
 10189 1dfe 02       		.byte	0x2
 10190 1dff 2703     		.2byte	0x327
 10191 1e01 B5000000 		.4byte	0xb5
 10192 1e05 1C150000 		.4byte	.LLST142
 10193 1e09 19       		.uleb128 0x19
 10194 1e0a 08000000 		.4byte	.LBB58
 10195 1e0e 88000000 		.4byte	.LBE58-.LBB58
 10196 1e12 17       		.uleb128 0x17
 10197 1e13 3C0A0000 		.4byte	.LASF163
 10198 1e17 02       		.byte	0x2
 10199 1e18 2803     		.2byte	0x328
 10200 1e1a B5000000 		.4byte	0xb5
 10201 1e1e 3D150000 		.4byte	.LLST143
 10202 1e22 19       		.uleb128 0x19
 10203 1e23 0C000000 		.4byte	.LBB59
 10204 1e27 6E000000 		.4byte	.LBE59-.LBB59
 10205 1e2b 17       		.uleb128 0x17
 10206 1e2c 960D0000 		.4byte	.LASF164
 10207 1e30 02       		.byte	0x2
 10208 1e31 2903     		.2byte	0x329
 10209 1e33 B5000000 		.4byte	0xb5
 10210 1e37 5C150000 		.4byte	.LLST144
 10211 1e3b 17       		.uleb128 0x17
 10212 1e3c 9F0D0000 		.4byte	.LASF165
 10213 1e40 02       		.byte	0x2
 10214 1e41 2A03     		.2byte	0x32a
 10215 1e43 B5000000 		.4byte	0xb5
 10216 1e47 6F150000 		.4byte	.LLST145
 10217 1e4b 17       		.uleb128 0x17
 10218 1e4c 5A0E0000 		.4byte	.LASF166
 10219 1e50 02       		.byte	0x2
 10220 1e51 2B03     		.2byte	0x32b
 10221 1e53 B5000000 		.4byte	0xb5
 10222 1e57 82150000 		.4byte	.LLST146
 10223 1e5b 17       		.uleb128 0x17
 10224 1e5c 680E0000 		.4byte	.LASF167
 10225 1e60 02       		.byte	0x2
 10226 1e61 2C03     		.2byte	0x32c
 10227 1e63 B5000000 		.4byte	0xb5
 10228 1e67 96150000 		.4byte	.LLST147
 10229 1e6b 12       		.uleb128 0x12
 10230 1e6c 14000000 		.4byte	.LVL637
 10231 1e70 E2090000 		.4byte	0x9e2
 10232 1e74 12       		.uleb128 0x12
 10233 1e75 18000000 		.4byte	.LVL638
 10234 1e79 2B160000 		.4byte	0x162b
 10235 1e7d 12       		.uleb128 0x12
 10236 1e7e 1C000000 		.4byte	.LVL639
ARM GAS  C:\Users\FRANKL~1\AppData\Local\Temp\ccba5qpo.s 			page 217


 10237 1e82 0A0B0000 		.4byte	0xb0a
 10238 1e86 1C       		.uleb128 0x1c
 10239 1e87 24000000 		.4byte	.LVL640
 10240 1e8b E3080000 		.4byte	0x8e3
 10241 1e8f 9F1E0000 		.4byte	0x1e9f
 10242 1e93 1B       		.uleb128 0x1b
 10243 1e94 01       		.uleb128 0x1
 10244 1e95 50       		.byte	0x50
 10245 1e96 02       		.uleb128 0x2
 10246 1e97 74       		.byte	0x74
 10247 1e98 00       		.sleb128 0
 10248 1e99 1B       		.uleb128 0x1b
 10249 1e9a 01       		.uleb128 0x1
 10250 1e9b 51       		.byte	0x51
 10251 1e9c 01       		.uleb128 0x1
 10252 1e9d 31       		.byte	0x31
 10253 1e9e 00       		.byte	0
 10254 1e9f 1C       		.uleb128 0x1c
 10255 1ea0 2C000000 		.4byte	.LVL641
 10256 1ea4 E3080000 		.4byte	0x8e3
 10257 1ea8 B81E0000 		.4byte	0x1eb8
 10258 1eac 1B       		.uleb128 0x1b
 10259 1ead 01       		.uleb128 0x1
 10260 1eae 50       		.byte	0x50
 10261 1eaf 02       		.uleb128 0x2
 10262 1eb0 76       		.byte	0x76
 10263 1eb1 00       		.sleb128 0
 10264 1eb2 1B       		.uleb128 0x1b
 10265 1eb3 01       		.uleb128 0x1
 10266 1eb4 51       		.byte	0x51
 10267 1eb5 01       		.uleb128 0x1
 10268 1eb6 32       		.byte	0x32
 10269 1eb7 00       		.byte	0
 10270 1eb8 1C       		.uleb128 0x1c
 10271 1eb9 38000000 		.4byte	.LVL642
 10272 1ebd 1A370000 		.4byte	0x371a
 10273 1ec1 DB1E0000 		.4byte	0x1edb
 10274 1ec5 1B       		.uleb128 0x1b
 10275 1ec6 01       		.uleb128 0x1
 10276 1ec7 50       		.byte	0x50
 10277 1ec8 02       		.uleb128 0x2
 10278 1ec9 75       		.byte	0x75
 10279 1eca 00       		.sleb128 0
 10280 1ecb 1B       		.uleb128 0x1b
 10281 1ecc 01       		.uleb128 0x1
 10282 1ecd 51       		.byte	0x51
 10283 1ece 05       		.uleb128 0x5
 10284 1ecf 03       		.byte	0x3
 10285 1ed0 F4000000 		.4byte	.LC14
 10286 1ed4 1B       		.uleb128 0x1b
 10287 1ed5 01       		.uleb128 0x1
 10288 1ed6 52       		.byte	0x52
 10289 1ed7 02       		.uleb128 0x2
 10290 1ed8 74       		.byte	0x74
 10291 1ed9 00       		.sleb128 0
 10292 1eda 00       		.byte	0
 10293 1edb 1C       		.uleb128 0x1c
ARM GAS  C:\Users\FRANKL~1\AppData\Local\Temp\ccba5qpo.s 			page 218


 10294 1edc 3E000000 		.4byte	.LVL643
 10295 1ee0 E3360000 		.4byte	0x36e3
 10296 1ee4 EF1E0000 		.4byte	0x1eef
 10297 1ee8 1B       		.uleb128 0x1b
 10298 1ee9 01       		.uleb128 0x1
 10299 1eea 50       		.byte	0x50
 10300 1eeb 02       		.uleb128 0x2
 10301 1eec 75       		.byte	0x75
 10302 1eed 00       		.sleb128 0
 10303 1eee 00       		.byte	0
 10304 1eef 1C       		.uleb128 0x1c
 10305 1ef0 46000000 		.4byte	.LVL644
 10306 1ef4 D1030000 		.4byte	0x3d1
 10307 1ef8 031F0000 		.4byte	0x1f03
 10308 1efc 1B       		.uleb128 0x1b
 10309 1efd 01       		.uleb128 0x1
 10310 1efe 50       		.byte	0x50
 10311 1eff 02       		.uleb128 0x2
 10312 1f00 75       		.byte	0x75
 10313 1f01 00       		.sleb128 0
 10314 1f02 00       		.byte	0
 10315 1f03 1C       		.uleb128 0x1c
 10316 1f04 4C000000 		.4byte	.LVL645
 10317 1f08 F9360000 		.4byte	0x36f9
 10318 1f0c 171F0000 		.4byte	0x1f17
 10319 1f10 1B       		.uleb128 0x1b
 10320 1f11 01       		.uleb128 0x1
 10321 1f12 50       		.byte	0x50
 10322 1f13 02       		.uleb128 0x2
 10323 1f14 75       		.byte	0x75
 10324 1f15 00       		.sleb128 0
 10325 1f16 00       		.byte	0
 10326 1f17 1C       		.uleb128 0x1c
 10327 1f18 54000000 		.4byte	.LVL646
 10328 1f1c D31B0000 		.4byte	0x1bd3
 10329 1f20 2B1F0000 		.4byte	0x1f2b
 10330 1f24 1B       		.uleb128 0x1b
 10331 1f25 01       		.uleb128 0x1
 10332 1f26 50       		.byte	0x50
 10333 1f27 02       		.uleb128 0x2
 10334 1f28 78       		.byte	0x78
 10335 1f29 00       		.sleb128 0
 10336 1f2a 00       		.byte	0
 10337 1f2b 1A       		.uleb128 0x1a
 10338 1f2c 5C000000 		.4byte	.LVL647
 10339 1f30 CE1A0000 		.4byte	0x1ace
 10340 1f34 1B       		.uleb128 0x1b
 10341 1f35 01       		.uleb128 0x1
 10342 1f36 50       		.byte	0x50
 10343 1f37 02       		.uleb128 0x2
 10344 1f38 78       		.byte	0x78
 10345 1f39 00       		.sleb128 0
 10346 1f3a 00       		.byte	0
 10347 1f3b 00       		.byte	0
 10348 1f3c 00       		.byte	0
 10349 1f3d 00       		.byte	0
 10350 1f3e 14       		.uleb128 0x14
ARM GAS  C:\Users\FRANKL~1\AppData\Local\Temp\ccba5qpo.s 			page 219


 10351 1f3f 400B0000 		.4byte	.LASF168
 10352 1f43 02       		.byte	0x2
 10353 1f44 4303     		.2byte	0x343
 10354 1f46 00000000 		.4byte	.LFB111
 10355 1f4a A4000000 		.4byte	.LFE111-.LFB111
 10356 1f4e 01       		.uleb128 0x1
 10357 1f4f 9C       		.byte	0x9c
 10358 1f50 C9200000 		.4byte	0x20c9
 10359 1f54 25       		.uleb128 0x25
 10360 1f55 120B0000 		.4byte	.LASF169
 10361 1f59 02       		.byte	0x2
 10362 1f5a 4303     		.2byte	0x343
 10363 1f5c B5000000 		.4byte	0xb5
 10364 1f60 AA150000 		.4byte	.LLST148
 10365 1f64 25       		.uleb128 0x25
 10366 1f65 CD0A0000 		.4byte	.LASF170
 10367 1f69 02       		.byte	0x2
 10368 1f6a 4303     		.2byte	0x343
 10369 1f6c B5000000 		.4byte	0xb5
 10370 1f70 D6150000 		.4byte	.LLST149
 10371 1f74 25       		.uleb128 0x25
 10372 1f75 ED0E0000 		.4byte	.LASF162
 10373 1f79 02       		.byte	0x2
 10374 1f7a 4303     		.2byte	0x343
 10375 1f7c B5000000 		.4byte	0xb5
 10376 1f80 02160000 		.4byte	.LLST150
 10377 1f84 25       		.uleb128 0x25
 10378 1f85 370A0000 		.4byte	.LASF145
 10379 1f89 02       		.byte	0x2
 10380 1f8a 4303     		.2byte	0x343
 10381 1f8c B5000000 		.4byte	0xb5
 10382 1f90 2E160000 		.4byte	.LLST151
 10383 1f94 19       		.uleb128 0x19
 10384 1f95 18000000 		.4byte	.LBB60
 10385 1f99 8C000000 		.4byte	.LBE60-.LBB60
 10386 1f9d 17       		.uleb128 0x17
 10387 1f9e 3C0A0000 		.4byte	.LASF163
 10388 1fa2 02       		.byte	0x2
 10389 1fa3 4703     		.2byte	0x347
 10390 1fa5 B5000000 		.4byte	0xb5
 10391 1fa9 5A160000 		.4byte	.LLST152
 10392 1fad 19       		.uleb128 0x19
 10393 1fae 18000000 		.4byte	.LBB61
 10394 1fb2 72000000 		.4byte	.LBE61-.LBB61
 10395 1fb6 17       		.uleb128 0x17
 10396 1fb7 960D0000 		.4byte	.LASF164
 10397 1fbb 02       		.byte	0x2
 10398 1fbc 4803     		.2byte	0x348
 10399 1fbe B5000000 		.4byte	0xb5
 10400 1fc2 6D160000 		.4byte	.LLST153
 10401 1fc6 17       		.uleb128 0x17
 10402 1fc7 9F0D0000 		.4byte	.LASF165
 10403 1fcb 02       		.byte	0x2
 10404 1fcc 4903     		.2byte	0x349
 10405 1fce B5000000 		.4byte	0xb5
 10406 1fd2 80160000 		.4byte	.LLST154
 10407 1fd6 17       		.uleb128 0x17
ARM GAS  C:\Users\FRANKL~1\AppData\Local\Temp\ccba5qpo.s 			page 220


 10408 1fd7 5A0E0000 		.4byte	.LASF166
 10409 1fdb 02       		.byte	0x2
 10410 1fdc 4A03     		.2byte	0x34a
 10411 1fde B5000000 		.4byte	0xb5
 10412 1fe2 93160000 		.4byte	.LLST155
 10413 1fe6 17       		.uleb128 0x17
 10414 1fe7 680E0000 		.4byte	.LASF167
 10415 1feb 02       		.byte	0x2
 10416 1fec 4B03     		.2byte	0x34b
 10417 1fee B5000000 		.4byte	0xb5
 10418 1ff2 A7160000 		.4byte	.LLST156
 10419 1ff6 12       		.uleb128 0x12
 10420 1ff7 20000000 		.4byte	.LVL653
 10421 1ffb E2090000 		.4byte	0x9e2
 10422 1fff 12       		.uleb128 0x12
 10423 2000 24000000 		.4byte	.LVL654
 10424 2004 2B160000 		.4byte	0x162b
 10425 2008 12       		.uleb128 0x12
 10426 2009 28000000 		.4byte	.LVL655
 10427 200d 0A0B0000 		.4byte	0xb0a
 10428 2011 1C       		.uleb128 0x1c
 10429 2012 30000000 		.4byte	.LVL656
 10430 2016 E3080000 		.4byte	0x8e3
 10431 201a 2A200000 		.4byte	0x202a
 10432 201e 1B       		.uleb128 0x1b
 10433 201f 01       		.uleb128 0x1
 10434 2020 50       		.byte	0x50
 10435 2021 02       		.uleb128 0x2
 10436 2022 74       		.byte	0x74
 10437 2023 00       		.sleb128 0
 10438 2024 1B       		.uleb128 0x1b
 10439 2025 01       		.uleb128 0x1
 10440 2026 51       		.byte	0x51
 10441 2027 01       		.uleb128 0x1
 10442 2028 31       		.byte	0x31
 10443 2029 00       		.byte	0
 10444 202a 1C       		.uleb128 0x1c
 10445 202b 38000000 		.4byte	.LVL657
 10446 202f E3080000 		.4byte	0x8e3
 10447 2033 43200000 		.4byte	0x2043
 10448 2037 1B       		.uleb128 0x1b
 10449 2038 01       		.uleb128 0x1
 10450 2039 50       		.byte	0x50
 10451 203a 02       		.uleb128 0x2
 10452 203b 76       		.byte	0x76
 10453 203c 00       		.sleb128 0
 10454 203d 1B       		.uleb128 0x1b
 10455 203e 01       		.uleb128 0x1
 10456 203f 51       		.byte	0x51
 10457 2040 01       		.uleb128 0x1
 10458 2041 32       		.byte	0x32
 10459 2042 00       		.byte	0
 10460 2043 1C       		.uleb128 0x1c
 10461 2044 44000000 		.4byte	.LVL658
 10462 2048 1A370000 		.4byte	0x371a
 10463 204c 66200000 		.4byte	0x2066
 10464 2050 1B       		.uleb128 0x1b
ARM GAS  C:\Users\FRANKL~1\AppData\Local\Temp\ccba5qpo.s 			page 221


 10465 2051 01       		.uleb128 0x1
 10466 2052 50       		.byte	0x50
 10467 2053 02       		.uleb128 0x2
 10468 2054 75       		.byte	0x75
 10469 2055 00       		.sleb128 0
 10470 2056 1B       		.uleb128 0x1b
 10471 2057 01       		.uleb128 0x1
 10472 2058 51       		.byte	0x51
 10473 2059 05       		.uleb128 0x5
 10474 205a 03       		.byte	0x3
 10475 205b F4000000 		.4byte	.LC14
 10476 205f 1B       		.uleb128 0x1b
 10477 2060 01       		.uleb128 0x1
 10478 2061 52       		.byte	0x52
 10479 2062 02       		.uleb128 0x2
 10480 2063 74       		.byte	0x74
 10481 2064 00       		.sleb128 0
 10482 2065 00       		.byte	0
 10483 2066 1C       		.uleb128 0x1c
 10484 2067 4A000000 		.4byte	.LVL659
 10485 206b E3360000 		.4byte	0x36e3
 10486 206f 7A200000 		.4byte	0x207a
 10487 2073 1B       		.uleb128 0x1b
 10488 2074 01       		.uleb128 0x1
 10489 2075 50       		.byte	0x50
 10490 2076 02       		.uleb128 0x2
 10491 2077 75       		.byte	0x75
 10492 2078 00       		.sleb128 0
 10493 2079 00       		.byte	0
 10494 207a 1C       		.uleb128 0x1c
 10495 207b 52000000 		.4byte	.LVL660
 10496 207f D1030000 		.4byte	0x3d1
 10497 2083 8E200000 		.4byte	0x208e
 10498 2087 1B       		.uleb128 0x1b
 10499 2088 01       		.uleb128 0x1
 10500 2089 50       		.byte	0x50
 10501 208a 02       		.uleb128 0x2
 10502 208b 75       		.byte	0x75
 10503 208c 00       		.sleb128 0
 10504 208d 00       		.byte	0
 10505 208e 1C       		.uleb128 0x1c
 10506 208f 58000000 		.4byte	.LVL661
 10507 2093 F9360000 		.4byte	0x36f9
 10508 2097 A2200000 		.4byte	0x20a2
 10509 209b 1B       		.uleb128 0x1b
 10510 209c 01       		.uleb128 0x1
 10511 209d 50       		.byte	0x50
 10512 209e 02       		.uleb128 0x2
 10513 209f 75       		.byte	0x75
 10514 20a0 00       		.sleb128 0
 10515 20a1 00       		.byte	0
 10516 20a2 1C       		.uleb128 0x1c
 10517 20a3 64000000 		.4byte	.LVL662
 10518 20a7 D31B0000 		.4byte	0x1bd3
 10519 20ab B6200000 		.4byte	0x20b6
 10520 20af 1B       		.uleb128 0x1b
 10521 20b0 01       		.uleb128 0x1
ARM GAS  C:\Users\FRANKL~1\AppData\Local\Temp\ccba5qpo.s 			page 222


 10522 20b1 50       		.byte	0x50
 10523 20b2 02       		.uleb128 0x2
 10524 20b3 79       		.byte	0x79
 10525 20b4 00       		.sleb128 0
 10526 20b5 00       		.byte	0
 10527 20b6 1A       		.uleb128 0x1a
 10528 20b7 6C000000 		.4byte	.LVL663
 10529 20bb CE1A0000 		.4byte	0x1ace
 10530 20bf 1B       		.uleb128 0x1b
 10531 20c0 01       		.uleb128 0x1
 10532 20c1 50       		.byte	0x50
 10533 20c2 02       		.uleb128 0x2
 10534 20c3 79       		.byte	0x79
 10535 20c4 00       		.sleb128 0
 10536 20c5 00       		.byte	0
 10537 20c6 00       		.byte	0
 10538 20c7 00       		.byte	0
 10539 20c8 00       		.byte	0
 10540 20c9 2C       		.uleb128 0x2c
 10541 20ca 4F020000 		.4byte	.LASF252
 10542 20ce 02       		.byte	0x2
 10543 20cf A803     		.2byte	0x3a8
 10544 20d1 33000000 		.4byte	0x33
 10545 20d5 00000000 		.4byte	.LFB113
 10546 20d9 EC080000 		.4byte	.LFE113-.LFB113
 10547 20dd 01       		.uleb128 0x1
 10548 20de 9C       		.byte	0x9c
 10549 20df C0340000 		.4byte	0x34c0
 10550 20e3 15       		.uleb128 0x15
 10551 20e4 86000000 		.4byte	.LBB62
 10552 20e8 66080000 		.4byte	.LBE62-.LBB62
 10553 20ec DA330000 		.4byte	0x33da
 10554 20f0 17       		.uleb128 0x17
 10555 20f1 A1090000 		.4byte	.LASF41
 10556 20f5 02       		.byte	0x2
 10557 20f6 CF03     		.2byte	0x3cf
 10558 20f8 92000000 		.4byte	0x92
 10559 20fc BB160000 		.4byte	.LLST157
 10560 2100 15       		.uleb128 0x15
 10561 2101 C0000000 		.4byte	.LBB63
 10562 2105 18000000 		.4byte	.LBE63-.LBB63
 10563 2109 67210000 		.4byte	0x2167
 10564 210d 16       		.uleb128 0x16
 10565 210e 41060000 		.4byte	.LASF171
 10566 2112 02       		.byte	0x2
 10567 2113 D803     		.2byte	0x3d8
 10568 2115 92000000 		.4byte	0x92
 10569 2119 02       		.uleb128 0x2
 10570 211a 91       		.byte	0x91
 10571 211b 64       		.sleb128 -28
 10572 211c 18       		.uleb128 0x18
 10573 211d 6E00     		.ascii	"n\000"
 10574 211f 02       		.byte	0x2
 10575 2120 D903     		.2byte	0x3d9
 10576 2122 CD000000 		.4byte	0xcd
 10577 2126 83170000 		.4byte	.LLST158
 10578 212a 1C       		.uleb128 0x1c
ARM GAS  C:\Users\FRANKL~1\AppData\Local\Temp\ccba5qpo.s 			page 223


 10579 212b C8000000 		.4byte	.LVL689
 10580 212f EB370000 		.4byte	0x37eb
 10581 2133 44210000 		.4byte	0x2144
 10582 2137 1B       		.uleb128 0x1b
 10583 2138 01       		.uleb128 0x1
 10584 2139 50       		.byte	0x50
 10585 213a 02       		.uleb128 0x2
 10586 213b 74       		.byte	0x74
 10587 213c 00       		.sleb128 0
 10588 213d 1B       		.uleb128 0x1b
 10589 213e 01       		.uleb128 0x1
 10590 213f 51       		.byte	0x51
 10591 2140 02       		.uleb128 0x2
 10592 2141 08       		.byte	0x8
 10593 2142 20       		.byte	0x20
 10594 2143 00       		.byte	0
 10595 2144 1C       		.uleb128 0x1c
 10596 2145 D4000000 		.4byte	.LVL690
 10597 2149 FA370000 		.4byte	0x37fa
 10598 214d 5D210000 		.4byte	0x215d
 10599 2151 1B       		.uleb128 0x1b
 10600 2152 01       		.uleb128 0x1
 10601 2153 51       		.byte	0x51
 10602 2154 02       		.uleb128 0x2
 10603 2155 91       		.byte	0x91
 10604 2156 64       		.sleb128 -28
 10605 2157 1B       		.uleb128 0x1b
 10606 2158 01       		.uleb128 0x1
 10607 2159 52       		.byte	0x52
 10608 215a 01       		.uleb128 0x1
 10609 215b 3A       		.byte	0x3a
 10610 215c 00       		.byte	0
 10611 215d 12       		.uleb128 0x12
 10612 215e D8000000 		.4byte	.LVL691
 10613 2162 F0190000 		.4byte	0x19f0
 10614 2166 00       		.byte	0
 10615 2167 15       		.uleb128 0x15
 10616 2168 36010000 		.4byte	.LBB64
 10617 216c 1A000000 		.4byte	.LBE64-.LBB64
 10618 2170 D0210000 		.4byte	0x21d0
 10619 2174 16       		.uleb128 0x16
 10620 2175 41060000 		.4byte	.LASF171
 10621 2179 02       		.byte	0x2
 10622 217a EA03     		.2byte	0x3ea
 10623 217c 92000000 		.4byte	0x92
 10624 2180 02       		.uleb128 0x2
 10625 2181 91       		.byte	0x91
 10626 2182 64       		.sleb128 -28
 10627 2183 17       		.uleb128 0x17
 10628 2184 30080000 		.4byte	.LASF172
 10629 2188 02       		.byte	0x2
 10630 2189 EB03     		.2byte	0x3eb
 10631 218b B5000000 		.4byte	0xb5
 10632 218f 96170000 		.4byte	.LLST159
 10633 2193 1C       		.uleb128 0x1c
 10634 2194 3E010000 		.4byte	.LVL701
 10635 2198 EB370000 		.4byte	0x37eb
ARM GAS  C:\Users\FRANKL~1\AppData\Local\Temp\ccba5qpo.s 			page 224


 10636 219c AD210000 		.4byte	0x21ad
 10637 21a0 1B       		.uleb128 0x1b
 10638 21a1 01       		.uleb128 0x1
 10639 21a2 50       		.byte	0x50
 10640 21a3 02       		.uleb128 0x2
 10641 21a4 74       		.byte	0x74
 10642 21a5 00       		.sleb128 0
 10643 21a6 1B       		.uleb128 0x1b
 10644 21a7 01       		.uleb128 0x1
 10645 21a8 51       		.byte	0x51
 10646 21a9 02       		.uleb128 0x2
 10647 21aa 08       		.byte	0x8
 10648 21ab 20       		.byte	0x20
 10649 21ac 00       		.byte	0
 10650 21ad 1C       		.uleb128 0x1c
 10651 21ae 4A010000 		.4byte	.LVL702
 10652 21b2 FA370000 		.4byte	0x37fa
 10653 21b6 C6210000 		.4byte	0x21c6
 10654 21ba 1B       		.uleb128 0x1b
 10655 21bb 01       		.uleb128 0x1
 10656 21bc 51       		.byte	0x51
 10657 21bd 02       		.uleb128 0x2
 10658 21be 91       		.byte	0x91
 10659 21bf 64       		.sleb128 -28
 10660 21c0 1B       		.uleb128 0x1b
 10661 21c1 01       		.uleb128 0x1
 10662 21c2 52       		.byte	0x52
 10663 21c3 01       		.uleb128 0x1
 10664 21c4 3A       		.byte	0x3a
 10665 21c5 00       		.byte	0
 10666 21c6 12       		.uleb128 0x12
 10667 21c7 50010000 		.4byte	.LVL703
 10668 21cb 50120000 		.4byte	0x1250
 10669 21cf 00       		.byte	0
 10670 21d0 15       		.uleb128 0x15
 10671 21d1 5E010000 		.4byte	.LBB65
 10672 21d5 1A000000 		.4byte	.LBE65-.LBB65
 10673 21d9 39220000 		.4byte	0x2239
 10674 21dd 16       		.uleb128 0x16
 10675 21de 41060000 		.4byte	.LASF171
 10676 21e2 02       		.byte	0x2
 10677 21e3 F003     		.2byte	0x3f0
 10678 21e5 92000000 		.4byte	0x92
 10679 21e9 02       		.uleb128 0x2
 10680 21ea 91       		.byte	0x91
 10681 21eb 64       		.sleb128 -28
 10682 21ec 17       		.uleb128 0x17
 10683 21ed A90E0000 		.4byte	.LASF173
 10684 21f1 02       		.byte	0x2
 10685 21f2 F103     		.2byte	0x3f1
 10686 21f4 B5000000 		.4byte	0xb5
 10687 21f8 A9170000 		.4byte	.LLST160
 10688 21fc 1C       		.uleb128 0x1c
 10689 21fd 66010000 		.4byte	.LVL705
 10690 2201 EB370000 		.4byte	0x37eb
 10691 2205 16220000 		.4byte	0x2216
 10692 2209 1B       		.uleb128 0x1b
ARM GAS  C:\Users\FRANKL~1\AppData\Local\Temp\ccba5qpo.s 			page 225


 10693 220a 01       		.uleb128 0x1
 10694 220b 50       		.byte	0x50
 10695 220c 02       		.uleb128 0x2
 10696 220d 74       		.byte	0x74
 10697 220e 00       		.sleb128 0
 10698 220f 1B       		.uleb128 0x1b
 10699 2210 01       		.uleb128 0x1
 10700 2211 51       		.byte	0x51
 10701 2212 02       		.uleb128 0x2
 10702 2213 08       		.byte	0x8
 10703 2214 20       		.byte	0x20
 10704 2215 00       		.byte	0
 10705 2216 1C       		.uleb128 0x1c
 10706 2217 72010000 		.4byte	.LVL706
 10707 221b FA370000 		.4byte	0x37fa
 10708 221f 2F220000 		.4byte	0x222f
 10709 2223 1B       		.uleb128 0x1b
 10710 2224 01       		.uleb128 0x1
 10711 2225 51       		.byte	0x51
 10712 2226 02       		.uleb128 0x2
 10713 2227 91       		.byte	0x91
 10714 2228 64       		.sleb128 -28
 10715 2229 1B       		.uleb128 0x1b
 10716 222a 01       		.uleb128 0x1
 10717 222b 52       		.byte	0x52
 10718 222c 01       		.uleb128 0x1
 10719 222d 3A       		.byte	0x3a
 10720 222e 00       		.byte	0
 10721 222f 12       		.uleb128 0x12
 10722 2230 78010000 		.4byte	.LVL707
 10723 2234 91110000 		.4byte	0x1191
 10724 2238 00       		.byte	0
 10725 2239 15       		.uleb128 0x15
 10726 223a 86010000 		.4byte	.LBB66
 10727 223e 1A000000 		.4byte	.LBE66-.LBB66
 10728 2242 A2220000 		.4byte	0x22a2
 10729 2246 16       		.uleb128 0x16
 10730 2247 41060000 		.4byte	.LASF171
 10731 224b 02       		.byte	0x2
 10732 224c F603     		.2byte	0x3f6
 10733 224e 92000000 		.4byte	0x92
 10734 2252 02       		.uleb128 0x2
 10735 2253 91       		.byte	0x91
 10736 2254 64       		.sleb128 -28
 10737 2255 17       		.uleb128 0x17
 10738 2256 30080000 		.4byte	.LASF172
 10739 225a 02       		.byte	0x2
 10740 225b F703     		.2byte	0x3f7
 10741 225d D9000000 		.4byte	0xd9
 10742 2261 BC170000 		.4byte	.LLST161
 10743 2265 1C       		.uleb128 0x1c
 10744 2266 8E010000 		.4byte	.LVL709
 10745 226a EB370000 		.4byte	0x37eb
 10746 226e 7F220000 		.4byte	0x227f
 10747 2272 1B       		.uleb128 0x1b
 10748 2273 01       		.uleb128 0x1
 10749 2274 50       		.byte	0x50
ARM GAS  C:\Users\FRANKL~1\AppData\Local\Temp\ccba5qpo.s 			page 226


 10750 2275 02       		.uleb128 0x2
 10751 2276 74       		.byte	0x74
 10752 2277 00       		.sleb128 0
 10753 2278 1B       		.uleb128 0x1b
 10754 2279 01       		.uleb128 0x1
 10755 227a 51       		.byte	0x51
 10756 227b 02       		.uleb128 0x2
 10757 227c 08       		.byte	0x8
 10758 227d 20       		.byte	0x20
 10759 227e 00       		.byte	0
 10760 227f 1C       		.uleb128 0x1c
 10761 2280 9A010000 		.4byte	.LVL710
 10762 2284 FA370000 		.4byte	0x37fa
 10763 2288 98220000 		.4byte	0x2298
 10764 228c 1B       		.uleb128 0x1b
 10765 228d 01       		.uleb128 0x1
 10766 228e 51       		.byte	0x51
 10767 228f 02       		.uleb128 0x2
 10768 2290 91       		.byte	0x91
 10769 2291 64       		.sleb128 -28
 10770 2292 1B       		.uleb128 0x1b
 10771 2293 01       		.uleb128 0x1
 10772 2294 52       		.byte	0x52
 10773 2295 01       		.uleb128 0x1
 10774 2296 3A       		.byte	0x3a
 10775 2297 00       		.byte	0
 10776 2298 12       		.uleb128 0x12
 10777 2299 A0010000 		.4byte	.LVL711
 10778 229d 9B140000 		.4byte	0x149b
 10779 22a1 00       		.byte	0
 10780 22a2 15       		.uleb128 0x15
 10781 22a3 AE010000 		.4byte	.LBB67
 10782 22a7 1A000000 		.4byte	.LBE67-.LBB67
 10783 22ab 0B230000 		.4byte	0x230b
 10784 22af 16       		.uleb128 0x16
 10785 22b0 41060000 		.4byte	.LASF171
 10786 22b4 02       		.byte	0x2
 10787 22b5 FC03     		.2byte	0x3fc
 10788 22b7 92000000 		.4byte	0x92
 10789 22bb 02       		.uleb128 0x2
 10790 22bc 91       		.byte	0x91
 10791 22bd 64       		.sleb128 -28
 10792 22be 17       		.uleb128 0x17
 10793 22bf A90E0000 		.4byte	.LASF173
 10794 22c3 02       		.byte	0x2
 10795 22c4 FD03     		.2byte	0x3fd
 10796 22c6 D9000000 		.4byte	0xd9
 10797 22ca CF170000 		.4byte	.LLST162
 10798 22ce 1C       		.uleb128 0x1c
 10799 22cf B6010000 		.4byte	.LVL713
 10800 22d3 EB370000 		.4byte	0x37eb
 10801 22d7 E8220000 		.4byte	0x22e8
 10802 22db 1B       		.uleb128 0x1b
 10803 22dc 01       		.uleb128 0x1
 10804 22dd 50       		.byte	0x50
 10805 22de 02       		.uleb128 0x2
 10806 22df 74       		.byte	0x74
ARM GAS  C:\Users\FRANKL~1\AppData\Local\Temp\ccba5qpo.s 			page 227


 10807 22e0 00       		.sleb128 0
 10808 22e1 1B       		.uleb128 0x1b
 10809 22e2 01       		.uleb128 0x1
 10810 22e3 51       		.byte	0x51
 10811 22e4 02       		.uleb128 0x2
 10812 22e5 08       		.byte	0x8
 10813 22e6 20       		.byte	0x20
 10814 22e7 00       		.byte	0
 10815 22e8 1C       		.uleb128 0x1c
 10816 22e9 C2010000 		.4byte	.LVL714
 10817 22ed FA370000 		.4byte	0x37fa
 10818 22f1 01230000 		.4byte	0x2301
 10819 22f5 1B       		.uleb128 0x1b
 10820 22f6 01       		.uleb128 0x1
 10821 22f7 51       		.byte	0x51
 10822 22f8 02       		.uleb128 0x2
 10823 22f9 91       		.byte	0x91
 10824 22fa 64       		.sleb128 -28
 10825 22fb 1B       		.uleb128 0x1b
 10826 22fc 01       		.uleb128 0x1
 10827 22fd 52       		.byte	0x52
 10828 22fe 01       		.uleb128 0x1
 10829 22ff 3A       		.byte	0x3a
 10830 2300 00       		.byte	0
 10831 2301 12       		.uleb128 0x12
 10832 2302 C8010000 		.4byte	.LVL715
 10833 2306 C9130000 		.4byte	0x13c9
 10834 230a 00       		.byte	0
 10835 230b 15       		.uleb128 0x15
 10836 230c D6010000 		.4byte	.LBB68
 10837 2310 1C000000 		.4byte	.LBE68-.LBB68
 10838 2314 84230000 		.4byte	0x2384
 10839 2318 17       		.uleb128 0x17
 10840 2319 41060000 		.4byte	.LASF171
 10841 231d 02       		.byte	0x2
 10842 231e 0204     		.2byte	0x402
 10843 2320 92000000 		.4byte	0x92
 10844 2324 E2170000 		.4byte	.LLST163
 10845 2328 2D       		.uleb128 0x2d
 10846 2329 76677300 		.ascii	"vgs\000"
 10847 232d 02       		.byte	0x2
 10848 232e 0304     		.2byte	0x403
 10849 2330 25000000 		.4byte	0x25
 10850 2334 02       		.uleb128 0x2
 10851 2335 91       		.byte	0x91
 10852 2336 64       		.sleb128 -28
 10853 2337 2A       		.uleb128 0x2a
 10854 2338 6F090000 		.4byte	.LASF174
 10855 233c 02       		.byte	0x2
 10856 233d 0404     		.2byte	0x404
 10857 233f D9000000 		.4byte	0xd9
 10858 2343 1C       		.uleb128 0x1c
 10859 2344 DE010000 		.4byte	.LVL717
 10860 2348 EB370000 		.4byte	0x37eb
 10861 234c 5D230000 		.4byte	0x235d
 10862 2350 1B       		.uleb128 0x1b
 10863 2351 01       		.uleb128 0x1
ARM GAS  C:\Users\FRANKL~1\AppData\Local\Temp\ccba5qpo.s 			page 228


 10864 2352 50       		.byte	0x50
 10865 2353 02       		.uleb128 0x2
 10866 2354 74       		.byte	0x74
 10867 2355 00       		.sleb128 0
 10868 2356 1B       		.uleb128 0x1b
 10869 2357 01       		.uleb128 0x1
 10870 2358 51       		.byte	0x51
 10871 2359 02       		.uleb128 0x2
 10872 235a 08       		.byte	0x8
 10873 235b 20       		.byte	0x20
 10874 235c 00       		.byte	0
 10875 235d 1C       		.uleb128 0x1c
 10876 235e EC010000 		.4byte	.LVL718
 10877 2362 05380000 		.4byte	0x3805
 10878 2366 7A230000 		.4byte	0x237a
 10879 236a 1B       		.uleb128 0x1b
 10880 236b 01       		.uleb128 0x1
 10881 236c 51       		.byte	0x51
 10882 236d 05       		.uleb128 0x5
 10883 236e 03       		.byte	0x3
 10884 236f CC010000 		.4byte	.LC27
 10885 2373 1B       		.uleb128 0x1b
 10886 2374 01       		.uleb128 0x1
 10887 2375 52       		.byte	0x52
 10888 2376 02       		.uleb128 0x2
 10889 2377 91       		.byte	0x91
 10890 2378 64       		.sleb128 -28
 10891 2379 00       		.byte	0
 10892 237a 12       		.uleb128 0x12
 10893 237b F2010000 		.4byte	.LVL719
 10894 237f 6D150000 		.4byte	0x156d
 10895 2383 00       		.byte	0
 10896 2384 15       		.uleb128 0x15
 10897 2385 00020000 		.4byte	.LBB69
 10898 2389 1C000000 		.4byte	.LBE69-.LBB69
 10899 238d FD230000 		.4byte	0x23fd
 10900 2391 17       		.uleb128 0x17
 10901 2392 41060000 		.4byte	.LASF171
 10902 2396 02       		.byte	0x2
 10903 2397 0904     		.2byte	0x409
 10904 2399 92000000 		.4byte	0x92
 10905 239d F5170000 		.4byte	.LLST164
 10906 23a1 2D       		.uleb128 0x2d
 10907 23a2 76647300 		.ascii	"vds\000"
 10908 23a6 02       		.byte	0x2
 10909 23a7 0A04     		.2byte	0x40a
 10910 23a9 25000000 		.4byte	0x25
 10911 23ad 02       		.uleb128 0x2
 10912 23ae 91       		.byte	0x91
 10913 23af 64       		.sleb128 -28
 10914 23b0 2A       		.uleb128 0x2a
 10915 23b1 6F090000 		.4byte	.LASF174
 10916 23b5 02       		.byte	0x2
 10917 23b6 0B04     		.2byte	0x40b
 10918 23b8 D9000000 		.4byte	0xd9
 10919 23bc 1C       		.uleb128 0x1c
 10920 23bd 08020000 		.4byte	.LVL721
ARM GAS  C:\Users\FRANKL~1\AppData\Local\Temp\ccba5qpo.s 			page 229


 10921 23c1 EB370000 		.4byte	0x37eb
 10922 23c5 D6230000 		.4byte	0x23d6
 10923 23c9 1B       		.uleb128 0x1b
 10924 23ca 01       		.uleb128 0x1
 10925 23cb 50       		.byte	0x50
 10926 23cc 02       		.uleb128 0x2
 10927 23cd 74       		.byte	0x74
 10928 23ce 00       		.sleb128 0
 10929 23cf 1B       		.uleb128 0x1b
 10930 23d0 01       		.uleb128 0x1
 10931 23d1 51       		.byte	0x51
 10932 23d2 02       		.uleb128 0x2
 10933 23d3 08       		.byte	0x8
 10934 23d4 20       		.byte	0x20
 10935 23d5 00       		.byte	0
 10936 23d6 1C       		.uleb128 0x1c
 10937 23d7 16020000 		.4byte	.LVL722
 10938 23db 05380000 		.4byte	0x3805
 10939 23df F3230000 		.4byte	0x23f3
 10940 23e3 1B       		.uleb128 0x1b
 10941 23e4 01       		.uleb128 0x1
 10942 23e5 51       		.byte	0x51
 10943 23e6 05       		.uleb128 0x5
 10944 23e7 03       		.byte	0x3
 10945 23e8 CC010000 		.4byte	.LC27
 10946 23ec 1B       		.uleb128 0x1b
 10947 23ed 01       		.uleb128 0x1
 10948 23ee 52       		.byte	0x52
 10949 23ef 02       		.uleb128 0x2
 10950 23f0 91       		.byte	0x91
 10951 23f1 64       		.sleb128 -28
 10952 23f2 00       		.byte	0
 10953 23f3 12       		.uleb128 0x12
 10954 23f4 1C020000 		.4byte	.LVL723
 10955 23f8 9D150000 		.4byte	0x159d
 10956 23fc 00       		.byte	0
 10957 23fd 15       		.uleb128 0x15
 10958 23fe 2A020000 		.4byte	.LBB70
 10959 2402 46000000 		.4byte	.LBE70-.LBB70
 10960 2406 C7240000 		.4byte	0x24c7
 10961 240a 16       		.uleb128 0x16
 10962 240b 41060000 		.4byte	.LASF171
 10963 240f 02       		.byte	0x2
 10964 2410 1004     		.2byte	0x410
 10965 2412 92000000 		.4byte	0x92
 10966 2416 02       		.uleb128 0x2
 10967 2417 91       		.byte	0x91
 10968 2418 64       		.sleb128 -28
 10969 2419 17       		.uleb128 0x17
 10970 241a D7030000 		.4byte	.LASF175
 10971 241e 02       		.byte	0x2
 10972 241f 1104     		.2byte	0x411
 10973 2421 25000000 		.4byte	0x25
 10974 2425 08180000 		.4byte	.LLST165
 10975 2429 1C       		.uleb128 0x1c
 10976 242a 32020000 		.4byte	.LVL725
 10977 242e EB370000 		.4byte	0x37eb
ARM GAS  C:\Users\FRANKL~1\AppData\Local\Temp\ccba5qpo.s 			page 230


 10978 2432 43240000 		.4byte	0x2443
 10979 2436 1B       		.uleb128 0x1b
 10980 2437 01       		.uleb128 0x1
 10981 2438 50       		.byte	0x50
 10982 2439 02       		.uleb128 0x2
 10983 243a 74       		.byte	0x74
 10984 243b 00       		.sleb128 0
 10985 243c 1B       		.uleb128 0x1b
 10986 243d 01       		.uleb128 0x1
 10987 243e 51       		.byte	0x51
 10988 243f 02       		.uleb128 0x2
 10989 2440 08       		.byte	0x8
 10990 2441 20       		.byte	0x20
 10991 2442 00       		.byte	0
 10992 2443 1C       		.uleb128 0x1c
 10993 2444 3E020000 		.4byte	.LVL726
 10994 2448 FA370000 		.4byte	0x37fa
 10995 244c 5C240000 		.4byte	0x245c
 10996 2450 1B       		.uleb128 0x1b
 10997 2451 01       		.uleb128 0x1
 10998 2452 51       		.byte	0x51
 10999 2453 02       		.uleb128 0x2
 11000 2454 91       		.byte	0x91
 11001 2455 64       		.sleb128 -28
 11002 2456 1B       		.uleb128 0x1b
 11003 2457 01       		.uleb128 0x1
 11004 2458 52       		.byte	0x52
 11005 2459 01       		.uleb128 0x1
 11006 245a 3A       		.byte	0x3a
 11007 245b 00       		.byte	0
 11008 245c 1C       		.uleb128 0x1c
 11009 245d 48020000 		.4byte	.LVL729
 11010 2461 CD150000 		.4byte	0x15cd
 11011 2465 71240000 		.4byte	0x2471
 11012 2469 1B       		.uleb128 0x1b
 11013 246a 01       		.uleb128 0x1
 11014 246b 50       		.byte	0x50
 11015 246c 03       		.uleb128 0x3
 11016 246d F5       		.byte	0xf5
 11017 246e 04       		.uleb128 0x4
 11018 246f 25       		.uleb128 0x25
 11019 2470 00       		.byte	0
 11020 2471 1C       		.uleb128 0x1c
 11021 2472 5C020000 		.4byte	.LVL732
 11022 2476 1A370000 		.4byte	0x371a
 11023 247a 8E240000 		.4byte	0x248e
 11024 247e 1B       		.uleb128 0x1b
 11025 247f 01       		.uleb128 0x1
 11026 2480 50       		.byte	0x50
 11027 2481 02       		.uleb128 0x2
 11028 2482 74       		.byte	0x74
 11029 2483 00       		.sleb128 0
 11030 2484 1B       		.uleb128 0x1b
 11031 2485 01       		.uleb128 0x1
 11032 2486 51       		.byte	0x51
 11033 2487 05       		.uleb128 0x5
 11034 2488 03       		.byte	0x3
ARM GAS  C:\Users\FRANKL~1\AppData\Local\Temp\ccba5qpo.s 			page 231


 11035 2489 E8010000 		.4byte	.LC30
 11036 248d 00       		.byte	0
 11037 248e 1C       		.uleb128 0x1c
 11038 248f 62020000 		.4byte	.LVL733
 11039 2493 E3360000 		.4byte	0x36e3
 11040 2497 A2240000 		.4byte	0x24a2
 11041 249b 1B       		.uleb128 0x1b
 11042 249c 01       		.uleb128 0x1
 11043 249d 50       		.byte	0x50
 11044 249e 02       		.uleb128 0x2
 11045 249f 74       		.byte	0x74
 11046 24a0 00       		.sleb128 0
 11047 24a1 00       		.byte	0
 11048 24a2 1C       		.uleb128 0x1c
 11049 24a3 6A020000 		.4byte	.LVL734
 11050 24a7 D1030000 		.4byte	0x3d1
 11051 24ab B6240000 		.4byte	0x24b6
 11052 24af 1B       		.uleb128 0x1b
 11053 24b0 01       		.uleb128 0x1
 11054 24b1 50       		.byte	0x50
 11055 24b2 02       		.uleb128 0x2
 11056 24b3 74       		.byte	0x74
 11057 24b4 00       		.sleb128 0
 11058 24b5 00       		.byte	0
 11059 24b6 1A       		.uleb128 0x1a
 11060 24b7 70020000 		.4byte	.LVL735
 11061 24bb F9360000 		.4byte	0x36f9
 11062 24bf 1B       		.uleb128 0x1b
 11063 24c0 01       		.uleb128 0x1
 11064 24c1 50       		.byte	0x50
 11065 24c2 02       		.uleb128 0x2
 11066 24c3 74       		.byte	0x74
 11067 24c4 00       		.sleb128 0
 11068 24c5 00       		.byte	0
 11069 24c6 00       		.byte	0
 11070 24c7 15       		.uleb128 0x15
 11071 24c8 7E020000 		.4byte	.LBB71
 11072 24cc 46000000 		.4byte	.LBE71-.LBB71
 11073 24d0 91250000 		.4byte	0x2591
 11074 24d4 16       		.uleb128 0x16
 11075 24d5 41060000 		.4byte	.LASF171
 11076 24d9 02       		.byte	0x2
 11077 24da 1A04     		.2byte	0x41a
 11078 24dc 92000000 		.4byte	0x92
 11079 24e0 02       		.uleb128 0x2
 11080 24e1 91       		.byte	0x91
 11081 24e2 64       		.sleb128 -28
 11082 24e3 17       		.uleb128 0x17
 11083 24e4 BE0A0000 		.4byte	.LASF176
 11084 24e8 02       		.byte	0x2
 11085 24e9 1B04     		.2byte	0x41b
 11086 24eb 25000000 		.4byte	0x25
 11087 24ef 26180000 		.4byte	.LLST166
 11088 24f3 1C       		.uleb128 0x1c
 11089 24f4 86020000 		.4byte	.LVL738
 11090 24f8 EB370000 		.4byte	0x37eb
 11091 24fc 0D250000 		.4byte	0x250d
ARM GAS  C:\Users\FRANKL~1\AppData\Local\Temp\ccba5qpo.s 			page 232


 11092 2500 1B       		.uleb128 0x1b
 11093 2501 01       		.uleb128 0x1
 11094 2502 50       		.byte	0x50
 11095 2503 02       		.uleb128 0x2
 11096 2504 74       		.byte	0x74
 11097 2505 00       		.sleb128 0
 11098 2506 1B       		.uleb128 0x1b
 11099 2507 01       		.uleb128 0x1
 11100 2508 51       		.byte	0x51
 11101 2509 02       		.uleb128 0x2
 11102 250a 08       		.byte	0x8
 11103 250b 20       		.byte	0x20
 11104 250c 00       		.byte	0
 11105 250d 1C       		.uleb128 0x1c
 11106 250e 92020000 		.4byte	.LVL739
 11107 2512 FA370000 		.4byte	0x37fa
 11108 2516 26250000 		.4byte	0x2526
 11109 251a 1B       		.uleb128 0x1b
 11110 251b 01       		.uleb128 0x1
 11111 251c 51       		.byte	0x51
 11112 251d 02       		.uleb128 0x2
 11113 251e 91       		.byte	0x91
 11114 251f 64       		.sleb128 -28
 11115 2520 1B       		.uleb128 0x1b
 11116 2521 01       		.uleb128 0x1
 11117 2522 52       		.byte	0x52
 11118 2523 01       		.uleb128 0x1
 11119 2524 3A       		.byte	0x3a
 11120 2525 00       		.byte	0
 11121 2526 1C       		.uleb128 0x1c
 11122 2527 9C020000 		.4byte	.LVL742
 11123 252b FC150000 		.4byte	0x15fc
 11124 252f 3B250000 		.4byte	0x253b
 11125 2533 1B       		.uleb128 0x1b
 11126 2534 01       		.uleb128 0x1
 11127 2535 50       		.byte	0x50
 11128 2536 03       		.uleb128 0x3
 11129 2537 F5       		.byte	0xf5
 11130 2538 04       		.uleb128 0x4
 11131 2539 25       		.uleb128 0x25
 11132 253a 00       		.byte	0
 11133 253b 1C       		.uleb128 0x1c
 11134 253c B0020000 		.4byte	.LVL745
 11135 2540 1A370000 		.4byte	0x371a
 11136 2544 58250000 		.4byte	0x2558
 11137 2548 1B       		.uleb128 0x1b
 11138 2549 01       		.uleb128 0x1
 11139 254a 50       		.byte	0x50
 11140 254b 02       		.uleb128 0x2
 11141 254c 74       		.byte	0x74
 11142 254d 00       		.sleb128 0
 11143 254e 1B       		.uleb128 0x1b
 11144 254f 01       		.uleb128 0x1
 11145 2550 51       		.byte	0x51
 11146 2551 05       		.uleb128 0x5
 11147 2552 03       		.byte	0x3
 11148 2553 0C020000 		.4byte	.LC32
ARM GAS  C:\Users\FRANKL~1\AppData\Local\Temp\ccba5qpo.s 			page 233


 11149 2557 00       		.byte	0
 11150 2558 1C       		.uleb128 0x1c
 11151 2559 B6020000 		.4byte	.LVL746
 11152 255d E3360000 		.4byte	0x36e3
 11153 2561 6C250000 		.4byte	0x256c
 11154 2565 1B       		.uleb128 0x1b
 11155 2566 01       		.uleb128 0x1
 11156 2567 50       		.byte	0x50
 11157 2568 02       		.uleb128 0x2
 11158 2569 74       		.byte	0x74
 11159 256a 00       		.sleb128 0
 11160 256b 00       		.byte	0
 11161 256c 1C       		.uleb128 0x1c
 11162 256d BE020000 		.4byte	.LVL747
 11163 2571 D1030000 		.4byte	0x3d1
 11164 2575 80250000 		.4byte	0x2580
 11165 2579 1B       		.uleb128 0x1b
 11166 257a 01       		.uleb128 0x1
 11167 257b 50       		.byte	0x50
 11168 257c 02       		.uleb128 0x2
 11169 257d 74       		.byte	0x74
 11170 257e 00       		.sleb128 0
 11171 257f 00       		.byte	0
 11172 2580 1A       		.uleb128 0x1a
 11173 2581 C4020000 		.4byte	.LVL748
 11174 2585 F9360000 		.4byte	0x36f9
 11175 2589 1B       		.uleb128 0x1b
 11176 258a 01       		.uleb128 0x1
 11177 258b 50       		.byte	0x50
 11178 258c 02       		.uleb128 0x2
 11179 258d 74       		.byte	0x74
 11180 258e 00       		.sleb128 0
 11181 258f 00       		.byte	0
 11182 2590 00       		.byte	0
 11183 2591 15       		.uleb128 0x15
 11184 2592 AC030000 		.4byte	.LBB72
 11185 2596 84000000 		.4byte	.LBE72-.LBB72
 11186 259a AC260000 		.4byte	0x26ac
 11187 259e 16       		.uleb128 0x16
 11188 259f 41060000 		.4byte	.LASF171
 11189 25a3 02       		.byte	0x2
 11190 25a4 3304     		.2byte	0x433
 11191 25a6 92000000 		.4byte	0x92
 11192 25aa 02       		.uleb128 0x2
 11193 25ab 91       		.byte	0x91
 11194 25ac 64       		.sleb128 -28
 11195 25ad 17       		.uleb128 0x17
 11196 25ae 120B0000 		.4byte	.LASF169
 11197 25b2 02       		.byte	0x2
 11198 25b3 3404     		.2byte	0x434
 11199 25b5 B5000000 		.4byte	0xb5
 11200 25b9 44180000 		.4byte	.LLST167
 11201 25bd 17       		.uleb128 0x17
 11202 25be CD0A0000 		.4byte	.LASF170
 11203 25c2 02       		.byte	0x2
 11204 25c3 3504     		.2byte	0x435
 11205 25c5 B5000000 		.4byte	0xb5
ARM GAS  C:\Users\FRANKL~1\AppData\Local\Temp\ccba5qpo.s 			page 234


 11206 25c9 57180000 		.4byte	.LLST168
 11207 25cd 1C       		.uleb128 0x1c
 11208 25ce CA030000 		.4byte	.LVL761
 11209 25d2 E3360000 		.4byte	0x36e3
 11210 25d6 E1250000 		.4byte	0x25e1
 11211 25da 1B       		.uleb128 0x1b
 11212 25db 01       		.uleb128 0x1
 11213 25dc 50       		.byte	0x50
 11214 25dd 02       		.uleb128 0x2
 11215 25de 75       		.byte	0x75
 11216 25df 00       		.sleb128 0
 11217 25e0 00       		.byte	0
 11218 25e1 1C       		.uleb128 0x1c
 11219 25e2 D2030000 		.4byte	.LVL762
 11220 25e6 D1030000 		.4byte	0x3d1
 11221 25ea F5250000 		.4byte	0x25f5
 11222 25ee 1B       		.uleb128 0x1b
 11223 25ef 01       		.uleb128 0x1
 11224 25f0 50       		.byte	0x50
 11225 25f1 02       		.uleb128 0x2
 11226 25f2 75       		.byte	0x75
 11227 25f3 00       		.sleb128 0
 11228 25f4 00       		.byte	0
 11229 25f5 1C       		.uleb128 0x1c
 11230 25f6 D8030000 		.4byte	.LVL763
 11231 25fa F9360000 		.4byte	0x36f9
 11232 25fe 09260000 		.4byte	0x2609
 11233 2602 1B       		.uleb128 0x1b
 11234 2603 01       		.uleb128 0x1
 11235 2604 50       		.byte	0x50
 11236 2605 02       		.uleb128 0x2
 11237 2606 75       		.byte	0x75
 11238 2607 00       		.sleb128 0
 11239 2608 00       		.byte	0
 11240 2609 1C       		.uleb128 0x1c
 11241 260a E0030000 		.4byte	.LVL764
 11242 260e EB370000 		.4byte	0x37eb
 11243 2612 23260000 		.4byte	0x2623
 11244 2616 1B       		.uleb128 0x1b
 11245 2617 01       		.uleb128 0x1
 11246 2618 50       		.byte	0x50
 11247 2619 02       		.uleb128 0x2
 11248 261a 74       		.byte	0x74
 11249 261b 00       		.sleb128 0
 11250 261c 1B       		.uleb128 0x1b
 11251 261d 01       		.uleb128 0x1
 11252 261e 51       		.byte	0x51
 11253 261f 02       		.uleb128 0x2
 11254 2620 08       		.byte	0x8
 11255 2621 20       		.byte	0x20
 11256 2622 00       		.byte	0
 11257 2623 1C       		.uleb128 0x1c
 11258 2624 EE030000 		.4byte	.LVL766
 11259 2628 FA370000 		.4byte	0x37fa
 11260 262c 3C260000 		.4byte	0x263c
 11261 2630 1B       		.uleb128 0x1b
 11262 2631 01       		.uleb128 0x1
ARM GAS  C:\Users\FRANKL~1\AppData\Local\Temp\ccba5qpo.s 			page 235


 11263 2632 51       		.byte	0x51
 11264 2633 02       		.uleb128 0x2
 11265 2634 74       		.byte	0x74
 11266 2635 00       		.sleb128 0
 11267 2636 1B       		.uleb128 0x1b
 11268 2637 01       		.uleb128 0x1
 11269 2638 52       		.byte	0x52
 11270 2639 01       		.uleb128 0x1
 11271 263a 3A       		.byte	0x3a
 11272 263b 00       		.byte	0
 11273 263c 1C       		.uleb128 0x1c
 11274 263d FA030000 		.4byte	.LVL768
 11275 2641 FA370000 		.4byte	0x37fa
 11276 2645 55260000 		.4byte	0x2655
 11277 2649 1B       		.uleb128 0x1b
 11278 264a 01       		.uleb128 0x1
 11279 264b 51       		.byte	0x51
 11280 264c 02       		.uleb128 0x2
 11281 264d 74       		.byte	0x74
 11282 264e 00       		.sleb128 0
 11283 264f 1B       		.uleb128 0x1b
 11284 2650 01       		.uleb128 0x1
 11285 2651 52       		.byte	0x52
 11286 2652 01       		.uleb128 0x1
 11287 2653 3A       		.byte	0x3a
 11288 2654 00       		.byte	0
 11289 2655 1C       		.uleb128 0x1c
 11290 2656 06040000 		.4byte	.LVL770
 11291 265a 3E1F0000 		.4byte	0x1f3e
 11292 265e 73260000 		.4byte	0x2673
 11293 2662 1B       		.uleb128 0x1b
 11294 2663 01       		.uleb128 0x1
 11295 2664 50       		.byte	0x50
 11296 2665 02       		.uleb128 0x2
 11297 2666 76       		.byte	0x76
 11298 2667 00       		.sleb128 0
 11299 2668 1B       		.uleb128 0x1b
 11300 2669 01       		.uleb128 0x1
 11301 266a 52       		.byte	0x52
 11302 266b 01       		.uleb128 0x1
 11303 266c 30       		.byte	0x30
 11304 266d 1B       		.uleb128 0x1b
 11305 266e 01       		.uleb128 0x1
 11306 266f 53       		.byte	0x53
 11307 2670 01       		.uleb128 0x1
 11308 2671 30       		.byte	0x30
 11309 2672 00       		.byte	0
 11310 2673 1C       		.uleb128 0x1c
 11311 2674 22040000 		.4byte	.LVL771
 11312 2678 E3360000 		.4byte	0x36e3
 11313 267c 87260000 		.4byte	0x2687
 11314 2680 1B       		.uleb128 0x1b
 11315 2681 01       		.uleb128 0x1
 11316 2682 50       		.byte	0x50
 11317 2683 02       		.uleb128 0x2
 11318 2684 75       		.byte	0x75
 11319 2685 00       		.sleb128 0
ARM GAS  C:\Users\FRANKL~1\AppData\Local\Temp\ccba5qpo.s 			page 236


 11320 2686 00       		.byte	0
 11321 2687 1C       		.uleb128 0x1c
 11322 2688 2A040000 		.4byte	.LVL772
 11323 268c D1030000 		.4byte	0x3d1
 11324 2690 9B260000 		.4byte	0x269b
 11325 2694 1B       		.uleb128 0x1b
 11326 2695 01       		.uleb128 0x1
 11327 2696 50       		.byte	0x50
 11328 2697 02       		.uleb128 0x2
 11329 2698 75       		.byte	0x75
 11330 2699 00       		.sleb128 0
 11331 269a 00       		.byte	0
 11332 269b 1A       		.uleb128 0x1a
 11333 269c 30040000 		.4byte	.LVL773
 11334 26a0 F9360000 		.4byte	0x36f9
 11335 26a4 1B       		.uleb128 0x1b
 11336 26a5 01       		.uleb128 0x1
 11337 26a6 50       		.byte	0x50
 11338 26a7 02       		.uleb128 0x2
 11339 26a8 75       		.byte	0x75
 11340 26a9 00       		.sleb128 0
 11341 26aa 00       		.byte	0
 11342 26ab 00       		.byte	0
 11343 26ac 15       		.uleb128 0x15
 11344 26ad 3E040000 		.4byte	.LBB73
 11345 26b1 90000000 		.4byte	.LBE73-.LBB73
 11346 26b5 C7270000 		.4byte	0x27c7
 11347 26b9 16       		.uleb128 0x16
 11348 26ba 41060000 		.4byte	.LASF171
 11349 26be 02       		.byte	0x2
 11350 26bf 4104     		.2byte	0x441
 11351 26c1 92000000 		.4byte	0x92
 11352 26c5 02       		.uleb128 0x2
 11353 26c6 91       		.byte	0x91
 11354 26c7 64       		.sleb128 -28
 11355 26c8 17       		.uleb128 0x17
 11356 26c9 120B0000 		.4byte	.LASF169
 11357 26cd 02       		.byte	0x2
 11358 26ce 4204     		.2byte	0x442
 11359 26d0 B5000000 		.4byte	0xb5
 11360 26d4 75180000 		.4byte	.LLST169
 11361 26d8 17       		.uleb128 0x17
 11362 26d9 CD0A0000 		.4byte	.LASF170
 11363 26dd 02       		.byte	0x2
 11364 26de 4304     		.2byte	0x443
 11365 26e0 B5000000 		.4byte	0xb5
 11366 26e4 88180000 		.4byte	.LLST170
 11367 26e8 1C       		.uleb128 0x1c
 11368 26e9 62040000 		.4byte	.LVL776
 11369 26ed E3360000 		.4byte	0x36e3
 11370 26f1 FC260000 		.4byte	0x26fc
 11371 26f5 1B       		.uleb128 0x1b
 11372 26f6 01       		.uleb128 0x1
 11373 26f7 50       		.byte	0x50
 11374 26f8 02       		.uleb128 0x2
 11375 26f9 75       		.byte	0x75
 11376 26fa 00       		.sleb128 0
ARM GAS  C:\Users\FRANKL~1\AppData\Local\Temp\ccba5qpo.s 			page 237


 11377 26fb 00       		.byte	0
 11378 26fc 1C       		.uleb128 0x1c
 11379 26fd 6A040000 		.4byte	.LVL777
 11380 2701 D1030000 		.4byte	0x3d1
 11381 2705 10270000 		.4byte	0x2710
 11382 2709 1B       		.uleb128 0x1b
 11383 270a 01       		.uleb128 0x1
 11384 270b 50       		.byte	0x50
 11385 270c 02       		.uleb128 0x2
 11386 270d 75       		.byte	0x75
 11387 270e 00       		.sleb128 0
 11388 270f 00       		.byte	0
 11389 2710 1C       		.uleb128 0x1c
 11390 2711 70040000 		.4byte	.LVL778
 11391 2715 F9360000 		.4byte	0x36f9
 11392 2719 24270000 		.4byte	0x2724
 11393 271d 1B       		.uleb128 0x1b
 11394 271e 01       		.uleb128 0x1
 11395 271f 50       		.byte	0x50
 11396 2720 02       		.uleb128 0x2
 11397 2721 75       		.byte	0x75
 11398 2722 00       		.sleb128 0
 11399 2723 00       		.byte	0
 11400 2724 1C       		.uleb128 0x1c
 11401 2725 78040000 		.4byte	.LVL779
 11402 2729 EB370000 		.4byte	0x37eb
 11403 272d 3E270000 		.4byte	0x273e
 11404 2731 1B       		.uleb128 0x1b
 11405 2732 01       		.uleb128 0x1
 11406 2733 50       		.byte	0x50
 11407 2734 02       		.uleb128 0x2
 11408 2735 74       		.byte	0x74
 11409 2736 00       		.sleb128 0
 11410 2737 1B       		.uleb128 0x1b
 11411 2738 01       		.uleb128 0x1
 11412 2739 51       		.byte	0x51
 11413 273a 02       		.uleb128 0x2
 11414 273b 08       		.byte	0x8
 11415 273c 20       		.byte	0x20
 11416 273d 00       		.byte	0
 11417 273e 1C       		.uleb128 0x1c
 11418 273f 86040000 		.4byte	.LVL781
 11419 2743 FA370000 		.4byte	0x37fa
 11420 2747 57270000 		.4byte	0x2757
 11421 274b 1B       		.uleb128 0x1b
 11422 274c 01       		.uleb128 0x1
 11423 274d 51       		.byte	0x51
 11424 274e 02       		.uleb128 0x2
 11425 274f 74       		.byte	0x74
 11426 2750 00       		.sleb128 0
 11427 2751 1B       		.uleb128 0x1b
 11428 2752 01       		.uleb128 0x1
 11429 2753 52       		.byte	0x52
 11430 2754 01       		.uleb128 0x1
 11431 2755 3A       		.byte	0x3a
 11432 2756 00       		.byte	0
 11433 2757 1C       		.uleb128 0x1c
ARM GAS  C:\Users\FRANKL~1\AppData\Local\Temp\ccba5qpo.s 			page 238


 11434 2758 92040000 		.4byte	.LVL783
 11435 275c FA370000 		.4byte	0x37fa
 11436 2760 70270000 		.4byte	0x2770
 11437 2764 1B       		.uleb128 0x1b
 11438 2765 01       		.uleb128 0x1
 11439 2766 51       		.byte	0x51
 11440 2767 02       		.uleb128 0x2
 11441 2768 74       		.byte	0x74
 11442 2769 00       		.sleb128 0
 11443 276a 1B       		.uleb128 0x1b
 11444 276b 01       		.uleb128 0x1
 11445 276c 52       		.byte	0x52
 11446 276d 01       		.uleb128 0x1
 11447 276e 3A       		.byte	0x3a
 11448 276f 00       		.byte	0
 11449 2770 1C       		.uleb128 0x1c
 11450 2771 9E040000 		.4byte	.LVL785
 11451 2775 3E1F0000 		.4byte	0x1f3e
 11452 2779 8E270000 		.4byte	0x278e
 11453 277d 1B       		.uleb128 0x1b
 11454 277e 01       		.uleb128 0x1
 11455 277f 50       		.byte	0x50
 11456 2780 02       		.uleb128 0x2
 11457 2781 76       		.byte	0x76
 11458 2782 00       		.sleb128 0
 11459 2783 1B       		.uleb128 0x1b
 11460 2784 01       		.uleb128 0x1
 11461 2785 52       		.byte	0x52
 11462 2786 01       		.uleb128 0x1
 11463 2787 30       		.byte	0x30
 11464 2788 1B       		.uleb128 0x1b
 11465 2789 01       		.uleb128 0x1
 11466 278a 53       		.byte	0x53
 11467 278b 01       		.uleb128 0x1
 11468 278c 31       		.byte	0x31
 11469 278d 00       		.byte	0
 11470 278e 1C       		.uleb128 0x1c
 11471 278f C0040000 		.4byte	.LVL786
 11472 2793 E3360000 		.4byte	0x36e3
 11473 2797 A2270000 		.4byte	0x27a2
 11474 279b 1B       		.uleb128 0x1b
 11475 279c 01       		.uleb128 0x1
 11476 279d 50       		.byte	0x50
 11477 279e 02       		.uleb128 0x2
 11478 279f 75       		.byte	0x75
 11479 27a0 00       		.sleb128 0
 11480 27a1 00       		.byte	0
 11481 27a2 1C       		.uleb128 0x1c
 11482 27a3 C8040000 		.4byte	.LVL787
 11483 27a7 D1030000 		.4byte	0x3d1
 11484 27ab B6270000 		.4byte	0x27b6
 11485 27af 1B       		.uleb128 0x1b
 11486 27b0 01       		.uleb128 0x1
 11487 27b1 50       		.byte	0x50
 11488 27b2 02       		.uleb128 0x2
 11489 27b3 75       		.byte	0x75
 11490 27b4 00       		.sleb128 0
ARM GAS  C:\Users\FRANKL~1\AppData\Local\Temp\ccba5qpo.s 			page 239


 11491 27b5 00       		.byte	0
 11492 27b6 1A       		.uleb128 0x1a
 11493 27b7 CE040000 		.4byte	.LVL788
 11494 27bb F9360000 		.4byte	0x36f9
 11495 27bf 1B       		.uleb128 0x1b
 11496 27c0 01       		.uleb128 0x1
 11497 27c1 50       		.byte	0x50
 11498 27c2 02       		.uleb128 0x2
 11499 27c3 75       		.byte	0x75
 11500 27c4 00       		.sleb128 0
 11501 27c5 00       		.byte	0
 11502 27c6 00       		.byte	0
 11503 27c7 15       		.uleb128 0x15
 11504 27c8 DC040000 		.4byte	.LBB74
 11505 27cc 9A000000 		.4byte	.LBE74-.LBB74
 11506 27d0 E2280000 		.4byte	0x28e2
 11507 27d4 16       		.uleb128 0x16
 11508 27d5 41060000 		.4byte	.LASF171
 11509 27d9 02       		.byte	0x2
 11510 27da 4F04     		.2byte	0x44f
 11511 27dc 92000000 		.4byte	0x92
 11512 27e0 02       		.uleb128 0x2
 11513 27e1 91       		.byte	0x91
 11514 27e2 64       		.sleb128 -28
 11515 27e3 17       		.uleb128 0x17
 11516 27e4 120B0000 		.4byte	.LASF169
 11517 27e8 02       		.byte	0x2
 11518 27e9 5004     		.2byte	0x450
 11519 27eb B5000000 		.4byte	0xb5
 11520 27ef A6180000 		.4byte	.LLST171
 11521 27f3 17       		.uleb128 0x17
 11522 27f4 CD0A0000 		.4byte	.LASF170
 11523 27f8 02       		.byte	0x2
 11524 27f9 5104     		.2byte	0x451
 11525 27fb B5000000 		.4byte	0xb5
 11526 27ff B9180000 		.4byte	.LLST172
 11527 2803 1C       		.uleb128 0x1c
 11528 2804 04050000 		.4byte	.LVL791
 11529 2808 E3360000 		.4byte	0x36e3
 11530 280c 17280000 		.4byte	0x2817
 11531 2810 1B       		.uleb128 0x1b
 11532 2811 01       		.uleb128 0x1
 11533 2812 50       		.byte	0x50
 11534 2813 02       		.uleb128 0x2
 11535 2814 75       		.byte	0x75
 11536 2815 00       		.sleb128 0
 11537 2816 00       		.byte	0
 11538 2817 1C       		.uleb128 0x1c
 11539 2818 0C050000 		.4byte	.LVL792
 11540 281c D1030000 		.4byte	0x3d1
 11541 2820 2B280000 		.4byte	0x282b
 11542 2824 1B       		.uleb128 0x1b
 11543 2825 01       		.uleb128 0x1
 11544 2826 50       		.byte	0x50
 11545 2827 02       		.uleb128 0x2
 11546 2828 75       		.byte	0x75
 11547 2829 00       		.sleb128 0
ARM GAS  C:\Users\FRANKL~1\AppData\Local\Temp\ccba5qpo.s 			page 240


 11548 282a 00       		.byte	0
 11549 282b 1C       		.uleb128 0x1c
 11550 282c 12050000 		.4byte	.LVL793
 11551 2830 F9360000 		.4byte	0x36f9
 11552 2834 3F280000 		.4byte	0x283f
 11553 2838 1B       		.uleb128 0x1b
 11554 2839 01       		.uleb128 0x1
 11555 283a 50       		.byte	0x50
 11556 283b 02       		.uleb128 0x2
 11557 283c 75       		.byte	0x75
 11558 283d 00       		.sleb128 0
 11559 283e 00       		.byte	0
 11560 283f 1C       		.uleb128 0x1c
 11561 2840 1A050000 		.4byte	.LVL794
 11562 2844 EB370000 		.4byte	0x37eb
 11563 2848 59280000 		.4byte	0x2859
 11564 284c 1B       		.uleb128 0x1b
 11565 284d 01       		.uleb128 0x1
 11566 284e 50       		.byte	0x50
 11567 284f 02       		.uleb128 0x2
 11568 2850 74       		.byte	0x74
 11569 2851 00       		.sleb128 0
 11570 2852 1B       		.uleb128 0x1b
 11571 2853 01       		.uleb128 0x1
 11572 2854 51       		.byte	0x51
 11573 2855 02       		.uleb128 0x2
 11574 2856 08       		.byte	0x8
 11575 2857 20       		.byte	0x20
 11576 2858 00       		.byte	0
 11577 2859 1C       		.uleb128 0x1c
 11578 285a 28050000 		.4byte	.LVL796
 11579 285e FA370000 		.4byte	0x37fa
 11580 2862 72280000 		.4byte	0x2872
 11581 2866 1B       		.uleb128 0x1b
 11582 2867 01       		.uleb128 0x1
 11583 2868 51       		.byte	0x51
 11584 2869 02       		.uleb128 0x2
 11585 286a 74       		.byte	0x74
 11586 286b 00       		.sleb128 0
 11587 286c 1B       		.uleb128 0x1b
 11588 286d 01       		.uleb128 0x1
 11589 286e 52       		.byte	0x52
 11590 286f 01       		.uleb128 0x1
 11591 2870 3A       		.byte	0x3a
 11592 2871 00       		.byte	0
 11593 2872 1C       		.uleb128 0x1c
 11594 2873 34050000 		.4byte	.LVL798
 11595 2877 FA370000 		.4byte	0x37fa
 11596 287b 8B280000 		.4byte	0x288b
 11597 287f 1B       		.uleb128 0x1b
 11598 2880 01       		.uleb128 0x1
 11599 2881 51       		.byte	0x51
 11600 2882 02       		.uleb128 0x2
 11601 2883 74       		.byte	0x74
 11602 2884 00       		.sleb128 0
 11603 2885 1B       		.uleb128 0x1b
 11604 2886 01       		.uleb128 0x1
ARM GAS  C:\Users\FRANKL~1\AppData\Local\Temp\ccba5qpo.s 			page 241


 11605 2887 52       		.byte	0x52
 11606 2888 01       		.uleb128 0x1
 11607 2889 3A       		.byte	0x3a
 11608 288a 00       		.byte	0
 11609 288b 1C       		.uleb128 0x1c
 11610 288c 40050000 		.4byte	.LVL800
 11611 2890 3E1F0000 		.4byte	0x1f3e
 11612 2894 A9280000 		.4byte	0x28a9
 11613 2898 1B       		.uleb128 0x1b
 11614 2899 01       		.uleb128 0x1
 11615 289a 50       		.byte	0x50
 11616 289b 02       		.uleb128 0x2
 11617 289c 76       		.byte	0x76
 11618 289d 00       		.sleb128 0
 11619 289e 1B       		.uleb128 0x1b
 11620 289f 01       		.uleb128 0x1
 11621 28a0 52       		.byte	0x52
 11622 28a1 01       		.uleb128 0x1
 11623 28a2 31       		.byte	0x31
 11624 28a3 1B       		.uleb128 0x1b
 11625 28a4 01       		.uleb128 0x1
 11626 28a5 53       		.byte	0x53
 11627 28a6 01       		.uleb128 0x1
 11628 28a7 31       		.byte	0x31
 11629 28a8 00       		.byte	0
 11630 28a9 1C       		.uleb128 0x1c
 11631 28aa 68050000 		.4byte	.LVL802
 11632 28ae E3360000 		.4byte	0x36e3
 11633 28b2 BD280000 		.4byte	0x28bd
 11634 28b6 1B       		.uleb128 0x1b
 11635 28b7 01       		.uleb128 0x1
 11636 28b8 50       		.byte	0x50
 11637 28b9 02       		.uleb128 0x2
 11638 28ba 74       		.byte	0x74
 11639 28bb 00       		.sleb128 0
 11640 28bc 00       		.byte	0
 11641 28bd 1C       		.uleb128 0x1c
 11642 28be 70050000 		.4byte	.LVL803
 11643 28c2 D1030000 		.4byte	0x3d1
 11644 28c6 D1280000 		.4byte	0x28d1
 11645 28ca 1B       		.uleb128 0x1b
 11646 28cb 01       		.uleb128 0x1
 11647 28cc 50       		.byte	0x50
 11648 28cd 02       		.uleb128 0x2
 11649 28ce 74       		.byte	0x74
 11650 28cf 00       		.sleb128 0
 11651 28d0 00       		.byte	0
 11652 28d1 1A       		.uleb128 0x1a
 11653 28d2 76050000 		.4byte	.LVL804
 11654 28d6 F9360000 		.4byte	0x36f9
 11655 28da 1B       		.uleb128 0x1b
 11656 28db 01       		.uleb128 0x1
 11657 28dc 50       		.byte	0x50
 11658 28dd 02       		.uleb128 0x2
 11659 28de 74       		.byte	0x74
 11660 28df 00       		.sleb128 0
 11661 28e0 00       		.byte	0
ARM GAS  C:\Users\FRANKL~1\AppData\Local\Temp\ccba5qpo.s 			page 242


 11662 28e1 00       		.byte	0
 11663 28e2 15       		.uleb128 0x15
 11664 28e3 84050000 		.4byte	.LBB75
 11665 28e7 4E000000 		.4byte	.LBE75-.LBB75
 11666 28eb E6290000 		.4byte	0x29e6
 11667 28ef 16       		.uleb128 0x16
 11668 28f0 41060000 		.4byte	.LASF171
 11669 28f4 02       		.byte	0x2
 11670 28f5 5904     		.2byte	0x459
 11671 28f7 92000000 		.4byte	0x92
 11672 28fb 02       		.uleb128 0x2
 11673 28fc 91       		.byte	0x91
 11674 28fd 64       		.sleb128 -28
 11675 28fe 17       		.uleb128 0x17
 11676 28ff C50A0000 		.4byte	.LASF60
 11677 2903 02       		.byte	0x2
 11678 2904 5A04     		.2byte	0x45a
 11679 2906 B5000000 		.4byte	0xb5
 11680 290a D7180000 		.4byte	.LLST173
 11681 290e 17       		.uleb128 0x17
 11682 290f 00000000 		.4byte	.LASF58
 11683 2913 02       		.byte	0x2
 11684 2914 5B04     		.2byte	0x45b
 11685 2916 B5000000 		.4byte	0xb5
 11686 291a EA180000 		.4byte	.LLST174
 11687 291e 1C       		.uleb128 0x1c
 11688 291f 8C050000 		.4byte	.LVL807
 11689 2923 EB370000 		.4byte	0x37eb
 11690 2927 38290000 		.4byte	0x2938
 11691 292b 1B       		.uleb128 0x1b
 11692 292c 01       		.uleb128 0x1
 11693 292d 50       		.byte	0x50
 11694 292e 02       		.uleb128 0x2
 11695 292f 74       		.byte	0x74
 11696 2930 00       		.sleb128 0
 11697 2931 1B       		.uleb128 0x1b
 11698 2932 01       		.uleb128 0x1
 11699 2933 51       		.byte	0x51
 11700 2934 02       		.uleb128 0x2
 11701 2935 08       		.byte	0x8
 11702 2936 20       		.byte	0x20
 11703 2937 00       		.byte	0
 11704 2938 1C       		.uleb128 0x1c
 11705 2939 9A050000 		.4byte	.LVL809
 11706 293d FA370000 		.4byte	0x37fa
 11707 2941 51290000 		.4byte	0x2951
 11708 2945 1B       		.uleb128 0x1b
 11709 2946 01       		.uleb128 0x1
 11710 2947 51       		.byte	0x51
 11711 2948 02       		.uleb128 0x2
 11712 2949 74       		.byte	0x74
 11713 294a 00       		.sleb128 0
 11714 294b 1B       		.uleb128 0x1b
 11715 294c 01       		.uleb128 0x1
 11716 294d 52       		.byte	0x52
 11717 294e 01       		.uleb128 0x1
 11718 294f 3A       		.byte	0x3a
ARM GAS  C:\Users\FRANKL~1\AppData\Local\Temp\ccba5qpo.s 			page 243


 11719 2950 00       		.byte	0
 11720 2951 1C       		.uleb128 0x1c
 11721 2952 A6050000 		.4byte	.LVL811
 11722 2956 FA370000 		.4byte	0x37fa
 11723 295a 6A290000 		.4byte	0x296a
 11724 295e 1B       		.uleb128 0x1b
 11725 295f 01       		.uleb128 0x1
 11726 2960 51       		.byte	0x51
 11727 2961 02       		.uleb128 0x2
 11728 2962 74       		.byte	0x74
 11729 2963 00       		.sleb128 0
 11730 2964 1B       		.uleb128 0x1b
 11731 2965 01       		.uleb128 0x1
 11732 2966 52       		.byte	0x52
 11733 2967 01       		.uleb128 0x1
 11734 2968 3A       		.byte	0x3a
 11735 2969 00       		.byte	0
 11736 296a 1C       		.uleb128 0x1c
 11737 296b B0050000 		.4byte	.LVL813
 11738 296f E3080000 		.4byte	0x8e3
 11739 2973 84290000 		.4byte	0x2984
 11740 2977 1B       		.uleb128 0x1b
 11741 2978 01       		.uleb128 0x1
 11742 2979 50       		.byte	0x50
 11743 297a 02       		.uleb128 0x2
 11744 297b 75       		.byte	0x75
 11745 297c 00       		.sleb128 0
 11746 297d 1B       		.uleb128 0x1b
 11747 297e 01       		.uleb128 0x1
 11748 297f 51       		.byte	0x51
 11749 2980 02       		.uleb128 0x2
 11750 2981 76       		.byte	0x76
 11751 2982 00       		.sleb128 0
 11752 2983 00       		.byte	0
 11753 2984 1C       		.uleb128 0x1c
 11754 2985 BE050000 		.4byte	.LVL814
 11755 2989 1A370000 		.4byte	0x371a
 11756 298d AD290000 		.4byte	0x29ad
 11757 2991 1B       		.uleb128 0x1b
 11758 2992 01       		.uleb128 0x1
 11759 2993 50       		.byte	0x50
 11760 2994 02       		.uleb128 0x2
 11761 2995 74       		.byte	0x74
 11762 2996 00       		.sleb128 0
 11763 2997 1B       		.uleb128 0x1b
 11764 2998 01       		.uleb128 0x1
 11765 2999 51       		.byte	0x51
 11766 299a 05       		.uleb128 0x5
 11767 299b 03       		.byte	0x3
 11768 299c 58030000 		.4byte	.LC46
 11769 29a0 1B       		.uleb128 0x1b
 11770 29a1 01       		.uleb128 0x1
 11771 29a2 52       		.byte	0x52
 11772 29a3 02       		.uleb128 0x2
 11773 29a4 75       		.byte	0x75
 11774 29a5 00       		.sleb128 0
 11775 29a6 1B       		.uleb128 0x1b
ARM GAS  C:\Users\FRANKL~1\AppData\Local\Temp\ccba5qpo.s 			page 244


 11776 29a7 01       		.uleb128 0x1
 11777 29a8 53       		.byte	0x53
 11778 29a9 02       		.uleb128 0x2
 11779 29aa 76       		.byte	0x76
 11780 29ab 00       		.sleb128 0
 11781 29ac 00       		.byte	0
 11782 29ad 1C       		.uleb128 0x1c
 11783 29ae C4050000 		.4byte	.LVL815
 11784 29b2 E3360000 		.4byte	0x36e3
 11785 29b6 C1290000 		.4byte	0x29c1
 11786 29ba 1B       		.uleb128 0x1b
 11787 29bb 01       		.uleb128 0x1
 11788 29bc 50       		.byte	0x50
 11789 29bd 02       		.uleb128 0x2
 11790 29be 74       		.byte	0x74
 11791 29bf 00       		.sleb128 0
 11792 29c0 00       		.byte	0
 11793 29c1 1C       		.uleb128 0x1c
 11794 29c2 CC050000 		.4byte	.LVL816
 11795 29c6 D1030000 		.4byte	0x3d1
 11796 29ca D5290000 		.4byte	0x29d5
 11797 29ce 1B       		.uleb128 0x1b
 11798 29cf 01       		.uleb128 0x1
 11799 29d0 50       		.byte	0x50
 11800 29d1 02       		.uleb128 0x2
 11801 29d2 74       		.byte	0x74
 11802 29d3 00       		.sleb128 0
 11803 29d4 00       		.byte	0
 11804 29d5 1A       		.uleb128 0x1a
 11805 29d6 D2050000 		.4byte	.LVL817
 11806 29da F9360000 		.4byte	0x36f9
 11807 29de 1B       		.uleb128 0x1b
 11808 29df 01       		.uleb128 0x1
 11809 29e0 50       		.byte	0x50
 11810 29e1 02       		.uleb128 0x2
 11811 29e2 74       		.byte	0x74
 11812 29e3 00       		.sleb128 0
 11813 29e4 00       		.byte	0
 11814 29e5 00       		.byte	0
 11815 29e6 15       		.uleb128 0x15
 11816 29e7 E0050000 		.4byte	.LBB76
 11817 29eb 4E000000 		.4byte	.LBE76-.LBB76
 11818 29ef EA2A0000 		.4byte	0x2aea
 11819 29f3 16       		.uleb128 0x16
 11820 29f4 41060000 		.4byte	.LASF171
 11821 29f8 02       		.byte	0x2
 11822 29f9 6304     		.2byte	0x463
 11823 29fb 92000000 		.4byte	0x92
 11824 29ff 02       		.uleb128 0x2
 11825 2a00 91       		.byte	0x91
 11826 2a01 64       		.sleb128 -28
 11827 2a02 17       		.uleb128 0x17
 11828 2a03 A7050000 		.4byte	.LASF57
 11829 2a07 02       		.byte	0x2
 11830 2a08 6404     		.2byte	0x464
 11831 2a0a B5000000 		.4byte	0xb5
 11832 2a0e FD180000 		.4byte	.LLST175
ARM GAS  C:\Users\FRANKL~1\AppData\Local\Temp\ccba5qpo.s 			page 245


 11833 2a12 17       		.uleb128 0x17
 11834 2a13 00000000 		.4byte	.LASF58
 11835 2a17 02       		.byte	0x2
 11836 2a18 6504     		.2byte	0x465
 11837 2a1a B5000000 		.4byte	0xb5
 11838 2a1e 10190000 		.4byte	.LLST176
 11839 2a22 1C       		.uleb128 0x1c
 11840 2a23 E8050000 		.4byte	.LVL820
 11841 2a27 EB370000 		.4byte	0x37eb
 11842 2a2b 3C2A0000 		.4byte	0x2a3c
 11843 2a2f 1B       		.uleb128 0x1b
 11844 2a30 01       		.uleb128 0x1
 11845 2a31 50       		.byte	0x50
 11846 2a32 02       		.uleb128 0x2
 11847 2a33 74       		.byte	0x74
 11848 2a34 00       		.sleb128 0
 11849 2a35 1B       		.uleb128 0x1b
 11850 2a36 01       		.uleb128 0x1
 11851 2a37 51       		.byte	0x51
 11852 2a38 02       		.uleb128 0x2
 11853 2a39 08       		.byte	0x8
 11854 2a3a 20       		.byte	0x20
 11855 2a3b 00       		.byte	0
 11856 2a3c 1C       		.uleb128 0x1c
 11857 2a3d F6050000 		.4byte	.LVL822
 11858 2a41 FA370000 		.4byte	0x37fa
 11859 2a45 552A0000 		.4byte	0x2a55
 11860 2a49 1B       		.uleb128 0x1b
 11861 2a4a 01       		.uleb128 0x1
 11862 2a4b 51       		.byte	0x51
 11863 2a4c 02       		.uleb128 0x2
 11864 2a4d 74       		.byte	0x74
 11865 2a4e 00       		.sleb128 0
 11866 2a4f 1B       		.uleb128 0x1b
 11867 2a50 01       		.uleb128 0x1
 11868 2a51 52       		.byte	0x52
 11869 2a52 01       		.uleb128 0x1
 11870 2a53 3A       		.byte	0x3a
 11871 2a54 00       		.byte	0
 11872 2a55 1C       		.uleb128 0x1c
 11873 2a56 02060000 		.4byte	.LVL824
 11874 2a5a FA370000 		.4byte	0x37fa
 11875 2a5e 6E2A0000 		.4byte	0x2a6e
 11876 2a62 1B       		.uleb128 0x1b
 11877 2a63 01       		.uleb128 0x1
 11878 2a64 51       		.byte	0x51
 11879 2a65 02       		.uleb128 0x2
 11880 2a66 74       		.byte	0x74
 11881 2a67 00       		.sleb128 0
 11882 2a68 1B       		.uleb128 0x1b
 11883 2a69 01       		.uleb128 0x1
 11884 2a6a 52       		.byte	0x52
 11885 2a6b 01       		.uleb128 0x1
 11886 2a6c 3A       		.byte	0x3a
 11887 2a6d 00       		.byte	0
 11888 2a6e 1C       		.uleb128 0x1c
 11889 2a6f 0C060000 		.4byte	.LVL826
ARM GAS  C:\Users\FRANKL~1\AppData\Local\Temp\ccba5qpo.s 			page 246


 11890 2a73 A6080000 		.4byte	0x8a6
 11891 2a77 882A0000 		.4byte	0x2a88
 11892 2a7b 1B       		.uleb128 0x1b
 11893 2a7c 01       		.uleb128 0x1
 11894 2a7d 50       		.byte	0x50
 11895 2a7e 02       		.uleb128 0x2
 11896 2a7f 75       		.byte	0x75
 11897 2a80 00       		.sleb128 0
 11898 2a81 1B       		.uleb128 0x1b
 11899 2a82 01       		.uleb128 0x1
 11900 2a83 51       		.byte	0x51
 11901 2a84 02       		.uleb128 0x2
 11902 2a85 76       		.byte	0x76
 11903 2a86 00       		.sleb128 0
 11904 2a87 00       		.byte	0
 11905 2a88 1C       		.uleb128 0x1c
 11906 2a89 1A060000 		.4byte	.LVL827
 11907 2a8d 1A370000 		.4byte	0x371a
 11908 2a91 B12A0000 		.4byte	0x2ab1
 11909 2a95 1B       		.uleb128 0x1b
 11910 2a96 01       		.uleb128 0x1
 11911 2a97 50       		.byte	0x50
 11912 2a98 02       		.uleb128 0x2
 11913 2a99 74       		.byte	0x74
 11914 2a9a 00       		.sleb128 0
 11915 2a9b 1B       		.uleb128 0x1b
 11916 2a9c 01       		.uleb128 0x1
 11917 2a9d 51       		.byte	0x51
 11918 2a9e 05       		.uleb128 0x5
 11919 2a9f 03       		.byte	0x3
 11920 2aa0 7C030000 		.4byte	.LC48
 11921 2aa4 1B       		.uleb128 0x1b
 11922 2aa5 01       		.uleb128 0x1
 11923 2aa6 52       		.byte	0x52
 11924 2aa7 02       		.uleb128 0x2
 11925 2aa8 75       		.byte	0x75
 11926 2aa9 00       		.sleb128 0
 11927 2aaa 1B       		.uleb128 0x1b
 11928 2aab 01       		.uleb128 0x1
 11929 2aac 53       		.byte	0x53
 11930 2aad 02       		.uleb128 0x2
 11931 2aae 76       		.byte	0x76
 11932 2aaf 00       		.sleb128 0
 11933 2ab0 00       		.byte	0
 11934 2ab1 1C       		.uleb128 0x1c
 11935 2ab2 20060000 		.4byte	.LVL828
 11936 2ab6 E3360000 		.4byte	0x36e3
 11937 2aba C52A0000 		.4byte	0x2ac5
 11938 2abe 1B       		.uleb128 0x1b
 11939 2abf 01       		.uleb128 0x1
 11940 2ac0 50       		.byte	0x50
 11941 2ac1 02       		.uleb128 0x2
 11942 2ac2 74       		.byte	0x74
 11943 2ac3 00       		.sleb128 0
 11944 2ac4 00       		.byte	0
 11945 2ac5 1C       		.uleb128 0x1c
 11946 2ac6 28060000 		.4byte	.LVL829
ARM GAS  C:\Users\FRANKL~1\AppData\Local\Temp\ccba5qpo.s 			page 247


 11947 2aca D1030000 		.4byte	0x3d1
 11948 2ace D92A0000 		.4byte	0x2ad9
 11949 2ad2 1B       		.uleb128 0x1b
 11950 2ad3 01       		.uleb128 0x1
 11951 2ad4 50       		.byte	0x50
 11952 2ad5 02       		.uleb128 0x2
 11953 2ad6 74       		.byte	0x74
 11954 2ad7 00       		.sleb128 0
 11955 2ad8 00       		.byte	0
 11956 2ad9 1A       		.uleb128 0x1a
 11957 2ada 2E060000 		.4byte	.LVL830
 11958 2ade F9360000 		.4byte	0x36f9
 11959 2ae2 1B       		.uleb128 0x1b
 11960 2ae3 01       		.uleb128 0x1
 11961 2ae4 50       		.byte	0x50
 11962 2ae5 02       		.uleb128 0x2
 11963 2ae6 74       		.byte	0x74
 11964 2ae7 00       		.sleb128 0
 11965 2ae8 00       		.byte	0
 11966 2ae9 00       		.byte	0
 11967 2aea 15       		.uleb128 0x15
 11968 2aeb 3C060000 		.4byte	.LBB77
 11969 2aef 4E000000 		.4byte	.LBE77-.LBB77
 11970 2af3 EE2B0000 		.4byte	0x2bee
 11971 2af7 16       		.uleb128 0x16
 11972 2af8 41060000 		.4byte	.LASF171
 11973 2afc 02       		.byte	0x2
 11974 2afd 6D04     		.2byte	0x46d
 11975 2aff 92000000 		.4byte	0x92
 11976 2b03 02       		.uleb128 0x2
 11977 2b04 91       		.byte	0x91
 11978 2b05 64       		.sleb128 -28
 11979 2b06 17       		.uleb128 0x17
 11980 2b07 C50A0000 		.4byte	.LASF60
 11981 2b0b 02       		.byte	0x2
 11982 2b0c 6E04     		.2byte	0x46e
 11983 2b0e B5000000 		.4byte	0xb5
 11984 2b12 23190000 		.4byte	.LLST177
 11985 2b16 17       		.uleb128 0x17
 11986 2b17 00000000 		.4byte	.LASF58
 11987 2b1b 02       		.byte	0x2
 11988 2b1c 6F04     		.2byte	0x46f
 11989 2b1e B5000000 		.4byte	0xb5
 11990 2b22 36190000 		.4byte	.LLST178
 11991 2b26 1C       		.uleb128 0x1c
 11992 2b27 44060000 		.4byte	.LVL833
 11993 2b2b EB370000 		.4byte	0x37eb
 11994 2b2f 402B0000 		.4byte	0x2b40
 11995 2b33 1B       		.uleb128 0x1b
 11996 2b34 01       		.uleb128 0x1
 11997 2b35 50       		.byte	0x50
 11998 2b36 02       		.uleb128 0x2
 11999 2b37 74       		.byte	0x74
 12000 2b38 00       		.sleb128 0
 12001 2b39 1B       		.uleb128 0x1b
 12002 2b3a 01       		.uleb128 0x1
 12003 2b3b 51       		.byte	0x51
ARM GAS  C:\Users\FRANKL~1\AppData\Local\Temp\ccba5qpo.s 			page 248


 12004 2b3c 02       		.uleb128 0x2
 12005 2b3d 08       		.byte	0x8
 12006 2b3e 20       		.byte	0x20
 12007 2b3f 00       		.byte	0
 12008 2b40 1C       		.uleb128 0x1c
 12009 2b41 52060000 		.4byte	.LVL835
 12010 2b45 FA370000 		.4byte	0x37fa
 12011 2b49 592B0000 		.4byte	0x2b59
 12012 2b4d 1B       		.uleb128 0x1b
 12013 2b4e 01       		.uleb128 0x1
 12014 2b4f 51       		.byte	0x51
 12015 2b50 02       		.uleb128 0x2
 12016 2b51 74       		.byte	0x74
 12017 2b52 00       		.sleb128 0
 12018 2b53 1B       		.uleb128 0x1b
 12019 2b54 01       		.uleb128 0x1
 12020 2b55 52       		.byte	0x52
 12021 2b56 01       		.uleb128 0x1
 12022 2b57 3A       		.byte	0x3a
 12023 2b58 00       		.byte	0
 12024 2b59 1C       		.uleb128 0x1c
 12025 2b5a 5E060000 		.4byte	.LVL837
 12026 2b5e FA370000 		.4byte	0x37fa
 12027 2b62 722B0000 		.4byte	0x2b72
 12028 2b66 1B       		.uleb128 0x1b
 12029 2b67 01       		.uleb128 0x1
 12030 2b68 51       		.byte	0x51
 12031 2b69 02       		.uleb128 0x2
 12032 2b6a 74       		.byte	0x74
 12033 2b6b 00       		.sleb128 0
 12034 2b6c 1B       		.uleb128 0x1b
 12035 2b6d 01       		.uleb128 0x1
 12036 2b6e 52       		.byte	0x52
 12037 2b6f 01       		.uleb128 0x1
 12038 2b70 3A       		.byte	0x3a
 12039 2b71 00       		.byte	0
 12040 2b72 1C       		.uleb128 0x1c
 12041 2b73 68060000 		.4byte	.LVL839
 12042 2b77 2F090000 		.4byte	0x92f
 12043 2b7b 8C2B0000 		.4byte	0x2b8c
 12044 2b7f 1B       		.uleb128 0x1b
 12045 2b80 01       		.uleb128 0x1
 12046 2b81 50       		.byte	0x50
 12047 2b82 02       		.uleb128 0x2
 12048 2b83 75       		.byte	0x75
 12049 2b84 00       		.sleb128 0
 12050 2b85 1B       		.uleb128 0x1b
 12051 2b86 01       		.uleb128 0x1
 12052 2b87 51       		.byte	0x51
 12053 2b88 02       		.uleb128 0x2
 12054 2b89 76       		.byte	0x76
 12055 2b8a 00       		.sleb128 0
 12056 2b8b 00       		.byte	0
 12057 2b8c 1C       		.uleb128 0x1c
 12058 2b8d 76060000 		.4byte	.LVL840
 12059 2b91 1A370000 		.4byte	0x371a
 12060 2b95 B52B0000 		.4byte	0x2bb5
ARM GAS  C:\Users\FRANKL~1\AppData\Local\Temp\ccba5qpo.s 			page 249


 12061 2b99 1B       		.uleb128 0x1b
 12062 2b9a 01       		.uleb128 0x1
 12063 2b9b 50       		.byte	0x50
 12064 2b9c 02       		.uleb128 0x2
 12065 2b9d 74       		.byte	0x74
 12066 2b9e 00       		.sleb128 0
 12067 2b9f 1B       		.uleb128 0x1b
 12068 2ba0 01       		.uleb128 0x1
 12069 2ba1 51       		.byte	0x51
 12070 2ba2 05       		.uleb128 0x5
 12071 2ba3 03       		.byte	0x3
 12072 2ba4 A8030000 		.4byte	.LC50
 12073 2ba8 1B       		.uleb128 0x1b
 12074 2ba9 01       		.uleb128 0x1
 12075 2baa 52       		.byte	0x52
 12076 2bab 02       		.uleb128 0x2
 12077 2bac 75       		.byte	0x75
 12078 2bad 00       		.sleb128 0
 12079 2bae 1B       		.uleb128 0x1b
 12080 2baf 01       		.uleb128 0x1
 12081 2bb0 53       		.byte	0x53
 12082 2bb1 02       		.uleb128 0x2
 12083 2bb2 76       		.byte	0x76
 12084 2bb3 00       		.sleb128 0
 12085 2bb4 00       		.byte	0
 12086 2bb5 1C       		.uleb128 0x1c
 12087 2bb6 7C060000 		.4byte	.LVL841
 12088 2bba E3360000 		.4byte	0x36e3
 12089 2bbe C92B0000 		.4byte	0x2bc9
 12090 2bc2 1B       		.uleb128 0x1b
 12091 2bc3 01       		.uleb128 0x1
 12092 2bc4 50       		.byte	0x50
 12093 2bc5 02       		.uleb128 0x2
 12094 2bc6 74       		.byte	0x74
 12095 2bc7 00       		.sleb128 0
 12096 2bc8 00       		.byte	0
 12097 2bc9 1C       		.uleb128 0x1c
 12098 2bca 84060000 		.4byte	.LVL842
 12099 2bce D1030000 		.4byte	0x3d1
 12100 2bd2 DD2B0000 		.4byte	0x2bdd
 12101 2bd6 1B       		.uleb128 0x1b
 12102 2bd7 01       		.uleb128 0x1
 12103 2bd8 50       		.byte	0x50
 12104 2bd9 02       		.uleb128 0x2
 12105 2bda 74       		.byte	0x74
 12106 2bdb 00       		.sleb128 0
 12107 2bdc 00       		.byte	0
 12108 2bdd 1A       		.uleb128 0x1a
 12109 2bde 8A060000 		.4byte	.LVL843
 12110 2be2 F9360000 		.4byte	0x36f9
 12111 2be6 1B       		.uleb128 0x1b
 12112 2be7 01       		.uleb128 0x1
 12113 2be8 50       		.byte	0x50
 12114 2be9 02       		.uleb128 0x2
 12115 2bea 74       		.byte	0x74
 12116 2beb 00       		.sleb128 0
 12117 2bec 00       		.byte	0
ARM GAS  C:\Users\FRANKL~1\AppData\Local\Temp\ccba5qpo.s 			page 250


 12118 2bed 00       		.byte	0
 12119 2bee 15       		.uleb128 0x15
 12120 2bef 98060000 		.4byte	.LBB78
 12121 2bf3 3C000000 		.4byte	.LBE78-.LBB78
 12122 2bf7 BD2C0000 		.4byte	0x2cbd
 12123 2bfb 16       		.uleb128 0x16
 12124 2bfc 41060000 		.4byte	.LASF171
 12125 2c00 02       		.byte	0x2
 12126 2c01 7704     		.2byte	0x477
 12127 2c03 92000000 		.4byte	0x92
 12128 2c07 02       		.uleb128 0x2
 12129 2c08 91       		.byte	0x91
 12130 2c09 64       		.sleb128 -28
 12131 2c0a 17       		.uleb128 0x17
 12132 2c0b 00000000 		.4byte	.LASF58
 12133 2c0f 02       		.byte	0x2
 12134 2c10 7804     		.2byte	0x478
 12135 2c12 B5000000 		.4byte	0xb5
 12136 2c16 49190000 		.4byte	.LLST179
 12137 2c1a 1C       		.uleb128 0x1c
 12138 2c1b A0060000 		.4byte	.LVL846
 12139 2c1f EB370000 		.4byte	0x37eb
 12140 2c23 342C0000 		.4byte	0x2c34
 12141 2c27 1B       		.uleb128 0x1b
 12142 2c28 01       		.uleb128 0x1
 12143 2c29 50       		.byte	0x50
 12144 2c2a 02       		.uleb128 0x2
 12145 2c2b 74       		.byte	0x74
 12146 2c2c 00       		.sleb128 0
 12147 2c2d 1B       		.uleb128 0x1b
 12148 2c2e 01       		.uleb128 0x1
 12149 2c2f 51       		.byte	0x51
 12150 2c30 02       		.uleb128 0x2
 12151 2c31 08       		.byte	0x8
 12152 2c32 20       		.byte	0x20
 12153 2c33 00       		.byte	0
 12154 2c34 1C       		.uleb128 0x1c
 12155 2c35 AC060000 		.4byte	.LVL847
 12156 2c39 FA370000 		.4byte	0x37fa
 12157 2c3d 4D2C0000 		.4byte	0x2c4d
 12158 2c41 1B       		.uleb128 0x1b
 12159 2c42 01       		.uleb128 0x1
 12160 2c43 51       		.byte	0x51
 12161 2c44 02       		.uleb128 0x2
 12162 2c45 91       		.byte	0x91
 12163 2c46 64       		.sleb128 -28
 12164 2c47 1B       		.uleb128 0x1b
 12165 2c48 01       		.uleb128 0x1
 12166 2c49 52       		.byte	0x52
 12167 2c4a 01       		.uleb128 0x1
 12168 2c4b 3A       		.byte	0x3a
 12169 2c4c 00       		.byte	0
 12170 2c4d 1C       		.uleb128 0x1c
 12171 2c4e B4060000 		.4byte	.LVL849
 12172 2c52 3A0A0000 		.4byte	0xa3a
 12173 2c56 612C0000 		.4byte	0x2c61
 12174 2c5a 1B       		.uleb128 0x1b
ARM GAS  C:\Users\FRANKL~1\AppData\Local\Temp\ccba5qpo.s 			page 251


 12175 2c5b 01       		.uleb128 0x1
 12176 2c5c 50       		.byte	0x50
 12177 2c5d 02       		.uleb128 0x2
 12178 2c5e 75       		.byte	0x75
 12179 2c5f 00       		.sleb128 0
 12180 2c60 00       		.byte	0
 12181 2c61 1C       		.uleb128 0x1c
 12182 2c62 C0060000 		.4byte	.LVL851
 12183 2c66 1A370000 		.4byte	0x371a
 12184 2c6a 842C0000 		.4byte	0x2c84
 12185 2c6e 1B       		.uleb128 0x1b
 12186 2c6f 01       		.uleb128 0x1
 12187 2c70 50       		.byte	0x50
 12188 2c71 02       		.uleb128 0x2
 12189 2c72 74       		.byte	0x74
 12190 2c73 00       		.sleb128 0
 12191 2c74 1B       		.uleb128 0x1b
 12192 2c75 01       		.uleb128 0x1
 12193 2c76 51       		.byte	0x51
 12194 2c77 05       		.uleb128 0x5
 12195 2c78 03       		.byte	0x3
 12196 2c79 DC030000 		.4byte	.LC52
 12197 2c7d 1B       		.uleb128 0x1b
 12198 2c7e 01       		.uleb128 0x1
 12199 2c7f 52       		.byte	0x52
 12200 2c80 02       		.uleb128 0x2
 12201 2c81 75       		.byte	0x75
 12202 2c82 00       		.sleb128 0
 12203 2c83 00       		.byte	0
 12204 2c84 1C       		.uleb128 0x1c
 12205 2c85 C6060000 		.4byte	.LVL852
 12206 2c89 E3360000 		.4byte	0x36e3
 12207 2c8d 982C0000 		.4byte	0x2c98
 12208 2c91 1B       		.uleb128 0x1b
 12209 2c92 01       		.uleb128 0x1
 12210 2c93 50       		.byte	0x50
 12211 2c94 02       		.uleb128 0x2
 12212 2c95 74       		.byte	0x74
 12213 2c96 00       		.sleb128 0
 12214 2c97 00       		.byte	0
 12215 2c98 1C       		.uleb128 0x1c
 12216 2c99 CE060000 		.4byte	.LVL853
 12217 2c9d D1030000 		.4byte	0x3d1
 12218 2ca1 AC2C0000 		.4byte	0x2cac
 12219 2ca5 1B       		.uleb128 0x1b
 12220 2ca6 01       		.uleb128 0x1
 12221 2ca7 50       		.byte	0x50
 12222 2ca8 02       		.uleb128 0x2
 12223 2ca9 74       		.byte	0x74
 12224 2caa 00       		.sleb128 0
 12225 2cab 00       		.byte	0
 12226 2cac 1A       		.uleb128 0x1a
 12227 2cad D4060000 		.4byte	.LVL854
 12228 2cb1 F9360000 		.4byte	0x36f9
 12229 2cb5 1B       		.uleb128 0x1b
 12230 2cb6 01       		.uleb128 0x1
 12231 2cb7 50       		.byte	0x50
ARM GAS  C:\Users\FRANKL~1\AppData\Local\Temp\ccba5qpo.s 			page 252


 12232 2cb8 02       		.uleb128 0x2
 12233 2cb9 74       		.byte	0x74
 12234 2cba 00       		.sleb128 0
 12235 2cbb 00       		.byte	0
 12236 2cbc 00       		.byte	0
 12237 2cbd 15       		.uleb128 0x15
 12238 2cbe 6C070000 		.4byte	.LBB79
 12239 2cc2 3C000000 		.4byte	.LBE79-.LBB79
 12240 2cc6 8C2D0000 		.4byte	0x2d8c
 12241 2cca 16       		.uleb128 0x16
 12242 2ccb 41060000 		.4byte	.LASF171
 12243 2ccf 02       		.byte	0x2
 12244 2cd0 8704     		.2byte	0x487
 12245 2cd2 92000000 		.4byte	0x92
 12246 2cd6 02       		.uleb128 0x2
 12247 2cd7 91       		.byte	0x91
 12248 2cd8 64       		.sleb128 -28
 12249 2cd9 17       		.uleb128 0x17
 12250 2cda C50A0000 		.4byte	.LASF60
 12251 2cde 02       		.byte	0x2
 12252 2cdf 8804     		.2byte	0x488
 12253 2ce1 B5000000 		.4byte	0xb5
 12254 2ce5 5C190000 		.4byte	.LLST180
 12255 2ce9 1C       		.uleb128 0x1c
 12256 2cea 74070000 		.4byte	.LVL864
 12257 2cee EB370000 		.4byte	0x37eb
 12258 2cf2 032D0000 		.4byte	0x2d03
 12259 2cf6 1B       		.uleb128 0x1b
 12260 2cf7 01       		.uleb128 0x1
 12261 2cf8 50       		.byte	0x50
 12262 2cf9 02       		.uleb128 0x2
 12263 2cfa 74       		.byte	0x74
 12264 2cfb 00       		.sleb128 0
 12265 2cfc 1B       		.uleb128 0x1b
 12266 2cfd 01       		.uleb128 0x1
 12267 2cfe 51       		.byte	0x51
 12268 2cff 02       		.uleb128 0x2
 12269 2d00 08       		.byte	0x8
 12270 2d01 20       		.byte	0x20
 12271 2d02 00       		.byte	0
 12272 2d03 1C       		.uleb128 0x1c
 12273 2d04 80070000 		.4byte	.LVL865
 12274 2d08 FA370000 		.4byte	0x37fa
 12275 2d0c 1C2D0000 		.4byte	0x2d1c
 12276 2d10 1B       		.uleb128 0x1b
 12277 2d11 01       		.uleb128 0x1
 12278 2d12 51       		.byte	0x51
 12279 2d13 02       		.uleb128 0x2
 12280 2d14 91       		.byte	0x91
 12281 2d15 64       		.sleb128 -28
 12282 2d16 1B       		.uleb128 0x1b
 12283 2d17 01       		.uleb128 0x1
 12284 2d18 52       		.byte	0x52
 12285 2d19 01       		.uleb128 0x1
 12286 2d1a 3A       		.byte	0x3a
 12287 2d1b 00       		.byte	0
 12288 2d1c 1C       		.uleb128 0x1c
ARM GAS  C:\Users\FRANKL~1\AppData\Local\Temp\ccba5qpo.s 			page 253


 12289 2d1d 88070000 		.4byte	.LVL867
 12290 2d21 7B090000 		.4byte	0x97b
 12291 2d25 302D0000 		.4byte	0x2d30
 12292 2d29 1B       		.uleb128 0x1b
 12293 2d2a 01       		.uleb128 0x1
 12294 2d2b 50       		.byte	0x50
 12295 2d2c 02       		.uleb128 0x2
 12296 2d2d 75       		.byte	0x75
 12297 2d2e 00       		.sleb128 0
 12298 2d2f 00       		.byte	0
 12299 2d30 1C       		.uleb128 0x1c
 12300 2d31 94070000 		.4byte	.LVL869
 12301 2d35 1A370000 		.4byte	0x371a
 12302 2d39 532D0000 		.4byte	0x2d53
 12303 2d3d 1B       		.uleb128 0x1b
 12304 2d3e 01       		.uleb128 0x1
 12305 2d3f 50       		.byte	0x50
 12306 2d40 02       		.uleb128 0x2
 12307 2d41 74       		.byte	0x74
 12308 2d42 00       		.sleb128 0
 12309 2d43 1B       		.uleb128 0x1b
 12310 2d44 01       		.uleb128 0x1
 12311 2d45 51       		.byte	0x51
 12312 2d46 05       		.uleb128 0x5
 12313 2d47 03       		.byte	0x3
 12314 2d48 50040000 		.4byte	.LC56
 12315 2d4c 1B       		.uleb128 0x1b
 12316 2d4d 01       		.uleb128 0x1
 12317 2d4e 52       		.byte	0x52
 12318 2d4f 02       		.uleb128 0x2
 12319 2d50 75       		.byte	0x75
 12320 2d51 00       		.sleb128 0
 12321 2d52 00       		.byte	0
 12322 2d53 1C       		.uleb128 0x1c
 12323 2d54 9A070000 		.4byte	.LVL870
 12324 2d58 E3360000 		.4byte	0x36e3
 12325 2d5c 672D0000 		.4byte	0x2d67
 12326 2d60 1B       		.uleb128 0x1b
 12327 2d61 01       		.uleb128 0x1
 12328 2d62 50       		.byte	0x50
 12329 2d63 02       		.uleb128 0x2
 12330 2d64 74       		.byte	0x74
 12331 2d65 00       		.sleb128 0
 12332 2d66 00       		.byte	0
 12333 2d67 1C       		.uleb128 0x1c
 12334 2d68 A2070000 		.4byte	.LVL871
 12335 2d6c D1030000 		.4byte	0x3d1
 12336 2d70 7B2D0000 		.4byte	0x2d7b
 12337 2d74 1B       		.uleb128 0x1b
 12338 2d75 01       		.uleb128 0x1
 12339 2d76 50       		.byte	0x50
 12340 2d77 02       		.uleb128 0x2
 12341 2d78 74       		.byte	0x74
 12342 2d79 00       		.sleb128 0
 12343 2d7a 00       		.byte	0
 12344 2d7b 1A       		.uleb128 0x1a
 12345 2d7c A8070000 		.4byte	.LVL872
ARM GAS  C:\Users\FRANKL~1\AppData\Local\Temp\ccba5qpo.s 			page 254


 12346 2d80 F9360000 		.4byte	0x36f9
 12347 2d84 1B       		.uleb128 0x1b
 12348 2d85 01       		.uleb128 0x1
 12349 2d86 50       		.byte	0x50
 12350 2d87 02       		.uleb128 0x2
 12351 2d88 74       		.byte	0x74
 12352 2d89 00       		.sleb128 0
 12353 2d8a 00       		.byte	0
 12354 2d8b 00       		.byte	0
 12355 2d8c 15       		.uleb128 0x15
 12356 2d8d B6070000 		.4byte	.LBB80
 12357 2d91 3C000000 		.4byte	.LBE80-.LBB80
 12358 2d95 5B2E0000 		.4byte	0x2e5b
 12359 2d99 16       		.uleb128 0x16
 12360 2d9a 41060000 		.4byte	.LASF171
 12361 2d9e 02       		.byte	0x2
 12362 2d9f 9004     		.2byte	0x490
 12363 2da1 92000000 		.4byte	0x92
 12364 2da5 02       		.uleb128 0x2
 12365 2da6 91       		.byte	0x91
 12366 2da7 64       		.sleb128 -28
 12367 2da8 17       		.uleb128 0x17
 12368 2da9 00000000 		.4byte	.LASF58
 12369 2dad 02       		.byte	0x2
 12370 2dae 9104     		.2byte	0x491
 12371 2db0 B5000000 		.4byte	0xb5
 12372 2db4 6F190000 		.4byte	.LLST181
 12373 2db8 1C       		.uleb128 0x1c
 12374 2db9 BE070000 		.4byte	.LVL875
 12375 2dbd EB370000 		.4byte	0x37eb
 12376 2dc1 D22D0000 		.4byte	0x2dd2
 12377 2dc5 1B       		.uleb128 0x1b
 12378 2dc6 01       		.uleb128 0x1
 12379 2dc7 50       		.byte	0x50
 12380 2dc8 02       		.uleb128 0x2
 12381 2dc9 74       		.byte	0x74
 12382 2dca 00       		.sleb128 0
 12383 2dcb 1B       		.uleb128 0x1b
 12384 2dcc 01       		.uleb128 0x1
 12385 2dcd 51       		.byte	0x51
 12386 2dce 02       		.uleb128 0x2
 12387 2dcf 08       		.byte	0x8
 12388 2dd0 20       		.byte	0x20
 12389 2dd1 00       		.byte	0
 12390 2dd2 1C       		.uleb128 0x1c
 12391 2dd3 CA070000 		.4byte	.LVL876
 12392 2dd7 FA370000 		.4byte	0x37fa
 12393 2ddb EB2D0000 		.4byte	0x2deb
 12394 2ddf 1B       		.uleb128 0x1b
 12395 2de0 01       		.uleb128 0x1
 12396 2de1 51       		.byte	0x51
 12397 2de2 02       		.uleb128 0x2
 12398 2de3 91       		.byte	0x91
 12399 2de4 64       		.sleb128 -28
 12400 2de5 1B       		.uleb128 0x1b
 12401 2de6 01       		.uleb128 0x1
 12402 2de7 52       		.byte	0x52
ARM GAS  C:\Users\FRANKL~1\AppData\Local\Temp\ccba5qpo.s 			page 255


 12403 2de8 01       		.uleb128 0x1
 12404 2de9 3A       		.byte	0x3a
 12405 2dea 00       		.byte	0
 12406 2deb 1C       		.uleb128 0x1c
 12407 2dec D2070000 		.4byte	.LVL878
 12408 2df0 850A0000 		.4byte	0xa85
 12409 2df4 FF2D0000 		.4byte	0x2dff
 12410 2df8 1B       		.uleb128 0x1b
 12411 2df9 01       		.uleb128 0x1
 12412 2dfa 50       		.byte	0x50
 12413 2dfb 02       		.uleb128 0x2
 12414 2dfc 75       		.byte	0x75
 12415 2dfd 00       		.sleb128 0
 12416 2dfe 00       		.byte	0
 12417 2dff 1C       		.uleb128 0x1c
 12418 2e00 DE070000 		.4byte	.LVL880
 12419 2e04 1A370000 		.4byte	0x371a
 12420 2e08 222E0000 		.4byte	0x2e22
 12421 2e0c 1B       		.uleb128 0x1b
 12422 2e0d 01       		.uleb128 0x1
 12423 2e0e 50       		.byte	0x50
 12424 2e0f 02       		.uleb128 0x2
 12425 2e10 74       		.byte	0x74
 12426 2e11 00       		.sleb128 0
 12427 2e12 1B       		.uleb128 0x1b
 12428 2e13 01       		.uleb128 0x1
 12429 2e14 51       		.byte	0x51
 12430 2e15 05       		.uleb128 0x5
 12431 2e16 03       		.byte	0x3
 12432 2e17 88040000 		.4byte	.LC58
 12433 2e1b 1B       		.uleb128 0x1b
 12434 2e1c 01       		.uleb128 0x1
 12435 2e1d 52       		.byte	0x52
 12436 2e1e 02       		.uleb128 0x2
 12437 2e1f 75       		.byte	0x75
 12438 2e20 00       		.sleb128 0
 12439 2e21 00       		.byte	0
 12440 2e22 1C       		.uleb128 0x1c
 12441 2e23 E4070000 		.4byte	.LVL881
 12442 2e27 E3360000 		.4byte	0x36e3
 12443 2e2b 362E0000 		.4byte	0x2e36
 12444 2e2f 1B       		.uleb128 0x1b
 12445 2e30 01       		.uleb128 0x1
 12446 2e31 50       		.byte	0x50
 12447 2e32 02       		.uleb128 0x2
 12448 2e33 74       		.byte	0x74
 12449 2e34 00       		.sleb128 0
 12450 2e35 00       		.byte	0
 12451 2e36 1C       		.uleb128 0x1c
 12452 2e37 EC070000 		.4byte	.LVL882
 12453 2e3b D1030000 		.4byte	0x3d1
 12454 2e3f 4A2E0000 		.4byte	0x2e4a
 12455 2e43 1B       		.uleb128 0x1b
 12456 2e44 01       		.uleb128 0x1
 12457 2e45 50       		.byte	0x50
 12458 2e46 02       		.uleb128 0x2
 12459 2e47 74       		.byte	0x74
ARM GAS  C:\Users\FRANKL~1\AppData\Local\Temp\ccba5qpo.s 			page 256


 12460 2e48 00       		.sleb128 0
 12461 2e49 00       		.byte	0
 12462 2e4a 1A       		.uleb128 0x1a
 12463 2e4b F2070000 		.4byte	.LVL883
 12464 2e4f F9360000 		.4byte	0x36f9
 12465 2e53 1B       		.uleb128 0x1b
 12466 2e54 01       		.uleb128 0x1
 12467 2e55 50       		.byte	0x50
 12468 2e56 02       		.uleb128 0x2
 12469 2e57 74       		.byte	0x74
 12470 2e58 00       		.sleb128 0
 12471 2e59 00       		.byte	0
 12472 2e5a 00       		.byte	0
 12473 2e5b 15       		.uleb128 0x15
 12474 2e5c 3C080000 		.4byte	.LBB81
 12475 2e60 54000000 		.4byte	.LBE81-.LBB81
 12476 2e64 F32E0000 		.4byte	0x2ef3
 12477 2e68 16       		.uleb128 0x16
 12478 2e69 41060000 		.4byte	.LASF171
 12479 2e6d 02       		.byte	0x2
 12480 2e6e A004     		.2byte	0x4a0
 12481 2e70 92000000 		.4byte	0x92
 12482 2e74 02       		.uleb128 0x2
 12483 2e75 91       		.byte	0x91
 12484 2e76 64       		.sleb128 -28
 12485 2e77 17       		.uleb128 0x17
 12486 2e78 59070000 		.4byte	.LASF75
 12487 2e7c 02       		.byte	0x2
 12488 2e7d A104     		.2byte	0x4a1
 12489 2e7f CD000000 		.4byte	0xcd
 12490 2e83 82190000 		.4byte	.LLST182
 12491 2e87 1C       		.uleb128 0x1c
 12492 2e88 44080000 		.4byte	.LVL893
 12493 2e8c EB370000 		.4byte	0x37eb
 12494 2e90 A12E0000 		.4byte	0x2ea1
 12495 2e94 1B       		.uleb128 0x1b
 12496 2e95 01       		.uleb128 0x1
 12497 2e96 50       		.byte	0x50
 12498 2e97 02       		.uleb128 0x2
 12499 2e98 74       		.byte	0x74
 12500 2e99 00       		.sleb128 0
 12501 2e9a 1B       		.uleb128 0x1b
 12502 2e9b 01       		.uleb128 0x1
 12503 2e9c 51       		.byte	0x51
 12504 2e9d 02       		.uleb128 0x2
 12505 2e9e 08       		.byte	0x8
 12506 2e9f 20       		.byte	0x20
 12507 2ea0 00       		.byte	0
 12508 2ea1 1C       		.uleb128 0x1c
 12509 2ea2 50080000 		.4byte	.LVL894
 12510 2ea6 FA370000 		.4byte	0x37fa
 12511 2eaa BA2E0000 		.4byte	0x2eba
 12512 2eae 1B       		.uleb128 0x1b
 12513 2eaf 01       		.uleb128 0x1
 12514 2eb0 51       		.byte	0x51
 12515 2eb1 02       		.uleb128 0x2
 12516 2eb2 91       		.byte	0x91
ARM GAS  C:\Users\FRANKL~1\AppData\Local\Temp\ccba5qpo.s 			page 257


 12517 2eb3 64       		.sleb128 -28
 12518 2eb4 1B       		.uleb128 0x1b
 12519 2eb5 01       		.uleb128 0x1
 12520 2eb6 52       		.byte	0x52
 12521 2eb7 01       		.uleb128 0x1
 12522 2eb8 3A       		.byte	0x3a
 12523 2eb9 00       		.byte	0
 12524 2eba 1C       		.uleb128 0x1c
 12525 2ebb 82080000 		.4byte	.LVL897
 12526 2ebf E3360000 		.4byte	0x36e3
 12527 2ec3 CE2E0000 		.4byte	0x2ece
 12528 2ec7 1B       		.uleb128 0x1b
 12529 2ec8 01       		.uleb128 0x1
 12530 2ec9 50       		.byte	0x50
 12531 2eca 02       		.uleb128 0x2
 12532 2ecb 74       		.byte	0x74
 12533 2ecc 00       		.sleb128 0
 12534 2ecd 00       		.byte	0
 12535 2ece 1C       		.uleb128 0x1c
 12536 2ecf 8A080000 		.4byte	.LVL898
 12537 2ed3 D1030000 		.4byte	0x3d1
 12538 2ed7 E22E0000 		.4byte	0x2ee2
 12539 2edb 1B       		.uleb128 0x1b
 12540 2edc 01       		.uleb128 0x1
 12541 2edd 50       		.byte	0x50
 12542 2ede 02       		.uleb128 0x2
 12543 2edf 74       		.byte	0x74
 12544 2ee0 00       		.sleb128 0
 12545 2ee1 00       		.byte	0
 12546 2ee2 1A       		.uleb128 0x1a
 12547 2ee3 90080000 		.4byte	.LVL899
 12548 2ee7 F9360000 		.4byte	0x36f9
 12549 2eeb 1B       		.uleb128 0x1b
 12550 2eec 01       		.uleb128 0x1
 12551 2eed 50       		.byte	0x50
 12552 2eee 02       		.uleb128 0x2
 12553 2eef 74       		.byte	0x74
 12554 2ef0 00       		.sleb128 0
 12555 2ef1 00       		.byte	0
 12556 2ef2 00       		.byte	0
 12557 2ef3 1C       		.uleb128 0x1c
 12558 2ef4 A4000000 		.4byte	.LVL686
 12559 2ef8 8B360000 		.4byte	0x368b
 12560 2efc 102F0000 		.4byte	0x2f10
 12561 2f00 1B       		.uleb128 0x1b
 12562 2f01 01       		.uleb128 0x1
 12563 2f02 50       		.byte	0x50
 12564 2f03 02       		.uleb128 0x2
 12565 2f04 74       		.byte	0x74
 12566 2f05 00       		.sleb128 0
 12567 2f06 1B       		.uleb128 0x1b
 12568 2f07 01       		.uleb128 0x1
 12569 2f08 51       		.byte	0x51
 12570 2f09 05       		.uleb128 0x5
 12571 2f0a 03       		.byte	0x3
 12572 2f0b 0C010000 		.4byte	.LC16
 12573 2f0f 00       		.byte	0
ARM GAS  C:\Users\FRANKL~1\AppData\Local\Temp\ccba5qpo.s 			page 258


 12574 2f10 1C       		.uleb128 0x1c
 12575 2f11 B2000000 		.4byte	.LVL687
 12576 2f15 20180000 		.4byte	0x1820
 12577 2f19 2E2F0000 		.4byte	0x2f2e
 12578 2f1d 1B       		.uleb128 0x1b
 12579 2f1e 01       		.uleb128 0x1
 12580 2f1f 50       		.byte	0x50
 12581 2f20 02       		.uleb128 0x2
 12582 2f21 08       		.byte	0x8
 12583 2f22 64       		.byte	0x64
 12584 2f23 1B       		.uleb128 0x1b
 12585 2f24 01       		.uleb128 0x1
 12586 2f25 51       		.byte	0x51
 12587 2f26 01       		.uleb128 0x1
 12588 2f27 31       		.byte	0x31
 12589 2f28 1B       		.uleb128 0x1b
 12590 2f29 01       		.uleb128 0x1
 12591 2f2a 52       		.byte	0x52
 12592 2f2b 01       		.uleb128 0x1
 12593 2f2c 3A       		.byte	0x3a
 12594 2f2d 00       		.byte	0
 12595 2f2e 1C       		.uleb128 0x1c
 12596 2f2f BC000000 		.4byte	.LVL688
 12597 2f33 8B360000 		.4byte	0x368b
 12598 2f37 4B2F0000 		.4byte	0x2f4b
 12599 2f3b 1B       		.uleb128 0x1b
 12600 2f3c 01       		.uleb128 0x1
 12601 2f3d 50       		.byte	0x50
 12602 2f3e 02       		.uleb128 0x2
 12603 2f3f 74       		.byte	0x74
 12604 2f40 00       		.sleb128 0
 12605 2f41 1B       		.uleb128 0x1b
 12606 2f42 01       		.uleb128 0x1
 12607 2f43 51       		.byte	0x51
 12608 2f44 05       		.uleb128 0x5
 12609 2f45 03       		.byte	0x3
 12610 2f46 18010000 		.4byte	.LC17
 12611 2f4a 00       		.byte	0
 12612 2f4b 1C       		.uleb128 0x1c
 12613 2f4c E2000000 		.4byte	.LVL692
 12614 2f50 8B360000 		.4byte	0x368b
 12615 2f54 682F0000 		.4byte	0x2f68
 12616 2f58 1B       		.uleb128 0x1b
 12617 2f59 01       		.uleb128 0x1
 12618 2f5a 50       		.byte	0x50
 12619 2f5b 02       		.uleb128 0x2
 12620 2f5c 74       		.byte	0x74
 12621 2f5d 00       		.sleb128 0
 12622 2f5e 1B       		.uleb128 0x1b
 12623 2f5f 01       		.uleb128 0x1
 12624 2f60 51       		.byte	0x51
 12625 2f61 05       		.uleb128 0x5
 12626 2f62 03       		.byte	0x3
 12627 2f63 2C010000 		.4byte	.LC18
 12628 2f67 00       		.byte	0
 12629 2f68 12       		.uleb128 0x12
 12630 2f69 EA000000 		.4byte	.LVL693
ARM GAS  C:\Users\FRANKL~1\AppData\Local\Temp\ccba5qpo.s 			page 259


 12631 2f6d 471A0000 		.4byte	0x1a47
 12632 2f71 1C       		.uleb128 0x1c
 12633 2f72 F4000000 		.4byte	.LVL694
 12634 2f76 8B360000 		.4byte	0x368b
 12635 2f7a 8E2F0000 		.4byte	0x2f8e
 12636 2f7e 1B       		.uleb128 0x1b
 12637 2f7f 01       		.uleb128 0x1
 12638 2f80 50       		.byte	0x50
 12639 2f81 02       		.uleb128 0x2
 12640 2f82 74       		.byte	0x74
 12641 2f83 00       		.sleb128 0
 12642 2f84 1B       		.uleb128 0x1b
 12643 2f85 01       		.uleb128 0x1
 12644 2f86 51       		.byte	0x51
 12645 2f87 05       		.uleb128 0x5
 12646 2f88 03       		.byte	0x3
 12647 2f89 3C010000 		.4byte	.LC19
 12648 2f8d 00       		.byte	0
 12649 2f8e 1C       		.uleb128 0x1c
 12650 2f8f FE000000 		.4byte	.LVL695
 12651 2f93 CE1A0000 		.4byte	0x1ace
 12652 2f97 A12F0000 		.4byte	0x2fa1
 12653 2f9b 1B       		.uleb128 0x1b
 12654 2f9c 01       		.uleb128 0x1
 12655 2f9d 50       		.byte	0x50
 12656 2f9e 01       		.uleb128 0x1
 12657 2f9f 30       		.byte	0x30
 12658 2fa0 00       		.byte	0
 12659 2fa1 1C       		.uleb128 0x1c
 12660 2fa2 08010000 		.4byte	.LVL696
 12661 2fa6 8B360000 		.4byte	0x368b
 12662 2faa BE2F0000 		.4byte	0x2fbe
 12663 2fae 1B       		.uleb128 0x1b
 12664 2faf 01       		.uleb128 0x1
 12665 2fb0 50       		.byte	0x50
 12666 2fb1 02       		.uleb128 0x2
 12667 2fb2 74       		.byte	0x74
 12668 2fb3 00       		.sleb128 0
 12669 2fb4 1B       		.uleb128 0x1b
 12670 2fb5 01       		.uleb128 0x1
 12671 2fb6 51       		.byte	0x51
 12672 2fb7 05       		.uleb128 0x5
 12673 2fb8 03       		.byte	0x3
 12674 2fb9 50010000 		.4byte	.LC20
 12675 2fbd 00       		.byte	0
 12676 2fbe 1C       		.uleb128 0x1c
 12677 2fbf 12010000 		.4byte	.LVL697
 12678 2fc3 CE1A0000 		.4byte	0x1ace
 12679 2fc7 D12F0000 		.4byte	0x2fd1
 12680 2fcb 1B       		.uleb128 0x1b
 12681 2fcc 01       		.uleb128 0x1
 12682 2fcd 50       		.byte	0x50
 12683 2fce 01       		.uleb128 0x1
 12684 2fcf 31       		.byte	0x31
 12685 2fd0 00       		.byte	0
 12686 2fd1 1C       		.uleb128 0x1c
 12687 2fd2 1C010000 		.4byte	.LVL698
ARM GAS  C:\Users\FRANKL~1\AppData\Local\Temp\ccba5qpo.s 			page 260


 12688 2fd6 8B360000 		.4byte	0x368b
 12689 2fda EE2F0000 		.4byte	0x2fee
 12690 2fde 1B       		.uleb128 0x1b
 12691 2fdf 01       		.uleb128 0x1
 12692 2fe0 50       		.byte	0x50
 12693 2fe1 02       		.uleb128 0x2
 12694 2fe2 74       		.byte	0x74
 12695 2fe3 00       		.sleb128 0
 12696 2fe4 1B       		.uleb128 0x1b
 12697 2fe5 01       		.uleb128 0x1
 12698 2fe6 51       		.byte	0x51
 12699 2fe7 05       		.uleb128 0x5
 12700 2fe8 03       		.byte	0x3
 12701 2fe9 6C010000 		.4byte	.LC21
 12702 2fed 00       		.byte	0
 12703 2fee 1C       		.uleb128 0x1c
 12704 2fef 28010000 		.4byte	.LVL699
 12705 2ff3 8A160000 		.4byte	0x168a
 12706 2ff7 03300000 		.4byte	0x3003
 12707 2ffb 1B       		.uleb128 0x1b
 12708 2ffc 01       		.uleb128 0x1
 12709 2ffd 50       		.byte	0x50
 12710 2ffe 03       		.uleb128 0x3
 12711 2fff 0A       		.byte	0xa
 12712 3000 2C01     		.2byte	0x12c
 12713 3002 00       		.byte	0
 12714 3003 1C       		.uleb128 0x1c
 12715 3004 32010000 		.4byte	.LVL700
 12716 3008 8B360000 		.4byte	0x368b
 12717 300c 20300000 		.4byte	0x3020
 12718 3010 1B       		.uleb128 0x1b
 12719 3011 01       		.uleb128 0x1
 12720 3012 50       		.byte	0x50
 12721 3013 02       		.uleb128 0x2
 12722 3014 74       		.byte	0x74
 12723 3015 00       		.sleb128 0
 12724 3016 1B       		.uleb128 0x1b
 12725 3017 01       		.uleb128 0x1
 12726 3018 51       		.byte	0x51
 12727 3019 05       		.uleb128 0x5
 12728 301a 03       		.byte	0x3
 12729 301b 80010000 		.4byte	.LC22
 12730 301f 00       		.byte	0
 12731 3020 1C       		.uleb128 0x1c
 12732 3021 5A010000 		.4byte	.LVL704
 12733 3025 8B360000 		.4byte	0x368b
 12734 3029 3D300000 		.4byte	0x303d
 12735 302d 1B       		.uleb128 0x1b
 12736 302e 01       		.uleb128 0x1
 12737 302f 50       		.byte	0x50
 12738 3030 02       		.uleb128 0x2
 12739 3031 74       		.byte	0x74
 12740 3032 00       		.sleb128 0
 12741 3033 1B       		.uleb128 0x1b
 12742 3034 01       		.uleb128 0x1
 12743 3035 51       		.byte	0x51
 12744 3036 05       		.uleb128 0x5
ARM GAS  C:\Users\FRANKL~1\AppData\Local\Temp\ccba5qpo.s 			page 261


 12745 3037 03       		.byte	0x3
 12746 3038 90010000 		.4byte	.LC23
 12747 303c 00       		.byte	0
 12748 303d 1C       		.uleb128 0x1c
 12749 303e 82010000 		.4byte	.LVL708
 12750 3042 8B360000 		.4byte	0x368b
 12751 3046 5A300000 		.4byte	0x305a
 12752 304a 1B       		.uleb128 0x1b
 12753 304b 01       		.uleb128 0x1
 12754 304c 50       		.byte	0x50
 12755 304d 02       		.uleb128 0x2
 12756 304e 74       		.byte	0x74
 12757 304f 00       		.sleb128 0
 12758 3050 1B       		.uleb128 0x1b
 12759 3051 01       		.uleb128 0x1
 12760 3052 51       		.byte	0x51
 12761 3053 05       		.uleb128 0x5
 12762 3054 03       		.byte	0x3
 12763 3055 A0010000 		.4byte	.LC24
 12764 3059 00       		.byte	0
 12765 305a 1C       		.uleb128 0x1c
 12766 305b AA010000 		.4byte	.LVL712
 12767 305f 8B360000 		.4byte	0x368b
 12768 3063 77300000 		.4byte	0x3077
 12769 3067 1B       		.uleb128 0x1b
 12770 3068 01       		.uleb128 0x1
 12771 3069 50       		.byte	0x50
 12772 306a 02       		.uleb128 0x2
 12773 306b 74       		.byte	0x74
 12774 306c 00       		.sleb128 0
 12775 306d 1B       		.uleb128 0x1b
 12776 306e 01       		.uleb128 0x1
 12777 306f 51       		.byte	0x51
 12778 3070 05       		.uleb128 0x5
 12779 3071 03       		.byte	0x3
 12780 3072 B0010000 		.4byte	.LC25
 12781 3076 00       		.byte	0
 12782 3077 1C       		.uleb128 0x1c
 12783 3078 D2010000 		.4byte	.LVL716
 12784 307c 8B360000 		.4byte	0x368b
 12785 3080 94300000 		.4byte	0x3094
 12786 3084 1B       		.uleb128 0x1b
 12787 3085 01       		.uleb128 0x1
 12788 3086 50       		.byte	0x50
 12789 3087 02       		.uleb128 0x2
 12790 3088 74       		.byte	0x74
 12791 3089 00       		.sleb128 0
 12792 308a 1B       		.uleb128 0x1b
 12793 308b 01       		.uleb128 0x1
 12794 308c 51       		.byte	0x51
 12795 308d 05       		.uleb128 0x5
 12796 308e 03       		.byte	0x3
 12797 308f C0010000 		.4byte	.LC26
 12798 3093 00       		.byte	0
 12799 3094 1C       		.uleb128 0x1c
 12800 3095 FC010000 		.4byte	.LVL720
 12801 3099 8B360000 		.4byte	0x368b
ARM GAS  C:\Users\FRANKL~1\AppData\Local\Temp\ccba5qpo.s 			page 262


 12802 309d B1300000 		.4byte	0x30b1
 12803 30a1 1B       		.uleb128 0x1b
 12804 30a2 01       		.uleb128 0x1
 12805 30a3 50       		.byte	0x50
 12806 30a4 02       		.uleb128 0x2
 12807 30a5 74       		.byte	0x74
 12808 30a6 00       		.sleb128 0
 12809 30a7 1B       		.uleb128 0x1b
 12810 30a8 01       		.uleb128 0x1
 12811 30a9 51       		.byte	0x51
 12812 30aa 05       		.uleb128 0x5
 12813 30ab 03       		.byte	0x3
 12814 30ac D0010000 		.4byte	.LC28
 12815 30b0 00       		.byte	0
 12816 30b1 1C       		.uleb128 0x1c
 12817 30b2 26020000 		.4byte	.LVL724
 12818 30b6 8B360000 		.4byte	0x368b
 12819 30ba CE300000 		.4byte	0x30ce
 12820 30be 1B       		.uleb128 0x1b
 12821 30bf 01       		.uleb128 0x1
 12822 30c0 50       		.byte	0x50
 12823 30c1 02       		.uleb128 0x2
 12824 30c2 74       		.byte	0x74
 12825 30c3 00       		.sleb128 0
 12826 30c4 1B       		.uleb128 0x1b
 12827 30c5 01       		.uleb128 0x1
 12828 30c6 51       		.byte	0x51
 12829 30c7 05       		.uleb128 0x5
 12830 30c8 03       		.byte	0x3
 12831 30c9 DC010000 		.4byte	.LC29
 12832 30cd 00       		.byte	0
 12833 30ce 1C       		.uleb128 0x1c
 12834 30cf 7A020000 		.4byte	.LVL737
 12835 30d3 8B360000 		.4byte	0x368b
 12836 30d7 EB300000 		.4byte	0x30eb
 12837 30db 1B       		.uleb128 0x1b
 12838 30dc 01       		.uleb128 0x1
 12839 30dd 50       		.byte	0x50
 12840 30de 02       		.uleb128 0x2
 12841 30df 74       		.byte	0x74
 12842 30e0 00       		.sleb128 0
 12843 30e1 1B       		.uleb128 0x1b
 12844 30e2 01       		.uleb128 0x1
 12845 30e3 51       		.byte	0x51
 12846 30e4 05       		.uleb128 0x5
 12847 30e5 03       		.byte	0x3
 12848 30e6 00020000 		.4byte	.LC31
 12849 30ea 00       		.byte	0
 12850 30eb 1C       		.uleb128 0x1c
 12851 30ec CE020000 		.4byte	.LVL750
 12852 30f0 8B360000 		.4byte	0x368b
 12853 30f4 08310000 		.4byte	0x3108
 12854 30f8 1B       		.uleb128 0x1b
 12855 30f9 01       		.uleb128 0x1
 12856 30fa 50       		.byte	0x50
 12857 30fb 02       		.uleb128 0x2
 12858 30fc 74       		.byte	0x74
ARM GAS  C:\Users\FRANKL~1\AppData\Local\Temp\ccba5qpo.s 			page 263


 12859 30fd 00       		.sleb128 0
 12860 30fe 1B       		.uleb128 0x1b
 12861 30ff 01       		.uleb128 0x1
 12862 3100 51       		.byte	0x51
 12863 3101 05       		.uleb128 0x5
 12864 3102 03       		.byte	0x3
 12865 3103 24020000 		.4byte	.LC33
 12866 3107 00       		.byte	0
 12867 3108 1C       		.uleb128 0x1c
 12868 3109 EA020000 		.4byte	.LVL752
 12869 310d E3360000 		.4byte	0x36e3
 12870 3111 1C310000 		.4byte	0x311c
 12871 3115 1B       		.uleb128 0x1b
 12872 3116 01       		.uleb128 0x1
 12873 3117 50       		.byte	0x50
 12874 3118 02       		.uleb128 0x2
 12875 3119 74       		.byte	0x74
 12876 311a 00       		.sleb128 0
 12877 311b 00       		.byte	0
 12878 311c 1C       		.uleb128 0x1c
 12879 311d F2020000 		.4byte	.LVL753
 12880 3121 D1030000 		.4byte	0x3d1
 12881 3125 30310000 		.4byte	0x3130
 12882 3129 1B       		.uleb128 0x1b
 12883 312a 01       		.uleb128 0x1
 12884 312b 50       		.byte	0x50
 12885 312c 02       		.uleb128 0x2
 12886 312d 74       		.byte	0x74
 12887 312e 00       		.sleb128 0
 12888 312f 00       		.byte	0
 12889 3130 1C       		.uleb128 0x1c
 12890 3131 F8020000 		.4byte	.LVL754
 12891 3135 F9360000 		.4byte	0x36f9
 12892 3139 44310000 		.4byte	0x3144
 12893 313d 1B       		.uleb128 0x1b
 12894 313e 01       		.uleb128 0x1
 12895 313f 50       		.byte	0x50
 12896 3140 02       		.uleb128 0x2
 12897 3141 74       		.byte	0x74
 12898 3142 00       		.sleb128 0
 12899 3143 00       		.byte	0
 12900 3144 1C       		.uleb128 0x1c
 12901 3145 00030000 		.4byte	.LVL755
 12902 3149 D31D0000 		.4byte	0x1dd3
 12903 314d 5C310000 		.4byte	0x315c
 12904 3151 1B       		.uleb128 0x1b
 12905 3152 01       		.uleb128 0x1
 12906 3153 50       		.byte	0x50
 12907 3154 01       		.uleb128 0x1
 12908 3155 30       		.byte	0x30
 12909 3156 1B       		.uleb128 0x1b
 12910 3157 01       		.uleb128 0x1
 12911 3158 51       		.byte	0x51
 12912 3159 01       		.uleb128 0x1
 12913 315a 30       		.byte	0x30
 12914 315b 00       		.byte	0
 12915 315c 1C       		.uleb128 0x1c
ARM GAS  C:\Users\FRANKL~1\AppData\Local\Temp\ccba5qpo.s 			page 264


 12916 315d 16030000 		.4byte	.LVL756
 12917 3161 E3360000 		.4byte	0x36e3
 12918 3165 70310000 		.4byte	0x3170
 12919 3169 1B       		.uleb128 0x1b
 12920 316a 01       		.uleb128 0x1
 12921 316b 50       		.byte	0x50
 12922 316c 02       		.uleb128 0x2
 12923 316d 74       		.byte	0x74
 12924 316e 00       		.sleb128 0
 12925 316f 00       		.byte	0
 12926 3170 1C       		.uleb128 0x1c
 12927 3171 1E030000 		.4byte	.LVL757
 12928 3175 D1030000 		.4byte	0x3d1
 12929 3179 84310000 		.4byte	0x3184
 12930 317d 1B       		.uleb128 0x1b
 12931 317e 01       		.uleb128 0x1
 12932 317f 50       		.byte	0x50
 12933 3180 02       		.uleb128 0x2
 12934 3181 74       		.byte	0x74
 12935 3182 00       		.sleb128 0
 12936 3183 00       		.byte	0
 12937 3184 1C       		.uleb128 0x1c
 12938 3185 24030000 		.4byte	.LVL758
 12939 3189 F9360000 		.4byte	0x36f9
 12940 318d 98310000 		.4byte	0x3198
 12941 3191 1B       		.uleb128 0x1b
 12942 3192 01       		.uleb128 0x1
 12943 3193 50       		.byte	0x50
 12944 3194 02       		.uleb128 0x2
 12945 3195 74       		.byte	0x74
 12946 3196 00       		.sleb128 0
 12947 3197 00       		.byte	0
 12948 3198 1C       		.uleb128 0x1c
 12949 3199 A8030000 		.4byte	.LVL760
 12950 319d 8B360000 		.4byte	0x368b
 12951 31a1 B5310000 		.4byte	0x31b5
 12952 31a5 1B       		.uleb128 0x1b
 12953 31a6 01       		.uleb128 0x1
 12954 31a7 50       		.byte	0x50
 12955 31a8 02       		.uleb128 0x2
 12956 31a9 74       		.byte	0x74
 12957 31aa 00       		.sleb128 0
 12958 31ab 1B       		.uleb128 0x1b
 12959 31ac 01       		.uleb128 0x1
 12960 31ad 51       		.byte	0x51
 12961 31ae 05       		.uleb128 0x5
 12962 31af 03       		.byte	0x3
 12963 31b0 54020000 		.4byte	.LC36
 12964 31b4 00       		.byte	0
 12965 31b5 1C       		.uleb128 0x1c
 12966 31b6 3A040000 		.4byte	.LVL775
 12967 31ba 8B360000 		.4byte	0x368b
 12968 31be D2310000 		.4byte	0x31d2
 12969 31c2 1B       		.uleb128 0x1b
 12970 31c3 01       		.uleb128 0x1
 12971 31c4 50       		.byte	0x50
 12972 31c5 02       		.uleb128 0x2
ARM GAS  C:\Users\FRANKL~1\AppData\Local\Temp\ccba5qpo.s 			page 265


 12973 31c6 74       		.byte	0x74
 12974 31c7 00       		.sleb128 0
 12975 31c8 1B       		.uleb128 0x1b
 12976 31c9 01       		.uleb128 0x1
 12977 31ca 51       		.byte	0x51
 12978 31cb 05       		.uleb128 0x5
 12979 31cc 03       		.byte	0x3
 12980 31cd 98020000 		.4byte	.LC39
 12981 31d1 00       		.byte	0
 12982 31d2 1C       		.uleb128 0x1c
 12983 31d3 D8040000 		.4byte	.LVL790
 12984 31d7 8B360000 		.4byte	0x368b
 12985 31db EF310000 		.4byte	0x31ef
 12986 31df 1B       		.uleb128 0x1b
 12987 31e0 01       		.uleb128 0x1
 12988 31e1 50       		.byte	0x50
 12989 31e2 02       		.uleb128 0x2
 12990 31e3 74       		.byte	0x74
 12991 31e4 00       		.sleb128 0
 12992 31e5 1B       		.uleb128 0x1b
 12993 31e6 01       		.uleb128 0x1
 12994 31e7 51       		.byte	0x51
 12995 31e8 05       		.uleb128 0x5
 12996 31e9 03       		.byte	0x3
 12997 31ea EC020000 		.4byte	.LC42
 12998 31ee 00       		.byte	0
 12999 31ef 1C       		.uleb128 0x1c
 13000 31f0 80050000 		.4byte	.LVL806
 13001 31f4 8B360000 		.4byte	0x368b
 13002 31f8 0C320000 		.4byte	0x320c
 13003 31fc 1B       		.uleb128 0x1b
 13004 31fd 01       		.uleb128 0x1
 13005 31fe 50       		.byte	0x50
 13006 31ff 02       		.uleb128 0x2
 13007 3200 74       		.byte	0x74
 13008 3201 00       		.sleb128 0
 13009 3202 1B       		.uleb128 0x1b
 13010 3203 01       		.uleb128 0x1
 13011 3204 51       		.byte	0x51
 13012 3205 05       		.uleb128 0x5
 13013 3206 03       		.byte	0x3
 13014 3207 4C030000 		.4byte	.LC45
 13015 320b 00       		.byte	0
 13016 320c 1C       		.uleb128 0x1c
 13017 320d DC050000 		.4byte	.LVL819
 13018 3211 8B360000 		.4byte	0x368b
 13019 3215 29320000 		.4byte	0x3229
 13020 3219 1B       		.uleb128 0x1b
 13021 321a 01       		.uleb128 0x1
 13022 321b 50       		.byte	0x50
 13023 321c 02       		.uleb128 0x2
 13024 321d 74       		.byte	0x74
 13025 321e 00       		.sleb128 0
 13026 321f 1B       		.uleb128 0x1b
 13027 3220 01       		.uleb128 0x1
 13028 3221 51       		.byte	0x51
 13029 3222 05       		.uleb128 0x5
ARM GAS  C:\Users\FRANKL~1\AppData\Local\Temp\ccba5qpo.s 			page 266


 13030 3223 03       		.byte	0x3
 13031 3224 70030000 		.4byte	.LC47
 13032 3228 00       		.byte	0
 13033 3229 1C       		.uleb128 0x1c
 13034 322a 38060000 		.4byte	.LVL832
 13035 322e 8B360000 		.4byte	0x368b
 13036 3232 46320000 		.4byte	0x3246
 13037 3236 1B       		.uleb128 0x1b
 13038 3237 01       		.uleb128 0x1
 13039 3238 50       		.byte	0x50
 13040 3239 02       		.uleb128 0x2
 13041 323a 74       		.byte	0x74
 13042 323b 00       		.sleb128 0
 13043 323c 1B       		.uleb128 0x1b
 13044 323d 01       		.uleb128 0x1
 13045 323e 51       		.byte	0x51
 13046 323f 05       		.uleb128 0x5
 13047 3240 03       		.byte	0x3
 13048 3241 9C030000 		.4byte	.LC49
 13049 3245 00       		.byte	0
 13050 3246 1C       		.uleb128 0x1c
 13051 3247 94060000 		.4byte	.LVL845
 13052 324b 8B360000 		.4byte	0x368b
 13053 324f 63320000 		.4byte	0x3263
 13054 3253 1B       		.uleb128 0x1b
 13055 3254 01       		.uleb128 0x1
 13056 3255 50       		.byte	0x50
 13057 3256 02       		.uleb128 0x2
 13058 3257 74       		.byte	0x74
 13059 3258 00       		.sleb128 0
 13060 3259 1B       		.uleb128 0x1b
 13061 325a 01       		.uleb128 0x1
 13062 325b 51       		.byte	0x51
 13063 325c 05       		.uleb128 0x5
 13064 325d 03       		.byte	0x3
 13065 325e C4030000 		.4byte	.LC51
 13066 3262 00       		.byte	0
 13067 3263 1C       		.uleb128 0x1c
 13068 3264 28070000 		.4byte	.LVL856
 13069 3268 8B360000 		.4byte	0x368b
 13070 326c 80320000 		.4byte	0x3280
 13071 3270 1B       		.uleb128 0x1b
 13072 3271 01       		.uleb128 0x1
 13073 3272 50       		.byte	0x50
 13074 3273 02       		.uleb128 0x2
 13075 3274 74       		.byte	0x74
 13076 3275 00       		.sleb128 0
 13077 3276 1B       		.uleb128 0x1b
 13078 3277 01       		.uleb128 0x1
 13079 3278 51       		.byte	0x51
 13080 3279 05       		.uleb128 0x5
 13081 327a 03       		.byte	0x3
 13082 327b FC030000 		.4byte	.LC53
 13083 327f 00       		.byte	0
 13084 3280 12       		.uleb128 0x12
 13085 3281 30070000 		.4byte	.LVL857
 13086 3285 E2090000 		.4byte	0x9e2
ARM GAS  C:\Users\FRANKL~1\AppData\Local\Temp\ccba5qpo.s 			page 267


 13087 3289 1C       		.uleb128 0x1c
 13088 328a 50070000 		.4byte	.LVL859
 13089 328e E3360000 		.4byte	0x36e3
 13090 3292 9D320000 		.4byte	0x329d
 13091 3296 1B       		.uleb128 0x1b
 13092 3297 01       		.uleb128 0x1
 13093 3298 50       		.byte	0x50
 13094 3299 02       		.uleb128 0x2
 13095 329a 75       		.byte	0x75
 13096 329b 00       		.sleb128 0
 13097 329c 00       		.byte	0
 13098 329d 1C       		.uleb128 0x1c
 13099 329e 58070000 		.4byte	.LVL860
 13100 32a2 D1030000 		.4byte	0x3d1
 13101 32a6 B1320000 		.4byte	0x32b1
 13102 32aa 1B       		.uleb128 0x1b
 13103 32ab 01       		.uleb128 0x1
 13104 32ac 50       		.byte	0x50
 13105 32ad 02       		.uleb128 0x2
 13106 32ae 75       		.byte	0x75
 13107 32af 00       		.sleb128 0
 13108 32b0 00       		.byte	0
 13109 32b1 1C       		.uleb128 0x1c
 13110 32b2 5E070000 		.4byte	.LVL861
 13111 32b6 F9360000 		.4byte	0x36f9
 13112 32ba C5320000 		.4byte	0x32c5
 13113 32be 1B       		.uleb128 0x1b
 13114 32bf 01       		.uleb128 0x1
 13115 32c0 50       		.byte	0x50
 13116 32c1 02       		.uleb128 0x2
 13117 32c2 75       		.byte	0x75
 13118 32c3 00       		.sleb128 0
 13119 32c4 00       		.byte	0
 13120 32c5 1C       		.uleb128 0x1c
 13121 32c6 68070000 		.4byte	.LVL863
 13122 32ca 8B360000 		.4byte	0x368b
 13123 32ce E2320000 		.4byte	0x32e2
 13124 32d2 1B       		.uleb128 0x1b
 13125 32d3 01       		.uleb128 0x1
 13126 32d4 50       		.byte	0x50
 13127 32d5 02       		.uleb128 0x2
 13128 32d6 74       		.byte	0x74
 13129 32d7 00       		.sleb128 0
 13130 32d8 1B       		.uleb128 0x1b
 13131 32d9 01       		.uleb128 0x1
 13132 32da 51       		.byte	0x51
 13133 32db 05       		.uleb128 0x5
 13134 32dc 03       		.byte	0x3
 13135 32dd 38040000 		.4byte	.LC55
 13136 32e1 00       		.byte	0
 13137 32e2 1C       		.uleb128 0x1c
 13138 32e3 B2070000 		.4byte	.LVL874
 13139 32e7 8B360000 		.4byte	0x368b
 13140 32eb FF320000 		.4byte	0x32ff
 13141 32ef 1B       		.uleb128 0x1b
 13142 32f0 01       		.uleb128 0x1
 13143 32f1 50       		.byte	0x50
ARM GAS  C:\Users\FRANKL~1\AppData\Local\Temp\ccba5qpo.s 			page 268


 13144 32f2 02       		.uleb128 0x2
 13145 32f3 74       		.byte	0x74
 13146 32f4 00       		.sleb128 0
 13147 32f5 1B       		.uleb128 0x1b
 13148 32f6 01       		.uleb128 0x1
 13149 32f7 51       		.byte	0x51
 13150 32f8 05       		.uleb128 0x5
 13151 32f9 03       		.byte	0x3
 13152 32fa 70040000 		.4byte	.LC57
 13153 32fe 00       		.byte	0
 13154 32ff 1C       		.uleb128 0x1c
 13155 3300 FC070000 		.4byte	.LVL885
 13156 3304 8B360000 		.4byte	0x368b
 13157 3308 1C330000 		.4byte	0x331c
 13158 330c 1B       		.uleb128 0x1b
 13159 330d 01       		.uleb128 0x1
 13160 330e 50       		.byte	0x50
 13161 330f 02       		.uleb128 0x2
 13162 3310 74       		.byte	0x74
 13163 3311 00       		.sleb128 0
 13164 3312 1B       		.uleb128 0x1b
 13165 3313 01       		.uleb128 0x1
 13166 3314 51       		.byte	0x51
 13167 3315 05       		.uleb128 0x5
 13168 3316 03       		.byte	0x3
 13169 3317 A8040000 		.4byte	.LC59
 13170 331b 00       		.byte	0
 13171 331c 12       		.uleb128 0x12
 13172 331d 04080000 		.4byte	.LVL886
 13173 3321 0A0B0000 		.4byte	0xb0a
 13174 3325 1C       		.uleb128 0x1c
 13175 3326 20080000 		.4byte	.LVL888
 13176 332a E3360000 		.4byte	0x36e3
 13177 332e 39330000 		.4byte	0x3339
 13178 3332 1B       		.uleb128 0x1b
 13179 3333 01       		.uleb128 0x1
 13180 3334 50       		.byte	0x50
 13181 3335 02       		.uleb128 0x2
 13182 3336 75       		.byte	0x75
 13183 3337 00       		.sleb128 0
 13184 3338 00       		.byte	0
 13185 3339 1C       		.uleb128 0x1c
 13186 333a 28080000 		.4byte	.LVL889
 13187 333e D1030000 		.4byte	0x3d1
 13188 3342 4D330000 		.4byte	0x334d
 13189 3346 1B       		.uleb128 0x1b
 13190 3347 01       		.uleb128 0x1
 13191 3348 50       		.byte	0x50
 13192 3349 02       		.uleb128 0x2
 13193 334a 75       		.byte	0x75
 13194 334b 00       		.sleb128 0
 13195 334c 00       		.byte	0
 13196 334d 1C       		.uleb128 0x1c
 13197 334e 2E080000 		.4byte	.LVL890
 13198 3352 F9360000 		.4byte	0x36f9
 13199 3356 61330000 		.4byte	0x3361
 13200 335a 1B       		.uleb128 0x1b
ARM GAS  C:\Users\FRANKL~1\AppData\Local\Temp\ccba5qpo.s 			page 269


 13201 335b 01       		.uleb128 0x1
 13202 335c 50       		.byte	0x50
 13203 335d 02       		.uleb128 0x2
 13204 335e 75       		.byte	0x75
 13205 335f 00       		.sleb128 0
 13206 3360 00       		.byte	0
 13207 3361 1C       		.uleb128 0x1c
 13208 3362 38080000 		.4byte	.LVL892
 13209 3366 8B360000 		.4byte	0x368b
 13210 336a 7E330000 		.4byte	0x337e
 13211 336e 1B       		.uleb128 0x1b
 13212 336f 01       		.uleb128 0x1
 13213 3370 50       		.byte	0x50
 13214 3371 02       		.uleb128 0x2
 13215 3372 74       		.byte	0x74
 13216 3373 00       		.sleb128 0
 13217 3374 1B       		.uleb128 0x1b
 13218 3375 01       		.uleb128 0x1
 13219 3376 51       		.byte	0x51
 13220 3377 05       		.uleb128 0x5
 13221 3378 03       		.byte	0x3
 13222 3379 DC040000 		.4byte	.LC61
 13223 337d 00       		.byte	0
 13224 337e 1C       		.uleb128 0x1c
 13225 337f A0080000 		.4byte	.LVL901
 13226 3383 1A370000 		.4byte	0x371a
 13227 3387 A1330000 		.4byte	0x33a1
 13228 338b 1B       		.uleb128 0x1b
 13229 338c 01       		.uleb128 0x1
 13230 338d 50       		.byte	0x50
 13231 338e 02       		.uleb128 0x2
 13232 338f 75       		.byte	0x75
 13233 3390 00       		.sleb128 0
 13234 3391 1B       		.uleb128 0x1b
 13235 3392 01       		.uleb128 0x1
 13236 3393 51       		.byte	0x51
 13237 3394 05       		.uleb128 0x5
 13238 3395 03       		.byte	0x3
 13239 3396 30050000 		.4byte	.LC63
 13240 339a 1B       		.uleb128 0x1b
 13241 339b 01       		.uleb128 0x1
 13242 339c 52       		.byte	0x52
 13243 339d 02       		.uleb128 0x2
 13244 339e 74       		.byte	0x74
 13245 339f 00       		.sleb128 0
 13246 33a0 00       		.byte	0
 13247 33a1 1C       		.uleb128 0x1c
 13248 33a2 A6080000 		.4byte	.LVL902
 13249 33a6 E3360000 		.4byte	0x36e3
 13250 33aa B5330000 		.4byte	0x33b5
 13251 33ae 1B       		.uleb128 0x1b
 13252 33af 01       		.uleb128 0x1
 13253 33b0 50       		.byte	0x50
 13254 33b1 02       		.uleb128 0x2
 13255 33b2 75       		.byte	0x75
 13256 33b3 00       		.sleb128 0
 13257 33b4 00       		.byte	0
ARM GAS  C:\Users\FRANKL~1\AppData\Local\Temp\ccba5qpo.s 			page 270


 13258 33b5 1C       		.uleb128 0x1c
 13259 33b6 AE080000 		.4byte	.LVL903
 13260 33ba D1030000 		.4byte	0x3d1
 13261 33be C9330000 		.4byte	0x33c9
 13262 33c2 1B       		.uleb128 0x1b
 13263 33c3 01       		.uleb128 0x1
 13264 33c4 50       		.byte	0x50
 13265 33c5 02       		.uleb128 0x2
 13266 33c6 75       		.byte	0x75
 13267 33c7 00       		.sleb128 0
 13268 33c8 00       		.byte	0
 13269 33c9 1A       		.uleb128 0x1a
 13270 33ca B4080000 		.4byte	.LVL904
 13271 33ce F9360000 		.4byte	0x36f9
 13272 33d2 1B       		.uleb128 0x1b
 13273 33d3 01       		.uleb128 0x1
 13274 33d4 50       		.byte	0x50
 13275 33d5 02       		.uleb128 0x2
 13276 33d6 75       		.byte	0x75
 13277 33d7 00       		.sleb128 0
 13278 33d8 00       		.byte	0
 13279 33d9 00       		.byte	0
 13280 33da 12       		.uleb128 0x12
 13281 33db 0A000000 		.4byte	.LVL666
 13282 33df 5E080000 		.4byte	0x85e
 13283 33e3 1C       		.uleb128 0x1c
 13284 33e4 12000000 		.4byte	.LVL667
 13285 33e8 10380000 		.4byte	0x3810
 13286 33ec FB330000 		.4byte	0x33fb
 13287 33f0 1B       		.uleb128 0x1b
 13288 33f1 01       		.uleb128 0x1
 13289 33f2 50       		.byte	0x50
 13290 33f3 01       		.uleb128 0x1
 13291 33f4 30       		.byte	0x30
 13292 33f5 1B       		.uleb128 0x1b
 13293 33f6 01       		.uleb128 0x1
 13294 33f7 51       		.byte	0x51
 13295 33f8 01       		.uleb128 0x1
 13296 33f9 31       		.byte	0x31
 13297 33fa 00       		.byte	0
 13298 33fb 12       		.uleb128 0x12
 13299 33fc 16000000 		.4byte	.LVL668
 13300 3400 1C380000 		.4byte	0x381c
 13301 3404 12       		.uleb128 0x12
 13302 3405 1A000000 		.4byte	.LVL669
 13303 3409 27380000 		.4byte	0x3827
 13304 340d 12       		.uleb128 0x12
 13305 340e 1E000000 		.4byte	.LVL670
 13306 3412 32380000 		.4byte	0x3832
 13307 3416 12       		.uleb128 0x12
 13308 3417 22000000 		.4byte	.LVL671
 13309 341b 3D380000 		.4byte	0x383d
 13310 341f 12       		.uleb128 0x12
 13311 3420 26000000 		.4byte	.LVL672
 13312 3424 48380000 		.4byte	0x3848
 13313 3428 12       		.uleb128 0x12
 13314 3429 2A000000 		.4byte	.LVL673
ARM GAS  C:\Users\FRANKL~1\AppData\Local\Temp\ccba5qpo.s 			page 271


 13315 342d 53380000 		.4byte	0x3853
 13316 3431 12       		.uleb128 0x12
 13317 3432 2E000000 		.4byte	.LVL674
 13318 3436 0F370000 		.4byte	0x370f
 13319 343a 12       		.uleb128 0x12
 13320 343b 32000000 		.4byte	.LVL675
 13321 343f 5E380000 		.4byte	0x385e
 13322 3443 12       		.uleb128 0x12
 13323 3444 36000000 		.4byte	.LVL676
 13324 3448 69380000 		.4byte	0x3869
 13325 344c 1C       		.uleb128 0x1c
 13326 344d 3E000000 		.4byte	.LVL677
 13327 3451 74380000 		.4byte	0x3874
 13328 3455 61340000 		.4byte	0x3461
 13329 3459 1B       		.uleb128 0x1b
 13330 345a 01       		.uleb128 0x1
 13331 345b 50       		.byte	0x50
 13332 345c 03       		.uleb128 0x3
 13333 345d 0A       		.byte	0xa
 13334 345e E803     		.2byte	0x3e8
 13335 3460 00       		.byte	0
 13336 3461 1C       		.uleb128 0x1c
 13337 3462 44000000 		.4byte	.LVL678
 13338 3466 F9360000 		.4byte	0x36f9
 13339 346a 78340000 		.4byte	0x3478
 13340 346e 1B       		.uleb128 0x1b
 13341 346f 01       		.uleb128 0x1
 13342 3470 50       		.byte	0x50
 13343 3471 05       		.uleb128 0x5
 13344 3472 03       		.byte	0x3
 13345 3473 FC000000 		.4byte	.LC15
 13346 3477 00       		.byte	0
 13347 3478 12       		.uleb128 0x12
 13348 3479 48000000 		.4byte	.LVL679
 13349 347d 0A0B0000 		.4byte	0xb0a
 13350 3481 12       		.uleb128 0x12
 13351 3482 5A000000 		.4byte	.LVL680
 13352 3486 7F380000 		.4byte	0x387f
 13353 348a 1C       		.uleb128 0x1c
 13354 348b 60000000 		.4byte	.LVL681
 13355 348f 8A380000 		.4byte	0x388a
 13356 3493 A1340000 		.4byte	0x34a1
 13357 3497 1B       		.uleb128 0x1b
 13358 3498 01       		.uleb128 0x1
 13359 3499 50       		.byte	0x50
 13360 349a 05       		.uleb128 0x5
 13361 349b 03       		.byte	0x3
 13362 349c 00000000 		.4byte	CommunicationHandlerISR
 13363 34a0 00       		.byte	0
 13364 34a1 1C       		.uleb128 0x1c
 13365 34a2 6E000000 		.4byte	.LVL682
 13366 34a6 8A160000 		.4byte	0x168a
 13367 34aa B6340000 		.4byte	0x34b6
 13368 34ae 1B       		.uleb128 0x1b
 13369 34af 01       		.uleb128 0x1
 13370 34b0 50       		.byte	0x50
 13371 34b1 03       		.uleb128 0x3
ARM GAS  C:\Users\FRANKL~1\AppData\Local\Temp\ccba5qpo.s 			page 272


 13372 34b2 0A       		.byte	0xa
 13373 34b3 2C01     		.2byte	0x12c
 13374 34b5 00       		.byte	0
 13375 34b6 12       		.uleb128 0x12
 13376 34b7 76000000 		.4byte	.LVL683
 13377 34bb 470B0000 		.4byte	0xb47
 13378 34bf 00       		.byte	0
 13379 34c0 2E       		.uleb128 0x2e
 13380 34c1 2F070000 		.4byte	.LASF177
 13381 34c5 06       		.byte	0x6
 13382 34c6 1207     		.2byte	0x712
 13383 34c8 CC340000 		.4byte	0x34cc
 13384 34cc 08       		.uleb128 0x8
 13385 34cd AA000000 		.4byte	0xaa
 13386 34d1 09       		.uleb128 0x9
 13387 34d2 70010000 		.4byte	0x170
 13388 34d6 E1340000 		.4byte	0x34e1
 13389 34da 0A       		.uleb128 0xa
 13390 34db 8B000000 		.4byte	0x8b
 13391 34df 03       		.byte	0x3
 13392 34e0 00       		.byte	0
 13393 34e1 2F       		.uleb128 0x2f
 13394 34e2 65070000 		.4byte	.LASF178
 13395 34e6 02       		.byte	0x2
 13396 34e7 1D       		.byte	0x1d
 13397 34e8 D1340000 		.4byte	0x34d1
 13398 34ec 05       		.uleb128 0x5
 13399 34ed 03       		.byte	0x3
 13400 34ee 00000000 		.4byte	selectors
 13401 34f2 2F       		.uleb128 0x2f
 13402 34f3 280A0000 		.4byte	.LASF179
 13403 34f7 02       		.byte	0x2
 13404 34f8 1E       		.byte	0x1e
 13405 34f9 C1030000 		.4byte	0x3c1
 13406 34fd 05       		.uleb128 0x5
 13407 34fe 03       		.byte	0x3
 13408 34ff 00000000 		.4byte	TransmitBuffer
 13409 3503 2F       		.uleb128 0x2f
 13410 3504 10050000 		.4byte	.LASF180
 13411 3508 02       		.byte	0x2
 13412 3509 20       		.byte	0x20
 13413 350a 09010000 		.4byte	0x109
 13414 350e 05       		.uleb128 0x5
 13415 350f 03       		.byte	0x3
 13416 3510 00000000 		.4byte	newData
 13417 3514 2F       		.uleb128 0x2f
 13418 3515 C40B0000 		.4byte	.LASF181
 13419 3519 02       		.byte	0x2
 13420 351a 21       		.byte	0x21
 13421 351b 09010000 		.4byte	0x109
 13422 351f 05       		.uleb128 0x5
 13423 3520 03       		.byte	0x3
 13424 3521 00000000 		.4byte	G_Stop
 13425 3525 2F       		.uleb128 0x2f
 13426 3526 18010000 		.4byte	.LASF182
 13427 352a 02       		.byte	0x2
 13428 352b 22       		.byte	0x22
ARM GAS  C:\Users\FRANKL~1\AppData\Local\Temp\ccba5qpo.s 			page 273


 13429 352c 09010000 		.4byte	0x109
 13430 3530 05       		.uleb128 0x5
 13431 3531 03       		.byte	0x3
 13432 3532 00000000 		.4byte	G_Break
 13433 3536 2F       		.uleb128 0x2f
 13434 3537 780C0000 		.4byte	.LASF183
 13435 353b 02       		.byte	0x2
 13436 353c 23       		.byte	0x23
 13437 353d 09010000 		.4byte	0x109
 13438 3541 05       		.uleb128 0x5
 13439 3542 03       		.byte	0x3
 13440 3543 00000000 		.4byte	G_Pause
 13441 3547 09       		.uleb128 0x9
 13442 3548 57350000 		.4byte	0x3557
 13443 354c 57350000 		.4byte	0x3557
 13444 3550 0A       		.uleb128 0xa
 13445 3551 8B000000 		.4byte	0x8b
 13446 3555 3F       		.byte	0x3f
 13447 3556 00       		.byte	0
 13448 3557 08       		.uleb128 0x8
 13449 3558 98000000 		.4byte	0x98
 13450 355c 2F       		.uleb128 0x2f
 13451 355d 7F0A0000 		.4byte	.LASF184
 13452 3561 02       		.byte	0x2
 13453 3562 25       		.byte	0x25
 13454 3563 6D350000 		.4byte	0x356d
 13455 3567 05       		.uleb128 0x5
 13456 3568 03       		.byte	0x3
 13457 3569 00000000 		.4byte	UART_Receive_Buffer
 13458 356d 08       		.uleb128 0x8
 13459 356e 47350000 		.4byte	0x3547
 13460 3572 2F       		.uleb128 0x2f
 13461 3573 F0090000 		.4byte	.LASF185
 13462 3577 02       		.byte	0x2
 13463 3578 26       		.byte	0x26
 13464 3579 09010000 		.4byte	0x109
 13465 357d 05       		.uleb128 0x5
 13466 357e 03       		.byte	0x3
 13467 357f 00000000 		.4byte	UART_Rx_Position
 13468 3583 2F       		.uleb128 0x2f
 13469 3584 01010000 		.4byte	.LASF186
 13470 3588 02       		.byte	0x2
 13471 3589 28       		.byte	0x28
 13472 358a 94350000 		.4byte	0x3594
 13473 358e 05       		.uleb128 0x5
 13474 358f 03       		.byte	0x3
 13475 3590 00000000 		.4byte	USBUART_Receive_Buffer
 13476 3594 08       		.uleb128 0x8
 13477 3595 47350000 		.4byte	0x3547
 13478 3599 2F       		.uleb128 0x2f
 13479 359a C0090000 		.4byte	.LASF187
 13480 359e 02       		.byte	0x2
 13481 359f 29       		.byte	0x29
 13482 35a0 09010000 		.4byte	0x109
 13483 35a4 05       		.uleb128 0x5
 13484 35a5 03       		.byte	0x3
 13485 35a6 00000000 		.4byte	USBUART_Rx_Position
ARM GAS  C:\Users\FRANKL~1\AppData\Local\Temp\ccba5qpo.s 			page 274


 13486 35aa 2F       		.uleb128 0x2f
 13487 35ab 69050000 		.4byte	.LASF188
 13488 35af 02       		.byte	0x2
 13489 35b0 2C       		.byte	0x2c
 13490 35b1 B5000000 		.4byte	0xb5
 13491 35b5 05       		.uleb128 0x5
 13492 35b6 03       		.byte	0x3
 13493 35b7 00000000 		.4byte	TIA_Selected_Resistor
 13494 35bb 2F       		.uleb128 0x2f
 13495 35bc 4C090000 		.4byte	.LASF189
 13496 35c0 02       		.byte	0x2
 13497 35c1 2E       		.byte	0x2e
 13498 35c2 0E010000 		.4byte	0x10e
 13499 35c6 05       		.uleb128 0x5
 13500 35c7 03       		.byte	0x3
 13501 35c8 00000000 		.4byte	TIA_Resistor_Codes
 13502 35cc 09       		.uleb128 0x9
 13503 35cd 25000000 		.4byte	0x25
 13504 35d1 DC350000 		.4byte	0x35dc
 13505 35d5 0A       		.uleb128 0xa
 13506 35d6 8B000000 		.4byte	0x8b
 13507 35da 07       		.byte	0x7
 13508 35db 00       		.byte	0
 13509 35dc 2F       		.uleb128 0x2f
 13510 35dd E1000000 		.4byte	.LASF190
 13511 35e1 02       		.byte	0x2
 13512 35e2 2F       		.byte	0x2f
 13513 35e3 CC350000 		.4byte	0x35cc
 13514 35e7 05       		.uleb128 0x5
 13515 35e8 03       		.byte	0x3
 13516 35e9 00000000 		.4byte	TIA_Resistor_Values
 13517 35ed 09       		.uleb128 0x9
 13518 35ee F1000000 		.4byte	0xf1
 13519 35f2 FD350000 		.4byte	0x35fd
 13520 35f6 0A       		.uleb128 0xa
 13521 35f7 8B000000 		.4byte	0x8b
 13522 35fb 07       		.byte	0x7
 13523 35fc 00       		.byte	0
 13524 35fd 2F       		.uleb128 0x2f
 13525 35fe 930A0000 		.4byte	.LASF191
 13526 3602 02       		.byte	0x2
 13527 3603 30       		.byte	0x30
 13528 3604 ED350000 		.4byte	0x35ed
 13529 3608 05       		.uleb128 0x5
 13530 3609 03       		.byte	0x3
 13531 360a 00000000 		.4byte	TIA_Offsets_uV
 13532 360e 2F       		.uleb128 0x2f
 13533 360f 46070000 		.4byte	.LASF192
 13534 3613 02       		.byte	0x2
 13535 3614 32       		.byte	0x32
 13536 3615 B5000000 		.4byte	0xb5
 13537 3619 05       		.uleb128 0x5
 13538 361a 03       		.byte	0x3
 13539 361b 00000000 		.4byte	Compliance_Reached
 13540 361f 2F       		.uleb128 0x2f
 13541 3620 010A0000 		.4byte	.LASF193
 13542 3624 02       		.byte	0x2
ARM GAS  C:\Users\FRANKL~1\AppData\Local\Temp\ccba5qpo.s 			page 275


 13543 3625 33       		.byte	0x33
 13544 3626 E5000000 		.4byte	0xe5
 13545 362a 05       		.uleb128 0x5
 13546 362b 03       		.byte	0x3
 13547 362c 00000000 		.4byte	Vgs_Index_Goal_Relative
 13548 3630 2F       		.uleb128 0x2f
 13549 3631 EC050000 		.4byte	.LASF194
 13550 3635 02       		.byte	0x2
 13551 3636 34       		.byte	0x34
 13552 3637 E5000000 		.4byte	0xe5
 13553 363b 05       		.uleb128 0x5
 13554 363c 03       		.byte	0x3
 13555 363d 00000000 		.4byte	Vds_Index_Goal_Relative
 13556 3641 2F       		.uleb128 0x2f
 13557 3642 4A010000 		.4byte	.LASF195
 13558 3646 02       		.byte	0x2
 13559 3647 36       		.byte	0x36
 13560 3648 CD000000 		.4byte	0xcd
 13561 364c 05       		.uleb128 0x5
 13562 364d 03       		.byte	0x3
 13563 364e 00000000 		.4byte	Current_Measurement_Sample_Count
 13564 3652 30       		.uleb128 0x30
 13565 3653 000D0000 		.4byte	.LASF196
 13566 3657 000D0000 		.4byte	.LASF196
 13567 365b 07       		.byte	0x7
 13568 365c 2E01     		.2byte	0x12e
 13569 365e 30       		.uleb128 0x30
 13570 365f 1E0B0000 		.4byte	.LASF197
 13571 3663 1E0B0000 		.4byte	.LASF197
 13572 3667 07       		.byte	0x7
 13573 3668 2D01     		.2byte	0x12d
 13574 366a 31       		.uleb128 0x31
 13575 366b D4090000 		.4byte	.LASF198
 13576 366f D4090000 		.4byte	.LASF198
 13577 3673 08       		.byte	0x8
 13578 3674 22       		.byte	0x22
 13579 3675 31       		.uleb128 0x31
 13580 3676 A20A0000 		.4byte	.LASF199
 13581 367a A20A0000 		.4byte	.LASF199
 13582 367e 08       		.byte	0x8
 13583 367f 29       		.byte	0x29
 13584 3680 31       		.uleb128 0x31
 13585 3681 54050000 		.4byte	.LASF200
 13586 3685 54050000 		.4byte	.LASF200
 13587 3689 08       		.byte	0x8
 13588 368a 2B       		.byte	0x2b
 13589 368b 31       		.uleb128 0x31
 13590 368c BD0B0000 		.4byte	.LASF201
 13591 3690 BD0B0000 		.4byte	.LASF201
 13592 3694 09       		.byte	0x9
 13593 3695 28       		.byte	0x28
 13594 3696 31       		.uleb128 0x31
 13595 3697 B30C0000 		.4byte	.LASF202
 13596 369b B30C0000 		.4byte	.LASF202
 13597 369f 0A       		.byte	0xa
 13598 36a0 73       		.byte	0x73
 13599 36a1 31       		.uleb128 0x31
ARM GAS  C:\Users\FRANKL~1\AppData\Local\Temp\ccba5qpo.s 			page 276


 13600 36a2 1F0D0000 		.4byte	.LASF203
 13601 36a6 1F0D0000 		.4byte	.LASF203
 13602 36aa 0A       		.byte	0xa
 13603 36ab 71       		.byte	0x71
 13604 36ac 31       		.uleb128 0x31
 13605 36ad EB0D0000 		.4byte	.LASF204
 13606 36b1 EB0D0000 		.4byte	.LASF204
 13607 36b5 0B       		.byte	0xb
 13608 36b6 28       		.byte	0x28
 13609 36b7 31       		.uleb128 0x31
 13610 36b8 7B080000 		.4byte	.LASF205
 13611 36bc 7B080000 		.4byte	.LASF205
 13612 36c0 0C       		.byte	0xc
 13613 36c1 5E       		.byte	0x5e
 13614 36c2 31       		.uleb128 0x31
 13615 36c3 7A040000 		.4byte	.LASF206
 13616 36c7 7A040000 		.4byte	.LASF206
 13617 36cb 08       		.byte	0x8
 13618 36cc 28       		.byte	0x28
 13619 36cd 31       		.uleb128 0x31
 13620 36ce 5F090000 		.4byte	.LASF207
 13621 36d2 5F090000 		.4byte	.LASF207
 13622 36d6 08       		.byte	0x8
 13623 36d7 23       		.byte	0x23
 13624 36d8 31       		.uleb128 0x31
 13625 36d9 4E0D0000 		.4byte	.LASF208
 13626 36dd 4E0D0000 		.4byte	.LASF208
 13627 36e1 08       		.byte	0x8
 13628 36e2 2C       		.byte	0x2c
 13629 36e3 31       		.uleb128 0x31
 13630 36e4 8F0D0000 		.4byte	.LASF209
 13631 36e8 8F0D0000 		.4byte	.LASF209
 13632 36ec 09       		.byte	0x9
 13633 36ed 21       		.byte	0x21
 13634 36ee 31       		.uleb128 0x31
 13635 36ef F5030000 		.4byte	.LASF210
 13636 36f3 F5030000 		.4byte	.LASF210
 13637 36f7 0D       		.byte	0xd
 13638 36f8 A3       		.byte	0xa3
 13639 36f9 31       		.uleb128 0x31
 13640 36fa AF090000 		.4byte	.LASF211
 13641 36fe AF090000 		.4byte	.LASF211
 13642 3702 0A       		.byte	0xa
 13643 3703 8B       		.byte	0x8b
 13644 3704 31       		.uleb128 0x31
 13645 3705 6B010000 		.4byte	.LASF212
 13646 3709 6B010000 		.4byte	.LASF212
 13647 370d 0D       		.byte	0xd
 13648 370e 94       		.byte	0x94
 13649 370f 31       		.uleb128 0x31
 13650 3710 F5000000 		.4byte	.LASF213
 13651 3714 F5000000 		.4byte	.LASF213
 13652 3718 0D       		.byte	0xd
 13653 3719 93       		.byte	0x93
 13654 371a 31       		.uleb128 0x31
 13655 371b 04060000 		.4byte	.LASF214
 13656 371f 04060000 		.4byte	.LASF214
ARM GAS  C:\Users\FRANKL~1\AppData\Local\Temp\ccba5qpo.s 			page 277


 13657 3723 0E       		.byte	0xe
 13658 3724 E7       		.byte	0xe7
 13659 3725 31       		.uleb128 0x31
 13660 3726 540C0000 		.4byte	.LASF215
 13661 372a 540C0000 		.4byte	.LASF215
 13662 372e 0D       		.byte	0xd
 13663 372f A4       		.byte	0xa4
 13664 3730 31       		.uleb128 0x31
 13665 3731 720D0000 		.4byte	.LASF216
 13666 3735 720D0000 		.4byte	.LASF216
 13667 3739 0D       		.byte	0xd
 13668 373a A7       		.byte	0xa7
 13669 373b 31       		.uleb128 0x31
 13670 373c C40E0000 		.4byte	.LASF217
 13671 3740 C40E0000 		.4byte	.LASF217
 13672 3744 0F       		.byte	0xf
 13673 3745 40       		.byte	0x40
 13674 3746 31       		.uleb128 0x31
 13675 3747 38000000 		.4byte	.LASF218
 13676 374b 38000000 		.4byte	.LASF218
 13677 374f 10       		.byte	0x10
 13678 3750 3D       		.byte	0x3d
 13679 3751 31       		.uleb128 0x31
 13680 3752 45080000 		.4byte	.LASF219
 13681 3756 45080000 		.4byte	.LASF219
 13682 375a 10       		.byte	0x10
 13683 375b 3F       		.byte	0x3f
 13684 375c 31       		.uleb128 0x31
 13685 375d 5D060000 		.4byte	.LASF220
 13686 3761 5D060000 		.4byte	.LASF220
 13687 3765 10       		.byte	0x10
 13688 3766 42       		.byte	0x42
 13689 3767 31       		.uleb128 0x31
 13690 3768 EC040000 		.4byte	.LASF221
 13691 376c EC040000 		.4byte	.LASF221
 13692 3770 10       		.byte	0x10
 13693 3771 48       		.byte	0x48
 13694 3772 31       		.uleb128 0x31
 13695 3773 73030000 		.4byte	.LASF222
 13696 3777 73030000 		.4byte	.LASF222
 13697 377b 11       		.byte	0x11
 13698 377c D1       		.byte	0xd1
 13699 377d 31       		.uleb128 0x31
 13700 377e C7070000 		.4byte	.LASF223
 13701 3782 C7070000 		.4byte	.LASF223
 13702 3786 11       		.byte	0x11
 13703 3787 39       		.byte	0x39
 13704 3788 31       		.uleb128 0x31
 13705 3789 23030000 		.4byte	.LASF224
 13706 378d 23030000 		.4byte	.LASF224
 13707 3791 11       		.byte	0x11
 13708 3792 3B       		.byte	0x3b
 13709 3793 31       		.uleb128 0x31
 13710 3794 A9040000 		.4byte	.LASF225
 13711 3798 A9040000 		.4byte	.LASF225
 13712 379c 11       		.byte	0x11
 13713 379d 40       		.byte	0x40
ARM GAS  C:\Users\FRANKL~1\AppData\Local\Temp\ccba5qpo.s 			page 278


 13714 379e 31       		.uleb128 0x31
 13715 379f F20E0000 		.4byte	.LASF226
 13716 37a3 F20E0000 		.4byte	.LASF226
 13717 37a7 12       		.byte	0x12
 13718 37a8 D1       		.byte	0xd1
 13719 37a9 31       		.uleb128 0x31
 13720 37aa 07070000 		.4byte	.LASF227
 13721 37ae 07070000 		.4byte	.LASF227
 13722 37b2 12       		.byte	0x12
 13723 37b3 39       		.byte	0x39
 13724 37b4 31       		.uleb128 0x31
 13725 37b5 36090000 		.4byte	.LASF228
 13726 37b9 36090000 		.4byte	.LASF228
 13727 37bd 12       		.byte	0x12
 13728 37be 3B       		.byte	0x3b
 13729 37bf 31       		.uleb128 0x31
 13730 37c0 49040000 		.4byte	.LASF229
 13731 37c4 49040000 		.4byte	.LASF229
 13732 37c8 12       		.byte	0x12
 13733 37c9 40       		.byte	0x40
 13734 37ca 31       		.uleb128 0x31
 13735 37cb 54020000 		.4byte	.LASF230
 13736 37cf 54020000 		.4byte	.LASF230
 13737 37d3 13       		.byte	0x13
 13738 37d4 37       		.byte	0x37
 13739 37d5 31       		.uleb128 0x31
 13740 37d6 AF050000 		.4byte	.LASF231
 13741 37da AF050000 		.4byte	.LASF231
 13742 37de 14       		.byte	0x14
 13743 37df 37       		.byte	0x37
 13744 37e0 31       		.uleb128 0x31
 13745 37e1 000B0000 		.4byte	.LASF232
 13746 37e5 000B0000 		.4byte	.LASF232
 13747 37e9 15       		.byte	0x15
 13748 37ea 37       		.byte	0x37
 13749 37eb 32       		.uleb128 0x32
 13750 37ec 43020000 		.4byte	.LASF253
 13751 37f0 AE0E0000 		.4byte	.LASF254
 13752 37f4 18       		.byte	0x18
 13753 37f5 00       		.byte	0
 13754 37f6 43020000 		.4byte	.LASF253
 13755 37fa 31       		.uleb128 0x31
 13756 37fb 800C0000 		.4byte	.LASF233
 13757 37ff 800C0000 		.4byte	.LASF233
 13758 3803 16       		.byte	0x16
 13759 3804 A2       		.byte	0xa2
 13760 3805 31       		.uleb128 0x31
 13761 3806 D0060000 		.4byte	.LASF234
 13762 380a D0060000 		.4byte	.LASF234
 13763 380e 0E       		.byte	0xe
 13764 380f BF       		.byte	0xbf
 13765 3810 30       		.uleb128 0x30
 13766 3811 25050000 		.4byte	.LASF235
 13767 3815 25050000 		.4byte	.LASF235
 13768 3819 07       		.byte	0x7
 13769 381a 2A01     		.2byte	0x12a
 13770 381c 31       		.uleb128 0x31
ARM GAS  C:\Users\FRANKL~1\AppData\Local\Temp\ccba5qpo.s 			page 279


 13771 381d 22020000 		.4byte	.LASF236
 13772 3821 22020000 		.4byte	.LASF236
 13773 3825 0A       		.byte	0xa
 13774 3826 54       		.byte	0x54
 13775 3827 31       		.uleb128 0x31
 13776 3828 170F0000 		.4byte	.LASF237
 13777 382c 170F0000 		.4byte	.LASF237
 13778 3830 13       		.byte	0x13
 13779 3831 33       		.byte	0x33
 13780 3832 31       		.uleb128 0x31
 13781 3833 92090000 		.4byte	.LASF238
 13782 3837 92090000 		.4byte	.LASF238
 13783 383b 14       		.byte	0x14
 13784 383c 33       		.byte	0x33
 13785 383d 31       		.uleb128 0x31
 13786 383e D7060000 		.4byte	.LASF239
 13787 3842 D7060000 		.4byte	.LASF239
 13788 3846 15       		.byte	0x15
 13789 3847 33       		.byte	0x33
 13790 3848 31       		.uleb128 0x31
 13791 3849 D30E0000 		.4byte	.LASF240
 13792 384d D30E0000 		.4byte	.LASF240
 13793 3851 10       		.byte	0x10
 13794 3852 3A       		.byte	0x3a
 13795 3853 31       		.uleb128 0x31
 13796 3854 F0080000 		.4byte	.LASF241
 13797 3858 F0080000 		.4byte	.LASF241
 13798 385c 0F       		.byte	0xf
 13799 385d 3D       		.byte	0x3d
 13800 385e 31       		.uleb128 0x31
 13801 385f 93070000 		.4byte	.LASF242
 13802 3863 93070000 		.4byte	.LASF242
 13803 3867 11       		.byte	0x11
 13804 3868 34       		.byte	0x34
 13805 3869 31       		.uleb128 0x31
 13806 386a FC080000 		.4byte	.LASF243
 13807 386e FC080000 		.4byte	.LASF243
 13808 3872 12       		.byte	0x12
 13809 3873 34       		.byte	0x34
 13810 3874 31       		.uleb128 0x31
 13811 3875 0F0E0000 		.4byte	.LASF244
 13812 3879 0F0E0000 		.4byte	.LASF244
 13813 387d 17       		.byte	0x17
 13814 387e 76       		.byte	0x76
 13815 387f 31       		.uleb128 0x31
 13816 3880 62080000 		.4byte	.LASF245
 13817 3884 62080000 		.4byte	.LASF245
 13818 3888 0C       		.byte	0xc
 13819 3889 5A       		.byte	0x5a
 13820 388a 31       		.uleb128 0x31
 13821 388b EF010000 		.4byte	.LASF246
 13822 388f EF010000 		.4byte	.LASF246
 13823 3893 0B       		.byte	0xb
 13824 3894 18       		.byte	0x18
 13825 3895 00       		.byte	0
 13826              		.section	.debug_abbrev,"",%progbits
 13827              	.Ldebug_abbrev0:
ARM GAS  C:\Users\FRANKL~1\AppData\Local\Temp\ccba5qpo.s 			page 280


 13828 0000 01       		.uleb128 0x1
 13829 0001 11       		.uleb128 0x11
 13830 0002 01       		.byte	0x1
 13831 0003 25       		.uleb128 0x25
 13832 0004 0E       		.uleb128 0xe
 13833 0005 13       		.uleb128 0x13
 13834 0006 0B       		.uleb128 0xb
 13835 0007 03       		.uleb128 0x3
 13836 0008 0E       		.uleb128 0xe
 13837 0009 1B       		.uleb128 0x1b
 13838 000a 0E       		.uleb128 0xe
 13839 000b 55       		.uleb128 0x55
 13840 000c 17       		.uleb128 0x17
 13841 000d 11       		.uleb128 0x11
 13842 000e 01       		.uleb128 0x1
 13843 000f 10       		.uleb128 0x10
 13844 0010 17       		.uleb128 0x17
 13845 0011 00       		.byte	0
 13846 0012 00       		.byte	0
 13847 0013 02       		.uleb128 0x2
 13848 0014 24       		.uleb128 0x24
 13849 0015 00       		.byte	0
 13850 0016 0B       		.uleb128 0xb
 13851 0017 0B       		.uleb128 0xb
 13852 0018 3E       		.uleb128 0x3e
 13853 0019 0B       		.uleb128 0xb
 13854 001a 03       		.uleb128 0x3
 13855 001b 0E       		.uleb128 0xe
 13856 001c 00       		.byte	0
 13857 001d 00       		.byte	0
 13858 001e 03       		.uleb128 0x3
 13859 001f 24       		.uleb128 0x24
 13860 0020 00       		.byte	0
 13861 0021 0B       		.uleb128 0xb
 13862 0022 0B       		.uleb128 0xb
 13863 0023 3E       		.uleb128 0x3e
 13864 0024 0B       		.uleb128 0xb
 13865 0025 03       		.uleb128 0x3
 13866 0026 08       		.uleb128 0x8
 13867 0027 00       		.byte	0
 13868 0028 00       		.byte	0
 13869 0029 04       		.uleb128 0x4
 13870 002a 16       		.uleb128 0x16
 13871 002b 00       		.byte	0
 13872 002c 03       		.uleb128 0x3
 13873 002d 0E       		.uleb128 0xe
 13874 002e 3A       		.uleb128 0x3a
 13875 002f 0B       		.uleb128 0xb
 13876 0030 3B       		.uleb128 0x3b
 13877 0031 0B       		.uleb128 0xb
 13878 0032 49       		.uleb128 0x49
 13879 0033 13       		.uleb128 0x13
 13880 0034 00       		.byte	0
 13881 0035 00       		.byte	0
 13882 0036 05       		.uleb128 0x5
 13883 0037 0F       		.uleb128 0xf
 13884 0038 00       		.byte	0
ARM GAS  C:\Users\FRANKL~1\AppData\Local\Temp\ccba5qpo.s 			page 281


 13885 0039 0B       		.uleb128 0xb
 13886 003a 0B       		.uleb128 0xb
 13887 003b 49       		.uleb128 0x49
 13888 003c 13       		.uleb128 0x13
 13889 003d 00       		.byte	0
 13890 003e 00       		.byte	0
 13891 003f 06       		.uleb128 0x6
 13892 0040 26       		.uleb128 0x26
 13893 0041 00       		.byte	0
 13894 0042 49       		.uleb128 0x49
 13895 0043 13       		.uleb128 0x13
 13896 0044 00       		.byte	0
 13897 0045 00       		.byte	0
 13898 0046 07       		.uleb128 0x7
 13899 0047 16       		.uleb128 0x16
 13900 0048 00       		.byte	0
 13901 0049 03       		.uleb128 0x3
 13902 004a 0E       		.uleb128 0xe
 13903 004b 3A       		.uleb128 0x3a
 13904 004c 0B       		.uleb128 0xb
 13905 004d 3B       		.uleb128 0x3b
 13906 004e 05       		.uleb128 0x5
 13907 004f 49       		.uleb128 0x49
 13908 0050 13       		.uleb128 0x13
 13909 0051 00       		.byte	0
 13910 0052 00       		.byte	0
 13911 0053 08       		.uleb128 0x8
 13912 0054 35       		.uleb128 0x35
 13913 0055 00       		.byte	0
 13914 0056 49       		.uleb128 0x49
 13915 0057 13       		.uleb128 0x13
 13916 0058 00       		.byte	0
 13917 0059 00       		.byte	0
 13918 005a 09       		.uleb128 0x9
 13919 005b 01       		.uleb128 0x1
 13920 005c 01       		.byte	0x1
 13921 005d 49       		.uleb128 0x49
 13922 005e 13       		.uleb128 0x13
 13923 005f 01       		.uleb128 0x1
 13924 0060 13       		.uleb128 0x13
 13925 0061 00       		.byte	0
 13926 0062 00       		.byte	0
 13927 0063 0A       		.uleb128 0xa
 13928 0064 21       		.uleb128 0x21
 13929 0065 00       		.byte	0
 13930 0066 49       		.uleb128 0x49
 13931 0067 13       		.uleb128 0x13
 13932 0068 2F       		.uleb128 0x2f
 13933 0069 0B       		.uleb128 0xb
 13934 006a 00       		.byte	0
 13935 006b 00       		.byte	0
 13936 006c 0B       		.uleb128 0xb
 13937 006d 13       		.uleb128 0x13
 13938 006e 01       		.byte	0x1
 13939 006f 0B       		.uleb128 0xb
 13940 0070 0B       		.uleb128 0xb
 13941 0071 3A       		.uleb128 0x3a
ARM GAS  C:\Users\FRANKL~1\AppData\Local\Temp\ccba5qpo.s 			page 282


 13942 0072 0B       		.uleb128 0xb
 13943 0073 3B       		.uleb128 0x3b
 13944 0074 0B       		.uleb128 0xb
 13945 0075 01       		.uleb128 0x1
 13946 0076 13       		.uleb128 0x13
 13947 0077 00       		.byte	0
 13948 0078 00       		.byte	0
 13949 0079 0C       		.uleb128 0xc
 13950 007a 0D       		.uleb128 0xd
 13951 007b 00       		.byte	0
 13952 007c 03       		.uleb128 0x3
 13953 007d 0E       		.uleb128 0xe
 13954 007e 3A       		.uleb128 0x3a
 13955 007f 0B       		.uleb128 0xb
 13956 0080 3B       		.uleb128 0x3b
 13957 0081 0B       		.uleb128 0xb
 13958 0082 49       		.uleb128 0x49
 13959 0083 13       		.uleb128 0x13
 13960 0084 38       		.uleb128 0x38
 13961 0085 0B       		.uleb128 0xb
 13962 0086 00       		.byte	0
 13963 0087 00       		.byte	0
 13964 0088 0D       		.uleb128 0xd
 13965 0089 13       		.uleb128 0x13
 13966 008a 01       		.byte	0x1
 13967 008b 03       		.uleb128 0x3
 13968 008c 0E       		.uleb128 0xe
 13969 008d 0B       		.uleb128 0xb
 13970 008e 0B       		.uleb128 0xb
 13971 008f 3A       		.uleb128 0x3a
 13972 0090 0B       		.uleb128 0xb
 13973 0091 3B       		.uleb128 0x3b
 13974 0092 0B       		.uleb128 0xb
 13975 0093 01       		.uleb128 0x1
 13976 0094 13       		.uleb128 0x13
 13977 0095 00       		.byte	0
 13978 0096 00       		.byte	0
 13979 0097 0E       		.uleb128 0xe
 13980 0098 04       		.uleb128 0x4
 13981 0099 01       		.byte	0x1
 13982 009a 03       		.uleb128 0x3
 13983 009b 0E       		.uleb128 0xe
 13984 009c 0B       		.uleb128 0xb
 13985 009d 0B       		.uleb128 0xb
 13986 009e 49       		.uleb128 0x49
 13987 009f 13       		.uleb128 0x13
 13988 00a0 3A       		.uleb128 0x3a
 13989 00a1 0B       		.uleb128 0xb
 13990 00a2 3B       		.uleb128 0x3b
 13991 00a3 0B       		.uleb128 0xb
 13992 00a4 01       		.uleb128 0x1
 13993 00a5 13       		.uleb128 0x13
 13994 00a6 00       		.byte	0
 13995 00a7 00       		.byte	0
 13996 00a8 0F       		.uleb128 0xf
 13997 00a9 28       		.uleb128 0x28
 13998 00aa 00       		.byte	0
ARM GAS  C:\Users\FRANKL~1\AppData\Local\Temp\ccba5qpo.s 			page 283


 13999 00ab 03       		.uleb128 0x3
 14000 00ac 0E       		.uleb128 0xe
 14001 00ad 1C       		.uleb128 0x1c
 14002 00ae 0B       		.uleb128 0xb
 14003 00af 00       		.byte	0
 14004 00b0 00       		.byte	0
 14005 00b1 10       		.uleb128 0x10
 14006 00b2 2E       		.uleb128 0x2e
 14007 00b3 01       		.byte	0x1
 14008 00b4 3F       		.uleb128 0x3f
 14009 00b5 19       		.uleb128 0x19
 14010 00b6 03       		.uleb128 0x3
 14011 00b7 0E       		.uleb128 0xe
 14012 00b8 3A       		.uleb128 0x3a
 14013 00b9 0B       		.uleb128 0xb
 14014 00ba 3B       		.uleb128 0x3b
 14015 00bb 0B       		.uleb128 0xb
 14016 00bc 11       		.uleb128 0x11
 14017 00bd 01       		.uleb128 0x1
 14018 00be 12       		.uleb128 0x12
 14019 00bf 06       		.uleb128 0x6
 14020 00c0 40       		.uleb128 0x40
 14021 00c1 18       		.uleb128 0x18
 14022 00c2 9742     		.uleb128 0x2117
 14023 00c4 19       		.uleb128 0x19
 14024 00c5 01       		.uleb128 0x1
 14025 00c6 13       		.uleb128 0x13
 14026 00c7 00       		.byte	0
 14027 00c8 00       		.byte	0
 14028 00c9 11       		.uleb128 0x11
 14029 00ca 34       		.uleb128 0x34
 14030 00cb 00       		.byte	0
 14031 00cc 03       		.uleb128 0x3
 14032 00cd 0E       		.uleb128 0xe
 14033 00ce 3A       		.uleb128 0x3a
 14034 00cf 0B       		.uleb128 0xb
 14035 00d0 3B       		.uleb128 0x3b
 14036 00d1 0B       		.uleb128 0xb
 14037 00d2 49       		.uleb128 0x49
 14038 00d3 13       		.uleb128 0x13
 14039 00d4 02       		.uleb128 0x2
 14040 00d5 17       		.uleb128 0x17
 14041 00d6 00       		.byte	0
 14042 00d7 00       		.byte	0
 14043 00d8 12       		.uleb128 0x12
 14044 00d9 898201   		.uleb128 0x4109
 14045 00dc 00       		.byte	0
 14046 00dd 11       		.uleb128 0x11
 14047 00de 01       		.uleb128 0x1
 14048 00df 31       		.uleb128 0x31
 14049 00e0 13       		.uleb128 0x13
 14050 00e1 00       		.byte	0
 14051 00e2 00       		.byte	0
 14052 00e3 13       		.uleb128 0x13
 14053 00e4 2E       		.uleb128 0x2e
 14054 00e5 01       		.byte	0x1
 14055 00e6 3F       		.uleb128 0x3f
ARM GAS  C:\Users\FRANKL~1\AppData\Local\Temp\ccba5qpo.s 			page 284


 14056 00e7 19       		.uleb128 0x19
 14057 00e8 03       		.uleb128 0x3
 14058 00e9 0E       		.uleb128 0xe
 14059 00ea 3A       		.uleb128 0x3a
 14060 00eb 0B       		.uleb128 0xb
 14061 00ec 3B       		.uleb128 0x3b
 14062 00ed 0B       		.uleb128 0xb
 14063 00ee 49       		.uleb128 0x49
 14064 00ef 13       		.uleb128 0x13
 14065 00f0 11       		.uleb128 0x11
 14066 00f1 01       		.uleb128 0x1
 14067 00f2 12       		.uleb128 0x12
 14068 00f3 06       		.uleb128 0x6
 14069 00f4 40       		.uleb128 0x40
 14070 00f5 18       		.uleb128 0x18
 14071 00f6 9742     		.uleb128 0x2117
 14072 00f8 19       		.uleb128 0x19
 14073 00f9 01       		.uleb128 0x1
 14074 00fa 13       		.uleb128 0x13
 14075 00fb 00       		.byte	0
 14076 00fc 00       		.byte	0
 14077 00fd 14       		.uleb128 0x14
 14078 00fe 2E       		.uleb128 0x2e
 14079 00ff 01       		.byte	0x1
 14080 0100 3F       		.uleb128 0x3f
 14081 0101 19       		.uleb128 0x19
 14082 0102 03       		.uleb128 0x3
 14083 0103 0E       		.uleb128 0xe
 14084 0104 3A       		.uleb128 0x3a
 14085 0105 0B       		.uleb128 0xb
 14086 0106 3B       		.uleb128 0x3b
 14087 0107 05       		.uleb128 0x5
 14088 0108 27       		.uleb128 0x27
 14089 0109 19       		.uleb128 0x19
 14090 010a 11       		.uleb128 0x11
 14091 010b 01       		.uleb128 0x1
 14092 010c 12       		.uleb128 0x12
 14093 010d 06       		.uleb128 0x6
 14094 010e 40       		.uleb128 0x40
 14095 010f 18       		.uleb128 0x18
 14096 0110 9742     		.uleb128 0x2117
 14097 0112 19       		.uleb128 0x19
 14098 0113 01       		.uleb128 0x1
 14099 0114 13       		.uleb128 0x13
 14100 0115 00       		.byte	0
 14101 0116 00       		.byte	0
 14102 0117 15       		.uleb128 0x15
 14103 0118 0B       		.uleb128 0xb
 14104 0119 01       		.byte	0x1
 14105 011a 11       		.uleb128 0x11
 14106 011b 01       		.uleb128 0x1
 14107 011c 12       		.uleb128 0x12
 14108 011d 06       		.uleb128 0x6
 14109 011e 01       		.uleb128 0x1
 14110 011f 13       		.uleb128 0x13
 14111 0120 00       		.byte	0
 14112 0121 00       		.byte	0
ARM GAS  C:\Users\FRANKL~1\AppData\Local\Temp\ccba5qpo.s 			page 285


 14113 0122 16       		.uleb128 0x16
 14114 0123 34       		.uleb128 0x34
 14115 0124 00       		.byte	0
 14116 0125 03       		.uleb128 0x3
 14117 0126 0E       		.uleb128 0xe
 14118 0127 3A       		.uleb128 0x3a
 14119 0128 0B       		.uleb128 0xb
 14120 0129 3B       		.uleb128 0x3b
 14121 012a 05       		.uleb128 0x5
 14122 012b 49       		.uleb128 0x49
 14123 012c 13       		.uleb128 0x13
 14124 012d 02       		.uleb128 0x2
 14125 012e 18       		.uleb128 0x18
 14126 012f 00       		.byte	0
 14127 0130 00       		.byte	0
 14128 0131 17       		.uleb128 0x17
 14129 0132 34       		.uleb128 0x34
 14130 0133 00       		.byte	0
 14131 0134 03       		.uleb128 0x3
 14132 0135 0E       		.uleb128 0xe
 14133 0136 3A       		.uleb128 0x3a
 14134 0137 0B       		.uleb128 0xb
 14135 0138 3B       		.uleb128 0x3b
 14136 0139 05       		.uleb128 0x5
 14137 013a 49       		.uleb128 0x49
 14138 013b 13       		.uleb128 0x13
 14139 013c 02       		.uleb128 0x2
 14140 013d 17       		.uleb128 0x17
 14141 013e 00       		.byte	0
 14142 013f 00       		.byte	0
 14143 0140 18       		.uleb128 0x18
 14144 0141 34       		.uleb128 0x34
 14145 0142 00       		.byte	0
 14146 0143 03       		.uleb128 0x3
 14147 0144 08       		.uleb128 0x8
 14148 0145 3A       		.uleb128 0x3a
 14149 0146 0B       		.uleb128 0xb
 14150 0147 3B       		.uleb128 0x3b
 14151 0148 05       		.uleb128 0x5
 14152 0149 49       		.uleb128 0x49
 14153 014a 13       		.uleb128 0x13
 14154 014b 02       		.uleb128 0x2
 14155 014c 17       		.uleb128 0x17
 14156 014d 00       		.byte	0
 14157 014e 00       		.byte	0
 14158 014f 19       		.uleb128 0x19
 14159 0150 0B       		.uleb128 0xb
 14160 0151 01       		.byte	0x1
 14161 0152 11       		.uleb128 0x11
 14162 0153 01       		.uleb128 0x1
 14163 0154 12       		.uleb128 0x12
 14164 0155 06       		.uleb128 0x6
 14165 0156 00       		.byte	0
 14166 0157 00       		.byte	0
 14167 0158 1A       		.uleb128 0x1a
 14168 0159 898201   		.uleb128 0x4109
 14169 015c 01       		.byte	0x1
ARM GAS  C:\Users\FRANKL~1\AppData\Local\Temp\ccba5qpo.s 			page 286


 14170 015d 11       		.uleb128 0x11
 14171 015e 01       		.uleb128 0x1
 14172 015f 31       		.uleb128 0x31
 14173 0160 13       		.uleb128 0x13
 14174 0161 00       		.byte	0
 14175 0162 00       		.byte	0
 14176 0163 1B       		.uleb128 0x1b
 14177 0164 8A8201   		.uleb128 0x410a
 14178 0167 00       		.byte	0
 14179 0168 02       		.uleb128 0x2
 14180 0169 18       		.uleb128 0x18
 14181 016a 9142     		.uleb128 0x2111
 14182 016c 18       		.uleb128 0x18
 14183 016d 00       		.byte	0
 14184 016e 00       		.byte	0
 14185 016f 1C       		.uleb128 0x1c
 14186 0170 898201   		.uleb128 0x4109
 14187 0173 01       		.byte	0x1
 14188 0174 11       		.uleb128 0x11
 14189 0175 01       		.uleb128 0x1
 14190 0176 31       		.uleb128 0x31
 14191 0177 13       		.uleb128 0x13
 14192 0178 01       		.uleb128 0x1
 14193 0179 13       		.uleb128 0x13
 14194 017a 00       		.byte	0
 14195 017b 00       		.byte	0
 14196 017c 1D       		.uleb128 0x1d
 14197 017d 2E       		.uleb128 0x2e
 14198 017e 01       		.byte	0x1
 14199 017f 3F       		.uleb128 0x3f
 14200 0180 19       		.uleb128 0x19
 14201 0181 03       		.uleb128 0x3
 14202 0182 0E       		.uleb128 0xe
 14203 0183 3A       		.uleb128 0x3a
 14204 0184 0B       		.uleb128 0xb
 14205 0185 3B       		.uleb128 0x3b
 14206 0186 0B       		.uleb128 0xb
 14207 0187 27       		.uleb128 0x27
 14208 0188 19       		.uleb128 0x19
 14209 0189 49       		.uleb128 0x49
 14210 018a 13       		.uleb128 0x13
 14211 018b 11       		.uleb128 0x11
 14212 018c 01       		.uleb128 0x1
 14213 018d 12       		.uleb128 0x12
 14214 018e 06       		.uleb128 0x6
 14215 018f 40       		.uleb128 0x40
 14216 0190 18       		.uleb128 0x18
 14217 0191 9742     		.uleb128 0x2117
 14218 0193 19       		.uleb128 0x19
 14219 0194 01       		.uleb128 0x1
 14220 0195 13       		.uleb128 0x13
 14221 0196 00       		.byte	0
 14222 0197 00       		.byte	0
 14223 0198 1E       		.uleb128 0x1e
 14224 0199 05       		.uleb128 0x5
 14225 019a 00       		.byte	0
 14226 019b 03       		.uleb128 0x3
ARM GAS  C:\Users\FRANKL~1\AppData\Local\Temp\ccba5qpo.s 			page 287


 14227 019c 0E       		.uleb128 0xe
 14228 019d 3A       		.uleb128 0x3a
 14229 019e 0B       		.uleb128 0xb
 14230 019f 3B       		.uleb128 0x3b
 14231 01a0 0B       		.uleb128 0xb
 14232 01a1 49       		.uleb128 0x49
 14233 01a2 13       		.uleb128 0x13
 14234 01a3 02       		.uleb128 0x2
 14235 01a4 17       		.uleb128 0x17
 14236 01a5 00       		.byte	0
 14237 01a6 00       		.byte	0
 14238 01a7 1F       		.uleb128 0x1f
 14239 01a8 0B       		.uleb128 0xb
 14240 01a9 01       		.byte	0x1
 14241 01aa 55       		.uleb128 0x55
 14242 01ab 17       		.uleb128 0x17
 14243 01ac 01       		.uleb128 0x1
 14244 01ad 13       		.uleb128 0x13
 14245 01ae 00       		.byte	0
 14246 01af 00       		.byte	0
 14247 01b0 20       		.uleb128 0x20
 14248 01b1 34       		.uleb128 0x34
 14249 01b2 00       		.byte	0
 14250 01b3 03       		.uleb128 0x3
 14251 01b4 08       		.uleb128 0x8
 14252 01b5 3A       		.uleb128 0x3a
 14253 01b6 0B       		.uleb128 0xb
 14254 01b7 3B       		.uleb128 0x3b
 14255 01b8 0B       		.uleb128 0xb
 14256 01b9 49       		.uleb128 0x49
 14257 01ba 13       		.uleb128 0x13
 14258 01bb 02       		.uleb128 0x2
 14259 01bc 17       		.uleb128 0x17
 14260 01bd 00       		.byte	0
 14261 01be 00       		.byte	0
 14262 01bf 21       		.uleb128 0x21
 14263 01c0 2E       		.uleb128 0x2e
 14264 01c1 01       		.byte	0x1
 14265 01c2 3F       		.uleb128 0x3f
 14266 01c3 19       		.uleb128 0x19
 14267 01c4 03       		.uleb128 0x3
 14268 01c5 0E       		.uleb128 0xe
 14269 01c6 3A       		.uleb128 0x3a
 14270 01c7 0B       		.uleb128 0xb
 14271 01c8 3B       		.uleb128 0x3b
 14272 01c9 0B       		.uleb128 0xb
 14273 01ca 27       		.uleb128 0x27
 14274 01cb 19       		.uleb128 0x19
 14275 01cc 11       		.uleb128 0x11
 14276 01cd 01       		.uleb128 0x1
 14277 01ce 12       		.uleb128 0x12
 14278 01cf 06       		.uleb128 0x6
 14279 01d0 40       		.uleb128 0x40
 14280 01d1 18       		.uleb128 0x18
 14281 01d2 9742     		.uleb128 0x2117
 14282 01d4 19       		.uleb128 0x19
 14283 01d5 01       		.uleb128 0x1
ARM GAS  C:\Users\FRANKL~1\AppData\Local\Temp\ccba5qpo.s 			page 288


 14284 01d6 13       		.uleb128 0x13
 14285 01d7 00       		.byte	0
 14286 01d8 00       		.byte	0
 14287 01d9 22       		.uleb128 0x22
 14288 01da 05       		.uleb128 0x5
 14289 01db 00       		.byte	0
 14290 01dc 03       		.uleb128 0x3
 14291 01dd 0E       		.uleb128 0xe
 14292 01de 3A       		.uleb128 0x3a
 14293 01df 0B       		.uleb128 0xb
 14294 01e0 3B       		.uleb128 0x3b
 14295 01e1 0B       		.uleb128 0xb
 14296 01e2 49       		.uleb128 0x49
 14297 01e3 13       		.uleb128 0x13
 14298 01e4 02       		.uleb128 0x2
 14299 01e5 18       		.uleb128 0x18
 14300 01e6 00       		.byte	0
 14301 01e7 00       		.byte	0
 14302 01e8 23       		.uleb128 0x23
 14303 01e9 2E       		.uleb128 0x2e
 14304 01ea 01       		.byte	0x1
 14305 01eb 3F       		.uleb128 0x3f
 14306 01ec 19       		.uleb128 0x19
 14307 01ed 03       		.uleb128 0x3
 14308 01ee 0E       		.uleb128 0xe
 14309 01ef 3A       		.uleb128 0x3a
 14310 01f0 0B       		.uleb128 0xb
 14311 01f1 3B       		.uleb128 0x3b
 14312 01f2 0B       		.uleb128 0xb
 14313 01f3 27       		.uleb128 0x27
 14314 01f4 19       		.uleb128 0x19
 14315 01f5 11       		.uleb128 0x11
 14316 01f6 01       		.uleb128 0x1
 14317 01f7 12       		.uleb128 0x12
 14318 01f8 06       		.uleb128 0x6
 14319 01f9 40       		.uleb128 0x40
 14320 01fa 18       		.uleb128 0x18
 14321 01fb 9642     		.uleb128 0x2116
 14322 01fd 19       		.uleb128 0x19
 14323 01fe 01       		.uleb128 0x1
 14324 01ff 13       		.uleb128 0x13
 14325 0200 00       		.byte	0
 14326 0201 00       		.byte	0
 14327 0202 24       		.uleb128 0x24
 14328 0203 2E       		.uleb128 0x2e
 14329 0204 01       		.byte	0x1
 14330 0205 3F       		.uleb128 0x3f
 14331 0206 19       		.uleb128 0x19
 14332 0207 03       		.uleb128 0x3
 14333 0208 0E       		.uleb128 0xe
 14334 0209 3A       		.uleb128 0x3a
 14335 020a 0B       		.uleb128 0xb
 14336 020b 3B       		.uleb128 0x3b
 14337 020c 05       		.uleb128 0x5
 14338 020d 27       		.uleb128 0x27
 14339 020e 19       		.uleb128 0x19
 14340 020f 11       		.uleb128 0x11
ARM GAS  C:\Users\FRANKL~1\AppData\Local\Temp\ccba5qpo.s 			page 289


 14341 0210 01       		.uleb128 0x1
 14342 0211 12       		.uleb128 0x12
 14343 0212 06       		.uleb128 0x6
 14344 0213 40       		.uleb128 0x40
 14345 0214 18       		.uleb128 0x18
 14346 0215 9642     		.uleb128 0x2116
 14347 0217 19       		.uleb128 0x19
 14348 0218 01       		.uleb128 0x1
 14349 0219 13       		.uleb128 0x13
 14350 021a 00       		.byte	0
 14351 021b 00       		.byte	0
 14352 021c 25       		.uleb128 0x25
 14353 021d 05       		.uleb128 0x5
 14354 021e 00       		.byte	0
 14355 021f 03       		.uleb128 0x3
 14356 0220 0E       		.uleb128 0xe
 14357 0221 3A       		.uleb128 0x3a
 14358 0222 0B       		.uleb128 0xb
 14359 0223 3B       		.uleb128 0x3b
 14360 0224 05       		.uleb128 0x5
 14361 0225 49       		.uleb128 0x49
 14362 0226 13       		.uleb128 0x13
 14363 0227 02       		.uleb128 0x2
 14364 0228 17       		.uleb128 0x17
 14365 0229 00       		.byte	0
 14366 022a 00       		.byte	0
 14367 022b 26       		.uleb128 0x26
 14368 022c 0B       		.uleb128 0xb
 14369 022d 01       		.byte	0x1
 14370 022e 55       		.uleb128 0x55
 14371 022f 17       		.uleb128 0x17
 14372 0230 00       		.byte	0
 14373 0231 00       		.byte	0
 14374 0232 27       		.uleb128 0x27
 14375 0233 2E       		.uleb128 0x2e
 14376 0234 01       		.byte	0x1
 14377 0235 3F       		.uleb128 0x3f
 14378 0236 19       		.uleb128 0x19
 14379 0237 03       		.uleb128 0x3
 14380 0238 0E       		.uleb128 0xe
 14381 0239 3A       		.uleb128 0x3a
 14382 023a 0B       		.uleb128 0xb
 14383 023b 3B       		.uleb128 0x3b
 14384 023c 05       		.uleb128 0x5
 14385 023d 49       		.uleb128 0x49
 14386 023e 13       		.uleb128 0x13
 14387 023f 11       		.uleb128 0x11
 14388 0240 01       		.uleb128 0x1
 14389 0241 12       		.uleb128 0x12
 14390 0242 06       		.uleb128 0x6
 14391 0243 40       		.uleb128 0x40
 14392 0244 18       		.uleb128 0x18
 14393 0245 9642     		.uleb128 0x2116
 14394 0247 19       		.uleb128 0x19
 14395 0248 01       		.uleb128 0x1
 14396 0249 13       		.uleb128 0x13
 14397 024a 00       		.byte	0
ARM GAS  C:\Users\FRANKL~1\AppData\Local\Temp\ccba5qpo.s 			page 290


 14398 024b 00       		.byte	0
 14399 024c 28       		.uleb128 0x28
 14400 024d 2E       		.uleb128 0x2e
 14401 024e 01       		.byte	0x1
 14402 024f 3F       		.uleb128 0x3f
 14403 0250 19       		.uleb128 0x19
 14404 0251 03       		.uleb128 0x3
 14405 0252 0E       		.uleb128 0xe
 14406 0253 3A       		.uleb128 0x3a
 14407 0254 0B       		.uleb128 0xb
 14408 0255 3B       		.uleb128 0x3b
 14409 0256 05       		.uleb128 0x5
 14410 0257 11       		.uleb128 0x11
 14411 0258 01       		.uleb128 0x1
 14412 0259 12       		.uleb128 0x12
 14413 025a 06       		.uleb128 0x6
 14414 025b 40       		.uleb128 0x40
 14415 025c 18       		.uleb128 0x18
 14416 025d 9742     		.uleb128 0x2117
 14417 025f 19       		.uleb128 0x19
 14418 0260 01       		.uleb128 0x1
 14419 0261 13       		.uleb128 0x13
 14420 0262 00       		.byte	0
 14421 0263 00       		.byte	0
 14422 0264 29       		.uleb128 0x29
 14423 0265 05       		.uleb128 0x5
 14424 0266 00       		.byte	0
 14425 0267 03       		.uleb128 0x3
 14426 0268 08       		.uleb128 0x8
 14427 0269 3A       		.uleb128 0x3a
 14428 026a 0B       		.uleb128 0xb
 14429 026b 3B       		.uleb128 0x3b
 14430 026c 05       		.uleb128 0x5
 14431 026d 49       		.uleb128 0x49
 14432 026e 13       		.uleb128 0x13
 14433 026f 02       		.uleb128 0x2
 14434 0270 17       		.uleb128 0x17
 14435 0271 00       		.byte	0
 14436 0272 00       		.byte	0
 14437 0273 2A       		.uleb128 0x2a
 14438 0274 34       		.uleb128 0x34
 14439 0275 00       		.byte	0
 14440 0276 03       		.uleb128 0x3
 14441 0277 0E       		.uleb128 0xe
 14442 0278 3A       		.uleb128 0x3a
 14443 0279 0B       		.uleb128 0xb
 14444 027a 3B       		.uleb128 0x3b
 14445 027b 05       		.uleb128 0x5
 14446 027c 49       		.uleb128 0x49
 14447 027d 13       		.uleb128 0x13
 14448 027e 00       		.byte	0
 14449 027f 00       		.byte	0
 14450 0280 2B       		.uleb128 0x2b
 14451 0281 34       		.uleb128 0x34
 14452 0282 00       		.byte	0
 14453 0283 03       		.uleb128 0x3
 14454 0284 0E       		.uleb128 0xe
ARM GAS  C:\Users\FRANKL~1\AppData\Local\Temp\ccba5qpo.s 			page 291


 14455 0285 3A       		.uleb128 0x3a
 14456 0286 0B       		.uleb128 0xb
 14457 0287 3B       		.uleb128 0x3b
 14458 0288 05       		.uleb128 0x5
 14459 0289 49       		.uleb128 0x49
 14460 028a 13       		.uleb128 0x13
 14461 028b 1C       		.uleb128 0x1c
 14462 028c 0B       		.uleb128 0xb
 14463 028d 00       		.byte	0
 14464 028e 00       		.byte	0
 14465 028f 2C       		.uleb128 0x2c
 14466 0290 2E       		.uleb128 0x2e
 14467 0291 01       		.byte	0x1
 14468 0292 3F       		.uleb128 0x3f
 14469 0293 19       		.uleb128 0x19
 14470 0294 03       		.uleb128 0x3
 14471 0295 0E       		.uleb128 0xe
 14472 0296 3A       		.uleb128 0x3a
 14473 0297 0B       		.uleb128 0xb
 14474 0298 3B       		.uleb128 0x3b
 14475 0299 05       		.uleb128 0x5
 14476 029a 27       		.uleb128 0x27
 14477 029b 19       		.uleb128 0x19
 14478 029c 49       		.uleb128 0x49
 14479 029d 13       		.uleb128 0x13
 14480 029e 8701     		.uleb128 0x87
 14481 02a0 19       		.uleb128 0x19
 14482 02a1 11       		.uleb128 0x11
 14483 02a2 01       		.uleb128 0x1
 14484 02a3 12       		.uleb128 0x12
 14485 02a4 06       		.uleb128 0x6
 14486 02a5 40       		.uleb128 0x40
 14487 02a6 18       		.uleb128 0x18
 14488 02a7 9642     		.uleb128 0x2116
 14489 02a9 19       		.uleb128 0x19
 14490 02aa 01       		.uleb128 0x1
 14491 02ab 13       		.uleb128 0x13
 14492 02ac 00       		.byte	0
 14493 02ad 00       		.byte	0
 14494 02ae 2D       		.uleb128 0x2d
 14495 02af 34       		.uleb128 0x34
 14496 02b0 00       		.byte	0
 14497 02b1 03       		.uleb128 0x3
 14498 02b2 08       		.uleb128 0x8
 14499 02b3 3A       		.uleb128 0x3a
 14500 02b4 0B       		.uleb128 0xb
 14501 02b5 3B       		.uleb128 0x3b
 14502 02b6 05       		.uleb128 0x5
 14503 02b7 49       		.uleb128 0x49
 14504 02b8 13       		.uleb128 0x13
 14505 02b9 02       		.uleb128 0x2
 14506 02ba 18       		.uleb128 0x18
 14507 02bb 00       		.byte	0
 14508 02bc 00       		.byte	0
 14509 02bd 2E       		.uleb128 0x2e
 14510 02be 34       		.uleb128 0x34
 14511 02bf 00       		.byte	0
ARM GAS  C:\Users\FRANKL~1\AppData\Local\Temp\ccba5qpo.s 			page 292


 14512 02c0 03       		.uleb128 0x3
 14513 02c1 0E       		.uleb128 0xe
 14514 02c2 3A       		.uleb128 0x3a
 14515 02c3 0B       		.uleb128 0xb
 14516 02c4 3B       		.uleb128 0x3b
 14517 02c5 05       		.uleb128 0x5
 14518 02c6 49       		.uleb128 0x49
 14519 02c7 13       		.uleb128 0x13
 14520 02c8 3F       		.uleb128 0x3f
 14521 02c9 19       		.uleb128 0x19
 14522 02ca 3C       		.uleb128 0x3c
 14523 02cb 19       		.uleb128 0x19
 14524 02cc 00       		.byte	0
 14525 02cd 00       		.byte	0
 14526 02ce 2F       		.uleb128 0x2f
 14527 02cf 34       		.uleb128 0x34
 14528 02d0 00       		.byte	0
 14529 02d1 03       		.uleb128 0x3
 14530 02d2 0E       		.uleb128 0xe
 14531 02d3 3A       		.uleb128 0x3a
 14532 02d4 0B       		.uleb128 0xb
 14533 02d5 3B       		.uleb128 0x3b
 14534 02d6 0B       		.uleb128 0xb
 14535 02d7 49       		.uleb128 0x49
 14536 02d8 13       		.uleb128 0x13
 14537 02d9 3F       		.uleb128 0x3f
 14538 02da 19       		.uleb128 0x19
 14539 02db 02       		.uleb128 0x2
 14540 02dc 18       		.uleb128 0x18
 14541 02dd 00       		.byte	0
 14542 02de 00       		.byte	0
 14543 02df 30       		.uleb128 0x30
 14544 02e0 2E       		.uleb128 0x2e
 14545 02e1 00       		.byte	0
 14546 02e2 3F       		.uleb128 0x3f
 14547 02e3 19       		.uleb128 0x19
 14548 02e4 3C       		.uleb128 0x3c
 14549 02e5 19       		.uleb128 0x19
 14550 02e6 6E       		.uleb128 0x6e
 14551 02e7 0E       		.uleb128 0xe
 14552 02e8 03       		.uleb128 0x3
 14553 02e9 0E       		.uleb128 0xe
 14554 02ea 3A       		.uleb128 0x3a
 14555 02eb 0B       		.uleb128 0xb
 14556 02ec 3B       		.uleb128 0x3b
 14557 02ed 05       		.uleb128 0x5
 14558 02ee 00       		.byte	0
 14559 02ef 00       		.byte	0
 14560 02f0 31       		.uleb128 0x31
 14561 02f1 2E       		.uleb128 0x2e
 14562 02f2 00       		.byte	0
 14563 02f3 3F       		.uleb128 0x3f
 14564 02f4 19       		.uleb128 0x19
 14565 02f5 3C       		.uleb128 0x3c
 14566 02f6 19       		.uleb128 0x19
 14567 02f7 6E       		.uleb128 0x6e
 14568 02f8 0E       		.uleb128 0xe
ARM GAS  C:\Users\FRANKL~1\AppData\Local\Temp\ccba5qpo.s 			page 293


 14569 02f9 03       		.uleb128 0x3
 14570 02fa 0E       		.uleb128 0xe
 14571 02fb 3A       		.uleb128 0x3a
 14572 02fc 0B       		.uleb128 0xb
 14573 02fd 3B       		.uleb128 0x3b
 14574 02fe 0B       		.uleb128 0xb
 14575 02ff 00       		.byte	0
 14576 0300 00       		.byte	0
 14577 0301 32       		.uleb128 0x32
 14578 0302 2E       		.uleb128 0x2e
 14579 0303 00       		.byte	0
 14580 0304 3F       		.uleb128 0x3f
 14581 0305 19       		.uleb128 0x19
 14582 0306 3C       		.uleb128 0x3c
 14583 0307 19       		.uleb128 0x19
 14584 0308 6E       		.uleb128 0x6e
 14585 0309 0E       		.uleb128 0xe
 14586 030a 03       		.uleb128 0x3
 14587 030b 0E       		.uleb128 0xe
 14588 030c 3A       		.uleb128 0x3a
 14589 030d 0B       		.uleb128 0xb
 14590 030e 3B       		.uleb128 0x3b
 14591 030f 0B       		.uleb128 0xb
 14592 0310 6E       		.uleb128 0x6e
 14593 0311 0E       		.uleb128 0xe
 14594 0312 00       		.byte	0
 14595 0313 00       		.byte	0
 14596 0314 00       		.byte	0
 14597              		.section	.debug_loc,"",%progbits
 14598              	.Ldebug_loc0:
 14599              	.LLST0:
 14600 0000 02000000 		.4byte	.LVL0
 14601 0004 12000000 		.4byte	.LVL3
 14602 0008 0200     		.2byte	0x2
 14603 000a 30       		.byte	0x30
 14604 000b 9F       		.byte	0x9f
 14605 000c 12000000 		.4byte	.LVL3
 14606 0010 18000000 		.4byte	.LFE64
 14607 0014 0200     		.2byte	0x2
 14608 0016 31       		.byte	0x31
 14609 0017 9F       		.byte	0x9f
 14610 0018 00000000 		.4byte	0
 14611 001c 00000000 		.4byte	0
 14612              	.LLST1:
 14613 0020 14000000 		.4byte	.LVL10
 14614 0024 7C000000 		.4byte	.LVL18
 14615 0028 0100     		.2byte	0x1
 14616 002a 50       		.byte	0x50
 14617 002b 00000000 		.4byte	0
 14618 002f 00000000 		.4byte	0
 14619              	.LLST2:
 14620 0033 14000000 		.4byte	.LVL10
 14621 0037 18000000 		.4byte	.LVL11
 14622 003b 0200     		.2byte	0x2
 14623 003d 30       		.byte	0x30
 14624 003e 9F       		.byte	0x9f
 14625 003f 18000000 		.4byte	.LVL11
ARM GAS  C:\Users\FRANKL~1\AppData\Local\Temp\ccba5qpo.s 			page 294


 14626 0043 74000000 		.4byte	.LVL16
 14627 0047 0100     		.2byte	0x1
 14628 0049 53       		.byte	0x53
 14629 004a 76000000 		.4byte	.LVL17
 14630 004e 7C000000 		.4byte	.LVL18
 14631 0052 0100     		.2byte	0x1
 14632 0054 53       		.byte	0x53
 14633 0055 00000000 		.4byte	0
 14634 0059 00000000 		.4byte	0
 14635              	.LLST3:
 14636 005d 20000000 		.4byte	.LVL12
 14637 0061 3A000000 		.4byte	.LVL13
 14638 0065 0100     		.2byte	0x1
 14639 0067 52       		.byte	0x52
 14640 0068 3A000000 		.4byte	.LVL13
 14641 006c 58000000 		.4byte	.LVL14
 14642 0070 0800     		.2byte	0x8
 14643 0072 91       		.byte	0x91
 14644 0073 00       		.sleb128 0
 14645 0074 73       		.byte	0x73
 14646 0075 00       		.sleb128 0
 14647 0076 22       		.byte	0x22
 14648 0077 08       		.byte	0x8
 14649 0078 50       		.byte	0x50
 14650 0079 1C       		.byte	0x1c
 14651 007a 58000000 		.4byte	.LVL14
 14652 007e 5C000000 		.4byte	.LVL15
 14653 0082 0100     		.2byte	0x1
 14654 0084 52       		.byte	0x52
 14655 0085 5C000000 		.4byte	.LVL15
 14656 0089 74000000 		.4byte	.LVL16
 14657 008d 0800     		.2byte	0x8
 14658 008f 91       		.byte	0x91
 14659 0090 00       		.sleb128 0
 14660 0091 73       		.byte	0x73
 14661 0092 00       		.sleb128 0
 14662 0093 22       		.byte	0x22
 14663 0094 08       		.byte	0x8
 14664 0095 50       		.byte	0x50
 14665 0096 1C       		.byte	0x1c
 14666 0097 74000000 		.4byte	.LVL16
 14667 009b 76000000 		.4byte	.LVL17
 14668 009f 0800     		.2byte	0x8
 14669 00a1 91       		.byte	0x91
 14670 00a2 00       		.sleb128 0
 14671 00a3 73       		.byte	0x73
 14672 00a4 00       		.sleb128 0
 14673 00a5 22       		.byte	0x22
 14674 00a6 08       		.byte	0x8
 14675 00a7 51       		.byte	0x51
 14676 00a8 1C       		.byte	0x1c
 14677 00a9 00000000 		.4byte	0
 14678 00ad 00000000 		.4byte	0
 14679              	.LLST4:
 14680 00b1 FC000000 		.4byte	.LVL21
 14681 00b5 0C010000 		.4byte	.LVL22
 14682 00b9 0600     		.2byte	0x6
ARM GAS  C:\Users\FRANKL~1\AppData\Local\Temp\ccba5qpo.s 			page 295


 14683 00bb 03       		.byte	0x3
 14684 00bc 00000000 		.4byte	USBUART_Receive_Buffer
 14685 00c0 9F       		.byte	0x9f
 14686 00c1 0C010000 		.4byte	.LVL22
 14687 00c5 7C010000 		.4byte	.LVL28
 14688 00c9 0100     		.2byte	0x1
 14689 00cb 54       		.byte	0x54
 14690 00cc 00000000 		.4byte	0
 14691 00d0 00000000 		.4byte	0
 14692              	.LLST5:
 14693 00d4 00000000 		.4byte	.LVL31
 14694 00d8 06000000 		.4byte	.LVL32
 14695 00dc 0100     		.2byte	0x1
 14696 00de 50       		.byte	0x50
 14697 00df 06000000 		.4byte	.LVL32
 14698 00e3 08000000 		.4byte	.LVL33
 14699 00e7 0400     		.2byte	0x4
 14700 00e9 F3       		.byte	0xf3
 14701 00ea 01       		.uleb128 0x1
 14702 00eb 50       		.byte	0x50
 14703 00ec 9F       		.byte	0x9f
 14704 00ed 08000000 		.4byte	.LVL33
 14705 00f1 16000000 		.4byte	.LVL37
 14706 00f5 0100     		.2byte	0x1
 14707 00f7 56       		.byte	0x56
 14708 00f8 16000000 		.4byte	.LVL37
 14709 00fc 1E000000 		.4byte	.LVL38
 14710 0100 0100     		.2byte	0x1
 14711 0102 50       		.byte	0x50
 14712 0103 1E000000 		.4byte	.LVL38
 14713 0107 50000000 		.4byte	.LFE66
 14714 010b 0100     		.2byte	0x1
 14715 010d 56       		.byte	0x56
 14716 010e 00000000 		.4byte	0
 14717 0112 00000000 		.4byte	0
 14718              	.LLST6:
 14719 0116 00000000 		.4byte	.LVL31
 14720 011a 08000000 		.4byte	.LVL33
 14721 011e 0100     		.2byte	0x1
 14722 0120 51       		.byte	0x51
 14723 0121 08000000 		.4byte	.LVL33
 14724 0125 16000000 		.4byte	.LVL37
 14725 0129 0400     		.2byte	0x4
 14726 012b F3       		.byte	0xf3
 14727 012c 01       		.uleb128 0x1
 14728 012d 51       		.byte	0x51
 14729 012e 9F       		.byte	0x9f
 14730 012f 16000000 		.4byte	.LVL37
 14731 0133 1E000000 		.4byte	.LVL38
 14732 0137 0100     		.2byte	0x1
 14733 0139 51       		.byte	0x51
 14734 013a 1E000000 		.4byte	.LVL38
 14735 013e 50000000 		.4byte	.LFE66
 14736 0142 0400     		.2byte	0x4
 14737 0144 F3       		.byte	0xf3
 14738 0145 01       		.uleb128 0x1
 14739 0146 51       		.byte	0x51
ARM GAS  C:\Users\FRANKL~1\AppData\Local\Temp\ccba5qpo.s 			page 296


 14740 0147 9F       		.byte	0x9f
 14741 0148 00000000 		.4byte	0
 14742 014c 00000000 		.4byte	0
 14743              	.LLST7:
 14744 0150 08000000 		.4byte	.LVL33
 14745 0154 16000000 		.4byte	.LVL37
 14746 0158 0100     		.2byte	0x1
 14747 015a 54       		.byte	0x54
 14748 015b 1E000000 		.4byte	.LVL38
 14749 015f 50000000 		.4byte	.LFE66
 14750 0163 0100     		.2byte	0x1
 14751 0165 54       		.byte	0x54
 14752 0166 00000000 		.4byte	0
 14753 016a 00000000 		.4byte	0
 14754              	.LLST8:
 14755 016e 00000000 		.4byte	.LVL43
 14756 0172 08000000 		.4byte	.LVL44
 14757 0176 0100     		.2byte	0x1
 14758 0178 50       		.byte	0x50
 14759 0179 08000000 		.4byte	.LVL44
 14760 017d 24000000 		.4byte	.LFE67
 14761 0181 0100     		.2byte	0x1
 14762 0183 54       		.byte	0x54
 14763 0184 00000000 		.4byte	0
 14764 0188 00000000 		.4byte	0
 14765              	.LLST9:
 14766 018c 00000000 		.4byte	.LVL43
 14767 0190 08000000 		.4byte	.LVL44
 14768 0194 0100     		.2byte	0x1
 14769 0196 51       		.byte	0x51
 14770 0197 08000000 		.4byte	.LVL44
 14771 019b 24000000 		.4byte	.LFE67
 14772 019f 0100     		.2byte	0x1
 14773 01a1 55       		.byte	0x55
 14774 01a2 00000000 		.4byte	0
 14775 01a6 00000000 		.4byte	0
 14776              	.LLST10:
 14777 01aa 00000000 		.4byte	.LVL51
 14778 01ae 1E000000 		.4byte	.LVL56
 14779 01b2 0100     		.2byte	0x1
 14780 01b4 50       		.byte	0x50
 14781 01b5 1E000000 		.4byte	.LVL56
 14782 01b9 58000000 		.4byte	.LFE69
 14783 01bd 0100     		.2byte	0x1
 14784 01bf 55       		.byte	0x55
 14785 01c0 00000000 		.4byte	0
 14786 01c4 00000000 		.4byte	0
 14787              	.LLST11:
 14788 01c8 00000000 		.4byte	.LVL51
 14789 01cc 1E000000 		.4byte	.LVL56
 14790 01d0 0100     		.2byte	0x1
 14791 01d2 51       		.byte	0x51
 14792 01d3 1E000000 		.4byte	.LVL56
 14793 01d7 58000000 		.4byte	.LFE69
 14794 01db 0400     		.2byte	0x4
 14795 01dd F3       		.byte	0xf3
 14796 01de 01       		.uleb128 0x1
ARM GAS  C:\Users\FRANKL~1\AppData\Local\Temp\ccba5qpo.s 			page 297


 14797 01df 51       		.byte	0x51
 14798 01e0 9F       		.byte	0x9f
 14799 01e1 00000000 		.4byte	0
 14800 01e5 00000000 		.4byte	0
 14801              	.LLST12:
 14802 01e9 00000000 		.4byte	.LVL51
 14803 01ed 0E000000 		.4byte	.LVL53
 14804 01f1 0100     		.2byte	0x1
 14805 01f3 52       		.byte	0x52
 14806 01f4 0E000000 		.4byte	.LVL53
 14807 01f8 58000000 		.4byte	.LFE69
 14808 01fc 0100     		.2byte	0x1
 14809 01fe 57       		.byte	0x57
 14810 01ff 00000000 		.4byte	0
 14811 0203 00000000 		.4byte	0
 14812              	.LLST13:
 14813 0207 0A000000 		.4byte	.LVL52
 14814 020b 0E000000 		.4byte	.LVL53
 14815 020f 0200     		.2byte	0x2
 14816 0211 30       		.byte	0x30
 14817 0212 9F       		.byte	0x9f
 14818 0213 0E000000 		.4byte	.LVL53
 14819 0217 14000000 		.4byte	.LVL54
 14820 021b 0100     		.2byte	0x1
 14821 021d 53       		.byte	0x53
 14822 021e 16000000 		.4byte	.LVL55
 14823 0222 1E000000 		.4byte	.LVL56
 14824 0226 0100     		.2byte	0x1
 14825 0228 53       		.byte	0x53
 14826 0229 00000000 		.4byte	0
 14827 022d 00000000 		.4byte	0
 14828              	.LLST14:
 14829 0231 1E000000 		.4byte	.LVL56
 14830 0235 4A000000 		.4byte	.LVL61
 14831 0239 0100     		.2byte	0x1
 14832 023b 54       		.byte	0x54
 14833 023c 4C000000 		.4byte	.LVL62
 14834 0240 58000000 		.4byte	.LFE69
 14835 0244 0100     		.2byte	0x1
 14836 0246 54       		.byte	0x54
 14837 0247 00000000 		.4byte	0
 14838 024b 00000000 		.4byte	0
 14839              	.LLST15:
 14840 024f 0A000000 		.4byte	.LVL64
 14841 0253 0E000000 		.4byte	.LVL65
 14842 0257 0200     		.2byte	0x2
 14843 0259 30       		.byte	0x30
 14844 025a 9F       		.byte	0x9f
 14845 025b 0E000000 		.4byte	.LVL65
 14846 025f 16000000 		.4byte	.LVL66
 14847 0263 0100     		.2byte	0x1
 14848 0265 53       		.byte	0x53
 14849 0266 18000000 		.4byte	.LVL67
 14850 026a 1E000000 		.4byte	.LVL68
 14851 026e 0100     		.2byte	0x1
 14852 0270 53       		.byte	0x53
 14853 0271 00000000 		.4byte	0
ARM GAS  C:\Users\FRANKL~1\AppData\Local\Temp\ccba5qpo.s 			page 298


 14854 0275 00000000 		.4byte	0
 14855              	.LLST16:
 14856 0279 20000000 		.4byte	.LVL69
 14857 027d 2A000000 		.4byte	.LVL70
 14858 0281 0100     		.2byte	0x1
 14859 0283 53       		.byte	0x53
 14860 0284 2C000000 		.4byte	.LVL71
 14861 0288 32000000 		.4byte	.LFE70
 14862 028c 0100     		.2byte	0x1
 14863 028e 53       		.byte	0x53
 14864 028f 00000000 		.4byte	0
 14865 0293 00000000 		.4byte	0
 14866              	.LLST17:
 14867 0297 00000000 		.4byte	.LVL72
 14868 029b 12000000 		.4byte	.LVL73
 14869 029f 0100     		.2byte	0x1
 14870 02a1 50       		.byte	0x50
 14871 02a2 12000000 		.4byte	.LVL73
 14872 02a6 90010000 		.4byte	.LFE71
 14873 02aa 0400     		.2byte	0x4
 14874 02ac F3       		.byte	0xf3
 14875 02ad 01       		.uleb128 0x1
 14876 02ae 50       		.byte	0x50
 14877 02af 9F       		.byte	0x9f
 14878 02b0 00000000 		.4byte	0
 14879 02b4 00000000 		.4byte	0
 14880              	.LLST18:
 14881 02b8 2A000000 		.4byte	.LVL77
 14882 02bc 32000000 		.4byte	.LVL79
 14883 02c0 0C00     		.2byte	0xc
 14884 02c2 74       		.byte	0x74
 14885 02c3 00       		.sleb128 0
 14886 02c4 08       		.byte	0x8
 14887 02c5 FF       		.byte	0xff
 14888 02c6 1E       		.byte	0x1e
 14889 02c7 03       		.byte	0x3
 14890 02c8 00000000 		.4byte	selectors
 14891 02cc 22       		.byte	0x22
 14892 02cd 9F       		.byte	0x9f
 14893 02ce 32000000 		.4byte	.LVL79
 14894 02d2 5C010000 		.4byte	.LVL108
 14895 02d6 0C00     		.2byte	0xc
 14896 02d8 78       		.byte	0x78
 14897 02d9 7F       		.sleb128 -1
 14898 02da 08       		.byte	0x8
 14899 02db FF       		.byte	0xff
 14900 02dc 1E       		.byte	0x1e
 14901 02dd 03       		.byte	0x3
 14902 02de 00000000 		.4byte	selectors
 14903 02e2 22       		.byte	0x22
 14904 02e3 9F       		.byte	0x9f
 14905 02e4 00000000 		.4byte	0
 14906 02e8 00000000 		.4byte	0
 14907              	.LLST19:
 14908 02ec 44000000 		.4byte	.LVL80
 14909 02f0 48000000 		.4byte	.LVL81
 14910 02f4 0200     		.2byte	0x2
ARM GAS  C:\Users\FRANKL~1\AppData\Local\Temp\ccba5qpo.s 			page 299


 14911 02f6 30       		.byte	0x30
 14912 02f7 9F       		.byte	0x9f
 14913 02f8 48000000 		.4byte	.LVL81
 14914 02fc C6000000 		.4byte	.LVL93
 14915 0300 0100     		.2byte	0x1
 14916 0302 54       		.byte	0x54
 14917 0303 00000000 		.4byte	0
 14918 0307 00000000 		.4byte	0
 14919              	.LLST20:
 14920 030b 02000000 		.4byte	.LVL109
 14921 030f 06000000 		.4byte	.LVL110
 14922 0313 0200     		.2byte	0x2
 14923 0315 30       		.byte	0x30
 14924 0316 9F       		.byte	0x9f
 14925 0317 06000000 		.4byte	.LVL110
 14926 031b 14000000 		.4byte	.LVL112
 14927 031f 0100     		.2byte	0x1
 14928 0321 54       		.byte	0x54
 14929 0322 16000000 		.4byte	.LVL113
 14930 0326 36000000 		.4byte	.LVL114
 14931 032a 0100     		.2byte	0x1
 14932 032c 54       		.byte	0x54
 14933 032d 00000000 		.4byte	0
 14934 0331 00000000 		.4byte	0
 14935              	.LLST21:
 14936 0335 00000000 		.4byte	.LVL115
 14937 0339 04000000 		.4byte	.LVL116
 14938 033d 0100     		.2byte	0x1
 14939 033f 50       		.byte	0x50
 14940 0340 04000000 		.4byte	.LVL116
 14941 0344 06000000 		.4byte	.LVL117
 14942 0348 0400     		.2byte	0x4
 14943 034a F3       		.byte	0xf3
 14944 034b 01       		.uleb128 0x1
 14945 034c 50       		.byte	0x50
 14946 034d 9F       		.byte	0x9f
 14947 034e 06000000 		.4byte	.LVL117
 14948 0352 1C000000 		.4byte	.LVL119
 14949 0356 0100     		.2byte	0x1
 14950 0358 53       		.byte	0x53
 14951 0359 00000000 		.4byte	0
 14952 035d 00000000 		.4byte	0
 14953              	.LLST22:
 14954 0361 00000000 		.4byte	.LVL115
 14955 0365 06000000 		.4byte	.LVL117
 14956 0369 0100     		.2byte	0x1
 14957 036b 51       		.byte	0x51
 14958 036c 06000000 		.4byte	.LVL117
 14959 0370 0C000000 		.4byte	.LVL118
 14960 0374 0300     		.2byte	0x3
 14961 0376 71       		.byte	0x71
 14962 0377 7F       		.sleb128 -1
 14963 0378 9F       		.byte	0x9f
 14964 0379 0C000000 		.4byte	.LVL118
 14965 037d 2C000000 		.4byte	.LFE73
 14966 0381 0600     		.2byte	0x6
 14967 0383 F3       		.byte	0xf3
ARM GAS  C:\Users\FRANKL~1\AppData\Local\Temp\ccba5qpo.s 			page 300


 14968 0384 01       		.uleb128 0x1
 14969 0385 51       		.byte	0x51
 14970 0386 31       		.byte	0x31
 14971 0387 1C       		.byte	0x1c
 14972 0388 9F       		.byte	0x9f
 14973 0389 00000000 		.4byte	0
 14974 038d 00000000 		.4byte	0
 14975              	.LLST23:
 14976 0391 00000000 		.4byte	.LVL121
 14977 0395 02000000 		.4byte	.LVL122
 14978 0399 0100     		.2byte	0x1
 14979 039b 50       		.byte	0x50
 14980 039c 02000000 		.4byte	.LVL122
 14981 03a0 04000000 		.4byte	.LVL123
 14982 03a4 0400     		.2byte	0x4
 14983 03a6 F3       		.byte	0xf3
 14984 03a7 01       		.uleb128 0x1
 14985 03a8 50       		.byte	0x50
 14986 03a9 9F       		.byte	0x9f
 14987 03aa 04000000 		.4byte	.LVL123
 14988 03ae 26000000 		.4byte	.LVL128
 14989 03b2 0100     		.2byte	0x1
 14990 03b4 50       		.byte	0x50
 14991 03b5 30000000 		.4byte	.LVL130
 14992 03b9 32000000 		.4byte	.LFE74
 14993 03bd 0100     		.2byte	0x1
 14994 03bf 50       		.byte	0x50
 14995 03c0 00000000 		.4byte	0
 14996 03c4 00000000 		.4byte	0
 14997              	.LLST24:
 14998 03c8 00000000 		.4byte	.LVL121
 14999 03cc 04000000 		.4byte	.LVL123
 15000 03d0 0100     		.2byte	0x1
 15001 03d2 51       		.byte	0x51
 15002 03d3 04000000 		.4byte	.LVL123
 15003 03d7 2D000000 		.4byte	.LVL129-1
 15004 03db 0300     		.2byte	0x3
 15005 03dd 71       		.byte	0x71
 15006 03de 7F       		.sleb128 -1
 15007 03df 9F       		.byte	0x9f
 15008 03e0 2D000000 		.4byte	.LVL129-1
 15009 03e4 30000000 		.4byte	.LVL130
 15010 03e8 0600     		.2byte	0x6
 15011 03ea F3       		.byte	0xf3
 15012 03eb 01       		.uleb128 0x1
 15013 03ec 51       		.byte	0x51
 15014 03ed 31       		.byte	0x31
 15015 03ee 1C       		.byte	0x1c
 15016 03ef 9F       		.byte	0x9f
 15017 03f0 30000000 		.4byte	.LVL130
 15018 03f4 32000000 		.4byte	.LFE74
 15019 03f8 0300     		.2byte	0x3
 15020 03fa 71       		.byte	0x71
 15021 03fb 7F       		.sleb128 -1
 15022 03fc 9F       		.byte	0x9f
 15023 03fd 00000000 		.4byte	0
 15024 0401 00000000 		.4byte	0
ARM GAS  C:\Users\FRANKL~1\AppData\Local\Temp\ccba5qpo.s 			page 301


 15025              	.LLST25:
 15026 0405 12000000 		.4byte	.LVL124
 15027 0409 16000000 		.4byte	.LVL125
 15028 040d 0200     		.2byte	0x2
 15029 040f 30       		.byte	0x30
 15030 0410 9F       		.byte	0x9f
 15031 0411 16000000 		.4byte	.LVL125
 15032 0415 1E000000 		.4byte	.LVL126
 15033 0419 0300     		.2byte	0x3
 15034 041b 08       		.byte	0x8
 15035 041c 20       		.byte	0x20
 15036 041d 9F       		.byte	0x9f
 15037 041e 1E000000 		.4byte	.LVL126
 15038 0422 24000000 		.4byte	.LVL127
 15039 0426 0200     		.2byte	0x2
 15040 0428 30       		.byte	0x30
 15041 0429 9F       		.byte	0x9f
 15042 042a 24000000 		.4byte	.LVL127
 15043 042e 2D000000 		.4byte	.LVL129-1
 15044 0432 0100     		.2byte	0x1
 15045 0434 53       		.byte	0x53
 15046 0435 00000000 		.4byte	0
 15047 0439 00000000 		.4byte	0
 15048              	.LLST26:
 15049 043d 00000000 		.4byte	.LVL131
 15050 0441 04000000 		.4byte	.LVL132
 15051 0445 0100     		.2byte	0x1
 15052 0447 50       		.byte	0x50
 15053 0448 04000000 		.4byte	.LVL132
 15054 044c 06000000 		.4byte	.LVL133
 15055 0450 0400     		.2byte	0x4
 15056 0452 F3       		.byte	0xf3
 15057 0453 01       		.uleb128 0x1
 15058 0454 50       		.byte	0x50
 15059 0455 9F       		.byte	0x9f
 15060 0456 06000000 		.4byte	.LVL133
 15061 045a 26000000 		.4byte	.LVL139
 15062 045e 0100     		.2byte	0x1
 15063 0460 53       		.byte	0x53
 15064 0461 00000000 		.4byte	0
 15065 0465 00000000 		.4byte	0
 15066              	.LLST27:
 15067 0469 00000000 		.4byte	.LVL131
 15068 046d 06000000 		.4byte	.LVL133
 15069 0471 0100     		.2byte	0x1
 15070 0473 51       		.byte	0x51
 15071 0474 06000000 		.4byte	.LVL133
 15072 0478 0C000000 		.4byte	.LVL134
 15073 047c 0300     		.2byte	0x3
 15074 047e 71       		.byte	0x71
 15075 047f 7F       		.sleb128 -1
 15076 0480 9F       		.byte	0x9f
 15077 0481 0C000000 		.4byte	.LVL134
 15078 0485 40000000 		.4byte	.LFE75
 15079 0489 0600     		.2byte	0x6
 15080 048b F3       		.byte	0xf3
 15081 048c 01       		.uleb128 0x1
ARM GAS  C:\Users\FRANKL~1\AppData\Local\Temp\ccba5qpo.s 			page 302


 15082 048d 51       		.byte	0x51
 15083 048e 31       		.byte	0x31
 15084 048f 1C       		.byte	0x1c
 15085 0490 9F       		.byte	0x9f
 15086 0491 00000000 		.4byte	0
 15087 0495 00000000 		.4byte	0
 15088              	.LLST28:
 15089 0499 12000000 		.4byte	.LVL135
 15090 049d 16000000 		.4byte	.LVL136
 15091 04a1 0200     		.2byte	0x2
 15092 04a3 30       		.byte	0x30
 15093 04a4 9F       		.byte	0x9f
 15094 04a5 16000000 		.4byte	.LVL136
 15095 04a9 1E000000 		.4byte	.LVL137
 15096 04ad 0300     		.2byte	0x3
 15097 04af 08       		.byte	0x8
 15098 04b0 20       		.byte	0x20
 15099 04b1 9F       		.byte	0x9f
 15100 04b2 1E000000 		.4byte	.LVL137
 15101 04b6 24000000 		.4byte	.LVL138
 15102 04ba 0200     		.2byte	0x2
 15103 04bc 30       		.byte	0x30
 15104 04bd 9F       		.byte	0x9f
 15105 04be 24000000 		.4byte	.LVL138
 15106 04c2 2A000000 		.4byte	.LVL140
 15107 04c6 0100     		.2byte	0x1
 15108 04c8 52       		.byte	0x52
 15109 04c9 00000000 		.4byte	0
 15110 04cd 00000000 		.4byte	0
 15111              	.LLST29:
 15112 04d1 00000000 		.4byte	.LVL142
 15113 04d5 04000000 		.4byte	.LVL143
 15114 04d9 0100     		.2byte	0x1
 15115 04db 50       		.byte	0x50
 15116 04dc 04000000 		.4byte	.LVL143
 15117 04e0 06000000 		.4byte	.LVL144
 15118 04e4 0400     		.2byte	0x4
 15119 04e6 F3       		.byte	0xf3
 15120 04e7 01       		.uleb128 0x1
 15121 04e8 50       		.byte	0x50
 15122 04e9 9F       		.byte	0x9f
 15123 04ea 06000000 		.4byte	.LVL144
 15124 04ee 3C000000 		.4byte	.LVL153
 15125 04f2 0100     		.2byte	0x1
 15126 04f4 55       		.byte	0x55
 15127 04f5 00000000 		.4byte	0
 15128 04f9 00000000 		.4byte	0
 15129              	.LLST30:
 15130 04fd 06000000 		.4byte	.LVL144
 15131 0501 0A000000 		.4byte	.LVL145
 15132 0505 0200     		.2byte	0x2
 15133 0507 30       		.byte	0x30
 15134 0508 9F       		.byte	0x9f
 15135 0509 0A000000 		.4byte	.LVL145
 15136 050d 34000000 		.4byte	.LVL151
 15137 0511 0100     		.2byte	0x1
 15138 0513 54       		.byte	0x54
ARM GAS  C:\Users\FRANKL~1\AppData\Local\Temp\ccba5qpo.s 			page 303


 15139 0514 36000000 		.4byte	.LVL152
 15140 0518 3C000000 		.4byte	.LVL153
 15141 051c 0100     		.2byte	0x1
 15142 051e 54       		.byte	0x54
 15143 051f 00000000 		.4byte	0
 15144 0523 00000000 		.4byte	0
 15145              	.LLST31:
 15146 0527 0A000000 		.4byte	.LVL145
 15147 052b 0E000000 		.4byte	.LVL146
 15148 052f 0200     		.2byte	0x2
 15149 0531 30       		.byte	0x30
 15150 0532 9F       		.byte	0x9f
 15151 0533 0E000000 		.4byte	.LVL146
 15152 0537 16000000 		.4byte	.LVL147
 15153 053b 0300     		.2byte	0x3
 15154 053d 08       		.byte	0x8
 15155 053e 20       		.byte	0x20
 15156 053f 9F       		.byte	0x9f
 15157 0540 16000000 		.4byte	.LVL147
 15158 0544 1C000000 		.4byte	.LVL148
 15159 0548 0200     		.2byte	0x2
 15160 054a 30       		.byte	0x30
 15161 054b 9F       		.byte	0x9f
 15162 054c 1C000000 		.4byte	.LVL148
 15163 0550 22000000 		.4byte	.LVL149
 15164 0554 0100     		.2byte	0x1
 15165 0556 53       		.byte	0x53
 15166 0557 00000000 		.4byte	0
 15167 055b 00000000 		.4byte	0
 15168              	.LLST32:
 15169 055f 02000000 		.4byte	.LVL154
 15170 0563 06000000 		.4byte	.LVL155
 15171 0567 0200     		.2byte	0x2
 15172 0569 30       		.byte	0x30
 15173 056a 9F       		.byte	0x9f
 15174 056b 06000000 		.4byte	.LVL155
 15175 056f 28000000 		.4byte	.LVL161
 15176 0573 0100     		.2byte	0x1
 15177 0575 54       		.byte	0x54
 15178 0576 2A000000 		.4byte	.LVL162
 15179 057a 30000000 		.4byte	.LVL163
 15180 057e 0100     		.2byte	0x1
 15181 0580 54       		.byte	0x54
 15182 0581 00000000 		.4byte	0
 15183 0585 00000000 		.4byte	0
 15184              	.LLST33:
 15185 0589 06000000 		.4byte	.LVL155
 15186 058d 16000000 		.4byte	.LVL156
 15187 0591 0100     		.2byte	0x1
 15188 0593 53       		.byte	0x53
 15189 0594 18000000 		.4byte	.LVL157
 15190 0598 1A000000 		.4byte	.LVL158
 15191 059c 0100     		.2byte	0x1
 15192 059e 53       		.byte	0x53
 15193 059f 1C000000 		.4byte	.LVL159
 15194 05a3 25000000 		.4byte	.LVL160-1
 15195 05a7 0100     		.2byte	0x1
ARM GAS  C:\Users\FRANKL~1\AppData\Local\Temp\ccba5qpo.s 			page 304


 15196 05a9 53       		.byte	0x53
 15197 05aa 00000000 		.4byte	0
 15198 05ae 00000000 		.4byte	0
 15199              	.LLST34:
 15200 05b2 00000000 		.4byte	.LVL164
 15201 05b6 04000000 		.4byte	.LVL165
 15202 05ba 0100     		.2byte	0x1
 15203 05bc 50       		.byte	0x50
 15204 05bd 04000000 		.4byte	.LVL165
 15205 05c1 06000000 		.4byte	.LVL166
 15206 05c5 0400     		.2byte	0x4
 15207 05c7 F3       		.byte	0xf3
 15208 05c8 01       		.uleb128 0x1
 15209 05c9 50       		.byte	0x50
 15210 05ca 9F       		.byte	0x9f
 15211 05cb 06000000 		.4byte	.LVL166
 15212 05cf 23000000 		.4byte	.LVL170-1
 15213 05d3 0100     		.2byte	0x1
 15214 05d5 50       		.byte	0x50
 15215 05d6 00000000 		.4byte	0
 15216 05da 00000000 		.4byte	0
 15217              	.LLST35:
 15218 05de 06000000 		.4byte	.LVL166
 15219 05e2 0A000000 		.4byte	.LVL167
 15220 05e6 0200     		.2byte	0x2
 15221 05e8 30       		.byte	0x30
 15222 05e9 9F       		.byte	0x9f
 15223 05ea 0A000000 		.4byte	.LVL167
 15224 05ee 1A000000 		.4byte	.LVL168
 15225 05f2 0100     		.2byte	0x1
 15226 05f4 53       		.byte	0x53
 15227 05f5 1C000000 		.4byte	.LVL169
 15228 05f9 23000000 		.4byte	.LVL170-1
 15229 05fd 0100     		.2byte	0x1
 15230 05ff 53       		.byte	0x53
 15231 0600 00000000 		.4byte	0
 15232 0604 00000000 		.4byte	0
 15233              	.LLST36:
 15234 0608 00000000 		.4byte	.LVL171
 15235 060c 04000000 		.4byte	.LVL172
 15236 0610 0100     		.2byte	0x1
 15237 0612 50       		.byte	0x50
 15238 0613 04000000 		.4byte	.LVL172
 15239 0617 38000000 		.4byte	.LFE79
 15240 061b 0400     		.2byte	0x4
 15241 061d F3       		.byte	0xf3
 15242 061e 01       		.uleb128 0x1
 15243 061f 50       		.byte	0x50
 15244 0620 9F       		.byte	0x9f
 15245 0621 00000000 		.4byte	0
 15246 0625 00000000 		.4byte	0
 15247              	.LLST37:
 15248 0629 02000000 		.4byte	.LVL177
 15249 062d 06000000 		.4byte	.LVL178
 15250 0631 0200     		.2byte	0x2
 15251 0633 31       		.byte	0x31
 15252 0634 9F       		.byte	0x9f
ARM GAS  C:\Users\FRANKL~1\AppData\Local\Temp\ccba5qpo.s 			page 305


 15253 0635 06000000 		.4byte	.LVL178
 15254 0639 0E000000 		.4byte	.LVL180
 15255 063d 0100     		.2byte	0x1
 15256 063f 54       		.byte	0x54
 15257 0640 10000000 		.4byte	.LVL181
 15258 0644 16000000 		.4byte	.LFE80
 15259 0648 0100     		.2byte	0x1
 15260 064a 54       		.byte	0x54
 15261 064b 00000000 		.4byte	0
 15262 064f 00000000 		.4byte	0
 15263              	.LLST38:
 15264 0653 00000000 		.4byte	.LVL182
 15265 0657 08000000 		.4byte	.LVL183
 15266 065b 0100     		.2byte	0x1
 15267 065d 50       		.byte	0x50
 15268 065e 08000000 		.4byte	.LVL183
 15269 0662 0D000000 		.4byte	.LVL184-1
 15270 0666 0500     		.2byte	0x5
 15271 0668 03       		.byte	0x3
 15272 0669 00000000 		.4byte	TIA_Selected_Resistor
 15273 066d 0D000000 		.4byte	.LVL184-1
 15274 0671 14000000 		.4byte	.LFE81
 15275 0675 0400     		.2byte	0x4
 15276 0677 F3       		.byte	0xf3
 15277 0678 01       		.uleb128 0x1
 15278 0679 50       		.byte	0x50
 15279 067a 9F       		.byte	0x9f
 15280 067b 00000000 		.4byte	0
 15281 067f 00000000 		.4byte	0
 15282              	.LLST39:
 15283 0683 00000000 		.4byte	.LVL199
 15284 0687 16000000 		.4byte	.LVL201
 15285 068b 0100     		.2byte	0x1
 15286 068d 50       		.byte	0x50
 15287 068e 16000000 		.4byte	.LVL201
 15288 0692 B2000000 		.4byte	.LVL229
 15289 0696 0200     		.2byte	0x2
 15290 0698 7D       		.byte	0x7d
 15291 0699 00       		.sleb128 0
 15292 069a B2000000 		.4byte	.LVL229
 15293 069e B6000000 		.4byte	.LFE84
 15294 06a2 0200     		.2byte	0x2
 15295 06a4 91       		.byte	0x91
 15296 06a5 50       		.sleb128 -48
 15297 06a6 00000000 		.4byte	0
 15298 06aa 00000000 		.4byte	0
 15299              	.LLST40:
 15300 06ae 00000000 		.4byte	.LVL199
 15301 06b2 16000000 		.4byte	.LVL201
 15302 06b6 0100     		.2byte	0x1
 15303 06b8 51       		.byte	0x51
 15304 06b9 16000000 		.4byte	.LVL201
 15305 06bd B6000000 		.4byte	.LFE84
 15306 06c1 0200     		.2byte	0x2
 15307 06c3 91       		.byte	0x91
 15308 06c4 54       		.sleb128 -44
 15309 06c5 00000000 		.4byte	0
ARM GAS  C:\Users\FRANKL~1\AppData\Local\Temp\ccba5qpo.s 			page 306


 15310 06c9 00000000 		.4byte	0
 15311              	.LLST41:
 15312 06cd 00000000 		.4byte	.LVL199
 15313 06d1 16000000 		.4byte	.LVL201
 15314 06d5 0100     		.2byte	0x1
 15315 06d7 52       		.byte	0x52
 15316 06d8 16000000 		.4byte	.LVL201
 15317 06dc B6000000 		.4byte	.LFE84
 15318 06e0 0100     		.2byte	0x1
 15319 06e2 5B       		.byte	0x5b
 15320 06e3 00000000 		.4byte	0
 15321 06e7 00000000 		.4byte	0
 15322              	.LLST42:
 15323 06eb 0C000000 		.4byte	.LVL200
 15324 06ef 16000000 		.4byte	.LVL201
 15325 06f3 0200     		.2byte	0x2
 15326 06f5 30       		.byte	0x30
 15327 06f6 9F       		.byte	0x9f
 15328 06f7 16000000 		.4byte	.LVL201
 15329 06fb 84000000 		.4byte	.LVL222
 15330 06ff 0100     		.2byte	0x1
 15331 0701 55       		.byte	0x55
 15332 0702 A0000000 		.4byte	.LVL227
 15333 0706 A2000000 		.4byte	.LVL228
 15334 070a 0100     		.2byte	0x1
 15335 070c 50       		.byte	0x50
 15336 070d A2000000 		.4byte	.LVL228
 15337 0711 B6000000 		.4byte	.LFE84
 15338 0715 0100     		.2byte	0x1
 15339 0717 55       		.byte	0x55
 15340 0718 00000000 		.4byte	0
 15341 071c 00000000 		.4byte	0
 15342              	.LLST43:
 15343 0720 0C000000 		.4byte	.LVL200
 15344 0724 16000000 		.4byte	.LVL201
 15345 0728 0200     		.2byte	0x2
 15346 072a 30       		.byte	0x30
 15347 072b 9F       		.byte	0x9f
 15348 072c 16000000 		.4byte	.LVL201
 15349 0730 74000000 		.4byte	.LVL217
 15350 0734 0100     		.2byte	0x1
 15351 0736 59       		.byte	0x59
 15352 0737 74000000 		.4byte	.LVL217
 15353 073b 76000000 		.4byte	.LVL218
 15354 073f 0100     		.2byte	0x1
 15355 0741 50       		.byte	0x50
 15356 0742 76000000 		.4byte	.LVL218
 15357 0746 B6000000 		.4byte	.LFE84
 15358 074a 0100     		.2byte	0x1
 15359 074c 59       		.byte	0x59
 15360 074d 00000000 		.4byte	0
 15361 0751 00000000 		.4byte	0
 15362              	.LLST44:
 15363 0755 0C000000 		.4byte	.LVL200
 15364 0759 16000000 		.4byte	.LVL201
 15365 075d 0200     		.2byte	0x2
 15366 075f 31       		.byte	0x31
ARM GAS  C:\Users\FRANKL~1\AppData\Local\Temp\ccba5qpo.s 			page 307


 15367 0760 9F       		.byte	0x9f
 15368 0761 16000000 		.4byte	.LVL201
 15369 0765 B6000000 		.4byte	.LFE84
 15370 0769 0100     		.2byte	0x1
 15371 076b 54       		.byte	0x54
 15372 076c 00000000 		.4byte	0
 15373 0770 00000000 		.4byte	0
 15374              	.LLST45:
 15375 0774 2E000000 		.4byte	.LVL206
 15376 0778 30000000 		.4byte	.LVL207
 15377 077c 0100     		.2byte	0x1
 15378 077e 50       		.byte	0x50
 15379 077f 30000000 		.4byte	.LVL207
 15380 0783 7C000000 		.4byte	.LVL220
 15381 0787 0100     		.2byte	0x1
 15382 0789 57       		.byte	0x57
 15383 078a 00000000 		.4byte	0
 15384 078e 00000000 		.4byte	0
 15385              	.LLST46:
 15386 0792 00000000 		.4byte	.LVL230
 15387 0796 16000000 		.4byte	.LVL232
 15388 079a 0100     		.2byte	0x1
 15389 079c 50       		.byte	0x50
 15390 079d 16000000 		.4byte	.LVL232
 15391 07a1 B2000000 		.4byte	.LVL260
 15392 07a5 0200     		.2byte	0x2
 15393 07a7 7D       		.byte	0x7d
 15394 07a8 00       		.sleb128 0
 15395 07a9 B2000000 		.4byte	.LVL260
 15396 07ad B6000000 		.4byte	.LFE85
 15397 07b1 0200     		.2byte	0x2
 15398 07b3 91       		.byte	0x91
 15399 07b4 50       		.sleb128 -48
 15400 07b5 00000000 		.4byte	0
 15401 07b9 00000000 		.4byte	0
 15402              	.LLST47:
 15403 07bd 00000000 		.4byte	.LVL230
 15404 07c1 16000000 		.4byte	.LVL232
 15405 07c5 0100     		.2byte	0x1
 15406 07c7 51       		.byte	0x51
 15407 07c8 16000000 		.4byte	.LVL232
 15408 07cc B6000000 		.4byte	.LFE85
 15409 07d0 0200     		.2byte	0x2
 15410 07d2 91       		.byte	0x91
 15411 07d3 54       		.sleb128 -44
 15412 07d4 00000000 		.4byte	0
 15413 07d8 00000000 		.4byte	0
 15414              	.LLST48:
 15415 07dc 00000000 		.4byte	.LVL230
 15416 07e0 16000000 		.4byte	.LVL232
 15417 07e4 0100     		.2byte	0x1
 15418 07e6 52       		.byte	0x52
 15419 07e7 16000000 		.4byte	.LVL232
 15420 07eb B6000000 		.4byte	.LFE85
 15421 07ef 0100     		.2byte	0x1
 15422 07f1 5B       		.byte	0x5b
 15423 07f2 00000000 		.4byte	0
ARM GAS  C:\Users\FRANKL~1\AppData\Local\Temp\ccba5qpo.s 			page 308


 15424 07f6 00000000 		.4byte	0
 15425              	.LLST49:
 15426 07fa 0C000000 		.4byte	.LVL231
 15427 07fe 16000000 		.4byte	.LVL232
 15428 0802 0200     		.2byte	0x2
 15429 0804 30       		.byte	0x30
 15430 0805 9F       		.byte	0x9f
 15431 0806 16000000 		.4byte	.LVL232
 15432 080a 84000000 		.4byte	.LVL253
 15433 080e 0100     		.2byte	0x1
 15434 0810 55       		.byte	0x55
 15435 0811 A0000000 		.4byte	.LVL258
 15436 0815 A2000000 		.4byte	.LVL259
 15437 0819 0100     		.2byte	0x1
 15438 081b 50       		.byte	0x50
 15439 081c A2000000 		.4byte	.LVL259
 15440 0820 B6000000 		.4byte	.LFE85
 15441 0824 0100     		.2byte	0x1
 15442 0826 55       		.byte	0x55
 15443 0827 00000000 		.4byte	0
 15444 082b 00000000 		.4byte	0
 15445              	.LLST50:
 15446 082f 0C000000 		.4byte	.LVL231
 15447 0833 16000000 		.4byte	.LVL232
 15448 0837 0200     		.2byte	0x2
 15449 0839 30       		.byte	0x30
 15450 083a 9F       		.byte	0x9f
 15451 083b 16000000 		.4byte	.LVL232
 15452 083f 74000000 		.4byte	.LVL248
 15453 0843 0100     		.2byte	0x1
 15454 0845 59       		.byte	0x59
 15455 0846 74000000 		.4byte	.LVL248
 15456 084a 76000000 		.4byte	.LVL249
 15457 084e 0100     		.2byte	0x1
 15458 0850 50       		.byte	0x50
 15459 0851 76000000 		.4byte	.LVL249
 15460 0855 B6000000 		.4byte	.LFE85
 15461 0859 0100     		.2byte	0x1
 15462 085b 59       		.byte	0x59
 15463 085c 00000000 		.4byte	0
 15464 0860 00000000 		.4byte	0
 15465              	.LLST51:
 15466 0864 0C000000 		.4byte	.LVL231
 15467 0868 16000000 		.4byte	.LVL232
 15468 086c 0200     		.2byte	0x2
 15469 086e 31       		.byte	0x31
 15470 086f 9F       		.byte	0x9f
 15471 0870 16000000 		.4byte	.LVL232
 15472 0874 B6000000 		.4byte	.LFE85
 15473 0878 0100     		.2byte	0x1
 15474 087a 54       		.byte	0x54
 15475 087b 00000000 		.4byte	0
 15476 087f 00000000 		.4byte	0
 15477              	.LLST52:
 15478 0883 2E000000 		.4byte	.LVL237
 15479 0887 30000000 		.4byte	.LVL238
 15480 088b 0100     		.2byte	0x1
ARM GAS  C:\Users\FRANKL~1\AppData\Local\Temp\ccba5qpo.s 			page 309


 15481 088d 50       		.byte	0x50
 15482 088e 30000000 		.4byte	.LVL238
 15483 0892 7C000000 		.4byte	.LVL251
 15484 0896 0100     		.2byte	0x1
 15485 0898 57       		.byte	0x57
 15486 0899 00000000 		.4byte	0
 15487 089d 00000000 		.4byte	0
 15488              	.LLST53:
 15489 08a1 00000000 		.4byte	.LVL261
 15490 08a5 16000000 		.4byte	.LVL263
 15491 08a9 0100     		.2byte	0x1
 15492 08ab 50       		.byte	0x50
 15493 08ac 16000000 		.4byte	.LVL263
 15494 08b0 B2000000 		.4byte	.LVL291
 15495 08b4 0200     		.2byte	0x2
 15496 08b6 7D       		.byte	0x7d
 15497 08b7 00       		.sleb128 0
 15498 08b8 B2000000 		.4byte	.LVL291
 15499 08bc B6000000 		.4byte	.LFE86
 15500 08c0 0200     		.2byte	0x2
 15501 08c2 91       		.byte	0x91
 15502 08c3 50       		.sleb128 -48
 15503 08c4 00000000 		.4byte	0
 15504 08c8 00000000 		.4byte	0
 15505              	.LLST54:
 15506 08cc 00000000 		.4byte	.LVL261
 15507 08d0 16000000 		.4byte	.LVL263
 15508 08d4 0100     		.2byte	0x1
 15509 08d6 51       		.byte	0x51
 15510 08d7 16000000 		.4byte	.LVL263
 15511 08db B6000000 		.4byte	.LFE86
 15512 08df 0200     		.2byte	0x2
 15513 08e1 91       		.byte	0x91
 15514 08e2 54       		.sleb128 -44
 15515 08e3 00000000 		.4byte	0
 15516 08e7 00000000 		.4byte	0
 15517              	.LLST55:
 15518 08eb 00000000 		.4byte	.LVL261
 15519 08ef 16000000 		.4byte	.LVL263
 15520 08f3 0100     		.2byte	0x1
 15521 08f5 52       		.byte	0x52
 15522 08f6 16000000 		.4byte	.LVL263
 15523 08fa B6000000 		.4byte	.LFE86
 15524 08fe 0100     		.2byte	0x1
 15525 0900 5B       		.byte	0x5b
 15526 0901 00000000 		.4byte	0
 15527 0905 00000000 		.4byte	0
 15528              	.LLST56:
 15529 0909 0C000000 		.4byte	.LVL262
 15530 090d 16000000 		.4byte	.LVL263
 15531 0911 0200     		.2byte	0x2
 15532 0913 30       		.byte	0x30
 15533 0914 9F       		.byte	0x9f
 15534 0915 16000000 		.4byte	.LVL263
 15535 0919 84000000 		.4byte	.LVL284
 15536 091d 0100     		.2byte	0x1
 15537 091f 55       		.byte	0x55
ARM GAS  C:\Users\FRANKL~1\AppData\Local\Temp\ccba5qpo.s 			page 310


 15538 0920 A0000000 		.4byte	.LVL289
 15539 0924 A2000000 		.4byte	.LVL290
 15540 0928 0100     		.2byte	0x1
 15541 092a 50       		.byte	0x50
 15542 092b A2000000 		.4byte	.LVL290
 15543 092f B6000000 		.4byte	.LFE86
 15544 0933 0100     		.2byte	0x1
 15545 0935 55       		.byte	0x55
 15546 0936 00000000 		.4byte	0
 15547 093a 00000000 		.4byte	0
 15548              	.LLST57:
 15549 093e 0C000000 		.4byte	.LVL262
 15550 0942 16000000 		.4byte	.LVL263
 15551 0946 0200     		.2byte	0x2
 15552 0948 30       		.byte	0x30
 15553 0949 9F       		.byte	0x9f
 15554 094a 16000000 		.4byte	.LVL263
 15555 094e 74000000 		.4byte	.LVL279
 15556 0952 0100     		.2byte	0x1
 15557 0954 59       		.byte	0x59
 15558 0955 74000000 		.4byte	.LVL279
 15559 0959 76000000 		.4byte	.LVL280
 15560 095d 0100     		.2byte	0x1
 15561 095f 50       		.byte	0x50
 15562 0960 76000000 		.4byte	.LVL280
 15563 0964 B6000000 		.4byte	.LFE86
 15564 0968 0100     		.2byte	0x1
 15565 096a 59       		.byte	0x59
 15566 096b 00000000 		.4byte	0
 15567 096f 00000000 		.4byte	0
 15568              	.LLST58:
 15569 0973 0C000000 		.4byte	.LVL262
 15570 0977 16000000 		.4byte	.LVL263
 15571 097b 0200     		.2byte	0x2
 15572 097d 31       		.byte	0x31
 15573 097e 9F       		.byte	0x9f
 15574 097f 16000000 		.4byte	.LVL263
 15575 0983 B6000000 		.4byte	.LFE86
 15576 0987 0100     		.2byte	0x1
 15577 0989 54       		.byte	0x54
 15578 098a 00000000 		.4byte	0
 15579 098e 00000000 		.4byte	0
 15580              	.LLST59:
 15581 0992 2E000000 		.4byte	.LVL268
 15582 0996 30000000 		.4byte	.LVL269
 15583 099a 0100     		.2byte	0x1
 15584 099c 50       		.byte	0x50
 15585 099d 30000000 		.4byte	.LVL269
 15586 09a1 7C000000 		.4byte	.LVL282
 15587 09a5 0100     		.2byte	0x1
 15588 09a7 57       		.byte	0x57
 15589 09a8 00000000 		.4byte	0
 15590 09ac 00000000 		.4byte	0
 15591              	.LLST60:
 15592 09b0 00000000 		.4byte	.LVL292
 15593 09b4 24000000 		.4byte	.LVL296
 15594 09b8 0100     		.2byte	0x1
ARM GAS  C:\Users\FRANKL~1\AppData\Local\Temp\ccba5qpo.s 			page 311


 15595 09ba 50       		.byte	0x50
 15596 09bb 24000000 		.4byte	.LVL296
 15597 09bf 24010000 		.4byte	.LVL329
 15598 09c3 0200     		.2byte	0x2
 15599 09c5 91       		.byte	0x91
 15600 09c6 48       		.sleb128 -56
 15601 09c7 24010000 		.4byte	.LVL329
 15602 09cb 44010000 		.4byte	.LFE87
 15603 09cf 0200     		.2byte	0x2
 15604 09d1 7D       		.byte	0x7d
 15605 09d2 48       		.sleb128 -56
 15606 09d3 00000000 		.4byte	0
 15607 09d7 00000000 		.4byte	0
 15608              	.LLST61:
 15609 09db 00000000 		.4byte	.LVL292
 15610 09df 27000000 		.4byte	.LVL297-1
 15611 09e3 0100     		.2byte	0x1
 15612 09e5 51       		.byte	0x51
 15613 09e6 27000000 		.4byte	.LVL297-1
 15614 09ea 24010000 		.4byte	.LVL329
 15615 09ee 0200     		.2byte	0x2
 15616 09f0 91       		.byte	0x91
 15617 09f1 4C       		.sleb128 -52
 15618 09f2 24010000 		.4byte	.LVL329
 15619 09f6 44010000 		.4byte	.LFE87
 15620 09fa 0200     		.2byte	0x2
 15621 09fc 7D       		.byte	0x7d
 15622 09fd 4C       		.sleb128 -52
 15623 09fe 00000000 		.4byte	0
 15624 0a02 00000000 		.4byte	0
 15625              	.LLST62:
 15626 0a06 00000000 		.4byte	.LVL292
 15627 0a0a 10000000 		.4byte	.LVL293
 15628 0a0e 0100     		.2byte	0x1
 15629 0a10 52       		.byte	0x52
 15630 0a11 10000000 		.4byte	.LVL293
 15631 0a15 24010000 		.4byte	.LVL329
 15632 0a19 0100     		.2byte	0x1
 15633 0a1b 5B       		.byte	0x5b
 15634 0a1c 24010000 		.4byte	.LVL329
 15635 0a20 44010000 		.4byte	.LFE87
 15636 0a24 0400     		.2byte	0x4
 15637 0a26 F3       		.byte	0xf3
 15638 0a27 01       		.uleb128 0x1
 15639 0a28 52       		.byte	0x52
 15640 0a29 9F       		.byte	0x9f
 15641 0a2a 00000000 		.4byte	0
 15642 0a2e 00000000 		.4byte	0
 15643              	.LLST63:
 15644 0a32 1A000000 		.4byte	.LVL294
 15645 0a36 50000000 		.4byte	.LVL303
 15646 0a3a 0600     		.2byte	0x6
 15647 0a3c 9E       		.byte	0x9e
 15648 0a3d 04       		.uleb128 0x4
 15649 0a3e 00000000 		.4byte	0
 15650 0a42 6A000000 		.4byte	.LVL307
 15651 0a46 6D000000 		.4byte	.LVL308-1
ARM GAS  C:\Users\FRANKL~1\AppData\Local\Temp\ccba5qpo.s 			page 312


 15652 0a4a 0100     		.2byte	0x1
 15653 0a4c 50       		.byte	0x50
 15654 0a4d 6D000000 		.4byte	.LVL308-1
 15655 0a51 C2000000 		.4byte	.LVL316
 15656 0a55 0100     		.2byte	0x1
 15657 0a57 55       		.byte	0x55
 15658 0a58 00000000 		.4byte	0
 15659 0a5c 00000000 		.4byte	0
 15660              	.LLST64:
 15661 0a60 1A000000 		.4byte	.LVL294
 15662 0a64 50000000 		.4byte	.LVL303
 15663 0a68 0600     		.2byte	0x6
 15664 0a6a 9E       		.byte	0x9e
 15665 0a6b 04       		.uleb128 0x4
 15666 0a6c 00000000 		.4byte	0
 15667 0a70 50000000 		.4byte	.LVL303
 15668 0a74 0C010000 		.4byte	.LVL327
 15669 0a78 0100     		.2byte	0x1
 15670 0a7a 59       		.byte	0x59
 15671 0a7b 0C010000 		.4byte	.LVL327
 15672 0a7f 0E010000 		.4byte	.LVL328
 15673 0a83 0100     		.2byte	0x1
 15674 0a85 50       		.byte	0x50
 15675 0a86 0E010000 		.4byte	.LVL328
 15676 0a8a 24010000 		.4byte	.LVL329
 15677 0a8e 0100     		.2byte	0x1
 15678 0a90 59       		.byte	0x59
 15679 0a91 00000000 		.4byte	0
 15680 0a95 00000000 		.4byte	0
 15681              	.LLST65:
 15682 0a99 1A000000 		.4byte	.LVL294
 15683 0a9d 50000000 		.4byte	.LVL303
 15684 0aa1 0600     		.2byte	0x6
 15685 0aa3 9E       		.byte	0x9e
 15686 0aa4 04       		.uleb128 0x4
 15687 0aa5 00000000 		.4byte	0
 15688 0aa9 50000000 		.4byte	.LVL303
 15689 0aad FA000000 		.4byte	.LVL323
 15690 0ab1 0100     		.2byte	0x1
 15691 0ab3 58       		.byte	0x58
 15692 0ab4 FA000000 		.4byte	.LVL323
 15693 0ab8 FE000000 		.4byte	.LVL324
 15694 0abc 0100     		.2byte	0x1
 15695 0abe 50       		.byte	0x50
 15696 0abf FE000000 		.4byte	.LVL324
 15697 0ac3 24010000 		.4byte	.LVL329
 15698 0ac7 0100     		.2byte	0x1
 15699 0ac9 58       		.byte	0x58
 15700 0aca 24010000 		.4byte	.LVL329
 15701 0ace 44010000 		.4byte	.LFE87
 15702 0ad2 0200     		.2byte	0x2
 15703 0ad4 73       		.byte	0x73
 15704 0ad5 00       		.sleb128 0
 15705 0ad6 00000000 		.4byte	0
 15706 0ada 00000000 		.4byte	0
 15707              	.LLST66:
 15708 0ade 22000000 		.4byte	.LVL295
ARM GAS  C:\Users\FRANKL~1\AppData\Local\Temp\ccba5qpo.s 			page 313


 15709 0ae2 27000000 		.4byte	.LVL297-1
 15710 0ae6 0200     		.2byte	0x2
 15711 0ae8 73       		.byte	0x73
 15712 0ae9 0C       		.sleb128 12
 15713 0aea 00000000 		.4byte	0
 15714 0aee 00000000 		.4byte	0
 15715              	.LLST67:
 15716 0af2 3C000000 		.4byte	.LVL300
 15717 0af6 42000000 		.4byte	.LVL301
 15718 0afa 0100     		.2byte	0x1
 15719 0afc 50       		.byte	0x50
 15720 0afd 42000000 		.4byte	.LVL301
 15721 0b01 24010000 		.4byte	.LVL329
 15722 0b05 0200     		.2byte	0x2
 15723 0b07 91       		.byte	0x91
 15724 0b08 44       		.sleb128 -60
 15725 0b09 24010000 		.4byte	.LVL329
 15726 0b0d 44010000 		.4byte	.LFE87
 15727 0b11 0200     		.2byte	0x2
 15728 0b13 7D       		.byte	0x7d
 15729 0b14 44       		.sleb128 -60
 15730 0b15 00000000 		.4byte	0
 15731 0b19 00000000 		.4byte	0
 15732              	.LLST68:
 15733 0b1d 46000000 		.4byte	.LVL302
 15734 0b21 50000000 		.4byte	.LVL303
 15735 0b25 0200     		.2byte	0x2
 15736 0b27 31       		.byte	0x31
 15737 0b28 9F       		.byte	0x9f
 15738 0b29 50000000 		.4byte	.LVL303
 15739 0b2d 24010000 		.4byte	.LVL329
 15740 0b31 0100     		.2byte	0x1
 15741 0b33 54       		.byte	0x54
 15742 0b34 00000000 		.4byte	0
 15743 0b38 00000000 		.4byte	0
 15744              	.LLST69:
 15745 0b3c 08000000 		.4byte	.LVL334
 15746 0b40 1C000000 		.4byte	.LVL337
 15747 0b44 0100     		.2byte	0x1
 15748 0b46 54       		.byte	0x54
 15749 0b47 36000000 		.4byte	.LVL343
 15750 0b4b 4A000000 		.4byte	.LVL347
 15751 0b4f 0100     		.2byte	0x1
 15752 0b51 54       		.byte	0x54
 15753 0b52 00000000 		.4byte	0
 15754 0b56 00000000 		.4byte	0
 15755              	.LLST70:
 15756 0b5a 0E000000 		.4byte	.LVL335
 15757 0b5e 3A000000 		.4byte	.LVL344
 15758 0b62 0100     		.2byte	0x1
 15759 0b64 55       		.byte	0x55
 15760 0b65 3C000000 		.4byte	.LVL345
 15761 0b69 60000000 		.4byte	.LVL353
 15762 0b6d 0100     		.2byte	0x1
 15763 0b6f 55       		.byte	0x55
 15764 0b70 00000000 		.4byte	0
 15765 0b74 00000000 		.4byte	0
ARM GAS  C:\Users\FRANKL~1\AppData\Local\Temp\ccba5qpo.s 			page 314


 15766              	.LLST71:
 15767 0b78 0E000000 		.4byte	.LVL335
 15768 0b7c 1A000000 		.4byte	.LVL336
 15769 0b80 0200     		.2byte	0x2
 15770 0b82 31       		.byte	0x31
 15771 0b83 9F       		.byte	0x9f
 15772 0b84 1A000000 		.4byte	.LVL336
 15773 0b88 1C000000 		.4byte	.LVL337
 15774 0b8c 0100     		.2byte	0x1
 15775 0b8e 56       		.byte	0x56
 15776 0b8f 3C000000 		.4byte	.LVL345
 15777 0b93 48000000 		.4byte	.LVL346
 15778 0b97 0200     		.2byte	0x2
 15779 0b99 31       		.byte	0x31
 15780 0b9a 9F       		.byte	0x9f
 15781 0b9b 48000000 		.4byte	.LVL346
 15782 0b9f 4A000000 		.4byte	.LVL347
 15783 0ba3 0100     		.2byte	0x1
 15784 0ba5 56       		.byte	0x56
 15785 0ba6 00000000 		.4byte	0
 15786 0baa 00000000 		.4byte	0
 15787              	.LLST72:
 15788 0bae 1A000000 		.4byte	.LVL336
 15789 0bb2 2A000000 		.4byte	.LVL340
 15790 0bb6 0100     		.2byte	0x1
 15791 0bb8 54       		.byte	0x54
 15792 0bb9 2C000000 		.4byte	.LVL341
 15793 0bbd 34000000 		.4byte	.LVL342
 15794 0bc1 0100     		.2byte	0x1
 15795 0bc3 54       		.byte	0x54
 15796 0bc4 00000000 		.4byte	0
 15797 0bc8 00000000 		.4byte	0
 15798              	.LLST73:
 15799 0bcc 48000000 		.4byte	.LVL346
 15800 0bd0 58000000 		.4byte	.LVL350
 15801 0bd4 0100     		.2byte	0x1
 15802 0bd6 54       		.byte	0x54
 15803 0bd7 5A000000 		.4byte	.LVL351
 15804 0bdb 5E000000 		.4byte	.LVL352
 15805 0bdf 0100     		.2byte	0x1
 15806 0be1 54       		.byte	0x54
 15807 0be2 00000000 		.4byte	0
 15808 0be6 00000000 		.4byte	0
 15809              	.LLST74:
 15810 0bea 00000000 		.4byte	.LVL369
 15811 0bee 26000000 		.4byte	.LVL372
 15812 0bf2 0100     		.2byte	0x1
 15813 0bf4 50       		.byte	0x50
 15814 0bf5 26000000 		.4byte	.LVL372
 15815 0bf9 74000000 		.4byte	.LFE93
 15816 0bfd 0400     		.2byte	0x4
 15817 0bff F3       		.byte	0xf3
 15818 0c00 01       		.uleb128 0x1
 15819 0c01 50       		.byte	0x50
 15820 0c02 9F       		.byte	0x9f
 15821 0c03 00000000 		.4byte	0
 15822 0c07 00000000 		.4byte	0
ARM GAS  C:\Users\FRANKL~1\AppData\Local\Temp\ccba5qpo.s 			page 315


 15823              	.LLST75:
 15824 0c0b 16000000 		.4byte	.LVL370
 15825 0c0f 66000000 		.4byte	.LVL387
 15826 0c13 0100     		.2byte	0x1
 15827 0c15 55       		.byte	0x55
 15828 0c16 00000000 		.4byte	0
 15829 0c1a 00000000 		.4byte	0
 15830              	.LLST76:
 15831 0c1e 16000000 		.4byte	.LVL370
 15832 0c22 22000000 		.4byte	.LVL371
 15833 0c26 0200     		.2byte	0x2
 15834 0c28 31       		.byte	0x31
 15835 0c29 9F       		.byte	0x9f
 15836 0c2a 22000000 		.4byte	.LVL371
 15837 0c2e 66000000 		.4byte	.LVL387
 15838 0c32 0100     		.2byte	0x1
 15839 0c34 56       		.byte	0x56
 15840 0c35 00000000 		.4byte	0
 15841 0c39 00000000 		.4byte	0
 15842              	.LLST77:
 15843 0c3d 22000000 		.4byte	.LVL371
 15844 0c41 26000000 		.4byte	.LVL372
 15845 0c45 0200     		.2byte	0x2
 15846 0c47 30       		.byte	0x30
 15847 0c48 9F       		.byte	0x9f
 15848 0c49 26000000 		.4byte	.LVL372
 15849 0c4d 5C000000 		.4byte	.LVL385
 15850 0c51 0100     		.2byte	0x1
 15851 0c53 57       		.byte	0x57
 15852 0c54 5E000000 		.4byte	.LVL386
 15853 0c58 66000000 		.4byte	.LVL387
 15854 0c5c 0100     		.2byte	0x1
 15855 0c5e 57       		.byte	0x57
 15856 0c5f 00000000 		.4byte	0
 15857 0c63 00000000 		.4byte	0
 15858              	.LLST78:
 15859 0c67 2E000000 		.4byte	.LVL374
 15860 0c6b 3C000000 		.4byte	.LVL377
 15861 0c6f 0100     		.2byte	0x1
 15862 0c71 54       		.byte	0x54
 15863 0c72 3E000000 		.4byte	.LVL378
 15864 0c76 40000000 		.4byte	.LVL379
 15865 0c7a 0100     		.2byte	0x1
 15866 0c7c 54       		.byte	0x54
 15867 0c7d 42000000 		.4byte	.LVL380
 15868 0c81 54000000 		.4byte	.LVL383
 15869 0c85 0100     		.2byte	0x1
 15870 0c87 54       		.byte	0x54
 15871 0c88 00000000 		.4byte	0
 15872 0c8c 00000000 		.4byte	0
 15873              	.LLST79:
 15874 0c90 00000000 		.4byte	.LVL388
 15875 0c94 26000000 		.4byte	.LVL392
 15876 0c98 0100     		.2byte	0x1
 15877 0c9a 50       		.byte	0x50
 15878 0c9b 26000000 		.4byte	.LVL392
 15879 0c9f 74000000 		.4byte	.LFE94
ARM GAS  C:\Users\FRANKL~1\AppData\Local\Temp\ccba5qpo.s 			page 316


 15880 0ca3 0400     		.2byte	0x4
 15881 0ca5 F3       		.byte	0xf3
 15882 0ca6 01       		.uleb128 0x1
 15883 0ca7 50       		.byte	0x50
 15884 0ca8 9F       		.byte	0x9f
 15885 0ca9 00000000 		.4byte	0
 15886 0cad 00000000 		.4byte	0
 15887              	.LLST80:
 15888 0cb1 10000000 		.4byte	.LVL389
 15889 0cb5 22000000 		.4byte	.LVL391
 15890 0cb9 0200     		.2byte	0x2
 15891 0cbb 31       		.byte	0x31
 15892 0cbc 9F       		.byte	0x9f
 15893 0cbd 22000000 		.4byte	.LVL391
 15894 0cc1 66000000 		.4byte	.LVL407
 15895 0cc5 0100     		.2byte	0x1
 15896 0cc7 56       		.byte	0x56
 15897 0cc8 00000000 		.4byte	0
 15898 0ccc 00000000 		.4byte	0
 15899              	.LLST81:
 15900 0cd0 16000000 		.4byte	.LVL390
 15901 0cd4 66000000 		.4byte	.LVL407
 15902 0cd8 0100     		.2byte	0x1
 15903 0cda 55       		.byte	0x55
 15904 0cdb 00000000 		.4byte	0
 15905 0cdf 00000000 		.4byte	0
 15906              	.LLST82:
 15907 0ce3 22000000 		.4byte	.LVL391
 15908 0ce7 26000000 		.4byte	.LVL392
 15909 0ceb 0100     		.2byte	0x1
 15910 0ced 55       		.byte	0x55
 15911 0cee 26000000 		.4byte	.LVL392
 15912 0cf2 5C000000 		.4byte	.LVL405
 15913 0cf6 0100     		.2byte	0x1
 15914 0cf8 57       		.byte	0x57
 15915 0cf9 5E000000 		.4byte	.LVL406
 15916 0cfd 66000000 		.4byte	.LVL407
 15917 0d01 0100     		.2byte	0x1
 15918 0d03 57       		.byte	0x57
 15919 0d04 00000000 		.4byte	0
 15920 0d08 00000000 		.4byte	0
 15921              	.LLST83:
 15922 0d0c 2E000000 		.4byte	.LVL394
 15923 0d10 3C000000 		.4byte	.LVL397
 15924 0d14 0100     		.2byte	0x1
 15925 0d16 54       		.byte	0x54
 15926 0d17 3E000000 		.4byte	.LVL398
 15927 0d1b 40000000 		.4byte	.LVL399
 15928 0d1f 0100     		.2byte	0x1
 15929 0d21 54       		.byte	0x54
 15930 0d22 42000000 		.4byte	.LVL400
 15931 0d26 54000000 		.4byte	.LVL403
 15932 0d2a 0100     		.2byte	0x1
 15933 0d2c 54       		.byte	0x54
 15934 0d2d 00000000 		.4byte	0
 15935 0d31 00000000 		.4byte	0
 15936              	.LLST84:
ARM GAS  C:\Users\FRANKL~1\AppData\Local\Temp\ccba5qpo.s 			page 317


 15937 0d35 00000000 		.4byte	.LVL408
 15938 0d39 0C000000 		.4byte	.LVL409
 15939 0d3d 0100     		.2byte	0x1
 15940 0d3f 50       		.byte	0x50
 15941 0d40 0C000000 		.4byte	.LVL409
 15942 0d44 76000000 		.4byte	.LVL424
 15943 0d48 0100     		.2byte	0x1
 15944 0d4a 57       		.byte	0x57
 15945 0d4b 00000000 		.4byte	0
 15946 0d4f 00000000 		.4byte	0
 15947              	.LLST85:
 15948 0d53 0C000000 		.4byte	.LVL409
 15949 0d57 20000000 		.4byte	.LVL410
 15950 0d5b 0200     		.2byte	0x2
 15951 0d5d 31       		.byte	0x31
 15952 0d5e 9F       		.byte	0x9f
 15953 0d5f 20000000 		.4byte	.LVL410
 15954 0d63 76000000 		.4byte	.LVL424
 15955 0d67 0100     		.2byte	0x1
 15956 0d69 58       		.byte	0x58
 15957 0d6a 00000000 		.4byte	0
 15958 0d6e 00000000 		.4byte	0
 15959              	.LLST86:
 15960 0d72 26000000 		.4byte	.LVL411
 15961 0d76 6C000000 		.4byte	.LVL422
 15962 0d7a 0100     		.2byte	0x1
 15963 0d7c 56       		.byte	0x56
 15964 0d7d 6E000000 		.4byte	.LVL423
 15965 0d81 76000000 		.4byte	.LVL424
 15966 0d85 0100     		.2byte	0x1
 15967 0d87 56       		.byte	0x56
 15968 0d88 00000000 		.4byte	0
 15969 0d8c 00000000 		.4byte	0
 15970              	.LLST87:
 15971 0d90 38000000 		.4byte	.LVL413
 15972 0d94 6E000000 		.4byte	.LVL423
 15973 0d98 0100     		.2byte	0x1
 15974 0d9a 55       		.byte	0x55
 15975 0d9b 00000000 		.4byte	0
 15976 0d9f 00000000 		.4byte	0
 15977              	.LLST88:
 15978 0da3 40000000 		.4byte	.LVL414
 15979 0da7 6E000000 		.4byte	.LVL423
 15980 0dab 0100     		.2byte	0x1
 15981 0dad 54       		.byte	0x54
 15982 0dae 00000000 		.4byte	0
 15983 0db2 00000000 		.4byte	0
 15984              	.LLST89:
 15985 0db6 00000000 		.4byte	.LVL425
 15986 0dba 0A000000 		.4byte	.LVL426
 15987 0dbe 0100     		.2byte	0x1
 15988 0dc0 50       		.byte	0x50
 15989 0dc1 0A000000 		.4byte	.LVL426
 15990 0dc5 BA000000 		.4byte	.LVL451
 15991 0dc9 0100     		.2byte	0x1
 15992 0dcb 54       		.byte	0x54
 15993 0dcc 00000000 		.4byte	0
ARM GAS  C:\Users\FRANKL~1\AppData\Local\Temp\ccba5qpo.s 			page 318


 15994 0dd0 00000000 		.4byte	0
 15995              	.LLST90:
 15996 0dd4 20000000 		.4byte	.LVL428
 15997 0dd8 26000000 		.4byte	.LVL429
 15998 0ddc 0100     		.2byte	0x1
 15999 0dde 53       		.byte	0x53
 16000 0ddf 26000000 		.4byte	.LVL429
 16001 0de3 2A000000 		.4byte	.LVL430
 16002 0de7 0100     		.2byte	0x1
 16003 0de9 50       		.byte	0x50
 16004 0dea 3A000000 		.4byte	.LVL433
 16005 0dee 40000000 		.4byte	.LVL434
 16006 0df2 0100     		.2byte	0x1
 16007 0df4 53       		.byte	0x53
 16008 0df5 40000000 		.4byte	.LVL434
 16009 0df9 44000000 		.4byte	.LVL435
 16010 0dfd 0100     		.2byte	0x1
 16011 0dff 50       		.byte	0x50
 16012 0e00 52000000 		.4byte	.LVL438
 16013 0e04 57000000 		.4byte	.LVL439-1
 16014 0e08 0100     		.2byte	0x1
 16015 0e0a 53       		.byte	0x53
 16016 0e0b 00000000 		.4byte	0
 16017 0e0f 00000000 		.4byte	0
 16018              	.LLST91:
 16019 0e13 68000000 		.4byte	.LVL440
 16020 0e17 AC000000 		.4byte	.LVL447
 16021 0e1b 0100     		.2byte	0x1
 16022 0e1d 56       		.byte	0x56
 16023 0e1e 00000000 		.4byte	0
 16024 0e22 00000000 		.4byte	0
 16025              	.LLST92:
 16026 0e26 76000000 		.4byte	.LVL441
 16027 0e2a B2000000 		.4byte	.LVL448
 16028 0e2e 0100     		.2byte	0x1
 16029 0e30 50       		.byte	0x50
 16030 0e31 00000000 		.4byte	0
 16031 0e35 00000000 		.4byte	0
 16032              	.LLST93:
 16033 0e39 88000000 		.4byte	.LVL442
 16034 0e3d A0000000 		.4byte	.LVL445
 16035 0e41 0100     		.2byte	0x1
 16036 0e43 52       		.byte	0x52
 16037 0e44 00000000 		.4byte	0
 16038 0e48 00000000 		.4byte	0
 16039              	.LLST94:
 16040 0e4c 96000000 		.4byte	.LVL443
 16041 0e50 A6000000 		.4byte	.LVL446
 16042 0e54 0100     		.2byte	0x1
 16043 0e56 53       		.byte	0x53
 16044 0e57 00000000 		.4byte	0
 16045 0e5b 00000000 		.4byte	0
 16046              	.LLST95:
 16047 0e5f 9A000000 		.4byte	.LVL444
 16048 0e63 A0000000 		.4byte	.LVL445
 16049 0e67 0100     		.2byte	0x1
 16050 0e69 51       		.byte	0x51
ARM GAS  C:\Users\FRANKL~1\AppData\Local\Temp\ccba5qpo.s 			page 319


 16051 0e6a A0000000 		.4byte	.LVL445
 16052 0e6e A6000000 		.4byte	.LVL446
 16053 0e72 0100     		.2byte	0x1
 16054 0e74 52       		.byte	0x52
 16055 0e75 A6000000 		.4byte	.LVL446
 16056 0e79 AC000000 		.4byte	.LVL447
 16057 0e7d 0100     		.2byte	0x1
 16058 0e7f 53       		.byte	0x53
 16059 0e80 AC000000 		.4byte	.LVL447
 16060 0e84 B2000000 		.4byte	.LVL448
 16061 0e88 0100     		.2byte	0x1
 16062 0e8a 56       		.byte	0x56
 16063 0e8b B2000000 		.4byte	.LVL448
 16064 0e8f B4000000 		.4byte	.LVL449
 16065 0e93 0100     		.2byte	0x1
 16066 0e95 50       		.byte	0x50
 16067 0e96 00000000 		.4byte	0
 16068 0e9a 00000000 		.4byte	0
 16069              	.LLST96:
 16070 0e9e 00000000 		.4byte	.LVL452
 16071 0ea2 0A000000 		.4byte	.LVL453
 16072 0ea6 0100     		.2byte	0x1
 16073 0ea8 50       		.byte	0x50
 16074 0ea9 0A000000 		.4byte	.LVL453
 16075 0ead BA000000 		.4byte	.LVL478
 16076 0eb1 0100     		.2byte	0x1
 16077 0eb3 54       		.byte	0x54
 16078 0eb4 00000000 		.4byte	0
 16079 0eb8 00000000 		.4byte	0
 16080              	.LLST97:
 16081 0ebc 20000000 		.4byte	.LVL455
 16082 0ec0 26000000 		.4byte	.LVL456
 16083 0ec4 0100     		.2byte	0x1
 16084 0ec6 53       		.byte	0x53
 16085 0ec7 26000000 		.4byte	.LVL456
 16086 0ecb 2A000000 		.4byte	.LVL457
 16087 0ecf 0100     		.2byte	0x1
 16088 0ed1 50       		.byte	0x50
 16089 0ed2 3A000000 		.4byte	.LVL460
 16090 0ed6 40000000 		.4byte	.LVL461
 16091 0eda 0100     		.2byte	0x1
 16092 0edc 53       		.byte	0x53
 16093 0edd 40000000 		.4byte	.LVL461
 16094 0ee1 44000000 		.4byte	.LVL462
 16095 0ee5 0100     		.2byte	0x1
 16096 0ee7 50       		.byte	0x50
 16097 0ee8 52000000 		.4byte	.LVL465
 16098 0eec 57000000 		.4byte	.LVL466-1
 16099 0ef0 0100     		.2byte	0x1
 16100 0ef2 53       		.byte	0x53
 16101 0ef3 00000000 		.4byte	0
 16102 0ef7 00000000 		.4byte	0
 16103              	.LLST98:
 16104 0efb 6E000000 		.4byte	.LVL467
 16105 0eff A0000000 		.4byte	.LVL472
 16106 0f03 0100     		.2byte	0x1
 16107 0f05 52       		.byte	0x52
ARM GAS  C:\Users\FRANKL~1\AppData\Local\Temp\ccba5qpo.s 			page 320


 16108 0f06 00000000 		.4byte	0
 16109 0f0a 00000000 		.4byte	0
 16110              	.LLST99:
 16111 0f0e 7C000000 		.4byte	.LVL468
 16112 0f12 A6000000 		.4byte	.LVL473
 16113 0f16 0100     		.2byte	0x1
 16114 0f18 53       		.byte	0x53
 16115 0f19 00000000 		.4byte	0
 16116 0f1d 00000000 		.4byte	0
 16117              	.LLST100:
 16118 0f21 88000000 		.4byte	.LVL469
 16119 0f25 AC000000 		.4byte	.LVL474
 16120 0f29 0100     		.2byte	0x1
 16121 0f2b 56       		.byte	0x56
 16122 0f2c 00000000 		.4byte	0
 16123 0f30 00000000 		.4byte	0
 16124              	.LLST101:
 16125 0f34 96000000 		.4byte	.LVL470
 16126 0f38 B2000000 		.4byte	.LVL475
 16127 0f3c 0100     		.2byte	0x1
 16128 0f3e 50       		.byte	0x50
 16129 0f3f 00000000 		.4byte	0
 16130 0f43 00000000 		.4byte	0
 16131              	.LLST102:
 16132 0f47 9A000000 		.4byte	.LVL471
 16133 0f4b A0000000 		.4byte	.LVL472
 16134 0f4f 0100     		.2byte	0x1
 16135 0f51 51       		.byte	0x51
 16136 0f52 A0000000 		.4byte	.LVL472
 16137 0f56 A6000000 		.4byte	.LVL473
 16138 0f5a 0100     		.2byte	0x1
 16139 0f5c 52       		.byte	0x52
 16140 0f5d A6000000 		.4byte	.LVL473
 16141 0f61 AC000000 		.4byte	.LVL474
 16142 0f65 0100     		.2byte	0x1
 16143 0f67 53       		.byte	0x53
 16144 0f68 AC000000 		.4byte	.LVL474
 16145 0f6c B2000000 		.4byte	.LVL475
 16146 0f70 0100     		.2byte	0x1
 16147 0f72 56       		.byte	0x56
 16148 0f73 B2000000 		.4byte	.LVL475
 16149 0f77 B4000000 		.4byte	.LVL476
 16150 0f7b 0100     		.2byte	0x1
 16151 0f7d 50       		.byte	0x50
 16152 0f7e 00000000 		.4byte	0
 16153 0f82 00000000 		.4byte	0
 16154              	.LLST103:
 16155 0f86 00000000 		.4byte	.LVL479
 16156 0f8a 05000000 		.4byte	.LVL480-1
 16157 0f8e 0100     		.2byte	0x1
 16158 0f90 50       		.byte	0x50
 16159 0f91 05000000 		.4byte	.LVL480-1
 16160 0f95 38000000 		.4byte	.LFE98
 16161 0f99 0600     		.2byte	0x6
 16162 0f9b F3       		.byte	0xf3
 16163 0f9c 03       		.uleb128 0x3
 16164 0f9d F5       		.byte	0xf5
ARM GAS  C:\Users\FRANKL~1\AppData\Local\Temp\ccba5qpo.s 			page 321


 16165 0f9e 00       		.uleb128 0
 16166 0f9f 25       		.uleb128 0x25
 16167 0fa0 9F       		.byte	0x9f
 16168 0fa1 00000000 		.4byte	0
 16169 0fa5 00000000 		.4byte	0
 16170              	.LLST104:
 16171 0fa9 00000000 		.4byte	.LVL485
 16172 0fad 05000000 		.4byte	.LVL486-1
 16173 0fb1 0100     		.2byte	0x1
 16174 0fb3 50       		.byte	0x50
 16175 0fb4 05000000 		.4byte	.LVL486-1
 16176 0fb8 38000000 		.4byte	.LFE99
 16177 0fbc 0600     		.2byte	0x6
 16178 0fbe F3       		.byte	0xf3
 16179 0fbf 03       		.uleb128 0x3
 16180 0fc0 F5       		.byte	0xf5
 16181 0fc1 00       		.uleb128 0
 16182 0fc2 25       		.uleb128 0x25
 16183 0fc3 9F       		.byte	0x9f
 16184 0fc4 00000000 		.4byte	0
 16185 0fc8 00000000 		.4byte	0
 16186              	.LLST105:
 16187 0fcc 00000000 		.4byte	.LVL491
 16188 0fd0 07000000 		.4byte	.LVL492-1
 16189 0fd4 0100     		.2byte	0x1
 16190 0fd6 50       		.byte	0x50
 16191 0fd7 07000000 		.4byte	.LVL492-1
 16192 0fdb 14000000 		.4byte	.LFE100
 16193 0fdf 0600     		.2byte	0x6
 16194 0fe1 F3       		.byte	0xf3
 16195 0fe2 03       		.uleb128 0x3
 16196 0fe3 F5       		.byte	0xf5
 16197 0fe4 00       		.uleb128 0
 16198 0fe5 25       		.uleb128 0x25
 16199 0fe6 9F       		.byte	0x9f
 16200 0fe7 00000000 		.4byte	0
 16201 0feb 00000000 		.4byte	0
 16202              	.LLST106:
 16203 0fef 00000000 		.4byte	.LVL494
 16204 0ff3 07000000 		.4byte	.LVL495-1
 16205 0ff7 0100     		.2byte	0x1
 16206 0ff9 50       		.byte	0x50
 16207 0ffa 07000000 		.4byte	.LVL495-1
 16208 0ffe 14000000 		.4byte	.LFE101
 16209 1002 0600     		.2byte	0x6
 16210 1004 F3       		.byte	0xf3
 16211 1005 03       		.uleb128 0x3
 16212 1006 F5       		.byte	0xf5
 16213 1007 00       		.uleb128 0
 16214 1008 25       		.uleb128 0x25
 16215 1009 9F       		.byte	0x9f
 16216 100a 00000000 		.4byte	0
 16217 100e 00000000 		.4byte	0
 16218              	.LLST107:
 16219 1012 00000000 		.4byte	.LVL501
 16220 1016 12000000 		.4byte	.LVL503
 16221 101a 0100     		.2byte	0x1
ARM GAS  C:\Users\FRANKL~1\AppData\Local\Temp\ccba5qpo.s 			page 322


 16222 101c 50       		.byte	0x50
 16223 101d 12000000 		.4byte	.LVL503
 16224 1021 BC000000 		.4byte	.LVL523
 16225 1025 0100     		.2byte	0x1
 16226 1027 57       		.byte	0x57
 16227 1028 BC000000 		.4byte	.LVL523
 16228 102c D0000000 		.4byte	.LFE103
 16229 1030 0400     		.2byte	0x4
 16230 1032 F3       		.byte	0xf3
 16231 1033 01       		.uleb128 0x1
 16232 1034 50       		.byte	0x50
 16233 1035 9F       		.byte	0x9f
 16234 1036 00000000 		.4byte	0
 16235 103a 00000000 		.4byte	0
 16236              	.LLST108:
 16237 103e 0E000000 		.4byte	.LVL502
 16238 1042 BC000000 		.4byte	.LVL523
 16239 1046 0100     		.2byte	0x1
 16240 1048 58       		.byte	0x58
 16241 1049 00000000 		.4byte	0
 16242 104d 00000000 		.4byte	0
 16243              	.LLST109:
 16244 1051 22000000 		.4byte	.LVL506
 16245 1055 24000000 		.4byte	.LVL507
 16246 1059 0200     		.2byte	0x2
 16247 105b 30       		.byte	0x30
 16248 105c 9F       		.byte	0x9f
 16249 105d 24000000 		.4byte	.LVL507
 16250 1061 7A000000 		.4byte	.LVL516
 16251 1065 0100     		.2byte	0x1
 16252 1067 54       		.byte	0x54
 16253 1068 7C000000 		.4byte	.LVL517
 16254 106c 8A000000 		.4byte	.LVL519
 16255 1070 0100     		.2byte	0x1
 16256 1072 54       		.byte	0x54
 16257 1073 00000000 		.4byte	0
 16258 1077 00000000 		.4byte	0
 16259              	.LLST110:
 16260 107b 00000000 		.4byte	.LVL524
 16261 107f 18000000 		.4byte	.LVL527
 16262 1083 0100     		.2byte	0x1
 16263 1085 50       		.byte	0x50
 16264 1086 18000000 		.4byte	.LVL527
 16265 108a 1B000000 		.4byte	.LVL528-1
 16266 108e 0100     		.2byte	0x1
 16267 1090 52       		.byte	0x52
 16268 1091 1B000000 		.4byte	.LVL528-1
 16269 1095 14010000 		.4byte	.LFE104
 16270 1099 0400     		.2byte	0x4
 16271 109b F3       		.byte	0xf3
 16272 109c 01       		.uleb128 0x1
 16273 109d 50       		.byte	0x50
 16274 109e 9F       		.byte	0x9f
 16275 109f 00000000 		.4byte	0
 16276 10a3 00000000 		.4byte	0
 16277              	.LLST111:
 16278 10a7 00000000 		.4byte	.LVL524
ARM GAS  C:\Users\FRANKL~1\AppData\Local\Temp\ccba5qpo.s 			page 323


 16279 10ab 10000000 		.4byte	.LVL525
 16280 10af 0100     		.2byte	0x1
 16281 10b1 51       		.byte	0x51
 16282 10b2 10000000 		.4byte	.LVL525
 16283 10b6 A4000000 		.4byte	.LVL551
 16284 10ba 0100     		.2byte	0x1
 16285 10bc 56       		.byte	0x56
 16286 10bd A4000000 		.4byte	.LVL551
 16287 10c1 14010000 		.4byte	.LFE104
 16288 10c5 0400     		.2byte	0x4
 16289 10c7 F3       		.byte	0xf3
 16290 10c8 01       		.uleb128 0x1
 16291 10c9 51       		.byte	0x51
 16292 10ca 9F       		.byte	0x9f
 16293 10cb 00000000 		.4byte	0
 16294 10cf 00000000 		.4byte	0
 16295              	.LLST112:
 16296 10d3 00000000 		.4byte	.LVL524
 16297 10d7 16000000 		.4byte	.LVL526
 16298 10db 0100     		.2byte	0x1
 16299 10dd 52       		.byte	0x52
 16300 10de 16000000 		.4byte	.LVL526
 16301 10e2 9A000000 		.4byte	.LVL549
 16302 10e6 0100     		.2byte	0x1
 16303 10e8 55       		.byte	0x55
 16304 10e9 9A000000 		.4byte	.LVL549
 16305 10ed 14010000 		.4byte	.LFE104
 16306 10f1 0400     		.2byte	0x4
 16307 10f3 F3       		.byte	0xf3
 16308 10f4 01       		.uleb128 0x1
 16309 10f5 52       		.byte	0x52
 16310 10f6 9F       		.byte	0x9f
 16311 10f7 00000000 		.4byte	0
 16312 10fb 00000000 		.4byte	0
 16313              	.LLST113:
 16314 10ff 24000000 		.4byte	.LVL529
 16315 1103 31000000 		.4byte	.LVL531-1
 16316 1107 0200     		.2byte	0x2
 16317 1109 72       		.byte	0x72
 16318 110a 0C       		.sleb128 12
 16319 110b 00000000 		.4byte	0
 16320 110f 00000000 		.4byte	0
 16321              	.LLST114:
 16322 1113 2C000000 		.4byte	.LVL530
 16323 1117 90000000 		.4byte	.LVL547
 16324 111b 0100     		.2byte	0x1
 16325 111d 58       		.byte	0x58
 16326 111e 00000000 		.4byte	0
 16327 1122 00000000 		.4byte	0
 16328              	.LLST115:
 16329 1126 46000000 		.4byte	.LVL534
 16330 112a 48000000 		.4byte	.LVL535
 16331 112e 0100     		.2byte	0x1
 16332 1130 50       		.byte	0x50
 16333 1131 48000000 		.4byte	.LVL535
 16334 1135 58000000 		.4byte	.LVL538
 16335 1139 0100     		.2byte	0x1
ARM GAS  C:\Users\FRANKL~1\AppData\Local\Temp\ccba5qpo.s 			page 324


 16336 113b 57       		.byte	0x57
 16337 113c 00000000 		.4byte	0
 16338 1140 00000000 		.4byte	0
 16339              	.LLST116:
 16340 1144 58000000 		.4byte	.LVL538
 16341 1148 66000000 		.4byte	.LVL539
 16342 114c 0100     		.2byte	0x1
 16343 114e 50       		.byte	0x50
 16344 114f 66000000 		.4byte	.LVL539
 16345 1153 A6000000 		.4byte	.LVL552
 16346 1157 0100     		.2byte	0x1
 16347 1159 57       		.byte	0x57
 16348 115a 00000000 		.4byte	0
 16349 115e 00000000 		.4byte	0
 16350              	.LLST117:
 16351 1162 8A000000 		.4byte	.LVL545
 16352 1166 8D000000 		.4byte	.LVL546-1
 16353 116a 0100     		.2byte	0x1
 16354 116c 50       		.byte	0x50
 16355 116d 8D000000 		.4byte	.LVL546-1
 16356 1171 EE000000 		.4byte	.LVL560
 16357 1175 0100     		.2byte	0x1
 16358 1177 5A       		.byte	0x5a
 16359 1178 00000000 		.4byte	0
 16360 117c 00000000 		.4byte	0
 16361              	.LLST118:
 16362 1180 8A000000 		.4byte	.LVL545
 16363 1184 8D000000 		.4byte	.LVL546-1
 16364 1188 1600     		.2byte	0x16
 16365 118a 91       		.byte	0x91
 16366 118b 4C       		.sleb128 -52
 16367 118c 06       		.byte	0x6
 16368 118d F7       		.byte	0xf7
 16369 118e 33       		.uleb128 0x33
 16370 118f F7       		.byte	0xf7
 16371 1190 2C       		.uleb128 0x2c
 16372 1191 F4       		.byte	0xf4
 16373 1192 2C       		.uleb128 0x2c
 16374 1193 08       		.byte	0x8
 16375 1194 8DEDB5A0 		.4byte	0xa0b5ed8d
 16376 1198 F7C6B03E 		.4byte	0x3eb0c6f7
 16377 119c 1E       		.byte	0x1e
 16378 119d F7       		.byte	0xf7
 16379 119e 25       		.uleb128 0x25
 16380 119f 9F       		.byte	0x9f
 16381 11a0 00000000 		.4byte	0
 16382 11a4 00000000 		.4byte	0
 16383              	.LLST119:
 16384 11a8 00000000 		.4byte	.LVL561
 16385 11ac 08000000 		.4byte	.LVL563
 16386 11b0 0100     		.2byte	0x1
 16387 11b2 50       		.byte	0x50
 16388 11b3 08000000 		.4byte	.LVL563
 16389 11b7 1A000000 		.4byte	.LFE105
 16390 11bb 0100     		.2byte	0x1
 16391 11bd 55       		.byte	0x55
 16392 11be 00000000 		.4byte	0
ARM GAS  C:\Users\FRANKL~1\AppData\Local\Temp\ccba5qpo.s 			page 325


 16393 11c2 00000000 		.4byte	0
 16394              	.LLST120:
 16395 11c6 04000000 		.4byte	.LVL562
 16396 11ca 08000000 		.4byte	.LVL563
 16397 11ce 0200     		.2byte	0x2
 16398 11d0 30       		.byte	0x30
 16399 11d1 9F       		.byte	0x9f
 16400 11d2 08000000 		.4byte	.LVL563
 16401 11d6 1A000000 		.4byte	.LFE105
 16402 11da 0100     		.2byte	0x1
 16403 11dc 54       		.byte	0x54
 16404 11dd 00000000 		.4byte	0
 16405 11e1 00000000 		.4byte	0
 16406              	.LLST121:
 16407 11e5 0E000000 		.4byte	.LVL567
 16408 11e9 12000000 		.4byte	.LVL568
 16409 11ed 0200     		.2byte	0x2
 16410 11ef 30       		.byte	0x30
 16411 11f0 9F       		.byte	0x9f
 16412 11f1 12000000 		.4byte	.LVL568
 16413 11f5 24000000 		.4byte	.LVL571
 16414 11f9 0100     		.2byte	0x1
 16415 11fb 54       		.byte	0x54
 16416 11fc 26000000 		.4byte	.LVL572
 16417 1200 2C000000 		.4byte	.LFE106
 16418 1204 0100     		.2byte	0x1
 16419 1206 54       		.byte	0x54
 16420 1207 00000000 		.4byte	0
 16421 120b 00000000 		.4byte	0
 16422              	.LLST122:
 16423 120f 00000000 		.4byte	.LVL573
 16424 1213 14000000 		.4byte	.LVL574
 16425 1217 0100     		.2byte	0x1
 16426 1219 50       		.byte	0x50
 16427 121a 14000000 		.4byte	.LVL574
 16428 121e 20000000 		.4byte	.LVL576
 16429 1222 0400     		.2byte	0x4
 16430 1224 F3       		.byte	0xf3
 16431 1225 01       		.uleb128 0x1
 16432 1226 50       		.byte	0x50
 16433 1227 9F       		.byte	0x9f
 16434 1228 20000000 		.4byte	.LVL576
 16435 122c 22000000 		.4byte	.LVL577
 16436 1230 0100     		.2byte	0x1
 16437 1232 50       		.byte	0x50
 16438 1233 22000000 		.4byte	.LVL577
 16439 1237 AC000000 		.4byte	.LFE107
 16440 123b 0400     		.2byte	0x4
 16441 123d F3       		.byte	0xf3
 16442 123e 01       		.uleb128 0x1
 16443 123f 50       		.byte	0x50
 16444 1240 9F       		.byte	0x9f
 16445 1241 00000000 		.4byte	0
 16446 1245 00000000 		.4byte	0
 16447              	.LLST123:
 16448 1249 28000000 		.4byte	.LVL579
 16449 124d 98000000 		.4byte	.LVL595
ARM GAS  C:\Users\FRANKL~1\AppData\Local\Temp\ccba5qpo.s 			page 326


 16450 1251 0100     		.2byte	0x1
 16451 1253 58       		.byte	0x58
 16452 1254 9C000000 		.4byte	.LVL596
 16453 1258 A4000000 		.4byte	.LVL597
 16454 125c 0100     		.2byte	0x1
 16455 125e 58       		.byte	0x58
 16456 125f 00000000 		.4byte	0
 16457 1263 00000000 		.4byte	0
 16458              	.LLST124:
 16459 1267 28000000 		.4byte	.LVL579
 16460 126b 4E000000 		.4byte	.LVL584
 16461 126f 0200     		.2byte	0x2
 16462 1271 40       		.byte	0x40
 16463 1272 9F       		.byte	0x9f
 16464 1273 4E000000 		.4byte	.LVL584
 16465 1277 50000000 		.4byte	.LVL585
 16466 127b 0100     		.2byte	0x1
 16467 127d 57       		.byte	0x57
 16468 127e 00000000 		.4byte	0
 16469 1282 00000000 		.4byte	0
 16470              	.LLST125:
 16471 1286 28000000 		.4byte	.LVL579
 16472 128a 36000000 		.4byte	.LVL580
 16473 128e 0200     		.2byte	0x2
 16474 1290 30       		.byte	0x30
 16475 1291 9F       		.byte	0x9f
 16476 1292 36000000 		.4byte	.LVL580
 16477 1296 38000000 		.4byte	.LVL581
 16478 129a 0100     		.2byte	0x1
 16479 129c 55       		.byte	0x55
 16480 129d 38000000 		.4byte	.LVL581
 16481 12a1 3A000000 		.4byte	.LVL582
 16482 12a5 0200     		.2byte	0x2
 16483 12a7 30       		.byte	0x30
 16484 12a8 9F       		.byte	0x9f
 16485 12a9 3A000000 		.4byte	.LVL582
 16486 12ad 4A000000 		.4byte	.LVL583
 16487 12b1 0100     		.2byte	0x1
 16488 12b3 55       		.byte	0x55
 16489 12b4 4E000000 		.4byte	.LVL584
 16490 12b8 50000000 		.4byte	.LVL585
 16491 12bc 0100     		.2byte	0x1
 16492 12be 55       		.byte	0x55
 16493 12bf 00000000 		.4byte	0
 16494 12c3 00000000 		.4byte	0
 16495              	.LLST126:
 16496 12c7 3A000000 		.4byte	.LVL582
 16497 12cb 4E000000 		.4byte	.LVL584
 16498 12cf 0300     		.2byte	0x3
 16499 12d1 09       		.byte	0x9
 16500 12d2 F0       		.byte	0xf0
 16501 12d3 9F       		.byte	0x9f
 16502 12d4 4E000000 		.4byte	.LVL584
 16503 12d8 50000000 		.4byte	.LVL585
 16504 12dc 0100     		.2byte	0x1
 16505 12de 56       		.byte	0x56
 16506 12df 00000000 		.4byte	0
ARM GAS  C:\Users\FRANKL~1\AppData\Local\Temp\ccba5qpo.s 			page 327


 16507 12e3 00000000 		.4byte	0
 16508              	.LLST127:
 16509 12e7 4E000000 		.4byte	.LVL584
 16510 12eb 8E000000 		.4byte	.LVL593
 16511 12ef 0100     		.2byte	0x1
 16512 12f1 55       		.byte	0x55
 16513 12f2 90000000 		.4byte	.LVL594
 16514 12f6 9C000000 		.4byte	.LVL596
 16515 12fa 0100     		.2byte	0x1
 16516 12fc 55       		.byte	0x55
 16517 12fd 00000000 		.4byte	0
 16518 1301 00000000 		.4byte	0
 16519              	.LLST128:
 16520 1305 50000000 		.4byte	.LVL585
 16521 1309 82000000 		.4byte	.LVL589
 16522 130d 0100     		.2byte	0x1
 16523 130f 54       		.byte	0x54
 16524 1310 84000000 		.4byte	.LVL590
 16525 1314 86000000 		.4byte	.LVL591
 16526 1318 0100     		.2byte	0x1
 16527 131a 54       		.byte	0x54
 16528 131b 88000000 		.4byte	.LVL592
 16529 131f 90000000 		.4byte	.LVL594
 16530 1323 0100     		.2byte	0x1
 16531 1325 54       		.byte	0x54
 16532 1326 00000000 		.4byte	0
 16533 132a 00000000 		.4byte	0
 16534              	.LLST129:
 16535 132e 00000000 		.4byte	.LVL598
 16536 1332 08000000 		.4byte	.LVL599
 16537 1336 0100     		.2byte	0x1
 16538 1338 50       		.byte	0x50
 16539 1339 08000000 		.4byte	.LVL599
 16540 133d 84000000 		.4byte	.LFE108
 16541 1341 0400     		.2byte	0x4
 16542 1343 F3       		.byte	0xf3
 16543 1344 01       		.uleb128 0x1
 16544 1345 50       		.byte	0x50
 16545 1346 9F       		.byte	0x9f
 16546 1347 00000000 		.4byte	0
 16547 134b 00000000 		.4byte	0
 16548              	.LLST130:
 16549 134f 0C000000 		.4byte	.LVL600
 16550 1353 12000000 		.4byte	.LVL601
 16551 1357 0200     		.2byte	0x2
 16552 1359 30       		.byte	0x30
 16553 135a 9F       		.byte	0x9f
 16554 135b 12000000 		.4byte	.LVL601
 16555 135f 72000000 		.4byte	.LVL613
 16556 1363 0100     		.2byte	0x1
 16557 1365 58       		.byte	0x58
 16558 1366 76000000 		.4byte	.LVL614
 16559 136a 7E000000 		.4byte	.LVL615
 16560 136e 0100     		.2byte	0x1
 16561 1370 58       		.byte	0x58
 16562 1371 00000000 		.4byte	0
 16563 1375 00000000 		.4byte	0
ARM GAS  C:\Users\FRANKL~1\AppData\Local\Temp\ccba5qpo.s 			page 328


 16564              	.LLST131:
 16565 1379 12000000 		.4byte	.LVL601
 16566 137d 28000000 		.4byte	.LVL602
 16567 1381 0200     		.2byte	0x2
 16568 1383 40       		.byte	0x40
 16569 1384 9F       		.byte	0x9f
 16570 1385 28000000 		.4byte	.LVL602
 16571 1389 2A000000 		.4byte	.LVL603
 16572 138d 0100     		.2byte	0x1
 16573 138f 57       		.byte	0x57
 16574 1390 00000000 		.4byte	0
 16575 1394 00000000 		.4byte	0
 16576              	.LLST132:
 16577 1398 12000000 		.4byte	.LVL601
 16578 139c 28000000 		.4byte	.LVL602
 16579 13a0 0200     		.2byte	0x2
 16580 13a2 30       		.byte	0x30
 16581 13a3 9F       		.byte	0x9f
 16582 13a4 28000000 		.4byte	.LVL602
 16583 13a8 2A000000 		.4byte	.LVL603
 16584 13ac 0100     		.2byte	0x1
 16585 13ae 55       		.byte	0x55
 16586 13af 00000000 		.4byte	0
 16587 13b3 00000000 		.4byte	0
 16588              	.LLST133:
 16589 13b7 12000000 		.4byte	.LVL601
 16590 13bb 28000000 		.4byte	.LVL602
 16591 13bf 0300     		.2byte	0x3
 16592 13c1 09       		.byte	0x9
 16593 13c2 F0       		.byte	0xf0
 16594 13c3 9F       		.byte	0x9f
 16595 13c4 28000000 		.4byte	.LVL602
 16596 13c8 2A000000 		.4byte	.LVL603
 16597 13cc 0100     		.2byte	0x1
 16598 13ce 56       		.byte	0x56
 16599 13cf 00000000 		.4byte	0
 16600 13d3 00000000 		.4byte	0
 16601              	.LLST134:
 16602 13d7 28000000 		.4byte	.LVL602
 16603 13db 68000000 		.4byte	.LVL611
 16604 13df 0100     		.2byte	0x1
 16605 13e1 55       		.byte	0x55
 16606 13e2 6A000000 		.4byte	.LVL612
 16607 13e6 76000000 		.4byte	.LVL614
 16608 13ea 0100     		.2byte	0x1
 16609 13ec 55       		.byte	0x55
 16610 13ed 00000000 		.4byte	0
 16611 13f1 00000000 		.4byte	0
 16612              	.LLST135:
 16613 13f5 2A000000 		.4byte	.LVL603
 16614 13f9 5C000000 		.4byte	.LVL607
 16615 13fd 0100     		.2byte	0x1
 16616 13ff 54       		.byte	0x54
 16617 1400 5E000000 		.4byte	.LVL608
 16618 1404 60000000 		.4byte	.LVL609
 16619 1408 0100     		.2byte	0x1
 16620 140a 54       		.byte	0x54
ARM GAS  C:\Users\FRANKL~1\AppData\Local\Temp\ccba5qpo.s 			page 329


 16621 140b 62000000 		.4byte	.LVL610
 16622 140f 6A000000 		.4byte	.LVL612
 16623 1413 0100     		.2byte	0x1
 16624 1415 54       		.byte	0x54
 16625 1416 00000000 		.4byte	0
 16626 141a 00000000 		.4byte	0
 16627              	.LLST136:
 16628 141e 04000000 		.4byte	.LVL616
 16629 1422 10000000 		.4byte	.LVL617
 16630 1426 0200     		.2byte	0x2
 16631 1428 31       		.byte	0x31
 16632 1429 9F       		.byte	0x9f
 16633 142a 10000000 		.4byte	.LVL617
 16634 142e 40000000 		.4byte	.LVL622
 16635 1432 0100     		.2byte	0x1
 16636 1434 54       		.byte	0x54
 16637 1435 40000000 		.4byte	.LVL622
 16638 1439 84000000 		.4byte	.LVL630
 16639 143d 0100     		.2byte	0x1
 16640 143f 58       		.byte	0x58
 16641 1440 84000000 		.4byte	.LVL630
 16642 1444 8E000000 		.4byte	.LVL631
 16643 1448 0100     		.2byte	0x1
 16644 144a 54       		.byte	0x54
 16645 144b 00000000 		.4byte	0
 16646 144f 00000000 		.4byte	0
 16647              	.LLST137:
 16648 1453 04000000 		.4byte	.LVL616
 16649 1457 10000000 		.4byte	.LVL617
 16650 145b 0200     		.2byte	0x2
 16651 145d 30       		.byte	0x30
 16652 145e 9F       		.byte	0x9f
 16653 145f 10000000 		.4byte	.LVL617
 16654 1463 66000000 		.4byte	.LVL626
 16655 1467 0100     		.2byte	0x1
 16656 1469 55       		.byte	0x55
 16657 146a 68000000 		.4byte	.LVL627
 16658 146e 92000000 		.4byte	.LVL632
 16659 1472 0100     		.2byte	0x1
 16660 1474 55       		.byte	0x55
 16661 1475 00000000 		.4byte	0
 16662 1479 00000000 		.4byte	0
 16663              	.LLST138:
 16664 147d 04000000 		.4byte	.LVL616
 16665 1481 10000000 		.4byte	.LVL617
 16666 1485 0200     		.2byte	0x2
 16667 1487 30       		.byte	0x30
 16668 1488 9F       		.byte	0x9f
 16669 1489 10000000 		.4byte	.LVL617
 16670 148d 30000000 		.4byte	.LVL620
 16671 1491 0100     		.2byte	0x1
 16672 1493 59       		.byte	0x59
 16673 1494 34000000 		.4byte	.LVL621
 16674 1498 92000000 		.4byte	.LVL632
 16675 149c 0100     		.2byte	0x1
 16676 149e 59       		.byte	0x59
 16677 149f 00000000 		.4byte	0
ARM GAS  C:\Users\FRANKL~1\AppData\Local\Temp\ccba5qpo.s 			page 330


 16678 14a3 00000000 		.4byte	0
 16679              	.LLST139:
 16680 14a7 04000000 		.4byte	.LVL616
 16681 14ab 10000000 		.4byte	.LVL617
 16682 14af 0200     		.2byte	0x2
 16683 14b1 30       		.byte	0x30
 16684 14b2 9F       		.byte	0x9f
 16685 14b3 10000000 		.4byte	.LVL617
 16686 14b7 6C000000 		.4byte	.LVL628
 16687 14bb 0100     		.2byte	0x1
 16688 14bd 56       		.byte	0x56
 16689 14be 6E000000 		.4byte	.LVL629
 16690 14c2 92000000 		.4byte	.LVL632
 16691 14c6 0100     		.2byte	0x1
 16692 14c8 56       		.byte	0x56
 16693 14c9 00000000 		.4byte	0
 16694 14cd 00000000 		.4byte	0
 16695              	.LLST140:
 16696 14d1 04000000 		.4byte	.LVL616
 16697 14d5 10000000 		.4byte	.LVL617
 16698 14d9 0200     		.2byte	0x2
 16699 14db 30       		.byte	0x30
 16700 14dc 9F       		.byte	0x9f
 16701 14dd 10000000 		.4byte	.LVL617
 16702 14e1 1E000000 		.4byte	.LVL618
 16703 14e5 0100     		.2byte	0x1
 16704 14e7 57       		.byte	0x57
 16705 14e8 20000000 		.4byte	.LVL619
 16706 14ec 92000000 		.4byte	.LVL632
 16707 14f0 0100     		.2byte	0x1
 16708 14f2 57       		.byte	0x57
 16709 14f3 00000000 		.4byte	0
 16710 14f7 00000000 		.4byte	0
 16711              	.LLST141:
 16712 14fb 00000000 		.4byte	.LVL633
 16713 14ff 0C000000 		.4byte	.LVL635
 16714 1503 0100     		.2byte	0x1
 16715 1505 50       		.byte	0x50
 16716 1506 0C000000 		.4byte	.LVL635
 16717 150a 90000000 		.4byte	.LFE110
 16718 150e 0400     		.2byte	0x4
 16719 1510 F3       		.byte	0xf3
 16720 1511 01       		.uleb128 0x1
 16721 1512 50       		.byte	0x50
 16722 1513 9F       		.byte	0x9f
 16723 1514 00000000 		.4byte	0
 16724 1518 00000000 		.4byte	0
 16725              	.LLST142:
 16726 151c 00000000 		.4byte	.LVL633
 16727 1520 0C000000 		.4byte	.LVL635
 16728 1524 0100     		.2byte	0x1
 16729 1526 51       		.byte	0x51
 16730 1527 0C000000 		.4byte	.LVL635
 16731 152b 90000000 		.4byte	.LFE110
 16732 152f 0400     		.2byte	0x4
 16733 1531 F3       		.byte	0xf3
 16734 1532 01       		.uleb128 0x1
ARM GAS  C:\Users\FRANKL~1\AppData\Local\Temp\ccba5qpo.s 			page 331


 16735 1533 51       		.byte	0x51
 16736 1534 9F       		.byte	0x9f
 16737 1535 00000000 		.4byte	0
 16738 1539 00000000 		.4byte	0
 16739              	.LLST143:
 16740 153d 08000000 		.4byte	.LVL634
 16741 1541 0C000000 		.4byte	.LVL635
 16742 1545 0200     		.2byte	0x2
 16743 1547 31       		.byte	0x31
 16744 1548 9F       		.byte	0x9f
 16745 1549 0C000000 		.4byte	.LVL635
 16746 154d 84000000 		.4byte	.LVL649
 16747 1551 0100     		.2byte	0x1
 16748 1553 54       		.byte	0x54
 16749 1554 00000000 		.4byte	0
 16750 1558 00000000 		.4byte	0
 16751              	.LLST144:
 16752 155c 0C000000 		.4byte	.LVL635
 16753 1560 7C000000 		.4byte	.LVL648
 16754 1564 0100     		.2byte	0x1
 16755 1566 54       		.byte	0x54
 16756 1567 00000000 		.4byte	0
 16757 156b 00000000 		.4byte	0
 16758              	.LLST145:
 16759 156f 10000000 		.4byte	.LVL636
 16760 1573 7C000000 		.4byte	.LVL648
 16761 1577 0100     		.2byte	0x1
 16762 1579 56       		.byte	0x56
 16763 157a 00000000 		.4byte	0
 16764 157e 00000000 		.4byte	0
 16765              	.LLST146:
 16766 1582 10000000 		.4byte	.LVL636
 16767 1586 7C000000 		.4byte	.LVL648
 16768 158a 0200     		.2byte	0x2
 16769 158c 31       		.byte	0x31
 16770 158d 9F       		.byte	0x9f
 16771 158e 00000000 		.4byte	0
 16772 1592 00000000 		.4byte	0
 16773              	.LLST147:
 16774 1596 10000000 		.4byte	.LVL636
 16775 159a 7C000000 		.4byte	.LVL648
 16776 159e 0200     		.2byte	0x2
 16777 15a0 32       		.byte	0x32
 16778 15a1 9F       		.byte	0x9f
 16779 15a2 00000000 		.4byte	0
 16780 15a6 00000000 		.4byte	0
 16781              	.LLST148:
 16782 15aa 00000000 		.4byte	.LVL650
 16783 15ae 18000000 		.4byte	.LVL651
 16784 15b2 0100     		.2byte	0x1
 16785 15b4 50       		.byte	0x50
 16786 15b5 18000000 		.4byte	.LVL651
 16787 15b9 94000000 		.4byte	.LVL665
 16788 15bd 0400     		.2byte	0x4
 16789 15bf F3       		.byte	0xf3
 16790 15c0 01       		.uleb128 0x1
 16791 15c1 50       		.byte	0x50
ARM GAS  C:\Users\FRANKL~1\AppData\Local\Temp\ccba5qpo.s 			page 332


 16792 15c2 9F       		.byte	0x9f
 16793 15c3 94000000 		.4byte	.LVL665
 16794 15c7 A4000000 		.4byte	.LFE111
 16795 15cb 0100     		.2byte	0x1
 16796 15cd 50       		.byte	0x50
 16797 15ce 00000000 		.4byte	0
 16798 15d2 00000000 		.4byte	0
 16799              	.LLST149:
 16800 15d6 00000000 		.4byte	.LVL650
 16801 15da 18000000 		.4byte	.LVL651
 16802 15de 0100     		.2byte	0x1
 16803 15e0 51       		.byte	0x51
 16804 15e1 18000000 		.4byte	.LVL651
 16805 15e5 94000000 		.4byte	.LVL665
 16806 15e9 0400     		.2byte	0x4
 16807 15eb F3       		.byte	0xf3
 16808 15ec 01       		.uleb128 0x1
 16809 15ed 51       		.byte	0x51
 16810 15ee 9F       		.byte	0x9f
 16811 15ef 94000000 		.4byte	.LVL665
 16812 15f3 A4000000 		.4byte	.LFE111
 16813 15f7 0100     		.2byte	0x1
 16814 15f9 51       		.byte	0x51
 16815 15fa 00000000 		.4byte	0
 16816 15fe 00000000 		.4byte	0
 16817              	.LLST150:
 16818 1602 00000000 		.4byte	.LVL650
 16819 1606 18000000 		.4byte	.LVL651
 16820 160a 0100     		.2byte	0x1
 16821 160c 52       		.byte	0x52
 16822 160d 18000000 		.4byte	.LVL651
 16823 1611 94000000 		.4byte	.LVL665
 16824 1615 0400     		.2byte	0x4
 16825 1617 F3       		.byte	0xf3
 16826 1618 01       		.uleb128 0x1
 16827 1619 52       		.byte	0x52
 16828 161a 9F       		.byte	0x9f
 16829 161b 94000000 		.4byte	.LVL665
 16830 161f A4000000 		.4byte	.LFE111
 16831 1623 0100     		.2byte	0x1
 16832 1625 52       		.byte	0x52
 16833 1626 00000000 		.4byte	0
 16834 162a 00000000 		.4byte	0
 16835              	.LLST151:
 16836 162e 00000000 		.4byte	.LVL650
 16837 1632 18000000 		.4byte	.LVL651
 16838 1636 0100     		.2byte	0x1
 16839 1638 53       		.byte	0x53
 16840 1639 18000000 		.4byte	.LVL651
 16841 163d 94000000 		.4byte	.LVL665
 16842 1641 0400     		.2byte	0x4
 16843 1643 F3       		.byte	0xf3
 16844 1644 01       		.uleb128 0x1
 16845 1645 53       		.byte	0x53
 16846 1646 9F       		.byte	0x9f
 16847 1647 94000000 		.4byte	.LVL665
 16848 164b A4000000 		.4byte	.LFE111
ARM GAS  C:\Users\FRANKL~1\AppData\Local\Temp\ccba5qpo.s 			page 333


 16849 164f 0100     		.2byte	0x1
 16850 1651 53       		.byte	0x53
 16851 1652 00000000 		.4byte	0
 16852 1656 00000000 		.4byte	0
 16853              	.LLST152:
 16854 165a 18000000 		.4byte	.LVL651
 16855 165e 94000000 		.4byte	.LVL665
 16856 1662 0100     		.2byte	0x1
 16857 1664 54       		.byte	0x54
 16858 1665 00000000 		.4byte	0
 16859 1669 00000000 		.4byte	0
 16860              	.LLST153:
 16861 166d 18000000 		.4byte	.LVL651
 16862 1671 8C000000 		.4byte	.LVL664
 16863 1675 0100     		.2byte	0x1
 16864 1677 54       		.byte	0x54
 16865 1678 00000000 		.4byte	0
 16866 167c 00000000 		.4byte	0
 16867              	.LLST154:
 16868 1680 1C000000 		.4byte	.LVL652
 16869 1684 8C000000 		.4byte	.LVL664
 16870 1688 0100     		.2byte	0x1
 16871 168a 56       		.byte	0x56
 16872 168b 00000000 		.4byte	0
 16873 168f 00000000 		.4byte	0
 16874              	.LLST155:
 16875 1693 1C000000 		.4byte	.LVL652
 16876 1697 8C000000 		.4byte	.LVL664
 16877 169b 0200     		.2byte	0x2
 16878 169d 31       		.byte	0x31
 16879 169e 9F       		.byte	0x9f
 16880 169f 00000000 		.4byte	0
 16881 16a3 00000000 		.4byte	0
 16882              	.LLST156:
 16883 16a7 1C000000 		.4byte	.LVL652
 16884 16ab 8C000000 		.4byte	.LVL664
 16885 16af 0200     		.2byte	0x2
 16886 16b1 32       		.byte	0x32
 16887 16b2 9F       		.byte	0x9f
 16888 16b3 00000000 		.4byte	0
 16889 16b7 00000000 		.4byte	0
 16890              	.LLST157:
 16891 16bb 86000000 		.4byte	.LVL684
 16892 16bf 96000000 		.4byte	.LVL685
 16893 16c3 0600     		.2byte	0x6
 16894 16c5 03       		.byte	0x3
 16895 16c6 00000000 		.4byte	USBUART_Receive_Buffer
 16896 16ca 9F       		.byte	0x9f
 16897 16cb 96000000 		.4byte	.LVL685
 16898 16cf 44020000 		.4byte	.LVL728
 16899 16d3 0100     		.2byte	0x1
 16900 16d5 54       		.byte	0x54
 16901 16d6 72020000 		.4byte	.LVL736
 16902 16da 98020000 		.4byte	.LVL741
 16903 16de 0100     		.2byte	0x1
 16904 16e0 54       		.byte	0x54
 16905 16e1 C6020000 		.4byte	.LVL749
ARM GAS  C:\Users\FRANKL~1\AppData\Local\Temp\ccba5qpo.s 			page 334


 16906 16e5 D4020000 		.4byte	.LVL751
 16907 16e9 0100     		.2byte	0x1
 16908 16eb 54       		.byte	0x54
 16909 16ec A0030000 		.4byte	.LVL759
 16910 16f0 E2030000 		.4byte	.LVL765
 16911 16f4 0100     		.2byte	0x1
 16912 16f6 54       		.byte	0x54
 16913 16f7 32040000 		.4byte	.LVL774
 16914 16fb 7A040000 		.4byte	.LVL780
 16915 16ff 0100     		.2byte	0x1
 16916 1701 54       		.byte	0x54
 16917 1702 D0040000 		.4byte	.LVL789
 16918 1706 1C050000 		.4byte	.LVL795
 16919 170a 0100     		.2byte	0x1
 16920 170c 54       		.byte	0x54
 16921 170d 78050000 		.4byte	.LVL805
 16922 1711 8E050000 		.4byte	.LVL808
 16923 1715 0100     		.2byte	0x1
 16924 1717 54       		.byte	0x54
 16925 1718 D4050000 		.4byte	.LVL818
 16926 171c EA050000 		.4byte	.LVL821
 16927 1720 0100     		.2byte	0x1
 16928 1722 54       		.byte	0x54
 16929 1723 30060000 		.4byte	.LVL831
 16930 1727 46060000 		.4byte	.LVL834
 16931 172b 0100     		.2byte	0x1
 16932 172d 54       		.byte	0x54
 16933 172e 8C060000 		.4byte	.LVL844
 16934 1732 B6060000 		.4byte	.LVL850
 16935 1736 0100     		.2byte	0x1
 16936 1738 54       		.byte	0x54
 16937 1739 20070000 		.4byte	.LVL855
 16938 173d 34070000 		.4byte	.LVL858
 16939 1741 0100     		.2byte	0x1
 16940 1743 54       		.byte	0x54
 16941 1744 60070000 		.4byte	.LVL862
 16942 1748 8A070000 		.4byte	.LVL868
 16943 174c 0100     		.2byte	0x1
 16944 174e 54       		.byte	0x54
 16945 174f AA070000 		.4byte	.LVL873
 16946 1753 D4070000 		.4byte	.LVL879
 16947 1757 0100     		.2byte	0x1
 16948 1759 54       		.byte	0x54
 16949 175a F4070000 		.4byte	.LVL884
 16950 175e 08080000 		.4byte	.LVL887
 16951 1762 0100     		.2byte	0x1
 16952 1764 54       		.byte	0x54
 16953 1765 30080000 		.4byte	.LVL891
 16954 1769 56080000 		.4byte	.LVL895
 16955 176d 0100     		.2byte	0x1
 16956 176f 54       		.byte	0x54
 16957 1770 94080000 		.4byte	.LVL900
 16958 1774 EC080000 		.4byte	.LFE113
 16959 1778 0100     		.2byte	0x1
 16960 177a 54       		.byte	0x54
 16961 177b 00000000 		.4byte	0
 16962 177f 00000000 		.4byte	0
ARM GAS  C:\Users\FRANKL~1\AppData\Local\Temp\ccba5qpo.s 			page 335


 16963              	.LLST158:
 16964 1783 D4000000 		.4byte	.LVL690
 16965 1787 D7000000 		.4byte	.LVL691-1
 16966 178b 0100     		.2byte	0x1
 16967 178d 50       		.byte	0x50
 16968 178e 00000000 		.4byte	0
 16969 1792 00000000 		.4byte	0
 16970              	.LLST159:
 16971 1796 4A010000 		.4byte	.LVL702
 16972 179a 4F010000 		.4byte	.LVL703-1
 16973 179e 0100     		.2byte	0x1
 16974 17a0 50       		.byte	0x50
 16975 17a1 00000000 		.4byte	0
 16976 17a5 00000000 		.4byte	0
 16977              	.LLST160:
 16978 17a9 72010000 		.4byte	.LVL706
 16979 17ad 77010000 		.4byte	.LVL707-1
 16980 17b1 0100     		.2byte	0x1
 16981 17b3 50       		.byte	0x50
 16982 17b4 00000000 		.4byte	0
 16983 17b8 00000000 		.4byte	0
 16984              	.LLST161:
 16985 17bc 9A010000 		.4byte	.LVL710
 16986 17c0 9F010000 		.4byte	.LVL711-1
 16987 17c4 0100     		.2byte	0x1
 16988 17c6 50       		.byte	0x50
 16989 17c7 00000000 		.4byte	0
 16990 17cb 00000000 		.4byte	0
 16991              	.LLST162:
 16992 17cf C2010000 		.4byte	.LVL714
 16993 17d3 C7010000 		.4byte	.LVL715-1
 16994 17d7 0100     		.2byte	0x1
 16995 17d9 50       		.byte	0x50
 16996 17da 00000000 		.4byte	0
 16997 17de 00000000 		.4byte	0
 16998              	.LLST163:
 16999 17e2 DE010000 		.4byte	.LVL717
 17000 17e6 EB010000 		.4byte	.LVL718-1
 17001 17ea 0100     		.2byte	0x1
 17002 17ec 50       		.byte	0x50
 17003 17ed 00000000 		.4byte	0
 17004 17f1 00000000 		.4byte	0
 17005              	.LLST164:
 17006 17f5 08020000 		.4byte	.LVL721
 17007 17f9 15020000 		.4byte	.LVL722-1
 17008 17fd 0100     		.2byte	0x1
 17009 17ff 50       		.byte	0x50
 17010 1800 00000000 		.4byte	0
 17011 1804 00000000 		.4byte	0
 17012              	.LLST165:
 17013 1808 44020000 		.4byte	.LVL728
 17014 180c 47020000 		.4byte	.LVL729-1
 17015 1810 0100     		.2byte	0x1
 17016 1812 50       		.byte	0x50
 17017 1813 47020000 		.4byte	.LVL729-1
 17018 1817 50020000 		.4byte	.LVL731
 17019 181b 0100     		.2byte	0x1
ARM GAS  C:\Users\FRANKL~1\AppData\Local\Temp\ccba5qpo.s 			page 336


 17020 181d 54       		.byte	0x54
 17021 181e 00000000 		.4byte	0
 17022 1822 00000000 		.4byte	0
 17023              	.LLST166:
 17024 1826 98020000 		.4byte	.LVL741
 17025 182a 9B020000 		.4byte	.LVL742-1
 17026 182e 0100     		.2byte	0x1
 17027 1830 50       		.byte	0x50
 17028 1831 9B020000 		.4byte	.LVL742-1
 17029 1835 A4020000 		.4byte	.LVL744
 17030 1839 0100     		.2byte	0x1
 17031 183b 54       		.byte	0x54
 17032 183c 00000000 		.4byte	0
 17033 1840 00000000 		.4byte	0
 17034              	.LLST167:
 17035 1844 F0030000 		.4byte	.LVL767
 17036 1848 32040000 		.4byte	.LVL774
 17037 184c 0100     		.2byte	0x1
 17038 184e 56       		.byte	0x56
 17039 184f 00000000 		.4byte	0
 17040 1853 00000000 		.4byte	0
 17041              	.LLST168:
 17042 1857 FA030000 		.4byte	.LVL768
 17043 185b 02040000 		.4byte	.LVL769
 17044 185f 0100     		.2byte	0x1
 17045 1861 50       		.byte	0x50
 17046 1862 02040000 		.4byte	.LVL769
 17047 1866 05040000 		.4byte	.LVL770-1
 17048 186a 0100     		.2byte	0x1
 17049 186c 51       		.byte	0x51
 17050 186d 00000000 		.4byte	0
 17051 1871 00000000 		.4byte	0
 17052              	.LLST169:
 17053 1875 88040000 		.4byte	.LVL782
 17054 1879 D0040000 		.4byte	.LVL789
 17055 187d 0100     		.2byte	0x1
 17056 187f 56       		.byte	0x56
 17057 1880 00000000 		.4byte	0
 17058 1884 00000000 		.4byte	0
 17059              	.LLST170:
 17060 1888 92040000 		.4byte	.LVL783
 17061 188c 9A040000 		.4byte	.LVL784
 17062 1890 0100     		.2byte	0x1
 17063 1892 50       		.byte	0x50
 17064 1893 9A040000 		.4byte	.LVL784
 17065 1897 9D040000 		.4byte	.LVL785-1
 17066 189b 0100     		.2byte	0x1
 17067 189d 51       		.byte	0x51
 17068 189e 00000000 		.4byte	0
 17069 18a2 00000000 		.4byte	0
 17070              	.LLST171:
 17071 18a6 2A050000 		.4byte	.LVL797
 17072 18aa 42050000 		.4byte	.LVL801
 17073 18ae 0100     		.2byte	0x1
 17074 18b0 56       		.byte	0x56
 17075 18b1 00000000 		.4byte	0
 17076 18b5 00000000 		.4byte	0
ARM GAS  C:\Users\FRANKL~1\AppData\Local\Temp\ccba5qpo.s 			page 337


 17077              	.LLST172:
 17078 18b9 34050000 		.4byte	.LVL798
 17079 18bd 3C050000 		.4byte	.LVL799
 17080 18c1 0100     		.2byte	0x1
 17081 18c3 50       		.byte	0x50
 17082 18c4 3C050000 		.4byte	.LVL799
 17083 18c8 3F050000 		.4byte	.LVL800-1
 17084 18cc 0100     		.2byte	0x1
 17085 18ce 51       		.byte	0x51
 17086 18cf 00000000 		.4byte	0
 17087 18d3 00000000 		.4byte	0
 17088              	.LLST173:
 17089 18d7 9C050000 		.4byte	.LVL810
 17090 18db D4050000 		.4byte	.LVL818
 17091 18df 0100     		.2byte	0x1
 17092 18e1 55       		.byte	0x55
 17093 18e2 00000000 		.4byte	0
 17094 18e6 00000000 		.4byte	0
 17095              	.LLST174:
 17096 18ea A8050000 		.4byte	.LVL812
 17097 18ee D4050000 		.4byte	.LVL818
 17098 18f2 0100     		.2byte	0x1
 17099 18f4 56       		.byte	0x56
 17100 18f5 00000000 		.4byte	0
 17101 18f9 00000000 		.4byte	0
 17102              	.LLST175:
 17103 18fd F8050000 		.4byte	.LVL823
 17104 1901 30060000 		.4byte	.LVL831
 17105 1905 0100     		.2byte	0x1
 17106 1907 55       		.byte	0x55
 17107 1908 00000000 		.4byte	0
 17108 190c 00000000 		.4byte	0
 17109              	.LLST176:
 17110 1910 04060000 		.4byte	.LVL825
 17111 1914 30060000 		.4byte	.LVL831
 17112 1918 0100     		.2byte	0x1
 17113 191a 56       		.byte	0x56
 17114 191b 00000000 		.4byte	0
 17115 191f 00000000 		.4byte	0
 17116              	.LLST177:
 17117 1923 54060000 		.4byte	.LVL836
 17118 1927 8C060000 		.4byte	.LVL844
 17119 192b 0100     		.2byte	0x1
 17120 192d 55       		.byte	0x55
 17121 192e 00000000 		.4byte	0
 17122 1932 00000000 		.4byte	0
 17123              	.LLST178:
 17124 1936 60060000 		.4byte	.LVL838
 17125 193a 8C060000 		.4byte	.LVL844
 17126 193e 0100     		.2byte	0x1
 17127 1940 56       		.byte	0x56
 17128 1941 00000000 		.4byte	0
 17129 1945 00000000 		.4byte	0
 17130              	.LLST179:
 17131 1949 AE060000 		.4byte	.LVL848
 17132 194d 20070000 		.4byte	.LVL855
 17133 1951 0100     		.2byte	0x1
ARM GAS  C:\Users\FRANKL~1\AppData\Local\Temp\ccba5qpo.s 			page 338


 17134 1953 55       		.byte	0x55
 17135 1954 00000000 		.4byte	0
 17136 1958 00000000 		.4byte	0
 17137              	.LLST180:
 17138 195c 82070000 		.4byte	.LVL866
 17139 1960 AA070000 		.4byte	.LVL873
 17140 1964 0100     		.2byte	0x1
 17141 1966 55       		.byte	0x55
 17142 1967 00000000 		.4byte	0
 17143 196b 00000000 		.4byte	0
 17144              	.LLST181:
 17145 196f CC070000 		.4byte	.LVL877
 17146 1973 F4070000 		.4byte	.LVL884
 17147 1977 0100     		.2byte	0x1
 17148 1979 55       		.byte	0x55
 17149 197a 00000000 		.4byte	0
 17150 197e 00000000 		.4byte	0
 17151              	.LLST182:
 17152 1982 50080000 		.4byte	.LVL894
 17153 1986 5C080000 		.4byte	.LVL896
 17154 198a 0100     		.2byte	0x1
 17155 198c 50       		.byte	0x50
 17156 198d 00000000 		.4byte	0
 17157 1991 00000000 		.4byte	0
 17158              		.section	.debug_aranges,"",%progbits
 17159 0000 A4010000 		.4byte	0x1a4
 17160 0004 0200     		.2byte	0x2
 17161 0006 00000000 		.4byte	.Ldebug_info0
 17162 000a 04       		.byte	0x4
 17163 000b 00       		.byte	0
 17164 000c 0000     		.2byte	0
 17165 000e 0000     		.2byte	0
 17166 0010 00000000 		.4byte	.LFB64
 17167 0014 18000000 		.4byte	.LFE64-.LFB64
 17168 0018 00000000 		.4byte	.LFB65
 17169 001c 1E000000 		.4byte	.LFE65-.LFB65
 17170 0020 00000000 		.4byte	.LFB112
 17171 0024 B0010000 		.4byte	.LFE112-.LFB112
 17172 0028 00000000 		.4byte	.LFB66
 17173 002c 50000000 		.4byte	.LFE66-.LFB66
 17174 0030 00000000 		.4byte	.LFB67
 17175 0034 24000000 		.4byte	.LFE67-.LFB67
 17176 0038 00000000 		.4byte	.LFB68
 17177 003c 16000000 		.4byte	.LFE68-.LFB68
 17178 0040 00000000 		.4byte	.LFB69
 17179 0044 58000000 		.4byte	.LFE69-.LFB69
 17180 0048 00000000 		.4byte	.LFB70
 17181 004c 32000000 		.4byte	.LFE70-.LFB70
 17182 0050 00000000 		.4byte	.LFB71
 17183 0054 90010000 		.4byte	.LFE71-.LFB71
 17184 0058 00000000 		.4byte	.LFB72
 17185 005c 3C000000 		.4byte	.LFE72-.LFB72
 17186 0060 00000000 		.4byte	.LFB73
 17187 0064 2C000000 		.4byte	.LFE73-.LFB73
 17188 0068 00000000 		.4byte	.LFB74
 17189 006c 32000000 		.4byte	.LFE74-.LFB74
 17190 0070 00000000 		.4byte	.LFB75
ARM GAS  C:\Users\FRANKL~1\AppData\Local\Temp\ccba5qpo.s 			page 339


 17191 0074 40000000 		.4byte	.LFE75-.LFB75
 17192 0078 00000000 		.4byte	.LFB76
 17193 007c 40000000 		.4byte	.LFE76-.LFB76
 17194 0080 00000000 		.4byte	.LFB77
 17195 0084 34000000 		.4byte	.LFE77-.LFB77
 17196 0088 00000000 		.4byte	.LFB78
 17197 008c 2C000000 		.4byte	.LFE78-.LFB78
 17198 0090 00000000 		.4byte	.LFB79
 17199 0094 38000000 		.4byte	.LFE79-.LFB79
 17200 0098 00000000 		.4byte	.LFB80
 17201 009c 16000000 		.4byte	.LFE80-.LFB80
 17202 00a0 00000000 		.4byte	.LFB81
 17203 00a4 14000000 		.4byte	.LFE81-.LFB81
 17204 00a8 00000000 		.4byte	.LFB82
 17205 00ac 54000000 		.4byte	.LFE82-.LFB82
 17206 00b0 00000000 		.4byte	.LFB83
 17207 00b4 54000000 		.4byte	.LFE83-.LFB83
 17208 00b8 00000000 		.4byte	.LFB84
 17209 00bc B6000000 		.4byte	.LFE84-.LFB84
 17210 00c0 00000000 		.4byte	.LFB85
 17211 00c4 B6000000 		.4byte	.LFE85-.LFB85
 17212 00c8 00000000 		.4byte	.LFB86
 17213 00cc B6000000 		.4byte	.LFE86-.LFB86
 17214 00d0 00000000 		.4byte	.LFB87
 17215 00d4 44010000 		.4byte	.LFE87-.LFB87
 17216 00d8 00000000 		.4byte	.LFB88
 17217 00dc 54000000 		.4byte	.LFE88-.LFB88
 17218 00e0 00000000 		.4byte	.LFB89
 17219 00e4 68000000 		.4byte	.LFE89-.LFB89
 17220 00e8 00000000 		.4byte	.LFB90
 17221 00ec 30000000 		.4byte	.LFE90-.LFB90
 17222 00f0 00000000 		.4byte	.LFB91
 17223 00f4 48000000 		.4byte	.LFE91-.LFB91
 17224 00f8 00000000 		.4byte	.LFB92
 17225 00fc 48000000 		.4byte	.LFE92-.LFB92
 17226 0100 00000000 		.4byte	.LFB93
 17227 0104 74000000 		.4byte	.LFE93-.LFB93
 17228 0108 00000000 		.4byte	.LFB94
 17229 010c 74000000 		.4byte	.LFE94-.LFB94
 17230 0110 00000000 		.4byte	.LFB95
 17231 0114 84000000 		.4byte	.LFE95-.LFB95
 17232 0118 00000000 		.4byte	.LFB96
 17233 011c C8000000 		.4byte	.LFE96-.LFB96
 17234 0120 00000000 		.4byte	.LFB97
 17235 0124 C8000000 		.4byte	.LFE97-.LFB97
 17236 0128 00000000 		.4byte	.LFB98
 17237 012c 38000000 		.4byte	.LFE98-.LFB98
 17238 0130 00000000 		.4byte	.LFB99
 17239 0134 38000000 		.4byte	.LFE99-.LFB99
 17240 0138 00000000 		.4byte	.LFB100
 17241 013c 14000000 		.4byte	.LFE100-.LFB100
 17242 0140 00000000 		.4byte	.LFB101
 17243 0144 14000000 		.4byte	.LFE101-.LFB101
 17244 0148 00000000 		.4byte	.LFB102
 17245 014c 1C000000 		.4byte	.LFE102-.LFB102
 17246 0150 00000000 		.4byte	.LFB103
 17247 0154 D0000000 		.4byte	.LFE103-.LFB103
ARM GAS  C:\Users\FRANKL~1\AppData\Local\Temp\ccba5qpo.s 			page 340


 17248 0158 00000000 		.4byte	.LFB104
 17249 015c 14010000 		.4byte	.LFE104-.LFB104
 17250 0160 00000000 		.4byte	.LFB105
 17251 0164 1A000000 		.4byte	.LFE105-.LFB105
 17252 0168 00000000 		.4byte	.LFB106
 17253 016c 2C000000 		.4byte	.LFE106-.LFB106
 17254 0170 00000000 		.4byte	.LFB107
 17255 0174 AC000000 		.4byte	.LFE107-.LFB107
 17256 0178 00000000 		.4byte	.LFB108
 17257 017c 84000000 		.4byte	.LFE108-.LFB108
 17258 0180 00000000 		.4byte	.LFB109
 17259 0184 98000000 		.4byte	.LFE109-.LFB109
 17260 0188 00000000 		.4byte	.LFB110
 17261 018c 90000000 		.4byte	.LFE110-.LFB110
 17262 0190 00000000 		.4byte	.LFB111
 17263 0194 A4000000 		.4byte	.LFE111-.LFB111
 17264 0198 00000000 		.4byte	.LFB113
 17265 019c EC080000 		.4byte	.LFE113-.LFB113
 17266 01a0 00000000 		.4byte	0
 17267 01a4 00000000 		.4byte	0
 17268              		.section	.debug_ranges,"",%progbits
 17269              	.Ldebug_ranges0:
 17270 0000 08000000 		.4byte	.LBB6
 17271 0004 16000000 		.4byte	.LBE6
 17272 0008 1E000000 		.4byte	.LBB7
 17273 000c 22000000 		.4byte	.LBE7
 17274 0010 00000000 		.4byte	0
 17275 0014 00000000 		.4byte	0
 17276 0018 06000000 		.4byte	.LBB17
 17277 001c 1A000000 		.4byte	.LBE17
 17278 0020 1C000000 		.4byte	.LBB18
 17279 0024 20000000 		.4byte	.LBE18
 17280 0028 00000000 		.4byte	0
 17281 002c 00000000 		.4byte	0
 17282 0030 0C000000 		.4byte	.LBB21
 17283 0034 0E000000 		.4byte	.LBE21
 17284 0038 14000000 		.4byte	.LBB23
 17285 003c A6000000 		.4byte	.LBE23
 17286 0040 00000000 		.4byte	0
 17287 0044 00000000 		.4byte	0
 17288 0048 0C000000 		.4byte	.LBB24
 17289 004c 0E000000 		.4byte	.LBE24
 17290 0050 14000000 		.4byte	.LBB26
 17291 0054 A6000000 		.4byte	.LBE26
 17292 0058 00000000 		.4byte	0
 17293 005c 00000000 		.4byte	0
 17294 0060 0C000000 		.4byte	.LBB27
 17295 0064 0E000000 		.4byte	.LBE27
 17296 0068 14000000 		.4byte	.LBB29
 17297 006c A6000000 		.4byte	.LBE29
 17298 0070 00000000 		.4byte	0
 17299 0074 00000000 		.4byte	0
 17300 0078 46000000 		.4byte	.LBB30
 17301 007c 48000000 		.4byte	.LBE30
 17302 0080 4E000000 		.4byte	.LBB31
 17303 0084 12010000 		.4byte	.LBE31
 17304 0088 00000000 		.4byte	0
ARM GAS  C:\Users\FRANKL~1\AppData\Local\Temp\ccba5qpo.s 			page 341


 17305 008c 00000000 		.4byte	0
 17306 0090 2E000000 		.4byte	.LBB35
 17307 0094 40000000 		.4byte	.LBE35
 17308 0098 42000000 		.4byte	.LBB36
 17309 009c 46000000 		.4byte	.LBE36
 17310 00a0 00000000 		.4byte	0
 17311 00a4 00000000 		.4byte	0
 17312 00a8 2E000000 		.4byte	.LBB38
 17313 00ac 40000000 		.4byte	.LBE38
 17314 00b0 42000000 		.4byte	.LBB39
 17315 00b4 46000000 		.4byte	.LBE39
 17316 00b8 00000000 		.4byte	0
 17317 00bc 00000000 		.4byte	0
 17318 00c0 1A000000 		.4byte	.LBB45
 17319 00c4 20000000 		.4byte	.LBE45
 17320 00c8 28000000 		.4byte	.LBB52
 17321 00cc A0000000 		.4byte	.LBE52
 17322 00d0 00000000 		.4byte	0
 17323 00d4 00000000 		.4byte	0
 17324 00d8 1A000000 		.4byte	.LBB46
 17325 00dc 20000000 		.4byte	.LBE46
 17326 00e0 28000000 		.4byte	.LBB51
 17327 00e4 94000000 		.4byte	.LBE51
 17328 00e8 00000000 		.4byte	0
 17329 00ec 00000000 		.4byte	0
 17330 00f0 1A000000 		.4byte	.LBB47
 17331 00f4 20000000 		.4byte	.LBE47
 17332 00f8 4E000000 		.4byte	.LBB50
 17333 00fc 94000000 		.4byte	.LBE50
 17334 0100 00000000 		.4byte	0
 17335 0104 00000000 		.4byte	0
 17336 0108 50000000 		.4byte	.LBB48
 17337 010c 86000000 		.4byte	.LBE48
 17338 0110 88000000 		.4byte	.LBB49
 17339 0114 8C000000 		.4byte	.LBE49
 17340 0118 00000000 		.4byte	0
 17341 011c 00000000 		.4byte	0
 17342 0120 2A000000 		.4byte	.LBB56
 17343 0124 60000000 		.4byte	.LBE56
 17344 0128 62000000 		.4byte	.LBB57
 17345 012c 66000000 		.4byte	.LBE57
 17346 0130 00000000 		.4byte	0
 17347 0134 00000000 		.4byte	0
 17348 0138 00000000 		.4byte	.LFB64
 17349 013c 18000000 		.4byte	.LFE64
 17350 0140 00000000 		.4byte	.LFB65
 17351 0144 1E000000 		.4byte	.LFE65
 17352 0148 00000000 		.4byte	.LFB112
 17353 014c B0010000 		.4byte	.LFE112
 17354 0150 00000000 		.4byte	.LFB66
 17355 0154 50000000 		.4byte	.LFE66
 17356 0158 00000000 		.4byte	.LFB67
 17357 015c 24000000 		.4byte	.LFE67
 17358 0160 00000000 		.4byte	.LFB68
 17359 0164 16000000 		.4byte	.LFE68
 17360 0168 00000000 		.4byte	.LFB69
 17361 016c 58000000 		.4byte	.LFE69
ARM GAS  C:\Users\FRANKL~1\AppData\Local\Temp\ccba5qpo.s 			page 342


 17362 0170 00000000 		.4byte	.LFB70
 17363 0174 32000000 		.4byte	.LFE70
 17364 0178 00000000 		.4byte	.LFB71
 17365 017c 90010000 		.4byte	.LFE71
 17366 0180 00000000 		.4byte	.LFB72
 17367 0184 3C000000 		.4byte	.LFE72
 17368 0188 00000000 		.4byte	.LFB73
 17369 018c 2C000000 		.4byte	.LFE73
 17370 0190 00000000 		.4byte	.LFB74
 17371 0194 32000000 		.4byte	.LFE74
 17372 0198 00000000 		.4byte	.LFB75
 17373 019c 40000000 		.4byte	.LFE75
 17374 01a0 00000000 		.4byte	.LFB76
 17375 01a4 40000000 		.4byte	.LFE76
 17376 01a8 00000000 		.4byte	.LFB77
 17377 01ac 34000000 		.4byte	.LFE77
 17378 01b0 00000000 		.4byte	.LFB78
 17379 01b4 2C000000 		.4byte	.LFE78
 17380 01b8 00000000 		.4byte	.LFB79
 17381 01bc 38000000 		.4byte	.LFE79
 17382 01c0 00000000 		.4byte	.LFB80
 17383 01c4 16000000 		.4byte	.LFE80
 17384 01c8 00000000 		.4byte	.LFB81
 17385 01cc 14000000 		.4byte	.LFE81
 17386 01d0 00000000 		.4byte	.LFB82
 17387 01d4 54000000 		.4byte	.LFE82
 17388 01d8 00000000 		.4byte	.LFB83
 17389 01dc 54000000 		.4byte	.LFE83
 17390 01e0 00000000 		.4byte	.LFB84
 17391 01e4 B6000000 		.4byte	.LFE84
 17392 01e8 00000000 		.4byte	.LFB85
 17393 01ec B6000000 		.4byte	.LFE85
 17394 01f0 00000000 		.4byte	.LFB86
 17395 01f4 B6000000 		.4byte	.LFE86
 17396 01f8 00000000 		.4byte	.LFB87
 17397 01fc 44010000 		.4byte	.LFE87
 17398 0200 00000000 		.4byte	.LFB88
 17399 0204 54000000 		.4byte	.LFE88
 17400 0208 00000000 		.4byte	.LFB89
 17401 020c 68000000 		.4byte	.LFE89
 17402 0210 00000000 		.4byte	.LFB90
 17403 0214 30000000 		.4byte	.LFE90
 17404 0218 00000000 		.4byte	.LFB91
 17405 021c 48000000 		.4byte	.LFE91
 17406 0220 00000000 		.4byte	.LFB92
 17407 0224 48000000 		.4byte	.LFE92
 17408 0228 00000000 		.4byte	.LFB93
 17409 022c 74000000 		.4byte	.LFE93
 17410 0230 00000000 		.4byte	.LFB94
 17411 0234 74000000 		.4byte	.LFE94
 17412 0238 00000000 		.4byte	.LFB95
 17413 023c 84000000 		.4byte	.LFE95
 17414 0240 00000000 		.4byte	.LFB96
 17415 0244 C8000000 		.4byte	.LFE96
 17416 0248 00000000 		.4byte	.LFB97
 17417 024c C8000000 		.4byte	.LFE97
 17418 0250 00000000 		.4byte	.LFB98
ARM GAS  C:\Users\FRANKL~1\AppData\Local\Temp\ccba5qpo.s 			page 343


 17419 0254 38000000 		.4byte	.LFE98
 17420 0258 00000000 		.4byte	.LFB99
 17421 025c 38000000 		.4byte	.LFE99
 17422 0260 00000000 		.4byte	.LFB100
 17423 0264 14000000 		.4byte	.LFE100
 17424 0268 00000000 		.4byte	.LFB101
 17425 026c 14000000 		.4byte	.LFE101
 17426 0270 00000000 		.4byte	.LFB102
 17427 0274 1C000000 		.4byte	.LFE102
 17428 0278 00000000 		.4byte	.LFB103
 17429 027c D0000000 		.4byte	.LFE103
 17430 0280 00000000 		.4byte	.LFB104
 17431 0284 14010000 		.4byte	.LFE104
 17432 0288 00000000 		.4byte	.LFB105
 17433 028c 1A000000 		.4byte	.LFE105
 17434 0290 00000000 		.4byte	.LFB106
 17435 0294 2C000000 		.4byte	.LFE106
 17436 0298 00000000 		.4byte	.LFB107
 17437 029c AC000000 		.4byte	.LFE107
 17438 02a0 00000000 		.4byte	.LFB108
 17439 02a4 84000000 		.4byte	.LFE108
 17440 02a8 00000000 		.4byte	.LFB109
 17441 02ac 98000000 		.4byte	.LFE109
 17442 02b0 00000000 		.4byte	.LFB110
 17443 02b4 90000000 		.4byte	.LFE110
 17444 02b8 00000000 		.4byte	.LFB111
 17445 02bc A4000000 		.4byte	.LFE111
 17446 02c0 00000000 		.4byte	.LFB113
 17447 02c4 EC080000 		.4byte	.LFE113
 17448 02c8 00000000 		.4byte	0
 17449 02cc 00000000 		.4byte	0
 17450              		.section	.debug_line,"",%progbits
 17451              	.Ldebug_line0:
 17452 0000 3B0E0000 		.section	.debug_str,"MS",%progbits,1
 17452      0200D302 
 17452      00000201 
 17452      FB0E0D00 
 17452      01010101 
 17453              	.LASF58:
 17454 0000 696E7465 		.ascii	"intermediate\000"
 17454      726D6564 
 17454      69617465 
 17454      00
 17455              	.LASF12:
 17456 000d 73697A65 		.ascii	"sizetype\000"
 17456      74797065 
 17456      00
 17457              	.LASF138:
 17458 0016 53415232 		.ascii	"SAR2_SD\000"
 17458      5F534400 
 17459              	.LASF113:
 17460 001e 6162736F 		.ascii	"absolute\000"
 17460      6C757465 
 17460      00
 17461              	.LASF68:
 17462 0027 5449415F 		.ascii	"TIA_Set_Resistor\000"
 17462      5365745F 
ARM GAS  C:\Users\FRANKL~1\AppData\Local\Temp\ccba5qpo.s 			page 344


 17462      52657369 
 17462      73746F72 
 17462      00
 17463              	.LASF218:
 17464 0038 4144435F 		.ascii	"ADC_DelSig_1_StartConvert\000"
 17464      44656C53 
 17464      69675F31 
 17464      5F537461 
 17464      7274436F 
 17465              	.LASF38:
 17466 0052 74726965 		.ascii	"tries\000"
 17466      7300
 17467              	.LASF15:
 17468 0058 696E7433 		.ascii	"int32_t\000"
 17468      325F7400 
 17469              	.LASF251:
 17470 0060 5449415F 		.ascii	"TIA_resistor\000"
 17470      72657369 
 17470      73746F72 
 17470      00
 17471              	.LASF102:
 17472 006d 4765745F 		.ascii	"Get_Ref\000"
 17472      52656600 
 17473              	.LASF18:
 17474 0075 75696E74 		.ascii	"uint32\000"
 17474      333200
 17475              	.LASF25:
 17476 007c 77726974 		.ascii	"write\000"
 17476      6500
 17477              	.LASF97:
 17478 0082 63757272 		.ascii	"currentSD\000"
 17478      656E7453 
 17478      4400
 17479              	.LASF66:
 17480 008c 436F6E6E 		.ascii	"Connect_Intermediate\000"
 17480      6563745F 
 17480      496E7465 
 17480      726D6564 
 17480      69617465 
 17481              	.LASF132:
 17482 00a1 4144435F 		.ascii	"ADC_Voltage_SD\000"
 17482      566F6C74 
 17482      6167655F 
 17482      534400
 17483              	.LASF146:
 17484 00b0 64697265 		.ascii	"direction\000"
 17484      6374696F 
 17484      6E00
 17485              	.LASF112:
 17486 00ba 5365745F 		.ascii	"Set_Vds_Rel\000"
 17486      5664735F 
 17486      52656C00 
 17487              	.LASF143:
 17488 00c6 56677369 		.ascii	"Vgsi\000"
 17488      00
 17489              	.LASF73:
 17490 00cb 61766572 		.ascii	"average\000"
ARM GAS  C:\Users\FRANKL~1\AppData\Local\Temp\ccba5qpo.s 			page 345


 17490      61676500 
 17491              	.LASF44:
 17492 00d3 55534255 		.ascii	"USBUARTH_Send\000"
 17492      41525448 
 17492      5F53656E 
 17492      6400
 17493              	.LASF190:
 17494 00e1 5449415F 		.ascii	"TIA_Resistor_Values\000"
 17494      52657369 
 17494      73746F72 
 17494      5F56616C 
 17494      75657300 
 17495              	.LASF213:
 17496 00f5 4932435F 		.ascii	"I2C_1_Start\000"
 17496      315F5374 
 17496      61727400 
 17497              	.LASF186:
 17498 0101 55534255 		.ascii	"USBUART_Receive_Buffer\000"
 17498      4152545F 
 17498      52656365 
 17498      6976655F 
 17498      42756666 
 17499              	.LASF182:
 17500 0118 475F4272 		.ascii	"G_Break\000"
 17500      65616B00 
 17501              	.LASF159:
 17502 0120 67617465 		.ascii	"gateIndex\000"
 17502      496E6465 
 17502      7800
 17503              	.LASF108:
 17504 012a 5365745F 		.ascii	"Set_Vgs_Raw\000"
 17504      5667735F 
 17504      52617700 
 17505              	.LASF93:
 17506 0136 5449415F 		.ascii	"TIA_Feedback_R\000"
 17506      46656564 
 17506      6261636B 
 17506      5F5200
 17507              	.LASF19:
 17508 0145 696E7438 		.ascii	"int8\000"
 17508      00
 17509              	.LASF195:
 17510 014a 43757272 		.ascii	"Current_Measurement_Sample_Count\000"
 17510      656E745F 
 17510      4D656173 
 17510      7572656D 
 17510      656E745F 
 17511              	.LASF212:
 17512 016b 4932435F 		.ascii	"I2C_1_Stop\000"
 17512      315F5374 
 17512      6F7000
 17513              	.LASF82:
 17514 0176 53415231 		.ascii	"SAR1_Result_Current\000"
 17514      5F526573 
 17514      756C745F 
 17514      43757272 
 17514      656E7400 
ARM GAS  C:\Users\FRANKL~1\AppData\Local\Temp\ccba5qpo.s 			page 346


 17515              	.LASF64:
 17516 018a 44697363 		.ascii	"Disconnect_All_Contacts_From_All_Intermediates\000"
 17516      6F6E6E65 
 17516      63745F41 
 17516      6C6C5F43 
 17516      6F6E7461 
 17517              	.LASF99:
 17518 01b9 69737461 		.ascii	"istart\000"
 17518      727400
 17519              	.LASF72:
 17520 01c0 4144435F 		.ascii	"ADC_Measure_uV\000"
 17520      4D656173 
 17520      7572655F 
 17520      755600
 17521              	.LASF92:
 17522 01cf 63757272 		.ascii	"currentStdDev\000"
 17522      656E7453 
 17522      74644465 
 17522      7600
 17523              	.LASF123:
 17524 01dd 5365745F 		.ascii	"Set_Vds_mV\000"
 17524      5664735F 
 17524      6D5600
 17525              	.LASF103:
 17526 01e8 72657375 		.ascii	"result\000"
 17526      6C7400
 17527              	.LASF246:
 17528 01ef 436F6D6D 		.ascii	"CommunicationInterrupt_StartEx\000"
 17528      756E6963 
 17528      6174696F 
 17528      6E496E74 
 17528      65727275 
 17529              	.LASF9:
 17530 020e 6C6F6E67 		.ascii	"long int\000"
 17530      20696E74 
 17530      00
 17531              	.LASF155:
 17532 0217 72656641 		.ascii	"refArrived\000"
 17532      72726976 
 17532      656400
 17533              	.LASF236:
 17534 0222 55415254 		.ascii	"UART_1_Start\000"
 17534      5F315F53 
 17534      74617274 
 17534      00
 17535              	.LASF85:
 17536 022f 4D656173 		.ascii	"Measure_Current_Vss\000"
 17536      7572655F 
 17536      43757272 
 17536      656E745F 
 17536      56737300 
 17537              	.LASF253:
 17538 0243 73747263 		.ascii	"strchr\000"
 17538      687200
 17539              	.LASF28:
 17540 024a 5232304B 		.ascii	"R20K\000"
 17540      00
ARM GAS  C:\Users\FRANKL~1\AppData\Local\Temp\ccba5qpo.s 			page 347


 17541              	.LASF252:
 17542 024f 6D61696E 		.ascii	"main\000"
 17542      00
 17543              	.LASF230:
 17544 0254 56444143 		.ascii	"VDAC_Vds_SetValue\000"
 17544      5F566473 
 17544      5F536574 
 17544      56616C75 
 17544      6500
 17545              	.LASF8:
 17546 0266 73686F72 		.ascii	"short unsigned int\000"
 17546      7420756E 
 17546      7369676E 
 17546      65642069 
 17546      6E7400
 17547              	.LASF161:
 17548 0279 5363616E 		.ascii	"Scan\000"
 17548      00
 17549              	.LASF247:
 17550 027e 474E5520 		.ascii	"GNU C11 5.4.1 20160609 (release) [ARM/embedded-5-br"
 17550      43313120 
 17550      352E342E 
 17550      31203230 
 17550      31363036 
 17551 02b1 616E6368 		.ascii	"anch revision 237715] -mcpu=cortex-m3 -mthumb -g -O"
 17551      20726576 
 17551      6973696F 
 17551      6E203233 
 17551      37373135 
 17552 02e4 67202D66 		.ascii	"g -ffunction-sections -ffat-lto-objects\000"
 17552      66756E63 
 17552      74696F6E 
 17552      2D736563 
 17552      74696F6E 
 17553              	.LASF55:
 17554 030c 53657475 		.ascii	"Setup_Selectors\000"
 17554      705F5365 
 17554      6C656374 
 17554      6F727300 
 17555              	.LASF35:
 17556 031c 52313030 		.ascii	"R1000K\000"
 17556      304B00
 17557              	.LASF224:
 17558 0323 4144435F 		.ascii	"ADC_SAR_1_GetResult16\000"
 17558      5341525F 
 17558      315F4765 
 17558      74526573 
 17558      756C7431 
 17559              	.LASF50:
 17560 0339 53657475 		.ascii	"Setup_Selector_I2C_Struct\000"
 17560      705F5365 
 17560      6C656374 
 17560      6F725F49 
 17560      32435F53 
 17561              	.LASF5:
 17562 0353 7369676E 		.ascii	"signed char\000"
 17562      65642063 
ARM GAS  C:\Users\FRANKL~1\AppData\Local\Temp\ccba5qpo.s 			page 348


 17562      68617200 
 17563              	.LASF250:
 17564 035f 53656C65 		.ascii	"Selector_I2C_Struct\000"
 17564      63746F72 
 17564      5F493243 
 17564      5F537472 
 17564      75637400 
 17565              	.LASF222:
 17566 0373 4144435F 		.ascii	"ADC_SAR_1_StartConvert\000"
 17566      5341525F 
 17566      315F5374 
 17566      61727443 
 17566      6F6E7665 
 17567              	.LASF6:
 17568 038a 756E7369 		.ascii	"unsigned char\000"
 17568      676E6564 
 17568      20636861 
 17568      7200
 17569              	.LASF101:
 17570 0398 696E6372 		.ascii	"increment\000"
 17570      656D656E 
 17570      7400
 17571              	.LASF126:
 17572 03a2 63757272 		.ascii	"current_range_resistor\000"
 17572      656E745F 
 17572      72616E67 
 17572      655F7265 
 17572      73697374 
 17573              	.LASF46:
 17574 03b9 55534255 		.ascii	"USBUARTH_GetChar\000"
 17574      41525448 
 17574      5F476574 
 17574      43686172 
 17574      00
 17575              	.LASF135:
 17576 03ca 53415231 		.ascii	"SAR1_Average\000"
 17576      5F417665 
 17576      72616765 
 17576      00
 17577              	.LASF175:
 17578 03d7 5667735F 		.ascii	"Vgs_mV\000"
 17578      6D5600
 17579              	.LASF119:
 17580 03de 5365745F 		.ascii	"Set_Vgs_Rel\000"
 17580      5667735F 
 17580      52656C00 
 17581              	.LASF107:
 17582 03ea 76616C75 		.ascii	"value\000"
 17582      6500
 17583              	.LASF13:
 17584 03f0 63686172 		.ascii	"char\000"
 17584      00
 17585              	.LASF210:
 17586 03f5 4932435F 		.ascii	"I2C_1_MasterStatus\000"
 17586      315F4D61 
 17586      73746572 
 17586      53746174 
ARM GAS  C:\Users\FRANKL~1\AppData\Local\Temp\ccba5qpo.s 			page 349


 17586      757300
 17587              	.LASF111:
 17588 0408 6E65775F 		.ascii	"new_Vds\000"
 17588      56647300 
 17589              	.LASF78:
 17590 0410 4144435F 		.ascii	"ADC_Result_Current\000"
 17590      52657375 
 17590      6C745F43 
 17590      75727265 
 17590      6E7400
 17591              	.LASF130:
 17592 0423 53415232 		.ascii	"SAR2_SampleCount\000"
 17592      5F53616D 
 17592      706C6543 
 17592      6F756E74 
 17592      00
 17593              	.LASF94:
 17594 0434 756E6974 		.ascii	"unitConversion\000"
 17594      436F6E76 
 17594      65727369 
 17594      6F6E00
 17595              	.LASF32:
 17596 0443 52313230 		.ascii	"R120K\000"
 17596      4B00
 17597              	.LASF229:
 17598 0449 4144435F 		.ascii	"ADC_SAR_2_CountsTo_uVolts\000"
 17598      5341525F 
 17598      325F436F 
 17598      756E7473 
 17598      546F5F75 
 17599              	.LASF142:
 17600 0463 4D656173 		.ascii	"Measure_Sweep\000"
 17600      7572655F 
 17600      53776565 
 17600      7000
 17601              	.LASF154:
 17602 0471 72656649 		.ascii	"refIndex\000"
 17602      6E646578 
 17602      00
 17603              	.LASF206:
 17604 047a 55534255 		.ascii	"USBUART_CDCIsReady\000"
 17604      4152545F 
 17604      43444349 
 17604      73526561 
 17604      647900
 17605              	.LASF133:
 17606 048d 5449415F 		.ascii	"TIA_Offset_uV\000"
 17606      4F666673 
 17606      65745F75 
 17606      5600
 17607              	.LASF124:
 17608 049b 5A65726F 		.ascii	"Zero_All_DACs\000"
 17608      5F416C6C 
 17608      5F444143 
 17608      7300
 17609              	.LASF225:
 17610 04a9 4144435F 		.ascii	"ADC_SAR_1_CountsTo_uVolts\000"
ARM GAS  C:\Users\FRANKL~1\AppData\Local\Temp\ccba5qpo.s 			page 350


 17610      5341525F 
 17610      315F436F 
 17610      756E7473 
 17610      546F5F75 
 17611              	.LASF42:
 17612 04c3 62756666 		.ascii	"buffer\000"
 17612      657200
 17613              	.LASF86:
 17614 04ca 63757272 		.ascii	"currentAverageIn\000"
 17614      656E7441 
 17614      76657261 
 17614      6765496E 
 17614      00
 17615              	.LASF39:
 17616 04db 74656D70 		.ascii	"temp_buffer\000"
 17616      5F627566 
 17616      66657200 
 17617              	.LASF29:
 17618 04e7 5233304B 		.ascii	"R30K\000"
 17618      00
 17619              	.LASF221:
 17620 04ec 4144435F 		.ascii	"ADC_DelSig_1_CountsTo_uVolts\000"
 17620      44656C53 
 17620      69675F31 
 17620      5F436F75 
 17620      6E747354 
 17621              	.LASF77:
 17622 0509 4144435F 		.ascii	"ADC_SD\000"
 17622      534400
 17623              	.LASF180:
 17624 0510 6E657744 		.ascii	"newData\000"
 17624      61746100 
 17625              	.LASF110:
 17626 0518 6E65775F 		.ascii	"new_Vgs\000"
 17626      56677300 
 17627              	.LASF31:
 17628 0520 5238304B 		.ascii	"R80K\000"
 17628      00
 17629              	.LASF235:
 17630 0525 55534255 		.ascii	"USBUART_Start\000"
 17630      4152545F 
 17630      53746172 
 17630      7400
 17631              	.LASF80:
 17632 0533 5341525F 		.ascii	"SAR_Result\000"
 17632      52657375 
 17632      6C7400
 17633              	.LASF109:
 17634 053e 5365745F 		.ascii	"Set_Ref_Raw\000"
 17634      5265665F 
 17634      52617700 
 17635              	.LASF48:
 17636 054a 6D61784C 		.ascii	"maxLength\000"
 17636      656E6774 
 17636      6800
 17637              	.LASF200:
 17638 0554 55534255 		.ascii	"USBUART_GetAll\000"
ARM GAS  C:\Users\FRANKL~1\AppData\Local\Temp\ccba5qpo.s 			page 351


 17638      4152545F 
 17638      47657441 
 17638      6C6C00
 17639              	.LASF33:
 17640 0563 52323530 		.ascii	"R250K\000"
 17640      4B00
 17641              	.LASF188:
 17642 0569 5449415F 		.ascii	"TIA_Selected_Resistor\000"
 17642      53656C65 
 17642      63746564 
 17642      5F526573 
 17642      6973746F 
 17643              	.LASF10:
 17644 057f 6C6F6E67 		.ascii	"long unsigned int\000"
 17644      20756E73 
 17644      69676E65 
 17644      6420696E 
 17644      7400
 17645              	.LASF116:
 17646 0591 5667735F 		.ascii	"Vgs_minRefRaw\000"
 17646      6D696E52 
 17646      65665261 
 17646      7700
 17647              	.LASF88:
 17648 059f 766F6C74 		.ascii	"voltage\000"
 17648      61676500 
 17649              	.LASF57:
 17650 05a7 6368616E 		.ascii	"channel\000"
 17650      6E656C00 
 17651              	.LASF231:
 17652 05af 56444143 		.ascii	"VDAC_Vgs_SetValue\000"
 17652      5F566773 
 17652      5F536574 
 17652      56616C75 
 17652      6500
 17653              	.LASF89:
 17654 05c1 766F6C74 		.ascii	"voltageSD\000"
 17654      61676553 
 17654      4400
 17655              	.LASF81:
 17656 05cb 5341525F 		.ascii	"SAR_SD\000"
 17656      534400
 17657              	.LASF131:
 17658 05d2 4144435F 		.ascii	"ADC_Voltage\000"
 17658      566F6C74 
 17658      61676500 
 17659              	.LASF114:
 17660 05de 5664735F 		.ascii	"Vds_minRefRaw\000"
 17660      6D696E52 
 17660      65665261 
 17660      7700
 17661              	.LASF194:
 17662 05ec 5664735F 		.ascii	"Vds_Index_Goal_Relative\000"
 17662      496E6465 
 17662      785F476F 
 17662      616C5F52 
 17662      656C6174 
ARM GAS  C:\Users\FRANKL~1\AppData\Local\Temp\ccba5qpo.s 			page 352


 17663              	.LASF214:
 17664 0604 73707269 		.ascii	"sprintf\000"
 17664      6E746600 
 17665              	.LASF100:
 17666 060c 6973746F 		.ascii	"istop\000"
 17666      7000
 17667              	.LASF137:
 17668 0612 53415232 		.ascii	"SAR2_Average\000"
 17668      5F417665 
 17668      72616765 
 17668      00
 17669              	.LASF91:
 17670 061f 63757272 		.ascii	"currentAverage\000"
 17670      656E7441 
 17670      76657261 
 17670      676500
 17671              	.LASF144:
 17672 062e 4D656173 		.ascii	"Measure_Gate_Sweep\000"
 17672      7572655F 
 17672      47617465 
 17672      5F537765 
 17672      657000
 17673              	.LASF171:
 17674 0641 6C6F6361 		.ascii	"location\000"
 17674      74696F6E 
 17674      00
 17675              	.LASF71:
 17676 064a 4144435F 		.ascii	"ADC_Decrease_Range\000"
 17676      44656372 
 17676      65617365 
 17676      5F52616E 
 17676      676500
 17677              	.LASF220:
 17678 065d 4144435F 		.ascii	"ADC_DelSig_1_GetResult32\000"
 17678      44656C53 
 17678      69675F31 
 17678      5F476574 
 17678      52657375 
 17679              	.LASF67:
 17680 0676 436F6E6E 		.ascii	"Connect_Intermediates\000"
 17680      6563745F 
 17680      496E7465 
 17680      726D6564 
 17680      69617465 
 17681              	.LASF156:
 17682 068c 67617465 		.ascii	"gateIncrement\000"
 17682      496E6372 
 17682      656D656E 
 17682      7400
 17683              	.LASF3:
 17684 069a 6C6F6E67 		.ascii	"long long int\000"
 17684      206C6F6E 
 17684      6720696E 
 17684      7400
 17685              	.LASF23:
 17686 06a8 73756241 		.ascii	"subAddress\000"
 17686      64647265 
ARM GAS  C:\Users\FRANKL~1\AppData\Local\Temp\ccba5qpo.s 			page 353


 17686      737300
 17687              	.LASF1:
 17688 06b3 646F7562 		.ascii	"double\000"
 17688      6C6500
 17689              	.LASF248:
 17690 06ba 6D61696E 		.ascii	"main.c\000"
 17690      2E6300
 17691              	.LASF83:
 17692 06c1 53415232 		.ascii	"SAR2_Measure_V\000"
 17692      5F4D6561 
 17692      73757265 
 17692      5F5600
 17693              	.LASF234:
 17694 06d0 73736361 		.ascii	"sscanf\000"
 17694      6E6600
 17695              	.LASF239:
 17696 06d7 56444143 		.ascii	"VDAC_Ref_Start\000"
 17696      5F526566 
 17696      5F537461 
 17696      727400
 17697              	.LASF36:
 17698 06e6 55534255 		.ascii	"USBUARTH_DataIsReady\000"
 17698      41525448 
 17698      5F446174 
 17698      61497352 
 17698      65616479 
 17699              	.LASF49:
 17700 06fb 7465726D 		.ascii	"termination\000"
 17700      696E6174 
 17700      696F6E00 
 17701              	.LASF227:
 17702 0707 4144435F 		.ascii	"ADC_SAR_2_IsEndConversion\000"
 17702      5341525F 
 17702      325F4973 
 17702      456E6443 
 17702      6F6E7665 
 17703              	.LASF115:
 17704 0721 5664735F 		.ascii	"Vds_maxRefRaw\000"
 17704      6D617852 
 17704      65665261 
 17704      7700
 17705              	.LASF177:
 17706 072f 49544D5F 		.ascii	"ITM_RxBuffer\000"
 17706      52784275 
 17706      66666572 
 17706      00
 17707              	.LASF53:
 17708 073c 73656C65 		.ascii	"selectori\000"
 17708      63746F72 
 17708      6900
 17709              	.LASF192:
 17710 0746 436F6D70 		.ascii	"Compliance_Reached\000"
 17710      6C69616E 
 17710      63655F52 
 17710      65616368 
 17710      656400
 17711              	.LASF75:
ARM GAS  C:\Users\FRANKL~1\AppData\Local\Temp\ccba5qpo.s 			page 354


 17712 0759 73616D70 		.ascii	"sampleCount\000"
 17712      6C65436F 
 17712      756E7400 
 17713              	.LASF178:
 17714 0765 73656C65 		.ascii	"selectors\000"
 17714      63746F72 
 17714      7300
 17715              	.LASF43:
 17716 076f 636F756E 		.ascii	"count\000"
 17716      7400
 17717              	.LASF26:
 17718 0775 72656164 		.ascii	"read\000"
 17718      00
 17719              	.LASF98:
 17720 077a 48616E64 		.ascii	"Handle_Compliance_Breach\000"
 17720      6C655F43 
 17720      6F6D706C 
 17720      69616E63 
 17720      655F4272 
 17721              	.LASF242:
 17722 0793 4144435F 		.ascii	"ADC_SAR_1_Start\000"
 17722      5341525F 
 17722      315F5374 
 17722      61727400 
 17723              	.LASF2:
 17724 07a3 756E7369 		.ascii	"unsigned int\000"
 17724      676E6564 
 17724      20696E74 
 17724      00
 17725              	.LASF149:
 17726 07b0 4D656173 		.ascii	"Measure_Gate_Sweep_New\000"
 17726      7572655F 
 17726      47617465 
 17726      5F537765 
 17726      65705F4E 
 17727              	.LASF223:
 17728 07c7 4144435F 		.ascii	"ADC_SAR_1_IsEndConversion\000"
 17728      5341525F 
 17728      315F4973 
 17728      456E6443 
 17728      6F6E7665 
 17729              	.LASF54:
 17730 07e1 55534255 		.ascii	"USBUARTH_Maintain_Configuration\000"
 17730      41525448 
 17730      5F4D6169 
 17730      6E746169 
 17730      6E5F436F 
 17731              	.LASF30:
 17732 0801 5234304B 		.ascii	"R40K\000"
 17732      00
 17733              	.LASF63:
 17734 0806 44697363 		.ascii	"Disconnect_Contact_From_All_Intermediates\000"
 17734      6F6E6E65 
 17734      63745F43 
 17734      6F6E7461 
 17734      63745F46 
 17735              	.LASF172:
ARM GAS  C:\Users\FRANKL~1\AppData\Local\Temp\ccba5qpo.s 			page 355


 17736 0830 76677369 		.ascii	"vgsi\000"
 17736      00
 17737              	.LASF87:
 17738 0835 63757272 		.ascii	"currentStdDevIn\000"
 17738      656E7453 
 17738      74644465 
 17738      76496E00 
 17739              	.LASF219:
 17740 0845 4144435F 		.ascii	"ADC_DelSig_1_IsEndConversion\000"
 17740      44656C53 
 17740      69675F31 
 17740      5F497345 
 17740      6E64436F 
 17741              	.LASF245:
 17742 0862 436F6D6D 		.ascii	"CommunicationTimer_Start\000"
 17742      756E6963 
 17742      6174696F 
 17742      6E54696D 
 17742      65725F53 
 17743              	.LASF205:
 17744 087b 436F6D6D 		.ascii	"CommunicationTimer_ReadStatusRegister\000"
 17744      756E6963 
 17744      6174696F 
 17744      6E54696D 
 17744      65725F52 
 17745              	.LASF90:
 17746 08a1 63757272 		.ascii	"currentNow\000"
 17746      656E744E 
 17746      6F7700
 17747              	.LASF96:
 17748 08ac 63757272 		.ascii	"current\000"
 17748      656E7400 
 17749              	.LASF74:
 17750 08b4 7374616E 		.ascii	"standardDeviation\000"
 17750      64617264 
 17750      44657669 
 17750      6174696F 
 17750      6E00
 17751              	.LASF47:
 17752 08c6 55534255 		.ascii	"USBUARTH_Receive_Until\000"
 17752      41525448 
 17752      5F526563 
 17752      65697665 
 17752      5F556E74 
 17753              	.LASF153:
 17754 08dd 656E6452 		.ascii	"endRefIndex\000"
 17754      6566496E 
 17754      64657800 
 17755              	.LASF61:
 17756 08e9 6F666673 		.ascii	"offset\000"
 17756      657400
 17757              	.LASF241:
 17758 08f0 5449415F 		.ascii	"TIA_1_Start\000"
 17758      315F5374 
 17758      61727400 
 17759              	.LASF243:
 17760 08fc 4144435F 		.ascii	"ADC_SAR_2_Start\000"
ARM GAS  C:\Users\FRANKL~1\AppData\Local\Temp\ccba5qpo.s 			page 356


 17760      5341525F 
 17760      325F5374 
 17760      61727400 
 17761              	.LASF65:
 17762 090c 44697363 		.ascii	"Disconnect_All_Contacts_From_Intermediate\000"
 17762      6F6E6E65 
 17762      63745F41 
 17762      6C6C5F43 
 17762      6F6E7461 
 17763              	.LASF228:
 17764 0936 4144435F 		.ascii	"ADC_SAR_2_GetResult16\000"
 17764      5341525F 
 17764      325F4765 
 17764      74526573 
 17764      756C7431 
 17765              	.LASF189:
 17766 094c 5449415F 		.ascii	"TIA_Resistor_Codes\000"
 17766      52657369 
 17766      73746F72 
 17766      5F436F64 
 17766      657300
 17767              	.LASF207:
 17768 095f 55534255 		.ascii	"USBUART_PutData\000"
 17768      4152545F 
 17768      50757444 
 17768      61746100 
 17769              	.LASF174:
 17770 096f 73756363 		.ascii	"success\000"
 17770      65737300 
 17771              	.LASF157:
 17772 0977 73746172 		.ascii	"startGateIndex\000"
 17772      74476174 
 17772      65496E64 
 17772      657800
 17773              	.LASF4:
 17774 0986 6C6F6E67 		.ascii	"long double\000"
 17774      20646F75 
 17774      626C6500 
 17775              	.LASF238:
 17776 0992 56444143 		.ascii	"VDAC_Vgs_Start\000"
 17776      5F566773 
 17776      5F537461 
 17776      727400
 17777              	.LASF41:
 17778 09a1 52656365 		.ascii	"ReceiveBuffer\000"
 17778      69766542 
 17778      75666665 
 17778      7200
 17779              	.LASF211:
 17780 09af 55415254 		.ascii	"UART_1_PutString\000"
 17780      5F315F50 
 17780      75745374 
 17780      72696E67 
 17780      00
 17781              	.LASF187:
 17782 09c0 55534255 		.ascii	"USBUART_Rx_Position\000"
 17782      4152545F 
ARM GAS  C:\Users\FRANKL~1\AppData\Local\Temp\ccba5qpo.s 			page 357


 17782      52785F50 
 17782      6F736974 
 17782      696F6E00 
 17783              	.LASF198:
 17784 09d4 55534255 		.ascii	"USBUART_CDC_Init\000"
 17784      4152545F 
 17784      4344435F 
 17784      496E6974 
 17784      00
 17785              	.LASF122:
 17786 09e5 5365745F 		.ascii	"Set_Vgs_mV\000"
 17786      5667735F 
 17786      6D5600
 17787              	.LASF185:
 17788 09f0 55415254 		.ascii	"UART_Rx_Position\000"
 17788      5F52785F 
 17788      506F7369 
 17788      74696F6E 
 17788      00
 17789              	.LASF193:
 17790 0a01 5667735F 		.ascii	"Vgs_Index_Goal_Relative\000"
 17790      496E6465 
 17790      785F476F 
 17790      616C5F52 
 17790      656C6174 
 17791              	.LASF79:
 17792 0a19 53415231 		.ascii	"SAR1_Measure_V\000"
 17792      5F4D6561 
 17792      73757265 
 17792      5F5600
 17793              	.LASF179:
 17794 0a28 5472616E 		.ascii	"TransmitBuffer\000"
 17794      736D6974 
 17794      42756666 
 17794      657200
 17795              	.LASF145:
 17796 0a37 6C6F6F70 		.ascii	"loop\000"
 17796      00
 17797              	.LASF163:
 17798 0a3c 64657669 		.ascii	"device\000"
 17798      636500
 17799              	.LASF62:
 17800 0a43 44697363 		.ascii	"Disconnect_Contact_From_Intermediate\000"
 17800      6F6E6E65 
 17800      63745F43 
 17800      6F6E7461 
 17800      63745F46 
 17801              	.LASF11:
 17802 0a68 6C6F6E67 		.ascii	"long long unsigned int\000"
 17802      206C6F6E 
 17802      6720756E 
 17802      7369676E 
 17802      65642069 
 17803              	.LASF184:
 17804 0a7f 55415254 		.ascii	"UART_Receive_Buffer\000"
 17804      5F526563 
 17804      65697665 
ARM GAS  C:\Users\FRANKL~1\AppData\Local\Temp\ccba5qpo.s 			page 358


 17804      5F427566 
 17804      66657200 
 17805              	.LASF191:
 17806 0a93 5449415F 		.ascii	"TIA_Offsets_uV\000"
 17806      4F666673 
 17806      6574735F 
 17806      755600
 17807              	.LASF199:
 17808 0aa2 55534255 		.ascii	"USBUART_DataIsReady\000"
 17808      4152545F 
 17808      44617461 
 17808      49735265 
 17808      61647900 
 17809              	.LASF127:
 17810 0ab6 4D656173 		.ascii	"Measure\000"
 17810      75726500 
 17811              	.LASF176:
 17812 0abe 5664735F 		.ascii	"Vds_mV\000"
 17812      6D5600
 17813              	.LASF60:
 17814 0ac5 636F6E74 		.ascii	"contact\000"
 17814      61637400 
 17815              	.LASF170:
 17816 0acd 73746F70 		.ascii	"stopDevice\000"
 17816      44657669 
 17816      636500
 17817              	.LASF22:
 17818 0ad8 72656738 		.ascii	"reg8\000"
 17818      00
 17819              	.LASF147:
 17820 0add 4D656173 		.ascii	"Measure_Wide_Gate_Sweep\000"
 17820      7572655F 
 17820      57696465 
 17820      5F476174 
 17820      655F5377 
 17821              	.LASF40:
 17822 0af5 74656D70 		.ascii	"temp_count\000"
 17822      5F636F75 
 17822      6E7400
 17823              	.LASF232:
 17824 0b00 56444143 		.ascii	"VDAC_Ref_SetValue\000"
 17824      5F526566 
 17824      5F536574 
 17824      56616C75 
 17824      6500
 17825              	.LASF169:
 17826 0b12 73746172 		.ascii	"startDevice\000"
 17826      74446576 
 17826      69636500 
 17827              	.LASF197:
 17828 0b1e 55534255 		.ascii	"USBUART_GetConfiguration\000"
 17828      4152545F 
 17828      47657443 
 17828      6F6E6669 
 17828      67757261 
 17829              	.LASF69:
 17830 0b37 72657369 		.ascii	"resistor\000"
ARM GAS  C:\Users\FRANKL~1\AppData\Local\Temp\ccba5qpo.s 			page 359


 17830      73746F72 
 17830      00
 17831              	.LASF168:
 17832 0b40 5363616E 		.ascii	"Scan_Range\000"
 17832      5F52616E 
 17832      676500
 17833              	.LASF128:
 17834 0b4b 64656C74 		.ascii	"deltaSigmaSampleCount\000"
 17834      61536967 
 17834      6D615361 
 17834      6D706C65 
 17834      436F756E 
 17835              	.LASF95:
 17836 0b61 41745F43 		.ascii	"At_Compliance\000"
 17836      6F6D706C 
 17836      69616E63 
 17836      6500
 17837              	.LASF121:
 17838 0b6f 5365745F 		.ascii	"Set_Vds\000"
 17838      56647300 
 17839              	.LASF76:
 17840 0b77 4144435F 		.ascii	"ADC_Result\000"
 17840      52657375 
 17840      6C7400
 17841              	.LASF37:
 17842 0b82 436F6D6D 		.ascii	"CommunicationHandlerISR\000"
 17842      756E6963 
 17842      6174696F 
 17842      6E48616E 
 17842      646C6572 
 17843              	.LASF70:
 17844 0b9a 4144435F 		.ascii	"ADC_Increase_Range\000"
 17844      496E6372 
 17844      65617365 
 17844      5F52616E 
 17844      676500
 17845              	.LASF52:
 17846 0bad 55706461 		.ascii	"Update_Selector\000"
 17846      74655F53 
 17846      656C6563 
 17846      746F7200 
 17847              	.LASF201:
 17848 0bbd 73747273 		.ascii	"strstr\000"
 17848      747200
 17849              	.LASF181:
 17850 0bc4 475F5374 		.ascii	"G_Stop\000"
 17850      6F7000
 17851              	.LASF139:
 17852 0bcb 53415231 		.ascii	"SAR1\000"
 17852      00
 17853              	.LASF140:
 17854 0bd0 53415232 		.ascii	"SAR2\000"
 17854      00
 17855              	.LASF249:
 17856 0bd5 433A5C55 		.ascii	"C:\\Users\\FranklinLab_PC_1\\Documents\\Python Scri"
 17856      73657273 
 17856      5C467261 
ARM GAS  C:\Users\FRANKL~1\AppData\Local\Temp\ccba5qpo.s 			page 360


 17856      6E6B6C69 
 17856      6E4C6162 
 17857 0c04 7074735C 		.ascii	"pts\\CNT_IV\\PSoC\\Layout 2_14\\Version 4_Full\\Mas"
 17857      434E545F 
 17857      49565C50 
 17857      536F435C 
 17857      4C61796F 
 17858 0c32 7465725C 		.ascii	"ter\\Master 1\\Design01.cydsn\000"
 17858      4D617374 
 17858      65722031 
 17858      5C446573 
 17858      69676E30 
 17859              	.LASF16:
 17860 0c4e 75696E74 		.ascii	"uint8\000"
 17860      3800
 17861              	.LASF215:
 17862 0c54 4932435F 		.ascii	"I2C_1_MasterClearStatus\000"
 17862      315F4D61 
 17862      73746572 
 17862      436C6561 
 17862      72537461 
 17863              	.LASF160:
 17864 0c6c 67617465 		.ascii	"gateArrived\000"
 17864      41727269 
 17864      76656400 
 17865              	.LASF183:
 17866 0c78 475F5061 		.ascii	"G_Pause\000"
 17866      75736500 
 17867              	.LASF233:
 17868 0c80 73747274 		.ascii	"strtol\000"
 17868      6F6C00
 17869              	.LASF45:
 17870 0c87 55534255 		.ascii	"USBUARTH_Receive\000"
 17870      41525448 
 17870      5F526563 
 17870      65697665 
 17870      00
 17871              	.LASF7:
 17872 0c98 73686F72 		.ascii	"short int\000"
 17872      7420696E 
 17872      7400
 17873              	.LASF141:
 17874 0ca2 4D656173 		.ascii	"Measure_Multiple\000"
 17874      7572655F 
 17874      4D756C74 
 17874      69706C65 
 17874      00
 17875              	.LASF202:
 17876 0cb3 55415254 		.ascii	"UART_1_GetRxBufferSize\000"
 17876      5F315F47 
 17876      65745278 
 17876      42756666 
 17876      65725369 
 17877              	.LASF59:
 17878 0cca 436F6E6E 		.ascii	"Connect_Contact_To_Intermediate\000"
 17878      6563745F 
 17878      436F6E74 
ARM GAS  C:\Users\FRANKL~1\AppData\Local\Temp\ccba5qpo.s 			page 361


 17878      6163745F 
 17878      546F5F49 
 17879              	.LASF117:
 17880 0cea 5667735F 		.ascii	"Vgs_maxRefRaw\000"
 17880      6D617852 
 17880      65665261 
 17880      7700
 17881              	.LASF105:
 17882 0cf8 4765745F 		.ascii	"Get_Vds\000"
 17882      56647300 
 17883              	.LASF196:
 17884 0d00 55534255 		.ascii	"USBUART_IsConfigurationChanged\000"
 17884      4152545F 
 17884      4973436F 
 17884      6E666967 
 17884      75726174 
 17885              	.LASF203:
 17886 0d1f 55415254 		.ascii	"UART_1_GetChar\000"
 17886      5F315F47 
 17886      65744368 
 17886      617200
 17887              	.LASF27:
 17888 0d2e 62757341 		.ascii	"busAddress\000"
 17888      64647265 
 17888      737300
 17889              	.LASF120:
 17890 0d39 5365745F 		.ascii	"Set_Vgs\000"
 17890      56677300 
 17891              	.LASF151:
 17892 0d41 72656649 		.ascii	"refIncrement\000"
 17892      6E637265 
 17892      6D656E74 
 17892      00
 17893              	.LASF208:
 17894 0d4e 55534255 		.ascii	"USBUART_GetChar\000"
 17894      4152545F 
 17894      47657443 
 17894      68617200 
 17895              	.LASF84:
 17896 0d5e 53415232 		.ascii	"SAR2_Result_Current\000"
 17896      5F526573 
 17896      756C745F 
 17896      43757272 
 17896      656E7400 
 17897              	.LASF216:
 17898 0d72 4932435F 		.ascii	"I2C_1_MasterWriteBuf\000"
 17898      315F4D61 
 17898      73746572 
 17898      57726974 
 17898      65427566 
 17899              	.LASF150:
 17900 0d87 72656654 		.ascii	"refTurn\000"
 17900      75726E00 
 17901              	.LASF209:
 17902 0d8f 7374726C 		.ascii	"strlen\000"
 17902      656E00
 17903              	.LASF164:
ARM GAS  C:\Users\FRANKL~1\AppData\Local\Temp\ccba5qpo.s 			page 362


 17904 0d96 636F6E74 		.ascii	"contact1\000"
 17904      61637431 
 17904      00
 17905              	.LASF165:
 17906 0d9f 636F6E74 		.ascii	"contact2\000"
 17906      61637432 
 17906      00
 17907              	.LASF20:
 17908 0da8 696E7431 		.ascii	"int16\000"
 17908      3600
 17909              	.LASF129:
 17910 0dae 53415231 		.ascii	"SAR1_SampleCount\000"
 17910      5F53616D 
 17910      706C6543 
 17910      6F756E74 
 17910      00
 17911              	.LASF125:
 17912 0dbf 43616C69 		.ascii	"Calibrate_ADC_Offset\000"
 17912      62726174 
 17912      655F4144 
 17912      435F4F66 
 17912      66736574 
 17913              	.LASF118:
 17914 0dd4 6E657752 		.ascii	"newRefRaw\000"
 17914      65665261 
 17914      7700
 17915              	.LASF158:
 17916 0dde 656E6447 		.ascii	"endGateIndex\000"
 17916      61746549 
 17916      6E646578 
 17916      00
 17917              	.LASF204:
 17918 0deb 436F6D6D 		.ascii	"CommunicationInterrupt_ClearPending\000"
 17918      756E6963 
 17918      6174696F 
 17918      6E496E74 
 17918      65727275 
 17919              	.LASF244:
 17920 0e0f 43794465 		.ascii	"CyDelay\000"
 17920      6C617900 
 17921              	.LASF56:
 17922 0e17 436F6E6E 		.ascii	"Connect_Channel_On_Intermediate\000"
 17922      6563745F 
 17922      4368616E 
 17922      6E656C5F 
 17922      4F6E5F49 
 17923              	.LASF34:
 17924 0e37 52353030 		.ascii	"R500K\000"
 17924      4B00
 17925              	.LASF104:
 17926 0e3d 4765745F 		.ascii	"Get_Vgs\000"
 17926      56677300 
 17927              	.LASF134:
 17928 0e45 49647341 		.ascii	"IdsAverageAmps\000"
 17928      76657261 
 17928      6765416D 
 17928      707300
ARM GAS  C:\Users\FRANKL~1\AppData\Local\Temp\ccba5qpo.s 			page 363


 17929              	.LASF0:
 17930 0e54 666C6F61 		.ascii	"float\000"
 17930      7400
 17931              	.LASF166:
 17932 0e5a 696E7465 		.ascii	"intermediate1\000"
 17932      726D6564 
 17932      69617465 
 17932      3100
 17933              	.LASF167:
 17934 0e68 696E7465 		.ascii	"intermediate2\000"
 17934      726D6564 
 17934      69617465 
 17934      3200
 17935              	.LASF21:
 17936 0e76 696E7433 		.ascii	"int32\000"
 17936      3200
 17937              	.LASF14:
 17938 0e7c 5F5F696E 		.ascii	"__int32_t\000"
 17938      7433325F 
 17938      7400
 17939              	.LASF51:
 17940 0e86 73656C65 		.ascii	"selector\000"
 17940      63746F72 
 17940      00
 17941              	.LASF106:
 17942 0e8f 5365745F 		.ascii	"Set_Vds_Raw\000"
 17942      5664735F 
 17942      52617700 
 17943              	.LASF136:
 17944 0e9b 53415231 		.ascii	"SAR1_SD\000"
 17944      5F534400 
 17945              	.LASF148:
 17946 0ea3 73706565 		.ascii	"speed\000"
 17946      6400
 17947              	.LASF173:
 17948 0ea9 76647369 		.ascii	"vdsi\000"
 17948      00
 17949              	.LASF254:
 17950 0eae 5F5F6275 		.ascii	"__builtin_strchr\000"
 17950      696C7469 
 17950      6E5F7374 
 17950      72636872 
 17950      00
 17951              	.LASF24:
 17952 0ebf 64617461 		.ascii	"data\000"
 17952      00
 17953              	.LASF217:
 17954 0ec4 5449415F 		.ascii	"TIA_1_SetResFB\000"
 17954      315F5365 
 17954      74526573 
 17954      464200
 17955              	.LASF240:
 17956 0ed3 4144435F 		.ascii	"ADC_DelSig_1_Start\000"
 17956      44656C53 
 17956      69675F31 
 17956      5F537461 
 17956      727400
ARM GAS  C:\Users\FRANKL~1\AppData\Local\Temp\ccba5qpo.s 			page 364


 17957              	.LASF17:
 17958 0ee6 75696E74 		.ascii	"uint16\000"
 17958      313600
 17959              	.LASF162:
 17960 0eed 77696465 		.ascii	"wide\000"
 17960      00
 17961              	.LASF226:
 17962 0ef2 4144435F 		.ascii	"ADC_SAR_2_StartConvert\000"
 17962      5341525F 
 17962      325F5374 
 17962      61727443 
 17962      6F6E7665 
 17963              	.LASF152:
 17964 0f09 73746172 		.ascii	"startRefIndex\000"
 17964      74526566 
 17964      496E6465 
 17964      7800
 17965              	.LASF237:
 17966 0f17 56444143 		.ascii	"VDAC_Vds_Start\000"
 17966      5F566473 
 17966      5F537461 
 17966      727400
 17967              		.ident	"GCC: (GNU Tools for ARM Embedded Processors) 5.4.1 20160609 (release) [ARM/embedded-5-bran
