ARM GAS  C:\Users\FRANKL~1\AppData\Local\Temp\ccLkvCvD.s 			page 1


   1              		.syntax unified
   2              		.cpu cortex-m3
   3              		.fpu softvfp
   4              		.eabi_attribute 20, 1
   5              		.eabi_attribute 21, 1
   6              		.eabi_attribute 23, 3
   7              		.eabi_attribute 24, 1
   8              		.eabi_attribute 25, 1
   9              		.eabi_attribute 26, 1
  10              		.eabi_attribute 30, 1
  11              		.eabi_attribute 34, 1
  12              		.eabi_attribute 18, 4
  13              		.thumb
  14              		.syntax unified
  15              		.file	"main.c"
  16              		.text
  17              	.Ltext0:
  18              		.cfi_sections	.debug_frame
  19              		.syntax unified
  20              		.global _printf_float
  21              		.thumb
  22              		.syntax unified
  23              		.section	.text.USBUARTH_Maintain_Configuration,"ax",%progbits
  24              		.align	2
  25              		.global	USBUARTH_Maintain_Configuration
  26              		.thumb
  27              		.thumb_func
  28              		.type	USBUARTH_Maintain_Configuration, %function
  29              	USBUARTH_Maintain_Configuration:
  30              	.LFB64:
  31              		.file 1 "USBUART_Helpers.h"
   1:USBUART_Helpers.h **** #include "project.h"
   2:USBUART_Helpers.h **** #include "stdio.h"
   3:USBUART_Helpers.h **** 
   4:USBUART_Helpers.h **** #if defined (__GNUC__)
   5:USBUART_Helpers.h **** 	/* Add an explicit reference to the floating point printf library */
   6:USBUART_Helpers.h **** 	/* to allow usage of the floating point conversion specifiers. */
   7:USBUART_Helpers.h **** 	/* This is not linked in by default with the newlib-nano library. */
   8:USBUART_Helpers.h **** 	asm (".global _printf_float");
   9:USBUART_Helpers.h **** #endif
  10:USBUART_Helpers.h **** 
  11:USBUART_Helpers.h **** // The buffer size is equal to the maximum packet size of the IN and OUT bulk endpoints.
  12:USBUART_Helpers.h **** #define USBUART_BUFFER_SIZE	(64u)
  13:USBUART_Helpers.h **** #define LINE_STR_LENGTH		(20u)
  14:USBUART_Helpers.h **** 
  15:USBUART_Helpers.h **** 
  16:USBUART_Helpers.h **** void USBUARTH_Maintain_Configuration() {
  32              		.loc 1 16 0
  33              		.cfi_startproc
  34              		@ args = 0, pretend = 0, frame = 0
  35              		@ frame_needed = 0, uses_anonymous_args = 0
  36 0000 08B5     		push	{r3, lr}
  37              		.cfi_def_cfa_offset 8
  38              		.cfi_offset 3, -8
  39              		.cfi_offset 14, -4
  40              	.LVL0:
  17:USBUART_Helpers.h **** 	unsigned long tries = 0;
ARM GAS  C:\Users\FRANKL~1\AppData\Local\Temp\ccLkvCvD.s 			page 2


  18:USBUART_Helpers.h **** 	
  19:USBUART_Helpers.h **** 	do {
  20:USBUART_Helpers.h **** 		// Host can send double SET_INTERFACE request.
  21:USBUART_Helpers.h **** 		if (USBUART_IsConfigurationChanged()) {
  41              		.loc 1 21 0
  42 0002 FFF7FEFF 		bl	USBUART_IsConfigurationChanged
  43              	.LVL1:
  44 0006 20B1     		cbz	r0, .L2
  22:USBUART_Helpers.h **** 			// Initialize IN endpoints when device is configured.
  23:USBUART_Helpers.h **** 			if (USBUART_GetConfiguration()) {
  45              		.loc 1 23 0
  46 0008 FFF7FEFF 		bl	USBUART_GetConfiguration
  47              	.LVL2:
  48 000c 08B1     		cbz	r0, .L2
  24:USBUART_Helpers.h **** 				// Enumeration is done, enable OUT endpoint to receive data from host.
  25:USBUART_Helpers.h **** 				USBUART_CDC_Init();
  49              		.loc 1 25 0
  50 000e FFF7FEFF 		bl	USBUART_CDC_Init
  51              	.LVL3:
  52              	.L2:
  26:USBUART_Helpers.h **** 			}
  27:USBUART_Helpers.h **** 		}
  28:USBUART_Helpers.h **** 		
  29:USBUART_Helpers.h **** 		tries++;
  30:USBUART_Helpers.h **** 	// Keep trying until USB CDC device is configured
  31:USBUART_Helpers.h **** 	} while (!USBUART_GetConfiguration() && tries < 1);
  53              		.loc 1 31 0
  54 0012 FFF7FEFF 		bl	USBUART_GetConfiguration
  55              	.LVL4:
  56 0016 08BD     		pop	{r3, pc}
  57              		.cfi_endproc
  58              	.LFE64:
  59              		.size	USBUARTH_Maintain_Configuration, .-USBUARTH_Maintain_Configuration
  60              		.section	.text.USBUARTH_DataIsReady,"ax",%progbits
  61              		.align	2
  62              		.global	USBUARTH_DataIsReady
  63              		.thumb
  64              		.thumb_func
  65              		.type	USBUARTH_DataIsReady, %function
  66              	USBUARTH_DataIsReady:
  67              	.LFB65:
  32:USBUART_Helpers.h **** }
  33:USBUART_Helpers.h **** 
  34:USBUART_Helpers.h **** uint8 USBUARTH_DataIsReady() {
  68              		.loc 1 34 0
  69              		.cfi_startproc
  70              		@ args = 0, pretend = 0, frame = 0
  71              		@ frame_needed = 0, uses_anonymous_args = 0
  72 0000 08B5     		push	{r3, lr}
  73              		.cfi_def_cfa_offset 8
  74              		.cfi_offset 3, -8
  75              		.cfi_offset 14, -4
  35:USBUART_Helpers.h **** 	USBUARTH_Maintain_Configuration();
  76              		.loc 1 35 0
  77 0002 FFF7FEFF 		bl	USBUARTH_Maintain_Configuration
  78              	.LVL5:
  36:USBUART_Helpers.h **** 	
ARM GAS  C:\Users\FRANKL~1\AppData\Local\Temp\ccLkvCvD.s 			page 3


  37:USBUART_Helpers.h **** 	return USBUART_GetConfiguration() && USBUART_DataIsReady();
  79              		.loc 1 37 0
  80 0006 FFF7FEFF 		bl	USBUART_GetConfiguration
  81              	.LVL6:
  82 000a 20B1     		cbz	r0, .L6
  83              		.loc 1 37 0 is_stmt 0 discriminator 1
  84 000c FFF7FEFF 		bl	USBUART_DataIsReady
  85              	.LVL7:
  86 0010 18B1     		cbz	r0, .L7
  87              		.loc 1 37 0
  88 0012 0120     		movs	r0, #1
  89 0014 08BD     		pop	{r3, pc}
  90              	.L6:
  91 0016 0020     		movs	r0, #0
  92 0018 08BD     		pop	{r3, pc}
  93              	.L7:
  94 001a 0020     		movs	r0, #0
  38:USBUART_Helpers.h **** }
  95              		.loc 1 38 0 is_stmt 1
  96 001c 08BD     		pop	{r3, pc}
  97              		.cfi_endproc
  98              	.LFE65:
  99              		.size	USBUARTH_DataIsReady, .-USBUARTH_DataIsReady
 100 001e 00BF     		.section	.text.CommunicationHandlerISR,"ax",%progbits
 101              		.align	2
 102              		.global	CommunicationHandlerISR
 103              		.thumb
 104              		.thumb_func
 105              		.type	CommunicationHandlerISR, %function
 106              	CommunicationHandlerISR:
 107              	.LFB113:
 108              		.file 2 "main.c"
   1:main.c        **** #include <stdlib.h>
   2:main.c        **** #include <stdio.h>
   3:main.c        **** #include "project.h"
   4:main.c        **** #include "USBUART_Helpers.h"
   5:main.c        **** 
   6:main.c        **** 
   7:main.c        **** struct Selector_I2C_Struct {
   8:main.c        **** 	struct {
   9:main.c        **** 		uint8 subAddress;
  10:main.c        **** 		uint8 data[126];
  11:main.c        **** 	} write;
  12:main.c        **** 	struct {
  13:main.c        **** 		uint8 subAddress;
  14:main.c        **** 		uint8 data[126];
  15:main.c        **** 	} read;
  16:main.c        **** 	uint8 busAddress;
  17:main.c        **** };
  18:main.c        **** 
  19:main.c        **** 
  20:main.c        **** // Globals ----------------------------------------------
  21:main.c        **** #define SELECTOR_COUNT (4u)
  22:main.c        **** #define INTERMEDIATE_COUNT (4u)
  23:main.c        **** #define CONTACT_COUNT (64u)
  24:main.c        **** #define CHANNEL_COUNT (34u)
  25:main.c        **** #define CONTACT_CONNECT_CODE (0xC0u)
ARM GAS  C:\Users\FRANKL~1\AppData\Local\Temp\ccLkvCvD.s 			page 4


  26:main.c        **** #define CONTACT_DISCONNECT_CODE (0xD1u)
  27:main.c        **** #define COMPLIANCE_CURRENT_LIMIT (10e-6)
  28:main.c        **** 
  29:main.c        **** struct Selector_I2C_Struct selectors[SELECTOR_COUNT];
  30:main.c        **** char TransmitBuffer[USBUART_BUFFER_SIZE];
  31:main.c        **** 
  32:main.c        **** volatile uint8 newData = 0;
  33:main.c        **** volatile uint8 G_Stop = 0;
  34:main.c        **** volatile uint8 G_Break = 0;
  35:main.c        **** volatile uint8 G_Pause = 0;
  36:main.c        **** 
  37:main.c        **** volatile char UART_Receive_Buffer[USBUART_BUFFER_SIZE];
  38:main.c        **** volatile uint8 UART_Rx_Position;
  39:main.c        **** 
  40:main.c        **** volatile char USBUART_Receive_Buffer[USBUART_BUFFER_SIZE];
  41:main.c        **** volatile uint8 USBUART_Rx_Position;
  42:main.c        **** 
  43:main.c        **** enum TIA_resistor {R20K, R30K, R40K, R80K, R120K, R250K, R500K, R1000K};
  44:main.c        **** uint8 TIA_Selected_Resistor = R20K;
  45:main.c        **** 
  46:main.c        **** uint8 TIA_Resistor_Codes[8] = {TIA_1_RES_FEEDBACK_20K, TIA_1_RES_FEEDBACK_30K, TIA_1_RES_FEEDBACK_4
  47:main.c        **** float TIA_Resistor_Values[8] = {20e3, 30e3, 40e3, 80e3, 120e3, 250e3, 500e3, 1e6};
  48:main.c        **** int32 TIA_Offsets_uV[8] = {0, 0, 0, 0, 0, 0, 0, 0};
  49:main.c        **** 
  50:main.c        **** uint8 Compliance_Reached;
  51:main.c        **** int16 Vgs_Index_Goal_Relative;
  52:main.c        **** int16 Vds_Index_Goal_Relative;
  53:main.c        **** 
  54:main.c        **** uint32 Current_Measurement_Sample_Count;
  55:main.c        **** 
  56:main.c        **** void Setup_Selector_I2C_Struct(struct Selector_I2C_Struct *selector) {
  57:main.c        **** 	selector->write.subAddress = 1;
  58:main.c        **** 	selector->read.subAddress = sizeof(selector->write) + 1;
  59:main.c        **** 	
  60:main.c        **** 	for (uint16 i = 0; i < sizeof(selector->write.data); i++) {
  61:main.c        **** 		selector->write.data[i] = i + 6;
  62:main.c        **** 	}
  63:main.c        **** 	for (uint16 i = 0; i < sizeof(selector->read.data); i++) {
  64:main.c        **** 		selector->read.data[i] = 0xbe;
  65:main.c        **** 	}
  66:main.c        **** }
  67:main.c        **** 
  68:main.c        **** void Update_Selector(uint8 selectori) {
  69:main.c        **** 	sprintf(TransmitBuffer, "Updating Selector %u\r\n", selectori + 1);
  70:main.c        **** 	USBUARTH_Send(TransmitBuffer, strlen(TransmitBuffer));
  71:main.c        **** 	UART_1_PutString(TransmitBuffer);
  72:main.c        **** 	
  73:main.c        **** 	struct Selector_I2C_Struct* selector = &selectors[selectori];
  74:main.c        **** 	
  75:main.c        **** 	I2C_1_MasterClearStatus();
  76:main.c        **** 	I2C_1_MasterWriteBuf(selector->busAddress, (uint8 *) &selector->write, sizeof(selector->write), I2
  77:main.c        **** 	for (uint32 i = 0; i < 4e5; i++) {
  78:main.c        **** 		if ((I2C_1_MasterStatus() & I2C_1_MSTAT_WR_CMPLT)) break;
  79:main.c        **** 		if (i >= 4e5 - 1) {
  80:main.c        **** 			sprintf(TransmitBuffer, "I2C Transfer Error! Type: Timeout\r\n");
  81:main.c        **** 			USBUARTH_Send(TransmitBuffer, strlen(TransmitBuffer));
  82:main.c        **** 			UART_1_PutString(TransmitBuffer);
ARM GAS  C:\Users\FRANKL~1\AppData\Local\Temp\ccLkvCvD.s 			page 5


  83:main.c        **** 			I2C_1_Stop();
  84:main.c        **** 			I2C_1_Start();
  85:main.c        **** 		}
  86:main.c        **** 	}
  87:main.c        **** 	
  88:main.c        **** 	// I2C_1_MasterClearStatus();
  89:main.c        **** 	// I2C_1_MasterWriteBuf(selector->busAddress, (uint8 *) &selector->read.subAddress, 1, I2C_1_MODE_
  90:main.c        **** 	// for (uint32 i - 0; i < 4e5; i++) {
  91:main.c        **** 	// 	if ((I2C_1_MasterStatus() & I2C_1_MSTAT_WR_CMPLT)) break;
  92:main.c        **** 	// }
  93:main.c        **** 	
  94:main.c        **** 	// I2C_1_MasterReadBuf(selector->busAddress, (uint8 *) &selector->read.data, sizeof(selector->read
  95:main.c        **** 	// for (uint32 i - 0; i < 4e5; i++) {
  96:main.c        **** 	// 	if ((I2C_1_MasterStatus() & I2C_1_MSTAT_RD_CMPLT)) break;
  97:main.c        **** 	// }
  98:main.c        **** 	
  99:main.c        **** 	if (I2C_1_MasterStatus() & I2C_1_MSTAT_ERR_XFER) {
 100:main.c        **** 		sprintf(TransmitBuffer, "I2C Transfer Error! ");
 101:main.c        **** 		USBUARTH_Send(TransmitBuffer, strlen(TransmitBuffer));
 102:main.c        **** 		UART_1_PutString(TransmitBuffer);
 103:main.c        **** 		
 104:main.c        **** 		if (I2C_1_MasterStatus() & I2C_1_MSTAT_ERR_ADDR_NAK) {
 105:main.c        **** 			sprintf(TransmitBuffer, "Type: NAK");
 106:main.c        **** 			USBUARTH_Send(TransmitBuffer, strlen(TransmitBuffer));
 107:main.c        **** 			UART_1_PutString(TransmitBuffer);
 108:main.c        **** 		}
 109:main.c        **** 		
 110:main.c        **** 		sprintf(TransmitBuffer, "\r\n");
 111:main.c        **** 		USBUARTH_Send(TransmitBuffer, strlen(TransmitBuffer));
 112:main.c        **** 		UART_1_PutString(TransmitBuffer);
 113:main.c        **** 	}
 114:main.c        **** 	
 115:main.c        **** 	sprintf(TransmitBuffer, "Updated Selector %u\r\n", selectori + 1);
 116:main.c        **** 	USBUARTH_Send(TransmitBuffer, strlen(TransmitBuffer));
 117:main.c        **** 	UART_1_PutString(TransmitBuffer);
 118:main.c        **** }
 119:main.c        **** 
 120:main.c        **** void Setup_Selectors() {
 121:main.c        **** 	for (uint8 i = 0; i < SELECTOR_COUNT; i++) Setup_Selector_I2C_Struct(&selectors[i]);
 122:main.c        **** 	
 123:main.c        **** 	selectors[0].busAddress = 0x66;
 124:main.c        **** 	selectors[1].busAddress = 0x11;
 125:main.c        **** 	selectors[2].busAddress = 0x44;
 126:main.c        **** 	selectors[3].busAddress = 0x22;
 127:main.c        **** }
 128:main.c        **** 
 129:main.c        **** void Connect_Channel_On_Intermediate(uint8 channel, uint8 intermediate) {
 130:main.c        **** 	channel--;
 131:main.c        **** 	intermediate--;
 132:main.c        **** 	
 133:main.c        **** 	if (channel >= CHANNEL_COUNT) return;
 134:main.c        **** 	if (intermediate >= INTERMEDIATE_COUNT) return;
 135:main.c        **** 	
 136:main.c        **** 	selectors[intermediate].write.data[channel] = CONTACT_CONNECT_CODE;
 137:main.c        **** 	Update_Selector(intermediate);
 138:main.c        **** }
 139:main.c        **** 
ARM GAS  C:\Users\FRANKL~1\AppData\Local\Temp\ccLkvCvD.s 			page 6


 140:main.c        **** void Connect_Contact_To_Intermediate(uint8 contact, uint8 intermediate) {
 141:main.c        **** 	contact--;
 142:main.c        **** 	intermediate--;
 143:main.c        **** 	
 144:main.c        **** 	if (contact >= CONTACT_COUNT) return;
 145:main.c        **** 	if (intermediate >= INTERMEDIATE_COUNT) return;
 146:main.c        **** 	
 147:main.c        **** 	uint8 offset = 0;
 148:main.c        **** 	if (intermediate >= INTERMEDIATE_COUNT/2) {
 149:main.c        **** 		offset = CONTACT_COUNT/2;
 150:main.c        **** 		if (contact < CONTACT_COUNT/2) return;
 151:main.c        **** 	} else {
 152:main.c        **** 		if (contact >= CONTACT_COUNT/2) return;
 153:main.c        **** 	}
 154:main.c        **** 	
 155:main.c        **** 	Connect_Channel_On_Intermediate(contact - offset + 1, intermediate + 1);
 156:main.c        **** }
 157:main.c        **** 
 158:main.c        **** void Disconnect_Contact_From_Intermediate(uint8 contact, uint8 intermediate) {
 159:main.c        **** 	contact--;
 160:main.c        **** 	intermediate--;
 161:main.c        **** 	
 162:main.c        **** 	if (contact >= CONTACT_COUNT) return;
 163:main.c        **** 	if (intermediate >= INTERMEDIATE_COUNT) return;
 164:main.c        **** 	
 165:main.c        **** 	uint8 offset = 0;
 166:main.c        **** 	if (intermediate >= INTERMEDIATE_COUNT/2) {
 167:main.c        **** 		offset = CONTACT_COUNT/2;
 168:main.c        **** 		if (contact < CONTACT_COUNT/2) return;
 169:main.c        **** 	} else {
 170:main.c        **** 		if (contact >= CONTACT_COUNT/2) return;
 171:main.c        **** 	}
 172:main.c        **** 	
 173:main.c        **** 	selectors[intermediate].write.data[contact - offset] = CONTACT_DISCONNECT_CODE;
 174:main.c        **** 	
 175:main.c        **** 	Update_Selector(intermediate);
 176:main.c        **** }
 177:main.c        **** 
 178:main.c        **** void Disconnect_Contact_From_All_Intermediates(uint8 contact) {
 179:main.c        **** 	contact--;
 180:main.c        **** 	
 181:main.c        **** 	for (uint8 intermediate = 0; intermediate < INTERMEDIATE_COUNT; intermediate++) {
 182:main.c        **** 		
 183:main.c        **** 		uint8 offset = 0;
 184:main.c        **** 		if (intermediate >= INTERMEDIATE_COUNT/2) {
 185:main.c        **** 			offset = CONTACT_COUNT/2;
 186:main.c        **** 			if (contact < CONTACT_COUNT/2) continue;
 187:main.c        **** 		} else {
 188:main.c        **** 			if (contact >= CONTACT_COUNT/2) continue;
 189:main.c        **** 		}
 190:main.c        **** 		
 191:main.c        **** 		selectors[intermediate].write.data[contact - offset] = CONTACT_DISCONNECT_CODE;
 192:main.c        **** 		
 193:main.c        **** 		Update_Selector(intermediate);
 194:main.c        **** 	}
 195:main.c        **** }
 196:main.c        **** 
ARM GAS  C:\Users\FRANKL~1\AppData\Local\Temp\ccLkvCvD.s 			page 7


 197:main.c        **** void Disconnect_All_Contacts_From_All_Intermediates() {
 198:main.c        **** 	for (uint8 intermediate = 0; intermediate < INTERMEDIATE_COUNT/*/2*/; intermediate++) {
 199:main.c        **** 		for (uint8 contact = 0; contact < CONTACT_COUNT/2; contact++) {
 200:main.c        **** 			selectors[intermediate].write.data[contact] = CONTACT_DISCONNECT_CODE;
 201:main.c        **** 		}
 202:main.c        **** 		
 203:main.c        **** 		Update_Selector(intermediate);
 204:main.c        **** 	}
 205:main.c        **** }
 206:main.c        **** 
 207:main.c        **** void Disconnect_All_Contacts_From_Intermediate(uint8 intermediate) {
 208:main.c        **** 	intermediate--;
 209:main.c        **** 	
 210:main.c        **** 	for (uint8 contact = 0; contact < CONTACT_COUNT/2; contact++) {
 211:main.c        **** 		selectors[intermediate].write.data[contact] = CONTACT_DISCONNECT_CODE;
 212:main.c        **** 	}
 213:main.c        **** 	
 214:main.c        **** 	Update_Selector(intermediate);
 215:main.c        **** }
 216:main.c        **** 
 217:main.c        **** void Connect_Intermediate(uint8 intermediate) {
 218:main.c        **** 	switch (intermediate) {
 219:main.c        **** 		case 1: Connect_Channel_On_Intermediate(33, 1); break;
 220:main.c        **** 		case 2: Connect_Channel_On_Intermediate(33, 2); break;
 221:main.c        **** 		case 3: Connect_Channel_On_Intermediate(33, 3); break;
 222:main.c        **** 		case 4: Connect_Channel_On_Intermediate(33, 4); break;
 223:main.c        **** 		default: return;
 224:main.c        **** 	}
 225:main.c        **** }
 226:main.c        **** 
 227:main.c        **** void Connect_Intermediates() {
 228:main.c        **** 	for (uint8 i = 1; i <= INTERMEDIATE_COUNT/*/2*/; i++) {
 229:main.c        **** 		Connect_Intermediate(i);
 230:main.c        **** 	}
 231:main.c        **** }
 232:main.c        **** 
 233:main.c        **** void TIA_Set_Resistor(uint8 resistor) {
 234:main.c        **** 	TIA_Selected_Resistor = resistor;
 235:main.c        **** 	TIA_1_SetResFB(TIA_Resistor_Codes[resistor]);
 236:main.c        **** }
 237:main.c        **** 
 238:main.c        **** void ADC_Increase_Range() {
 239:main.c        **** 	switch(TIA_Selected_Resistor) {
 240:main.c        **** 		case R20K: 	 break;
 241:main.c        **** 		//case R30K: 	 TIA_Set_Resistor(R20K); break;
 242:main.c        **** 		//case R40K:	 TIA_Set_Resistor(R30K); break;
 243:main.c        **** 		//case R80K:	 TIA_Set_Resistor(R40K); break;
 244:main.c        **** 		//case R120K:	 TIA_Set_Resistor(R80K); break;
 245:main.c        **** 		//case R250K:	 TIA_Set_Resistor(R120K); break;
 246:main.c        **** 		//case R500K:	 TIA_Set_Resistor(R250K); break;
 247:main.c        **** 		case R1000K: TIA_Set_Resistor(R20K); break;
 248:main.c        **** 		default: return;
 249:main.c        **** 	}
 250:main.c        **** }
 251:main.c        **** 
 252:main.c        **** void ADC_Decrease_Range() {
 253:main.c        **** 	switch(TIA_Selected_Resistor) {
ARM GAS  C:\Users\FRANKL~1\AppData\Local\Temp\ccLkvCvD.s 			page 8


 254:main.c        **** 		case R20K: 	 TIA_Set_Resistor(R1000K); break;
 255:main.c        **** 		//case R30K: 	 TIA_Set_Resistor(R40K); break;
 256:main.c        **** 		//case R40K:	 TIA_Set_Resistor(R80K); break;
 257:main.c        **** 		//case R80K:	 TIA_Set_Resistor(R120K); break;
 258:main.c        **** 		//case R120K:	 TIA_Set_Resistor(R250K); break;
 259:main.c        **** 		//case R250K:	 TIA_Set_Resistor(R500K); break;
 260:main.c        **** 		//case R500K:	 TIA_Set_Resistor(R1000K); break;
 261:main.c        **** 		case R1000K: break;
 262:main.c        **** 		default: return;
 263:main.c        **** 	}
 264:main.c        **** }
 265:main.c        **** 
 266:main.c        **** // Measure Delta-Sigma ADC
 267:main.c        **** void ADC_Measure_uV(int32* average, int32* standardDeviation, uint32 sampleCount) {
 268:main.c        **** 	int32 ADC_Result = 0;
 269:main.c        **** 	int32 ADC_SD = 0;
 270:main.c        **** 	
 271:main.c        **** 	for (uint32 i = 1; i <= sampleCount; i++) {
 272:main.c        **** 		ADC_DelSig_1_StartConvert();
 273:main.c        **** 		while (!ADC_DelSig_1_IsEndConversion(ADC_DelSig_1_RETURN_STATUS));
 274:main.c        **** 		//int16 ADC_Result = ADC_DelSig_1_CountsTo_mVolts(ADC_DelSig_1_GetResult16());
 275:main.c        **** 		int32 ADC_Result_Current = ADC_DelSig_1_CountsTo_uVolts(ADC_DelSig_1_GetResult32());
 276:main.c        **** 		
 277:main.c        **** 		ADC_SD += (float)(i-1)/(float)(i)*(ADC_Result_Current - ADC_Result)*(ADC_Result_Current - ADC_Res
 278:main.c        **** 		ADC_Result += ((float)ADC_Result_Current - (float)ADC_Result)/(float)i;
 279:main.c        **** 	}
 280:main.c        **** 	
 281:main.c        **** 	*average = ADC_Result;
 282:main.c        **** 	*standardDeviation = ADC_SD;
 283:main.c        **** }
 284:main.c        **** 
 285:main.c        **** void ADC_Adjust_Range(uint32 sampleCount) {
 286:main.c        **** 	int32 ADC_Voltage = 0;
 287:main.c        **** 	int32 ADC_Voltage_SD = 0;
 288:main.c        **** 	
 289:main.c        **** 	ADC_Measure_uV(&ADC_Voltage, &ADC_Voltage_SD, sampleCount);
 290:main.c        **** 	
 291:main.c        **** 	if(abs(ADC_Voltage) > 870400) {
 292:main.c        **** 		ADC_Increase_Range();
 293:main.c        **** 	} else if (abs(ADC_Voltage) < 10240) {
 294:main.c        **** 		ADC_Decrease_Range();
 295:main.c        **** 	} else {
 296:main.c        **** 		return;
 297:main.c        **** 	}
 298:main.c        **** 	
 299:main.c        **** 	// If the range switches, discard a few measurements
 300:main.c        **** 	ADC_Measure_uV(&ADC_Voltage, &ADC_Voltage_SD, 5);
 301:main.c        **** }
 302:main.c        **** 
 303:main.c        **** // Measure SAR1 ADC
 304:main.c        **** void SAR1_Measure_V(int32* average, int32* standardDeviation, uint32 sampleCount) {
 305:main.c        **** 	int32 SAR_Result = 0;
 306:main.c        **** 	int32 SAR_SD = 0;
 307:main.c        **** 	
 308:main.c        **** 	for (uint32 i = 1; i <= sampleCount; i++) {
 309:main.c        **** 		ADC_SAR_1_StartConvert();
 310:main.c        **** 		while (!ADC_SAR_1_IsEndConversion(ADC_SAR_1_RETURN_STATUS));
ARM GAS  C:\Users\FRANKL~1\AppData\Local\Temp\ccLkvCvD.s 			page 9


 311:main.c        **** 		
 312:main.c        **** 		int32 SAR1_Result_Current = ADC_SAR_1_CountsTo_uVolts(ADC_SAR_1_GetResult16());
 313:main.c        **** 		
 314:main.c        **** 		SAR_SD += (float)(i-1)/(float)(i)*(SAR1_Result_Current - SAR_Result)*(SAR1_Result_Current - SAR_R
 315:main.c        **** 		SAR_Result += ((float)SAR1_Result_Current - (float)SAR_Result)/(float)i;
 316:main.c        **** 	}
 317:main.c        **** 	
 318:main.c        **** 	*average = SAR_Result;
 319:main.c        **** 	*standardDeviation = SAR_SD;
 320:main.c        **** }
 321:main.c        **** 
 322:main.c        **** // Measure SAR2 ADC
 323:main.c        **** void SAR2_Measure_V(int32* average, int32* standardDeviation, uint32 sampleCount) {
 324:main.c        **** 	int32 SAR_Result = 0;
 325:main.c        **** 	int32 SAR_SD = 0;
 326:main.c        **** 	
 327:main.c        **** 	for (uint32 i = 1; i <= sampleCount; i++) {
 328:main.c        **** 		ADC_SAR_2_StartConvert();
 329:main.c        **** 		while (!ADC_SAR_2_IsEndConversion(ADC_SAR_2_RETURN_STATUS));
 330:main.c        **** 		
 331:main.c        **** 		int32 SAR2_Result_Current = ADC_SAR_2_CountsTo_uVolts(ADC_SAR_2_GetResult16());
 332:main.c        **** 		
 333:main.c        **** 		SAR_SD += (float)(i-1)/(float)(i)*(SAR2_Result_Current - SAR_Result)*(SAR2_Result_Current - SAR_R
 334:main.c        **** 		SAR_Result += ((float)SAR2_Result_Current - (float)SAR_Result)/(float)i;
 335:main.c        **** 	}
 336:main.c        **** 	
 337:main.c        **** 	*average = SAR_Result;
 338:main.c        **** 	*standardDeviation = SAR_SD;
 339:main.c        **** }
 340:main.c        **** 
 341:main.c        **** // Measure current and compare it to some compliance value
 342:main.c        **** void Measure_Current_Vss(float* currentAverageIn, float* currentStdDevIn, uint32 sampleCount) {
 343:main.c        **** 	Compliance_Reached = 0;
 344:main.c        **** 	
 345:main.c        **** 	// Voltage and its standard deviation (in uV)
 346:main.c        **** 	int32 voltage = 0;
 347:main.c        **** 	int32 voltageSD = 0;
 348:main.c        **** 	
 349:main.c        **** 	// Current and its standard deviation (in A)
 350:main.c        **** 	float currentNow = 0;
 351:main.c        **** 	
 352:main.c        **** 	float currentAverage = 0;
 353:main.c        **** 	float currentStdDev = 0;
 354:main.c        **** 	
 355:main.c        **** 	float TIA_Feedback_R = TIA_Resistor_Values[TIA_Selected_Resistor];
 356:main.c        **** 	float unitConversion = -1.0e-6/TIA_Feedback_R;
 357:main.c        **** 	
 358:main.c        **** 	// Allow for the first measurement (normally not correct) to take place
 359:main.c        **** 	ADC_Measure_uV(&voltage, &voltageSD, 3);
 360:main.c        **** 	
 361:main.c        **** 	// Now take the real measurement
 362:main.c        **** 	for (uint32 i = 1; i <= sampleCount; i++) {
 363:main.c        **** 		ADC_Measure_uV(&voltage, &voltageSD, 1);
 364:main.c        **** 		
 365:main.c        **** 		currentNow = unitConversion*voltage;
 366:main.c        **** 		
 367:main.c        **** 		if (abs(currentNow) > COMPLIANCE_CURRENT_LIMIT) {
ARM GAS  C:\Users\FRANKL~1\AppData\Local\Temp\ccLkvCvD.s 			page 10


 368:main.c        **** 			Compliance_Reached += 1;
 369:main.c        **** 			break;
 370:main.c        **** 		} else {
 371:main.c        **** 			Compliance_Reached = 0;
 372:main.c        **** 		}
 373:main.c        **** 		
 374:main.c        **** 		currentStdDev += ((float)i-1.0)/(float)(i)*(currentNow - currentAverage)*(currentNow - currentAve
 375:main.c        **** 		currentAverage += (currentNow - currentAverage)/(float)i;
 376:main.c        **** 	}
 377:main.c        **** 	
 378:main.c        **** 	*currentAverageIn = currentAverage;
 379:main.c        **** 	*currentStdDevIn = currentStdDev;
 380:main.c        **** }
 381:main.c        **** 
 382:main.c        **** uint8 At_Compliance() {
 383:main.c        **** 	Compliance_Reached = 0;
 384:main.c        **** 	
 385:main.c        **** 	float current = 0;
 386:main.c        **** 	float currentSD = 0;
 387:main.c        **** 	
 388:main.c        **** 	Measure_Current_Vss(&current, &currentSD, 3);
 389:main.c        **** 	
 390:main.c        **** 	if (abs(current) > COMPLIANCE_CURRENT_LIMIT) {
 391:main.c        **** 		Compliance_Reached = 1;
 392:main.c        **** 		return 1;
 393:main.c        **** 	}
 394:main.c        **** 	
 395:main.c        **** 	return 0;
 396:main.c        **** }
 397:main.c        **** 
 398:main.c        **** void Handle_Compliance_Breach() {
 399:main.c        **** 	uint8 istart = VDAC_Vds_Data;
 400:main.c        **** 	uint8 istop = VDAC_Ref_Data;
 401:main.c        **** 	int8 increment = 1;
 402:main.c        **** 	if (istart < istop) increment = -1;
 403:main.c        **** 	
 404:main.c        **** 	for (uint8 i = istart; i != istop; i += increment) {
 405:main.c        **** 		VDAC_Vds_SetValue(i);
 406:main.c        **** 		
 407:main.c        **** 		if (!At_Compliance()) return;
 408:main.c        **** 	}
 409:main.c        **** 	
 410:main.c        **** 	istart = VDAC_Vgs_Data;
 411:main.c        **** 	istop = VDAC_Ref_Data;
 412:main.c        **** 	increment = 1;
 413:main.c        **** 	if (istart < istop) increment = -1;
 414:main.c        **** 	
 415:main.c        **** 	for (uint8 i = istart; i != istop; i += increment) {
 416:main.c        **** 		VDAC_Vgs_SetValue(i);
 417:main.c        **** 		
 418:main.c        **** 		if (!At_Compliance()) return;
 419:main.c        **** 	}
 420:main.c        **** 	
 421:main.c        **** 	// To do: Should disconnect something or take some other action at this point since still at compl
 422:main.c        **** }
 423:main.c        **** 
 424:main.c        **** // Get the reference voltage in volts
ARM GAS  C:\Users\FRANKL~1\AppData\Local\Temp\ccLkvCvD.s 			page 11


 425:main.c        **** float Get_Ref() {
 426:main.c        **** 	float result = 4.080/255.0*VDAC_Ref_Data;
 427:main.c        **** 	if (VDAC_Ref_CR0 & (VDAC_Ref_RANGE_1V & VDAC_Ref_RANGE_MASK)) {
 428:main.c        **** 		result = 1.020/255.0*VDAC_Ref_Data;
 429:main.c        **** 	}
 430:main.c        **** 	return result;
 431:main.c        **** }
 432:main.c        **** 
 433:main.c        **** // Get Vgs in volts
 434:main.c        **** float Get_Vgs() {
 435:main.c        **** 	float result = 4.080/255.0*VDAC_Vgs_Data - Get_Ref();
 436:main.c        **** 	if (VDAC_Vgs_CR0 & (VDAC_Vgs_RANGE_1V & VDAC_Vgs_RANGE_MASK)) {
 437:main.c        **** 		result = 1.020/255.0*VDAC_Vgs_Data - Get_Ref();
 438:main.c        **** 	}
 439:main.c        **** 	return result;
 440:main.c        **** }
 441:main.c        **** 
 442:main.c        **** // Get Vds in volts
 443:main.c        **** float Get_Vds() {
 444:main.c        **** 	float result = 4.080/255.0*VDAC_Vds_Data - Get_Ref();
 445:main.c        **** 	if (VDAC_Vds_CR0 & (VDAC_Vds_RANGE_1V & VDAC_Vds_RANGE_MASK)) {
 446:main.c        **** 		result = 1.020/255.0*VDAC_Vds_Data - Get_Ref();
 447:main.c        **** 	}
 448:main.c        **** 	return result;
 449:main.c        **** }
 450:main.c        **** 
 451:main.c        **** 
 452:main.c        **** // ****************************
 453:main.c        **** // Set the raw value of Vds
 454:main.c        **** void Set_Vds_Raw(uint8 value) {
 455:main.c        **** 	Vds_Index_Goal_Relative = (int16)value - (int16)VDAC_Ref_Data;
 456:main.c        **** 	
 457:main.c        **** 	uint8 istart = VDAC_Vds_Data;
 458:main.c        **** 	int8 increment = 1;
 459:main.c        **** 	if (istart > value) increment = -1;
 460:main.c        **** 	
 461:main.c        **** 	for (uint8 i = 0; i != value; i += increment) {
 462:main.c        **** 		if (At_Compliance()) {
 463:main.c        **** 			for (uint8 j = i; j != istart; j -= increment) {
 464:main.c        **** 				VDAC_Vds_SetValue(j);
 465:main.c        **** 				
 466:main.c        **** 				if (!At_Compliance()) return;
 467:main.c        **** 			}
 468:main.c        **** 			if (At_Compliance()) {
 469:main.c        **** 				Handle_Compliance_Breach();
 470:main.c        **** 				return;
 471:main.c        **** 			}
 472:main.c        **** 		}
 473:main.c        **** 		
 474:main.c        **** 		VDAC_Vds_SetValue(i);
 475:main.c        **** 	}
 476:main.c        **** }
 477:main.c        **** 
 478:main.c        **** // Set the raw value of Vgs
 479:main.c        **** void Set_Vgs_Raw(uint8 value) {
 480:main.c        **** 	Vgs_Index_Goal_Relative = (int16)value - (int16)VDAC_Ref_Data;
 481:main.c        **** 	
ARM GAS  C:\Users\FRANKL~1\AppData\Local\Temp\ccLkvCvD.s 			page 12


 482:main.c        **** 	int8 increment = 1;
 483:main.c        **** 	uint8 istart = VDAC_Vgs_Data;
 484:main.c        **** 	if (value < istart) increment = -1;
 485:main.c        **** 	
 486:main.c        **** 	for (uint8 i = istart; i != value; i += increment) {
 487:main.c        **** 		if (At_Compliance()) {
 488:main.c        **** 			for (uint8 j = i; j != istart; j -= increment) {
 489:main.c        **** 				VDAC_Vgs_SetValue(j);
 490:main.c        **** 				
 491:main.c        **** 				if (!At_Compliance()) return;
 492:main.c        **** 			}
 493:main.c        **** 			if (At_Compliance()) {
 494:main.c        **** 				Handle_Compliance_Breach();
 495:main.c        **** 				return;
 496:main.c        **** 			}
 497:main.c        **** 		}
 498:main.c        **** 		
 499:main.c        **** 		VDAC_Vgs_SetValue(i);
 500:main.c        **** 	}
 501:main.c        **** }
 502:main.c        **** 
 503:main.c        **** // Set the raw value of the reference voltage
 504:main.c        **** void Set_Ref_Raw(uint8 value) {
 505:main.c        **** 	if (value < 6) value = 6;
 506:main.c        **** 	
 507:main.c        **** 	int8 increment = 1;
 508:main.c        **** 	if (value < VDAC_Ref_Data) increment = -1;
 509:main.c        **** 	
 510:main.c        **** 	for (uint8 i = VDAC_Ref_Data; i != value; i += increment) {
 511:main.c        **** 		
 512:main.c        **** 		if (At_Compliance()) return;
 513:main.c        **** 		
 514:main.c        **** 		int16 new_Vgs = (int16)i + Vgs_Index_Goal_Relative;
 515:main.c        **** 		int16 new_Vds = (int16)i + Vds_Index_Goal_Relative;
 516:main.c        **** 		
 517:main.c        **** 		if (new_Vgs > 255) new_Vgs = 255;
 518:main.c        **** 		if (new_Vds > 255) new_Vds = 255;
 519:main.c        **** 		
 520:main.c        **** 		if (new_Vgs < 0) new_Vgs = 0;
 521:main.c        **** 		if (new_Vds < 0) new_Vds = 0;
 522:main.c        **** 		
 523:main.c        **** 		VDAC_Ref_SetValue(i);
 524:main.c        **** 		VDAC_Vgs_SetValue(new_Vgs);
 525:main.c        **** 		VDAC_Vds_SetValue(new_Vds);
 526:main.c        **** 	}
 527:main.c        **** }
 528:main.c        **** // ****************************
 529:main.c        **** 
 530:main.c        **** // Set Vds and move the reference voltage if necessary
 531:main.c        **** void Set_Vds_Rel(int16 value) {
 532:main.c        **** 	if (value > 255) value = 255;
 533:main.c        **** 	if (value < -255) value = -255;
 534:main.c        **** 	
 535:main.c        **** 	int16 absolute = (int16)value + (int16)VDAC_Ref_Data;
 536:main.c        **** 	
 537:main.c        **** 	if (absolute > 255) {
 538:main.c        **** 		Set_Ref_Raw(VDAC_Ref_Data - (absolute - 255));
ARM GAS  C:\Users\FRANKL~1\AppData\Local\Temp\ccLkvCvD.s 			page 13


 539:main.c        **** 		Set_Vds_Raw(255);
 540:main.c        **** 	} else if (absolute < 0) {
 541:main.c        **** 		Set_Ref_Raw(VDAC_Ref_Data - absolute);
 542:main.c        **** 		Set_Vds_Raw(0);
 543:main.c        **** 	} else {
 544:main.c        **** 		Set_Vds_Raw(absolute);
 545:main.c        **** 	}
 546:main.c        **** 	
 547:main.c        **** 	Vds_Index_Goal_Relative = (int16)value;
 548:main.c        **** 	
 549:main.c        **** 	uint16 Vds_minRefRaw = Vds_Index_Goal_Relative > 0? 0: -Vds_Index_Goal_Relative;
 550:main.c        **** 	uint16 Vds_maxRefRaw = Vds_Index_Goal_Relative > 0? 255 - Vds_Index_Goal_Relative: 255;
 551:main.c        **** 	uint16 Vgs_minRefRaw = Vgs_Index_Goal_Relative > 0? 0: -Vgs_Index_Goal_Relative;
 552:main.c        **** 	uint16 Vgs_maxRefRaw = Vgs_Index_Goal_Relative > 0? 255 - Vgs_Index_Goal_Relative: 255;
 553:main.c        **** 	
 554:main.c        **** 	uint16 newRefRaw = VDAC_Ref_Data;
 555:main.c        **** 	
 556:main.c        **** 	if (newRefRaw < Vgs_minRefRaw) newRefRaw = Vgs_minRefRaw;
 557:main.c        **** 	if (newRefRaw > Vgs_maxRefRaw) newRefRaw = Vgs_maxRefRaw;
 558:main.c        **** 	if (newRefRaw < Vds_minRefRaw) newRefRaw = Vds_minRefRaw;
 559:main.c        **** 	if (newRefRaw > Vds_maxRefRaw) newRefRaw = Vds_maxRefRaw;
 560:main.c        **** 	
 561:main.c        **** 	Set_Ref_Raw(newRefRaw);
 562:main.c        **** }
 563:main.c        **** 
 564:main.c        **** // Set Vgs and move the reference voltage if necessary
 565:main.c        **** void Set_Vgs_Rel(int16 value) {
 566:main.c        **** 	if (value > 255) value = 255;
 567:main.c        **** 	if (value < -255) value = -255;
 568:main.c        **** 	
 569:main.c        **** 	int16 absolute = (int16)value + (int16)VDAC_Ref_Data;
 570:main.c        **** 	
 571:main.c        **** 	if (absolute > 255) {
 572:main.c        **** 		Set_Ref_Raw(VDAC_Ref_Data - (absolute - 255));
 573:main.c        **** 		Set_Vgs_Raw(255);
 574:main.c        **** 	} else if (absolute < 0) {
 575:main.c        **** 		Set_Ref_Raw(VDAC_Ref_Data - absolute);
 576:main.c        **** 		Set_Vgs_Raw(0);
 577:main.c        **** 	} else {
 578:main.c        **** 		Set_Vgs_Raw(absolute);
 579:main.c        **** 	}
 580:main.c        **** 	
 581:main.c        **** 	Vgs_Index_Goal_Relative = (int16)value;
 582:main.c        **** 	
 583:main.c        **** 	uint16 Vds_minRefRaw = Vds_Index_Goal_Relative > 0? 0: -Vds_Index_Goal_Relative;
 584:main.c        **** 	uint16 Vds_maxRefRaw = Vds_Index_Goal_Relative > 0? 255 - Vds_Index_Goal_Relative: 255;
 585:main.c        **** 	uint16 Vgs_minRefRaw = Vgs_Index_Goal_Relative > 0? 0: -Vgs_Index_Goal_Relative;
 586:main.c        **** 	uint16 Vgs_maxRefRaw = Vgs_Index_Goal_Relative > 0? 255 - Vgs_Index_Goal_Relative: 255;
 587:main.c        **** 	
 588:main.c        **** 	uint16 newRefRaw = VDAC_Ref_Data;
 589:main.c        **** 	
 590:main.c        **** 	if (newRefRaw < Vds_minRefRaw) newRefRaw = Vds_minRefRaw;
 591:main.c        **** 	if (newRefRaw > Vds_maxRefRaw) newRefRaw = Vds_maxRefRaw;
 592:main.c        **** 	if (newRefRaw < Vgs_minRefRaw) newRefRaw = Vgs_minRefRaw;
 593:main.c        **** 	if (newRefRaw > Vgs_maxRefRaw) newRefRaw = Vgs_maxRefRaw;
 594:main.c        **** 	
 595:main.c        **** 	Set_Ref_Raw(newRefRaw);
ARM GAS  C:\Users\FRANKL~1\AppData\Local\Temp\ccLkvCvD.s 			page 14


 596:main.c        **** }
 597:main.c        **** // ****************************
 598:main.c        **** 
 599:main.c        **** // Set Vgs by volts (good for readability, but requires passing floats)
 600:main.c        **** void Set_Vgs(float voltage) {
 601:main.c        **** 	Set_Vgs_Rel((voltage/4.080)*255.0);
 602:main.c        **** }
 603:main.c        **** 
 604:main.c        **** // Set Vds by volts (good for readability, but requires passing floats)
 605:main.c        **** void Set_Vds(float voltage) {
 606:main.c        **** 	Set_Vds_Rel((voltage/4.080)*255.0);
 607:main.c        **** }
 608:main.c        **** // ****************************
 609:main.c        **** 
 610:main.c        **** // Set Vgs by mV (good for passing in integers instead of floats)
 611:main.c        **** void Set_Vgs_mV(float mV) {
 612:main.c        **** 	Set_Vgs(mV/1000.0);
 613:main.c        **** }
 614:main.c        **** 
 615:main.c        **** // Set Vds by mV (good for passing in integers instead of floats)
 616:main.c        **** void Set_Vds_mV(float mV) {
 617:main.c        **** 	Set_Vds(mV/1000.0);
 618:main.c        **** }
 619:main.c        **** // ****************************
 620:main.c        **** 
 621:main.c        **** // Set Vgs and Vds to 0
 622:main.c        **** void Zero_All_DACs() {
 623:main.c        **** 	Set_Vds_Raw(0);
 624:main.c        **** 	Set_Vgs_Raw(0);
 625:main.c        **** 	
 626:main.c        **** 	VDAC_Vds_SetValue(0);
 627:main.c        **** 	VDAC_Vgs_SetValue(0);
 628:main.c        **** }
 629:main.c        **** 
 630:main.c        **** void Calibrate_ADC_Offset(uint32 sampleCount) {
 631:main.c        **** 	uint8 current_range_resistor = TIA_Selected_Resistor;
 632:main.c        **** 	
 633:main.c        **** 	// Zero the DACs
 634:main.c        **** 	Set_Vds(0);
 635:main.c        **** 	Set_Vgs(0);
 636:main.c        **** 	
 637:main.c        **** 	// Voltage and its standard deviation (in uV)
 638:main.c        **** 	int32 voltage = 0;
 639:main.c        **** 	int32 voltageSD = 0;
 640:main.c        **** 	
 641:main.c        **** 	// Measure ADC offset voltages
 642:main.c        **** 	for (uint8 i = R20K; i <= R1000K; i++) {
 643:main.c        **** 		TIA_Set_Resistor(i);
 644:main.c        **** 		// Take a few measurements to discard any problems with the initial measurements
 645:main.c        **** 		ADC_Measure_uV(&voltage, &voltageSD, 3);
 646:main.c        **** 		ADC_Measure_uV(&voltage, &voltageSD, sampleCount);
 647:main.c        **** 		TIA_Offsets_uV[i] = -voltage;
 648:main.c        **** 		sprintf(TransmitBuffer, "# Offset %e Ohm: %li uV\r\n", TIA_Resistor_Values[i], -voltage);
 649:main.c        **** 		USBUARTH_Send(TransmitBuffer, strlen(TransmitBuffer));
 650:main.c        **** 		UART_1_PutString(TransmitBuffer);
 651:main.c        **** 	}
 652:main.c        **** 	
ARM GAS  C:\Users\FRANKL~1\AppData\Local\Temp\ccLkvCvD.s 			page 15


 653:main.c        **** 	// Reset TIA Resistor
 654:main.c        **** 	TIA_Set_Resistor(current_range_resistor);
 655:main.c        **** 	
 656:main.c        **** 	sprintf(TransmitBuffer, "# Calibrated ADC Offsets\r\n");
 657:main.c        **** 	USBUARTH_Send(TransmitBuffer, strlen(TransmitBuffer));
 658:main.c        **** 	UART_1_PutString(TransmitBuffer);
 659:main.c        **** }
 660:main.c        **** 
 661:main.c        **** // Take a measurement of the system (Id - from delta-sigma ADC, Vgs, Vds, SAR1 ADC, SAR2 ADC)
 662:main.c        **** void Measure(uint32 deltaSigmaSampleCount, uint32 SAR1_SampleCount, uint32 SAR2_SampleCount) {
 663:main.c        **** 	int32 ADC_Voltage = 0;
 664:main.c        **** 	int32 ADC_Voltage_SD = 0;
 665:main.c        **** 	
 666:main.c        **** 	ADC_Adjust_Range(3);
 667:main.c        **** 	
 668:main.c        **** 	ADC_Measure_uV(&ADC_Voltage, &ADC_Voltage_SD, deltaSigmaSampleCount);
 669:main.c        **** 	
 670:main.c        **** 	float TIA_Feedback_R = TIA_Resistor_Values[TIA_Selected_Resistor];
 671:main.c        **** 	int32 TIA_Offset_uV = TIA_Offsets_uV[TIA_Selected_Resistor];
 672:main.c        **** 	float unitConversion = -1.0e-6/TIA_Feedback_R;
 673:main.c        **** 	
 674:main.c        **** 	float IdsAverageAmps = unitConversion * (ADC_Voltage + TIA_Offset_uV);
 675:main.c        **** 	
 676:main.c        **** 	//ADC_SAR_1_StartConvert();
 677:main.c        **** 	//ADC_SAR_2_StartConvert();
 678:main.c        **** 	//while (!ADC_SAR_1_IsEndConversion(ADC_SAR_1_RETURN_STATUS));
 679:main.c        **** 	//while (!ADC_SAR_2_IsEndConversion(ADC_SAR_2_RETURN_STATUS));
 680:main.c        **** 	//float SAR1 = ADC_SAR_1_CountsTo_Volts(ADC_SAR_1_GetResult16());
 681:main.c        **** 	//float SAR2 = ADC_SAR_2_CountsTo_Volts(ADC_SAR_2_GetResult16());
 682:main.c        **** 	
 683:main.c        **** 	int32 SAR1_Average = 0;
 684:main.c        **** 	int32 SAR1_SD = 0;
 685:main.c        **** 	int32 SAR2_Average = 0;
 686:main.c        **** 	int32 SAR2_SD = 0;
 687:main.c        **** 
 688:main.c        **** 	SAR1_Measure_V(&SAR1_Average, &SAR1_SD, SAR1_SampleCount);
 689:main.c        **** 	SAR2_Measure_V(&SAR2_Average, &SAR2_SD, SAR2_SampleCount);
 690:main.c        **** 
 691:main.c        **** 	float SAR1 = 1e-6*SAR1_Average;
 692:main.c        **** 	float SAR2 = 1e-6*SAR2_Average;
 693:main.c        **** 
 694:main.c        **** 	sprintf(TransmitBuffer, "[%e,%f,%f,%f,%u]\r\n", IdsAverageAmps, Get_Vgs(), Get_Vds(), SAR1, VDAC_R
 695:main.c        **** 	USBUARTH_Send(TransmitBuffer, strlen(TransmitBuffer));
 696:main.c        **** 	UART_1_PutString(TransmitBuffer);
 697:main.c        **** }
 698:main.c        **** 
 699:main.c        **** // Repeatedly take measurements of the system
 700:main.c        **** void Measure_Multiple(uint32 n) {
 701:main.c        **** 	for (uint32 i = 0; i < n; i++) {
 702:main.c        **** 		Measure(100, 1, 10);
 703:main.c        **** 	}
 704:main.c        **** }
 705:main.c        **** 
 706:main.c        **** // Take a basic gate sweep (hardcoded voltages, hardcoded number of data points)
 707:main.c        **** void Measure_Sweep() {
 708:main.c        **** 	VDAC_Vds_SetValue(90);
 709:main.c        **** 	VDAC_Vgs_SetValue(254);
ARM GAS  C:\Users\FRANKL~1\AppData\Local\Temp\ccLkvCvD.s 			page 16


 710:main.c        **** 	
 711:main.c        **** 	for (uint16 Vgsi = 0; Vgsi < 256; Vgsi++) {
 712:main.c        **** 		VDAC_Vgs_SetValue(Vgsi);
 713:main.c        **** 		Measure(100, 1, 1);
 714:main.c        **** 	}
 715:main.c        **** }
 716:main.c        **** 
 717:main.c        **** void Measure_Gate_Sweep(uint8 loop) {
 718:main.c        **** 	
 719:main.c        **** 	if (Vds_Index_Goal_Relative > 0) {
 720:main.c        **** 		Set_Ref_Raw(254 - Vds_Index_Goal_Relative);
 721:main.c        **** 	} else {
 722:main.c        **** 		Set_Ref_Raw(254);
 723:main.c        **** 	}
 724:main.c        **** 	
 725:main.c        **** 	int8 speed = 16;
 726:main.c        **** 	
 727:main.c        **** 	for (uint8 l = 0; l <= loop; l++) {
 728:main.c        **** 		int8 direction = 1*speed;
 729:main.c        **** 		uint8 istart = 0;
 730:main.c        **** 		if (Vds_Index_Goal_Relative < 0) {
 731:main.c        **** 			istart = -Vds_Index_Goal_Relative;
 732:main.c        **** 		}
 733:main.c        **** 		
 734:main.c        **** 		uint8 istop = 256-speed;
 735:main.c        **** 		
 736:main.c        **** 		if (l%2 == 1) {
 737:main.c        **** 			direction = -1*speed;
 738:main.c        **** 			istart = 256-speed;
 739:main.c        **** 			istop = 0;
 740:main.c        **** 		}
 741:main.c        **** 		
 742:main.c        **** 		for (uint8 i = istart; i != istop; i += direction) {
 743:main.c        **** 			for (uint8 j = 0; j <= 1; j++) {
 744:main.c        **** 				if (j == 1) Set_Ref_Raw(254 - i + 1);
 745:main.c        **** 				Set_Vgs_Raw(i);
 746:main.c        **** 				
 747:main.c        **** 				Measure(33, 1, 1);
 748:main.c        **** 				
 749:main.c        **** 				if (G_Stop) break;
 750:main.c        **** 				while (G_Pause);
 751:main.c        **** 			}
 752:main.c        **** 		}
 753:main.c        **** 	}
 754:main.c        **** }
 755:main.c        **** 
 756:main.c        **** void Measure_Wide_Gate_Sweep(uint8 loop) {
 757:main.c        **** 	Set_Ref_Raw(254);
 758:main.c        **** 	
 759:main.c        **** 	int8 speed = 16;
 760:main.c        **** 	
 761:main.c        **** 	for (uint8 l = 0; l <= loop; l++) {
 762:main.c        **** 		int8 direction = 1*speed;
 763:main.c        **** 		uint8 istart = 0;
 764:main.c        **** 		uint8 istop = 256-speed;
 765:main.c        **** 		
 766:main.c        **** 		if (l%2 == 1) {
ARM GAS  C:\Users\FRANKL~1\AppData\Local\Temp\ccLkvCvD.s 			page 17


 767:main.c        **** 			direction = -1*speed;
 768:main.c        **** 			istart = 256-speed;
 769:main.c        **** 			istop = 0;
 770:main.c        **** 		}
 771:main.c        **** 		
 772:main.c        **** 		for (uint8 i = istart; i != istop; i += direction) {
 773:main.c        **** 			for (uint8 j = 0; j <= 1; j++) {
 774:main.c        **** 				
 775:main.c        **** 				if (j == 1) Set_Ref_Raw(254 - i + 1);
 776:main.c        **** 				Set_Vgs_Raw(i);
 777:main.c        **** 				
 778:main.c        **** 				Measure(33, 1, 1);
 779:main.c        **** 				
 780:main.c        **** 				if (G_Stop) break;
 781:main.c        **** 				while (G_Pause);
 782:main.c        **** 			}
 783:main.c        **** 		}
 784:main.c        **** 	}
 785:main.c        **** }
 786:main.c        **** 
 787:main.c        **** void Measure_Gate_Sweep_New() {
 788:main.c        **** 	uint8 refTurn = 1;
 789:main.c        **** 	int8 refIncrement = 1;
 790:main.c        **** 	uint8 startRefIndex = 0;
 791:main.c        **** 	uint8 endRefIndex = 0;
 792:main.c        **** 	uint8 refIndex = startRefIndex;
 793:main.c        **** 	uint8 refArrived = 0;
 794:main.c        **** 	
 795:main.c        **** 	int8 gateIncrement = 1;
 796:main.c        **** 	uint8 startGateIndex = 0;
 797:main.c        **** 	uint8 endGateIndex = 0;
 798:main.c        **** 	uint8 gateIndex = startGateIndex;
 799:main.c        **** 	uint8 gateArrived = 0;
 800:main.c        **** 	
 801:main.c        **** 	
 802:main.c        **** 	while (!gateArrived || !refArrived) {
 803:main.c        **** 		gateArrived = abs(gateIndex-endGateIndex) < abs(gateIncrement);
 804:main.c        **** 		refArrived = abs(refIndex-endRefIndex) < abs(refIncrement);
 805:main.c        **** 		
 806:main.c        **** 		refTurn = !refTurn;
 807:main.c        **** 		
 808:main.c        **** 		if (refTurn && refArrived) continue;
 809:main.c        **** 		if (!refTurn && gateArrived) continue;
 810:main.c        **** 		
 811:main.c        **** 		Set_Ref_Raw(refIndex);
 812:main.c        **** 		Set_Vgs_Raw(gateIndex);
 813:main.c        **** 		
 814:main.c        **** 		Measure(100, 1, 1);
 815:main.c        **** 		
 816:main.c        **** 		if (refTurn) {
 817:main.c        **** 			refIndex += refIncrement;
 818:main.c        **** 		} else {
 819:main.c        **** 			gateIndex += gateIncrement;
 820:main.c        **** 		}
 821:main.c        **** 		
 822:main.c        **** 		if (G_Stop) break;
 823:main.c        **** 		while (G_Pause);
ARM GAS  C:\Users\FRANKL~1\AppData\Local\Temp\ccLkvCvD.s 			page 18


 824:main.c        **** 	}
 825:main.c        **** }
 826:main.c        **** 
 827:main.c        **** void Scan(uint8 wide, uint8 loop) {
 828:main.c        **** 	for (uint8 device = 1; device <= CONTACT_COUNT/**//2; device++) {
 829:main.c        **** 		uint8 contact1 = device;
 830:main.c        **** 		uint8 contact2 = device + 1;
 831:main.c        **** 		uint8 intermediate1 = 1;
 832:main.c        **** 		uint8 intermediate2 = 2;
 833:main.c        **** 		
 834:main.c        **** 		Disconnect_All_Contacts_From_All_Intermediates();
 835:main.c        **** 		Zero_All_DACs();
 836:main.c        **** 		Connect_Intermediates();
 837:main.c        **** 		Connect_Contact_To_Intermediate(contact1, intermediate1);
 838:main.c        **** 		Connect_Contact_To_Intermediate(contact2, intermediate2);
 839:main.c        **** 		
 840:main.c        **** 		sprintf(TransmitBuffer, "\r\n%u\r\n", device);
 841:main.c        **** 		USBUARTH_Send(TransmitBuffer, strlen(TransmitBuffer));
 842:main.c        **** 		UART_1_PutString(TransmitBuffer);
 843:main.c        **** 		
 844:main.c        **** 		if (wide) {
 845:main.c        **** 			Measure_Wide_Gate_Sweep(loop);
 846:main.c        **** 		} else {
 847:main.c        **** 			Measure_Gate_Sweep(loop);
 848:main.c        **** 		}
 849:main.c        **** 		
 850:main.c        **** 		if (G_Break || G_Stop) break;
 851:main.c        **** 		while (G_Pause);
 852:main.c        **** 	}
 853:main.c        **** }
 854:main.c        **** 
 855:main.c        **** void Scan_Range(uint8 startDevice, uint8 stopDevice, uint8 wide, uint8 loop) {
 856:main.c        **** 	if (startDevice >= CONTACT_COUNT) return;
 857:main.c        **** 	if (stopDevice >= CONTACT_COUNT) return;
 858:main.c        **** 	
 859:main.c        **** 	for (uint8 device = startDevice; device <= stopDevice; device++) {
 860:main.c        **** 		uint8 contact1 = device;
 861:main.c        **** 		uint8 contact2 = device + 1;
 862:main.c        **** 		uint8 intermediate1 = 1;
 863:main.c        **** 		uint8 intermediate2 = 2;
 864:main.c        **** 		
 865:main.c        **** 		Disconnect_All_Contacts_From_All_Intermediates();
 866:main.c        **** 		Zero_All_DACs();
 867:main.c        **** 		Connect_Intermediates();
 868:main.c        **** 		Connect_Contact_To_Intermediate(contact1, intermediate1);
 869:main.c        **** 		Connect_Contact_To_Intermediate(contact2, intermediate2);
 870:main.c        **** 		
 871:main.c        **** 		sprintf(TransmitBuffer, "\r\n%u\r\n", device);
 872:main.c        **** 		USBUARTH_Send(TransmitBuffer, strlen(TransmitBuffer));
 873:main.c        **** 		UART_1_PutString(TransmitBuffer);
 874:main.c        **** 		
 875:main.c        **** 		if (wide) {
 876:main.c        **** 			Measure_Wide_Gate_Sweep(loop);
 877:main.c        **** 		} else {
 878:main.c        **** 			Measure_Gate_Sweep(loop);
 879:main.c        **** 		}
 880:main.c        **** 		
ARM GAS  C:\Users\FRANKL~1\AppData\Local\Temp\ccLkvCvD.s 			page 19


 881:main.c        **** 		if (G_Break || G_Stop) break;
 882:main.c        **** 		while (G_Pause);
 883:main.c        **** 	}
 884:main.c        **** }
 885:main.c        **** 
 886:main.c        **** CY_ISR (CommunicationHandlerISR) {
 109              		.loc 2 886 0
 110              		.cfi_startproc
 111              		@ args = 0, pretend = 0, frame = 64
 112              		@ frame_needed = 0, uses_anonymous_args = 0
 113 0000 30B5     		push	{r4, r5, lr}
 114              		.cfi_def_cfa_offset 12
 115              		.cfi_offset 4, -12
 116              		.cfi_offset 5, -8
 117              		.cfi_offset 14, -4
 118 0002 91B0     		sub	sp, sp, #68
 119              		.cfi_def_cfa_offset 80
 887:main.c        **** 	if (USBUARTH_DataIsReady()) {
 120              		.loc 2 887 0
 121 0004 FFF7FEFF 		bl	USBUARTH_DataIsReady
 122              	.LVL8:
 123 0008 0028     		cmp	r0, #0
 124 000a 37D0     		beq	.L10
 125              	.LBB2:
 888:main.c        **** 		// USBUARTH_Receive_Until(UART_Receive_Buffer, USBUART_BUFFER_SIZE, "\r");
 889:main.c        **** 		
 890:main.c        **** 		char temp_buffer[USBUART_BUFFER_SIZE];
 891:main.c        **** 		uint8 temp_count = USBUART_GetAll((uint8*) temp_buffer);
 126              		.loc 2 891 0
 127 000c 6846     		mov	r0, sp
 128 000e FFF7FEFF 		bl	USBUART_GetAll
 129              	.LVL9:
 130 0012 C0B2     		uxtb	r0, r0
 131              	.LVL10:
 132              	.LBB3:
 892:main.c        **** 		
 893:main.c        **** 		for (uint8 i = 0; i < temp_count; i++) {
 133              		.loc 2 893 0
 134 0014 0023     		movs	r3, #0
 135 0016 2EE0     		b	.L11
 136              	.LVL11:
 137              	.L17:
 138              	.LBB4:
 894:main.c        **** 			char c = temp_buffer[i];
 139              		.loc 2 894 0
 140 0018 10AA     		add	r2, sp, #64
 141 001a 1A44     		add	r2, r2, r3
 142 001c 12F8402C 		ldrb	r2, [r2, #-64]	@ zero_extendqisi2
 143              	.LVL12:
 895:main.c        **** 			
 896:main.c        **** 			USBUART_Receive_Buffer[USBUART_Rx_Position] = c;
 144              		.loc 2 896 0
 145 0020 5949     		ldr	r1, .L31
 146 0022 0978     		ldrb	r1, [r1]	@ zero_extendqisi2
 147 0024 C9B2     		uxtb	r1, r1
 148 0026 594C     		ldr	r4, .L31+4
 149 0028 6254     		strb	r2, [r4, r1]
ARM GAS  C:\Users\FRANKL~1\AppData\Local\Temp\ccLkvCvD.s 			page 20


 897:main.c        **** 			
 898:main.c        **** 			// sprintf(TransmitBuffer, "USB: %c\r\n", USBUART_Receive_Buffer[USBUART_Rx_Position]);
 899:main.c        **** 			// UART_1_PutString(TransmitBuffer);
 900:main.c        **** 			
 901:main.c        **** 			if (c == '\r' || c == '\n' || c == '!') {
 150              		.loc 2 901 0
 151 002a 0D2A     		cmp	r2, #13
 152 002c 03D0     		beq	.L12
 153              		.loc 2 901 0 is_stmt 0 discriminator 1
 154 002e 0A2A     		cmp	r2, #10
 155 0030 01D0     		beq	.L12
 156              		.loc 2 901 0 discriminator 2
 157 0032 212A     		cmp	r2, #33
 158 0034 10D1     		bne	.L13
 159              	.L12:
 902:main.c        **** 				USBUART_Receive_Buffer[USBUART_Rx_Position] = 0;
 160              		.loc 2 902 0 is_stmt 1
 161 0036 5449     		ldr	r1, .L31
 162 0038 0A78     		ldrb	r2, [r1]	@ zero_extendqisi2
 163              	.LVL13:
 164 003a D2B2     		uxtb	r2, r2
 165 003c 0025     		movs	r5, #0
 166 003e 534C     		ldr	r4, .L31+4
 167 0040 A554     		strb	r5, [r4, r2]
 903:main.c        **** 				if (USBUART_Rx_Position) newData = 1;
 168              		.loc 2 903 0
 169 0042 0A78     		ldrb	r2, [r1]	@ zero_extendqisi2
 170 0044 12F0FF0F 		tst	r2, #255
 171 0048 02D0     		beq	.L14
 172              		.loc 2 903 0 is_stmt 0 discriminator 1
 173 004a 0121     		movs	r1, #1
 174 004c 504A     		ldr	r2, .L31+8
 175 004e 1170     		strb	r1, [r2]
 176              	.L14:
 904:main.c        **** 				USBUART_Rx_Position = 0;
 177              		.loc 2 904 0 is_stmt 1
 178 0050 0021     		movs	r1, #0
 179 0052 4D4A     		ldr	r2, .L31
 180 0054 1170     		strb	r1, [r2]
 181 0056 04E0     		b	.L15
 182              	.LVL14:
 183              	.L13:
 905:main.c        **** 			} else {
 906:main.c        **** 				USBUART_Rx_Position++;
 184              		.loc 2 906 0
 185 0058 4B49     		ldr	r1, .L31
 186 005a 0A78     		ldrb	r2, [r1]	@ zero_extendqisi2
 187              	.LVL15:
 188 005c 0132     		adds	r2, r2, #1
 189 005e D2B2     		uxtb	r2, r2
 190 0060 0A70     		strb	r2, [r1]
 191              	.L15:
 907:main.c        **** 			}
 908:main.c        **** 			
 909:main.c        **** 			if (USBUART_Rx_Position >= USBUART_BUFFER_SIZE) USBUART_Rx_Position = 0;
 192              		.loc 2 909 0
 193 0062 494A     		ldr	r2, .L31
ARM GAS  C:\Users\FRANKL~1\AppData\Local\Temp\ccLkvCvD.s 			page 21


 194 0064 1278     		ldrb	r2, [r2]	@ zero_extendqisi2
 195 0066 D2B2     		uxtb	r2, r2
 196 0068 3F2A     		cmp	r2, #63
 197 006a 02D9     		bls	.L16
 198              		.loc 2 909 0 is_stmt 0 discriminator 1
 199 006c 0021     		movs	r1, #0
 200 006e 464A     		ldr	r2, .L31
 201 0070 1170     		strb	r1, [r2]
 202              	.L16:
 203              	.LBE4:
 893:main.c        **** 			char c = temp_buffer[i];
 204              		.loc 2 893 0 is_stmt 1 discriminator 2
 205 0072 0133     		adds	r3, r3, #1
 206              	.LVL16:
 207 0074 DBB2     		uxtb	r3, r3
 208              	.LVL17:
 209              	.L11:
 893:main.c        **** 			char c = temp_buffer[i];
 210              		.loc 2 893 0 is_stmt 0 discriminator 1
 211 0076 8342     		cmp	r3, r0
 212 0078 CED3     		bcc	.L17
 213 007a 3AE0     		b	.L18
 214              	.LVL18:
 215              	.L10:
 216              	.LBE3:
 217              	.LBE2:
 910:main.c        **** 		}
 911:main.c        **** 	} else
 912:main.c        **** 	if (UART_1_GetRxBufferSize()) {
 218              		.loc 2 912 0 is_stmt 1
 219 007c FFF7FEFF 		bl	UART_1_GetRxBufferSize
 220              	.LVL19:
 221 0080 0028     		cmp	r0, #0
 222 0082 36D0     		beq	.L18
 913:main.c        **** 		UART_Receive_Buffer[UART_Rx_Position] = UART_1_GetChar();
 223              		.loc 2 913 0
 224 0084 434D     		ldr	r5, .L31+12
 225 0086 2C78     		ldrb	r4, [r5]	@ zero_extendqisi2
 226 0088 E4B2     		uxtb	r4, r4
 227 008a FFF7FEFF 		bl	UART_1_GetChar
 228              	.LVL20:
 229 008e 424A     		ldr	r2, .L31+16
 230 0090 1055     		strb	r0, [r2, r4]
 914:main.c        **** 		
 915:main.c        **** 		if (UART_Receive_Buffer[UART_Rx_Position] == '\r' || UART_Receive_Buffer[UART_Rx_Position] == '\n
 231              		.loc 2 915 0
 232 0092 2B78     		ldrb	r3, [r5]	@ zero_extendqisi2
 233 0094 DBB2     		uxtb	r3, r3
 234 0096 D35C     		ldrb	r3, [r2, r3]	@ zero_extendqisi2
 235 0098 DBB2     		uxtb	r3, r3
 236 009a 0D2B     		cmp	r3, #13
 237 009c 0BD0     		beq	.L19
 238              		.loc 2 915 0 is_stmt 0 discriminator 1
 239 009e 2B78     		ldrb	r3, [r5]	@ zero_extendqisi2
 240 00a0 DBB2     		uxtb	r3, r3
 241 00a2 D35C     		ldrb	r3, [r2, r3]	@ zero_extendqisi2
 242 00a4 DBB2     		uxtb	r3, r3
ARM GAS  C:\Users\FRANKL~1\AppData\Local\Temp\ccLkvCvD.s 			page 22


 243 00a6 0A2B     		cmp	r3, #10
 244 00a8 05D0     		beq	.L19
 245              		.loc 2 915 0 discriminator 2
 246 00aa 2B78     		ldrb	r3, [r5]	@ zero_extendqisi2
 247 00ac DBB2     		uxtb	r3, r3
 248 00ae D35C     		ldrb	r3, [r2, r3]	@ zero_extendqisi2
 249 00b0 DBB2     		uxtb	r3, r3
 250 00b2 212B     		cmp	r3, #33
 251 00b4 10D1     		bne	.L20
 252              	.L19:
 916:main.c        **** 			UART_Receive_Buffer[UART_Rx_Position] = 0;
 253              		.loc 2 916 0 is_stmt 1
 254 00b6 374A     		ldr	r2, .L31+12
 255 00b8 1378     		ldrb	r3, [r2]	@ zero_extendqisi2
 256 00ba DBB2     		uxtb	r3, r3
 257 00bc 0020     		movs	r0, #0
 258 00be 3649     		ldr	r1, .L31+16
 259 00c0 C854     		strb	r0, [r1, r3]
 917:main.c        **** 			if (UART_Rx_Position) newData = 2;
 260              		.loc 2 917 0
 261 00c2 1378     		ldrb	r3, [r2]	@ zero_extendqisi2
 262 00c4 13F0FF0F 		tst	r3, #255
 263 00c8 02D0     		beq	.L21
 264              		.loc 2 917 0 is_stmt 0 discriminator 1
 265 00ca 0222     		movs	r2, #2
 266 00cc 304B     		ldr	r3, .L31+8
 267 00ce 1A70     		strb	r2, [r3]
 268              	.L21:
 918:main.c        **** 			UART_Rx_Position = 0;
 269              		.loc 2 918 0 is_stmt 1
 270 00d0 0022     		movs	r2, #0
 271 00d2 304B     		ldr	r3, .L31+12
 272 00d4 1A70     		strb	r2, [r3]
 273 00d6 04E0     		b	.L22
 274              	.L20:
 919:main.c        **** 		} else {
 920:main.c        **** 			UART_Rx_Position++;
 275              		.loc 2 920 0
 276 00d8 2E4A     		ldr	r2, .L31+12
 277 00da 1378     		ldrb	r3, [r2]	@ zero_extendqisi2
 278 00dc 0133     		adds	r3, r3, #1
 279 00de DBB2     		uxtb	r3, r3
 280 00e0 1370     		strb	r3, [r2]
 281              	.L22:
 921:main.c        **** 		}
 922:main.c        **** 		
 923:main.c        **** 		if (UART_Rx_Position >= USBUART_BUFFER_SIZE) UART_Rx_Position = 0;
 282              		.loc 2 923 0
 283 00e2 2C4B     		ldr	r3, .L31+12
 284 00e4 1B78     		ldrb	r3, [r3]	@ zero_extendqisi2
 285 00e6 DBB2     		uxtb	r3, r3
 286 00e8 3F2B     		cmp	r3, #63
 287 00ea 02D9     		bls	.L18
 288              		.loc 2 923 0 is_stmt 0 discriminator 1
 289 00ec 0022     		movs	r2, #0
 290 00ee 294B     		ldr	r3, .L31+12
 291 00f0 1A70     		strb	r2, [r3]
ARM GAS  C:\Users\FRANKL~1\AppData\Local\Temp\ccLkvCvD.s 			page 23


 292              	.L18:
 924:main.c        **** 	}
 925:main.c        **** 	
 926:main.c        **** 	if (newData) {
 293              		.loc 2 926 0 is_stmt 1
 294 00f2 274B     		ldr	r3, .L31+8
 295 00f4 1B78     		ldrb	r3, [r3]	@ zero_extendqisi2
 296 00f6 13F0FF0F 		tst	r3, #255
 297 00fa 3FD0     		beq	.L23
 298              	.LVL21:
 299              	.LBB5:
 927:main.c        **** 		char* ReceiveBuffer = &USBUART_Receive_Buffer[0];
 928:main.c        **** 		if (newData == 2) ReceiveBuffer = &UART_Receive_Buffer[0];
 300              		.loc 2 928 0
 301 00fc 244B     		ldr	r3, .L31+8
 302 00fe 1B78     		ldrb	r3, [r3]	@ zero_extendqisi2
 303 0100 DBB2     		uxtb	r3, r3
 304 0102 022B     		cmp	r3, #2
 305 0104 01D0     		beq	.L29
 927:main.c        **** 		char* ReceiveBuffer = &USBUART_Receive_Buffer[0];
 306              		.loc 2 927 0
 307 0106 214C     		ldr	r4, .L31+4
 308 0108 00E0     		b	.L24
 309              	.L29:
 310              		.loc 2 928 0
 311 010a 234C     		ldr	r4, .L31+16
 312              	.L24:
 313              	.LVL22:
 929:main.c        **** 		
 930:main.c        **** 		if (strstr(ReceiveBuffer, "stop ") == &ReceiveBuffer[0]) {
 314              		.loc 2 930 0
 315 010c 2349     		ldr	r1, .L31+20
 316 010e 2046     		mov	r0, r4
 317 0110 FFF7FEFF 		bl	strstr
 318              	.LVL23:
 319 0114 8442     		cmp	r4, r0
 320 0116 05D1     		bne	.L25
 931:main.c        **** 			G_Stop = 1;
 321              		.loc 2 931 0
 322 0118 1D4B     		ldr	r3, .L31+8
 323 011a 0122     		movs	r2, #1
 324 011c 5A70     		strb	r2, [r3, #1]
 932:main.c        **** 			newData = 0;
 325              		.loc 2 932 0
 326 011e 0022     		movs	r2, #0
 327 0120 1A70     		strb	r2, [r3]
 328 0122 2BE0     		b	.L23
 329              	.L25:
 933:main.c        **** 		} else 
 934:main.c        **** 		if (strstr(ReceiveBuffer, "break ") == &ReceiveBuffer[0]) {
 330              		.loc 2 934 0
 331 0124 1E49     		ldr	r1, .L31+24
 332 0126 2046     		mov	r0, r4
 333 0128 FFF7FEFF 		bl	strstr
 334              	.LVL24:
 335 012c 8442     		cmp	r4, r0
 336 012e 05D1     		bne	.L26
ARM GAS  C:\Users\FRANKL~1\AppData\Local\Temp\ccLkvCvD.s 			page 24


 935:main.c        **** 			G_Break = 1;
 337              		.loc 2 935 0
 338 0130 174B     		ldr	r3, .L31+8
 339 0132 0122     		movs	r2, #1
 340 0134 9A70     		strb	r2, [r3, #2]
 936:main.c        **** 			newData = 0;
 341              		.loc 2 936 0
 342 0136 0022     		movs	r2, #0
 343 0138 1A70     		strb	r2, [r3]
 344 013a 1FE0     		b	.L23
 345              	.L26:
 937:main.c        **** 		} else 
 938:main.c        **** 		if (strstr(ReceiveBuffer, "pause ") == &ReceiveBuffer[0]) {
 346              		.loc 2 938 0
 347 013c 1949     		ldr	r1, .L31+28
 348 013e 2046     		mov	r0, r4
 349 0140 FFF7FEFF 		bl	strstr
 350              	.LVL25:
 351 0144 8442     		cmp	r4, r0
 352 0146 05D1     		bne	.L27
 939:main.c        **** 			G_Pause = 1;
 353              		.loc 2 939 0
 354 0148 114B     		ldr	r3, .L31+8
 355 014a 0122     		movs	r2, #1
 356 014c DA70     		strb	r2, [r3, #3]
 940:main.c        **** 			newData = 0;
 357              		.loc 2 940 0
 358 014e 0022     		movs	r2, #0
 359 0150 1A70     		strb	r2, [r3]
 360 0152 13E0     		b	.L23
 361              	.L27:
 941:main.c        **** 		} else 
 942:main.c        **** 		if (strstr(ReceiveBuffer, "resume ") == &ReceiveBuffer[0]) {
 362              		.loc 2 942 0
 363 0154 1449     		ldr	r1, .L31+32
 364 0156 2046     		mov	r0, r4
 365 0158 FFF7FEFF 		bl	strstr
 366              	.LVL26:
 367 015c 8442     		cmp	r4, r0
 368 015e 04D1     		bne	.L28
 943:main.c        **** 			G_Pause = 0;
 369              		.loc 2 943 0
 370 0160 0B4B     		ldr	r3, .L31+8
 371 0162 0022     		movs	r2, #0
 372 0164 DA70     		strb	r2, [r3, #3]
 944:main.c        **** 			newData = 0;
 373              		.loc 2 944 0
 374 0166 1A70     		strb	r2, [r3]
 375 0168 08E0     		b	.L23
 376              	.L28:
 945:main.c        **** 		} else 
 946:main.c        **** 		if (strstr(ReceiveBuffer, "tristate ") == &ReceiveBuffer[0]) {
 377              		.loc 2 946 0
 378 016a 1049     		ldr	r1, .L31+36
 379 016c 2046     		mov	r0, r4
 380 016e FFF7FEFF 		bl	strstr
 381              	.LVL27:
ARM GAS  C:\Users\FRANKL~1\AppData\Local\Temp\ccLkvCvD.s 			page 25


 382 0172 8442     		cmp	r4, r0
 383 0174 02D1     		bne	.L23
 947:main.c        **** 			// To do
 948:main.c        **** 			newData = 0;
 384              		.loc 2 948 0
 385 0176 0022     		movs	r2, #0
 386 0178 054B     		ldr	r3, .L31+8
 387 017a 1A70     		strb	r2, [r3]
 388              	.LVL28:
 389              	.L23:
 390              	.LBE5:
 949:main.c        **** 		}
 950:main.c        **** 	}
 951:main.c        **** 	
 952:main.c        **** 	CommunicationInterrupt_ClearPending();
 391              		.loc 2 952 0
 392 017c FFF7FEFF 		bl	CommunicationInterrupt_ClearPending
 393              	.LVL29:
 953:main.c        **** 	CommunicationTimer_ReadStatusRegister();
 394              		.loc 2 953 0
 395 0180 FFF7FEFF 		bl	CommunicationTimer_ReadStatusRegister
 396              	.LVL30:
 954:main.c        **** }
 397              		.loc 2 954 0
 398 0184 11B0     		add	sp, sp, #68
 399              		.cfi_def_cfa_offset 12
 400              		@ sp needed
 401 0186 30BD     		pop	{r4, r5, pc}
 402              	.L32:
 403              		.align	2
 404              	.L31:
 405 0188 00000000 		.word	USBUART_Rx_Position
 406 018c 00000000 		.word	USBUART_Receive_Buffer
 407 0190 00000000 		.word	.LANCHOR0
 408 0194 00000000 		.word	UART_Rx_Position
 409 0198 00000000 		.word	UART_Receive_Buffer
 410 019c 00000000 		.word	.LC0
 411 01a0 08000000 		.word	.LC1
 412 01a4 10000000 		.word	.LC2
 413 01a8 18000000 		.word	.LC3
 414 01ac 20000000 		.word	.LC4
 415              		.cfi_endproc
 416              	.LFE113:
 417              		.size	CommunicationHandlerISR, .-CommunicationHandlerISR
 418              		.section	.text.USBUARTH_Send,"ax",%progbits
 419              		.align	2
 420              		.global	USBUARTH_Send
 421              		.thumb
 422              		.thumb_func
 423              		.type	USBUARTH_Send, %function
 424              	USBUARTH_Send:
 425              	.LFB66:
  39:USBUART_Helpers.h **** 
  40:USBUART_Helpers.h **** 
  41:USBUART_Helpers.h **** uint8 USBUARTH_Send(char* buffer, uint16 count) {
 426              		.loc 1 41 0
 427              		.cfi_startproc
ARM GAS  C:\Users\FRANKL~1\AppData\Local\Temp\ccLkvCvD.s 			page 26


 428              		@ args = 0, pretend = 0, frame = 0
 429              		@ frame_needed = 0, uses_anonymous_args = 0
 430              	.LVL31:
  42:USBUART_Helpers.h **** 	if (count > 0) {
 431              		.loc 1 42 0
 432 0000 49B9     		cbnz	r1, .L39
  43:USBUART_Helpers.h **** 		// Wait until component is ready to send data to host.
  44:USBUART_Helpers.h **** 		for (uint32 tries = 0; tries < 10; tries++) {
  45:USBUART_Helpers.h **** 			USBUARTH_Maintain_Configuration();
  46:USBUART_Helpers.h **** 			if (USBUART_CDCIsReady()) break;
  47:USBUART_Helpers.h **** 		}
  48:USBUART_Helpers.h ****         
  49:USBUART_Helpers.h **** 		if (!USBUART_CDCIsReady()) return 0;
  50:USBUART_Helpers.h **** 		
  51:USBUART_Helpers.h **** 		// Send data to host
  52:USBUART_Helpers.h **** 		USBUART_PutData((uint8*) buffer, count);
  53:USBUART_Helpers.h **** 		
  54:USBUART_Helpers.h **** 		/* If the last sent packet is exactly the maximum packet 
  55:USBUART_Helpers.h **** 		*  size, it is followed by a zero-length packet to assure
  56:USBUART_Helpers.h **** 		*  that the end of the segment is properly identified by 
  57:USBUART_Helpers.h **** 		*  the terminal.
  58:USBUART_Helpers.h **** 		*/
  59:USBUART_Helpers.h **** 		if (USBUART_BUFFER_SIZE == count) {
  60:USBUART_Helpers.h **** 			// Wait until component is ready to send data to PC.
  61:USBUART_Helpers.h **** 			while (!USBUART_CDCIsReady());
  62:USBUART_Helpers.h ****             
  63:USBUART_Helpers.h **** 			// Send zero-length packet to PC.
  64:USBUART_Helpers.h **** 			USBUART_PutData(NULL, 0);
  65:USBUART_Helpers.h **** 		}
  66:USBUART_Helpers.h **** 	}
  67:USBUART_Helpers.h **** 	
  68:USBUART_Helpers.h **** 	return 1;
 433              		.loc 1 68 0
 434 0002 0123     		movs	r3, #1
  69:USBUART_Helpers.h **** }
 435              		.loc 1 69 0
 436 0004 1846     		mov	r0, r3
 437              	.LVL32:
 438 0006 7047     		bx	lr
 439              	.LVL33:
 440              	.L37:
 441              		.cfi_def_cfa_offset 16
 442              		.cfi_offset 4, -16
 443              		.cfi_offset 5, -12
 444              		.cfi_offset 6, -8
 445              		.cfi_offset 14, -4
 446              	.LBB6:
  45:USBUART_Helpers.h **** 			if (USBUART_CDCIsReady()) break;
 447              		.loc 1 45 0
 448 0008 FFF7FEFF 		bl	USBUARTH_Maintain_Configuration
 449              	.LVL34:
  46:USBUART_Helpers.h **** 		}
 450              		.loc 1 46 0
 451 000c FFF7FEFF 		bl	USBUART_CDCIsReady
 452              	.LVL35:
 453 0010 38B9     		cbnz	r0, .L36
  44:USBUART_Helpers.h **** 			USBUARTH_Maintain_Configuration();
ARM GAS  C:\Users\FRANKL~1\AppData\Local\Temp\ccLkvCvD.s 			page 27


 454              		.loc 1 44 0 discriminator 2
 455 0012 0134     		adds	r4, r4, #1
 456              	.LVL36:
 457 0014 03E0     		b	.L34
 458              	.LVL37:
 459              	.L39:
 460              		.cfi_def_cfa_offset 0
 461              		.cfi_restore 4
 462              		.cfi_restore 5
 463              		.cfi_restore 6
 464              		.cfi_restore 14
 465              	.LBE6:
  41:USBUART_Helpers.h **** 	if (count > 0) {
 466              		.loc 1 41 0
 467 0016 70B5     		push	{r4, r5, r6, lr}
 468              		.cfi_def_cfa_offset 16
 469              		.cfi_offset 4, -16
 470              		.cfi_offset 5, -12
 471              		.cfi_offset 6, -8
 472              		.cfi_offset 14, -4
 473 0018 0D46     		mov	r5, r1
 474 001a 0646     		mov	r6, r0
 475 001c 0024     		movs	r4, #0
 476              	.LVL38:
 477              	.L34:
 478              	.LBB7:
  44:USBUART_Helpers.h **** 			USBUARTH_Maintain_Configuration();
 479              		.loc 1 44 0 discriminator 1
 480 001e 092C     		cmp	r4, #9
 481 0020 F2D9     		bls	.L37
 482              	.L36:
 483              	.LBE7:
  49:USBUART_Helpers.h **** 		
 484              		.loc 1 49 0
 485 0022 FFF7FEFF 		bl	USBUART_CDCIsReady
 486              	.LVL39:
 487 0026 0346     		mov	r3, r0
 488 0028 80B1     		cbz	r0, .L35
  52:USBUART_Helpers.h **** 		
 489              		.loc 1 52 0
 490 002a 2946     		mov	r1, r5
 491 002c 3046     		mov	r0, r6
 492 002e FFF7FEFF 		bl	USBUART_PutData
 493              	.LVL40:
  59:USBUART_Helpers.h **** 			// Wait until component is ready to send data to PC.
 494              		.loc 1 59 0
 495 0032 402D     		cmp	r5, #64
 496 0034 09D1     		bne	.L40
 497              	.L38:
  61:USBUART_Helpers.h ****             
 498              		.loc 1 61 0 discriminator 1
 499 0036 FFF7FEFF 		bl	USBUART_CDCIsReady
 500              	.LVL41:
 501 003a 0028     		cmp	r0, #0
 502 003c FBD0     		beq	.L38
  64:USBUART_Helpers.h **** 		}
 503              		.loc 1 64 0
ARM GAS  C:\Users\FRANKL~1\AppData\Local\Temp\ccLkvCvD.s 			page 28


 504 003e 0021     		movs	r1, #0
 505 0040 0846     		mov	r0, r1
 506 0042 FFF7FEFF 		bl	USBUART_PutData
 507              	.LVL42:
  68:USBUART_Helpers.h **** }
 508              		.loc 1 68 0
 509 0046 0123     		movs	r3, #1
 510 0048 00E0     		b	.L35
 511              	.L40:
 512 004a 0123     		movs	r3, #1
 513              	.L35:
 514              		.loc 1 69 0
 515 004c 1846     		mov	r0, r3
 516 004e 70BD     		pop	{r4, r5, r6, pc}
 517              		.cfi_endproc
 518              	.LFE66:
 519              		.size	USBUARTH_Send, .-USBUARTH_Send
 520              		.section	.text.USBUARTH_Receive,"ax",%progbits
 521              		.align	2
 522              		.global	USBUARTH_Receive
 523              		.thumb
 524              		.thumb_func
 525              		.type	USBUARTH_Receive, %function
 526              	USBUARTH_Receive:
 527              	.LFB67:
  70:USBUART_Helpers.h **** 
  71:USBUART_Helpers.h **** uint8 USBUARTH_Receive(char* buffer, uint16* count) {
 528              		.loc 1 71 0
 529              		.cfi_startproc
 530              		@ args = 0, pretend = 0, frame = 0
 531              		@ frame_needed = 0, uses_anonymous_args = 0
 532              	.LVL43:
 533 0000 38B5     		push	{r3, r4, r5, lr}
 534              		.cfi_def_cfa_offset 16
 535              		.cfi_offset 3, -16
 536              		.cfi_offset 4, -12
 537              		.cfi_offset 5, -8
 538              		.cfi_offset 14, -4
 539 0002 0446     		mov	r4, r0
 540 0004 0D46     		mov	r5, r1
  72:USBUART_Helpers.h **** 	// Wait for input data from host
  73:USBUART_Helpers.h **** 	while (!USBUART_DataIsReady()) USBUARTH_Maintain_Configuration();
 541              		.loc 1 73 0
 542 0006 01E0     		b	.L43
 543              	.LVL44:
 544              	.L44:
 545              		.loc 1 73 0 is_stmt 0 discriminator 2
 546 0008 FFF7FEFF 		bl	USBUARTH_Maintain_Configuration
 547              	.LVL45:
 548              	.L43:
 549              		.loc 1 73 0 discriminator 1
 550 000c FFF7FEFF 		bl	USBUART_DataIsReady
 551              	.LVL46:
 552 0010 0028     		cmp	r0, #0
 553 0012 F9D0     		beq	.L44
  74:USBUART_Helpers.h **** 	
  75:USBUART_Helpers.h **** 	// Read received data and re-enable OUT endpoint.
ARM GAS  C:\Users\FRANKL~1\AppData\Local\Temp\ccLkvCvD.s 			page 29


  76:USBUART_Helpers.h **** 	*count = USBUART_GetAll((uint8*) buffer);
 554              		.loc 1 76 0 is_stmt 1
 555 0014 2046     		mov	r0, r4
 556 0016 FFF7FEFF 		bl	USBUART_GetAll
 557              	.LVL47:
 558 001a 2880     		strh	r0, [r5]	@ movhi
  77:USBUART_Helpers.h **** 	
  78:USBUART_Helpers.h **** 	buffer[*count] = 0;
 559              		.loc 1 78 0
 560 001c 0023     		movs	r3, #0
 561 001e 2354     		strb	r3, [r4, r0]
  79:USBUART_Helpers.h **** 	
  80:USBUART_Helpers.h **** 	return 1u;
  81:USBUART_Helpers.h **** }
 562              		.loc 1 81 0
 563 0020 0120     		movs	r0, #1
 564 0022 38BD     		pop	{r3, r4, r5, pc}
 565              		.cfi_endproc
 566              	.LFE67:
 567              		.size	USBUARTH_Receive, .-USBUARTH_Receive
 568              		.section	.text.USBUARTH_GetChar,"ax",%progbits
 569              		.align	2
 570              		.global	USBUARTH_GetChar
 571              		.thumb
 572              		.thumb_func
 573              		.type	USBUARTH_GetChar, %function
 574              	USBUARTH_GetChar:
 575              	.LFB68:
  82:USBUART_Helpers.h **** 
  83:USBUART_Helpers.h **** char USBUARTH_GetChar() {
 576              		.loc 1 83 0
 577              		.cfi_startproc
 578              		@ args = 0, pretend = 0, frame = 0
 579              		@ frame_needed = 0, uses_anonymous_args = 0
 580 0000 08B5     		push	{r3, lr}
 581              		.cfi_def_cfa_offset 8
 582              		.cfi_offset 3, -8
 583              		.cfi_offset 14, -4
  84:USBUART_Helpers.h **** 	while (!USBUART_DataIsReady()) USBUARTH_Maintain_Configuration();
 584              		.loc 1 84 0
 585 0002 01E0     		b	.L47
 586              	.L48:
 587              		.loc 1 84 0 is_stmt 0 discriminator 2
 588 0004 FFF7FEFF 		bl	USBUARTH_Maintain_Configuration
 589              	.LVL48:
 590              	.L47:
 591              		.loc 1 84 0 discriminator 1
 592 0008 FFF7FEFF 		bl	USBUART_DataIsReady
 593              	.LVL49:
 594 000c 0028     		cmp	r0, #0
 595 000e F9D0     		beq	.L48
  85:USBUART_Helpers.h **** 	
  86:USBUART_Helpers.h **** 	return USBUART_GetChar();
 596              		.loc 1 86 0 is_stmt 1
 597 0010 FFF7FEFF 		bl	USBUART_GetChar
 598              	.LVL50:
  87:USBUART_Helpers.h **** }
ARM GAS  C:\Users\FRANKL~1\AppData\Local\Temp\ccLkvCvD.s 			page 30


 599              		.loc 1 87 0
 600 0014 08BD     		pop	{r3, pc}
 601              		.cfi_endproc
 602              	.LFE68:
 603              		.size	USBUARTH_GetChar, .-USBUARTH_GetChar
 604 0016 00BF     		.section	.text.USBUARTH_Receive_Until,"ax",%progbits
 605              		.align	2
 606              		.global	USBUARTH_Receive_Until
 607              		.thumb
 608              		.thumb_func
 609              		.type	USBUARTH_Receive_Until, %function
 610              	USBUARTH_Receive_Until:
 611              	.LFB69:
  88:USBUART_Helpers.h **** 
  89:USBUART_Helpers.h **** uint8 USBUARTH_Receive_Until(char* buffer, uint16 maxLength, const char* termination) {
 612              		.loc 1 89 0
 613              		.cfi_startproc
 614              		@ args = 0, pretend = 0, frame = 0
 615              		@ frame_needed = 0, uses_anonymous_args = 0
 616              	.LVL51:
 617 0000 2DE9F041 		push	{r4, r5, r6, r7, r8, lr}
 618              		.cfi_def_cfa_offset 24
 619              		.cfi_offset 4, -24
 620              		.cfi_offset 5, -20
 621              		.cfi_offset 6, -16
 622              		.cfi_offset 7, -12
 623              		.cfi_offset 8, -8
 624              		.cfi_offset 14, -4
 625 0004 0546     		mov	r5, r0
 626 0006 0E46     		mov	r6, r1
 627 0008 1746     		mov	r7, r2
 628              	.LVL52:
 629              	.LBB8:
  90:USBUART_Helpers.h **** 	for (uint16 i = 0; i < maxLength; i++) {
 630              		.loc 1 90 0
 631 000a 0023     		movs	r3, #0
 632 000c 03E0     		b	.L51
 633              	.LVL53:
 634              	.L52:
  91:USBUART_Helpers.h **** 		buffer[i] = 0;
 635              		.loc 1 91 0 discriminator 3
 636 000e 0022     		movs	r2, #0
 637 0010 EA54     		strb	r2, [r5, r3]
  90:USBUART_Helpers.h **** 	for (uint16 i = 0; i < maxLength; i++) {
 638              		.loc 1 90 0 discriminator 3
 639 0012 0133     		adds	r3, r3, #1
 640              	.LVL54:
 641 0014 9BB2     		uxth	r3, r3
 642              	.LVL55:
 643              	.L51:
  90:USBUART_Helpers.h **** 	for (uint16 i = 0; i < maxLength; i++) {
 644              		.loc 1 90 0 is_stmt 0 discriminator 1
 645 0016 B342     		cmp	r3, r6
 646 0018 F9D3     		bcc	.L52
 647 001a 0024     		movs	r4, #0
 648 001c 16E0     		b	.L53
 649              	.LVL56:
ARM GAS  C:\Users\FRANKL~1\AppData\Local\Temp\ccLkvCvD.s 			page 31


 650              	.L56:
 651              	.LBE8:
 652              	.LBB9:
  92:USBUART_Helpers.h **** 	}
  93:USBUART_Helpers.h **** 	
  94:USBUART_Helpers.h **** 	for (uint16 i = 0; i < maxLength - 1; i++) {
  95:USBUART_Helpers.h **** 		buffer[i] = USBUARTH_GetChar();
 653              		.loc 1 95 0 is_stmt 1
 654 001e FFF7FEFF 		bl	USBUARTH_GetChar
 655              	.LVL57:
 656 0022 2855     		strb	r0, [r5, r4]
  96:USBUART_Helpers.h **** 		buffer[i+1] = 0;
 657              		.loc 1 96 0
 658 0024 631C     		adds	r3, r4, #1
 659 0026 0022     		movs	r2, #0
 660 0028 EA54     		strb	r2, [r5, r3]
  97:USBUART_Helpers.h **** 		
  98:USBUART_Helpers.h **** 		if (strstr(buffer, termination)) {
 661              		.loc 1 98 0
 662 002a 3946     		mov	r1, r7
 663 002c 2846     		mov	r0, r5
 664 002e FFF7FEFF 		bl	strstr
 665              	.LVL58:
 666 0032 48B1     		cbz	r0, .L54
  99:USBUART_Helpers.h **** 			buffer[i + 1 - strlen(termination)] = 0;
 667              		.loc 1 99 0
 668 0034 3846     		mov	r0, r7
 669 0036 FFF7FEFF 		bl	strlen
 670              	.LVL59:
 671 003a 201A     		subs	r0, r4, r0
 672 003c 0130     		adds	r0, r0, #1
 673 003e 0023     		movs	r3, #0
 674 0040 2B54     		strb	r3, [r5, r0]
 100:USBUART_Helpers.h **** 			return 1;
 675              		.loc 1 100 0
 676 0042 0120     		movs	r0, #1
 677 0044 BDE8F081 		pop	{r4, r5, r6, r7, r8, pc}
 678              	.LVL60:
 679              	.L54:
  94:USBUART_Helpers.h **** 		buffer[i] = USBUARTH_GetChar();
 680              		.loc 1 94 0 discriminator 2
 681 0048 0134     		adds	r4, r4, #1
 682              	.LVL61:
 683 004a A4B2     		uxth	r4, r4
 684              	.LVL62:
 685              	.L53:
  94:USBUART_Helpers.h **** 		buffer[i] = USBUARTH_GetChar();
 686              		.loc 1 94 0 is_stmt 0 discriminator 1
 687 004c 731E     		subs	r3, r6, #1
 688 004e 9C42     		cmp	r4, r3
 689 0050 E5DB     		blt	.L56
 690              	.LBE9:
 101:USBUART_Helpers.h **** 		}
 102:USBUART_Helpers.h **** 	}
 103:USBUART_Helpers.h **** 	
 104:USBUART_Helpers.h **** 	return 0;
 691              		.loc 1 104 0 is_stmt 1
ARM GAS  C:\Users\FRANKL~1\AppData\Local\Temp\ccLkvCvD.s 			page 32


 692 0052 0020     		movs	r0, #0
 105:USBUART_Helpers.h **** }
 693              		.loc 1 105 0
 694 0054 BDE8F081 		pop	{r4, r5, r6, r7, r8, pc}
 695              		.cfi_endproc
 696              	.LFE69:
 697              		.size	USBUARTH_Receive_Until, .-USBUARTH_Receive_Until
 698              		.section	.text.Setup_Selector_I2C_Struct,"ax",%progbits
 699              		.align	2
 700              		.global	Setup_Selector_I2C_Struct
 701              		.thumb
 702              		.thumb_func
 703              		.type	Setup_Selector_I2C_Struct, %function
 704              	Setup_Selector_I2C_Struct:
 705              	.LFB70:
  56:main.c        **** 	selector->write.subAddress = 1;
 706              		.loc 2 56 0
 707              		.cfi_startproc
 708              		@ args = 0, pretend = 0, frame = 0
 709              		@ frame_needed = 0, uses_anonymous_args = 0
 710              		@ link register save eliminated.
 711              	.LVL63:
  57:main.c        **** 	selector->read.subAddress = sizeof(selector->write) + 1;
 712              		.loc 2 57 0
 713 0000 0123     		movs	r3, #1
 714 0002 0370     		strb	r3, [r0]
  58:main.c        **** 	
 715              		.loc 2 58 0
 716 0004 8023     		movs	r3, #128
 717 0006 80F87F30 		strb	r3, [r0, #127]
 718              	.LVL64:
 719              	.LBB10:
  60:main.c        **** 		selector->write.data[i] = i + 6;
 720              		.loc 2 60 0
 721 000a 0023     		movs	r3, #0
 722 000c 04E0     		b	.L59
 723              	.LVL65:
 724              	.L60:
  61:main.c        **** 	}
 725              		.loc 2 61 0 discriminator 3
 726 000e C218     		adds	r2, r0, r3
 727 0010 991D     		adds	r1, r3, #6
 728 0012 5170     		strb	r1, [r2, #1]
  60:main.c        **** 		selector->write.data[i] = i + 6;
 729              		.loc 2 60 0 discriminator 3
 730 0014 0133     		adds	r3, r3, #1
 731              	.LVL66:
 732 0016 9BB2     		uxth	r3, r3
 733              	.LVL67:
 734              	.L59:
  60:main.c        **** 		selector->write.data[i] = i + 6;
 735              		.loc 2 60 0 is_stmt 0 discriminator 1
 736 0018 7D2B     		cmp	r3, #125
 737 001a F8D9     		bls	.L60
 738 001c 0023     		movs	r3, #0
 739              	.LVL68:
 740 001e 05E0     		b	.L61
ARM GAS  C:\Users\FRANKL~1\AppData\Local\Temp\ccLkvCvD.s 			page 33


 741              	.LVL69:
 742              	.L62:
 743              	.LBE10:
 744              	.LBB11:
  64:main.c        **** 	}
 745              		.loc 2 64 0 is_stmt 1 discriminator 3
 746 0020 C218     		adds	r2, r0, r3
 747 0022 BE21     		movs	r1, #190
 748 0024 82F88010 		strb	r1, [r2, #128]
  63:main.c        **** 		selector->read.data[i] = 0xbe;
 749              		.loc 2 63 0 discriminator 3
 750 0028 0133     		adds	r3, r3, #1
 751              	.LVL70:
 752 002a 9BB2     		uxth	r3, r3
 753              	.LVL71:
 754              	.L61:
  63:main.c        **** 		selector->read.data[i] = 0xbe;
 755              		.loc 2 63 0 is_stmt 0 discriminator 1
 756 002c 7D2B     		cmp	r3, #125
 757 002e F7D9     		bls	.L62
 758              	.LBE11:
  66:main.c        **** 
 759              		.loc 2 66 0 is_stmt 1
 760 0030 7047     		bx	lr
 761              		.cfi_endproc
 762              	.LFE70:
 763              		.size	Setup_Selector_I2C_Struct, .-Setup_Selector_I2C_Struct
 764              		.global	__aeabi_dcmpge
 765              		.global	__aeabi_ui2d
 766              		.global	__aeabi_dcmplt
 767 0032 00BF     		.section	.text.Update_Selector,"ax",%progbits
 768              		.align	2
 769              		.global	Update_Selector
 770              		.thumb
 771              		.thumb_func
 772              		.type	Update_Selector, %function
 773              	Update_Selector:
 774              	.LFB71:
  68:main.c        **** 	sprintf(TransmitBuffer, "Updating Selector %u\r\n", selectori + 1);
 775              		.loc 2 68 0
 776              		.cfi_startproc
 777              		@ args = 0, pretend = 0, frame = 0
 778              		@ frame_needed = 0, uses_anonymous_args = 0
 779              	.LVL72:
 780 0000 2DE9F041 		push	{r4, r5, r6, r7, r8, lr}
 781              		.cfi_def_cfa_offset 24
 782              		.cfi_offset 4, -24
 783              		.cfi_offset 5, -20
 784              		.cfi_offset 6, -16
 785              		.cfi_offset 7, -12
 786              		.cfi_offset 8, -8
 787              		.cfi_offset 14, -4
 788 0004 0446     		mov	r4, r0
  69:main.c        **** 	USBUARTH_Send(TransmitBuffer, strlen(TransmitBuffer));
 789              		.loc 2 69 0
 790 0006 00F10108 		add	r8, r0, #1
 791 000a 594D     		ldr	r5, .L74+16
ARM GAS  C:\Users\FRANKL~1\AppData\Local\Temp\ccLkvCvD.s 			page 34


 792 000c 4246     		mov	r2, r8
 793 000e 5949     		ldr	r1, .L74+20
 794 0010 2846     		mov	r0, r5
 795              	.LVL73:
 796 0012 FFF7FEFF 		bl	sprintf
 797              	.LVL74:
  70:main.c        **** 	UART_1_PutString(TransmitBuffer);
 798              		.loc 2 70 0
 799 0016 2846     		mov	r0, r5
 800 0018 FFF7FEFF 		bl	strlen
 801              	.LVL75:
 802 001c 81B2     		uxth	r1, r0
 803 001e 2846     		mov	r0, r5
 804 0020 FFF7FEFF 		bl	USBUARTH_Send
 805              	.LVL76:
  71:main.c        **** 	
 806              		.loc 2 71 0
 807 0024 2846     		mov	r0, r5
 808 0026 FFF7FEFF 		bl	UART_1_PutString
 809              	.LVL77:
  75:main.c        **** 	I2C_1_MasterWriteBuf(selector->busAddress, (uint8 *) &selector->write, sizeof(selector->write), I2
 810              		.loc 2 75 0
 811 002a FFF7FEFF 		bl	I2C_1_MasterClearStatus
 812              	.LVL78:
  76:main.c        **** 	for (uint32 i = 0; i < 4e5; i++) {
 813              		.loc 2 76 0
 814 002e C4EB0424 		rsb	r4, r4, r4, lsl #8
 815              	.LVL79:
 816 0032 514B     		ldr	r3, .L74+24
 817 0034 1C44     		add	r4, r4, r3
 818 0036 0023     		movs	r3, #0
 819 0038 7F22     		movs	r2, #127
 820 003a 2146     		mov	r1, r4
 821 003c 94F8FE00 		ldrb	r0, [r4, #254]	@ zero_extendqisi2
 822 0040 FFF7FEFF 		bl	I2C_1_MasterWriteBuf
 823              	.LVL80:
 824              	.LBB12:
  77:main.c        **** 		if ((I2C_1_MasterStatus() & I2C_1_MSTAT_WR_CMPLT)) break;
 825              		.loc 2 77 0
 826 0044 0024     		movs	r4, #0
 827 0046 2CE0     		b	.L64
 828              	.LVL81:
 829              	.L69:
  78:main.c        **** 		if (i >= 4e5 - 1) {
 830              		.loc 2 78 0
 831 0048 FFF7FEFF 		bl	I2C_1_MasterStatus
 832              	.LVL82:
 833 004c 10F0020F 		tst	r0, #2
 834 0050 33D1     		bne	.L65
  79:main.c        **** 			sprintf(TransmitBuffer, "I2C Transfer Error! Type: Timeout\r\n");
 835              		.loc 2 79 0
 836 0052 43A3     		adr	r3, .L74
 837 0054 D3E90023 		ldrd	r2, [r3]
 838 0058 3046     		mov	r0, r6
 839 005a 3946     		mov	r1, r7
 840 005c FFF7FEFF 		bl	__aeabi_dcmpge
 841              	.LVL83:
ARM GAS  C:\Users\FRANKL~1\AppData\Local\Temp\ccLkvCvD.s 			page 35


 842 0060 F0B1     		cbz	r0, .L66
  80:main.c        **** 			USBUARTH_Send(TransmitBuffer, strlen(TransmitBuffer));
 843              		.loc 2 80 0
 844 0062 464F     		ldr	r7, .L74+28
 845 0064 424D     		ldr	r5, .L74+16
 846 0066 07F1200E 		add	lr, r7, #32
 847              	.L68:
 848 006a 3E46     		mov	r6, r7
 849 006c 0FCE     		ldmia	r6!, {r0, r1, r2, r3}
 850 006e 2860     		str	r0, [r5]	@ unaligned
 851 0070 6960     		str	r1, [r5, #4]	@ unaligned
 852 0072 AA60     		str	r2, [r5, #8]	@ unaligned
 853 0074 EB60     		str	r3, [r5, #12]	@ unaligned
 854 0076 3746     		mov	r7, r6
 855 0078 1035     		adds	r5, r5, #16
 856 007a 7645     		cmp	r6, lr
 857 007c F5D1     		bne	.L68
 858 007e 3068     		ldr	r0, [r6]	@ unaligned
 859 0080 2860     		str	r0, [r5]	@ unaligned
  81:main.c        **** 			UART_1_PutString(TransmitBuffer);
 860              		.loc 2 81 0
 861 0082 3B4D     		ldr	r5, .L74+16
 862 0084 2846     		mov	r0, r5
 863 0086 FFF7FEFF 		bl	strlen
 864              	.LVL84:
 865 008a 81B2     		uxth	r1, r0
 866 008c 2846     		mov	r0, r5
 867 008e FFF7FEFF 		bl	USBUARTH_Send
 868              	.LVL85:
  82:main.c        **** 			I2C_1_Stop();
 869              		.loc 2 82 0
 870 0092 2846     		mov	r0, r5
 871 0094 FFF7FEFF 		bl	UART_1_PutString
 872              	.LVL86:
  83:main.c        **** 			I2C_1_Start();
 873              		.loc 2 83 0
 874 0098 FFF7FEFF 		bl	I2C_1_Stop
 875              	.LVL87:
  84:main.c        **** 		}
 876              		.loc 2 84 0
 877 009c FFF7FEFF 		bl	I2C_1_Start
 878              	.LVL88:
 879              	.L66:
  77:main.c        **** 		if ((I2C_1_MasterStatus() & I2C_1_MSTAT_WR_CMPLT)) break;
 880              		.loc 2 77 0 discriminator 2
 881 00a0 0134     		adds	r4, r4, #1
 882              	.LVL89:
 883              	.L64:
  77:main.c        **** 		if ((I2C_1_MasterStatus() & I2C_1_MSTAT_WR_CMPLT)) break;
 884              		.loc 2 77 0 is_stmt 0 discriminator 1
 885 00a2 2046     		mov	r0, r4
 886 00a4 FFF7FEFF 		bl	__aeabi_ui2d
 887              	.LVL90:
 888 00a8 0646     		mov	r6, r0
 889 00aa 0F46     		mov	r7, r1
 890 00ac 2EA3     		adr	r3, .L74+8
 891 00ae D3E90023 		ldrd	r2, [r3]
ARM GAS  C:\Users\FRANKL~1\AppData\Local\Temp\ccLkvCvD.s 			page 36


 892 00b2 FFF7FEFF 		bl	__aeabi_dcmplt
 893              	.LVL91:
 894 00b6 0028     		cmp	r0, #0
 895 00b8 C6D1     		bne	.L69
 896              	.L65:
 897              	.LBE12:
  99:main.c        **** 		sprintf(TransmitBuffer, "I2C Transfer Error! ");
 898              		.loc 2 99 0 is_stmt 1
 899 00ba FFF7FEFF 		bl	I2C_1_MasterStatus
 900              	.LVL92:
 901 00be 10F0800F 		tst	r0, #128
 902 00c2 39D0     		beq	.L70
 100:main.c        **** 		USBUARTH_Send(TransmitBuffer, strlen(TransmitBuffer));
 903              		.loc 2 100 0
 904 00c4 2A4C     		ldr	r4, .L74+16
 905              	.LVL93:
 906 00c6 2E4D     		ldr	r5, .L74+32
 907 00c8 0FCD     		ldmia	r5!, {r0, r1, r2, r3}
 908 00ca 2060     		str	r0, [r4]	@ unaligned
 909 00cc 6160     		str	r1, [r4, #4]	@ unaligned
 910 00ce A260     		str	r2, [r4, #8]	@ unaligned
 911 00d0 E360     		str	r3, [r4, #12]	@ unaligned
 912 00d2 2868     		ldr	r0, [r5]	@ unaligned
 913 00d4 2061     		str	r0, [r4, #16]	@ unaligned
 914 00d6 2B79     		ldrb	r3, [r5, #4]	@ zero_extendqisi2
 915 00d8 2375     		strb	r3, [r4, #20]
 101:main.c        **** 		UART_1_PutString(TransmitBuffer);
 916              		.loc 2 101 0
 917 00da 2046     		mov	r0, r4
 918 00dc FFF7FEFF 		bl	strlen
 919              	.LVL94:
 920 00e0 81B2     		uxth	r1, r0
 921 00e2 2046     		mov	r0, r4
 922 00e4 FFF7FEFF 		bl	USBUARTH_Send
 923              	.LVL95:
 102:main.c        **** 		
 924              		.loc 2 102 0
 925 00e8 2046     		mov	r0, r4
 926 00ea FFF7FEFF 		bl	UART_1_PutString
 927              	.LVL96:
 104:main.c        **** 			sprintf(TransmitBuffer, "Type: NAK");
 928              		.loc 2 104 0
 929 00ee FFF7FEFF 		bl	I2C_1_MasterStatus
 930              	.LVL97:
 931 00f2 10F0200F 		tst	r0, #32
 932 00f6 0FD0     		beq	.L71
 105:main.c        **** 			USBUARTH_Send(TransmitBuffer, strlen(TransmitBuffer));
 933              		.loc 2 105 0
 934 00f8 224B     		ldr	r3, .L74+36
 935 00fa 03CB     		ldmia	r3!, {r0, r1}
 936 00fc 2060     		str	r0, [r4]	@ unaligned
 937 00fe 6160     		str	r1, [r4, #4]	@ unaligned
 938 0100 1B88     		ldrh	r3, [r3]	@ unaligned
 939 0102 2381     		strh	r3, [r4, #8]	@ unaligned
 106:main.c        **** 			UART_1_PutString(TransmitBuffer);
 940              		.loc 2 106 0
 941 0104 2046     		mov	r0, r4
ARM GAS  C:\Users\FRANKL~1\AppData\Local\Temp\ccLkvCvD.s 			page 37


 942 0106 FFF7FEFF 		bl	strlen
 943              	.LVL98:
 944 010a 81B2     		uxth	r1, r0
 945 010c 2046     		mov	r0, r4
 946 010e FFF7FEFF 		bl	USBUARTH_Send
 947              	.LVL99:
 107:main.c        **** 		}
 948              		.loc 2 107 0
 949 0112 2046     		mov	r0, r4
 950 0114 FFF7FEFF 		bl	UART_1_PutString
 951              	.LVL100:
 952              	.L71:
 110:main.c        **** 		USBUARTH_Send(TransmitBuffer, strlen(TransmitBuffer));
 953              		.loc 2 110 0
 954 0118 154C     		ldr	r4, .L74+16
 955 011a 1B4B     		ldr	r3, .L74+40
 956 011c 1A88     		ldrh	r2, [r3]	@ unaligned
 957 011e 9B78     		ldrb	r3, [r3, #2]	@ zero_extendqisi2
 958 0120 2280     		strh	r2, [r4]	@ unaligned
 959 0122 A370     		strb	r3, [r4, #2]
 111:main.c        **** 		UART_1_PutString(TransmitBuffer);
 960              		.loc 2 111 0
 961 0124 2046     		mov	r0, r4
 962 0126 FFF7FEFF 		bl	strlen
 963              	.LVL101:
 964 012a 81B2     		uxth	r1, r0
 965 012c 2046     		mov	r0, r4
 966 012e FFF7FEFF 		bl	USBUARTH_Send
 967              	.LVL102:
 112:main.c        **** 	}
 968              		.loc 2 112 0
 969 0132 2046     		mov	r0, r4
 970 0134 FFF7FEFF 		bl	UART_1_PutString
 971              	.LVL103:
 972              	.L70:
 115:main.c        **** 	USBUARTH_Send(TransmitBuffer, strlen(TransmitBuffer));
 973              		.loc 2 115 0
 974 0138 0D4C     		ldr	r4, .L74+16
 975 013a 4246     		mov	r2, r8
 976 013c 1349     		ldr	r1, .L74+44
 977 013e 2046     		mov	r0, r4
 978 0140 FFF7FEFF 		bl	sprintf
 979              	.LVL104:
 116:main.c        **** 	UART_1_PutString(TransmitBuffer);
 980              		.loc 2 116 0
 981 0144 2046     		mov	r0, r4
 982 0146 FFF7FEFF 		bl	strlen
 983              	.LVL105:
 984 014a 81B2     		uxth	r1, r0
 985 014c 2046     		mov	r0, r4
 986 014e FFF7FEFF 		bl	USBUARTH_Send
 987              	.LVL106:
 117:main.c        **** }
 988              		.loc 2 117 0
 989 0152 2046     		mov	r0, r4
 990 0154 FFF7FEFF 		bl	UART_1_PutString
 991              	.LVL107:
ARM GAS  C:\Users\FRANKL~1\AppData\Local\Temp\ccLkvCvD.s 			page 38


 992 0158 BDE8F081 		pop	{r4, r5, r6, r7, r8, pc}
 993              	.LVL108:
 994              	.L75:
 995 015c AFF30080 		.align	3
 996              	.L74:
 997 0160 00000000 		.word	0
 998 0164 FC691841 		.word	1092119036
 999 0168 00000000 		.word	0
 1000 016c 006A1841 		.word	1092119040
 1001 0170 00000000 		.word	TransmitBuffer
 1002 0174 2C000000 		.word	.LC5
 1003 0178 00000000 		.word	selectors
 1004 017c 44000000 		.word	.LC6
 1005 0180 68000000 		.word	.LC7
 1006 0184 80000000 		.word	.LC8
 1007 0188 8C000000 		.word	.LC9
 1008 018c 90000000 		.word	.LC10
 1009              		.cfi_endproc
 1010              	.LFE71:
 1011              		.size	Update_Selector, .-Update_Selector
 1012              		.section	.text.Setup_Selectors,"ax",%progbits
 1013              		.align	2
 1014              		.global	Setup_Selectors
 1015              		.thumb
 1016              		.thumb_func
 1017              		.type	Setup_Selectors, %function
 1018              	Setup_Selectors:
 1019              	.LFB72:
 120:main.c        **** 	for (uint8 i = 0; i < SELECTOR_COUNT; i++) Setup_Selector_I2C_Struct(&selectors[i]);
 1020              		.loc 2 120 0
 1021              		.cfi_startproc
 1022              		@ args = 0, pretend = 0, frame = 0
 1023              		@ frame_needed = 0, uses_anonymous_args = 0
 1024 0000 10B5     		push	{r4, lr}
 1025              		.cfi_def_cfa_offset 8
 1026              		.cfi_offset 4, -8
 1027              		.cfi_offset 14, -4
 1028              	.LVL109:
 1029              	.LBB13:
 121:main.c        **** 	
 1030              		.loc 2 121 0
 1031 0002 0024     		movs	r4, #0
 1032 0004 07E0     		b	.L77
 1033              	.LVL110:
 1034              	.L78:
 121:main.c        **** 	
 1035              		.loc 2 121 0 is_stmt 0 discriminator 3
 1036 0006 C4EB0423 		rsb	r3, r4, r4, lsl #8
 1037 000a 0B48     		ldr	r0, .L80
 1038 000c 1844     		add	r0, r0, r3
 1039 000e FFF7FEFF 		bl	Setup_Selector_I2C_Struct
 1040              	.LVL111:
 1041 0012 0134     		adds	r4, r4, #1
 1042              	.LVL112:
 1043 0014 E4B2     		uxtb	r4, r4
 1044              	.LVL113:
 1045              	.L77:
ARM GAS  C:\Users\FRANKL~1\AppData\Local\Temp\ccLkvCvD.s 			page 39


 121:main.c        **** 	
 1046              		.loc 2 121 0 discriminator 1
 1047 0016 032C     		cmp	r4, #3
 1048 0018 F5D9     		bls	.L78
 1049              	.LBE13:
 123:main.c        **** 	selectors[1].busAddress = 0x11;
 1050              		.loc 2 123 0 is_stmt 1
 1051 001a 074B     		ldr	r3, .L80
 1052 001c 6622     		movs	r2, #102
 1053 001e 83F8FE20 		strb	r2, [r3, #254]
 124:main.c        **** 	selectors[2].busAddress = 0x44;
 1054              		.loc 2 124 0
 1055 0022 1122     		movs	r2, #17
 1056 0024 83F8FD21 		strb	r2, [r3, #509]
 125:main.c        **** 	selectors[3].busAddress = 0x22;
 1057              		.loc 2 125 0
 1058 0028 4422     		movs	r2, #68
 1059 002a 83F8FC22 		strb	r2, [r3, #764]
 126:main.c        **** }
 1060              		.loc 2 126 0
 1061 002e 2222     		movs	r2, #34
 1062 0030 83F8FB23 		strb	r2, [r3, #1019]
 1063 0034 10BD     		pop	{r4, pc}
 1064              	.LVL114:
 1065              	.L81:
 1066 0036 00BF     		.align	2
 1067              	.L80:
 1068 0038 00000000 		.word	selectors
 1069              		.cfi_endproc
 1070              	.LFE72:
 1071              		.size	Setup_Selectors, .-Setup_Selectors
 1072              		.section	.text.Connect_Channel_On_Intermediate,"ax",%progbits
 1073              		.align	2
 1074              		.global	Connect_Channel_On_Intermediate
 1075              		.thumb
 1076              		.thumb_func
 1077              		.type	Connect_Channel_On_Intermediate, %function
 1078              	Connect_Channel_On_Intermediate:
 1079              	.LFB73:
 129:main.c        **** 	channel--;
 1080              		.loc 2 129 0
 1081              		.cfi_startproc
 1082              		@ args = 0, pretend = 0, frame = 0
 1083              		@ frame_needed = 0, uses_anonymous_args = 0
 1084              	.LVL115:
 1085 0000 08B5     		push	{r3, lr}
 1086              		.cfi_def_cfa_offset 8
 1087              		.cfi_offset 3, -8
 1088              		.cfi_offset 14, -4
 130:main.c        **** 	intermediate--;
 1089              		.loc 2 130 0
 1090 0002 0138     		subs	r0, r0, #1
 1091              	.LVL116:
 1092 0004 C3B2     		uxtb	r3, r0
 1093              	.LVL117:
 133:main.c        **** 	if (intermediate >= INTERMEDIATE_COUNT) return;
 1094              		.loc 2 133 0
ARM GAS  C:\Users\FRANKL~1\AppData\Local\Temp\ccLkvCvD.s 			page 40


 1095 0006 212B     		cmp	r3, #33
 1096 0008 0CD8     		bhi	.L82
 1097 000a 0139     		subs	r1, r1, #1
 1098              	.LVL118:
 1099 000c C8B2     		uxtb	r0, r1
 134:main.c        **** 	
 1100              		.loc 2 134 0
 1101 000e 0328     		cmp	r0, #3
 1102 0010 08D8     		bhi	.L82
 136:main.c        **** 	Update_Selector(intermediate);
 1103              		.loc 2 136 0
 1104 0012 C0EB0022 		rsb	r2, r0, r0, lsl #8
 1105 0016 0449     		ldr	r1, .L85
 1106 0018 0A44     		add	r2, r2, r1
 1107 001a 1344     		add	r3, r3, r2
 1108              	.LVL119:
 1109 001c C022     		movs	r2, #192
 1110 001e 5A70     		strb	r2, [r3, #1]
 137:main.c        **** }
 1111              		.loc 2 137 0
 1112 0020 FFF7FEFF 		bl	Update_Selector
 1113              	.LVL120:
 1114              	.L82:
 1115 0024 08BD     		pop	{r3, pc}
 1116              	.L86:
 1117 0026 00BF     		.align	2
 1118              	.L85:
 1119 0028 00000000 		.word	selectors
 1120              		.cfi_endproc
 1121              	.LFE73:
 1122              		.size	Connect_Channel_On_Intermediate, .-Connect_Channel_On_Intermediate
 1123              		.section	.text.Connect_Contact_To_Intermediate,"ax",%progbits
 1124              		.align	2
 1125              		.global	Connect_Contact_To_Intermediate
 1126              		.thumb
 1127              		.thumb_func
 1128              		.type	Connect_Contact_To_Intermediate, %function
 1129              	Connect_Contact_To_Intermediate:
 1130              	.LFB74:
 140:main.c        **** 	contact--;
 1131              		.loc 2 140 0
 1132              		.cfi_startproc
 1133              		@ args = 0, pretend = 0, frame = 0
 1134              		@ frame_needed = 0, uses_anonymous_args = 0
 1135              	.LVL121:
 141:main.c        **** 	intermediate--;
 1136              		.loc 2 141 0
 1137 0000 0138     		subs	r0, r0, #1
 1138              	.LVL122:
 1139 0002 C0B2     		uxtb	r0, r0
 1140              	.LVL123:
 144:main.c        **** 	if (intermediate >= INTERMEDIATE_COUNT) return;
 1141              		.loc 2 144 0
 1142 0004 3F28     		cmp	r0, #63
 1143 0006 13D8     		bhi	.L92
 140:main.c        **** 	contact--;
 1144              		.loc 2 140 0
ARM GAS  C:\Users\FRANKL~1\AppData\Local\Temp\ccLkvCvD.s 			page 41


 1145 0008 08B5     		push	{r3, lr}
 1146              		.cfi_def_cfa_offset 8
 1147              		.cfi_offset 3, -8
 1148              		.cfi_offset 14, -4
 1149 000a 4B1E     		subs	r3, r1, #1
 1150 000c DBB2     		uxtb	r3, r3
 145:main.c        **** 	
 1151              		.loc 2 145 0
 1152 000e 032B     		cmp	r3, #3
 1153 0010 0DD8     		bhi	.L87
 1154              	.LVL124:
 148:main.c        **** 		offset = CONTACT_COUNT/2;
 1155              		.loc 2 148 0
 1156 0012 012B     		cmp	r3, #1
 1157 0014 03D9     		bls	.L89
 1158              	.LVL125:
 150:main.c        **** 	} else {
 1159              		.loc 2 150 0
 1160 0016 1F28     		cmp	r0, #31
 1161 0018 09D9     		bls	.L87
 149:main.c        **** 		if (contact < CONTACT_COUNT/2) return;
 1162              		.loc 2 149 0
 1163 001a 2023     		movs	r3, #32
 1164 001c 02E0     		b	.L90
 1165              	.LVL126:
 1166              	.L89:
 152:main.c        **** 	}
 1167              		.loc 2 152 0
 1168 001e 1F28     		cmp	r0, #31
 1169 0020 05D8     		bhi	.L87
 147:main.c        **** 	if (intermediate >= INTERMEDIATE_COUNT/2) {
 1170              		.loc 2 147 0
 1171 0022 0023     		movs	r3, #0
 1172              	.LVL127:
 1173              	.L90:
 155:main.c        **** }
 1174              		.loc 2 155 0
 1175 0024 C01A     		subs	r0, r0, r3
 1176              	.LVL128:
 1177 0026 0130     		adds	r0, r0, #1
 1178 0028 C0B2     		uxtb	r0, r0
 1179 002a FFF7FEFF 		bl	Connect_Channel_On_Intermediate
 1180              	.LVL129:
 1181              	.L87:
 1182 002e 08BD     		pop	{r3, pc}
 1183              	.LVL130:
 1184              	.L92:
 1185              		.cfi_def_cfa_offset 0
 1186              		.cfi_restore 3
 1187              		.cfi_restore 14
 1188 0030 7047     		bx	lr
 1189              		.cfi_endproc
 1190              	.LFE74:
 1191              		.size	Connect_Contact_To_Intermediate, .-Connect_Contact_To_Intermediate
 1192 0032 00BF     		.section	.text.Disconnect_Contact_From_Intermediate,"ax",%progbits
 1193              		.align	2
 1194              		.global	Disconnect_Contact_From_Intermediate
ARM GAS  C:\Users\FRANKL~1\AppData\Local\Temp\ccLkvCvD.s 			page 42


 1195              		.thumb
 1196              		.thumb_func
 1197              		.type	Disconnect_Contact_From_Intermediate, %function
 1198              	Disconnect_Contact_From_Intermediate:
 1199              	.LFB75:
 158:main.c        **** 	contact--;
 1200              		.loc 2 158 0
 1201              		.cfi_startproc
 1202              		@ args = 0, pretend = 0, frame = 0
 1203              		@ frame_needed = 0, uses_anonymous_args = 0
 1204              	.LVL131:
 1205 0000 08B5     		push	{r3, lr}
 1206              		.cfi_def_cfa_offset 8
 1207              		.cfi_offset 3, -8
 1208              		.cfi_offset 14, -4
 159:main.c        **** 	intermediate--;
 1209              		.loc 2 159 0
 1210 0002 0138     		subs	r0, r0, #1
 1211              	.LVL132:
 1212 0004 C3B2     		uxtb	r3, r0
 1213              	.LVL133:
 162:main.c        **** 	if (intermediate >= INTERMEDIATE_COUNT) return;
 1214              		.loc 2 162 0
 1215 0006 3F2B     		cmp	r3, #63
 1216 0008 16D8     		bhi	.L93
 1217 000a 0139     		subs	r1, r1, #1
 1218              	.LVL134:
 1219 000c C8B2     		uxtb	r0, r1
 163:main.c        **** 	
 1220              		.loc 2 163 0
 1221 000e 0328     		cmp	r0, #3
 1222 0010 12D8     		bhi	.L93
 1223              	.LVL135:
 166:main.c        **** 		offset = CONTACT_COUNT/2;
 1224              		.loc 2 166 0
 1225 0012 0128     		cmp	r0, #1
 1226 0014 03D9     		bls	.L95
 1227              	.LVL136:
 168:main.c        **** 	} else {
 1228              		.loc 2 168 0
 1229 0016 1F2B     		cmp	r3, #31
 1230 0018 0ED9     		bls	.L93
 167:main.c        **** 		if (contact < CONTACT_COUNT/2) return;
 1231              		.loc 2 167 0
 1232 001a 2022     		movs	r2, #32
 1233 001c 02E0     		b	.L96
 1234              	.LVL137:
 1235              	.L95:
 170:main.c        **** 	}
 1236              		.loc 2 170 0
 1237 001e 1F2B     		cmp	r3, #31
 1238 0020 0AD8     		bhi	.L93
 165:main.c        **** 	if (intermediate >= INTERMEDIATE_COUNT/2) {
 1239              		.loc 2 165 0
 1240 0022 0022     		movs	r2, #0
 1241              	.LVL138:
 1242              	.L96:
ARM GAS  C:\Users\FRANKL~1\AppData\Local\Temp\ccLkvCvD.s 			page 43


 173:main.c        **** 	
 1243              		.loc 2 173 0
 1244 0024 9B1A     		subs	r3, r3, r2
 1245              	.LVL139:
 1246 0026 C0EB0022 		rsb	r2, r0, r0, lsl #8
 1247              	.LVL140:
 1248 002a 0449     		ldr	r1, .L98
 1249 002c 0A44     		add	r2, r2, r1
 1250 002e 1344     		add	r3, r3, r2
 1251 0030 D122     		movs	r2, #209
 1252 0032 5A70     		strb	r2, [r3, #1]
 175:main.c        **** }
 1253              		.loc 2 175 0
 1254 0034 FFF7FEFF 		bl	Update_Selector
 1255              	.LVL141:
 1256              	.L93:
 1257 0038 08BD     		pop	{r3, pc}
 1258              	.L99:
 1259 003a 00BF     		.align	2
 1260              	.L98:
 1261 003c 00000000 		.word	selectors
 1262              		.cfi_endproc
 1263              	.LFE75:
 1264              		.size	Disconnect_Contact_From_Intermediate, .-Disconnect_Contact_From_Intermediate
 1265              		.section	.text.Disconnect_Contact_From_All_Intermediates,"ax",%progbits
 1266              		.align	2
 1267              		.global	Disconnect_Contact_From_All_Intermediates
 1268              		.thumb
 1269              		.thumb_func
 1270              		.type	Disconnect_Contact_From_All_Intermediates, %function
 1271              	Disconnect_Contact_From_All_Intermediates:
 1272              	.LFB76:
 178:main.c        **** 	contact--;
 1273              		.loc 2 178 0
 1274              		.cfi_startproc
 1275              		@ args = 0, pretend = 0, frame = 0
 1276              		@ frame_needed = 0, uses_anonymous_args = 0
 1277              	.LVL142:
 1278 0000 38B5     		push	{r3, r4, r5, lr}
 1279              		.cfi_def_cfa_offset 16
 1280              		.cfi_offset 3, -16
 1281              		.cfi_offset 4, -12
 1282              		.cfi_offset 5, -8
 1283              		.cfi_offset 14, -4
 179:main.c        **** 	
 1284              		.loc 2 179 0
 1285 0002 0138     		subs	r0, r0, #1
 1286              	.LVL143:
 1287 0004 C5B2     		uxtb	r5, r0
 1288              	.LVL144:
 1289              	.LBB14:
 181:main.c        **** 		
 1290              		.loc 2 181 0
 1291 0006 0024     		movs	r4, #0
 1292 0008 15E0     		b	.L101
 1293              	.LVL145:
 1294              	.L105:
ARM GAS  C:\Users\FRANKL~1\AppData\Local\Temp\ccLkvCvD.s 			page 44


 1295              	.LBB15:
 184:main.c        **** 			offset = CONTACT_COUNT/2;
 1296              		.loc 2 184 0
 1297 000a 012C     		cmp	r4, #1
 1298 000c 03D9     		bls	.L102
 1299              	.LVL146:
 186:main.c        **** 		} else {
 1300              		.loc 2 186 0
 1301 000e 1F2D     		cmp	r5, #31
 1302 0010 0FD9     		bls	.L103
 185:main.c        **** 			if (contact < CONTACT_COUNT/2) continue;
 1303              		.loc 2 185 0
 1304 0012 2023     		movs	r3, #32
 1305 0014 02E0     		b	.L104
 1306              	.LVL147:
 1307              	.L102:
 188:main.c        **** 		}
 1308              		.loc 2 188 0
 1309 0016 1F2D     		cmp	r5, #31
 1310 0018 0BD8     		bhi	.L103
 183:main.c        **** 		if (intermediate >= INTERMEDIATE_COUNT/2) {
 1311              		.loc 2 183 0
 1312 001a 0023     		movs	r3, #0
 1313              	.LVL148:
 1314              	.L104:
 191:main.c        **** 		
 1315              		.loc 2 191 0
 1316 001c EA1A     		subs	r2, r5, r3
 1317 001e C4EB0423 		rsb	r3, r4, r4, lsl #8
 1318              	.LVL149:
 1319 0022 0649     		ldr	r1, .L107
 1320 0024 0B44     		add	r3, r3, r1
 1321 0026 1344     		add	r3, r3, r2
 1322 0028 D122     		movs	r2, #209
 1323 002a 5A70     		strb	r2, [r3, #1]
 193:main.c        **** 	}
 1324              		.loc 2 193 0
 1325 002c 2046     		mov	r0, r4
 1326 002e FFF7FEFF 		bl	Update_Selector
 1327              	.LVL150:
 1328              	.L103:
 1329              	.LBE15:
 181:main.c        **** 		
 1330              		.loc 2 181 0 discriminator 2
 1331 0032 0134     		adds	r4, r4, #1
 1332              	.LVL151:
 1333 0034 E4B2     		uxtb	r4, r4
 1334              	.LVL152:
 1335              	.L101:
 181:main.c        **** 		
 1336              		.loc 2 181 0 is_stmt 0 discriminator 1
 1337 0036 032C     		cmp	r4, #3
 1338 0038 E7D9     		bls	.L105
 1339              	.LBE14:
 195:main.c        **** 
 1340              		.loc 2 195 0 is_stmt 1
 1341 003a 38BD     		pop	{r3, r4, r5, pc}
ARM GAS  C:\Users\FRANKL~1\AppData\Local\Temp\ccLkvCvD.s 			page 45


 1342              	.LVL153:
 1343              	.L108:
 1344              		.align	2
 1345              	.L107:
 1346 003c 00000000 		.word	selectors
 1347              		.cfi_endproc
 1348              	.LFE76:
 1349              		.size	Disconnect_Contact_From_All_Intermediates, .-Disconnect_Contact_From_All_Intermediates
 1350              		.section	.text.Disconnect_All_Contacts_From_All_Intermediates,"ax",%progbits
 1351              		.align	2
 1352              		.global	Disconnect_All_Contacts_From_All_Intermediates
 1353              		.thumb
 1354              		.thumb_func
 1355              		.type	Disconnect_All_Contacts_From_All_Intermediates, %function
 1356              	Disconnect_All_Contacts_From_All_Intermediates:
 1357              	.LFB77:
 197:main.c        **** 	for (uint8 intermediate = 0; intermediate < INTERMEDIATE_COUNT/*/2*/; intermediate++) {
 1358              		.loc 2 197 0
 1359              		.cfi_startproc
 1360              		@ args = 0, pretend = 0, frame = 0
 1361              		@ frame_needed = 0, uses_anonymous_args = 0
 1362 0000 10B5     		push	{r4, lr}
 1363              		.cfi_def_cfa_offset 8
 1364              		.cfi_offset 4, -8
 1365              		.cfi_offset 14, -4
 1366              	.LVL154:
 1367              	.LBB16:
 198:main.c        **** 		for (uint8 contact = 0; contact < CONTACT_COUNT/2; contact++) {
 1368              		.loc 2 198 0
 1369 0002 0024     		movs	r4, #0
 1370 0004 11E0     		b	.L110
 1371              	.LVL155:
 1372              	.L111:
 1373              	.LBB17:
 200:main.c        **** 		}
 1374              		.loc 2 200 0 discriminator 3
 1375 0006 C4EB0422 		rsb	r2, r4, r4, lsl #8
 1376 000a 0949     		ldr	r1, .L115
 1377 000c 0A44     		add	r2, r2, r1
 1378 000e 1A44     		add	r2, r2, r3
 1379 0010 D121     		movs	r1, #209
 1380 0012 5170     		strb	r1, [r2, #1]
 199:main.c        **** 			selectors[intermediate].write.data[contact] = CONTACT_DISCONNECT_CODE;
 1381              		.loc 2 199 0 discriminator 3
 1382 0014 0133     		adds	r3, r3, #1
 1383              	.LVL156:
 1384 0016 DBB2     		uxtb	r3, r3
 1385              	.LVL157:
 1386 0018 00E0     		b	.L112
 1387              	.LVL158:
 1388              	.L113:
 1389              	.LBE17:
 1390 001a 0023     		movs	r3, #0
 1391              	.L112:
 1392              	.LVL159:
 1393              	.LBB18:
 199:main.c        **** 			selectors[intermediate].write.data[contact] = CONTACT_DISCONNECT_CODE;
ARM GAS  C:\Users\FRANKL~1\AppData\Local\Temp\ccLkvCvD.s 			page 46


 1394              		.loc 2 199 0 is_stmt 0 discriminator 1
 1395 001c 1F2B     		cmp	r3, #31
 1396 001e F2D9     		bls	.L111
 1397              	.LBE18:
 203:main.c        **** 	}
 1398              		.loc 2 203 0 is_stmt 1 discriminator 2
 1399 0020 2046     		mov	r0, r4
 1400 0022 FFF7FEFF 		bl	Update_Selector
 1401              	.LVL160:
 198:main.c        **** 		for (uint8 contact = 0; contact < CONTACT_COUNT/2; contact++) {
 1402              		.loc 2 198 0 discriminator 2
 1403 0026 0134     		adds	r4, r4, #1
 1404              	.LVL161:
 1405 0028 E4B2     		uxtb	r4, r4
 1406              	.LVL162:
 1407              	.L110:
 198:main.c        **** 		for (uint8 contact = 0; contact < CONTACT_COUNT/2; contact++) {
 1408              		.loc 2 198 0 is_stmt 0 discriminator 1
 1409 002a 032C     		cmp	r4, #3
 1410 002c F5D9     		bls	.L113
 1411              	.LBE16:
 205:main.c        **** 
 1412              		.loc 2 205 0 is_stmt 1
 1413 002e 10BD     		pop	{r4, pc}
 1414              	.LVL163:
 1415              	.L116:
 1416              		.align	2
 1417              	.L115:
 1418 0030 00000000 		.word	selectors
 1419              		.cfi_endproc
 1420              	.LFE77:
 1421              		.size	Disconnect_All_Contacts_From_All_Intermediates, .-Disconnect_All_Contacts_From_All_Intermedi
 1422              		.section	.text.Disconnect_All_Contacts_From_Intermediate,"ax",%progbits
 1423              		.align	2
 1424              		.global	Disconnect_All_Contacts_From_Intermediate
 1425              		.thumb
 1426              		.thumb_func
 1427              		.type	Disconnect_All_Contacts_From_Intermediate, %function
 1428              	Disconnect_All_Contacts_From_Intermediate:
 1429              	.LFB78:
 207:main.c        **** 	intermediate--;
 1430              		.loc 2 207 0
 1431              		.cfi_startproc
 1432              		@ args = 0, pretend = 0, frame = 0
 1433              		@ frame_needed = 0, uses_anonymous_args = 0
 1434              	.LVL164:
 1435 0000 08B5     		push	{r3, lr}
 1436              		.cfi_def_cfa_offset 8
 1437              		.cfi_offset 3, -8
 1438              		.cfi_offset 14, -4
 208:main.c        **** 	
 1439              		.loc 2 208 0
 1440 0002 0138     		subs	r0, r0, #1
 1441              	.LVL165:
 1442 0004 C0B2     		uxtb	r0, r0
 1443              	.LVL166:
 1444              	.LBB19:
ARM GAS  C:\Users\FRANKL~1\AppData\Local\Temp\ccLkvCvD.s 			page 47


 210:main.c        **** 		selectors[intermediate].write.data[contact] = CONTACT_DISCONNECT_CODE;
 1445              		.loc 2 210 0
 1446 0006 0023     		movs	r3, #0
 1447 0008 08E0     		b	.L118
 1448              	.LVL167:
 1449              	.L119:
 211:main.c        **** 	}
 1450              		.loc 2 211 0 discriminator 3
 1451 000a C0EB0022 		rsb	r2, r0, r0, lsl #8
 1452 000e 0649     		ldr	r1, .L121
 1453 0010 0A44     		add	r2, r2, r1
 1454 0012 1A44     		add	r2, r2, r3
 1455 0014 D121     		movs	r1, #209
 1456 0016 5170     		strb	r1, [r2, #1]
 210:main.c        **** 		selectors[intermediate].write.data[contact] = CONTACT_DISCONNECT_CODE;
 1457              		.loc 2 210 0 discriminator 3
 1458 0018 0133     		adds	r3, r3, #1
 1459              	.LVL168:
 1460 001a DBB2     		uxtb	r3, r3
 1461              	.LVL169:
 1462              	.L118:
 210:main.c        **** 		selectors[intermediate].write.data[contact] = CONTACT_DISCONNECT_CODE;
 1463              		.loc 2 210 0 is_stmt 0 discriminator 1
 1464 001c 1F2B     		cmp	r3, #31
 1465 001e F4D9     		bls	.L119
 1466              	.LBE19:
 214:main.c        **** }
 1467              		.loc 2 214 0 is_stmt 1
 1468 0020 FFF7FEFF 		bl	Update_Selector
 1469              	.LVL170:
 1470 0024 08BD     		pop	{r3, pc}
 1471              	.L122:
 1472 0026 00BF     		.align	2
 1473              	.L121:
 1474 0028 00000000 		.word	selectors
 1475              		.cfi_endproc
 1476              	.LFE78:
 1477              		.size	Disconnect_All_Contacts_From_Intermediate, .-Disconnect_All_Contacts_From_Intermediate
 1478              		.section	.text.Connect_Intermediate,"ax",%progbits
 1479              		.align	2
 1480              		.global	Connect_Intermediate
 1481              		.thumb
 1482              		.thumb_func
 1483              		.type	Connect_Intermediate, %function
 1484              	Connect_Intermediate:
 1485              	.LFB79:
 217:main.c        **** 	switch (intermediate) {
 1486              		.loc 2 217 0
 1487              		.cfi_startproc
 1488              		@ args = 0, pretend = 0, frame = 0
 1489              		@ frame_needed = 0, uses_anonymous_args = 0
 1490              	.LVL171:
 1491 0000 08B5     		push	{r3, lr}
 1492              		.cfi_def_cfa_offset 8
 1493              		.cfi_offset 3, -8
 1494              		.cfi_offset 14, -4
 218:main.c        **** 		case 1: Connect_Channel_On_Intermediate(33, 1); break;
ARM GAS  C:\Users\FRANKL~1\AppData\Local\Temp\ccLkvCvD.s 			page 48


 1495              		.loc 2 218 0
 1496 0002 0138     		subs	r0, r0, #1
 1497              	.LVL172:
 1498 0004 0328     		cmp	r0, #3
 1499 0006 16D8     		bhi	.L123
 1500 0008 DFE800F0 		tbb	[pc, r0]
 1501              	.L126:
 1502 000c 02       		.byte	(.L125-.L126)/2
 1503 000d 07       		.byte	(.L127-.L126)/2
 1504 000e 0C       		.byte	(.L128-.L126)/2
 1505 000f 11       		.byte	(.L129-.L126)/2
 1506              		.p2align 1
 1507              	.L125:
 219:main.c        **** 		case 2: Connect_Channel_On_Intermediate(33, 2); break;
 1508              		.loc 2 219 0
 1509 0010 0121     		movs	r1, #1
 1510 0012 2120     		movs	r0, #33
 1511 0014 FFF7FEFF 		bl	Connect_Channel_On_Intermediate
 1512              	.LVL173:
 1513 0018 08BD     		pop	{r3, pc}
 1514              	.L127:
 220:main.c        **** 		case 3: Connect_Channel_On_Intermediate(33, 3); break;
 1515              		.loc 2 220 0
 1516 001a 0221     		movs	r1, #2
 1517 001c 2120     		movs	r0, #33
 1518 001e FFF7FEFF 		bl	Connect_Channel_On_Intermediate
 1519              	.LVL174:
 1520 0022 08BD     		pop	{r3, pc}
 1521              	.L128:
 221:main.c        **** 		case 4: Connect_Channel_On_Intermediate(33, 4); break;
 1522              		.loc 2 221 0
 1523 0024 0321     		movs	r1, #3
 1524 0026 2120     		movs	r0, #33
 1525 0028 FFF7FEFF 		bl	Connect_Channel_On_Intermediate
 1526              	.LVL175:
 1527 002c 08BD     		pop	{r3, pc}
 1528              	.L129:
 222:main.c        **** 		default: return;
 1529              		.loc 2 222 0
 1530 002e 0421     		movs	r1, #4
 1531 0030 2120     		movs	r0, #33
 1532 0032 FFF7FEFF 		bl	Connect_Channel_On_Intermediate
 1533              	.LVL176:
 1534              	.L123:
 1535 0036 08BD     		pop	{r3, pc}
 1536              		.cfi_endproc
 1537              	.LFE79:
 1538              		.size	Connect_Intermediate, .-Connect_Intermediate
 1539              		.section	.text.Connect_Intermediates,"ax",%progbits
 1540              		.align	2
 1541              		.global	Connect_Intermediates
 1542              		.thumb
 1543              		.thumb_func
 1544              		.type	Connect_Intermediates, %function
 1545              	Connect_Intermediates:
 1546              	.LFB80:
 227:main.c        **** 	for (uint8 i = 1; i <= INTERMEDIATE_COUNT/*/2*/; i++) {
ARM GAS  C:\Users\FRANKL~1\AppData\Local\Temp\ccLkvCvD.s 			page 49


 1547              		.loc 2 227 0
 1548              		.cfi_startproc
 1549              		@ args = 0, pretend = 0, frame = 0
 1550              		@ frame_needed = 0, uses_anonymous_args = 0
 1551 0000 10B5     		push	{r4, lr}
 1552              		.cfi_def_cfa_offset 8
 1553              		.cfi_offset 4, -8
 1554              		.cfi_offset 14, -4
 1555              	.LVL177:
 1556              	.LBB20:
 228:main.c        **** 		Connect_Intermediate(i);
 1557              		.loc 2 228 0
 1558 0002 0124     		movs	r4, #1
 1559 0004 04E0     		b	.L132
 1560              	.LVL178:
 1561              	.L133:
 229:main.c        **** 	}
 1562              		.loc 2 229 0 discriminator 3
 1563 0006 2046     		mov	r0, r4
 1564 0008 FFF7FEFF 		bl	Connect_Intermediate
 1565              	.LVL179:
 228:main.c        **** 		Connect_Intermediate(i);
 1566              		.loc 2 228 0 discriminator 3
 1567 000c 0134     		adds	r4, r4, #1
 1568              	.LVL180:
 1569 000e E4B2     		uxtb	r4, r4
 1570              	.LVL181:
 1571              	.L132:
 228:main.c        **** 		Connect_Intermediate(i);
 1572              		.loc 2 228 0 is_stmt 0 discriminator 1
 1573 0010 042C     		cmp	r4, #4
 1574 0012 F8D9     		bls	.L133
 1575              	.LBE20:
 231:main.c        **** 
 1576              		.loc 2 231 0 is_stmt 1
 1577 0014 10BD     		pop	{r4, pc}
 1578              		.cfi_endproc
 1579              	.LFE80:
 1580              		.size	Connect_Intermediates, .-Connect_Intermediates
 1581 0016 00BF     		.section	.text.TIA_Set_Resistor,"ax",%progbits
 1582              		.align	2
 1583              		.global	TIA_Set_Resistor
 1584              		.thumb
 1585              		.thumb_func
 1586              		.type	TIA_Set_Resistor, %function
 1587              	TIA_Set_Resistor:
 1588              	.LFB81:
 233:main.c        **** 	TIA_Selected_Resistor = resistor;
 1589              		.loc 2 233 0
 1590              		.cfi_startproc
 1591              		@ args = 0, pretend = 0, frame = 0
 1592              		@ frame_needed = 0, uses_anonymous_args = 0
 1593              	.LVL182:
 1594 0000 08B5     		push	{r3, lr}
 1595              		.cfi_def_cfa_offset 8
 1596              		.cfi_offset 3, -8
 1597              		.cfi_offset 14, -4
ARM GAS  C:\Users\FRANKL~1\AppData\Local\Temp\ccLkvCvD.s 			page 50


 234:main.c        **** 	TIA_1_SetResFB(TIA_Resistor_Codes[resistor]);
 1598              		.loc 2 234 0
 1599 0002 034B     		ldr	r3, .L137
 1600 0004 1871     		strb	r0, [r3, #4]
 235:main.c        **** }
 1601              		.loc 2 235 0
 1602 0006 034B     		ldr	r3, .L137+4
 1603 0008 185C     		ldrb	r0, [r3, r0]	@ zero_extendqisi2
 1604              	.LVL183:
 1605 000a FFF7FEFF 		bl	TIA_1_SetResFB
 1606              	.LVL184:
 1607 000e 08BD     		pop	{r3, pc}
 1608              	.L138:
 1609              		.align	2
 1610              	.L137:
 1611 0010 00000000 		.word	.LANCHOR0
 1612 0014 00000000 		.word	.LANCHOR1
 1613              		.cfi_endproc
 1614              	.LFE81:
 1615              		.size	TIA_Set_Resistor, .-TIA_Set_Resistor
 1616              		.section	.text.ADC_Increase_Range,"ax",%progbits
 1617              		.align	2
 1618              		.global	ADC_Increase_Range
 1619              		.thumb
 1620              		.thumb_func
 1621              		.type	ADC_Increase_Range, %function
 1622              	ADC_Increase_Range:
 1623              	.LFB82:
 238:main.c        **** 	switch(TIA_Selected_Resistor) {
 1624              		.loc 2 238 0
 1625              		.cfi_startproc
 1626              		@ args = 0, pretend = 0, frame = 0
 1627              		@ frame_needed = 0, uses_anonymous_args = 0
 1628 0000 08B5     		push	{r3, lr}
 1629              		.cfi_def_cfa_offset 8
 1630              		.cfi_offset 3, -8
 1631              		.cfi_offset 14, -4
 239:main.c        **** 		case R20K: 	 break;
 1632              		.loc 2 239 0
 1633 0002 044B     		ldr	r3, .L143
 1634 0004 1B79     		ldrb	r3, [r3, #4]	@ zero_extendqisi2
 1635 0006 072B     		cmp	r3, #7
 1636 0008 02D1     		bne	.L139
 247:main.c        **** 		default: return;
 1637              		.loc 2 247 0
 1638 000a 0020     		movs	r0, #0
 1639 000c FFF7FEFF 		bl	TIA_Set_Resistor
 1640              	.LVL185:
 1641              	.L139:
 1642 0010 08BD     		pop	{r3, pc}
 1643              	.L144:
 1644 0012 00BF     		.align	2
 1645              	.L143:
 1646 0014 00000000 		.word	.LANCHOR0
 1647              		.cfi_endproc
 1648              	.LFE82:
 1649              		.size	ADC_Increase_Range, .-ADC_Increase_Range
ARM GAS  C:\Users\FRANKL~1\AppData\Local\Temp\ccLkvCvD.s 			page 51


 1650              		.section	.text.ADC_Decrease_Range,"ax",%progbits
 1651              		.align	2
 1652              		.global	ADC_Decrease_Range
 1653              		.thumb
 1654              		.thumb_func
 1655              		.type	ADC_Decrease_Range, %function
 1656              	ADC_Decrease_Range:
 1657              	.LFB83:
 252:main.c        **** 	switch(TIA_Selected_Resistor) {
 1658              		.loc 2 252 0
 1659              		.cfi_startproc
 1660              		@ args = 0, pretend = 0, frame = 0
 1661              		@ frame_needed = 0, uses_anonymous_args = 0
 1662 0000 08B5     		push	{r3, lr}
 1663              		.cfi_def_cfa_offset 8
 1664              		.cfi_offset 3, -8
 1665              		.cfi_offset 14, -4
 253:main.c        **** 		case R20K: 	 TIA_Set_Resistor(R1000K); break;
 1666              		.loc 2 253 0
 1667 0002 034B     		ldr	r3, .L149
 1668 0004 1B79     		ldrb	r3, [r3, #4]	@ zero_extendqisi2
 1669 0006 13B9     		cbnz	r3, .L145
 254:main.c        **** 		//case R30K: 	 TIA_Set_Resistor(R40K); break;
 1670              		.loc 2 254 0
 1671 0008 0720     		movs	r0, #7
 1672 000a FFF7FEFF 		bl	TIA_Set_Resistor
 1673              	.LVL186:
 1674              	.L145:
 1675 000e 08BD     		pop	{r3, pc}
 1676              	.L150:
 1677              		.align	2
 1678              	.L149:
 1679 0010 00000000 		.word	.LANCHOR0
 1680              		.cfi_endproc
 1681              	.LFE83:
 1682              		.size	ADC_Decrease_Range, .-ADC_Decrease_Range
 1683              		.global	__aeabi_ui2f
 1684              		.global	__aeabi_fdiv
 1685              		.global	__aeabi_i2f
 1686              		.global	__aeabi_fmul
 1687              		.global	__aeabi_fadd
 1688              		.global	__aeabi_f2iz
 1689              		.global	__aeabi_fsub
 1690              		.section	.text.ADC_Measure_uV,"ax",%progbits
 1691              		.align	2
 1692              		.global	ADC_Measure_uV
 1693              		.thumb
 1694              		.thumb_func
 1695              		.type	ADC_Measure_uV, %function
 1696              	ADC_Measure_uV:
 1697              	.LFB84:
 267:main.c        **** 	int32 ADC_Result = 0;
 1698              		.loc 2 267 0
 1699              		.cfi_startproc
 1700              		@ args = 0, pretend = 0, frame = 8
 1701              		@ frame_needed = 0, uses_anonymous_args = 0
 1702              	.LVL187:
ARM GAS  C:\Users\FRANKL~1\AppData\Local\Temp\ccLkvCvD.s 			page 52


 1703 0000 2DE9F04F 		push	{r4, r5, r6, r7, r8, r9, r10, fp, lr}
 1704              		.cfi_def_cfa_offset 36
 1705              		.cfi_offset 4, -36
 1706              		.cfi_offset 5, -32
 1707              		.cfi_offset 6, -28
 1708              		.cfi_offset 7, -24
 1709              		.cfi_offset 8, -20
 1710              		.cfi_offset 9, -16
 1711              		.cfi_offset 10, -12
 1712              		.cfi_offset 11, -8
 1713              		.cfi_offset 14, -4
 1714 0004 83B0     		sub	sp, sp, #12
 1715              		.cfi_def_cfa_offset 48
 1716 0006 0090     		str	r0, [sp]
 1717 0008 0191     		str	r1, [sp, #4]
 1718 000a 9346     		mov	fp, r2
 1719              	.LVL188:
 1720              	.LBB21:
 271:main.c        **** 		ADC_DelSig_1_StartConvert();
 1721              		.loc 2 271 0
 1722 000c 0124     		movs	r4, #1
 1723              	.LBE21:
 269:main.c        **** 	
 1724              		.loc 2 269 0
 1725 000e 4FF00009 		mov	r9, #0
 268:main.c        **** 	int32 ADC_SD = 0;
 1726              		.loc 2 268 0
 1727 0012 4D46     		mov	r5, r9
 1728              	.LBB23:
 271:main.c        **** 		ADC_DelSig_1_StartConvert();
 1729              		.loc 2 271 0
 1730 0014 45E0     		b	.L152
 1731              	.LVL189:
 1732              	.L154:
 1733              	.LBB22:
 272:main.c        **** 		while (!ADC_DelSig_1_IsEndConversion(ADC_DelSig_1_RETURN_STATUS));
 1734              		.loc 2 272 0
 1735 0016 FFF7FEFF 		bl	ADC_DelSig_1_StartConvert
 1736              	.LVL190:
 1737              	.L153:
 273:main.c        **** 		//int16 ADC_Result = ADC_DelSig_1_CountsTo_mVolts(ADC_DelSig_1_GetResult16());
 1738              		.loc 2 273 0 discriminator 1
 1739 001a 0120     		movs	r0, #1
 1740 001c FFF7FEFF 		bl	ADC_DelSig_1_IsEndConversion
 1741              	.LVL191:
 1742 0020 0028     		cmp	r0, #0
 1743 0022 FAD0     		beq	.L153
 275:main.c        **** 		
 1744              		.loc 2 275 0 discriminator 2
 1745 0024 FFF7FEFF 		bl	ADC_DelSig_1_GetResult32
 1746              	.LVL192:
 1747 0028 FFF7FEFF 		bl	ADC_DelSig_1_CountsTo_uVolts
 1748              	.LVL193:
 1749 002c 0746     		mov	r7, r0
 1750              	.LVL194:
 277:main.c        **** 		ADC_Result += ((float)ADC_Result_Current - (float)ADC_Result)/(float)i;
 1751              		.loc 2 277 0 discriminator 2
ARM GAS  C:\Users\FRANKL~1\AppData\Local\Temp\ccLkvCvD.s 			page 53


 1752 002e 601E     		subs	r0, r4, #1
 1753              	.LVL195:
 1754 0030 FFF7FEFF 		bl	__aeabi_ui2f
 1755              	.LVL196:
 1756 0034 8046     		mov	r8, r0
 1757 0036 2046     		mov	r0, r4
 1758 0038 FFF7FEFF 		bl	__aeabi_ui2f
 1759              	.LVL197:
 1760 003c 0646     		mov	r6, r0
 1761 003e 0146     		mov	r1, r0
 1762 0040 4046     		mov	r0, r8
 1763 0042 FFF7FEFF 		bl	__aeabi_fdiv
 1764              	.LVL198:
 1765 0046 8246     		mov	r10, r0
 1766 0048 781B     		subs	r0, r7, r5
 1767 004a FFF7FEFF 		bl	__aeabi_i2f
 1768              	.LVL199:
 1769 004e 8046     		mov	r8, r0
 1770 0050 0146     		mov	r1, r0
 1771 0052 5046     		mov	r0, r10
 1772 0054 FFF7FEFF 		bl	__aeabi_fmul
 1773              	.LVL200:
 1774 0058 0146     		mov	r1, r0
 1775 005a 4046     		mov	r0, r8
 1776 005c FFF7FEFF 		bl	__aeabi_fmul
 1777              	.LVL201:
 1778 0060 8046     		mov	r8, r0
 1779 0062 4846     		mov	r0, r9
 1780 0064 FFF7FEFF 		bl	__aeabi_i2f
 1781              	.LVL202:
 1782 0068 4146     		mov	r1, r8
 1783 006a FFF7FEFF 		bl	__aeabi_fadd
 1784              	.LVL203:
 1785 006e FFF7FEFF 		bl	__aeabi_f2iz
 1786              	.LVL204:
 1787 0072 8146     		mov	r9, r0
 1788              	.LVL205:
 278:main.c        **** 	}
 1789              		.loc 2 278 0 discriminator 2
 1790 0074 3846     		mov	r0, r7
 1791              	.LVL206:
 1792 0076 FFF7FEFF 		bl	__aeabi_i2f
 1793              	.LVL207:
 1794 007a 0746     		mov	r7, r0
 1795              	.LVL208:
 1796 007c 2846     		mov	r0, r5
 1797 007e FFF7FEFF 		bl	__aeabi_i2f
 1798              	.LVL209:
 1799 0082 0546     		mov	r5, r0
 1800              	.LVL210:
 1801 0084 0146     		mov	r1, r0
 1802 0086 3846     		mov	r0, r7
 1803 0088 FFF7FEFF 		bl	__aeabi_fsub
 1804              	.LVL211:
 1805 008c 3146     		mov	r1, r6
 1806 008e FFF7FEFF 		bl	__aeabi_fdiv
 1807              	.LVL212:
ARM GAS  C:\Users\FRANKL~1\AppData\Local\Temp\ccLkvCvD.s 			page 54


 1808 0092 0146     		mov	r1, r0
 1809 0094 2846     		mov	r0, r5
 1810 0096 FFF7FEFF 		bl	__aeabi_fadd
 1811              	.LVL213:
 1812 009a FFF7FEFF 		bl	__aeabi_f2iz
 1813              	.LVL214:
 1814 009e 0546     		mov	r5, r0
 1815              	.LVL215:
 1816              	.LBE22:
 271:main.c        **** 		ADC_DelSig_1_StartConvert();
 1817              		.loc 2 271 0 discriminator 2
 1818 00a0 0134     		adds	r4, r4, #1
 1819              	.LVL216:
 1820              	.L152:
 271:main.c        **** 		ADC_DelSig_1_StartConvert();
 1821              		.loc 2 271 0 is_stmt 0 discriminator 1
 1822 00a2 5C45     		cmp	r4, fp
 1823 00a4 B7D9     		bls	.L154
 1824              	.LBE23:
 281:main.c        **** 	*standardDeviation = ADC_SD;
 1825              		.loc 2 281 0 is_stmt 1
 1826 00a6 009B     		ldr	r3, [sp]
 1827 00a8 1D60     		str	r5, [r3]
 282:main.c        **** }
 1828              		.loc 2 282 0
 1829 00aa 019B     		ldr	r3, [sp, #4]
 1830 00ac C3F80090 		str	r9, [r3]
 283:main.c        **** 
 1831              		.loc 2 283 0
 1832 00b0 03B0     		add	sp, sp, #12
 1833              		.cfi_def_cfa_offset 36
 1834              	.LVL217:
 1835              		@ sp needed
 1836 00b2 BDE8F08F 		pop	{r4, r5, r6, r7, r8, r9, r10, fp, pc}
 1837              		.cfi_endproc
 1838              	.LFE84:
 1839              		.size	ADC_Measure_uV, .-ADC_Measure_uV
 1840 00b6 00BF     		.section	.text.ADC_Adjust_Range,"ax",%progbits
 1841              		.align	2
 1842              		.global	ADC_Adjust_Range
 1843              		.thumb
 1844              		.thumb_func
 1845              		.type	ADC_Adjust_Range, %function
 1846              	ADC_Adjust_Range:
 1847              	.LFB85:
 285:main.c        **** 	int32 ADC_Voltage = 0;
 1848              		.loc 2 285 0
 1849              		.cfi_startproc
 1850              		@ args = 0, pretend = 0, frame = 8
 1851              		@ frame_needed = 0, uses_anonymous_args = 0
 1852              	.LVL218:
 1853 0000 00B5     		push	{lr}
 1854              		.cfi_def_cfa_offset 4
 1855              		.cfi_offset 14, -4
 1856 0002 83B0     		sub	sp, sp, #12
 1857              		.cfi_def_cfa_offset 16
 286:main.c        **** 	int32 ADC_Voltage_SD = 0;
ARM GAS  C:\Users\FRANKL~1\AppData\Local\Temp\ccLkvCvD.s 			page 55


 1858              		.loc 2 286 0
 1859 0004 0023     		movs	r3, #0
 1860 0006 0193     		str	r3, [sp, #4]
 287:main.c        **** 	
 1861              		.loc 2 287 0
 1862 0008 02A9     		add	r1, sp, #8
 1863 000a 41F8083D 		str	r3, [r1, #-8]!
 289:main.c        **** 	
 1864              		.loc 2 289 0
 1865 000e 0246     		mov	r2, r0
 1866 0010 01A8     		add	r0, sp, #4
 1867              	.LVL219:
 1868 0012 FFF7FEFF 		bl	ADC_Measure_uV
 1869              	.LVL220:
 291:main.c        **** 		ADC_Increase_Range();
 1870              		.loc 2 291 0
 1871 0016 019B     		ldr	r3, [sp, #4]
 1872 0018 83EAE371 		eor	r1, r3, r3, asr #31
 1873 001c A1EBE371 		sub	r1, r1, r3, asr #31
 1874 0020 0B4A     		ldr	r2, .L162
 1875 0022 9142     		cmp	r1, r2
 1876 0024 02DD     		ble	.L157
 292:main.c        **** 	} else if (abs(ADC_Voltage) < 10240) {
 1877              		.loc 2 292 0
 1878 0026 FFF7FEFF 		bl	ADC_Increase_Range
 1879              	.LVL221:
 1880 002a 08E0     		b	.L158
 1881              	.L157:
 293:main.c        **** 		ADC_Decrease_Range();
 1882              		.loc 2 293 0
 1883 002c 03F51F53 		add	r3, r3, #10176
 1884 0030 3F33     		adds	r3, r3, #63
 1885 0032 44F6FE72 		movw	r2, #20478
 1886 0036 9342     		cmp	r3, r2
 1887 0038 06D8     		bhi	.L156
 294:main.c        **** 	} else {
 1888              		.loc 2 294 0
 1889 003a FFF7FEFF 		bl	ADC_Decrease_Range
 1890              	.LVL222:
 1891              	.L158:
 300:main.c        **** }
 1892              		.loc 2 300 0
 1893 003e 0522     		movs	r2, #5
 1894 0040 6946     		mov	r1, sp
 1895 0042 01A8     		add	r0, sp, #4
 1896 0044 FFF7FEFF 		bl	ADC_Measure_uV
 1897              	.LVL223:
 1898              	.L156:
 301:main.c        **** 
 1899              		.loc 2 301 0
 1900 0048 03B0     		add	sp, sp, #12
 1901              		.cfi_def_cfa_offset 4
 1902              		@ sp needed
 1903 004a 5DF804FB 		ldr	pc, [sp], #4
 1904              	.L163:
 1905 004e 00BF     		.align	2
 1906              	.L162:
ARM GAS  C:\Users\FRANKL~1\AppData\Local\Temp\ccLkvCvD.s 			page 56


 1907 0050 00480D00 		.word	870400
 1908              		.cfi_endproc
 1909              	.LFE85:
 1910              		.size	ADC_Adjust_Range, .-ADC_Adjust_Range
 1911              		.section	.text.SAR1_Measure_V,"ax",%progbits
 1912              		.align	2
 1913              		.global	SAR1_Measure_V
 1914              		.thumb
 1915              		.thumb_func
 1916              		.type	SAR1_Measure_V, %function
 1917              	SAR1_Measure_V:
 1918              	.LFB86:
 304:main.c        **** 	int32 SAR_Result = 0;
 1919              		.loc 2 304 0
 1920              		.cfi_startproc
 1921              		@ args = 0, pretend = 0, frame = 8
 1922              		@ frame_needed = 0, uses_anonymous_args = 0
 1923              	.LVL224:
 1924 0000 2DE9F04F 		push	{r4, r5, r6, r7, r8, r9, r10, fp, lr}
 1925              		.cfi_def_cfa_offset 36
 1926              		.cfi_offset 4, -36
 1927              		.cfi_offset 5, -32
 1928              		.cfi_offset 6, -28
 1929              		.cfi_offset 7, -24
 1930              		.cfi_offset 8, -20
 1931              		.cfi_offset 9, -16
 1932              		.cfi_offset 10, -12
 1933              		.cfi_offset 11, -8
 1934              		.cfi_offset 14, -4
 1935 0004 83B0     		sub	sp, sp, #12
 1936              		.cfi_def_cfa_offset 48
 1937 0006 0090     		str	r0, [sp]
 1938 0008 0191     		str	r1, [sp, #4]
 1939 000a 9346     		mov	fp, r2
 1940              	.LVL225:
 1941              	.LBB24:
 308:main.c        **** 		ADC_SAR_1_StartConvert();
 1942              		.loc 2 308 0
 1943 000c 0124     		movs	r4, #1
 1944              	.LBE24:
 306:main.c        **** 	
 1945              		.loc 2 306 0
 1946 000e 4FF00009 		mov	r9, #0
 305:main.c        **** 	int32 SAR_SD = 0;
 1947              		.loc 2 305 0
 1948 0012 4D46     		mov	r5, r9
 1949              	.LBB26:
 308:main.c        **** 		ADC_SAR_1_StartConvert();
 1950              		.loc 2 308 0
 1951 0014 45E0     		b	.L165
 1952              	.LVL226:
 1953              	.L167:
 1954              	.LBB25:
 309:main.c        **** 		while (!ADC_SAR_1_IsEndConversion(ADC_SAR_1_RETURN_STATUS));
 1955              		.loc 2 309 0
 1956 0016 FFF7FEFF 		bl	ADC_SAR_1_StartConvert
 1957              	.LVL227:
ARM GAS  C:\Users\FRANKL~1\AppData\Local\Temp\ccLkvCvD.s 			page 57


 1958              	.L166:
 310:main.c        **** 		
 1959              		.loc 2 310 0 discriminator 1
 1960 001a 0120     		movs	r0, #1
 1961 001c FFF7FEFF 		bl	ADC_SAR_1_IsEndConversion
 1962              	.LVL228:
 1963 0020 0028     		cmp	r0, #0
 1964 0022 FAD0     		beq	.L166
 312:main.c        **** 		
 1965              		.loc 2 312 0 discriminator 2
 1966 0024 FFF7FEFF 		bl	ADC_SAR_1_GetResult16
 1967              	.LVL229:
 1968 0028 FFF7FEFF 		bl	ADC_SAR_1_CountsTo_uVolts
 1969              	.LVL230:
 1970 002c 0746     		mov	r7, r0
 1971              	.LVL231:
 314:main.c        **** 		SAR_Result += ((float)SAR1_Result_Current - (float)SAR_Result)/(float)i;
 1972              		.loc 2 314 0 discriminator 2
 1973 002e 601E     		subs	r0, r4, #1
 1974              	.LVL232:
 1975 0030 FFF7FEFF 		bl	__aeabi_ui2f
 1976              	.LVL233:
 1977 0034 8046     		mov	r8, r0
 1978 0036 2046     		mov	r0, r4
 1979 0038 FFF7FEFF 		bl	__aeabi_ui2f
 1980              	.LVL234:
 1981 003c 0646     		mov	r6, r0
 1982 003e 0146     		mov	r1, r0
 1983 0040 4046     		mov	r0, r8
 1984 0042 FFF7FEFF 		bl	__aeabi_fdiv
 1985              	.LVL235:
 1986 0046 8246     		mov	r10, r0
 1987 0048 781B     		subs	r0, r7, r5
 1988 004a FFF7FEFF 		bl	__aeabi_i2f
 1989              	.LVL236:
 1990 004e 8046     		mov	r8, r0
 1991 0050 0146     		mov	r1, r0
 1992 0052 5046     		mov	r0, r10
 1993 0054 FFF7FEFF 		bl	__aeabi_fmul
 1994              	.LVL237:
 1995 0058 0146     		mov	r1, r0
 1996 005a 4046     		mov	r0, r8
 1997 005c FFF7FEFF 		bl	__aeabi_fmul
 1998              	.LVL238:
 1999 0060 8046     		mov	r8, r0
 2000 0062 4846     		mov	r0, r9
 2001 0064 FFF7FEFF 		bl	__aeabi_i2f
 2002              	.LVL239:
 2003 0068 4146     		mov	r1, r8
 2004 006a FFF7FEFF 		bl	__aeabi_fadd
 2005              	.LVL240:
 2006 006e FFF7FEFF 		bl	__aeabi_f2iz
 2007              	.LVL241:
 2008 0072 8146     		mov	r9, r0
 2009              	.LVL242:
 315:main.c        **** 	}
 2010              		.loc 2 315 0 discriminator 2
ARM GAS  C:\Users\FRANKL~1\AppData\Local\Temp\ccLkvCvD.s 			page 58


 2011 0074 3846     		mov	r0, r7
 2012              	.LVL243:
 2013 0076 FFF7FEFF 		bl	__aeabi_i2f
 2014              	.LVL244:
 2015 007a 0746     		mov	r7, r0
 2016              	.LVL245:
 2017 007c 2846     		mov	r0, r5
 2018 007e FFF7FEFF 		bl	__aeabi_i2f
 2019              	.LVL246:
 2020 0082 0546     		mov	r5, r0
 2021              	.LVL247:
 2022 0084 0146     		mov	r1, r0
 2023 0086 3846     		mov	r0, r7
 2024 0088 FFF7FEFF 		bl	__aeabi_fsub
 2025              	.LVL248:
 2026 008c 3146     		mov	r1, r6
 2027 008e FFF7FEFF 		bl	__aeabi_fdiv
 2028              	.LVL249:
 2029 0092 0146     		mov	r1, r0
 2030 0094 2846     		mov	r0, r5
 2031 0096 FFF7FEFF 		bl	__aeabi_fadd
 2032              	.LVL250:
 2033 009a FFF7FEFF 		bl	__aeabi_f2iz
 2034              	.LVL251:
 2035 009e 0546     		mov	r5, r0
 2036              	.LVL252:
 2037              	.LBE25:
 308:main.c        **** 		ADC_SAR_1_StartConvert();
 2038              		.loc 2 308 0 discriminator 2
 2039 00a0 0134     		adds	r4, r4, #1
 2040              	.LVL253:
 2041              	.L165:
 308:main.c        **** 		ADC_SAR_1_StartConvert();
 2042              		.loc 2 308 0 is_stmt 0 discriminator 1
 2043 00a2 5C45     		cmp	r4, fp
 2044 00a4 B7D9     		bls	.L167
 2045              	.LBE26:
 318:main.c        **** 	*standardDeviation = SAR_SD;
 2046              		.loc 2 318 0 is_stmt 1
 2047 00a6 009B     		ldr	r3, [sp]
 2048 00a8 1D60     		str	r5, [r3]
 319:main.c        **** }
 2049              		.loc 2 319 0
 2050 00aa 019B     		ldr	r3, [sp, #4]
 2051 00ac C3F80090 		str	r9, [r3]
 320:main.c        **** 
 2052              		.loc 2 320 0
 2053 00b0 03B0     		add	sp, sp, #12
 2054              		.cfi_def_cfa_offset 36
 2055              	.LVL254:
 2056              		@ sp needed
 2057 00b2 BDE8F08F 		pop	{r4, r5, r6, r7, r8, r9, r10, fp, pc}
 2058              		.cfi_endproc
 2059              	.LFE86:
 2060              		.size	SAR1_Measure_V, .-SAR1_Measure_V
 2061 00b6 00BF     		.section	.text.SAR2_Measure_V,"ax",%progbits
 2062              		.align	2
ARM GAS  C:\Users\FRANKL~1\AppData\Local\Temp\ccLkvCvD.s 			page 59


 2063              		.global	SAR2_Measure_V
 2064              		.thumb
 2065              		.thumb_func
 2066              		.type	SAR2_Measure_V, %function
 2067              	SAR2_Measure_V:
 2068              	.LFB87:
 323:main.c        **** 	int32 SAR_Result = 0;
 2069              		.loc 2 323 0
 2070              		.cfi_startproc
 2071              		@ args = 0, pretend = 0, frame = 8
 2072              		@ frame_needed = 0, uses_anonymous_args = 0
 2073              	.LVL255:
 2074 0000 2DE9F04F 		push	{r4, r5, r6, r7, r8, r9, r10, fp, lr}
 2075              		.cfi_def_cfa_offset 36
 2076              		.cfi_offset 4, -36
 2077              		.cfi_offset 5, -32
 2078              		.cfi_offset 6, -28
 2079              		.cfi_offset 7, -24
 2080              		.cfi_offset 8, -20
 2081              		.cfi_offset 9, -16
 2082              		.cfi_offset 10, -12
 2083              		.cfi_offset 11, -8
 2084              		.cfi_offset 14, -4
 2085 0004 83B0     		sub	sp, sp, #12
 2086              		.cfi_def_cfa_offset 48
 2087 0006 0090     		str	r0, [sp]
 2088 0008 0191     		str	r1, [sp, #4]
 2089 000a 9346     		mov	fp, r2
 2090              	.LVL256:
 2091              	.LBB27:
 327:main.c        **** 		ADC_SAR_2_StartConvert();
 2092              		.loc 2 327 0
 2093 000c 0124     		movs	r4, #1
 2094              	.LBE27:
 325:main.c        **** 	
 2095              		.loc 2 325 0
 2096 000e 4FF00009 		mov	r9, #0
 324:main.c        **** 	int32 SAR_SD = 0;
 2097              		.loc 2 324 0
 2098 0012 4D46     		mov	r5, r9
 2099              	.LBB29:
 327:main.c        **** 		ADC_SAR_2_StartConvert();
 2100              		.loc 2 327 0
 2101 0014 45E0     		b	.L170
 2102              	.LVL257:
 2103              	.L172:
 2104              	.LBB28:
 328:main.c        **** 		while (!ADC_SAR_2_IsEndConversion(ADC_SAR_2_RETURN_STATUS));
 2105              		.loc 2 328 0
 2106 0016 FFF7FEFF 		bl	ADC_SAR_2_StartConvert
 2107              	.LVL258:
 2108              	.L171:
 329:main.c        **** 		
 2109              		.loc 2 329 0 discriminator 1
 2110 001a 0120     		movs	r0, #1
 2111 001c FFF7FEFF 		bl	ADC_SAR_2_IsEndConversion
 2112              	.LVL259:
ARM GAS  C:\Users\FRANKL~1\AppData\Local\Temp\ccLkvCvD.s 			page 60


 2113 0020 0028     		cmp	r0, #0
 2114 0022 FAD0     		beq	.L171
 331:main.c        **** 		
 2115              		.loc 2 331 0 discriminator 2
 2116 0024 FFF7FEFF 		bl	ADC_SAR_2_GetResult16
 2117              	.LVL260:
 2118 0028 FFF7FEFF 		bl	ADC_SAR_2_CountsTo_uVolts
 2119              	.LVL261:
 2120 002c 0746     		mov	r7, r0
 2121              	.LVL262:
 333:main.c        **** 		SAR_Result += ((float)SAR2_Result_Current - (float)SAR_Result)/(float)i;
 2122              		.loc 2 333 0 discriminator 2
 2123 002e 601E     		subs	r0, r4, #1
 2124              	.LVL263:
 2125 0030 FFF7FEFF 		bl	__aeabi_ui2f
 2126              	.LVL264:
 2127 0034 8046     		mov	r8, r0
 2128 0036 2046     		mov	r0, r4
 2129 0038 FFF7FEFF 		bl	__aeabi_ui2f
 2130              	.LVL265:
 2131 003c 0646     		mov	r6, r0
 2132 003e 0146     		mov	r1, r0
 2133 0040 4046     		mov	r0, r8
 2134 0042 FFF7FEFF 		bl	__aeabi_fdiv
 2135              	.LVL266:
 2136 0046 8246     		mov	r10, r0
 2137 0048 781B     		subs	r0, r7, r5
 2138 004a FFF7FEFF 		bl	__aeabi_i2f
 2139              	.LVL267:
 2140 004e 8046     		mov	r8, r0
 2141 0050 0146     		mov	r1, r0
 2142 0052 5046     		mov	r0, r10
 2143 0054 FFF7FEFF 		bl	__aeabi_fmul
 2144              	.LVL268:
 2145 0058 0146     		mov	r1, r0
 2146 005a 4046     		mov	r0, r8
 2147 005c FFF7FEFF 		bl	__aeabi_fmul
 2148              	.LVL269:
 2149 0060 8046     		mov	r8, r0
 2150 0062 4846     		mov	r0, r9
 2151 0064 FFF7FEFF 		bl	__aeabi_i2f
 2152              	.LVL270:
 2153 0068 4146     		mov	r1, r8
 2154 006a FFF7FEFF 		bl	__aeabi_fadd
 2155              	.LVL271:
 2156 006e FFF7FEFF 		bl	__aeabi_f2iz
 2157              	.LVL272:
 2158 0072 8146     		mov	r9, r0
 2159              	.LVL273:
 334:main.c        **** 	}
 2160              		.loc 2 334 0 discriminator 2
 2161 0074 3846     		mov	r0, r7
 2162              	.LVL274:
 2163 0076 FFF7FEFF 		bl	__aeabi_i2f
 2164              	.LVL275:
 2165 007a 0746     		mov	r7, r0
 2166              	.LVL276:
ARM GAS  C:\Users\FRANKL~1\AppData\Local\Temp\ccLkvCvD.s 			page 61


 2167 007c 2846     		mov	r0, r5
 2168 007e FFF7FEFF 		bl	__aeabi_i2f
 2169              	.LVL277:
 2170 0082 0546     		mov	r5, r0
 2171              	.LVL278:
 2172 0084 0146     		mov	r1, r0
 2173 0086 3846     		mov	r0, r7
 2174 0088 FFF7FEFF 		bl	__aeabi_fsub
 2175              	.LVL279:
 2176 008c 3146     		mov	r1, r6
 2177 008e FFF7FEFF 		bl	__aeabi_fdiv
 2178              	.LVL280:
 2179 0092 0146     		mov	r1, r0
 2180 0094 2846     		mov	r0, r5
 2181 0096 FFF7FEFF 		bl	__aeabi_fadd
 2182              	.LVL281:
 2183 009a FFF7FEFF 		bl	__aeabi_f2iz
 2184              	.LVL282:
 2185 009e 0546     		mov	r5, r0
 2186              	.LVL283:
 2187              	.LBE28:
 327:main.c        **** 		ADC_SAR_2_StartConvert();
 2188              		.loc 2 327 0 discriminator 2
 2189 00a0 0134     		adds	r4, r4, #1
 2190              	.LVL284:
 2191              	.L170:
 327:main.c        **** 		ADC_SAR_2_StartConvert();
 2192              		.loc 2 327 0 is_stmt 0 discriminator 1
 2193 00a2 5C45     		cmp	r4, fp
 2194 00a4 B7D9     		bls	.L172
 2195              	.LBE29:
 337:main.c        **** 	*standardDeviation = SAR_SD;
 2196              		.loc 2 337 0 is_stmt 1
 2197 00a6 009B     		ldr	r3, [sp]
 2198 00a8 1D60     		str	r5, [r3]
 338:main.c        **** }
 2199              		.loc 2 338 0
 2200 00aa 019B     		ldr	r3, [sp, #4]
 2201 00ac C3F80090 		str	r9, [r3]
 339:main.c        **** 
 2202              		.loc 2 339 0
 2203 00b0 03B0     		add	sp, sp, #12
 2204              		.cfi_def_cfa_offset 36
 2205              	.LVL285:
 2206              		@ sp needed
 2207 00b2 BDE8F08F 		pop	{r4, r5, r6, r7, r8, r9, r10, fp, pc}
 2208              		.cfi_endproc
 2209              	.LFE87:
 2210              		.size	SAR2_Measure_V, .-SAR2_Measure_V
 2211              		.global	__aeabi_f2d
 2212              		.global	__aeabi_ddiv
 2213              		.global	__aeabi_d2f
 2214              		.global	__aeabi_i2d
 2215              		.global	__aeabi_dcmpgt
 2216              		.global	__aeabi_dsub
 2217              		.global	__aeabi_dmul
 2218              		.global	__aeabi_dadd
ARM GAS  C:\Users\FRANKL~1\AppData\Local\Temp\ccLkvCvD.s 			page 62


 2219 00b6 00BF     		.section	.text.Measure_Current_Vss,"ax",%progbits
 2220              		.align	2
 2221              		.global	Measure_Current_Vss
 2222              		.thumb
 2223              		.thumb_func
 2224              		.type	Measure_Current_Vss, %function
 2225              	Measure_Current_Vss:
 2226              	.LFB88:
 342:main.c        **** 	Compliance_Reached = 0;
 2227              		.loc 2 342 0
 2228              		.cfi_startproc
 2229              		@ args = 0, pretend = 0, frame = 32
 2230              		@ frame_needed = 0, uses_anonymous_args = 0
 2231              	.LVL286:
 2232 0000 2DE9F04F 		push	{r4, r5, r6, r7, r8, r9, r10, fp, lr}
 2233              		.cfi_def_cfa_offset 36
 2234              		.cfi_offset 4, -36
 2235              		.cfi_offset 5, -32
 2236              		.cfi_offset 6, -28
 2237              		.cfi_offset 7, -24
 2238              		.cfi_offset 8, -20
 2239              		.cfi_offset 9, -16
 2240              		.cfi_offset 10, -12
 2241              		.cfi_offset 11, -8
 2242              		.cfi_offset 14, -4
 2243 0004 89B0     		sub	sp, sp, #36
 2244              		.cfi_def_cfa_offset 72
 2245 0006 0490     		str	r0, [sp, #16]
 2246 0008 0591     		str	r1, [sp, #20]
 2247 000a 9346     		mov	fp, r2
 343:main.c        **** 	
 2248              		.loc 2 343 0
 2249 000c 0023     		movs	r3, #0
 2250 000e 4A4A     		ldr	r2, .L183+16
 2251              	.LVL287:
 2252 0010 1370     		strb	r3, [r2]
 346:main.c        **** 	int32 voltageSD = 0;
 2253              		.loc 2 346 0
 2254 0012 0793     		str	r3, [sp, #28]
 347:main.c        **** 	
 2255              		.loc 2 347 0
 2256 0014 08AC     		add	r4, sp, #32
 2257 0016 44F8083D 		str	r3, [r4, #-8]!
 2258              	.LVL288:
 355:main.c        **** 	float unitConversion = -1.0e-6/TIA_Feedback_R;
 2259              		.loc 2 355 0
 2260 001a 484B     		ldr	r3, .L183+20
 2261 001c 1A79     		ldrb	r2, [r3, #4]	@ zero_extendqisi2
 2262 001e 484B     		ldr	r3, .L183+24
 2263 0020 03EB8203 		add	r3, r3, r2, lsl #2
 2264              	.LVL289:
 356:main.c        **** 	
 2265              		.loc 2 356 0
 2266 0024 9868     		ldr	r0, [r3, #8]	@ float
 2267              	.LVL290:
 2268 0026 FFF7FEFF 		bl	__aeabi_f2d
 2269              	.LVL291:
ARM GAS  C:\Users\FRANKL~1\AppData\Local\Temp\ccLkvCvD.s 			page 63


 2270 002a 0246     		mov	r2, r0
 2271 002c 0B46     		mov	r3, r1
 2272 002e 3EA1     		adr	r1, .L183
 2273 0030 D1E90001 		ldrd	r0, [r1]
 2274 0034 FFF7FEFF 		bl	__aeabi_ddiv
 2275              	.LVL292:
 2276 0038 FFF7FEFF 		bl	__aeabi_d2f
 2277              	.LVL293:
 2278 003c 0390     		str	r0, [sp, #12]	@ float
 2279              	.LVL294:
 359:main.c        **** 	
 2280              		.loc 2 359 0
 2281 003e 0322     		movs	r2, #3
 2282 0040 2146     		mov	r1, r4
 2283 0042 07A8     		add	r0, sp, #28
 2284              	.LVL295:
 2285 0044 FFF7FEFF 		bl	ADC_Measure_uV
 2286              	.LVL296:
 2287              	.LBB30:
 362:main.c        **** 		ADC_Measure_uV(&voltage, &voltageSD, 1);
 2288              		.loc 2 362 0
 2289 0048 0124     		movs	r4, #1
 2290              	.LBE30:
 353:main.c        **** 	
 2291              		.loc 2 353 0
 2292 004a 4FF00008 		mov	r8, #0
 352:main.c        **** 	float currentStdDev = 0;
 2293              		.loc 2 352 0
 2294 004e C146     		mov	r9, r8
 2295              	.LBB31:
 362:main.c        **** 		ADC_Measure_uV(&voltage, &voltageSD, 1);
 2296              		.loc 2 362 0
 2297 0050 5EE0     		b	.L175
 2298              	.LVL297:
 2299              	.L179:
 363:main.c        **** 		
 2300              		.loc 2 363 0
 2301 0052 0122     		movs	r2, #1
 2302 0054 06A9     		add	r1, sp, #24
 2303 0056 07A8     		add	r0, sp, #28
 2304 0058 FFF7FEFF 		bl	ADC_Measure_uV
 2305              	.LVL298:
 365:main.c        **** 		
 2306              		.loc 2 365 0
 2307 005c 0798     		ldr	r0, [sp, #28]
 2308 005e FFF7FEFF 		bl	__aeabi_i2f
 2309              	.LVL299:
 2310 0062 0146     		mov	r1, r0
 2311 0064 0398     		ldr	r0, [sp, #12]	@ float
 2312 0066 FFF7FEFF 		bl	__aeabi_fmul
 2313              	.LVL300:
 2314 006a 0546     		mov	r5, r0
 2315              	.LVL301:
 367:main.c        **** 			Compliance_Reached += 1;
 2316              		.loc 2 367 0
 2317 006c FFF7FEFF 		bl	__aeabi_f2iz
 2318              	.LVL302:
ARM GAS  C:\Users\FRANKL~1\AppData\Local\Temp\ccLkvCvD.s 			page 64


 2319 0070 0028     		cmp	r0, #0
 2320 0072 B8BF     		it	lt
 2321 0074 4042     		rsblt	r0, r0, #0
 2322 0076 FFF7FEFF 		bl	__aeabi_i2d
 2323              	.LVL303:
 2324 007a 2DA3     		adr	r3, .L183+8
 2325 007c D3E90023 		ldrd	r2, [r3]
 2326 0080 FFF7FEFF 		bl	__aeabi_dcmpgt
 2327              	.LVL304:
 2328 0084 20B1     		cbz	r0, .L181
 368:main.c        **** 			break;
 2329              		.loc 2 368 0
 2330 0086 2C4A     		ldr	r2, .L183+16
 2331 0088 1378     		ldrb	r3, [r2]	@ zero_extendqisi2
 2332 008a 0133     		adds	r3, r3, #1
 2333 008c 1370     		strb	r3, [r2]
 369:main.c        **** 		} else {
 2334              		.loc 2 369 0
 2335 008e 41E0     		b	.L178
 2336              	.L181:
 371:main.c        **** 		}
 2337              		.loc 2 371 0 discriminator 2
 2338 0090 0022     		movs	r2, #0
 2339 0092 294B     		ldr	r3, .L183+16
 2340 0094 1A70     		strb	r2, [r3]
 374:main.c        **** 		currentAverage += (currentNow - currentAverage)/(float)i;
 2341              		.loc 2 374 0 discriminator 2
 2342 0096 2046     		mov	r0, r4
 2343 0098 FFF7FEFF 		bl	__aeabi_ui2f
 2344              	.LVL305:
 2345 009c 8246     		mov	r10, r0
 2346 009e FFF7FEFF 		bl	__aeabi_f2d
 2347              	.LVL306:
 2348 00a2 0646     		mov	r6, r0
 2349 00a4 0F46     		mov	r7, r1
 2350 00a6 0022     		movs	r2, #0
 2351 00a8 264B     		ldr	r3, .L183+28
 2352 00aa FFF7FEFF 		bl	__aeabi_dsub
 2353              	.LVL307:
 2354 00ae 3246     		mov	r2, r6
 2355 00b0 3B46     		mov	r3, r7
 2356 00b2 FFF7FEFF 		bl	__aeabi_ddiv
 2357              	.LVL308:
 2358 00b6 CDE90001 		strd	r0, [sp]
 2359 00ba 4946     		mov	r1, r9
 2360 00bc 2846     		mov	r0, r5
 2361 00be FFF7FEFF 		bl	__aeabi_fsub
 2362              	.LVL309:
 2363 00c2 0546     		mov	r5, r0
 2364              	.LVL310:
 2365 00c4 FFF7FEFF 		bl	__aeabi_f2d
 2366              	.LVL311:
 2367 00c8 0646     		mov	r6, r0
 2368 00ca 0F46     		mov	r7, r1
 2369 00cc 0246     		mov	r2, r0
 2370 00ce 0B46     		mov	r3, r1
 2371 00d0 DDE90001 		ldrd	r0, [sp]
ARM GAS  C:\Users\FRANKL~1\AppData\Local\Temp\ccLkvCvD.s 			page 65


 2372 00d4 FFF7FEFF 		bl	__aeabi_dmul
 2373              	.LVL312:
 2374 00d8 0246     		mov	r2, r0
 2375 00da 0B46     		mov	r3, r1
 2376 00dc 3046     		mov	r0, r6
 2377 00de 3946     		mov	r1, r7
 2378 00e0 FFF7FEFF 		bl	__aeabi_dmul
 2379              	.LVL313:
 2380 00e4 0646     		mov	r6, r0
 2381 00e6 0F46     		mov	r7, r1
 2382 00e8 4046     		mov	r0, r8
 2383 00ea FFF7FEFF 		bl	__aeabi_f2d
 2384              	.LVL314:
 2385 00ee 3246     		mov	r2, r6
 2386 00f0 3B46     		mov	r3, r7
 2387 00f2 FFF7FEFF 		bl	__aeabi_dadd
 2388              	.LVL315:
 2389 00f6 FFF7FEFF 		bl	__aeabi_d2f
 2390              	.LVL316:
 2391 00fa 8046     		mov	r8, r0
 2392              	.LVL317:
 375:main.c        **** 	}
 2393              		.loc 2 375 0 discriminator 2
 2394 00fc 5146     		mov	r1, r10
 2395 00fe 2846     		mov	r0, r5
 2396              	.LVL318:
 2397 0100 FFF7FEFF 		bl	__aeabi_fdiv
 2398              	.LVL319:
 2399 0104 0146     		mov	r1, r0
 2400 0106 4846     		mov	r0, r9
 2401 0108 FFF7FEFF 		bl	__aeabi_fadd
 2402              	.LVL320:
 2403 010c 8146     		mov	r9, r0
 2404              	.LVL321:
 362:main.c        **** 		ADC_Measure_uV(&voltage, &voltageSD, 1);
 2405              		.loc 2 362 0 discriminator 2
 2406 010e 0134     		adds	r4, r4, #1
 2407              	.LVL322:
 2408              	.L175:
 362:main.c        **** 		ADC_Measure_uV(&voltage, &voltageSD, 1);
 2409              		.loc 2 362 0 is_stmt 0 discriminator 1
 2410 0110 5C45     		cmp	r4, fp
 2411 0112 9ED9     		bls	.L179
 2412              	.L178:
 2413              	.LBE31:
 378:main.c        **** 	*currentStdDevIn = currentStdDev;
 2414              		.loc 2 378 0 is_stmt 1
 2415 0114 049B     		ldr	r3, [sp, #16]
 2416 0116 C3F80090 		str	r9, [r3]	@ float
 379:main.c        **** }
 2417              		.loc 2 379 0
 2418 011a 059B     		ldr	r3, [sp, #20]
 2419 011c C3F80080 		str	r8, [r3]	@ float
 380:main.c        **** 
 2420              		.loc 2 380 0
 2421 0120 09B0     		add	sp, sp, #36
 2422              		.cfi_def_cfa_offset 36
ARM GAS  C:\Users\FRANKL~1\AppData\Local\Temp\ccLkvCvD.s 			page 66


 2423              		@ sp needed
 2424 0122 BDE8F08F 		pop	{r4, r5, r6, r7, r8, r9, r10, fp, pc}
 2425              	.LVL323:
 2426              	.L184:
 2427 0126 00BF     		.align	3
 2428              	.L183:
 2429 0128 8DEDB5A0 		.word	-1598689907
 2430 012c F7C6B0BE 		.word	-1095710985
 2431 0130 F168E388 		.word	-1998362383
 2432 0134 B5F8E43E 		.word	1055193269
 2433 0138 00000000 		.word	Compliance_Reached
 2434 013c 00000000 		.word	.LANCHOR0
 2435 0140 00000000 		.word	.LANCHOR1
 2436 0144 0000F03F 		.word	1072693248
 2437              		.cfi_endproc
 2438              	.LFE88:
 2439              		.size	Measure_Current_Vss, .-Measure_Current_Vss
 2440              		.section	.text.At_Compliance,"ax",%progbits
 2441              		.align	2
 2442              		.global	At_Compliance
 2443              		.thumb
 2444              		.thumb_func
 2445              		.type	At_Compliance, %function
 2446              	At_Compliance:
 2447              	.LFB89:
 382:main.c        **** 	Compliance_Reached = 0;
 2448              		.loc 2 382 0
 2449              		.cfi_startproc
 2450              		@ args = 0, pretend = 0, frame = 8
 2451              		@ frame_needed = 0, uses_anonymous_args = 0
 2452 0000 00B5     		push	{lr}
 2453              		.cfi_def_cfa_offset 4
 2454              		.cfi_offset 14, -4
 2455 0002 83B0     		sub	sp, sp, #12
 2456              		.cfi_def_cfa_offset 16
 383:main.c        **** 	
 2457              		.loc 2 383 0
 2458 0004 0022     		movs	r2, #0
 2459 0006 124B     		ldr	r3, .L192+8
 2460 0008 1A70     		strb	r2, [r3]
 385:main.c        **** 	float currentSD = 0;
 2461              		.loc 2 385 0
 2462 000a 0023     		movs	r3, #0
 2463 000c 0193     		str	r3, [sp, #4]	@ float
 386:main.c        **** 	
 2464              		.loc 2 386 0
 2465 000e 02A9     		add	r1, sp, #8
 2466 0010 41F8083D 		str	r3, [r1, #-8]!	@ float
 388:main.c        **** 	
 2467              		.loc 2 388 0
 2468 0014 0322     		movs	r2, #3
 2469 0016 01A8     		add	r0, sp, #4
 2470 0018 FFF7FEFF 		bl	Measure_Current_Vss
 2471              	.LVL324:
 390:main.c        **** 		Compliance_Reached = 1;
 2472              		.loc 2 390 0
 2473 001c 0198     		ldr	r0, [sp, #4]	@ float
ARM GAS  C:\Users\FRANKL~1\AppData\Local\Temp\ccLkvCvD.s 			page 67


 2474 001e FFF7FEFF 		bl	__aeabi_f2iz
 2475              	.LVL325:
 2476 0022 0028     		cmp	r0, #0
 2477 0024 B8BF     		it	lt
 2478 0026 4042     		rsblt	r0, r0, #0
 2479 0028 FFF7FEFF 		bl	__aeabi_i2d
 2480              	.LVL326:
 2481 002c 06A3     		adr	r3, .L192
 2482 002e D3E90023 		ldrd	r2, [r3]
 2483 0032 FFF7FEFF 		bl	__aeabi_dcmpgt
 2484              	.LVL327:
 2485 0036 18B1     		cbz	r0, .L190
 391:main.c        **** 		return 1;
 2486              		.loc 2 391 0
 2487 0038 0120     		movs	r0, #1
 2488 003a 054B     		ldr	r3, .L192+8
 2489 003c 1870     		strb	r0, [r3]
 392:main.c        **** 	}
 2490              		.loc 2 392 0
 2491 003e 00E0     		b	.L186
 2492              	.L190:
 395:main.c        **** }
 2493              		.loc 2 395 0
 2494 0040 0020     		movs	r0, #0
 2495              	.L186:
 396:main.c        **** 
 2496              		.loc 2 396 0
 2497 0042 03B0     		add	sp, sp, #12
 2498              		.cfi_def_cfa_offset 4
 2499              		@ sp needed
 2500 0044 5DF804FB 		ldr	pc, [sp], #4
 2501              	.L193:
 2502              		.align	3
 2503              	.L192:
 2504 0048 F168E388 		.word	-1998362383
 2505 004c B5F8E43E 		.word	1055193269
 2506 0050 00000000 		.word	Compliance_Reached
 2507              		.cfi_endproc
 2508              	.LFE89:
 2509              		.size	At_Compliance, .-At_Compliance
 2510              		.section	.text.Handle_Compliance_Breach,"ax",%progbits
 2511              		.align	2
 2512              		.global	Handle_Compliance_Breach
 2513              		.thumb
 2514              		.thumb_func
 2515              		.type	Handle_Compliance_Breach, %function
 2516              	Handle_Compliance_Breach:
 2517              	.LFB90:
 398:main.c        **** 	uint8 istart = VDAC_Vds_Data;
 2518              		.loc 2 398 0
 2519              		.cfi_startproc
 2520              		@ args = 0, pretend = 0, frame = 0
 2521              		@ frame_needed = 0, uses_anonymous_args = 0
 2522 0000 70B5     		push	{r4, r5, r6, lr}
 2523              		.cfi_def_cfa_offset 16
 2524              		.cfi_offset 4, -16
 2525              		.cfi_offset 5, -12
ARM GAS  C:\Users\FRANKL~1\AppData\Local\Temp\ccLkvCvD.s 			page 68


 2526              		.cfi_offset 6, -8
 2527              		.cfi_offset 14, -4
 399:main.c        **** 	uint8 istop = VDAC_Ref_Data;
 2528              		.loc 2 399 0
 2529 0002 174B     		ldr	r3, .L205
 2530 0004 1C78     		ldrb	r4, [r3]	@ zero_extendqisi2
 2531 0006 E4B2     		uxtb	r4, r4
 2532              	.LVL328:
 400:main.c        **** 	int8 increment = 1;
 2533              		.loc 2 400 0
 2534 0008 0233     		adds	r3, r3, #2
 2535 000a 1D78     		ldrb	r5, [r3]	@ zero_extendqisi2
 2536 000c EDB2     		uxtb	r5, r5
 2537              	.LVL329:
 402:main.c        **** 	
 2538              		.loc 2 402 0
 2539 000e AC42     		cmp	r4, r5
 2540 0010 01D3     		bcc	.L202
 401:main.c        **** 	if (istart < istop) increment = -1;
 2541              		.loc 2 401 0
 2542 0012 0126     		movs	r6, #1
 2543 0014 0AE0     		b	.L196
 2544              	.L202:
 402:main.c        **** 	
 2545              		.loc 2 402 0
 2546 0016 4FF0FF36 		mov	r6, #-1
 2547              	.LVL330:
 2548              	.LBB32:
 404:main.c        **** 		VDAC_Vds_SetValue(i);
 2549              		.loc 2 404 0
 2550 001a 07E0     		b	.L196
 2551              	.LVL331:
 2552              	.L198:
 405:main.c        **** 		
 2553              		.loc 2 405 0
 2554 001c 2046     		mov	r0, r4
 2555 001e FFF7FEFF 		bl	VDAC_Vds_SetValue
 2556              	.LVL332:
 407:main.c        **** 	}
 2557              		.loc 2 407 0
 2558 0022 FFF7FEFF 		bl	At_Compliance
 2559              	.LVL333:
 2560 0026 D0B1     		cbz	r0, .L194
 404:main.c        **** 		VDAC_Vds_SetValue(i);
 2561              		.loc 2 404 0 discriminator 2
 2562 0028 3444     		add	r4, r4, r6
 2563              	.LVL334:
 2564 002a E4B2     		uxtb	r4, r4
 2565              	.LVL335:
 2566              	.L196:
 404:main.c        **** 		VDAC_Vds_SetValue(i);
 2567              		.loc 2 404 0 is_stmt 0 discriminator 1
 2568 002c AC42     		cmp	r4, r5
 2569 002e F5D1     		bne	.L198
 2570              	.LBE32:
 410:main.c        **** 	istop = VDAC_Ref_Data;
 2571              		.loc 2 410 0 is_stmt 1
ARM GAS  C:\Users\FRANKL~1\AppData\Local\Temp\ccLkvCvD.s 			page 69


 2572 0030 0C4B     		ldr	r3, .L205+4
 2573 0032 1C78     		ldrb	r4, [r3]	@ zero_extendqisi2
 2574              	.LVL336:
 2575 0034 E4B2     		uxtb	r4, r4
 2576              	.LVL337:
 411:main.c        **** 	increment = 1;
 2577              		.loc 2 411 0
 2578 0036 013B     		subs	r3, r3, #1
 2579 0038 1D78     		ldrb	r5, [r3]	@ zero_extendqisi2
 2580              	.LVL338:
 2581 003a EDB2     		uxtb	r5, r5
 2582              	.LVL339:
 413:main.c        **** 	
 2583              		.loc 2 413 0
 2584 003c AC42     		cmp	r4, r5
 2585 003e 01D3     		bcc	.L203
 412:main.c        **** 	if (istart < istop) increment = -1;
 2586              		.loc 2 412 0
 2587 0040 0126     		movs	r6, #1
 2588 0042 0AE0     		b	.L200
 2589              	.L203:
 413:main.c        **** 	
 2590              		.loc 2 413 0
 2591 0044 4FF0FF36 		mov	r6, #-1
 2592              	.LVL340:
 2593              	.LBB33:
 415:main.c        **** 		VDAC_Vgs_SetValue(i);
 2594              		.loc 2 415 0
 2595 0048 07E0     		b	.L200
 2596              	.LVL341:
 2597              	.L201:
 416:main.c        **** 		
 2598              		.loc 2 416 0
 2599 004a 2046     		mov	r0, r4
 2600 004c FFF7FEFF 		bl	VDAC_Vgs_SetValue
 2601              	.LVL342:
 418:main.c        **** 	}
 2602              		.loc 2 418 0
 2603 0050 FFF7FEFF 		bl	At_Compliance
 2604              	.LVL343:
 2605 0054 18B1     		cbz	r0, .L194
 415:main.c        **** 		VDAC_Vgs_SetValue(i);
 2606              		.loc 2 415 0 discriminator 2
 2607 0056 3444     		add	r4, r4, r6
 2608              	.LVL344:
 2609 0058 E4B2     		uxtb	r4, r4
 2610              	.LVL345:
 2611              	.L200:
 415:main.c        **** 		VDAC_Vgs_SetValue(i);
 2612              		.loc 2 415 0 is_stmt 0 discriminator 1
 2613 005a AC42     		cmp	r4, r5
 2614 005c F5D1     		bne	.L201
 2615              	.LVL346:
 2616              	.L194:
 2617 005e 70BD     		pop	{r4, r5, r6, pc}
 2618              	.LVL347:
 2619              	.L206:
ARM GAS  C:\Users\FRANKL~1\AppData\Local\Temp\ccLkvCvD.s 			page 70


 2620              		.align	2
 2621              	.L205:
 2622 0060 805B0040 		.word	1073765248
 2623 0064 835B0040 		.word	1073765251
 2624              	.LBE33:
 2625              		.cfi_endproc
 2626              	.LFE90:
 2627              		.size	Handle_Compliance_Breach, .-Handle_Compliance_Breach
 2628              		.section	.text.Get_Ref,"ax",%progbits
 2629              		.align	2
 2630              		.global	Get_Ref
 2631              		.thumb
 2632              		.thumb_func
 2633              		.type	Get_Ref, %function
 2634              	Get_Ref:
 2635              	.LFB91:
 425:main.c        **** 	float result = 4.080/255.0*VDAC_Ref_Data;
 2636              		.loc 2 425 0 is_stmt 1
 2637              		.cfi_startproc
 2638              		@ args = 0, pretend = 0, frame = 0
 2639              		@ frame_needed = 0, uses_anonymous_args = 0
 2640 0000 08B5     		push	{r3, lr}
 2641              		.cfi_def_cfa_offset 8
 2642              		.cfi_offset 3, -8
 2643              		.cfi_offset 14, -4
 426:main.c        **** 	if (VDAC_Ref_CR0 & (VDAC_Ref_RANGE_1V & VDAC_Ref_RANGE_MASK)) {
 2644              		.loc 2 426 0
 2645 0002 094B     		ldr	r3, .L209+8
 2646 0004 1878     		ldrb	r0, [r3]	@ zero_extendqisi2
 2647 0006 FFF7FEFF 		bl	__aeabi_i2d
 2648              	.LVL348:
 2649 000a 05A3     		adr	r3, .L209
 2650 000c D3E90023 		ldrd	r2, [r3]
 2651 0010 FFF7FEFF 		bl	__aeabi_dmul
 2652              	.LVL349:
 2653 0014 FFF7FEFF 		bl	__aeabi_d2f
 2654              	.LVL350:
 427:main.c        **** 		result = 1.020/255.0*VDAC_Ref_Data;
 2655              		.loc 2 427 0
 2656 0018 044B     		ldr	r3, .L209+12
 2657 001a 1B78     		ldrb	r3, [r3]	@ zero_extendqisi2
 431:main.c        **** 
 2658              		.loc 2 431 0
 2659 001c 08BD     		pop	{r3, pc}
 2660              	.L210:
 2661 001e 00BF     		.align	3
 2662              	.L209:
 2663 0020 FCA9F1D2 		.word	-755914244
 2664 0024 4D62903F 		.word	1066426957
 2665 0028 825B0040 		.word	1073765250
 2666 002c 28580040 		.word	1073764392
 2667              		.cfi_endproc
 2668              	.LFE91:
 2669              		.size	Get_Ref, .-Get_Ref
 2670              		.section	.text.Get_Vgs,"ax",%progbits
 2671              		.align	2
 2672              		.global	Get_Vgs
ARM GAS  C:\Users\FRANKL~1\AppData\Local\Temp\ccLkvCvD.s 			page 71


 2673              		.thumb
 2674              		.thumb_func
 2675              		.type	Get_Vgs, %function
 2676              	Get_Vgs:
 2677              	.LFB92:
 434:main.c        **** 	float result = 4.080/255.0*VDAC_Vgs_Data - Get_Ref();
 2678              		.loc 2 434 0
 2679              		.cfi_startproc
 2680              		@ args = 0, pretend = 0, frame = 0
 2681              		@ frame_needed = 0, uses_anonymous_args = 0
 2682 0000 38B5     		push	{r3, r4, r5, lr}
 2683              		.cfi_def_cfa_offset 16
 2684              		.cfi_offset 3, -16
 2685              		.cfi_offset 4, -12
 2686              		.cfi_offset 5, -8
 2687              		.cfi_offset 14, -4
 435:main.c        **** 	if (VDAC_Vgs_CR0 & (VDAC_Vgs_RANGE_1V & VDAC_Vgs_RANGE_MASK)) {
 2688              		.loc 2 435 0
 2689 0002 0F4B     		ldr	r3, .L213+8
 2690 0004 1878     		ldrb	r0, [r3]	@ zero_extendqisi2
 2691 0006 FFF7FEFF 		bl	__aeabi_i2d
 2692              	.LVL351:
 2693 000a 0BA3     		adr	r3, .L213
 2694 000c D3E90023 		ldrd	r2, [r3]
 2695 0010 FFF7FEFF 		bl	__aeabi_dmul
 2696              	.LVL352:
 2697 0014 0446     		mov	r4, r0
 2698 0016 0D46     		mov	r5, r1
 2699 0018 FFF7FEFF 		bl	Get_Ref
 2700              	.LVL353:
 2701 001c FFF7FEFF 		bl	__aeabi_f2d
 2702              	.LVL354:
 2703 0020 0246     		mov	r2, r0
 2704 0022 0B46     		mov	r3, r1
 2705 0024 2046     		mov	r0, r4
 2706 0026 2946     		mov	r1, r5
 2707 0028 FFF7FEFF 		bl	__aeabi_dsub
 2708              	.LVL355:
 2709 002c FFF7FEFF 		bl	__aeabi_d2f
 2710              	.LVL356:
 436:main.c        **** 		result = 1.020/255.0*VDAC_Vgs_Data - Get_Ref();
 2711              		.loc 2 436 0
 2712 0030 044B     		ldr	r3, .L213+12
 2713 0032 1B78     		ldrb	r3, [r3]	@ zero_extendqisi2
 440:main.c        **** 
 2714              		.loc 2 440 0
 2715 0034 38BD     		pop	{r3, r4, r5, pc}
 2716              	.L214:
 2717 0036 00BF     		.align	3
 2718              	.L213:
 2719 0038 FCA9F1D2 		.word	-755914244
 2720 003c 4D62903F 		.word	1066426957
 2721 0040 835B0040 		.word	1073765251
 2722 0044 2C580040 		.word	1073764396
 2723              		.cfi_endproc
 2724              	.LFE92:
 2725              		.size	Get_Vgs, .-Get_Vgs
ARM GAS  C:\Users\FRANKL~1\AppData\Local\Temp\ccLkvCvD.s 			page 72


 2726              		.section	.text.Get_Vds,"ax",%progbits
 2727              		.align	2
 2728              		.global	Get_Vds
 2729              		.thumb
 2730              		.thumb_func
 2731              		.type	Get_Vds, %function
 2732              	Get_Vds:
 2733              	.LFB93:
 443:main.c        **** 	float result = 4.080/255.0*VDAC_Vds_Data - Get_Ref();
 2734              		.loc 2 443 0
 2735              		.cfi_startproc
 2736              		@ args = 0, pretend = 0, frame = 0
 2737              		@ frame_needed = 0, uses_anonymous_args = 0
 2738 0000 38B5     		push	{r3, r4, r5, lr}
 2739              		.cfi_def_cfa_offset 16
 2740              		.cfi_offset 3, -16
 2741              		.cfi_offset 4, -12
 2742              		.cfi_offset 5, -8
 2743              		.cfi_offset 14, -4
 444:main.c        **** 	if (VDAC_Vds_CR0 & (VDAC_Vds_RANGE_1V & VDAC_Vds_RANGE_MASK)) {
 2744              		.loc 2 444 0
 2745 0002 0F4B     		ldr	r3, .L217+8
 2746 0004 1878     		ldrb	r0, [r3]	@ zero_extendqisi2
 2747 0006 FFF7FEFF 		bl	__aeabi_i2d
 2748              	.LVL357:
 2749 000a 0BA3     		adr	r3, .L217
 2750 000c D3E90023 		ldrd	r2, [r3]
 2751 0010 FFF7FEFF 		bl	__aeabi_dmul
 2752              	.LVL358:
 2753 0014 0446     		mov	r4, r0
 2754 0016 0D46     		mov	r5, r1
 2755 0018 FFF7FEFF 		bl	Get_Ref
 2756              	.LVL359:
 2757 001c FFF7FEFF 		bl	__aeabi_f2d
 2758              	.LVL360:
 2759 0020 0246     		mov	r2, r0
 2760 0022 0B46     		mov	r3, r1
 2761 0024 2046     		mov	r0, r4
 2762 0026 2946     		mov	r1, r5
 2763 0028 FFF7FEFF 		bl	__aeabi_dsub
 2764              	.LVL361:
 2765 002c FFF7FEFF 		bl	__aeabi_d2f
 2766              	.LVL362:
 445:main.c        **** 		result = 1.020/255.0*VDAC_Vds_Data - Get_Ref();
 2767              		.loc 2 445 0
 2768 0030 044B     		ldr	r3, .L217+12
 2769 0032 1B78     		ldrb	r3, [r3]	@ zero_extendqisi2
 449:main.c        **** 
 2770              		.loc 2 449 0
 2771 0034 38BD     		pop	{r3, r4, r5, pc}
 2772              	.L218:
 2773 0036 00BF     		.align	3
 2774              	.L217:
 2775 0038 FCA9F1D2 		.word	-755914244
 2776 003c 4D62903F 		.word	1066426957
 2777 0040 805B0040 		.word	1073765248
 2778 0044 20580040 		.word	1073764384
ARM GAS  C:\Users\FRANKL~1\AppData\Local\Temp\ccLkvCvD.s 			page 73


 2779              		.cfi_endproc
 2780              	.LFE93:
 2781              		.size	Get_Vds, .-Get_Vds
 2782              		.section	.text.Set_Vds_Raw,"ax",%progbits
 2783              		.align	2
 2784              		.global	Set_Vds_Raw
 2785              		.thumb
 2786              		.thumb_func
 2787              		.type	Set_Vds_Raw, %function
 2788              	Set_Vds_Raw:
 2789              	.LFB94:
 454:main.c        **** 	Vds_Index_Goal_Relative = (int16)value - (int16)VDAC_Ref_Data;
 2790              		.loc 2 454 0
 2791              		.cfi_startproc
 2792              		@ args = 0, pretend = 0, frame = 0
 2793              		@ frame_needed = 0, uses_anonymous_args = 0
 2794              	.LVL363:
 2795 0000 2DE9F041 		push	{r4, r5, r6, r7, r8, lr}
 2796              		.cfi_def_cfa_offset 24
 2797              		.cfi_offset 4, -24
 2798              		.cfi_offset 5, -20
 2799              		.cfi_offset 6, -16
 2800              		.cfi_offset 7, -12
 2801              		.cfi_offset 8, -8
 2802              		.cfi_offset 14, -4
 2803 0004 8046     		mov	r8, r0
 455:main.c        **** 	
 2804              		.loc 2 455 0
 2805 0006 184B     		ldr	r3, .L230
 2806 0008 1B78     		ldrb	r3, [r3]	@ zero_extendqisi2
 2807 000a C31A     		subs	r3, r0, r3
 2808 000c 174A     		ldr	r2, .L230+4
 2809 000e 1380     		strh	r3, [r2]	@ movhi
 457:main.c        **** 	int8 increment = 1;
 2810              		.loc 2 457 0
 2811 0010 174B     		ldr	r3, .L230+8
 2812 0012 1D78     		ldrb	r5, [r3]	@ zero_extendqisi2
 2813 0014 EDB2     		uxtb	r5, r5
 2814              	.LVL364:
 459:main.c        **** 	
 2815              		.loc 2 459 0
 2816 0016 A842     		cmp	r0, r5
 2817 0018 01D3     		bcc	.L227
 458:main.c        **** 	if (istart > value) increment = -1;
 2818              		.loc 2 458 0
 2819 001a 0126     		movs	r6, #1
 2820 001c 01E0     		b	.L220
 2821              	.L227:
 459:main.c        **** 	
 2822              		.loc 2 459 0
 2823 001e 4FF0FF36 		mov	r6, #-1
 2824              	.L220:
 2825              	.LVL365:
 2826              	.LBB34:
 461:main.c        **** 		if (At_Compliance()) {
 2827              		.loc 2 461 0
 2828 0022 0027     		movs	r7, #0
ARM GAS  C:\Users\FRANKL~1\AppData\Local\Temp\ccLkvCvD.s 			page 74


 2829 0024 1BE0     		b	.L221
 2830              	.LVL366:
 2831              	.L226:
 462:main.c        **** 			for (uint8 j = i; j != istart; j -= increment) {
 2832              		.loc 2 462 0
 2833 0026 FFF7FEFF 		bl	At_Compliance
 2834              	.LVL367:
 2835 002a 48B9     		cbnz	r0, .L228
 2836 002c 12E0     		b	.L223
 2837              	.LVL368:
 2838              	.L225:
 2839              	.LBB35:
 464:main.c        **** 				
 2840              		.loc 2 464 0
 2841 002e 2046     		mov	r0, r4
 2842 0030 FFF7FEFF 		bl	VDAC_Vds_SetValue
 2843              	.LVL369:
 466:main.c        **** 			}
 2844              		.loc 2 466 0
 2845 0034 FFF7FEFF 		bl	At_Compliance
 2846              	.LVL370:
 2847 0038 98B1     		cbz	r0, .L219
 463:main.c        **** 				VDAC_Vds_SetValue(j);
 2848              		.loc 2 463 0 discriminator 2
 2849 003a A41B     		subs	r4, r4, r6
 2850              	.LVL371:
 2851 003c E4B2     		uxtb	r4, r4
 2852              	.LVL372:
 2853 003e 00E0     		b	.L222
 2854              	.LVL373:
 2855              	.L228:
 2856              	.LBE35:
 2857 0040 3C46     		mov	r4, r7
 2858              	.L222:
 2859              	.LVL374:
 2860              	.LBB36:
 463:main.c        **** 				VDAC_Vds_SetValue(j);
 2861              		.loc 2 463 0 is_stmt 0 discriminator 1
 2862 0042 AC42     		cmp	r4, r5
 2863 0044 F3D1     		bne	.L225
 2864              	.LBE36:
 468:main.c        **** 				Handle_Compliance_Breach();
 2865              		.loc 2 468 0 is_stmt 1
 2866 0046 FFF7FEFF 		bl	At_Compliance
 2867              	.LVL375:
 2868 004a 18B1     		cbz	r0, .L223
 469:main.c        **** 				return;
 2869              		.loc 2 469 0
 2870 004c FFF7FEFF 		bl	Handle_Compliance_Breach
 2871              	.LVL376:
 470:main.c        **** 			}
 2872              		.loc 2 470 0
 2873 0050 BDE8F081 		pop	{r4, r5, r6, r7, r8, pc}
 2874              	.LVL377:
 2875              	.L223:
 474:main.c        **** 	}
 2876              		.loc 2 474 0 discriminator 2
ARM GAS  C:\Users\FRANKL~1\AppData\Local\Temp\ccLkvCvD.s 			page 75


 2877 0054 3846     		mov	r0, r7
 2878 0056 FFF7FEFF 		bl	VDAC_Vds_SetValue
 2879              	.LVL378:
 461:main.c        **** 		if (At_Compliance()) {
 2880              		.loc 2 461 0 discriminator 2
 2881 005a 3744     		add	r7, r7, r6
 2882              	.LVL379:
 2883 005c FFB2     		uxtb	r7, r7
 2884              	.LVL380:
 2885              	.L221:
 461:main.c        **** 		if (At_Compliance()) {
 2886              		.loc 2 461 0 is_stmt 0 discriminator 1
 2887 005e 4745     		cmp	r7, r8
 2888 0060 E1D1     		bne	.L226
 2889              	.L219:
 2890 0062 BDE8F081 		pop	{r4, r5, r6, r7, r8, pc}
 2891              	.LVL381:
 2892              	.L231:
 2893 0066 00BF     		.align	2
 2894              	.L230:
 2895 0068 825B0040 		.word	1073765250
 2896 006c 00000000 		.word	Vds_Index_Goal_Relative
 2897 0070 805B0040 		.word	1073765248
 2898              	.LBE34:
 2899              		.cfi_endproc
 2900              	.LFE94:
 2901              		.size	Set_Vds_Raw, .-Set_Vds_Raw
 2902              		.section	.text.Set_Vgs_Raw,"ax",%progbits
 2903              		.align	2
 2904              		.global	Set_Vgs_Raw
 2905              		.thumb
 2906              		.thumb_func
 2907              		.type	Set_Vgs_Raw, %function
 2908              	Set_Vgs_Raw:
 2909              	.LFB95:
 479:main.c        **** 	Vgs_Index_Goal_Relative = (int16)value - (int16)VDAC_Ref_Data;
 2910              		.loc 2 479 0 is_stmt 1
 2911              		.cfi_startproc
 2912              		@ args = 0, pretend = 0, frame = 0
 2913              		@ frame_needed = 0, uses_anonymous_args = 0
 2914              	.LVL382:
 2915 0000 2DE9F041 		push	{r4, r5, r6, r7, r8, lr}
 2916              		.cfi_def_cfa_offset 24
 2917              		.cfi_offset 4, -24
 2918              		.cfi_offset 5, -20
 2919              		.cfi_offset 6, -16
 2920              		.cfi_offset 7, -12
 2921              		.cfi_offset 8, -8
 2922              		.cfi_offset 14, -4
 2923 0004 8046     		mov	r8, r0
 480:main.c        **** 	
 2924              		.loc 2 480 0
 2925 0006 184B     		ldr	r3, .L243
 2926 0008 1B78     		ldrb	r3, [r3]	@ zero_extendqisi2
 2927 000a C31A     		subs	r3, r0, r3
 2928 000c 174A     		ldr	r2, .L243+4
 2929 000e 1380     		strh	r3, [r2]	@ movhi
ARM GAS  C:\Users\FRANKL~1\AppData\Local\Temp\ccLkvCvD.s 			page 76


 2930              	.LVL383:
 483:main.c        **** 	if (value < istart) increment = -1;
 2931              		.loc 2 483 0
 2932 0010 174B     		ldr	r3, .L243+8
 2933 0012 1D78     		ldrb	r5, [r3]	@ zero_extendqisi2
 2934 0014 EDB2     		uxtb	r5, r5
 2935              	.LVL384:
 484:main.c        **** 	
 2936              		.loc 2 484 0
 2937 0016 A842     		cmp	r0, r5
 2938 0018 01D3     		bcc	.L240
 482:main.c        **** 	uint8 istart = VDAC_Vgs_Data;
 2939              		.loc 2 482 0
 2940 001a 0126     		movs	r6, #1
 2941 001c 01E0     		b	.L233
 2942              	.L240:
 484:main.c        **** 	
 2943              		.loc 2 484 0
 2944 001e 4FF0FF36 		mov	r6, #-1
 2945              	.L233:
 2946              	.LVL385:
 2947              	.LBB37:
 486:main.c        **** 		if (At_Compliance()) {
 2948              		.loc 2 486 0
 2949 0022 2F46     		mov	r7, r5
 2950 0024 1BE0     		b	.L234
 2951              	.LVL386:
 2952              	.L239:
 487:main.c        **** 			for (uint8 j = i; j != istart; j -= increment) {
 2953              		.loc 2 487 0
 2954 0026 FFF7FEFF 		bl	At_Compliance
 2955              	.LVL387:
 2956 002a 48B9     		cbnz	r0, .L241
 2957 002c 12E0     		b	.L236
 2958              	.LVL388:
 2959              	.L238:
 2960              	.LBB38:
 489:main.c        **** 				
 2961              		.loc 2 489 0
 2962 002e 2046     		mov	r0, r4
 2963 0030 FFF7FEFF 		bl	VDAC_Vgs_SetValue
 2964              	.LVL389:
 491:main.c        **** 			}
 2965              		.loc 2 491 0
 2966 0034 FFF7FEFF 		bl	At_Compliance
 2967              	.LVL390:
 2968 0038 98B1     		cbz	r0, .L232
 488:main.c        **** 				VDAC_Vgs_SetValue(j);
 2969              		.loc 2 488 0 discriminator 2
 2970 003a A41B     		subs	r4, r4, r6
 2971              	.LVL391:
 2972 003c E4B2     		uxtb	r4, r4
 2973              	.LVL392:
 2974 003e 00E0     		b	.L235
 2975              	.LVL393:
 2976              	.L241:
 2977              	.LBE38:
ARM GAS  C:\Users\FRANKL~1\AppData\Local\Temp\ccLkvCvD.s 			page 77


 2978 0040 3C46     		mov	r4, r7
 2979              	.L235:
 2980              	.LVL394:
 2981              	.LBB39:
 488:main.c        **** 				VDAC_Vgs_SetValue(j);
 2982              		.loc 2 488 0 is_stmt 0 discriminator 1
 2983 0042 AC42     		cmp	r4, r5
 2984 0044 F3D1     		bne	.L238
 2985              	.LBE39:
 493:main.c        **** 				Handle_Compliance_Breach();
 2986              		.loc 2 493 0 is_stmt 1
 2987 0046 FFF7FEFF 		bl	At_Compliance
 2988              	.LVL395:
 2989 004a 18B1     		cbz	r0, .L236
 494:main.c        **** 				return;
 2990              		.loc 2 494 0
 2991 004c FFF7FEFF 		bl	Handle_Compliance_Breach
 2992              	.LVL396:
 495:main.c        **** 			}
 2993              		.loc 2 495 0
 2994 0050 BDE8F081 		pop	{r4, r5, r6, r7, r8, pc}
 2995              	.LVL397:
 2996              	.L236:
 499:main.c        **** 	}
 2997              		.loc 2 499 0 discriminator 2
 2998 0054 3846     		mov	r0, r7
 2999 0056 FFF7FEFF 		bl	VDAC_Vgs_SetValue
 3000              	.LVL398:
 486:main.c        **** 		if (At_Compliance()) {
 3001              		.loc 2 486 0 discriminator 2
 3002 005a 3744     		add	r7, r7, r6
 3003              	.LVL399:
 3004 005c FFB2     		uxtb	r7, r7
 3005              	.LVL400:
 3006              	.L234:
 486:main.c        **** 		if (At_Compliance()) {
 3007              		.loc 2 486 0 is_stmt 0 discriminator 1
 3008 005e 4745     		cmp	r7, r8
 3009 0060 E1D1     		bne	.L239
 3010              	.L232:
 3011 0062 BDE8F081 		pop	{r4, r5, r6, r7, r8, pc}
 3012              	.LVL401:
 3013              	.L244:
 3014 0066 00BF     		.align	2
 3015              	.L243:
 3016 0068 825B0040 		.word	1073765250
 3017 006c 00000000 		.word	Vgs_Index_Goal_Relative
 3018 0070 835B0040 		.word	1073765251
 3019              	.LBE37:
 3020              		.cfi_endproc
 3021              	.LFE95:
 3022              		.size	Set_Vgs_Raw, .-Set_Vgs_Raw
 3023              		.section	.text.Set_Ref_Raw,"ax",%progbits
 3024              		.align	2
 3025              		.global	Set_Ref_Raw
 3026              		.thumb
 3027              		.thumb_func
ARM GAS  C:\Users\FRANKL~1\AppData\Local\Temp\ccLkvCvD.s 			page 78


 3028              		.type	Set_Ref_Raw, %function
 3029              	Set_Ref_Raw:
 3030              	.LFB96:
 504:main.c        **** 	if (value < 6) value = 6;
 3031              		.loc 2 504 0 is_stmt 1
 3032              		.cfi_startproc
 3033              		@ args = 0, pretend = 0, frame = 0
 3034              		@ frame_needed = 0, uses_anonymous_args = 0
 3035              	.LVL402:
 3036 0000 2DE9F041 		push	{r4, r5, r6, r7, r8, lr}
 3037              		.cfi_def_cfa_offset 24
 3038              		.cfi_offset 4, -24
 3039              		.cfi_offset 5, -20
 3040              		.cfi_offset 6, -16
 3041              		.cfi_offset 7, -12
 3042              		.cfi_offset 8, -8
 3043              		.cfi_offset 14, -4
 3044 0004 0746     		mov	r7, r0
 505:main.c        **** 	
 3045              		.loc 2 505 0
 3046 0006 0528     		cmp	r0, #5
 3047 0008 00D8     		bhi	.L246
 3048 000a 0627     		movs	r7, #6
 3049              	.L246:
 3050              	.LVL403:
 508:main.c        **** 	
 3051              		.loc 2 508 0
 3052 000c 1A4B     		ldr	r3, .L262
 3053 000e 1B78     		ldrb	r3, [r3]	@ zero_extendqisi2
 3054 0010 DBB2     		uxtb	r3, r3
 3055 0012 9F42     		cmp	r7, r3
 3056 0014 02D3     		bcc	.L256
 507:main.c        **** 	if (value < VDAC_Ref_Data) increment = -1;
 3057              		.loc 2 507 0
 3058 0016 4FF00108 		mov	r8, #1
 3059 001a 01E0     		b	.L247
 3060              	.L256:
 508:main.c        **** 	
 3061              		.loc 2 508 0
 3062 001c 4FF0FF38 		mov	r8, #-1
 3063              	.L247:
 3064              	.LVL404:
 3065              	.LBB40:
 510:main.c        **** 		
 3066              		.loc 2 510 0
 3067 0020 154B     		ldr	r3, .L262
 3068 0022 1E78     		ldrb	r6, [r3]	@ zero_extendqisi2
 3069 0024 F6B2     		uxtb	r6, r6
 3070              	.LVL405:
 3071 0026 22E0     		b	.L248
 3072              	.L254:
 3073              	.LBB41:
 512:main.c        **** 		
 3074              		.loc 2 512 0
 3075 0028 FFF7FEFF 		bl	At_Compliance
 3076              	.LVL406:
 3077 002c 08BB     		cbnz	r0, .L245
ARM GAS  C:\Users\FRANKL~1\AppData\Local\Temp\ccLkvCvD.s 			page 79


 514:main.c        **** 		int16 new_Vds = (int16)i + Vds_Index_Goal_Relative;
 3078              		.loc 2 514 0
 3079 002e B4B2     		uxth	r4, r6
 3080 0030 124B     		ldr	r3, .L262+4
 3081 0032 1D88     		ldrh	r5, [r3]
 3082 0034 2544     		add	r5, r5, r4
 3083 0036 2DB2     		sxth	r5, r5
 3084              	.LVL407:
 515:main.c        **** 		
 3085              		.loc 2 515 0
 3086 0038 114B     		ldr	r3, .L262+8
 3087 003a 1B88     		ldrh	r3, [r3]
 3088 003c 1C44     		add	r4, r4, r3
 3089 003e 24B2     		sxth	r4, r4
 3090              	.LVL408:
 517:main.c        **** 		if (new_Vds > 255) new_Vds = 255;
 3091              		.loc 2 517 0
 3092 0040 FF2D     		cmp	r5, #255
 3093 0042 00DD     		ble	.L250
 3094 0044 FF25     		movs	r5, #255
 3095              	.LVL409:
 3096              	.L250:
 518:main.c        **** 		
 3097              		.loc 2 518 0
 3098 0046 FF2C     		cmp	r4, #255
 3099 0048 00DD     		ble	.L251
 3100 004a FF24     		movs	r4, #255
 3101              	.LVL410:
 3102              	.L251:
 520:main.c        **** 		if (new_Vds < 0) new_Vds = 0;
 3103              		.loc 2 520 0
 3104 004c 002D     		cmp	r5, #0
 3105 004e 00DA     		bge	.L252
 3106 0050 0025     		movs	r5, #0
 3107              	.LVL411:
 3108              	.L252:
 521:main.c        **** 		
 3109              		.loc 2 521 0
 3110 0052 002C     		cmp	r4, #0
 3111 0054 00DA     		bge	.L253
 3112 0056 0024     		movs	r4, #0
 3113              	.LVL412:
 3114              	.L253:
 523:main.c        **** 		VDAC_Vgs_SetValue(new_Vgs);
 3115              		.loc 2 523 0 discriminator 2
 3116 0058 3046     		mov	r0, r6
 3117 005a FFF7FEFF 		bl	VDAC_Ref_SetValue
 3118              	.LVL413:
 524:main.c        **** 		VDAC_Vds_SetValue(new_Vds);
 3119              		.loc 2 524 0 discriminator 2
 3120 005e E8B2     		uxtb	r0, r5
 3121 0060 FFF7FEFF 		bl	VDAC_Vgs_SetValue
 3122              	.LVL414:
 525:main.c        **** 	}
 3123              		.loc 2 525 0 discriminator 2
 3124 0064 E0B2     		uxtb	r0, r4
 3125 0066 FFF7FEFF 		bl	VDAC_Vds_SetValue
ARM GAS  C:\Users\FRANKL~1\AppData\Local\Temp\ccLkvCvD.s 			page 80


 3126              	.LVL415:
 3127              	.LBE41:
 510:main.c        **** 		
 3128              		.loc 2 510 0 discriminator 2
 3129 006a 4644     		add	r6, r6, r8
 3130              	.LVL416:
 3131 006c F6B2     		uxtb	r6, r6
 3132              	.LVL417:
 3133              	.L248:
 510:main.c        **** 		
 3134              		.loc 2 510 0 is_stmt 0 discriminator 1
 3135 006e B742     		cmp	r7, r6
 3136 0070 DAD1     		bne	.L254
 3137              	.L245:
 3138 0072 BDE8F081 		pop	{r4, r5, r6, r7, r8, pc}
 3139              	.LVL418:
 3140              	.L263:
 3141 0076 00BF     		.align	2
 3142              	.L262:
 3143 0078 825B0040 		.word	1073765250
 3144 007c 00000000 		.word	Vgs_Index_Goal_Relative
 3145 0080 00000000 		.word	Vds_Index_Goal_Relative
 3146              	.LBE40:
 3147              		.cfi_endproc
 3148              	.LFE96:
 3149              		.size	Set_Ref_Raw, .-Set_Ref_Raw
 3150              		.section	.text.Set_Vds_Rel,"ax",%progbits
 3151              		.align	2
 3152              		.global	Set_Vds_Rel
 3153              		.thumb
 3154              		.thumb_func
 3155              		.type	Set_Vds_Rel, %function
 3156              	Set_Vds_Rel:
 3157              	.LFB97:
 531:main.c        **** 	if (value > 255) value = 255;
 3158              		.loc 2 531 0 is_stmt 1
 3159              		.cfi_startproc
 3160              		@ args = 0, pretend = 0, frame = 0
 3161              		@ frame_needed = 0, uses_anonymous_args = 0
 3162              	.LVL419:
 3163 0000 70B5     		push	{r4, r5, r6, lr}
 3164              		.cfi_def_cfa_offset 16
 3165              		.cfi_offset 4, -16
 3166              		.cfi_offset 5, -12
 3167              		.cfi_offset 6, -8
 3168              		.cfi_offset 14, -4
 3169 0002 0446     		mov	r4, r0
 532:main.c        **** 	if (value < -255) value = -255;
 3170              		.loc 2 532 0
 3171 0004 FF28     		cmp	r0, #255
 3172 0006 00DD     		ble	.L265
 3173 0008 FF24     		movs	r4, #255
 3174              	.L265:
 3175              	.LVL420:
 533:main.c        **** 	
 3176              		.loc 2 533 0
 3177 000a 14F1FF0F 		cmn	r4, #255
ARM GAS  C:\Users\FRANKL~1\AppData\Local\Temp\ccLkvCvD.s 			page 81


 3178 000e 01DA     		bge	.L266
 3179 0010 6FF0FE04 		mvn	r4, #254
 3180              	.LVL421:
 3181              	.L266:
 535:main.c        **** 	
 3182              		.loc 2 535 0
 3183 0014 294B     		ldr	r3, .L285
 3184 0016 1878     		ldrb	r0, [r3]	@ zero_extendqisi2
 3185 0018 A5B2     		uxth	r5, r4
 3186 001a 2844     		add	r0, r0, r5
 3187 001c 80B2     		uxth	r0, r0
 3188 001e 03B2     		sxth	r3, r0
 3189              	.LVL422:
 537:main.c        **** 		Set_Ref_Raw(VDAC_Ref_Data - (absolute - 255));
 3190              		.loc 2 537 0
 3191 0020 FF2B     		cmp	r3, #255
 3192 0022 0ADD     		ble	.L267
 538:main.c        **** 		Set_Vds_Raw(255);
 3193              		.loc 2 538 0
 3194 0024 254B     		ldr	r3, .L285
 3195              	.LVL423:
 3196 0026 1B78     		ldrb	r3, [r3]	@ zero_extendqisi2
 3197 0028 181A     		subs	r0, r3, r0
 3198              	.LVL424:
 3199 002a 0138     		subs	r0, r0, #1
 3200 002c C0B2     		uxtb	r0, r0
 3201 002e FFF7FEFF 		bl	Set_Ref_Raw
 3202              	.LVL425:
 539:main.c        **** 	} else if (absolute < 0) {
 3203              		.loc 2 539 0
 3204 0032 FF20     		movs	r0, #255
 3205 0034 FFF7FEFF 		bl	Set_Vds_Raw
 3206              	.LVL426:
 3207 0038 0EE0     		b	.L268
 3208              	.LVL427:
 3209              	.L267:
 540:main.c        **** 		Set_Ref_Raw(VDAC_Ref_Data - absolute);
 3210              		.loc 2 540 0
 3211 003a 002B     		cmp	r3, #0
 3212 003c 09DA     		bge	.L269
 541:main.c        **** 		Set_Vds_Raw(0);
 3213              		.loc 2 541 0
 3214 003e 1F4B     		ldr	r3, .L285
 3215              	.LVL428:
 3216 0040 1B78     		ldrb	r3, [r3]	@ zero_extendqisi2
 3217 0042 181A     		subs	r0, r3, r0
 3218              	.LVL429:
 3219 0044 C0B2     		uxtb	r0, r0
 3220 0046 FFF7FEFF 		bl	Set_Ref_Raw
 3221              	.LVL430:
 542:main.c        **** 	} else {
 3222              		.loc 2 542 0
 3223 004a 0020     		movs	r0, #0
 3224 004c FFF7FEFF 		bl	Set_Vds_Raw
 3225              	.LVL431:
 3226 0050 02E0     		b	.L268
 3227              	.LVL432:
ARM GAS  C:\Users\FRANKL~1\AppData\Local\Temp\ccLkvCvD.s 			page 82


 3228              	.L269:
 544:main.c        **** 	}
 3229              		.loc 2 544 0
 3230 0052 C0B2     		uxtb	r0, r0
 3231 0054 FFF7FEFF 		bl	Set_Vds_Raw
 3232              	.LVL433:
 3233              	.L268:
 547:main.c        **** 	
 3234              		.loc 2 547 0
 3235 0058 194B     		ldr	r3, .L285+4
 3236 005a 1C80     		strh	r4, [r3]	@ movhi
 549:main.c        **** 	uint16 Vds_maxRefRaw = Vds_Index_Goal_Relative > 0? 255 - Vds_Index_Goal_Relative: 255;
 3237              		.loc 2 549 0
 3238 005c 002C     		cmp	r4, #0
 3239 005e 02DC     		bgt	.L280
 549:main.c        **** 	uint16 Vds_maxRefRaw = Vds_Index_Goal_Relative > 0? 255 - Vds_Index_Goal_Relative: 255;
 3240              		.loc 2 549 0 is_stmt 0 discriminator 1
 3241 0060 6E42     		negs	r6, r5
 3242 0062 B6B2     		uxth	r6, r6
 3243 0064 00E0     		b	.L270
 3244              	.L280:
 549:main.c        **** 	uint16 Vds_maxRefRaw = Vds_Index_Goal_Relative > 0? 255 - Vds_Index_Goal_Relative: 255;
 3245              		.loc 2 549 0
 3246 0066 0026     		movs	r6, #0
 3247              	.L270:
 3248              	.LVL434:
 550:main.c        **** 	uint16 Vgs_minRefRaw = Vgs_Index_Goal_Relative > 0? 0: -Vgs_Index_Goal_Relative;
 3249              		.loc 2 550 0 is_stmt 1 discriminator 4
 3250 0068 002C     		cmp	r4, #0
 3251 006a 03DD     		ble	.L281
 550:main.c        **** 	uint16 Vgs_minRefRaw = Vgs_Index_Goal_Relative > 0? 0: -Vgs_Index_Goal_Relative;
 3252              		.loc 2 550 0 is_stmt 0 discriminator 1
 3253 006c C5F1FF00 		rsb	r0, r5, #255
 3254 0070 80B2     		uxth	r0, r0
 3255 0072 00E0     		b	.L271
 3256              	.L281:
 550:main.c        **** 	uint16 Vgs_minRefRaw = Vgs_Index_Goal_Relative > 0? 0: -Vgs_Index_Goal_Relative;
 3257              		.loc 2 550 0
 3258 0074 FF20     		movs	r0, #255
 3259              	.L271:
 3260              	.LVL435:
 551:main.c        **** 	uint16 Vgs_maxRefRaw = Vgs_Index_Goal_Relative > 0? 255 - Vgs_Index_Goal_Relative: 255;
 3261              		.loc 2 551 0 is_stmt 1 discriminator 4
 3262 0076 134B     		ldr	r3, .L285+8
 3263 0078 B3F90030 		ldrsh	r3, [r3]
 3264 007c 002B     		cmp	r3, #0
 3265 007e 02DC     		bgt	.L282
 551:main.c        **** 	uint16 Vgs_maxRefRaw = Vgs_Index_Goal_Relative > 0? 255 - Vgs_Index_Goal_Relative: 255;
 3266              		.loc 2 551 0 is_stmt 0 discriminator 1
 3267 0080 5A42     		negs	r2, r3
 3268 0082 92B2     		uxth	r2, r2
 3269 0084 00E0     		b	.L272
 3270              	.L282:
 551:main.c        **** 	uint16 Vgs_maxRefRaw = Vgs_Index_Goal_Relative > 0? 255 - Vgs_Index_Goal_Relative: 255;
 3271              		.loc 2 551 0
 3272 0086 0022     		movs	r2, #0
 3273              	.L272:
ARM GAS  C:\Users\FRANKL~1\AppData\Local\Temp\ccLkvCvD.s 			page 83


 3274              	.LVL436:
 552:main.c        **** 	
 3275              		.loc 2 552 0 is_stmt 1 discriminator 4
 3276 0088 002B     		cmp	r3, #0
 3277 008a 03DD     		ble	.L283
 552:main.c        **** 	
 3278              		.loc 2 552 0 is_stmt 0 discriminator 1
 3279 008c C3F1FF03 		rsb	r3, r3, #255
 3280 0090 9BB2     		uxth	r3, r3
 3281 0092 00E0     		b	.L273
 3282              	.L283:
 552:main.c        **** 	
 3283              		.loc 2 552 0
 3284 0094 FF23     		movs	r3, #255
 3285              	.L273:
 3286              	.LVL437:
 554:main.c        **** 	
 3287              		.loc 2 554 0 is_stmt 1 discriminator 4
 3288 0096 0949     		ldr	r1, .L285
 3289 0098 0978     		ldrb	r1, [r1]	@ zero_extendqisi2
 3290              	.LVL438:
 556:main.c        **** 	if (newRefRaw > Vgs_maxRefRaw) newRefRaw = Vgs_maxRefRaw;
 3291              		.loc 2 556 0 discriminator 4
 3292 009a 8A42     		cmp	r2, r1
 3293 009c 00D8     		bhi	.L274
 554:main.c        **** 	
 3294              		.loc 2 554 0
 3295 009e 0A46     		mov	r2, r1
 3296              	.LVL439:
 3297              	.L274:
 557:main.c        **** 	if (newRefRaw < Vds_minRefRaw) newRefRaw = Vds_minRefRaw;
 3298              		.loc 2 557 0
 3299 00a0 9A42     		cmp	r2, r3
 3300 00a2 00D8     		bhi	.L275
 3301 00a4 1346     		mov	r3, r2
 3302              	.LVL440:
 3303              	.L275:
 558:main.c        **** 	if (newRefRaw > Vds_maxRefRaw) newRefRaw = Vds_maxRefRaw;
 3304              		.loc 2 558 0
 3305 00a6 B342     		cmp	r3, r6
 3306 00a8 00D3     		bcc	.L276
 3307 00aa 1E46     		mov	r6, r3
 3308              	.LVL441:
 3309              	.L276:
 559:main.c        **** 	
 3310              		.loc 2 559 0
 3311 00ac 8642     		cmp	r6, r0
 3312 00ae 00D8     		bhi	.L277
 3313 00b0 3046     		mov	r0, r6
 3314              	.LVL442:
 3315              	.L277:
 561:main.c        **** }
 3316              		.loc 2 561 0
 3317 00b2 C0B2     		uxtb	r0, r0
 3318              	.LVL443:
 3319 00b4 FFF7FEFF 		bl	Set_Ref_Raw
 3320              	.LVL444:
ARM GAS  C:\Users\FRANKL~1\AppData\Local\Temp\ccLkvCvD.s 			page 84


 3321 00b8 70BD     		pop	{r4, r5, r6, pc}
 3322              	.LVL445:
 3323              	.L286:
 3324 00ba 00BF     		.align	2
 3325              	.L285:
 3326 00bc 825B0040 		.word	1073765250
 3327 00c0 00000000 		.word	Vds_Index_Goal_Relative
 3328 00c4 00000000 		.word	Vgs_Index_Goal_Relative
 3329              		.cfi_endproc
 3330              	.LFE97:
 3331              		.size	Set_Vds_Rel, .-Set_Vds_Rel
 3332              		.section	.text.Set_Vgs_Rel,"ax",%progbits
 3333              		.align	2
 3334              		.global	Set_Vgs_Rel
 3335              		.thumb
 3336              		.thumb_func
 3337              		.type	Set_Vgs_Rel, %function
 3338              	Set_Vgs_Rel:
 3339              	.LFB98:
 565:main.c        **** 	if (value > 255) value = 255;
 3340              		.loc 2 565 0
 3341              		.cfi_startproc
 3342              		@ args = 0, pretend = 0, frame = 0
 3343              		@ frame_needed = 0, uses_anonymous_args = 0
 3344              	.LVL446:
 3345 0000 70B5     		push	{r4, r5, r6, lr}
 3346              		.cfi_def_cfa_offset 16
 3347              		.cfi_offset 4, -16
 3348              		.cfi_offset 5, -12
 3349              		.cfi_offset 6, -8
 3350              		.cfi_offset 14, -4
 3351 0002 0446     		mov	r4, r0
 566:main.c        **** 	if (value < -255) value = -255;
 3352              		.loc 2 566 0
 3353 0004 FF28     		cmp	r0, #255
 3354 0006 00DD     		ble	.L288
 3355 0008 FF24     		movs	r4, #255
 3356              	.L288:
 3357              	.LVL447:
 567:main.c        **** 	
 3358              		.loc 2 567 0
 3359 000a 14F1FF0F 		cmn	r4, #255
 3360 000e 01DA     		bge	.L289
 3361 0010 6FF0FE04 		mvn	r4, #254
 3362              	.LVL448:
 3363              	.L289:
 569:main.c        **** 	
 3364              		.loc 2 569 0
 3365 0014 294B     		ldr	r3, .L308
 3366 0016 1878     		ldrb	r0, [r3]	@ zero_extendqisi2
 3367 0018 A5B2     		uxth	r5, r4
 3368 001a 2844     		add	r0, r0, r5
 3369 001c 80B2     		uxth	r0, r0
 3370 001e 03B2     		sxth	r3, r0
 3371              	.LVL449:
 571:main.c        **** 		Set_Ref_Raw(VDAC_Ref_Data - (absolute - 255));
 3372              		.loc 2 571 0
ARM GAS  C:\Users\FRANKL~1\AppData\Local\Temp\ccLkvCvD.s 			page 85


 3373 0020 FF2B     		cmp	r3, #255
 3374 0022 0ADD     		ble	.L290
 572:main.c        **** 		Set_Vgs_Raw(255);
 3375              		.loc 2 572 0
 3376 0024 254B     		ldr	r3, .L308
 3377              	.LVL450:
 3378 0026 1B78     		ldrb	r3, [r3]	@ zero_extendqisi2
 3379 0028 181A     		subs	r0, r3, r0
 3380              	.LVL451:
 3381 002a 0138     		subs	r0, r0, #1
 3382 002c C0B2     		uxtb	r0, r0
 3383 002e FFF7FEFF 		bl	Set_Ref_Raw
 3384              	.LVL452:
 573:main.c        **** 	} else if (absolute < 0) {
 3385              		.loc 2 573 0
 3386 0032 FF20     		movs	r0, #255
 3387 0034 FFF7FEFF 		bl	Set_Vgs_Raw
 3388              	.LVL453:
 3389 0038 0EE0     		b	.L291
 3390              	.LVL454:
 3391              	.L290:
 574:main.c        **** 		Set_Ref_Raw(VDAC_Ref_Data - absolute);
 3392              		.loc 2 574 0
 3393 003a 002B     		cmp	r3, #0
 3394 003c 09DA     		bge	.L292
 575:main.c        **** 		Set_Vgs_Raw(0);
 3395              		.loc 2 575 0
 3396 003e 1F4B     		ldr	r3, .L308
 3397              	.LVL455:
 3398 0040 1B78     		ldrb	r3, [r3]	@ zero_extendqisi2
 3399 0042 181A     		subs	r0, r3, r0
 3400              	.LVL456:
 3401 0044 C0B2     		uxtb	r0, r0
 3402 0046 FFF7FEFF 		bl	Set_Ref_Raw
 3403              	.LVL457:
 576:main.c        **** 	} else {
 3404              		.loc 2 576 0
 3405 004a 0020     		movs	r0, #0
 3406 004c FFF7FEFF 		bl	Set_Vgs_Raw
 3407              	.LVL458:
 3408 0050 02E0     		b	.L291
 3409              	.LVL459:
 3410              	.L292:
 578:main.c        **** 	}
 3411              		.loc 2 578 0
 3412 0052 C0B2     		uxtb	r0, r0
 3413 0054 FFF7FEFF 		bl	Set_Vgs_Raw
 3414              	.LVL460:
 3415              	.L291:
 581:main.c        **** 	
 3416              		.loc 2 581 0
 3417 0058 194B     		ldr	r3, .L308+4
 3418 005a 1C80     		strh	r4, [r3]	@ movhi
 583:main.c        **** 	uint16 Vds_maxRefRaw = Vds_Index_Goal_Relative > 0? 255 - Vds_Index_Goal_Relative: 255;
 3419              		.loc 2 583 0
 3420 005c 194B     		ldr	r3, .L308+8
 3421 005e B3F90030 		ldrsh	r3, [r3]
ARM GAS  C:\Users\FRANKL~1\AppData\Local\Temp\ccLkvCvD.s 			page 86


 3422 0062 002B     		cmp	r3, #0
 3423 0064 02DC     		bgt	.L303
 583:main.c        **** 	uint16 Vds_maxRefRaw = Vds_Index_Goal_Relative > 0? 255 - Vds_Index_Goal_Relative: 255;
 3424              		.loc 2 583 0 is_stmt 0 discriminator 1
 3425 0066 5A42     		negs	r2, r3
 3426 0068 92B2     		uxth	r2, r2
 3427 006a 00E0     		b	.L293
 3428              	.L303:
 583:main.c        **** 	uint16 Vds_maxRefRaw = Vds_Index_Goal_Relative > 0? 255 - Vds_Index_Goal_Relative: 255;
 3429              		.loc 2 583 0
 3430 006c 0022     		movs	r2, #0
 3431              	.L293:
 3432              	.LVL461:
 584:main.c        **** 	uint16 Vgs_minRefRaw = Vgs_Index_Goal_Relative > 0? 0: -Vgs_Index_Goal_Relative;
 3433              		.loc 2 584 0 is_stmt 1 discriminator 4
 3434 006e 002B     		cmp	r3, #0
 3435 0070 03DD     		ble	.L304
 584:main.c        **** 	uint16 Vgs_minRefRaw = Vgs_Index_Goal_Relative > 0? 0: -Vgs_Index_Goal_Relative;
 3436              		.loc 2 584 0 is_stmt 0 discriminator 1
 3437 0072 C3F1FF03 		rsb	r3, r3, #255
 3438 0076 9BB2     		uxth	r3, r3
 3439 0078 00E0     		b	.L294
 3440              	.L304:
 584:main.c        **** 	uint16 Vgs_minRefRaw = Vgs_Index_Goal_Relative > 0? 0: -Vgs_Index_Goal_Relative;
 3441              		.loc 2 584 0
 3442 007a FF23     		movs	r3, #255
 3443              	.L294:
 3444              	.LVL462:
 585:main.c        **** 	uint16 Vgs_maxRefRaw = Vgs_Index_Goal_Relative > 0? 255 - Vgs_Index_Goal_Relative: 255;
 3445              		.loc 2 585 0 is_stmt 1 discriminator 4
 3446 007c 002C     		cmp	r4, #0
 3447 007e 02DC     		bgt	.L305
 585:main.c        **** 	uint16 Vgs_maxRefRaw = Vgs_Index_Goal_Relative > 0? 255 - Vgs_Index_Goal_Relative: 255;
 3448              		.loc 2 585 0 is_stmt 0 discriminator 1
 3449 0080 6E42     		negs	r6, r5
 3450 0082 B6B2     		uxth	r6, r6
 3451 0084 00E0     		b	.L295
 3452              	.L305:
 585:main.c        **** 	uint16 Vgs_maxRefRaw = Vgs_Index_Goal_Relative > 0? 255 - Vgs_Index_Goal_Relative: 255;
 3453              		.loc 2 585 0
 3454 0086 0026     		movs	r6, #0
 3455              	.L295:
 3456              	.LVL463:
 586:main.c        **** 	
 3457              		.loc 2 586 0 is_stmt 1 discriminator 4
 3458 0088 002C     		cmp	r4, #0
 3459 008a 03DD     		ble	.L306
 586:main.c        **** 	
 3460              		.loc 2 586 0 is_stmt 0 discriminator 1
 3461 008c C5F1FF00 		rsb	r0, r5, #255
 3462 0090 80B2     		uxth	r0, r0
 3463 0092 00E0     		b	.L296
 3464              	.L306:
 586:main.c        **** 	
 3465              		.loc 2 586 0
 3466 0094 FF20     		movs	r0, #255
 3467              	.L296:
ARM GAS  C:\Users\FRANKL~1\AppData\Local\Temp\ccLkvCvD.s 			page 87


 3468              	.LVL464:
 588:main.c        **** 	
 3469              		.loc 2 588 0 is_stmt 1 discriminator 4
 3470 0096 0949     		ldr	r1, .L308
 3471 0098 0978     		ldrb	r1, [r1]	@ zero_extendqisi2
 3472              	.LVL465:
 590:main.c        **** 	if (newRefRaw > Vds_maxRefRaw) newRefRaw = Vds_maxRefRaw;
 3473              		.loc 2 590 0 discriminator 4
 3474 009a 8A42     		cmp	r2, r1
 3475 009c 00D8     		bhi	.L297
 588:main.c        **** 	
 3476              		.loc 2 588 0
 3477 009e 0A46     		mov	r2, r1
 3478              	.LVL466:
 3479              	.L297:
 591:main.c        **** 	if (newRefRaw < Vgs_minRefRaw) newRefRaw = Vgs_minRefRaw;
 3480              		.loc 2 591 0
 3481 00a0 9A42     		cmp	r2, r3
 3482 00a2 00D8     		bhi	.L298
 3483 00a4 1346     		mov	r3, r2
 3484              	.LVL467:
 3485              	.L298:
 592:main.c        **** 	if (newRefRaw > Vgs_maxRefRaw) newRefRaw = Vgs_maxRefRaw;
 3486              		.loc 2 592 0
 3487 00a6 B342     		cmp	r3, r6
 3488 00a8 00D3     		bcc	.L299
 3489 00aa 1E46     		mov	r6, r3
 3490              	.LVL468:
 3491              	.L299:
 593:main.c        **** 	
 3492              		.loc 2 593 0
 3493 00ac 8642     		cmp	r6, r0
 3494 00ae 00D8     		bhi	.L300
 3495 00b0 3046     		mov	r0, r6
 3496              	.LVL469:
 3497              	.L300:
 595:main.c        **** }
 3498              		.loc 2 595 0
 3499 00b2 C0B2     		uxtb	r0, r0
 3500              	.LVL470:
 3501 00b4 FFF7FEFF 		bl	Set_Ref_Raw
 3502              	.LVL471:
 3503 00b8 70BD     		pop	{r4, r5, r6, pc}
 3504              	.LVL472:
 3505              	.L309:
 3506 00ba 00BF     		.align	2
 3507              	.L308:
 3508 00bc 825B0040 		.word	1073765250
 3509 00c0 00000000 		.word	Vgs_Index_Goal_Relative
 3510 00c4 00000000 		.word	Vds_Index_Goal_Relative
 3511              		.cfi_endproc
 3512              	.LFE98:
 3513              		.size	Set_Vgs_Rel, .-Set_Vgs_Rel
 3514              		.global	__aeabi_d2iz
 3515              		.section	.text.Set_Vgs,"ax",%progbits
 3516              		.align	2
 3517              		.global	Set_Vgs
ARM GAS  C:\Users\FRANKL~1\AppData\Local\Temp\ccLkvCvD.s 			page 88


 3518              		.thumb
 3519              		.thumb_func
 3520              		.type	Set_Vgs, %function
 3521              	Set_Vgs:
 3522              	.LFB99:
 600:main.c        **** 	Set_Vgs_Rel((voltage/4.080)*255.0);
 3523              		.loc 2 600 0
 3524              		.cfi_startproc
 3525              		@ args = 0, pretend = 0, frame = 0
 3526              		@ frame_needed = 0, uses_anonymous_args = 0
 3527              	.LVL473:
 3528 0000 08B5     		push	{r3, lr}
 3529              		.cfi_def_cfa_offset 8
 3530              		.cfi_offset 3, -8
 3531              		.cfi_offset 14, -4
 601:main.c        **** }
 3532              		.loc 2 601 0
 3533 0002 FFF7FEFF 		bl	__aeabi_f2d
 3534              	.LVL474:
 3535 0006 08A3     		adr	r3, .L312
 3536 0008 D3E90023 		ldrd	r2, [r3]
 3537 000c FFF7FEFF 		bl	__aeabi_ddiv
 3538              	.LVL475:
 3539 0010 07A3     		adr	r3, .L312+8
 3540 0012 D3E90023 		ldrd	r2, [r3]
 3541 0016 FFF7FEFF 		bl	__aeabi_dmul
 3542              	.LVL476:
 3543 001a FFF7FEFF 		bl	__aeabi_d2iz
 3544              	.LVL477:
 3545 001e 00B2     		sxth	r0, r0
 3546 0020 FFF7FEFF 		bl	Set_Vgs_Rel
 3547              	.LVL478:
 3548 0024 08BD     		pop	{r3, pc}
 3549              	.L313:
 3550 0026 00BF     		.align	3
 3551              	.L312:
 3552 0028 52B81E85 		.word	-2061584302
 3553 002c EB511040 		.word	1074811371
 3554 0030 00000000 		.word	0
 3555 0034 00E06F40 		.word	1081073664
 3556              		.cfi_endproc
 3557              	.LFE99:
 3558              		.size	Set_Vgs, .-Set_Vgs
 3559              		.section	.text.Set_Vds,"ax",%progbits
 3560              		.align	2
 3561              		.global	Set_Vds
 3562              		.thumb
 3563              		.thumb_func
 3564              		.type	Set_Vds, %function
 3565              	Set_Vds:
 3566              	.LFB100:
 605:main.c        **** 	Set_Vds_Rel((voltage/4.080)*255.0);
 3567              		.loc 2 605 0
 3568              		.cfi_startproc
 3569              		@ args = 0, pretend = 0, frame = 0
 3570              		@ frame_needed = 0, uses_anonymous_args = 0
 3571              	.LVL479:
ARM GAS  C:\Users\FRANKL~1\AppData\Local\Temp\ccLkvCvD.s 			page 89


 3572 0000 08B5     		push	{r3, lr}
 3573              		.cfi_def_cfa_offset 8
 3574              		.cfi_offset 3, -8
 3575              		.cfi_offset 14, -4
 606:main.c        **** }
 3576              		.loc 2 606 0
 3577 0002 FFF7FEFF 		bl	__aeabi_f2d
 3578              	.LVL480:
 3579 0006 08A3     		adr	r3, .L316
 3580 0008 D3E90023 		ldrd	r2, [r3]
 3581 000c FFF7FEFF 		bl	__aeabi_ddiv
 3582              	.LVL481:
 3583 0010 07A3     		adr	r3, .L316+8
 3584 0012 D3E90023 		ldrd	r2, [r3]
 3585 0016 FFF7FEFF 		bl	__aeabi_dmul
 3586              	.LVL482:
 3587 001a FFF7FEFF 		bl	__aeabi_d2iz
 3588              	.LVL483:
 3589 001e 00B2     		sxth	r0, r0
 3590 0020 FFF7FEFF 		bl	Set_Vds_Rel
 3591              	.LVL484:
 3592 0024 08BD     		pop	{r3, pc}
 3593              	.L317:
 3594 0026 00BF     		.align	3
 3595              	.L316:
 3596 0028 52B81E85 		.word	-2061584302
 3597 002c EB511040 		.word	1074811371
 3598 0030 00000000 		.word	0
 3599 0034 00E06F40 		.word	1081073664
 3600              		.cfi_endproc
 3601              	.LFE100:
 3602              		.size	Set_Vds, .-Set_Vds
 3603              		.section	.text.Set_Vgs_mV,"ax",%progbits
 3604              		.align	2
 3605              		.global	Set_Vgs_mV
 3606              		.thumb
 3607              		.thumb_func
 3608              		.type	Set_Vgs_mV, %function
 3609              	Set_Vgs_mV:
 3610              	.LFB101:
 611:main.c        **** 	Set_Vgs(mV/1000.0);
 3611              		.loc 2 611 0
 3612              		.cfi_startproc
 3613              		@ args = 0, pretend = 0, frame = 0
 3614              		@ frame_needed = 0, uses_anonymous_args = 0
 3615              	.LVL485:
 3616 0000 08B5     		push	{r3, lr}
 3617              		.cfi_def_cfa_offset 8
 3618              		.cfi_offset 3, -8
 3619              		.cfi_offset 14, -4
 612:main.c        **** }
 3620              		.loc 2 612 0
 3621 0002 0349     		ldr	r1, .L320
 3622 0004 FFF7FEFF 		bl	__aeabi_fdiv
 3623              	.LVL486:
 3624 0008 FFF7FEFF 		bl	Set_Vgs
 3625              	.LVL487:
ARM GAS  C:\Users\FRANKL~1\AppData\Local\Temp\ccLkvCvD.s 			page 90


 3626 000c 08BD     		pop	{r3, pc}
 3627              	.L321:
 3628 000e 00BF     		.align	2
 3629              	.L320:
 3630 0010 00007A44 		.word	1148846080
 3631              		.cfi_endproc
 3632              	.LFE101:
 3633              		.size	Set_Vgs_mV, .-Set_Vgs_mV
 3634              		.section	.text.Set_Vds_mV,"ax",%progbits
 3635              		.align	2
 3636              		.global	Set_Vds_mV
 3637              		.thumb
 3638              		.thumb_func
 3639              		.type	Set_Vds_mV, %function
 3640              	Set_Vds_mV:
 3641              	.LFB102:
 616:main.c        **** 	Set_Vds(mV/1000.0);
 3642              		.loc 2 616 0
 3643              		.cfi_startproc
 3644              		@ args = 0, pretend = 0, frame = 0
 3645              		@ frame_needed = 0, uses_anonymous_args = 0
 3646              	.LVL488:
 3647 0000 08B5     		push	{r3, lr}
 3648              		.cfi_def_cfa_offset 8
 3649              		.cfi_offset 3, -8
 3650              		.cfi_offset 14, -4
 617:main.c        **** }
 3651              		.loc 2 617 0
 3652 0002 0349     		ldr	r1, .L324
 3653 0004 FFF7FEFF 		bl	__aeabi_fdiv
 3654              	.LVL489:
 3655 0008 FFF7FEFF 		bl	Set_Vds
 3656              	.LVL490:
 3657 000c 08BD     		pop	{r3, pc}
 3658              	.L325:
 3659 000e 00BF     		.align	2
 3660              	.L324:
 3661 0010 00007A44 		.word	1148846080
 3662              		.cfi_endproc
 3663              	.LFE102:
 3664              		.size	Set_Vds_mV, .-Set_Vds_mV
 3665              		.section	.text.Zero_All_DACs,"ax",%progbits
 3666              		.align	2
 3667              		.global	Zero_All_DACs
 3668              		.thumb
 3669              		.thumb_func
 3670              		.type	Zero_All_DACs, %function
 3671              	Zero_All_DACs:
 3672              	.LFB103:
 622:main.c        **** 	Set_Vds_Raw(0);
 3673              		.loc 2 622 0
 3674              		.cfi_startproc
 3675              		@ args = 0, pretend = 0, frame = 0
 3676              		@ frame_needed = 0, uses_anonymous_args = 0
 3677 0000 08B5     		push	{r3, lr}
 3678              		.cfi_def_cfa_offset 8
 3679              		.cfi_offset 3, -8
ARM GAS  C:\Users\FRANKL~1\AppData\Local\Temp\ccLkvCvD.s 			page 91


 3680              		.cfi_offset 14, -4
 623:main.c        **** 	Set_Vgs_Raw(0);
 3681              		.loc 2 623 0
 3682 0002 0020     		movs	r0, #0
 3683 0004 FFF7FEFF 		bl	Set_Vds_Raw
 3684              	.LVL491:
 624:main.c        **** 	
 3685              		.loc 2 624 0
 3686 0008 0020     		movs	r0, #0
 3687 000a FFF7FEFF 		bl	Set_Vgs_Raw
 3688              	.LVL492:
 626:main.c        **** 	VDAC_Vgs_SetValue(0);
 3689              		.loc 2 626 0
 3690 000e 0020     		movs	r0, #0
 3691 0010 FFF7FEFF 		bl	VDAC_Vds_SetValue
 3692              	.LVL493:
 627:main.c        **** }
 3693              		.loc 2 627 0
 3694 0014 0020     		movs	r0, #0
 3695 0016 FFF7FEFF 		bl	VDAC_Vgs_SetValue
 3696              	.LVL494:
 3697 001a 08BD     		pop	{r3, pc}
 3698              		.cfi_endproc
 3699              	.LFE103:
 3700              		.size	Zero_All_DACs, .-Zero_All_DACs
 3701              		.section	.text.Calibrate_ADC_Offset,"ax",%progbits
 3702              		.align	2
 3703              		.global	Calibrate_ADC_Offset
 3704              		.thumb
 3705              		.thumb_func
 3706              		.type	Calibrate_ADC_Offset, %function
 3707              	Calibrate_ADC_Offset:
 3708              	.LFB104:
 630:main.c        **** 	uint8 current_range_resistor = TIA_Selected_Resistor;
 3709              		.loc 2 630 0
 3710              		.cfi_startproc
 3711              		@ args = 0, pretend = 0, frame = 8
 3712              		@ frame_needed = 0, uses_anonymous_args = 0
 3713              	.LVL495:
 3714 0000 2DE9F041 		push	{r4, r5, r6, r7, r8, lr}
 3715              		.cfi_def_cfa_offset 24
 3716              		.cfi_offset 4, -24
 3717              		.cfi_offset 5, -20
 3718              		.cfi_offset 6, -16
 3719              		.cfi_offset 7, -12
 3720              		.cfi_offset 8, -8
 3721              		.cfi_offset 14, -4
 3722 0004 84B0     		sub	sp, sp, #16
 3723              		.cfi_def_cfa_offset 40
 3724 0006 0746     		mov	r7, r0
 631:main.c        **** 	
 3725              		.loc 2 631 0
 3726 0008 2C4B     		ldr	r3, .L332
 3727 000a 93F80480 		ldrb	r8, [r3, #4]	@ zero_extendqisi2
 3728              	.LVL496:
 634:main.c        **** 	Set_Vgs(0);
 3729              		.loc 2 634 0
ARM GAS  C:\Users\FRANKL~1\AppData\Local\Temp\ccLkvCvD.s 			page 92


 3730 000e 0024     		movs	r4, #0
 3731 0010 2046     		mov	r0, r4
 3732              	.LVL497:
 3733 0012 FFF7FEFF 		bl	Set_Vds
 3734              	.LVL498:
 635:main.c        **** 	
 3735              		.loc 2 635 0
 3736 0016 2046     		mov	r0, r4
 3737 0018 FFF7FEFF 		bl	Set_Vgs
 3738              	.LVL499:
 638:main.c        **** 	int32 voltageSD = 0;
 3739              		.loc 2 638 0
 3740 001c 0024     		movs	r4, #0
 3741 001e 0394     		str	r4, [sp, #12]
 639:main.c        **** 	
 3742              		.loc 2 639 0
 3743 0020 0294     		str	r4, [sp, #8]
 3744              	.LVL500:
 3745              	.LBB42:
 642:main.c        **** 		TIA_Set_Resistor(i);
 3746              		.loc 2 642 0
 3747 0022 2BE0     		b	.L329
 3748              	.LVL501:
 3749              	.L330:
 643:main.c        **** 		// Take a few measurements to discard any problems with the initial measurements
 3750              		.loc 2 643 0 discriminator 3
 3751 0024 2046     		mov	r0, r4
 3752 0026 FFF7FEFF 		bl	TIA_Set_Resistor
 3753              	.LVL502:
 645:main.c        **** 		ADC_Measure_uV(&voltage, &voltageSD, sampleCount);
 3754              		.loc 2 645 0 discriminator 3
 3755 002a 0322     		movs	r2, #3
 3756 002c 02A9     		add	r1, sp, #8
 3757 002e 03A8     		add	r0, sp, #12
 3758 0030 FFF7FEFF 		bl	ADC_Measure_uV
 3759              	.LVL503:
 646:main.c        **** 		TIA_Offsets_uV[i] = -voltage;
 3760              		.loc 2 646 0 discriminator 3
 3761 0034 3A46     		mov	r2, r7
 3762 0036 02A9     		add	r1, sp, #8
 3763 0038 03A8     		add	r0, sp, #12
 3764 003a FFF7FEFF 		bl	ADC_Measure_uV
 3765              	.LVL504:
 647:main.c        **** 		sprintf(TransmitBuffer, "# Offset %e Ohm: %li uV\r\n", TIA_Resistor_Values[i], -voltage);
 3766              		.loc 2 647 0 discriminator 3
 3767 003e 039E     		ldr	r6, [sp, #12]
 3768 0040 7642     		negs	r6, r6
 3769 0042 A300     		lsls	r3, r4, #2
 3770 0044 1D4A     		ldr	r2, .L332
 3771 0046 1A44     		add	r2, r2, r3
 3772 0048 9660     		str	r6, [r2, #8]
 648:main.c        **** 		USBUARTH_Send(TransmitBuffer, strlen(TransmitBuffer));
 3773              		.loc 2 648 0 discriminator 3
 3774 004a 1D4A     		ldr	r2, .L332+4
 3775 004c 1344     		add	r3, r3, r2
 3776 004e 9868     		ldr	r0, [r3, #8]	@ float
 3777 0050 FFF7FEFF 		bl	__aeabi_f2d
ARM GAS  C:\Users\FRANKL~1\AppData\Local\Temp\ccLkvCvD.s 			page 93


 3778              	.LVL505:
 3779 0054 1B4D     		ldr	r5, .L332+8
 3780 0056 0096     		str	r6, [sp]
 3781 0058 0246     		mov	r2, r0
 3782 005a 0B46     		mov	r3, r1
 3783 005c 1A49     		ldr	r1, .L332+12
 3784 005e 2846     		mov	r0, r5
 3785 0060 FFF7FEFF 		bl	sprintf
 3786              	.LVL506:
 649:main.c        **** 		UART_1_PutString(TransmitBuffer);
 3787              		.loc 2 649 0 discriminator 3
 3788 0064 2846     		mov	r0, r5
 3789 0066 FFF7FEFF 		bl	strlen
 3790              	.LVL507:
 3791 006a 81B2     		uxth	r1, r0
 3792 006c 2846     		mov	r0, r5
 3793 006e FFF7FEFF 		bl	USBUARTH_Send
 3794              	.LVL508:
 650:main.c        **** 	}
 3795              		.loc 2 650 0 discriminator 3
 3796 0072 2846     		mov	r0, r5
 3797 0074 FFF7FEFF 		bl	UART_1_PutString
 3798              	.LVL509:
 642:main.c        **** 		TIA_Set_Resistor(i);
 3799              		.loc 2 642 0 discriminator 3
 3800 0078 0134     		adds	r4, r4, #1
 3801              	.LVL510:
 3802 007a E4B2     		uxtb	r4, r4
 3803              	.LVL511:
 3804              	.L329:
 642:main.c        **** 		TIA_Set_Resistor(i);
 3805              		.loc 2 642 0 is_stmt 0 discriminator 1
 3806 007c 072C     		cmp	r4, #7
 3807 007e D1D9     		bls	.L330
 3808              	.LBE42:
 654:main.c        **** 	
 3809              		.loc 2 654 0 is_stmt 1
 3810 0080 4046     		mov	r0, r8
 3811 0082 FFF7FEFF 		bl	TIA_Set_Resistor
 3812              	.LVL512:
 656:main.c        **** 	USBUARTH_Send(TransmitBuffer, strlen(TransmitBuffer));
 3813              		.loc 2 656 0
 3814 0086 0F4D     		ldr	r5, .L332+8
 3815 0088 104C     		ldr	r4, .L332+16
 3816              	.LVL513:
 3817 008a 0FCC     		ldmia	r4!, {r0, r1, r2, r3}
 3818 008c 2860     		str	r0, [r5]	@ unaligned
 3819 008e 6960     		str	r1, [r5, #4]	@ unaligned
 3820 0090 AA60     		str	r2, [r5, #8]	@ unaligned
 3821 0092 EB60     		str	r3, [r5, #12]	@ unaligned
 3822 0094 03CC     		ldmia	r4!, {r0, r1}
 3823 0096 2861     		str	r0, [r5, #16]	@ unaligned
 3824 0098 6961     		str	r1, [r5, #20]	@ unaligned
 3825 009a 2288     		ldrh	r2, [r4]	@ unaligned
 3826 009c A378     		ldrb	r3, [r4, #2]	@ zero_extendqisi2
 3827 009e 2A83     		strh	r2, [r5, #24]	@ unaligned
 3828 00a0 AB76     		strb	r3, [r5, #26]
ARM GAS  C:\Users\FRANKL~1\AppData\Local\Temp\ccLkvCvD.s 			page 94


 657:main.c        **** 	UART_1_PutString(TransmitBuffer);
 3829              		.loc 2 657 0
 3830 00a2 2846     		mov	r0, r5
 3831 00a4 FFF7FEFF 		bl	strlen
 3832              	.LVL514:
 3833 00a8 81B2     		uxth	r1, r0
 3834 00aa 2846     		mov	r0, r5
 3835 00ac FFF7FEFF 		bl	USBUARTH_Send
 3836              	.LVL515:
 658:main.c        **** }
 3837              		.loc 2 658 0
 3838 00b0 2846     		mov	r0, r5
 3839 00b2 FFF7FEFF 		bl	UART_1_PutString
 3840              	.LVL516:
 659:main.c        **** 
 3841              		.loc 2 659 0
 3842 00b6 04B0     		add	sp, sp, #16
 3843              		.cfi_def_cfa_offset 24
 3844              		@ sp needed
 3845 00b8 BDE8F081 		pop	{r4, r5, r6, r7, r8, pc}
 3846              	.LVL517:
 3847              	.L333:
 3848              		.align	2
 3849              	.L332:
 3850 00bc 00000000 		.word	.LANCHOR0
 3851 00c0 00000000 		.word	.LANCHOR1
 3852 00c4 00000000 		.word	TransmitBuffer
 3853 00c8 A8000000 		.word	.LC11
 3854 00cc C4000000 		.word	.LC12
 3855              		.cfi_endproc
 3856              	.LFE104:
 3857              		.size	Calibrate_ADC_Offset, .-Calibrate_ADC_Offset
 3858              		.section	.text.Measure,"ax",%progbits
 3859              		.align	2
 3860              		.global	Measure
 3861              		.thumb
 3862              		.thumb_func
 3863              		.type	Measure, %function
 3864              	Measure:
 3865              	.LFB105:
 662:main.c        **** 	int32 ADC_Voltage = 0;
 3866              		.loc 2 662 0
 3867              		.cfi_startproc
 3868              		@ args = 0, pretend = 0, frame = 24
 3869              		@ frame_needed = 0, uses_anonymous_args = 0
 3870              	.LVL518:
 3871 0000 2DE9F047 		push	{r4, r5, r6, r7, r8, r9, r10, lr}
 3872              		.cfi_def_cfa_offset 32
 3873              		.cfi_offset 4, -32
 3874              		.cfi_offset 5, -28
 3875              		.cfi_offset 6, -24
 3876              		.cfi_offset 7, -20
 3877              		.cfi_offset 8, -16
 3878              		.cfi_offset 9, -12
 3879              		.cfi_offset 10, -8
 3880              		.cfi_offset 14, -4
 3881 0004 8EB0     		sub	sp, sp, #56
ARM GAS  C:\Users\FRANKL~1\AppData\Local\Temp\ccLkvCvD.s 			page 95


 3882              		.cfi_def_cfa_offset 88
 3883 0006 8046     		mov	r8, r0
 3884 0008 0F46     		mov	r7, r1
 3885 000a 1546     		mov	r5, r2
 663:main.c        **** 	int32 ADC_Voltage_SD = 0;
 3886              		.loc 2 663 0
 3887 000c 0024     		movs	r4, #0
 3888 000e 0D94     		str	r4, [sp, #52]
 664:main.c        **** 	
 3889              		.loc 2 664 0
 3890 0010 0EAE     		add	r6, sp, #56
 3891 0012 46F8084D 		str	r4, [r6, #-8]!
 666:main.c        **** 	
 3892              		.loc 2 666 0
 3893 0016 0320     		movs	r0, #3
 3894              	.LVL519:
 3895 0018 FFF7FEFF 		bl	ADC_Adjust_Range
 3896              	.LVL520:
 668:main.c        **** 	
 3897              		.loc 2 668 0
 3898 001c 4246     		mov	r2, r8
 3899 001e 3146     		mov	r1, r6
 3900 0020 0DA8     		add	r0, sp, #52
 3901 0022 FFF7FEFF 		bl	ADC_Measure_uV
 3902              	.LVL521:
 670:main.c        **** 	int32 TIA_Offset_uV = TIA_Offsets_uV[TIA_Selected_Resistor];
 3903              		.loc 2 670 0
 3904 0026 3849     		ldr	r1, .L336+16
 3905 0028 0A79     		ldrb	r2, [r1, #4]	@ zero_extendqisi2
 3906 002a 9300     		lsls	r3, r2, #2
 3907 002c 374A     		ldr	r2, .L336+20
 3908 002e 1A44     		add	r2, r2, r3
 3909              	.LVL522:
 671:main.c        **** 	float unitConversion = -1.0e-6/TIA_Feedback_R;
 3910              		.loc 2 671 0
 3911 0030 0B44     		add	r3, r3, r1
 3912 0032 D3F80880 		ldr	r8, [r3, #8]
 3913              	.LVL523:
 672:main.c        **** 	
 3914              		.loc 2 672 0
 3915 0036 9068     		ldr	r0, [r2, #8]	@ float
 3916 0038 FFF7FEFF 		bl	__aeabi_f2d
 3917              	.LVL524:
 3918 003c 0246     		mov	r2, r0
 3919 003e 0B46     		mov	r3, r1
 3920 0040 2DA1     		adr	r1, .L336
 3921 0042 D1E90001 		ldrd	r0, [r1]
 3922 0046 FFF7FEFF 		bl	__aeabi_ddiv
 3923              	.LVL525:
 3924 004a FFF7FEFF 		bl	__aeabi_d2f
 3925              	.LVL526:
 3926 004e 0646     		mov	r6, r0
 3927              	.LVL527:
 674:main.c        **** 	
 3928              		.loc 2 674 0
 3929 0050 0D98     		ldr	r0, [sp, #52]
 3930              	.LVL528:
ARM GAS  C:\Users\FRANKL~1\AppData\Local\Temp\ccLkvCvD.s 			page 96


 3931 0052 4044     		add	r0, r0, r8
 3932 0054 FFF7FEFF 		bl	__aeabi_i2f
 3933              	.LVL529:
 3934 0058 0146     		mov	r1, r0
 3935 005a 3046     		mov	r0, r6
 3936 005c FFF7FEFF 		bl	__aeabi_fmul
 3937              	.LVL530:
 3938 0060 0646     		mov	r6, r0
 3939              	.LVL531:
 683:main.c        **** 	int32 SAR1_SD = 0;
 3940              		.loc 2 683 0
 3941 0062 0B94     		str	r4, [sp, #44]
 684:main.c        **** 	int32 SAR2_Average = 0;
 3942              		.loc 2 684 0
 3943 0064 0A94     		str	r4, [sp, #40]
 685:main.c        **** 	int32 SAR2_SD = 0;
 3944              		.loc 2 685 0
 3945 0066 0994     		str	r4, [sp, #36]
 686:main.c        **** 
 3946              		.loc 2 686 0
 3947 0068 0894     		str	r4, [sp, #32]
 688:main.c        **** 	SAR2_Measure_V(&SAR2_Average, &SAR2_SD, SAR2_SampleCount);
 3948              		.loc 2 688 0
 3949 006a 3A46     		mov	r2, r7
 3950 006c 0AA9     		add	r1, sp, #40
 3951 006e 0BA8     		add	r0, sp, #44
 3952              	.LVL532:
 3953 0070 FFF7FEFF 		bl	SAR1_Measure_V
 3954              	.LVL533:
 689:main.c        **** 
 3955              		.loc 2 689 0
 3956 0074 2A46     		mov	r2, r5
 3957 0076 08A9     		add	r1, sp, #32
 3958 0078 09A8     		add	r0, sp, #36
 3959 007a FFF7FEFF 		bl	SAR2_Measure_V
 3960              	.LVL534:
 691:main.c        **** 	float SAR2 = 1e-6*SAR2_Average;
 3961              		.loc 2 691 0
 3962 007e 0B98     		ldr	r0, [sp, #44]
 3963 0080 FFF7FEFF 		bl	__aeabi_i2d
 3964              	.LVL535:
 3965 0084 1EA3     		adr	r3, .L336+8
 3966 0086 D3E90023 		ldrd	r2, [r3]
 3967 008a FFF7FEFF 		bl	__aeabi_dmul
 3968              	.LVL536:
 3969 008e FFF7FEFF 		bl	__aeabi_d2f
 3970              	.LVL537:
 3971 0092 8246     		mov	r10, r0
 3972              	.LVL538:
 694:main.c        **** 	USBUARTH_Send(TransmitBuffer, strlen(TransmitBuffer));
 3973              		.loc 2 694 0
 3974 0094 FFF7FEFF 		bl	Get_Vgs
 3975              	.LVL539:
 3976 0098 8046     		mov	r8, r0
 3977              	.LVL540:
 3978 009a FFF7FEFF 		bl	Get_Vds
 3979              	.LVL541:
ARM GAS  C:\Users\FRANKL~1\AppData\Local\Temp\ccLkvCvD.s 			page 97


 3980 009e 8146     		mov	r9, r0
 3981 00a0 1B4B     		ldr	r3, .L336+24
 3982 00a2 1D78     		ldrb	r5, [r3]	@ zero_extendqisi2
 3983              	.LVL542:
 3984 00a4 EDB2     		uxtb	r5, r5
 3985 00a6 3046     		mov	r0, r6
 3986 00a8 FFF7FEFF 		bl	__aeabi_f2d
 3987              	.LVL543:
 3988 00ac 0646     		mov	r6, r0
 3989              	.LVL544:
 3990 00ae 0F46     		mov	r7, r1
 3991              	.LVL545:
 3992 00b0 184C     		ldr	r4, .L336+28
 3993 00b2 0695     		str	r5, [sp, #24]
 3994 00b4 5046     		mov	r0, r10
 3995 00b6 FFF7FEFF 		bl	__aeabi_f2d
 3996              	.LVL546:
 3997 00ba CDE90401 		strd	r0, [sp, #16]
 3998 00be 4846     		mov	r0, r9
 3999 00c0 FFF7FEFF 		bl	__aeabi_f2d
 4000              	.LVL547:
 4001 00c4 CDE90201 		strd	r0, [sp, #8]
 4002 00c8 4046     		mov	r0, r8
 4003 00ca FFF7FEFF 		bl	__aeabi_f2d
 4004              	.LVL548:
 4005 00ce CDE90001 		strd	r0, [sp]
 4006 00d2 3246     		mov	r2, r6
 4007 00d4 3B46     		mov	r3, r7
 4008 00d6 1049     		ldr	r1, .L336+32
 4009 00d8 2046     		mov	r0, r4
 4010 00da FFF7FEFF 		bl	sprintf
 4011              	.LVL549:
 695:main.c        **** 	UART_1_PutString(TransmitBuffer);
 4012              		.loc 2 695 0
 4013 00de 2046     		mov	r0, r4
 4014 00e0 FFF7FEFF 		bl	strlen
 4015              	.LVL550:
 4016 00e4 81B2     		uxth	r1, r0
 4017 00e6 2046     		mov	r0, r4
 4018 00e8 FFF7FEFF 		bl	USBUARTH_Send
 4019              	.LVL551:
 696:main.c        **** }
 4020              		.loc 2 696 0
 4021 00ec 2046     		mov	r0, r4
 4022 00ee FFF7FEFF 		bl	UART_1_PutString
 4023              	.LVL552:
 697:main.c        **** 
 4024              		.loc 2 697 0
 4025 00f2 0EB0     		add	sp, sp, #56
 4026              		.cfi_def_cfa_offset 32
 4027              		@ sp needed
 4028 00f4 BDE8F087 		pop	{r4, r5, r6, r7, r8, r9, r10, pc}
 4029              	.LVL553:
 4030              	.L337:
 4031              		.align	3
 4032              	.L336:
 4033 00f8 8DEDB5A0 		.word	-1598689907
ARM GAS  C:\Users\FRANKL~1\AppData\Local\Temp\ccLkvCvD.s 			page 98


 4034 00fc F7C6B0BE 		.word	-1095710985
 4035 0100 8DEDB5A0 		.word	-1598689907
 4036 0104 F7C6B03E 		.word	1051772663
 4037 0108 00000000 		.word	.LANCHOR0
 4038 010c 00000000 		.word	.LANCHOR1
 4039 0110 825B0040 		.word	1073765250
 4040 0114 00000000 		.word	TransmitBuffer
 4041 0118 E0000000 		.word	.LC13
 4042              		.cfi_endproc
 4043              	.LFE105:
 4044              		.size	Measure, .-Measure
 4045              		.section	.text.Measure_Multiple,"ax",%progbits
 4046              		.align	2
 4047              		.global	Measure_Multiple
 4048              		.thumb
 4049              		.thumb_func
 4050              		.type	Measure_Multiple, %function
 4051              	Measure_Multiple:
 4052              	.LFB106:
 700:main.c        **** 	for (uint32 i = 0; i < n; i++) {
 4053              		.loc 2 700 0
 4054              		.cfi_startproc
 4055              		@ args = 0, pretend = 0, frame = 0
 4056              		@ frame_needed = 0, uses_anonymous_args = 0
 4057              	.LVL554:
 4058 0000 38B5     		push	{r3, r4, r5, lr}
 4059              		.cfi_def_cfa_offset 16
 4060              		.cfi_offset 3, -16
 4061              		.cfi_offset 4, -12
 4062              		.cfi_offset 5, -8
 4063              		.cfi_offset 14, -4
 4064 0002 0546     		mov	r5, r0
 4065              	.LVL555:
 4066              	.LBB43:
 701:main.c        **** 		Measure(100, 1, 10);
 4067              		.loc 2 701 0
 4068 0004 0024     		movs	r4, #0
 4069 0006 05E0     		b	.L339
 4070              	.LVL556:
 4071              	.L340:
 702:main.c        **** 	}
 4072              		.loc 2 702 0 discriminator 3
 4073 0008 0A22     		movs	r2, #10
 4074 000a 0121     		movs	r1, #1
 4075 000c 6420     		movs	r0, #100
 4076 000e FFF7FEFF 		bl	Measure
 4077              	.LVL557:
 701:main.c        **** 		Measure(100, 1, 10);
 4078              		.loc 2 701 0 discriminator 3
 4079 0012 0134     		adds	r4, r4, #1
 4080              	.LVL558:
 4081              	.L339:
 701:main.c        **** 		Measure(100, 1, 10);
 4082              		.loc 2 701 0 is_stmt 0 discriminator 1
 4083 0014 AC42     		cmp	r4, r5
 4084 0016 F7D3     		bcc	.L340
 4085              	.LBE43:
ARM GAS  C:\Users\FRANKL~1\AppData\Local\Temp\ccLkvCvD.s 			page 99


 704:main.c        **** 
 4086              		.loc 2 704 0 is_stmt 1
 4087 0018 38BD     		pop	{r3, r4, r5, pc}
 4088              		.cfi_endproc
 4089              	.LFE106:
 4090              		.size	Measure_Multiple, .-Measure_Multiple
 4091 001a 00BF     		.section	.text.Measure_Sweep,"ax",%progbits
 4092              		.align	2
 4093              		.global	Measure_Sweep
 4094              		.thumb
 4095              		.thumb_func
 4096              		.type	Measure_Sweep, %function
 4097              	Measure_Sweep:
 4098              	.LFB107:
 707:main.c        **** 	VDAC_Vds_SetValue(90);
 4099              		.loc 2 707 0
 4100              		.cfi_startproc
 4101              		@ args = 0, pretend = 0, frame = 0
 4102              		@ frame_needed = 0, uses_anonymous_args = 0
 4103 0000 10B5     		push	{r4, lr}
 4104              		.cfi_def_cfa_offset 8
 4105              		.cfi_offset 4, -8
 4106              		.cfi_offset 14, -4
 708:main.c        **** 	VDAC_Vgs_SetValue(254);
 4107              		.loc 2 708 0
 4108 0002 5A20     		movs	r0, #90
 4109 0004 FFF7FEFF 		bl	VDAC_Vds_SetValue
 4110              	.LVL559:
 709:main.c        **** 	
 4111              		.loc 2 709 0
 4112 0008 FE20     		movs	r0, #254
 4113 000a FFF7FEFF 		bl	VDAC_Vgs_SetValue
 4114              	.LVL560:
 4115              	.LBB44:
 711:main.c        **** 		VDAC_Vgs_SetValue(Vgsi);
 4116              		.loc 2 711 0
 4117 000e 0024     		movs	r4, #0
 4118 0010 09E0     		b	.L343
 4119              	.LVL561:
 4120              	.L344:
 712:main.c        **** 		Measure(100, 1, 1);
 4121              		.loc 2 712 0 discriminator 3
 4122 0012 E0B2     		uxtb	r0, r4
 4123 0014 FFF7FEFF 		bl	VDAC_Vgs_SetValue
 4124              	.LVL562:
 713:main.c        **** 	}
 4125              		.loc 2 713 0 discriminator 3
 4126 0018 0122     		movs	r2, #1
 4127 001a 1146     		mov	r1, r2
 4128 001c 6420     		movs	r0, #100
 4129 001e FFF7FEFF 		bl	Measure
 4130              	.LVL563:
 711:main.c        **** 		VDAC_Vgs_SetValue(Vgsi);
 4131              		.loc 2 711 0 discriminator 3
 4132 0022 0134     		adds	r4, r4, #1
 4133              	.LVL564:
 4134 0024 A4B2     		uxth	r4, r4
ARM GAS  C:\Users\FRANKL~1\AppData\Local\Temp\ccLkvCvD.s 			page 100


 4135              	.LVL565:
 4136              	.L343:
 711:main.c        **** 		VDAC_Vgs_SetValue(Vgsi);
 4137              		.loc 2 711 0 is_stmt 0 discriminator 1
 4138 0026 FF2C     		cmp	r4, #255
 4139 0028 F3D9     		bls	.L344
 4140              	.LBE44:
 715:main.c        **** 
 4141              		.loc 2 715 0 is_stmt 1
 4142 002a 10BD     		pop	{r4, pc}
 4143              		.cfi_endproc
 4144              	.LFE107:
 4145              		.size	Measure_Sweep, .-Measure_Sweep
 4146              		.section	.text.Measure_Gate_Sweep,"ax",%progbits
 4147              		.align	2
 4148              		.global	Measure_Gate_Sweep
 4149              		.thumb
 4150              		.thumb_func
 4151              		.type	Measure_Gate_Sweep, %function
 4152              	Measure_Gate_Sweep:
 4153              	.LFB108:
 717:main.c        **** 	
 4154              		.loc 2 717 0
 4155              		.cfi_startproc
 4156              		@ args = 0, pretend = 0, frame = 0
 4157              		@ frame_needed = 0, uses_anonymous_args = 0
 4158              	.LVL566:
 4159 0000 2DE9F843 		push	{r3, r4, r5, r6, r7, r8, r9, lr}
 4160              		.cfi_def_cfa_offset 32
 4161              		.cfi_offset 3, -32
 4162              		.cfi_offset 4, -28
 4163              		.cfi_offset 5, -24
 4164              		.cfi_offset 6, -20
 4165              		.cfi_offset 7, -16
 4166              		.cfi_offset 8, -12
 4167              		.cfi_offset 9, -8
 4168              		.cfi_offset 14, -4
 4169 0004 8146     		mov	r9, r0
 719:main.c        **** 		Set_Ref_Raw(254 - Vds_Index_Goal_Relative);
 4170              		.loc 2 719 0
 4171 0006 274B     		ldr	r3, .L363
 4172 0008 B3F90030 		ldrsh	r3, [r3]
 4173 000c 002B     		cmp	r3, #0
 4174 000e 07DD     		ble	.L347
 720:main.c        **** 	} else {
 4175              		.loc 2 720 0
 4176 0010 C3F1FE00 		rsb	r0, r3, #254
 4177              	.LVL567:
 4178 0014 C0B2     		uxtb	r0, r0
 4179 0016 FFF7FEFF 		bl	Set_Ref_Raw
 4180              	.LVL568:
 4181              	.L349:
 4182              	.LBB45:
 4183              	.LBB46:
 4184              	.LBB47:
 4185 001a 4FF00008 		mov	r8, #0
 4186 001e 3DE0     		b	.L348
ARM GAS  C:\Users\FRANKL~1\AppData\Local\Temp\ccLkvCvD.s 			page 101


 4187              	.LVL569:
 4188              	.L347:
 4189              	.LBE47:
 4190              	.LBE46:
 4191              	.LBE45:
 722:main.c        **** 	}
 4192              		.loc 2 722 0
 4193 0020 FE20     		movs	r0, #254
 4194              	.LVL570:
 4195 0022 FFF7FEFF 		bl	Set_Ref_Raw
 4196              	.LVL571:
 4197 0026 F8E7     		b	.L349
 4198              	.LVL572:
 4199              	.L358:
 4200              	.LBB52:
 4201              	.LBB51:
 730:main.c        **** 			istart = -Vds_Index_Goal_Relative;
 4202              		.loc 2 730 0
 4203 0028 1E4B     		ldr	r3, .L363
 4204 002a B3F90030 		ldrsh	r3, [r3]
 4205 002e 002B     		cmp	r3, #0
 4206 0030 02DA     		bge	.L359
 731:main.c        **** 		}
 4207              		.loc 2 731 0
 4208 0032 5B42     		negs	r3, r3
 4209 0034 DDB2     		uxtb	r5, r3
 4210              	.LVL573:
 4211 0036 00E0     		b	.L350
 4212              	.LVL574:
 4213              	.L359:
 729:main.c        **** 		if (Vds_Index_Goal_Relative < 0) {
 4214              		.loc 2 729 0
 4215 0038 0025     		movs	r5, #0
 4216              	.LVL575:
 4217              	.L350:
 736:main.c        **** 			direction = -1*speed;
 4218              		.loc 2 736 0
 4219 003a 18F0010F 		tst	r8, #1
 4220 003e 02D1     		bne	.L360
 734:main.c        **** 		
 4221              		.loc 2 734 0
 4222 0040 F026     		movs	r6, #240
 728:main.c        **** 		uint8 istart = 0;
 4223              		.loc 2 728 0
 4224 0042 1027     		movs	r7, #16
 4225 0044 24E0     		b	.L352
 4226              	.L360:
 739:main.c        **** 		}
 4227              		.loc 2 739 0
 4228 0046 0026     		movs	r6, #0
 738:main.c        **** 			istop = 0;
 4229              		.loc 2 738 0
 4230 0048 F025     		movs	r5, #240
 4231              	.LVL576:
 737:main.c        **** 			istart = 256-speed;
 4232              		.loc 2 737 0
 4233 004a 6FF00F07 		mvn	r7, #15
ARM GAS  C:\Users\FRANKL~1\AppData\Local\Temp\ccLkvCvD.s 			page 102


 4234              	.LVL577:
 4235              	.LBB50:
 742:main.c        **** 			for (uint8 j = 0; j <= 1; j++) {
 4236              		.loc 2 742 0
 4237 004e 1FE0     		b	.L352
 4238              	.LVL578:
 4239              	.L356:
 4240              	.LBB48:
 744:main.c        **** 				Set_Vgs_Raw(i);
 4241              		.loc 2 744 0
 4242 0050 012C     		cmp	r4, #1
 4243 0052 03D1     		bne	.L353
 744:main.c        **** 				Set_Vgs_Raw(i);
 4244              		.loc 2 744 0 is_stmt 0 discriminator 1
 4245 0054 E843     		mvns	r0, r5
 4246 0056 C0B2     		uxtb	r0, r0
 4247 0058 FFF7FEFF 		bl	Set_Ref_Raw
 4248              	.LVL579:
 4249              	.L353:
 745:main.c        **** 				
 4250              		.loc 2 745 0 is_stmt 1
 4251 005c 2846     		mov	r0, r5
 4252 005e FFF7FEFF 		bl	Set_Vgs_Raw
 4253              	.LVL580:
 747:main.c        **** 				
 4254              		.loc 2 747 0
 4255 0062 0122     		movs	r2, #1
 4256 0064 1146     		mov	r1, r2
 4257 0066 2120     		movs	r0, #33
 4258 0068 FFF7FEFF 		bl	Measure
 4259              	.LVL581:
 749:main.c        **** 				while (G_Pause);
 4260              		.loc 2 749 0
 4261 006c 0E4B     		ldr	r3, .L363+4
 4262 006e 5B78     		ldrb	r3, [r3, #1]	@ zero_extendqisi2
 4263 0070 13F0FF0F 		tst	r3, #255
 4264 0074 0AD1     		bne	.L354
 4265              	.L355:
 750:main.c        **** 			}
 4266              		.loc 2 750 0 discriminator 1
 4267 0076 0C4B     		ldr	r3, .L363+4
 4268 0078 DB78     		ldrb	r3, [r3, #3]	@ zero_extendqisi2
 4269 007a 13F0FF0F 		tst	r3, #255
 4270 007e FAD1     		bne	.L355
 743:main.c        **** 				if (j == 1) Set_Ref_Raw(254 - i + 1);
 4271              		.loc 2 743 0 discriminator 2
 4272 0080 0134     		adds	r4, r4, #1
 4273              	.LVL582:
 4274 0082 E4B2     		uxtb	r4, r4
 4275              	.LVL583:
 4276 0084 00E0     		b	.L357
 4277              	.LVL584:
 4278              	.L361:
 4279              	.LBE48:
 4280 0086 0024     		movs	r4, #0
 4281              	.L357:
 4282              	.LVL585:
ARM GAS  C:\Users\FRANKL~1\AppData\Local\Temp\ccLkvCvD.s 			page 103


 4283              	.LBB49:
 743:main.c        **** 				if (j == 1) Set_Ref_Raw(254 - i + 1);
 4284              		.loc 2 743 0 is_stmt 0 discriminator 1
 4285 0088 012C     		cmp	r4, #1
 4286 008a E1D9     		bls	.L356
 4287              	.L354:
 4288              	.LBE49:
 742:main.c        **** 			for (uint8 j = 0; j <= 1; j++) {
 4289              		.loc 2 742 0 is_stmt 1 discriminator 2
 4290 008c 3D44     		add	r5, r5, r7
 4291              	.LVL586:
 4292 008e EDB2     		uxtb	r5, r5
 4293              	.LVL587:
 4294              	.L352:
 742:main.c        **** 			for (uint8 j = 0; j <= 1; j++) {
 4295              		.loc 2 742 0 is_stmt 0 discriminator 1
 4296 0090 AE42     		cmp	r6, r5
 4297 0092 F8D1     		bne	.L361
 4298              	.LBE50:
 4299              	.LBE51:
 727:main.c        **** 		int8 direction = 1*speed;
 4300              		.loc 2 727 0 is_stmt 1 discriminator 2
 4301 0094 08F10108 		add	r8, r8, #1
 4302              	.LVL588:
 4303 0098 5FFA88F8 		uxtb	r8, r8
 4304              	.LVL589:
 4305              	.L348:
 727:main.c        **** 		int8 direction = 1*speed;
 4306              		.loc 2 727 0 is_stmt 0 discriminator 1
 4307 009c C845     		cmp	r8, r9
 4308 009e C3D9     		bls	.L358
 4309              	.LBE52:
 754:main.c        **** 
 4310              		.loc 2 754 0 is_stmt 1
 4311 00a0 BDE8F883 		pop	{r3, r4, r5, r6, r7, r8, r9, pc}
 4312              	.LVL590:
 4313              	.L364:
 4314              		.align	2
 4315              	.L363:
 4316 00a4 00000000 		.word	Vds_Index_Goal_Relative
 4317 00a8 00000000 		.word	.LANCHOR0
 4318              		.cfi_endproc
 4319              	.LFE108:
 4320              		.size	Measure_Gate_Sweep, .-Measure_Gate_Sweep
 4321              		.section	.text.Measure_Wide_Gate_Sweep,"ax",%progbits
 4322              		.align	2
 4323              		.global	Measure_Wide_Gate_Sweep
 4324              		.thumb
 4325              		.thumb_func
 4326              		.type	Measure_Wide_Gate_Sweep, %function
 4327              	Measure_Wide_Gate_Sweep:
 4328              	.LFB109:
 756:main.c        **** 	Set_Ref_Raw(254);
 4329              		.loc 2 756 0
 4330              		.cfi_startproc
 4331              		@ args = 0, pretend = 0, frame = 0
 4332              		@ frame_needed = 0, uses_anonymous_args = 0
ARM GAS  C:\Users\FRANKL~1\AppData\Local\Temp\ccLkvCvD.s 			page 104


 4333              	.LVL591:
 4334 0000 2DE9F843 		push	{r3, r4, r5, r6, r7, r8, r9, lr}
 4335              		.cfi_def_cfa_offset 32
 4336              		.cfi_offset 3, -32
 4337              		.cfi_offset 4, -28
 4338              		.cfi_offset 5, -24
 4339              		.cfi_offset 6, -20
 4340              		.cfi_offset 7, -16
 4341              		.cfi_offset 8, -12
 4342              		.cfi_offset 9, -8
 4343              		.cfi_offset 14, -4
 4344 0004 8146     		mov	r9, r0
 757:main.c        **** 	
 4345              		.loc 2 757 0
 4346 0006 FE20     		movs	r0, #254
 4347              	.LVL592:
 4348 0008 FFF7FEFF 		bl	Set_Ref_Raw
 4349              	.LVL593:
 4350              	.LBB53:
 761:main.c        **** 		int8 direction = 1*speed;
 4351              		.loc 2 761 0
 4352 000c 4FF00008 		mov	r8, #0
 4353 0010 31E0     		b	.L366
 4354              	.LVL594:
 4355              	.L374:
 4356              	.LBB54:
 766:main.c        **** 			direction = -1*speed;
 4357              		.loc 2 766 0
 4358 0012 18F0010F 		tst	r8, #1
 4359 0016 03D1     		bne	.L375
 764:main.c        **** 		
 4360              		.loc 2 764 0
 4361 0018 F026     		movs	r6, #240
 763:main.c        **** 		uint8 istop = 256-speed;
 4362              		.loc 2 763 0
 4363 001a 0025     		movs	r5, #0
 762:main.c        **** 		uint8 istart = 0;
 4364              		.loc 2 762 0
 4365 001c 1027     		movs	r7, #16
 4366 001e 24E0     		b	.L368
 4367              	.L375:
 769:main.c        **** 		}
 4368              		.loc 2 769 0
 4369 0020 0026     		movs	r6, #0
 768:main.c        **** 			istop = 0;
 4370              		.loc 2 768 0
 4371 0022 F025     		movs	r5, #240
 767:main.c        **** 			istart = 256-speed;
 4372              		.loc 2 767 0
 4373 0024 6FF00F07 		mvn	r7, #15
 4374              	.LVL595:
 4375              	.LBB55:
 772:main.c        **** 			for (uint8 j = 0; j <= 1; j++) {
 4376              		.loc 2 772 0
 4377 0028 1FE0     		b	.L368
 4378              	.LVL596:
 4379              	.L372:
ARM GAS  C:\Users\FRANKL~1\AppData\Local\Temp\ccLkvCvD.s 			page 105


 4380              	.LBB56:
 775:main.c        **** 				Set_Vgs_Raw(i);
 4381              		.loc 2 775 0
 4382 002a 012C     		cmp	r4, #1
 4383 002c 03D1     		bne	.L369
 775:main.c        **** 				Set_Vgs_Raw(i);
 4384              		.loc 2 775 0 is_stmt 0 discriminator 1
 4385 002e E843     		mvns	r0, r5
 4386 0030 C0B2     		uxtb	r0, r0
 4387 0032 FFF7FEFF 		bl	Set_Ref_Raw
 4388              	.LVL597:
 4389              	.L369:
 776:main.c        **** 				
 4390              		.loc 2 776 0 is_stmt 1
 4391 0036 2846     		mov	r0, r5
 4392 0038 FFF7FEFF 		bl	Set_Vgs_Raw
 4393              	.LVL598:
 778:main.c        **** 				
 4394              		.loc 2 778 0
 4395 003c 0122     		movs	r2, #1
 4396 003e 1146     		mov	r1, r2
 4397 0040 2120     		movs	r0, #33
 4398 0042 FFF7FEFF 		bl	Measure
 4399              	.LVL599:
 780:main.c        **** 				while (G_Pause);
 4400              		.loc 2 780 0
 4401 0046 0E4B     		ldr	r3, .L378
 4402 0048 5B78     		ldrb	r3, [r3, #1]	@ zero_extendqisi2
 4403 004a 13F0FF0F 		tst	r3, #255
 4404 004e 0AD1     		bne	.L370
 4405              	.L371:
 781:main.c        **** 			}
 4406              		.loc 2 781 0 discriminator 1
 4407 0050 0B4B     		ldr	r3, .L378
 4408 0052 DB78     		ldrb	r3, [r3, #3]	@ zero_extendqisi2
 4409 0054 13F0FF0F 		tst	r3, #255
 4410 0058 FAD1     		bne	.L371
 773:main.c        **** 				
 4411              		.loc 2 773 0 discriminator 2
 4412 005a 0134     		adds	r4, r4, #1
 4413              	.LVL600:
 4414 005c E4B2     		uxtb	r4, r4
 4415              	.LVL601:
 4416 005e 00E0     		b	.L373
 4417              	.LVL602:
 4418              	.L376:
 4419              	.LBE56:
 4420 0060 0024     		movs	r4, #0
 4421              	.L373:
 4422              	.LVL603:
 4423              	.LBB57:
 773:main.c        **** 				
 4424              		.loc 2 773 0 is_stmt 0 discriminator 1
 4425 0062 012C     		cmp	r4, #1
 4426 0064 E1D9     		bls	.L372
 4427              	.L370:
 4428              	.LBE57:
ARM GAS  C:\Users\FRANKL~1\AppData\Local\Temp\ccLkvCvD.s 			page 106


 772:main.c        **** 			for (uint8 j = 0; j <= 1; j++) {
 4429              		.loc 2 772 0 is_stmt 1 discriminator 2
 4430 0066 3D44     		add	r5, r5, r7
 4431              	.LVL604:
 4432 0068 EDB2     		uxtb	r5, r5
 4433              	.LVL605:
 4434              	.L368:
 772:main.c        **** 			for (uint8 j = 0; j <= 1; j++) {
 4435              		.loc 2 772 0 is_stmt 0 discriminator 1
 4436 006a AE42     		cmp	r6, r5
 4437 006c F8D1     		bne	.L376
 4438              	.LBE55:
 4439              	.LBE54:
 761:main.c        **** 		int8 direction = 1*speed;
 4440              		.loc 2 761 0 is_stmt 1 discriminator 2
 4441 006e 08F10108 		add	r8, r8, #1
 4442              	.LVL606:
 4443 0072 5FFA88F8 		uxtb	r8, r8
 4444              	.LVL607:
 4445              	.L366:
 761:main.c        **** 		int8 direction = 1*speed;
 4446              		.loc 2 761 0 is_stmt 0 discriminator 1
 4447 0076 C845     		cmp	r8, r9
 4448 0078 CBD9     		bls	.L374
 4449              	.LBE53:
 785:main.c        **** 
 4450              		.loc 2 785 0 is_stmt 1
 4451 007a BDE8F883 		pop	{r3, r4, r5, r6, r7, r8, r9, pc}
 4452              	.LVL608:
 4453              	.L379:
 4454 007e 00BF     		.align	2
 4455              	.L378:
 4456 0080 00000000 		.word	.LANCHOR0
 4457              		.cfi_endproc
 4458              	.LFE109:
 4459              		.size	Measure_Wide_Gate_Sweep, .-Measure_Wide_Gate_Sweep
 4460              		.section	.text.Measure_Gate_Sweep_New,"ax",%progbits
 4461              		.align	2
 4462              		.global	Measure_Gate_Sweep_New
 4463              		.thumb
 4464              		.thumb_func
 4465              		.type	Measure_Gate_Sweep_New, %function
 4466              	Measure_Gate_Sweep_New:
 4467              	.LFB110:
 787:main.c        **** 	uint8 refTurn = 1;
 4468              		.loc 2 787 0
 4469              		.cfi_startproc
 4470              		@ args = 0, pretend = 0, frame = 0
 4471              		@ frame_needed = 0, uses_anonymous_args = 0
 4472 0000 2DE9F843 		push	{r3, r4, r5, r6, r7, r8, r9, lr}
 4473              		.cfi_def_cfa_offset 32
 4474              		.cfi_offset 3, -32
 4475              		.cfi_offset 4, -28
 4476              		.cfi_offset 5, -24
 4477              		.cfi_offset 6, -20
 4478              		.cfi_offset 7, -16
 4479              		.cfi_offset 8, -12
ARM GAS  C:\Users\FRANKL~1\AppData\Local\Temp\ccLkvCvD.s 			page 107


 4480              		.cfi_offset 9, -8
 4481              		.cfi_offset 14, -4
 4482              	.LVL609:
 799:main.c        **** 	
 4483              		.loc 2 799 0
 4484 0004 0027     		movs	r7, #0
 798:main.c        **** 	uint8 gateArrived = 0;
 4485              		.loc 2 798 0
 4486 0006 3E46     		mov	r6, r7
 793:main.c        **** 	
 4487              		.loc 2 793 0
 4488 0008 B946     		mov	r9, r7
 792:main.c        **** 	uint8 refArrived = 0;
 4489              		.loc 2 792 0
 4490 000a 3D46     		mov	r5, r7
 788:main.c        **** 	int8 refIncrement = 1;
 4491              		.loc 2 788 0
 4492 000c 0124     		movs	r4, #1
 802:main.c        **** 		gateArrived = abs(gateIndex-endGateIndex) < abs(gateIncrement);
 4493              		.loc 2 802 0
 4494 000e 39E0     		b	.L381
 4495              	.LVL610:
 4496              	.L389:
 803:main.c        **** 		refArrived = abs(refIndex-endRefIndex) < abs(refIncrement);
 4497              		.loc 2 803 0
 4498 0010 86EAE673 		eor	r3, r6, r6, asr #31
 4499 0014 A3EBE673 		sub	r3, r3, r6, asr #31
 4500 0018 002B     		cmp	r3, #0
 4501 001a CCBF     		ite	gt
 4502 001c 0027     		movgt	r7, #0
 4503              	.LVL611:
 4504 001e 0127     		movle	r7, #1
 4505              	.LVL612:
 804:main.c        **** 		
 4506              		.loc 2 804 0
 4507 0020 85EAE572 		eor	r2, r5, r5, asr #31
 4508 0024 A2EBE572 		sub	r2, r2, r5, asr #31
 4509 0028 002A     		cmp	r2, #0
 4510 002a CCBF     		ite	gt
 4511 002c 4FF00009 		movgt	r9, #0
 4512              	.LVL613:
 4513 0030 4FF00109 		movle	r9, #1
 4514              	.LVL614:
 806:main.c        **** 		
 4515              		.loc 2 806 0
 4516 0034 002C     		cmp	r4, #0
 4517 0036 0CBF     		ite	eq
 4518 0038 4FF00108 		moveq	r8, #1
 4519 003c 4FF00008 		movne	r8, #0
 4520              	.LVL615:
 808:main.c        **** 		if (!refTurn && gateArrived) continue;
 4521              		.loc 2 808 0
 4522 0040 01D1     		bne	.L382
 808:main.c        **** 		if (!refTurn && gateArrived) continue;
 4523              		.loc 2 808 0 is_stmt 0 discriminator 1
 4524 0042 002A     		cmp	r2, #0
 4525 0044 1DDD     		ble	.L383
ARM GAS  C:\Users\FRANKL~1\AppData\Local\Temp\ccLkvCvD.s 			page 108


 4526              	.L382:
 809:main.c        **** 		
 4527              		.loc 2 809 0 is_stmt 1
 4528 0046 0CB1     		cbz	r4, .L384
 809:main.c        **** 		
 4529              		.loc 2 809 0 is_stmt 0 discriminator 1
 4530 0048 002B     		cmp	r3, #0
 4531 004a 1ADD     		ble	.L383
 4532              	.L384:
 811:main.c        **** 		Set_Vgs_Raw(gateIndex);
 4533              		.loc 2 811 0 is_stmt 1
 4534 004c 2846     		mov	r0, r5
 4535 004e FFF7FEFF 		bl	Set_Ref_Raw
 4536              	.LVL616:
 812:main.c        **** 		
 4537              		.loc 2 812 0
 4538 0052 3046     		mov	r0, r6
 4539 0054 FFF7FEFF 		bl	Set_Vgs_Raw
 4540              	.LVL617:
 814:main.c        **** 		
 4541              		.loc 2 814 0
 4542 0058 0122     		movs	r2, #1
 4543 005a 1146     		mov	r1, r2
 4544 005c 6420     		movs	r0, #100
 4545 005e FFF7FEFF 		bl	Measure
 4546              	.LVL618:
 816:main.c        **** 			refIndex += refIncrement;
 4547              		.loc 2 816 0
 4548 0062 14B9     		cbnz	r4, .L385
 817:main.c        **** 		} else {
 4549              		.loc 2 817 0
 4550 0064 0135     		adds	r5, r5, #1
 4551              	.LVL619:
 4552 0066 EDB2     		uxtb	r5, r5
 4553              	.LVL620:
 4554 0068 01E0     		b	.L386
 4555              	.L385:
 819:main.c        **** 		}
 4556              		.loc 2 819 0
 4557 006a 0136     		adds	r6, r6, #1
 4558              	.LVL621:
 4559 006c F6B2     		uxtb	r6, r6
 4560              	.LVL622:
 4561              	.L386:
 822:main.c        **** 		while (G_Pause);
 4562              		.loc 2 822 0
 4563 006e 094B     		ldr	r3, .L391
 4564 0070 5B78     		ldrb	r3, [r3, #1]	@ zero_extendqisi2
 4565 0072 13F0FF0F 		tst	r3, #255
 4566 0076 0AD1     		bne	.L380
 4567              	.L388:
 823:main.c        **** 	}
 4568              		.loc 2 823 0 discriminator 1
 4569 0078 064B     		ldr	r3, .L391
 4570 007a DB78     		ldrb	r3, [r3, #3]	@ zero_extendqisi2
 4571 007c 13F0FF0F 		tst	r3, #255
 4572 0080 FAD1     		bne	.L388
ARM GAS  C:\Users\FRANKL~1\AppData\Local\Temp\ccLkvCvD.s 			page 109


 4573              	.L383:
 787:main.c        **** 	uint8 refTurn = 1;
 4574              		.loc 2 787 0
 4575 0082 4446     		mov	r4, r8
 4576              	.LVL623:
 4577              	.L381:
 802:main.c        **** 		gateArrived = abs(gateIndex-endGateIndex) < abs(gateIncrement);
 4578              		.loc 2 802 0
 4579 0084 002F     		cmp	r7, #0
 4580 0086 C3D0     		beq	.L389
 802:main.c        **** 		gateArrived = abs(gateIndex-endGateIndex) < abs(gateIncrement);
 4581              		.loc 2 802 0 is_stmt 0 discriminator 1
 4582 0088 B9F1000F 		cmp	r9, #0
 4583 008c C0D0     		beq	.L389
 4584              	.LVL624:
 4585              	.L380:
 4586 008e BDE8F883 		pop	{r3, r4, r5, r6, r7, r8, r9, pc}
 4587              	.LVL625:
 4588              	.L392:
 4589 0092 00BF     		.align	2
 4590              	.L391:
 4591 0094 00000000 		.word	.LANCHOR0
 4592              		.cfi_endproc
 4593              	.LFE110:
 4594              		.size	Measure_Gate_Sweep_New, .-Measure_Gate_Sweep_New
 4595              		.section	.text.Scan,"ax",%progbits
 4596              		.align	2
 4597              		.global	Scan
 4598              		.thumb
 4599              		.thumb_func
 4600              		.type	Scan, %function
 4601              	Scan:
 4602              	.LFB111:
 827:main.c        **** 	for (uint8 device = 1; device <= CONTACT_COUNT/**//2; device++) {
 4603              		.loc 2 827 0 is_stmt 1
 4604              		.cfi_startproc
 4605              		@ args = 0, pretend = 0, frame = 0
 4606              		@ frame_needed = 0, uses_anonymous_args = 0
 4607              	.LVL626:
 4608 0000 2DE9F041 		push	{r4, r5, r6, r7, r8, lr}
 4609              		.cfi_def_cfa_offset 24
 4610              		.cfi_offset 4, -24
 4611              		.cfi_offset 5, -20
 4612              		.cfi_offset 6, -16
 4613              		.cfi_offset 7, -12
 4614              		.cfi_offset 8, -8
 4615              		.cfi_offset 14, -4
 4616 0004 0746     		mov	r7, r0
 4617 0006 8846     		mov	r8, r1
 4618              	.LVL627:
 4619              	.LBB58:
 828:main.c        **** 		uint8 contact1 = device;
 4620              		.loc 2 828 0
 4621 0008 0124     		movs	r4, #1
 4622 000a 37E0     		b	.L394
 4623              	.LVL628:
 4624              	.L399:
ARM GAS  C:\Users\FRANKL~1\AppData\Local\Temp\ccLkvCvD.s 			page 110


 4625              	.LBB59:
 830:main.c        **** 		uint8 intermediate1 = 1;
 4626              		.loc 2 830 0
 4627 000c 661C     		adds	r6, r4, #1
 4628 000e F6B2     		uxtb	r6, r6
 4629              	.LVL629:
 834:main.c        **** 		Zero_All_DACs();
 4630              		.loc 2 834 0
 4631 0010 FFF7FEFF 		bl	Disconnect_All_Contacts_From_All_Intermediates
 4632              	.LVL630:
 835:main.c        **** 		Connect_Intermediates();
 4633              		.loc 2 835 0
 4634 0014 FFF7FEFF 		bl	Zero_All_DACs
 4635              	.LVL631:
 836:main.c        **** 		Connect_Contact_To_Intermediate(contact1, intermediate1);
 4636              		.loc 2 836 0
 4637 0018 FFF7FEFF 		bl	Connect_Intermediates
 4638              	.LVL632:
 837:main.c        **** 		Connect_Contact_To_Intermediate(contact2, intermediate2);
 4639              		.loc 2 837 0
 4640 001c 0121     		movs	r1, #1
 4641 001e 2046     		mov	r0, r4
 4642 0020 FFF7FEFF 		bl	Connect_Contact_To_Intermediate
 4643              	.LVL633:
 838:main.c        **** 		
 4644              		.loc 2 838 0
 4645 0024 0221     		movs	r1, #2
 4646 0026 3046     		mov	r0, r6
 4647 0028 FFF7FEFF 		bl	Connect_Contact_To_Intermediate
 4648              	.LVL634:
 840:main.c        **** 		USBUARTH_Send(TransmitBuffer, strlen(TransmitBuffer));
 4649              		.loc 2 840 0
 4650 002c 154D     		ldr	r5, .L401
 4651 002e 2246     		mov	r2, r4
 4652 0030 1549     		ldr	r1, .L401+4
 4653 0032 2846     		mov	r0, r5
 4654 0034 FFF7FEFF 		bl	sprintf
 4655              	.LVL635:
 841:main.c        **** 		UART_1_PutString(TransmitBuffer);
 4656              		.loc 2 841 0
 4657 0038 2846     		mov	r0, r5
 4658 003a FFF7FEFF 		bl	strlen
 4659              	.LVL636:
 4660 003e 81B2     		uxth	r1, r0
 4661 0040 2846     		mov	r0, r5
 4662 0042 FFF7FEFF 		bl	USBUARTH_Send
 4663              	.LVL637:
 842:main.c        **** 		
 4664              		.loc 2 842 0
 4665 0046 2846     		mov	r0, r5
 4666 0048 FFF7FEFF 		bl	UART_1_PutString
 4667              	.LVL638:
 844:main.c        **** 			Measure_Wide_Gate_Sweep(loop);
 4668              		.loc 2 844 0
 4669 004c 1FB1     		cbz	r7, .L395
 845:main.c        **** 		} else {
 4670              		.loc 2 845 0
ARM GAS  C:\Users\FRANKL~1\AppData\Local\Temp\ccLkvCvD.s 			page 111


 4671 004e 4046     		mov	r0, r8
 4672 0050 FFF7FEFF 		bl	Measure_Wide_Gate_Sweep
 4673              	.LVL639:
 4674 0054 02E0     		b	.L396
 4675              	.L395:
 847:main.c        **** 		}
 4676              		.loc 2 847 0
 4677 0056 4046     		mov	r0, r8
 4678 0058 FFF7FEFF 		bl	Measure_Gate_Sweep
 4679              	.LVL640:
 4680              	.L396:
 850:main.c        **** 		while (G_Pause);
 4681              		.loc 2 850 0
 4682 005c 0B4B     		ldr	r3, .L401+8
 4683 005e 9B78     		ldrb	r3, [r3, #2]	@ zero_extendqisi2
 4684 0060 13F0FF0F 		tst	r3, #255
 4685 0064 0CD1     		bne	.L393
 850:main.c        **** 		while (G_Pause);
 4686              		.loc 2 850 0 is_stmt 0 discriminator 1
 4687 0066 094B     		ldr	r3, .L401+8
 4688 0068 5B78     		ldrb	r3, [r3, #1]	@ zero_extendqisi2
 4689 006a 13F0FF0F 		tst	r3, #255
 4690 006e 07D1     		bne	.L393
 4691              	.L398:
 851:main.c        **** 	}
 4692              		.loc 2 851 0 is_stmt 1 discriminator 1
 4693 0070 064B     		ldr	r3, .L401+8
 4694 0072 DB78     		ldrb	r3, [r3, #3]	@ zero_extendqisi2
 4695 0074 13F0FF0F 		tst	r3, #255
 4696 0078 FAD1     		bne	.L398
 4697              	.LBE59:
 828:main.c        **** 		uint8 contact1 = device;
 4698              		.loc 2 828 0
 4699 007a 3446     		mov	r4, r6
 4700              	.LVL641:
 4701              	.L394:
 828:main.c        **** 		uint8 contact1 = device;
 4702              		.loc 2 828 0 is_stmt 0 discriminator 1
 4703 007c 202C     		cmp	r4, #32
 4704 007e C5D9     		bls	.L399
 4705              	.L393:
 4706 0080 BDE8F081 		pop	{r4, r5, r6, r7, r8, pc}
 4707              	.LVL642:
 4708              	.L402:
 4709              		.align	2
 4710              	.L401:
 4711 0084 00000000 		.word	TransmitBuffer
 4712 0088 F4000000 		.word	.LC14
 4713 008c 00000000 		.word	.LANCHOR0
 4714              	.LBE58:
 4715              		.cfi_endproc
 4716              	.LFE111:
 4717              		.size	Scan, .-Scan
 4718              		.section	.text.Scan_Range,"ax",%progbits
 4719              		.align	2
 4720              		.global	Scan_Range
 4721              		.thumb
ARM GAS  C:\Users\FRANKL~1\AppData\Local\Temp\ccLkvCvD.s 			page 112


 4722              		.thumb_func
 4723              		.type	Scan_Range, %function
 4724              	Scan_Range:
 4725              	.LFB112:
 855:main.c        **** 	if (startDevice >= CONTACT_COUNT) return;
 4726              		.loc 2 855 0 is_stmt 1
 4727              		.cfi_startproc
 4728              		@ args = 0, pretend = 0, frame = 0
 4729              		@ frame_needed = 0, uses_anonymous_args = 0
 4730              	.LVL643:
 856:main.c        **** 	if (stopDevice >= CONTACT_COUNT) return;
 4731              		.loc 2 856 0
 4732 0000 3F28     		cmp	r0, #63
 4733 0002 47D8     		bhi	.L411
 855:main.c        **** 	if (startDevice >= CONTACT_COUNT) return;
 4734              		.loc 2 855 0
 4735 0004 2DE9F843 		push	{r3, r4, r5, r6, r7, r8, r9, lr}
 4736              		.cfi_def_cfa_offset 32
 4737              		.cfi_offset 3, -32
 4738              		.cfi_offset 4, -28
 4739              		.cfi_offset 5, -24
 4740              		.cfi_offset 6, -20
 4741              		.cfi_offset 7, -16
 4742              		.cfi_offset 8, -12
 4743              		.cfi_offset 9, -8
 4744              		.cfi_offset 14, -4
 4745 0008 0446     		mov	r4, r0
 4746 000a 0F46     		mov	r7, r1
 4747 000c 9046     		mov	r8, r2
 4748 000e 9946     		mov	r9, r3
 857:main.c        **** 	
 4749              		.loc 2 857 0
 4750 0010 3F29     		cmp	r1, #63
 4751 0012 3BD9     		bls	.L405
 4752 0014 BDE8F883 		pop	{r3, r4, r5, r6, r7, r8, r9, pc}
 4753              	.LVL644:
 4754              	.L409:
 4755              	.LBB60:
 4756              	.LBB61:
 861:main.c        **** 		uint8 intermediate1 = 1;
 4757              		.loc 2 861 0
 4758 0018 661C     		adds	r6, r4, #1
 4759 001a F6B2     		uxtb	r6, r6
 4760              	.LVL645:
 865:main.c        **** 		Zero_All_DACs();
 4761              		.loc 2 865 0
 4762 001c FFF7FEFF 		bl	Disconnect_All_Contacts_From_All_Intermediates
 4763              	.LVL646:
 866:main.c        **** 		Connect_Intermediates();
 4764              		.loc 2 866 0
 4765 0020 FFF7FEFF 		bl	Zero_All_DACs
 4766              	.LVL647:
 867:main.c        **** 		Connect_Contact_To_Intermediate(contact1, intermediate1);
 4767              		.loc 2 867 0
 4768 0024 FFF7FEFF 		bl	Connect_Intermediates
 4769              	.LVL648:
 868:main.c        **** 		Connect_Contact_To_Intermediate(contact2, intermediate2);
ARM GAS  C:\Users\FRANKL~1\AppData\Local\Temp\ccLkvCvD.s 			page 113


 4770              		.loc 2 868 0
 4771 0028 0121     		movs	r1, #1
 4772 002a 2046     		mov	r0, r4
 4773 002c FFF7FEFF 		bl	Connect_Contact_To_Intermediate
 4774              	.LVL649:
 869:main.c        **** 		
 4775              		.loc 2 869 0
 4776 0030 0221     		movs	r1, #2
 4777 0032 3046     		mov	r0, r6
 4778 0034 FFF7FEFF 		bl	Connect_Contact_To_Intermediate
 4779              	.LVL650:
 871:main.c        **** 		USBUARTH_Send(TransmitBuffer, strlen(TransmitBuffer));
 4780              		.loc 2 871 0
 4781 0038 174D     		ldr	r5, .L412
 4782 003a 2246     		mov	r2, r4
 4783 003c 1749     		ldr	r1, .L412+4
 4784 003e 2846     		mov	r0, r5
 4785 0040 FFF7FEFF 		bl	sprintf
 4786              	.LVL651:
 872:main.c        **** 		UART_1_PutString(TransmitBuffer);
 4787              		.loc 2 872 0
 4788 0044 2846     		mov	r0, r5
 4789 0046 FFF7FEFF 		bl	strlen
 4790              	.LVL652:
 4791 004a 81B2     		uxth	r1, r0
 4792 004c 2846     		mov	r0, r5
 4793 004e FFF7FEFF 		bl	USBUARTH_Send
 4794              	.LVL653:
 873:main.c        **** 		
 4795              		.loc 2 873 0
 4796 0052 2846     		mov	r0, r5
 4797 0054 FFF7FEFF 		bl	UART_1_PutString
 4798              	.LVL654:
 875:main.c        **** 			Measure_Wide_Gate_Sweep(loop);
 4799              		.loc 2 875 0
 4800 0058 B8F1000F 		cmp	r8, #0
 4801 005c 03D0     		beq	.L406
 876:main.c        **** 		} else {
 4802              		.loc 2 876 0
 4803 005e 4846     		mov	r0, r9
 4804 0060 FFF7FEFF 		bl	Measure_Wide_Gate_Sweep
 4805              	.LVL655:
 4806 0064 02E0     		b	.L407
 4807              	.L406:
 878:main.c        **** 		}
 4808              		.loc 2 878 0
 4809 0066 4846     		mov	r0, r9
 4810 0068 FFF7FEFF 		bl	Measure_Gate_Sweep
 4811              	.LVL656:
 4812              	.L407:
 881:main.c        **** 		while (G_Pause);
 4813              		.loc 2 881 0
 4814 006c 0C4B     		ldr	r3, .L412+8
 4815 006e 9B78     		ldrb	r3, [r3, #2]	@ zero_extendqisi2
 4816 0070 13F0FF0F 		tst	r3, #255
 4817 0074 0CD1     		bne	.L403
 881:main.c        **** 		while (G_Pause);
ARM GAS  C:\Users\FRANKL~1\AppData\Local\Temp\ccLkvCvD.s 			page 114


 4818              		.loc 2 881 0 is_stmt 0 discriminator 1
 4819 0076 0A4B     		ldr	r3, .L412+8
 4820 0078 5B78     		ldrb	r3, [r3, #1]	@ zero_extendqisi2
 4821 007a 13F0FF0F 		tst	r3, #255
 4822 007e 07D1     		bne	.L403
 4823              	.L408:
 882:main.c        **** 	}
 4824              		.loc 2 882 0 is_stmt 1 discriminator 1
 4825 0080 074B     		ldr	r3, .L412+8
 4826 0082 DB78     		ldrb	r3, [r3, #3]	@ zero_extendqisi2
 4827 0084 13F0FF0F 		tst	r3, #255
 4828 0088 FAD1     		bne	.L408
 4829              	.LBE61:
 859:main.c        **** 		uint8 contact1 = device;
 4830              		.loc 2 859 0
 4831 008a 3446     		mov	r4, r6
 4832              	.LVL657:
 4833              	.L405:
 859:main.c        **** 		uint8 contact1 = device;
 4834              		.loc 2 859 0 is_stmt 0 discriminator 1
 4835 008c BC42     		cmp	r4, r7
 4836 008e C3D9     		bls	.L409
 4837              	.L403:
 4838 0090 BDE8F883 		pop	{r3, r4, r5, r6, r7, r8, r9, pc}
 4839              	.LVL658:
 4840              	.L411:
 4841              		.cfi_def_cfa_offset 0
 4842              		.cfi_restore 3
 4843              		.cfi_restore 4
 4844              		.cfi_restore 5
 4845              		.cfi_restore 6
 4846              		.cfi_restore 7
 4847              		.cfi_restore 8
 4848              		.cfi_restore 9
 4849              		.cfi_restore 14
 4850 0094 7047     		bx	lr
 4851              	.L413:
 4852 0096 00BF     		.align	2
 4853              	.L412:
 4854 0098 00000000 		.word	TransmitBuffer
 4855 009c F4000000 		.word	.LC14
 4856 00a0 00000000 		.word	.LANCHOR0
 4857              	.LBE60:
 4858              		.cfi_endproc
 4859              	.LFE112:
 4860              		.size	Scan_Range, .-Scan_Range
 4861              		.section	.text.main,"ax",%progbits
 4862              		.align	2
 4863              		.global	main
 4864              		.thumb
 4865              		.thumb_func
 4866              		.type	main, %function
 4867              	main:
 4868              	.LFB114:
 955:main.c        **** 
 956:main.c        **** int main(void) {
 4869              		.loc 2 956 0 is_stmt 1
ARM GAS  C:\Users\FRANKL~1\AppData\Local\Temp\ccLkvCvD.s 			page 115


 4870              		.cfi_startproc
 4871              		@ args = 0, pretend = 0, frame = 8
 4872              		@ frame_needed = 0, uses_anonymous_args = 0
 4873 0000 F0B5     		push	{r4, r5, r6, r7, lr}
 4874              		.cfi_def_cfa_offset 20
 4875              		.cfi_offset 4, -20
 4876              		.cfi_offset 5, -16
 4877              		.cfi_offset 6, -12
 4878              		.cfi_offset 7, -8
 4879              		.cfi_offset 14, -4
 4880 0002 83B0     		sub	sp, sp, #12
 4881              		.cfi_def_cfa_offset 32
 957:main.c        **** 	CyGlobalIntEnable;
 4882              		.loc 2 957 0
 4883              		.syntax unified
 4884              	@ 957 "main.c" 1
 4885 0004 62B6     		CPSIE   i
 4886              	@ 0 "" 2
 958:main.c        **** 	
 959:main.c        **** 	Setup_Selectors();
 4887              		.loc 2 959 0
 4888              		.thumb
 4889              		.syntax unified
 4890 0006 FFF7FEFF 		bl	Setup_Selectors
 4891              	.LVL659:
 960:main.c        **** 	
 961:main.c        **** 	USBUART_Start(0u, USBUART_5V_OPERATION);
 4892              		.loc 2 961 0
 4893 000a 0121     		movs	r1, #1
 4894 000c 0020     		movs	r0, #0
 4895 000e FFF7FEFF 		bl	USBUART_Start
 4896              	.LVL660:
 962:main.c        **** 	UART_1_Start();
 4897              		.loc 2 962 0
 4898 0012 FFF7FEFF 		bl	UART_1_Start
 4899              	.LVL661:
 963:main.c        **** 	VDAC_Vds_Start();
 4900              		.loc 2 963 0
 4901 0016 FFF7FEFF 		bl	VDAC_Vds_Start
 4902              	.LVL662:
 964:main.c        **** 	VDAC_Vgs_Start();
 4903              		.loc 2 964 0
 4904 001a FFF7FEFF 		bl	VDAC_Vgs_Start
 4905              	.LVL663:
 965:main.c        **** 	VDAC_Ref_Start();
 4906              		.loc 2 965 0
 4907 001e FFF7FEFF 		bl	VDAC_Ref_Start
 4908              	.LVL664:
 966:main.c        **** 	ADC_DelSig_1_Start();
 4909              		.loc 2 966 0
 4910 0022 FFF7FEFF 		bl	ADC_DelSig_1_Start
 4911              	.LVL665:
 967:main.c        **** 	TIA_1_Start();
 4912              		.loc 2 967 0
 4913 0026 FFF7FEFF 		bl	TIA_1_Start
 4914              	.LVL666:
 968:main.c        **** 	I2C_1_Start();
ARM GAS  C:\Users\FRANKL~1\AppData\Local\Temp\ccLkvCvD.s 			page 116


 4915              		.loc 2 968 0
 4916 002a FFF7FEFF 		bl	I2C_1_Start
 4917              	.LVL667:
 969:main.c        **** 	ADC_SAR_1_Start();
 4918              		.loc 2 969 0
 4919 002e FFF7FEFF 		bl	ADC_SAR_1_Start
 4920              	.LVL668:
 970:main.c        **** 	ADC_SAR_2_Start();
 4921              		.loc 2 970 0
 4922 0032 FFF7FEFF 		bl	ADC_SAR_2_Start
 4923              	.LVL669:
 971:main.c        **** 	
 972:main.c        **** 	CyDelay(1000);
 4924              		.loc 2 972 0
 4925 0036 4FF47A70 		mov	r0, #1000
 4926 003a FFF7FEFF 		bl	CyDelay
 4927              	.LVL670:
 973:main.c        **** 	
 974:main.c        **** 	UART_1_PutString("\r\n# Starting\r\n");
 4928              		.loc 2 974 0
 4929 003e B948     		ldr	r0, .L451
 4930 0040 FFF7FEFF 		bl	UART_1_PutString
 4931              	.LVL671:
 975:main.c        **** 	
 976:main.c        **** 	Connect_Intermediates();
 4932              		.loc 2 976 0
 4933 0044 FFF7FEFF 		bl	Connect_Intermediates
 4934              	.LVL672:
 977:main.c        **** 	
 978:main.c        **** 	newData = 0;
 4935              		.loc 2 978 0
 4936 0048 B74C     		ldr	r4, .L451+4
 4937 004a 0023     		movs	r3, #0
 4938 004c 2370     		strb	r3, [r4]
 979:main.c        **** 	UART_Rx_Position = 0;
 4939              		.loc 2 979 0
 4940 004e B74A     		ldr	r2, .L451+8
 4941 0050 1370     		strb	r3, [r2]
 980:main.c        **** 	USBUART_Rx_Position = 0;
 4942              		.loc 2 980 0
 4943 0052 B74A     		ldr	r2, .L451+12
 4944 0054 1370     		strb	r3, [r2]
 981:main.c        **** 	
 982:main.c        **** 	CommunicationTimer_Start();
 4945              		.loc 2 982 0
 4946 0056 FFF7FEFF 		bl	CommunicationTimer_Start
 4947              	.LVL673:
 983:main.c        **** 	CommunicationInterrupt_StartEx(CommunicationHandlerISR);
 4948              		.loc 2 983 0
 4949 005a B648     		ldr	r0, .L451+16
 4950 005c FFF7FEFF 		bl	CommunicationInterrupt_StartEx
 4951              	.LVL674:
 984:main.c        **** 	
 985:main.c        **** 	Current_Measurement_Sample_Count = 100;
 4952              		.loc 2 985 0
 4953 0060 6422     		movs	r2, #100
 4954 0062 B54B     		ldr	r3, .L451+20
ARM GAS  C:\Users\FRANKL~1\AppData\Local\Temp\ccLkvCvD.s 			page 117


 4955 0064 1A60     		str	r2, [r3]
 986:main.c        **** 	
 987:main.c        **** 	Calibrate_ADC_Offset(300);
 4956              		.loc 2 987 0
 4957 0066 4FF49670 		mov	r0, #300
 4958 006a FFF7FEFF 		bl	Calibrate_ADC_Offset
 4959              	.LVL675:
 988:main.c        **** 	TIA_Set_Resistor(TIA_Selected_Resistor);
 4960              		.loc 2 988 0
 4961 006e 2079     		ldrb	r0, [r4, #4]	@ zero_extendqisi2
 4962 0070 FFF7FEFF 		bl	TIA_Set_Resistor
 4963              	.LVL676:
 4964              	.L416:
 989:main.c        **** 	
 990:main.c        **** 	while (1) {
 991:main.c        **** 		G_Stop = 0;
 4965              		.loc 2 991 0
 4966 0074 AC4B     		ldr	r3, .L451+4
 4967 0076 0022     		movs	r2, #0
 4968 0078 5A70     		strb	r2, [r3, #1]
 992:main.c        **** 		G_Break = 0;
 4969              		.loc 2 992 0
 4970 007a 9A70     		strb	r2, [r3, #2]
 993:main.c        **** 		
 994:main.c        **** 		if (newData) {
 4971              		.loc 2 994 0
 4972 007c 1B78     		ldrb	r3, [r3]	@ zero_extendqisi2
 4973 007e 13F0FF0F 		tst	r3, #255
 4974 0082 F7D0     		beq	.L416
 4975              	.LVL677:
 4976              	.LBB62:
 995:main.c        **** 			char* ReceiveBuffer = &USBUART_Receive_Buffer[0];
 996:main.c        **** 			if (newData == 2) ReceiveBuffer = &UART_Receive_Buffer[0];
 4977              		.loc 2 996 0
 4978 0084 A84B     		ldr	r3, .L451+4
 4979 0086 1B78     		ldrb	r3, [r3]	@ zero_extendqisi2
 4980 0088 DBB2     		uxtb	r3, r3
 4981 008a 022B     		cmp	r3, #2
 4982 008c 01D0     		beq	.L449
 995:main.c        **** 			char* ReceiveBuffer = &USBUART_Receive_Buffer[0];
 4983              		.loc 2 995 0
 4984 008e AB4C     		ldr	r4, .L451+24
 4985 0090 00E0     		b	.L417
 4986              	.L449:
 4987              		.loc 2 996 0
 4988 0092 AB4C     		ldr	r4, .L451+28
 4989              	.L417:
 4990              	.LVL678:
 997:main.c        **** 			
 998:main.c        **** 			newData = 0;
 4991              		.loc 2 998 0
 4992 0094 0022     		movs	r2, #0
 4993 0096 A44B     		ldr	r3, .L451+4
 4994 0098 1A70     		strb	r2, [r3]
 999:main.c        **** 			
1000:main.c        **** 			if (strstr(ReceiveBuffer, "measure ") == &ReceiveBuffer[0]) {
 4995              		.loc 2 1000 0
ARM GAS  C:\Users\FRANKL~1\AppData\Local\Temp\ccLkvCvD.s 			page 118


 4996 009a AA49     		ldr	r1, .L451+32
 4997 009c 2046     		mov	r0, r4
 4998 009e FFF7FEFF 		bl	strstr
 4999              	.LVL679:
 5000 00a2 8442     		cmp	r4, r0
 5001 00a4 05D1     		bne	.L418
1001:main.c        **** 				Measure(100, 1, 10);
 5002              		.loc 2 1001 0
 5003 00a6 0A22     		movs	r2, #10
 5004 00a8 0121     		movs	r1, #1
 5005 00aa 6420     		movs	r0, #100
 5006 00ac FFF7FEFF 		bl	Measure
 5007              	.LVL680:
 5008 00b0 E0E7     		b	.L416
 5009              	.L418:
1002:main.c        **** 			} else 
1003:main.c        **** 			if (strstr(ReceiveBuffer, "measure-multiple ") == &ReceiveBuffer[0]) {
 5010              		.loc 2 1003 0
 5011 00b2 A549     		ldr	r1, .L451+36
 5012 00b4 2046     		mov	r0, r4
 5013 00b6 FFF7FEFF 		bl	strstr
 5014              	.LVL681:
 5015 00ba 8442     		cmp	r4, r0
 5016 00bc 0CD1     		bne	.L420
 5017              	.LBB63:
1004:main.c        **** 				char* location = strstr(ReceiveBuffer, " ");
 5018              		.loc 2 1004 0
 5019 00be 2021     		movs	r1, #32
 5020 00c0 2046     		mov	r0, r4
 5021 00c2 FFF7FEFF 		bl	strchr
 5022              	.LVL682:
 5023 00c6 02A9     		add	r1, sp, #8
 5024 00c8 41F8040D 		str	r0, [r1, #-4]!
1005:main.c        **** 				uint32 n = strtol(location, &location, 10);
 5025              		.loc 2 1005 0
 5026 00cc 0A22     		movs	r2, #10
 5027 00ce FFF7FEFF 		bl	strtol
 5028              	.LVL683:
1006:main.c        **** 				
1007:main.c        **** 				Measure_Multiple(n);
 5029              		.loc 2 1007 0
 5030 00d2 FFF7FEFF 		bl	Measure_Multiple
 5031              	.LVL684:
 5032              	.LBE63:
 5033 00d6 CDE7     		b	.L416
 5034              	.L420:
1008:main.c        **** 			} else 
1009:main.c        **** 			if (strstr(ReceiveBuffer, "measure-sweep ") == &ReceiveBuffer[0]) {
 5035              		.loc 2 1009 0
 5036 00d8 9C49     		ldr	r1, .L451+40
 5037 00da 2046     		mov	r0, r4
 5038 00dc FFF7FEFF 		bl	strstr
 5039              	.LVL685:
 5040 00e0 8442     		cmp	r4, r0
 5041 00e2 02D1     		bne	.L421
1010:main.c        **** 				Measure_Sweep();
 5042              		.loc 2 1010 0
ARM GAS  C:\Users\FRANKL~1\AppData\Local\Temp\ccLkvCvD.s 			page 119


 5043 00e4 FFF7FEFF 		bl	Measure_Sweep
 5044              	.LVL686:
 5045 00e8 C4E7     		b	.L416
 5046              	.L421:
1011:main.c        **** 			} else 
1012:main.c        **** 			if (strstr(ReceiveBuffer, "measure-gate-sweep ") == &ReceiveBuffer[0]) {
 5047              		.loc 2 1012 0
 5048 00ea 9949     		ldr	r1, .L451+44
 5049 00ec 2046     		mov	r0, r4
 5050 00ee FFF7FEFF 		bl	strstr
 5051              	.LVL687:
 5052 00f2 8442     		cmp	r4, r0
 5053 00f4 03D1     		bne	.L422
1013:main.c        **** 				Measure_Gate_Sweep(0);
 5054              		.loc 2 1013 0
 5055 00f6 0020     		movs	r0, #0
 5056 00f8 FFF7FEFF 		bl	Measure_Gate_Sweep
 5057              	.LVL688:
 5058 00fc BAE7     		b	.L416
 5059              	.L422:
1014:main.c        **** 			} else 
1015:main.c        **** 			if (strstr(ReceiveBuffer, "measure-gate-sweep-loop ") == &ReceiveBuffer[0]) {
 5060              		.loc 2 1015 0
 5061 00fe 9549     		ldr	r1, .L451+48
 5062 0100 2046     		mov	r0, r4
 5063 0102 FFF7FEFF 		bl	strstr
 5064              	.LVL689:
 5065 0106 8442     		cmp	r4, r0
 5066 0108 03D1     		bne	.L423
1016:main.c        **** 				Measure_Gate_Sweep(1);
 5067              		.loc 2 1016 0
 5068 010a 0120     		movs	r0, #1
 5069 010c FFF7FEFF 		bl	Measure_Gate_Sweep
 5070              	.LVL690:
 5071 0110 B0E7     		b	.L416
 5072              	.L423:
1017:main.c        **** 			} else 
1018:main.c        **** 			if (strstr(ReceiveBuffer, "calibrate-offset ") == &ReceiveBuffer[0]) {
 5073              		.loc 2 1018 0
 5074 0112 9149     		ldr	r1, .L451+52
 5075 0114 2046     		mov	r0, r4
 5076 0116 FFF7FEFF 		bl	strstr
 5077              	.LVL691:
 5078 011a 8442     		cmp	r4, r0
 5079 011c 04D1     		bne	.L424
1019:main.c        **** 				Calibrate_ADC_Offset(300);
 5080              		.loc 2 1019 0
 5081 011e 4FF49670 		mov	r0, #300
 5082 0122 FFF7FEFF 		bl	Calibrate_ADC_Offset
 5083              	.LVL692:
 5084 0126 A5E7     		b	.L416
 5085              	.L424:
1020:main.c        **** 			} else
1021:main.c        **** 			if (strstr(ReceiveBuffer, "set-vgs-raw ") == &ReceiveBuffer[0]) {
 5086              		.loc 2 1021 0
 5087 0128 8C49     		ldr	r1, .L451+56
 5088 012a 2046     		mov	r0, r4
ARM GAS  C:\Users\FRANKL~1\AppData\Local\Temp\ccLkvCvD.s 			page 120


 5089 012c FFF7FEFF 		bl	strstr
 5090              	.LVL693:
 5091 0130 8442     		cmp	r4, r0
 5092 0132 0DD1     		bne	.L425
 5093              	.LBB64:
1022:main.c        **** 				char* location = strstr(ReceiveBuffer, " ");
 5094              		.loc 2 1022 0 discriminator 2
 5095 0134 2021     		movs	r1, #32
 5096 0136 2046     		mov	r0, r4
 5097 0138 FFF7FEFF 		bl	strchr
 5098              	.LVL694:
 5099 013c 02A9     		add	r1, sp, #8
 5100 013e 41F8040D 		str	r0, [r1, #-4]!
1023:main.c        **** 				uint8 vgsi = strtol(location, &location, 10);
 5101              		.loc 2 1023 0 discriminator 2
 5102 0142 0A22     		movs	r2, #10
 5103 0144 FFF7FEFF 		bl	strtol
 5104              	.LVL695:
1024:main.c        **** 				
1025:main.c        **** 				Set_Vgs_Raw(vgsi);
 5105              		.loc 2 1025 0 discriminator 2
 5106 0148 C0B2     		uxtb	r0, r0
 5107 014a FFF7FEFF 		bl	Set_Vgs_Raw
 5108              	.LVL696:
 5109              	.LBE64:
 5110 014e 91E7     		b	.L416
 5111              	.L425:
1026:main.c        **** 			} else 
1027:main.c        **** 			if (strstr(ReceiveBuffer, "set-vds-raw ") == &ReceiveBuffer[0]) {
 5112              		.loc 2 1027 0
 5113 0150 8349     		ldr	r1, .L451+60
 5114 0152 2046     		mov	r0, r4
 5115 0154 FFF7FEFF 		bl	strstr
 5116              	.LVL697:
 5117 0158 8442     		cmp	r4, r0
 5118 015a 0DD1     		bne	.L426
 5119              	.LBB65:
1028:main.c        **** 				char* location = strstr(ReceiveBuffer, " ");
 5120              		.loc 2 1028 0 discriminator 3
 5121 015c 2021     		movs	r1, #32
 5122 015e 2046     		mov	r0, r4
 5123 0160 FFF7FEFF 		bl	strchr
 5124              	.LVL698:
 5125 0164 02A9     		add	r1, sp, #8
 5126 0166 41F8040D 		str	r0, [r1, #-4]!
1029:main.c        **** 				uint8 vdsi = strtol(location, &location, 10);
 5127              		.loc 2 1029 0 discriminator 3
 5128 016a 0A22     		movs	r2, #10
 5129 016c FFF7FEFF 		bl	strtol
 5130              	.LVL699:
1030:main.c        **** 				
1031:main.c        **** 				Set_Vds_Raw(vdsi);
 5131              		.loc 2 1031 0 discriminator 3
 5132 0170 C0B2     		uxtb	r0, r0
 5133 0172 FFF7FEFF 		bl	Set_Vds_Raw
 5134              	.LVL700:
 5135              	.LBE65:
ARM GAS  C:\Users\FRANKL~1\AppData\Local\Temp\ccLkvCvD.s 			page 121


 5136 0176 7DE7     		b	.L416
 5137              	.L426:
1032:main.c        **** 			} else 
1033:main.c        **** 			if (strstr(ReceiveBuffer, "set-vgs-rel ") == &ReceiveBuffer[0]) {
 5138              		.loc 2 1033 0
 5139 0178 7A49     		ldr	r1, .L451+64
 5140 017a 2046     		mov	r0, r4
 5141 017c FFF7FEFF 		bl	strstr
 5142              	.LVL701:
 5143 0180 8442     		cmp	r4, r0
 5144 0182 0DD1     		bne	.L427
 5145              	.LBB66:
1034:main.c        **** 				char* location = strstr(ReceiveBuffer, " ");
 5146              		.loc 2 1034 0 discriminator 4
 5147 0184 2021     		movs	r1, #32
 5148 0186 2046     		mov	r0, r4
 5149 0188 FFF7FEFF 		bl	strchr
 5150              	.LVL702:
 5151 018c 02A9     		add	r1, sp, #8
 5152 018e 41F8040D 		str	r0, [r1, #-4]!
1035:main.c        **** 				int8 vgsi = strtol(location, &location, 10);
 5153              		.loc 2 1035 0 discriminator 4
 5154 0192 0A22     		movs	r2, #10
 5155 0194 FFF7FEFF 		bl	strtol
 5156              	.LVL703:
1036:main.c        **** 				
1037:main.c        **** 				Set_Vgs_Rel(vgsi);
 5157              		.loc 2 1037 0 discriminator 4
 5158 0198 40B2     		sxtb	r0, r0
 5159 019a FFF7FEFF 		bl	Set_Vgs_Rel
 5160              	.LVL704:
 5161              	.LBE66:
 5162 019e 69E7     		b	.L416
 5163              	.L427:
1038:main.c        **** 			} else 
1039:main.c        **** 			if (strstr(ReceiveBuffer, "set-vds-rel ") == &ReceiveBuffer[0]) {
 5164              		.loc 2 1039 0
 5165 01a0 7149     		ldr	r1, .L451+68
 5166 01a2 2046     		mov	r0, r4
 5167 01a4 FFF7FEFF 		bl	strstr
 5168              	.LVL705:
 5169 01a8 8442     		cmp	r4, r0
 5170 01aa 0DD1     		bne	.L428
 5171              	.LBB67:
1040:main.c        **** 				char* location = strstr(ReceiveBuffer, " ");
 5172              		.loc 2 1040 0 discriminator 5
 5173 01ac 2021     		movs	r1, #32
 5174 01ae 2046     		mov	r0, r4
 5175 01b0 FFF7FEFF 		bl	strchr
 5176              	.LVL706:
 5177 01b4 02A9     		add	r1, sp, #8
 5178 01b6 41F8040D 		str	r0, [r1, #-4]!
1041:main.c        **** 				int8 vdsi = strtol(location, &location, 10);
 5179              		.loc 2 1041 0 discriminator 5
 5180 01ba 0A22     		movs	r2, #10
 5181 01bc FFF7FEFF 		bl	strtol
 5182              	.LVL707:
ARM GAS  C:\Users\FRANKL~1\AppData\Local\Temp\ccLkvCvD.s 			page 122


1042:main.c        **** 				
1043:main.c        **** 				Set_Vds_Rel(vdsi);
 5183              		.loc 2 1043 0 discriminator 5
 5184 01c0 40B2     		sxtb	r0, r0
 5185 01c2 FFF7FEFF 		bl	Set_Vds_Rel
 5186              	.LVL708:
 5187              	.LBE67:
 5188 01c6 55E7     		b	.L416
 5189              	.L428:
1044:main.c        **** 			} else 
1045:main.c        **** 			if (strstr(ReceiveBuffer, "set-vgs ") == &ReceiveBuffer[0]) {
 5190              		.loc 2 1045 0
 5191 01c8 6849     		ldr	r1, .L451+72
 5192 01ca 2046     		mov	r0, r4
 5193 01cc FFF7FEFF 		bl	strstr
 5194              	.LVL709:
 5195 01d0 8442     		cmp	r4, r0
 5196 01d2 0ED1     		bne	.L429
 5197              	.LBB68:
1046:main.c        **** 				char* location = strstr(ReceiveBuffer, " ");
 5198              		.loc 2 1046 0 discriminator 6
 5199 01d4 2021     		movs	r1, #32
 5200 01d6 2046     		mov	r0, r4
 5201 01d8 FFF7FEFF 		bl	strchr
 5202              	.LVL710:
1047:main.c        **** 				float vgs = 0;
 5203              		.loc 2 1047 0 discriminator 6
 5204 01dc 02AA     		add	r2, sp, #8
 5205 01de 0023     		movs	r3, #0
 5206 01e0 42F8043D 		str	r3, [r2, #-4]!	@ float
1048:main.c        **** 				int8 success = sscanf(location, "%f", &vgs);
 5207              		.loc 2 1048 0 discriminator 6
 5208 01e4 6249     		ldr	r1, .L451+76
 5209 01e6 FFF7FEFF 		bl	sscanf
 5210              	.LVL711:
1049:main.c        **** 				
1050:main.c        **** 				Set_Vgs(vgs);
 5211              		.loc 2 1050 0 discriminator 6
 5212 01ea 0198     		ldr	r0, [sp, #4]	@ float
 5213 01ec FFF7FEFF 		bl	Set_Vgs
 5214              	.LVL712:
 5215              	.LBE68:
 5216 01f0 40E7     		b	.L416
 5217              	.L429:
1051:main.c        **** 			} else 
1052:main.c        **** 			if (strstr(ReceiveBuffer, "set-vds ") == &ReceiveBuffer[0]) {
 5218              		.loc 2 1052 0
 5219 01f2 6049     		ldr	r1, .L451+80
 5220 01f4 2046     		mov	r0, r4
 5221 01f6 FFF7FEFF 		bl	strstr
 5222              	.LVL713:
 5223 01fa 8442     		cmp	r4, r0
 5224 01fc 0ED1     		bne	.L430
 5225              	.LBB69:
1053:main.c        **** 				char* location = strstr(ReceiveBuffer, " ");
 5226              		.loc 2 1053 0 discriminator 7
 5227 01fe 2021     		movs	r1, #32
ARM GAS  C:\Users\FRANKL~1\AppData\Local\Temp\ccLkvCvD.s 			page 123


 5228 0200 2046     		mov	r0, r4
 5229 0202 FFF7FEFF 		bl	strchr
 5230              	.LVL714:
1054:main.c        **** 				float vds = 0;
 5231              		.loc 2 1054 0 discriminator 7
 5232 0206 02AA     		add	r2, sp, #8
 5233 0208 0023     		movs	r3, #0
 5234 020a 42F8043D 		str	r3, [r2, #-4]!	@ float
1055:main.c        **** 				int8 success = sscanf(location, "%f", &vds);
 5235              		.loc 2 1055 0 discriminator 7
 5236 020e 5849     		ldr	r1, .L451+76
 5237 0210 FFF7FEFF 		bl	sscanf
 5238              	.LVL715:
1056:main.c        **** 				
1057:main.c        **** 				Set_Vds(vds);
 5239              		.loc 2 1057 0 discriminator 7
 5240 0214 0198     		ldr	r0, [sp, #4]	@ float
 5241 0216 FFF7FEFF 		bl	Set_Vds
 5242              	.LVL716:
 5243              	.LBE69:
 5244 021a 2BE7     		b	.L416
 5245              	.L430:
1058:main.c        **** 			} else 
1059:main.c        **** 			if (strstr(ReceiveBuffer, "set-vgs-mv ") == &ReceiveBuffer[0]) {
 5246              		.loc 2 1059 0
 5247 021c 5649     		ldr	r1, .L451+84
 5248 021e 2046     		mov	r0, r4
 5249 0220 FFF7FEFF 		bl	strstr
 5250              	.LVL717:
 5251 0224 8442     		cmp	r4, r0
 5252 0226 23D1     		bne	.L431
 5253              	.LBB70:
1060:main.c        **** 				char* location = strstr(ReceiveBuffer, " ");
 5254              		.loc 2 1060 0 discriminator 8
 5255 0228 2021     		movs	r1, #32
 5256 022a 2046     		mov	r0, r4
 5257 022c FFF7FEFF 		bl	strchr
 5258              	.LVL718:
 5259 0230 02A9     		add	r1, sp, #8
 5260 0232 41F8040D 		str	r0, [r1, #-4]!
1061:main.c        **** 				float Vgs_mV = (float)(strtol(location, &location, 10));
 5261              		.loc 2 1061 0 discriminator 8
 5262 0236 0A22     		movs	r2, #10
 5263 0238 FFF7FEFF 		bl	strtol
 5264              	.LVL719:
 5265 023c FFF7FEFF 		bl	__aeabi_i2f
 5266              	.LVL720:
 5267 0240 0446     		mov	r4, r0
 5268              	.LVL721:
1062:main.c        **** 				
1063:main.c        **** 				Set_Vgs_mV(Vgs_mV);
 5269              		.loc 2 1063 0 discriminator 8
 5270 0242 FFF7FEFF 		bl	Set_Vgs_mV
 5271              	.LVL722:
1064:main.c        **** 				
1065:main.c        **** 				sprintf(TransmitBuffer, "# Vgs set to %f mV\r\n", Vgs_mV);
 5272              		.loc 2 1065 0 discriminator 8
ARM GAS  C:\Users\FRANKL~1\AppData\Local\Temp\ccLkvCvD.s 			page 124


 5273 0246 2046     		mov	r0, r4
 5274 0248 FFF7FEFF 		bl	__aeabi_f2d
 5275              	.LVL723:
 5276 024c 4B4C     		ldr	r4, .L451+88
 5277              	.LVL724:
 5278 024e 0246     		mov	r2, r0
 5279 0250 0B46     		mov	r3, r1
 5280 0252 4B49     		ldr	r1, .L451+92
 5281 0254 2046     		mov	r0, r4
 5282 0256 FFF7FEFF 		bl	sprintf
 5283              	.LVL725:
1066:main.c        **** 				USBUARTH_Send(TransmitBuffer, strlen(TransmitBuffer));
 5284              		.loc 2 1066 0 discriminator 8
 5285 025a 2046     		mov	r0, r4
 5286 025c FFF7FEFF 		bl	strlen
 5287              	.LVL726:
 5288 0260 81B2     		uxth	r1, r0
 5289 0262 2046     		mov	r0, r4
 5290 0264 FFF7FEFF 		bl	USBUARTH_Send
 5291              	.LVL727:
1067:main.c        **** 				UART_1_PutString(TransmitBuffer);
 5292              		.loc 2 1067 0 discriminator 8
 5293 0268 2046     		mov	r0, r4
 5294 026a FFF7FEFF 		bl	UART_1_PutString
 5295              	.LVL728:
 5296              	.LBE70:
 5297 026e 01E7     		b	.L416
 5298              	.LVL729:
 5299              	.L431:
1068:main.c        **** 			} else 
1069:main.c        **** 			if (strstr(ReceiveBuffer, "set-vds-mv ") == &ReceiveBuffer[0]) {
 5300              		.loc 2 1069 0
 5301 0270 4449     		ldr	r1, .L451+96
 5302 0272 2046     		mov	r0, r4
 5303 0274 FFF7FEFF 		bl	strstr
 5304              	.LVL730:
 5305 0278 8442     		cmp	r4, r0
 5306 027a 23D1     		bne	.L432
 5307              	.LBB71:
1070:main.c        **** 				char* location = strstr(ReceiveBuffer, " ");
 5308              		.loc 2 1070 0 discriminator 9
 5309 027c 2021     		movs	r1, #32
 5310 027e 2046     		mov	r0, r4
 5311 0280 FFF7FEFF 		bl	strchr
 5312              	.LVL731:
 5313 0284 02A9     		add	r1, sp, #8
 5314 0286 41F8040D 		str	r0, [r1, #-4]!
1071:main.c        **** 				float Vds_mV = (float)(strtol(location, &location, 10));
 5315              		.loc 2 1071 0 discriminator 9
 5316 028a 0A22     		movs	r2, #10
 5317 028c FFF7FEFF 		bl	strtol
 5318              	.LVL732:
 5319 0290 FFF7FEFF 		bl	__aeabi_i2f
 5320              	.LVL733:
 5321 0294 0446     		mov	r4, r0
 5322              	.LVL734:
1072:main.c        **** 				
ARM GAS  C:\Users\FRANKL~1\AppData\Local\Temp\ccLkvCvD.s 			page 125


1073:main.c        **** 				Set_Vds_mV(Vds_mV);
 5323              		.loc 2 1073 0 discriminator 9
 5324 0296 FFF7FEFF 		bl	Set_Vds_mV
 5325              	.LVL735:
1074:main.c        **** 				
1075:main.c        **** 				sprintf(TransmitBuffer, "# Vds set to %f mV\r\n", Vds_mV);
 5326              		.loc 2 1075 0 discriminator 9
 5327 029a 2046     		mov	r0, r4
 5328 029c FFF7FEFF 		bl	__aeabi_f2d
 5329              	.LVL736:
 5330 02a0 364C     		ldr	r4, .L451+88
 5331              	.LVL737:
 5332 02a2 0246     		mov	r2, r0
 5333 02a4 0B46     		mov	r3, r1
 5334 02a6 3849     		ldr	r1, .L451+100
 5335 02a8 2046     		mov	r0, r4
 5336 02aa FFF7FEFF 		bl	sprintf
 5337              	.LVL738:
1076:main.c        **** 				USBUARTH_Send(TransmitBuffer, strlen(TransmitBuffer));
 5338              		.loc 2 1076 0 discriminator 9
 5339 02ae 2046     		mov	r0, r4
 5340 02b0 FFF7FEFF 		bl	strlen
 5341              	.LVL739:
 5342 02b4 81B2     		uxth	r1, r0
 5343 02b6 2046     		mov	r0, r4
 5344 02b8 FFF7FEFF 		bl	USBUARTH_Send
 5345              	.LVL740:
1077:main.c        **** 				UART_1_PutString(TransmitBuffer);
 5346              		.loc 2 1077 0 discriminator 9
 5347 02bc 2046     		mov	r0, r4
 5348 02be FFF7FEFF 		bl	UART_1_PutString
 5349              	.LVL741:
 5350              	.LBE71:
 5351 02c2 D7E6     		b	.L416
 5352              	.LVL742:
 5353              	.L432:
1078:main.c        **** 			} else 
1079:main.c        **** 			if (strstr(ReceiveBuffer, "scan ") == &ReceiveBuffer[0]) {
 5354              		.loc 2 1079 0
 5355 02c4 3149     		ldr	r1, .L451+104
 5356 02c6 2046     		mov	r0, r4
 5357 02c8 FFF7FEFF 		bl	strstr
 5358              	.LVL743:
 5359 02cc 8442     		cmp	r4, r0
 5360 02ce 63D1     		bne	.L433
1080:main.c        **** 				sprintf(TransmitBuffer, "\r\n# Scan Starting\r\n");
 5361              		.loc 2 1080 0
 5362 02d0 2A4C     		ldr	r4, .L451+88
 5363              	.LVL744:
 5364 02d2 2F4D     		ldr	r5, .L451+108
 5365 02d4 0FCD     		ldmia	r5!, {r0, r1, r2, r3}
 5366 02d6 2060     		str	r0, [r4]	@ unaligned
 5367 02d8 6160     		str	r1, [r4, #4]	@ unaligned
 5368 02da A260     		str	r2, [r4, #8]	@ unaligned
 5369 02dc E360     		str	r3, [r4, #12]	@ unaligned
 5370 02de 2868     		ldr	r0, [r5]	@ unaligned
 5371 02e0 2061     		str	r0, [r4, #16]	@ unaligned
ARM GAS  C:\Users\FRANKL~1\AppData\Local\Temp\ccLkvCvD.s 			page 126


1081:main.c        **** 				USBUARTH_Send(TransmitBuffer, strlen(TransmitBuffer));
 5372              		.loc 2 1081 0
 5373 02e2 2046     		mov	r0, r4
 5374 02e4 FFF7FEFF 		bl	strlen
 5375              	.LVL745:
 5376 02e8 81B2     		uxth	r1, r0
 5377 02ea 2046     		mov	r0, r4
 5378 02ec FFF7FEFF 		bl	USBUARTH_Send
 5379              	.LVL746:
1082:main.c        **** 				UART_1_PutString(TransmitBuffer);
 5380              		.loc 2 1082 0
 5381 02f0 2046     		mov	r0, r4
 5382 02f2 FFF7FEFF 		bl	UART_1_PutString
 5383              	.LVL747:
1083:main.c        **** 				
1084:main.c        **** 				Scan(0, 0);
 5384              		.loc 2 1084 0
 5385 02f6 0021     		movs	r1, #0
 5386 02f8 0846     		mov	r0, r1
 5387 02fa FFF7FEFF 		bl	Scan
 5388              	.LVL748:
1085:main.c        **** 				
1086:main.c        **** 				sprintf(TransmitBuffer, "\r\n# Scan Complete\r\n");
 5389              		.loc 2 1086 0
 5390 02fe 254D     		ldr	r5, .L451+112
 5391 0300 0FCD     		ldmia	r5!, {r0, r1, r2, r3}
 5392 0302 2060     		str	r0, [r4]	@ unaligned
 5393 0304 6160     		str	r1, [r4, #4]	@ unaligned
 5394 0306 A260     		str	r2, [r4, #8]	@ unaligned
 5395 0308 E360     		str	r3, [r4, #12]	@ unaligned
 5396 030a 2868     		ldr	r0, [r5]	@ unaligned
 5397 030c 2061     		str	r0, [r4, #16]	@ unaligned
1087:main.c        **** 				USBUARTH_Send(TransmitBuffer, strlen(TransmitBuffer));
 5398              		.loc 2 1087 0
 5399 030e 2046     		mov	r0, r4
 5400 0310 FFF7FEFF 		bl	strlen
 5401              	.LVL749:
 5402 0314 81B2     		uxth	r1, r0
 5403 0316 2046     		mov	r0, r4
 5404 0318 FFF7FEFF 		bl	USBUARTH_Send
 5405              	.LVL750:
1088:main.c        **** 				UART_1_PutString(TransmitBuffer);
 5406              		.loc 2 1088 0
 5407 031c 2046     		mov	r0, r4
 5408 031e FFF7FEFF 		bl	UART_1_PutString
 5409              	.LVL751:
 5410 0322 A7E6     		b	.L416
 5411              	.L452:
 5412              		.align	2
 5413              	.L451:
 5414 0324 FC000000 		.word	.LC15
 5415 0328 00000000 		.word	.LANCHOR0
 5416 032c 00000000 		.word	UART_Rx_Position
 5417 0330 00000000 		.word	USBUART_Rx_Position
 5418 0334 00000000 		.word	CommunicationHandlerISR
 5419 0338 00000000 		.word	Current_Measurement_Sample_Count
 5420 033c 00000000 		.word	USBUART_Receive_Buffer
ARM GAS  C:\Users\FRANKL~1\AppData\Local\Temp\ccLkvCvD.s 			page 127


 5421 0340 00000000 		.word	UART_Receive_Buffer
 5422 0344 0C010000 		.word	.LC16
 5423 0348 18010000 		.word	.LC17
 5424 034c 2C010000 		.word	.LC18
 5425 0350 3C010000 		.word	.LC19
 5426 0354 50010000 		.word	.LC20
 5427 0358 6C010000 		.word	.LC21
 5428 035c 80010000 		.word	.LC22
 5429 0360 90010000 		.word	.LC23
 5430 0364 A0010000 		.word	.LC24
 5431 0368 B0010000 		.word	.LC25
 5432 036c C0010000 		.word	.LC26
 5433 0370 CC010000 		.word	.LC27
 5434 0374 D0010000 		.word	.LC28
 5435 0378 DC010000 		.word	.LC29
 5436 037c 00000000 		.word	TransmitBuffer
 5437 0380 E8010000 		.word	.LC30
 5438 0384 00020000 		.word	.LC31
 5439 0388 0C020000 		.word	.LC32
 5440 038c 24020000 		.word	.LC33
 5441 0390 2C020000 		.word	.LC34
 5442 0394 40020000 		.word	.LC35
 5443              	.LVL752:
 5444              	.L433:
1089:main.c        **** 			} else 
1090:main.c        **** 			if (strstr(ReceiveBuffer, "scan-range ") == &ReceiveBuffer[0]) {
 5445              		.loc 2 1090 0
 5446 0398 CD49     		ldr	r1, .L453
 5447 039a 2046     		mov	r0, r4
 5448 039c FFF7FEFF 		bl	strstr
 5449              	.LVL753:
 5450 03a0 8442     		cmp	r4, r0
 5451 03a2 42D1     		bne	.L434
 5452              	.LBB72:
1091:main.c        **** 				sprintf(TransmitBuffer, "\r\n# Scan-Range Starting\r\n");
 5453              		.loc 2 1091 0 discriminator 10
 5454 03a4 CB4D     		ldr	r5, .L453+4
 5455 03a6 CC4E     		ldr	r6, .L453+8
 5456 03a8 0FCE     		ldmia	r6!, {r0, r1, r2, r3}
 5457 03aa 2860     		str	r0, [r5]	@ unaligned
 5458 03ac 6960     		str	r1, [r5, #4]	@ unaligned
 5459 03ae AA60     		str	r2, [r5, #8]	@ unaligned
 5460 03b0 EB60     		str	r3, [r5, #12]	@ unaligned
 5461 03b2 03CE     		ldmia	r6!, {r0, r1}
 5462 03b4 2861     		str	r0, [r5, #16]	@ unaligned
 5463 03b6 6961     		str	r1, [r5, #20]	@ unaligned
 5464 03b8 3388     		ldrh	r3, [r6]	@ unaligned
 5465 03ba 2B83     		strh	r3, [r5, #24]	@ unaligned
1092:main.c        **** 				USBUARTH_Send(TransmitBuffer, strlen(TransmitBuffer));
 5466              		.loc 2 1092 0 discriminator 10
 5467 03bc 2846     		mov	r0, r5
 5468 03be FFF7FEFF 		bl	strlen
 5469              	.LVL754:
 5470 03c2 81B2     		uxth	r1, r0
 5471 03c4 2846     		mov	r0, r5
 5472 03c6 FFF7FEFF 		bl	USBUARTH_Send
 5473              	.LVL755:
ARM GAS  C:\Users\FRANKL~1\AppData\Local\Temp\ccLkvCvD.s 			page 128


1093:main.c        **** 				UART_1_PutString(TransmitBuffer);
 5474              		.loc 2 1093 0 discriminator 10
 5475 03ca 2846     		mov	r0, r5
 5476 03cc FFF7FEFF 		bl	UART_1_PutString
 5477              	.LVL756:
1094:main.c        **** 				
1095:main.c        **** 				char* location = strstr(ReceiveBuffer, " ");
 5478              		.loc 2 1095 0 discriminator 10
 5479 03d0 2021     		movs	r1, #32
 5480 03d2 2046     		mov	r0, r4
 5481 03d4 FFF7FEFF 		bl	strchr
 5482              	.LVL757:
 5483 03d8 02AC     		add	r4, sp, #8
 5484              	.LVL758:
 5485 03da 44F8040D 		str	r0, [r4, #-4]!
1096:main.c        **** 				uint8 startDevice = strtol(location, &location, 10);
 5486              		.loc 2 1096 0 discriminator 10
 5487 03de 0A22     		movs	r2, #10
 5488 03e0 2146     		mov	r1, r4
 5489 03e2 FFF7FEFF 		bl	strtol
 5490              	.LVL759:
 5491 03e6 C6B2     		uxtb	r6, r0
 5492              	.LVL760:
1097:main.c        **** 				uint8 stopDevice = strtol(location, &location, 10);
 5493              		.loc 2 1097 0 discriminator 10
 5494 03e8 0A22     		movs	r2, #10
 5495 03ea 2146     		mov	r1, r4
 5496 03ec 0198     		ldr	r0, [sp, #4]
 5497 03ee FFF7FEFF 		bl	strtol
 5498              	.LVL761:
1098:main.c        **** 				Scan_Range(startDevice, stopDevice, 0, 0);
 5499              		.loc 2 1098 0 discriminator 10
 5500 03f2 0023     		movs	r3, #0
 5501 03f4 1A46     		mov	r2, r3
 5502 03f6 C1B2     		uxtb	r1, r0
 5503 03f8 3046     		mov	r0, r6
 5504              	.LVL762:
 5505 03fa FFF7FEFF 		bl	Scan_Range
 5506              	.LVL763:
1099:main.c        **** 				
1100:main.c        **** 				sprintf(TransmitBuffer, "\r\n# Scan Range Complete\r\n");
 5507              		.loc 2 1100 0 discriminator 10
 5508 03fe B74C     		ldr	r4, .L453+12
 5509 0400 0FCC     		ldmia	r4!, {r0, r1, r2, r3}
 5510 0402 2860     		str	r0, [r5]	@ unaligned
 5511 0404 6960     		str	r1, [r5, #4]	@ unaligned
 5512 0406 AA60     		str	r2, [r5, #8]	@ unaligned
 5513 0408 EB60     		str	r3, [r5, #12]	@ unaligned
 5514 040a 03CC     		ldmia	r4!, {r0, r1}
 5515 040c 2861     		str	r0, [r5, #16]	@ unaligned
 5516 040e 6961     		str	r1, [r5, #20]	@ unaligned
 5517 0410 2388     		ldrh	r3, [r4]	@ unaligned
 5518 0412 2B83     		strh	r3, [r5, #24]	@ unaligned
1101:main.c        **** 				USBUARTH_Send(TransmitBuffer, strlen(TransmitBuffer));
 5519              		.loc 2 1101 0 discriminator 10
 5520 0414 2846     		mov	r0, r5
 5521 0416 FFF7FEFF 		bl	strlen
ARM GAS  C:\Users\FRANKL~1\AppData\Local\Temp\ccLkvCvD.s 			page 129


 5522              	.LVL764:
 5523 041a 81B2     		uxth	r1, r0
 5524 041c 2846     		mov	r0, r5
 5525 041e FFF7FEFF 		bl	USBUARTH_Send
 5526              	.LVL765:
1102:main.c        **** 				UART_1_PutString(TransmitBuffer);
 5527              		.loc 2 1102 0 discriminator 10
 5528 0422 2846     		mov	r0, r5
 5529 0424 FFF7FEFF 		bl	UART_1_PutString
 5530              	.LVL766:
 5531              	.LBE72:
 5532 0428 24E6     		b	.L416
 5533              	.LVL767:
 5534              	.L434:
1103:main.c        **** 			} else 
1104:main.c        **** 			if (strstr(ReceiveBuffer, "scan-range-loop ") == &ReceiveBuffer[0]) {
 5535              		.loc 2 1104 0
 5536 042a AD49     		ldr	r1, .L453+16
 5537 042c 2046     		mov	r0, r4
 5538 042e FFF7FEFF 		bl	strstr
 5539              	.LVL768:
 5540 0432 8442     		cmp	r4, r0
 5541 0434 48D1     		bne	.L435
 5542              	.LBB73:
1105:main.c        **** 				sprintf(TransmitBuffer, "\r\n# Scan-Range-Loop Starting\r\n");
 5543              		.loc 2 1105 0 discriminator 11
 5544 0436 A74D     		ldr	r5, .L453+4
 5545 0438 AA4E     		ldr	r6, .L453+20
 5546 043a 0FCE     		ldmia	r6!, {r0, r1, r2, r3}
 5547 043c 2860     		str	r0, [r5]	@ unaligned
 5548 043e 6960     		str	r1, [r5, #4]	@ unaligned
 5549 0440 AA60     		str	r2, [r5, #8]	@ unaligned
 5550 0442 EB60     		str	r3, [r5, #12]	@ unaligned
 5551 0444 07CE     		ldmia	r6!, {r0, r1, r2}
 5552 0446 2861     		str	r0, [r5, #16]	@ unaligned
 5553 0448 6961     		str	r1, [r5, #20]	@ unaligned
 5554 044a AA61     		str	r2, [r5, #24]	@ unaligned
 5555 044c 3288     		ldrh	r2, [r6]	@ unaligned
 5556 044e B378     		ldrb	r3, [r6, #2]	@ zero_extendqisi2
 5557 0450 AA83     		strh	r2, [r5, #28]	@ unaligned
 5558 0452 AB77     		strb	r3, [r5, #30]
1106:main.c        **** 				USBUARTH_Send(TransmitBuffer, strlen(TransmitBuffer));
 5559              		.loc 2 1106 0 discriminator 11
 5560 0454 2846     		mov	r0, r5
 5561 0456 FFF7FEFF 		bl	strlen
 5562              	.LVL769:
 5563 045a 81B2     		uxth	r1, r0
 5564 045c 2846     		mov	r0, r5
 5565 045e FFF7FEFF 		bl	USBUARTH_Send
 5566              	.LVL770:
1107:main.c        **** 				UART_1_PutString(TransmitBuffer);
 5567              		.loc 2 1107 0 discriminator 11
 5568 0462 2846     		mov	r0, r5
 5569 0464 FFF7FEFF 		bl	UART_1_PutString
 5570              	.LVL771:
1108:main.c        **** 				
1109:main.c        **** 				char* location = strstr(ReceiveBuffer, " ");
ARM GAS  C:\Users\FRANKL~1\AppData\Local\Temp\ccLkvCvD.s 			page 130


 5571              		.loc 2 1109 0 discriminator 11
 5572 0468 2021     		movs	r1, #32
 5573 046a 2046     		mov	r0, r4
 5574 046c FFF7FEFF 		bl	strchr
 5575              	.LVL772:
 5576 0470 02AC     		add	r4, sp, #8
 5577              	.LVL773:
 5578 0472 44F8040D 		str	r0, [r4, #-4]!
1110:main.c        **** 				uint8 startDevice = strtol(location, &location, 10);
 5579              		.loc 2 1110 0 discriminator 11
 5580 0476 0A22     		movs	r2, #10
 5581 0478 2146     		mov	r1, r4
 5582 047a FFF7FEFF 		bl	strtol
 5583              	.LVL774:
 5584 047e C6B2     		uxtb	r6, r0
 5585              	.LVL775:
1111:main.c        **** 				uint8 stopDevice = strtol(location, &location, 10);
 5586              		.loc 2 1111 0 discriminator 11
 5587 0480 0A22     		movs	r2, #10
 5588 0482 2146     		mov	r1, r4
 5589 0484 0198     		ldr	r0, [sp, #4]
 5590 0486 FFF7FEFF 		bl	strtol
 5591              	.LVL776:
1112:main.c        **** 				Scan_Range(startDevice, stopDevice, 0, 1);
 5592              		.loc 2 1112 0 discriminator 11
 5593 048a 0123     		movs	r3, #1
 5594 048c 0022     		movs	r2, #0
 5595 048e C1B2     		uxtb	r1, r0
 5596 0490 3046     		mov	r0, r6
 5597              	.LVL777:
 5598 0492 FFF7FEFF 		bl	Scan_Range
 5599              	.LVL778:
1113:main.c        **** 				
1114:main.c        **** 				sprintf(TransmitBuffer, "\r\n# Scan Range Loop Complete\r\n");
 5600              		.loc 2 1114 0 discriminator 11
 5601 0496 944C     		ldr	r4, .L453+24
 5602 0498 0FCC     		ldmia	r4!, {r0, r1, r2, r3}
 5603 049a 2860     		str	r0, [r5]	@ unaligned
 5604 049c 6960     		str	r1, [r5, #4]	@ unaligned
 5605 049e AA60     		str	r2, [r5, #8]	@ unaligned
 5606 04a0 EB60     		str	r3, [r5, #12]	@ unaligned
 5607 04a2 07CC     		ldmia	r4!, {r0, r1, r2}
 5608 04a4 2861     		str	r0, [r5, #16]	@ unaligned
 5609 04a6 6961     		str	r1, [r5, #20]	@ unaligned
 5610 04a8 AA61     		str	r2, [r5, #24]	@ unaligned
 5611 04aa 2288     		ldrh	r2, [r4]	@ unaligned
 5612 04ac A378     		ldrb	r3, [r4, #2]	@ zero_extendqisi2
 5613 04ae AA83     		strh	r2, [r5, #28]	@ unaligned
 5614 04b0 AB77     		strb	r3, [r5, #30]
1115:main.c        **** 				USBUARTH_Send(TransmitBuffer, strlen(TransmitBuffer));
 5615              		.loc 2 1115 0 discriminator 11
 5616 04b2 2846     		mov	r0, r5
 5617 04b4 FFF7FEFF 		bl	strlen
 5618              	.LVL779:
 5619 04b8 81B2     		uxth	r1, r0
 5620 04ba 2846     		mov	r0, r5
 5621 04bc FFF7FEFF 		bl	USBUARTH_Send
ARM GAS  C:\Users\FRANKL~1\AppData\Local\Temp\ccLkvCvD.s 			page 131


 5622              	.LVL780:
1116:main.c        **** 				UART_1_PutString(TransmitBuffer);
 5623              		.loc 2 1116 0 discriminator 11
 5624 04c0 2846     		mov	r0, r5
 5625 04c2 FFF7FEFF 		bl	UART_1_PutString
 5626              	.LVL781:
 5627              	.LBE73:
 5628 04c6 D5E5     		b	.L416
 5629              	.LVL782:
 5630              	.L435:
1117:main.c        **** 			} else 
1118:main.c        **** 			if (strstr(ReceiveBuffer, "scan-range-wide-loop ") == &ReceiveBuffer[0]) {
 5631              		.loc 2 1118 0
 5632 04c8 8849     		ldr	r1, .L453+28
 5633 04ca 2046     		mov	r0, r4
 5634 04cc FFF7FEFF 		bl	strstr
 5635              	.LVL783:
 5636 04d0 8442     		cmp	r4, r0
 5637 04d2 4DD1     		bne	.L436
 5638              	.LBB74:
1119:main.c        **** 				sprintf(TransmitBuffer, "\r\n# Scan-Range-Wide-Loop Starting\r\n");
 5639              		.loc 2 1119 0 discriminator 12
 5640 04d4 864E     		ldr	r6, .L453+32
 5641 04d6 7F4D     		ldr	r5, .L453+4
 5642 04d8 06F1200E 		add	lr, r6, #32
 5643              	.L437:
 5644 04dc 3746     		mov	r7, r6
 5645 04de 0FCF     		ldmia	r7!, {r0, r1, r2, r3}
 5646 04e0 2860     		str	r0, [r5]	@ unaligned
 5647 04e2 6960     		str	r1, [r5, #4]	@ unaligned
 5648 04e4 AA60     		str	r2, [r5, #8]	@ unaligned
 5649 04e6 EB60     		str	r3, [r5, #12]	@ unaligned
 5650 04e8 3E46     		mov	r6, r7
 5651 04ea 1035     		adds	r5, r5, #16
 5652 04ec 7745     		cmp	r7, lr
 5653 04ee F5D1     		bne	.L437
 5654 04f0 3868     		ldr	r0, [r7]	@ unaligned
 5655 04f2 2860     		str	r0, [r5]	@ unaligned
1120:main.c        **** 				USBUARTH_Send(TransmitBuffer, strlen(TransmitBuffer));
 5656              		.loc 2 1120 0 discriminator 12
 5657 04f4 774D     		ldr	r5, .L453+4
 5658 04f6 2846     		mov	r0, r5
 5659 04f8 FFF7FEFF 		bl	strlen
 5660              	.LVL784:
 5661 04fc 81B2     		uxth	r1, r0
 5662 04fe 2846     		mov	r0, r5
 5663 0500 FFF7FEFF 		bl	USBUARTH_Send
 5664              	.LVL785:
1121:main.c        **** 				UART_1_PutString(TransmitBuffer);
 5665              		.loc 2 1121 0 discriminator 12
 5666 0504 2846     		mov	r0, r5
 5667 0506 FFF7FEFF 		bl	UART_1_PutString
 5668              	.LVL786:
1122:main.c        **** 				
1123:main.c        **** 				char* location = strstr(ReceiveBuffer, " ");
 5669              		.loc 2 1123 0 discriminator 12
 5670 050a 2021     		movs	r1, #32
ARM GAS  C:\Users\FRANKL~1\AppData\Local\Temp\ccLkvCvD.s 			page 132


 5671 050c 2046     		mov	r0, r4
 5672 050e FFF7FEFF 		bl	strchr
 5673              	.LVL787:
 5674 0512 02AC     		add	r4, sp, #8
 5675              	.LVL788:
 5676 0514 44F8040D 		str	r0, [r4, #-4]!
1124:main.c        **** 				uint8 startDevice = strtol(location, &location, 10);
 5677              		.loc 2 1124 0 discriminator 12
 5678 0518 0A22     		movs	r2, #10
 5679 051a 2146     		mov	r1, r4
 5680 051c FFF7FEFF 		bl	strtol
 5681              	.LVL789:
 5682 0520 C6B2     		uxtb	r6, r0
 5683              	.LVL790:
1125:main.c        **** 				uint8 stopDevice = strtol(location, &location, 10);
 5684              		.loc 2 1125 0 discriminator 12
 5685 0522 0A22     		movs	r2, #10
 5686 0524 2146     		mov	r1, r4
 5687 0526 0198     		ldr	r0, [sp, #4]
 5688 0528 FFF7FEFF 		bl	strtol
 5689              	.LVL791:
1126:main.c        **** 				Scan_Range(startDevice, stopDevice, 1, 1);
 5690              		.loc 2 1126 0 discriminator 12
 5691 052c 0123     		movs	r3, #1
 5692 052e 1A46     		mov	r2, r3
 5693 0530 C1B2     		uxtb	r1, r0
 5694 0532 3046     		mov	r0, r6
 5695              	.LVL792:
 5696 0534 FFF7FEFF 		bl	Scan_Range
 5697              	.LVL793:
1127:main.c        **** 				
1128:main.c        **** 				sprintf(TransmitBuffer, "\r\n# Scan Range Wide Loop Complete\r\n");
 5698              		.loc 2 1128 0 discriminator 12
 5699 0538 6E4E     		ldr	r6, .L453+36
 5700              	.LVL794:
 5701 053a 2C46     		mov	r4, r5
 5702 053c 06F12007 		add	r7, r6, #32
 5703              	.L438:
 5704 0540 3546     		mov	r5, r6
 5705 0542 0FCD     		ldmia	r5!, {r0, r1, r2, r3}
 5706 0544 2060     		str	r0, [r4]	@ unaligned
 5707 0546 6160     		str	r1, [r4, #4]	@ unaligned
 5708 0548 A260     		str	r2, [r4, #8]	@ unaligned
 5709 054a E360     		str	r3, [r4, #12]	@ unaligned
 5710 054c 2E46     		mov	r6, r5
 5711 054e 1034     		adds	r4, r4, #16
 5712 0550 BD42     		cmp	r5, r7
 5713 0552 F5D1     		bne	.L438
 5714 0554 2868     		ldr	r0, [r5]	@ unaligned
 5715 0556 2060     		str	r0, [r4]	@ unaligned
1129:main.c        **** 				USBUARTH_Send(TransmitBuffer, strlen(TransmitBuffer));
 5716              		.loc 2 1129 0 discriminator 12
 5717 0558 5E4C     		ldr	r4, .L453+4
 5718 055a 2046     		mov	r0, r4
 5719 055c FFF7FEFF 		bl	strlen
 5720              	.LVL795:
 5721 0560 81B2     		uxth	r1, r0
ARM GAS  C:\Users\FRANKL~1\AppData\Local\Temp\ccLkvCvD.s 			page 133


 5722 0562 2046     		mov	r0, r4
 5723 0564 FFF7FEFF 		bl	USBUARTH_Send
 5724              	.LVL796:
1130:main.c        **** 				UART_1_PutString(TransmitBuffer);
 5725              		.loc 2 1130 0 discriminator 12
 5726 0568 2046     		mov	r0, r4
 5727 056a FFF7FEFF 		bl	UART_1_PutString
 5728              	.LVL797:
 5729              	.LBE74:
 5730 056e 81E5     		b	.L416
 5731              	.LVL798:
 5732              	.L436:
1131:main.c        **** 			} else 
1132:main.c        **** 			if (strstr(ReceiveBuffer, "connect ") == &ReceiveBuffer[0]) {
 5733              		.loc 2 1132 0
 5734 0570 6149     		ldr	r1, .L453+40
 5735 0572 2046     		mov	r0, r4
 5736 0574 FFF7FEFF 		bl	strstr
 5737              	.LVL799:
 5738 0578 8442     		cmp	r4, r0
 5739 057a 27D1     		bne	.L439
 5740              	.LBB75:
1133:main.c        **** 				char* location = strstr(ReceiveBuffer, " ");
 5741              		.loc 2 1133 0 discriminator 13
 5742 057c 2021     		movs	r1, #32
 5743 057e 2046     		mov	r0, r4
 5744 0580 FFF7FEFF 		bl	strchr
 5745              	.LVL800:
 5746 0584 02AC     		add	r4, sp, #8
 5747              	.LVL801:
 5748 0586 44F8040D 		str	r0, [r4, #-4]!
1134:main.c        **** 				uint8 contact = strtol(location, &location, 10);
 5749              		.loc 2 1134 0 discriminator 13
 5750 058a 0A22     		movs	r2, #10
 5751 058c 2146     		mov	r1, r4
 5752 058e FFF7FEFF 		bl	strtol
 5753              	.LVL802:
 5754 0592 C5B2     		uxtb	r5, r0
 5755              	.LVL803:
1135:main.c        **** 				uint8 intermediate = strtol(location, &location, 10);
 5756              		.loc 2 1135 0 discriminator 13
 5757 0594 0A22     		movs	r2, #10
 5758 0596 2146     		mov	r1, r4
 5759 0598 0198     		ldr	r0, [sp, #4]
 5760 059a FFF7FEFF 		bl	strtol
 5761              	.LVL804:
 5762 059e C6B2     		uxtb	r6, r0
 5763              	.LVL805:
1136:main.c        **** 				Connect_Contact_To_Intermediate(contact, intermediate);
 5764              		.loc 2 1136 0 discriminator 13
 5765 05a0 3146     		mov	r1, r6
 5766 05a2 2846     		mov	r0, r5
 5767 05a4 FFF7FEFF 		bl	Connect_Contact_To_Intermediate
 5768              	.LVL806:
1137:main.c        **** 				
1138:main.c        **** 				sprintf(TransmitBuffer, "# Connected %u to %u\r\n", contact, intermediate);
 5769              		.loc 2 1138 0 discriminator 13
ARM GAS  C:\Users\FRANKL~1\AppData\Local\Temp\ccLkvCvD.s 			page 134


 5770 05a8 4A4C     		ldr	r4, .L453+4
 5771 05aa 3346     		mov	r3, r6
 5772 05ac 2A46     		mov	r2, r5
 5773 05ae 5349     		ldr	r1, .L453+44
 5774 05b0 2046     		mov	r0, r4
 5775 05b2 FFF7FEFF 		bl	sprintf
 5776              	.LVL807:
1139:main.c        **** 				USBUARTH_Send(TransmitBuffer, strlen(TransmitBuffer));
 5777              		.loc 2 1139 0 discriminator 13
 5778 05b6 2046     		mov	r0, r4
 5779 05b8 FFF7FEFF 		bl	strlen
 5780              	.LVL808:
 5781 05bc 81B2     		uxth	r1, r0
 5782 05be 2046     		mov	r0, r4
 5783 05c0 FFF7FEFF 		bl	USBUARTH_Send
 5784              	.LVL809:
1140:main.c        **** 				UART_1_PutString(TransmitBuffer);
 5785              		.loc 2 1140 0 discriminator 13
 5786 05c4 2046     		mov	r0, r4
 5787 05c6 FFF7FEFF 		bl	UART_1_PutString
 5788              	.LVL810:
 5789              	.LBE75:
 5790 05ca 53E5     		b	.L416
 5791              	.LVL811:
 5792              	.L439:
1141:main.c        **** 			} else 
1142:main.c        **** 			if (strstr(ReceiveBuffer, "connect-c ") == &ReceiveBuffer[0]) {
 5793              		.loc 2 1142 0
 5794 05cc 4C49     		ldr	r1, .L453+48
 5795 05ce 2046     		mov	r0, r4
 5796 05d0 FFF7FEFF 		bl	strstr
 5797              	.LVL812:
 5798 05d4 8442     		cmp	r4, r0
 5799 05d6 27D1     		bne	.L440
 5800              	.LBB76:
1143:main.c        **** 				char* location = strstr(ReceiveBuffer, " ");
 5801              		.loc 2 1143 0 discriminator 14
 5802 05d8 2021     		movs	r1, #32
 5803 05da 2046     		mov	r0, r4
 5804 05dc FFF7FEFF 		bl	strchr
 5805              	.LVL813:
 5806 05e0 02AC     		add	r4, sp, #8
 5807              	.LVL814:
 5808 05e2 44F8040D 		str	r0, [r4, #-4]!
1144:main.c        **** 				uint8 channel = strtol(location, &location, 10);
 5809              		.loc 2 1144 0 discriminator 14
 5810 05e6 0A22     		movs	r2, #10
 5811 05e8 2146     		mov	r1, r4
 5812 05ea FFF7FEFF 		bl	strtol
 5813              	.LVL815:
 5814 05ee C5B2     		uxtb	r5, r0
 5815              	.LVL816:
1145:main.c        **** 				uint8 intermediate = strtol(location, &location, 10);
 5816              		.loc 2 1145 0 discriminator 14
 5817 05f0 0A22     		movs	r2, #10
 5818 05f2 2146     		mov	r1, r4
 5819 05f4 0198     		ldr	r0, [sp, #4]
ARM GAS  C:\Users\FRANKL~1\AppData\Local\Temp\ccLkvCvD.s 			page 135


 5820 05f6 FFF7FEFF 		bl	strtol
 5821              	.LVL817:
 5822 05fa C6B2     		uxtb	r6, r0
 5823              	.LVL818:
1146:main.c        **** 				Connect_Channel_On_Intermediate(channel, intermediate);
 5824              		.loc 2 1146 0 discriminator 14
 5825 05fc 3146     		mov	r1, r6
 5826 05fe 2846     		mov	r0, r5
 5827 0600 FFF7FEFF 		bl	Connect_Channel_On_Intermediate
 5828              	.LVL819:
1147:main.c        **** 				
1148:main.c        **** 				sprintf(TransmitBuffer, "# Connected channel %u to %u\r\n", channel, intermediate);
 5829              		.loc 2 1148 0 discriminator 14
 5830 0604 334C     		ldr	r4, .L453+4
 5831 0606 3346     		mov	r3, r6
 5832 0608 2A46     		mov	r2, r5
 5833 060a 3E49     		ldr	r1, .L453+52
 5834 060c 2046     		mov	r0, r4
 5835 060e FFF7FEFF 		bl	sprintf
 5836              	.LVL820:
1149:main.c        **** 				USBUARTH_Send(TransmitBuffer, strlen(TransmitBuffer));
 5837              		.loc 2 1149 0 discriminator 14
 5838 0612 2046     		mov	r0, r4
 5839 0614 FFF7FEFF 		bl	strlen
 5840              	.LVL821:
 5841 0618 81B2     		uxth	r1, r0
 5842 061a 2046     		mov	r0, r4
 5843 061c FFF7FEFF 		bl	USBUARTH_Send
 5844              	.LVL822:
1150:main.c        **** 				UART_1_PutString(TransmitBuffer);
 5845              		.loc 2 1150 0 discriminator 14
 5846 0620 2046     		mov	r0, r4
 5847 0622 FFF7FEFF 		bl	UART_1_PutString
 5848              	.LVL823:
 5849              	.LBE76:
 5850 0626 25E5     		b	.L416
 5851              	.LVL824:
 5852              	.L440:
1151:main.c        **** 			} else 
1152:main.c        **** 			if (strstr(ReceiveBuffer, "disconnect ") == &ReceiveBuffer[0]) {
 5853              		.loc 2 1152 0
 5854 0628 3749     		ldr	r1, .L453+56
 5855 062a 2046     		mov	r0, r4
 5856 062c FFF7FEFF 		bl	strstr
 5857              	.LVL825:
 5858 0630 8442     		cmp	r4, r0
 5859 0632 27D1     		bne	.L441
 5860              	.LBB77:
1153:main.c        **** 				char* location = strstr(ReceiveBuffer, " ");
 5861              		.loc 2 1153 0 discriminator 15
 5862 0634 2021     		movs	r1, #32
 5863 0636 2046     		mov	r0, r4
 5864 0638 FFF7FEFF 		bl	strchr
 5865              	.LVL826:
 5866 063c 02AC     		add	r4, sp, #8
 5867              	.LVL827:
 5868 063e 44F8040D 		str	r0, [r4, #-4]!
ARM GAS  C:\Users\FRANKL~1\AppData\Local\Temp\ccLkvCvD.s 			page 136


1154:main.c        **** 				uint8 contact = strtol(location, &location, 10);
 5869              		.loc 2 1154 0 discriminator 15
 5870 0642 0A22     		movs	r2, #10
 5871 0644 2146     		mov	r1, r4
 5872 0646 FFF7FEFF 		bl	strtol
 5873              	.LVL828:
 5874 064a C5B2     		uxtb	r5, r0
 5875              	.LVL829:
1155:main.c        **** 				uint8 intermediate = strtol(location, &location, 10);
 5876              		.loc 2 1155 0 discriminator 15
 5877 064c 0A22     		movs	r2, #10
 5878 064e 2146     		mov	r1, r4
 5879 0650 0198     		ldr	r0, [sp, #4]
 5880 0652 FFF7FEFF 		bl	strtol
 5881              	.LVL830:
 5882 0656 C6B2     		uxtb	r6, r0
 5883              	.LVL831:
1156:main.c        **** 				Disconnect_Contact_From_Intermediate(contact, intermediate);
 5884              		.loc 2 1156 0 discriminator 15
 5885 0658 3146     		mov	r1, r6
 5886 065a 2846     		mov	r0, r5
 5887 065c FFF7FEFF 		bl	Disconnect_Contact_From_Intermediate
 5888              	.LVL832:
1157:main.c        **** 				
1158:main.c        **** 				sprintf(TransmitBuffer, "# Disonnected %u from %u\r\n", contact, intermediate);
 5889              		.loc 2 1158 0 discriminator 15
 5890 0660 1C4C     		ldr	r4, .L453+4
 5891 0662 3346     		mov	r3, r6
 5892 0664 2A46     		mov	r2, r5
 5893 0666 2949     		ldr	r1, .L453+60
 5894 0668 2046     		mov	r0, r4
 5895 066a FFF7FEFF 		bl	sprintf
 5896              	.LVL833:
1159:main.c        **** 				USBUARTH_Send(TransmitBuffer, strlen(TransmitBuffer));
 5897              		.loc 2 1159 0 discriminator 15
 5898 066e 2046     		mov	r0, r4
 5899 0670 FFF7FEFF 		bl	strlen
 5900              	.LVL834:
 5901 0674 81B2     		uxth	r1, r0
 5902 0676 2046     		mov	r0, r4
 5903 0678 FFF7FEFF 		bl	USBUARTH_Send
 5904              	.LVL835:
1160:main.c        **** 				UART_1_PutString(TransmitBuffer);
 5905              		.loc 2 1160 0 discriminator 15
 5906 067c 2046     		mov	r0, r4
 5907 067e FFF7FEFF 		bl	UART_1_PutString
 5908              	.LVL836:
 5909              	.LBE77:
 5910 0682 F7E4     		b	.L416
 5911              	.LVL837:
 5912              	.L441:
1161:main.c        **** 			} else 
1162:main.c        **** 			if (strstr(ReceiveBuffer, "disconnect-all-from ") == &ReceiveBuffer[0]) {
 5913              		.loc 2 1162 0
 5914 0684 2249     		ldr	r1, .L453+64
 5915 0686 2046     		mov	r0, r4
 5916 0688 FFF7FEFF 		bl	strstr
ARM GAS  C:\Users\FRANKL~1\AppData\Local\Temp\ccLkvCvD.s 			page 137


 5917              	.LVL838:
 5918 068c 8442     		cmp	r4, r0
 5919 068e 43D1     		bne	.L442
 5920              	.LBB78:
1163:main.c        **** 				char* location = strstr(ReceiveBuffer, " ");
 5921              		.loc 2 1163 0 discriminator 16
 5922 0690 2021     		movs	r1, #32
 5923 0692 2046     		mov	r0, r4
 5924 0694 FFF7FEFF 		bl	strchr
 5925              	.LVL839:
 5926 0698 02A9     		add	r1, sp, #8
 5927 069a 41F8040D 		str	r0, [r1, #-4]!
1164:main.c        **** 				uint8 intermediate = strtol(location, &location, 10);
 5928              		.loc 2 1164 0 discriminator 16
 5929 069e 0A22     		movs	r2, #10
 5930 06a0 FFF7FEFF 		bl	strtol
 5931              	.LVL840:
 5932 06a4 C5B2     		uxtb	r5, r0
 5933              	.LVL841:
1165:main.c        **** 				Disconnect_All_Contacts_From_Intermediate(intermediate);
 5934              		.loc 2 1165 0 discriminator 16
 5935 06a6 2846     		mov	r0, r5
 5936 06a8 FFF7FEFF 		bl	Disconnect_All_Contacts_From_Intermediate
 5937              	.LVL842:
1166:main.c        **** 				
1167:main.c        **** 				sprintf(TransmitBuffer, "# Disconnected all from  %u\r\n", intermediate);
 5938              		.loc 2 1167 0 discriminator 16
 5939 06ac 094C     		ldr	r4, .L453+4
 5940              	.LVL843:
 5941 06ae 2A46     		mov	r2, r5
 5942 06b0 1849     		ldr	r1, .L453+68
 5943 06b2 2046     		mov	r0, r4
 5944 06b4 FFF7FEFF 		bl	sprintf
 5945              	.LVL844:
1168:main.c        **** 				USBUARTH_Send(TransmitBuffer, strlen(TransmitBuffer));
 5946              		.loc 2 1168 0 discriminator 16
 5947 06b8 2046     		mov	r0, r4
 5948 06ba FFF7FEFF 		bl	strlen
 5949              	.LVL845:
 5950 06be 81B2     		uxth	r1, r0
 5951 06c0 2046     		mov	r0, r4
 5952 06c2 FFF7FEFF 		bl	USBUARTH_Send
 5953              	.LVL846:
1169:main.c        **** 				UART_1_PutString(TransmitBuffer);
 5954              		.loc 2 1169 0 discriminator 16
 5955 06c6 2046     		mov	r0, r4
 5956 06c8 FFF7FEFF 		bl	UART_1_PutString
 5957              	.LVL847:
 5958              	.LBE78:
 5959 06cc D2E4     		b	.L416
 5960              	.L454:
 5961 06ce 00BF     		.align	2
 5962              	.L453:
 5963 06d0 54020000 		.word	.LC36
 5964 06d4 00000000 		.word	TransmitBuffer
 5965 06d8 60020000 		.word	.LC37
 5966 06dc 7C020000 		.word	.LC38
ARM GAS  C:\Users\FRANKL~1\AppData\Local\Temp\ccLkvCvD.s 			page 138


 5967 06e0 98020000 		.word	.LC39
 5968 06e4 AC020000 		.word	.LC40
 5969 06e8 CC020000 		.word	.LC41
 5970 06ec EC020000 		.word	.LC42
 5971 06f0 04030000 		.word	.LC43
 5972 06f4 28030000 		.word	.LC44
 5973 06f8 4C030000 		.word	.LC45
 5974 06fc 58030000 		.word	.LC46
 5975 0700 70030000 		.word	.LC47
 5976 0704 7C030000 		.word	.LC48
 5977 0708 9C030000 		.word	.LC49
 5978 070c A8030000 		.word	.LC50
 5979 0710 C4030000 		.word	.LC51
 5980 0714 DC030000 		.word	.LC52
 5981              	.LVL848:
 5982              	.L442:
1170:main.c        **** 			} else 
1171:main.c        **** 			if (strstr(ReceiveBuffer, "disconnect-all-from-all ") == &ReceiveBuffer[0]) {
 5983              		.loc 2 1171 0
 5984 0718 6549     		ldr	r1, .L455
 5985 071a 2046     		mov	r0, r4
 5986 071c FFF7FEFF 		bl	strstr
 5987              	.LVL849:
 5988 0720 8442     		cmp	r4, r0
 5989 0722 19D1     		bne	.L443
1172:main.c        **** 				Disconnect_All_Contacts_From_All_Intermediates();
 5990              		.loc 2 1172 0
 5991 0724 FFF7FEFF 		bl	Disconnect_All_Contacts_From_All_Intermediates
 5992              	.LVL850:
1173:main.c        **** 				
1174:main.c        **** 				sprintf(TransmitBuffer, "# Disconnected all from all\r\n");
 5993              		.loc 2 1174 0
 5994 0728 624D     		ldr	r5, .L455+4
 5995 072a 634C     		ldr	r4, .L455+8
 5996              	.LVL851:
 5997 072c 0FCC     		ldmia	r4!, {r0, r1, r2, r3}
 5998 072e 2860     		str	r0, [r5]	@ unaligned
 5999 0730 6960     		str	r1, [r5, #4]	@ unaligned
 6000 0732 AA60     		str	r2, [r5, #8]	@ unaligned
 6001 0734 EB60     		str	r3, [r5, #12]	@ unaligned
 6002 0736 07CC     		ldmia	r4!, {r0, r1, r2}
 6003 0738 2861     		str	r0, [r5, #16]	@ unaligned
 6004 073a 6961     		str	r1, [r5, #20]	@ unaligned
 6005 073c AA61     		str	r2, [r5, #24]	@ unaligned
 6006 073e 2388     		ldrh	r3, [r4]	@ unaligned
 6007 0740 AB83     		strh	r3, [r5, #28]	@ unaligned
1175:main.c        **** 				USBUARTH_Send(TransmitBuffer, strlen(TransmitBuffer));
 6008              		.loc 2 1175 0
 6009 0742 2846     		mov	r0, r5
 6010 0744 FFF7FEFF 		bl	strlen
 6011              	.LVL852:
 6012 0748 81B2     		uxth	r1, r0
 6013 074a 2846     		mov	r0, r5
 6014 074c FFF7FEFF 		bl	USBUARTH_Send
 6015              	.LVL853:
1176:main.c        **** 				UART_1_PutString(TransmitBuffer);
 6016              		.loc 2 1176 0
ARM GAS  C:\Users\FRANKL~1\AppData\Local\Temp\ccLkvCvD.s 			page 139


 6017 0750 2846     		mov	r0, r5
 6018 0752 FFF7FEFF 		bl	UART_1_PutString
 6019              	.LVL854:
 6020 0756 8DE4     		b	.L416
 6021              	.LVL855:
 6022              	.L443:
1177:main.c        **** 			} else 
1178:main.c        **** 			if (strstr(ReceiveBuffer, "disconnect-from-all ") == &ReceiveBuffer[0]) {
 6023              		.loc 2 1178 0
 6024 0758 5849     		ldr	r1, .L455+12
 6025 075a 2046     		mov	r0, r4
 6026 075c FFF7FEFF 		bl	strstr
 6027              	.LVL856:
 6028 0760 8442     		cmp	r4, r0
 6029 0762 1ED1     		bne	.L444
 6030              	.LBB79:
1179:main.c        **** 				char* location = strstr(ReceiveBuffer, " ");
 6031              		.loc 2 1179 0 discriminator 17
 6032 0764 2021     		movs	r1, #32
 6033 0766 2046     		mov	r0, r4
 6034 0768 FFF7FEFF 		bl	strchr
 6035              	.LVL857:
 6036 076c 02A9     		add	r1, sp, #8
 6037 076e 41F8040D 		str	r0, [r1, #-4]!
1180:main.c        **** 				uint8 contact = strtol(location, &location, 10);
 6038              		.loc 2 1180 0 discriminator 17
 6039 0772 0A22     		movs	r2, #10
 6040 0774 FFF7FEFF 		bl	strtol
 6041              	.LVL858:
 6042 0778 C5B2     		uxtb	r5, r0
 6043              	.LVL859:
1181:main.c        **** 				Disconnect_Contact_From_All_Intermediates(contact);
 6044              		.loc 2 1181 0 discriminator 17
 6045 077a 2846     		mov	r0, r5
 6046 077c FFF7FEFF 		bl	Disconnect_Contact_From_All_Intermediates
 6047              	.LVL860:
1182:main.c        **** 				
1183:main.c        **** 				sprintf(TransmitBuffer, "# Disconnected %u from all\r\n", contact);
 6048              		.loc 2 1183 0 discriminator 17
 6049 0780 4C4C     		ldr	r4, .L455+4
 6050              	.LVL861:
 6051 0782 2A46     		mov	r2, r5
 6052 0784 4E49     		ldr	r1, .L455+16
 6053 0786 2046     		mov	r0, r4
 6054 0788 FFF7FEFF 		bl	sprintf
 6055              	.LVL862:
1184:main.c        **** 				USBUARTH_Send(TransmitBuffer, strlen(TransmitBuffer));
 6056              		.loc 2 1184 0 discriminator 17
 6057 078c 2046     		mov	r0, r4
 6058 078e FFF7FEFF 		bl	strlen
 6059              	.LVL863:
 6060 0792 81B2     		uxth	r1, r0
 6061 0794 2046     		mov	r0, r4
 6062 0796 FFF7FEFF 		bl	USBUARTH_Send
 6063              	.LVL864:
1185:main.c        **** 				UART_1_PutString(TransmitBuffer);
 6064              		.loc 2 1185 0 discriminator 17
ARM GAS  C:\Users\FRANKL~1\AppData\Local\Temp\ccLkvCvD.s 			page 140


 6065 079a 2046     		mov	r0, r4
 6066 079c FFF7FEFF 		bl	UART_1_PutString
 6067              	.LVL865:
 6068              	.LBE79:
 6069 07a0 68E4     		b	.L416
 6070              	.LVL866:
 6071              	.L444:
1186:main.c        **** 			} else 
1187:main.c        **** 			if (strstr(ReceiveBuffer, "connect-intermediate ") == &ReceiveBuffer[0]) {
 6072              		.loc 2 1187 0
 6073 07a2 4849     		ldr	r1, .L455+20
 6074 07a4 2046     		mov	r0, r4
 6075 07a6 FFF7FEFF 		bl	strstr
 6076              	.LVL867:
 6077 07aa 8442     		cmp	r4, r0
 6078 07ac 1ED1     		bne	.L445
 6079              	.LBB80:
1188:main.c        **** 				char* location = strstr(ReceiveBuffer, " ");
 6080              		.loc 2 1188 0 discriminator 18
 6081 07ae 2021     		movs	r1, #32
 6082 07b0 2046     		mov	r0, r4
 6083 07b2 FFF7FEFF 		bl	strchr
 6084              	.LVL868:
 6085 07b6 02A9     		add	r1, sp, #8
 6086 07b8 41F8040D 		str	r0, [r1, #-4]!
1189:main.c        **** 				uint8 intermediate = strtol(location, &location, 10);
 6087              		.loc 2 1189 0 discriminator 18
 6088 07bc 0A22     		movs	r2, #10
 6089 07be FFF7FEFF 		bl	strtol
 6090              	.LVL869:
 6091 07c2 C5B2     		uxtb	r5, r0
 6092              	.LVL870:
1190:main.c        **** 				Connect_Intermediate(intermediate);
 6093              		.loc 2 1190 0 discriminator 18
 6094 07c4 2846     		mov	r0, r5
 6095 07c6 FFF7FEFF 		bl	Connect_Intermediate
 6096              	.LVL871:
1191:main.c        **** 				
1192:main.c        **** 				sprintf(TransmitBuffer, "# Connected intermediate %u\r\n", intermediate);
 6097              		.loc 2 1192 0 discriminator 18
 6098 07ca 3A4C     		ldr	r4, .L455+4
 6099              	.LVL872:
 6100 07cc 2A46     		mov	r2, r5
 6101 07ce 3E49     		ldr	r1, .L455+24
 6102 07d0 2046     		mov	r0, r4
 6103 07d2 FFF7FEFF 		bl	sprintf
 6104              	.LVL873:
1193:main.c        **** 				USBUARTH_Send(TransmitBuffer, strlen(TransmitBuffer));
 6105              		.loc 2 1193 0 discriminator 18
 6106 07d6 2046     		mov	r0, r4
 6107 07d8 FFF7FEFF 		bl	strlen
 6108              	.LVL874:
 6109 07dc 81B2     		uxth	r1, r0
 6110 07de 2046     		mov	r0, r4
 6111 07e0 FFF7FEFF 		bl	USBUARTH_Send
 6112              	.LVL875:
1194:main.c        **** 				UART_1_PutString(TransmitBuffer);
ARM GAS  C:\Users\FRANKL~1\AppData\Local\Temp\ccLkvCvD.s 			page 141


 6113              		.loc 2 1194 0 discriminator 18
 6114 07e4 2046     		mov	r0, r4
 6115 07e6 FFF7FEFF 		bl	UART_1_PutString
 6116              	.LVL876:
 6117              	.LBE80:
 6118 07ea 43E4     		b	.L416
 6119              	.LVL877:
 6120              	.L445:
1195:main.c        **** 			} else 
1196:main.c        **** 			if (strstr(ReceiveBuffer, "connect-intermediates ") == &ReceiveBuffer[0]) {
 6121              		.loc 2 1196 0
 6122 07ec 3749     		ldr	r1, .L455+28
 6123 07ee 2046     		mov	r0, r4
 6124 07f0 FFF7FEFF 		bl	strstr
 6125              	.LVL878:
 6126 07f4 8442     		cmp	r4, r0
 6127 07f6 17D1     		bne	.L446
1197:main.c        **** 				Connect_Intermediates();
 6128              		.loc 2 1197 0
 6129 07f8 FFF7FEFF 		bl	Connect_Intermediates
 6130              	.LVL879:
1198:main.c        **** 				
1199:main.c        **** 				sprintf(TransmitBuffer, "# Connected intermediates\r\n");
 6131              		.loc 2 1199 0
 6132 07fc 2D4D     		ldr	r5, .L455+4
 6133 07fe 344C     		ldr	r4, .L455+32
 6134              	.LVL880:
 6135 0800 0FCC     		ldmia	r4!, {r0, r1, r2, r3}
 6136 0802 2860     		str	r0, [r5]	@ unaligned
 6137 0804 6960     		str	r1, [r5, #4]	@ unaligned
 6138 0806 AA60     		str	r2, [r5, #8]	@ unaligned
 6139 0808 EB60     		str	r3, [r5, #12]	@ unaligned
 6140 080a 07CC     		ldmia	r4!, {r0, r1, r2}
 6141 080c 2861     		str	r0, [r5, #16]	@ unaligned
 6142 080e 6961     		str	r1, [r5, #20]	@ unaligned
 6143 0810 AA61     		str	r2, [r5, #24]	@ unaligned
1200:main.c        **** 				USBUARTH_Send(TransmitBuffer, strlen(TransmitBuffer));
 6144              		.loc 2 1200 0
 6145 0812 2846     		mov	r0, r5
 6146 0814 FFF7FEFF 		bl	strlen
 6147              	.LVL881:
 6148 0818 81B2     		uxth	r1, r0
 6149 081a 2846     		mov	r0, r5
 6150 081c FFF7FEFF 		bl	USBUARTH_Send
 6151              	.LVL882:
1201:main.c        **** 				UART_1_PutString(TransmitBuffer);
 6152              		.loc 2 1201 0
 6153 0820 2846     		mov	r0, r5
 6154 0822 FFF7FEFF 		bl	UART_1_PutString
 6155              	.LVL883:
 6156 0826 25E4     		b	.L416
 6157              	.LVL884:
 6158              	.L446:
1202:main.c        **** 			} else 
1203:main.c        **** 			if (strstr(ReceiveBuffer, "Set_Current_Measurement_Sample_Count ") == &ReceiveBuffer[0]) {
 6159              		.loc 2 1203 0
 6160 0828 2A49     		ldr	r1, .L455+36
ARM GAS  C:\Users\FRANKL~1\AppData\Local\Temp\ccLkvCvD.s 			page 142


 6161 082a 2046     		mov	r0, r4
 6162 082c FFF7FEFF 		bl	strstr
 6163              	.LVL885:
 6164 0830 8442     		cmp	r4, r0
 6165 0832 2BD1     		bne	.L447
 6166              	.LBB81:
1204:main.c        **** 				char* location = strstr(ReceiveBuffer, " ");
 6167              		.loc 2 1204 0 discriminator 19
 6168 0834 2021     		movs	r1, #32
 6169 0836 2046     		mov	r0, r4
 6170 0838 FFF7FEFF 		bl	strchr
 6171              	.LVL886:
 6172 083c 02A9     		add	r1, sp, #8
 6173 083e 41F8040D 		str	r0, [r1, #-4]!
1205:main.c        **** 				uint32 sampleCount = strtol(location, &location, 10);
 6174              		.loc 2 1205 0 discriminator 19
 6175 0842 0A22     		movs	r2, #10
 6176 0844 FFF7FEFF 		bl	strtol
 6177              	.LVL887:
1206:main.c        **** 				
1207:main.c        **** 				Current_Measurement_Sample_Count = sampleCount;
 6178              		.loc 2 1207 0 discriminator 19
 6179 0848 234B     		ldr	r3, .L455+40
 6180 084a 1860     		str	r0, [r3]
1208:main.c        **** 				
1209:main.c        **** 				sprintf(TransmitBuffer, "# Set Current Measurement Sample Count\r\n");
 6181              		.loc 2 1209 0 discriminator 19
 6182 084c 234C     		ldr	r4, .L455+44
 6183              	.LVL888:
 6184 084e 194D     		ldr	r5, .L455+4
 6185 0850 04F12007 		add	r7, r4, #32
 6186              	.LVL889:
 6187              	.L448:
 6188 0854 2646     		mov	r6, r4
 6189 0856 0FCE     		ldmia	r6!, {r0, r1, r2, r3}
 6190 0858 2860     		str	r0, [r5]	@ unaligned
 6191 085a 6960     		str	r1, [r5, #4]	@ unaligned
 6192 085c AA60     		str	r2, [r5, #8]	@ unaligned
 6193 085e EB60     		str	r3, [r5, #12]	@ unaligned
 6194 0860 3446     		mov	r4, r6
 6195 0862 1035     		adds	r5, r5, #16
 6196 0864 BE42     		cmp	r6, r7
 6197 0866 F5D1     		bne	.L448
 6198 0868 03CC     		ldmia	r4!, {r0, r1}
 6199 086a 2860     		str	r0, [r5]	@ unaligned
 6200 086c 6960     		str	r1, [r5, #4]	@ unaligned
 6201 086e 2378     		ldrb	r3, [r4]	@ zero_extendqisi2
 6202 0870 2B72     		strb	r3, [r5, #8]
1210:main.c        **** 				USBUARTH_Send(TransmitBuffer, strlen(TransmitBuffer));
 6203              		.loc 2 1210 0 discriminator 19
 6204 0872 104C     		ldr	r4, .L455+4
 6205 0874 2046     		mov	r0, r4
 6206 0876 FFF7FEFF 		bl	strlen
 6207              	.LVL890:
 6208 087a 81B2     		uxth	r1, r0
 6209 087c 2046     		mov	r0, r4
 6210 087e FFF7FEFF 		bl	USBUARTH_Send
ARM GAS  C:\Users\FRANKL~1\AppData\Local\Temp\ccLkvCvD.s 			page 143


 6211              	.LVL891:
1211:main.c        **** 				UART_1_PutString(TransmitBuffer);
 6212              		.loc 2 1211 0 discriminator 19
 6213 0882 2046     		mov	r0, r4
 6214 0884 FFF7FEFF 		bl	UART_1_PutString
 6215              	.LVL892:
 6216              	.LBE81:
 6217 0888 FFF7F4BB 		b	.L416
 6218              	.LVL893:
 6219              	.L447:
1212:main.c        **** 			} else {
1213:main.c        **** 				sprintf(TransmitBuffer, "! Unidentified command: |%s|\r\n", ReceiveBuffer);
 6220              		.loc 2 1213 0
 6221 088c 094D     		ldr	r5, .L455+4
 6222 088e 2246     		mov	r2, r4
 6223 0890 1349     		ldr	r1, .L455+48
 6224 0892 2846     		mov	r0, r5
 6225 0894 FFF7FEFF 		bl	sprintf
 6226              	.LVL894:
1214:main.c        **** 				USBUARTH_Send(TransmitBuffer, strlen(TransmitBuffer));
 6227              		.loc 2 1214 0
 6228 0898 2846     		mov	r0, r5
 6229 089a FFF7FEFF 		bl	strlen
 6230              	.LVL895:
 6231 089e 81B2     		uxth	r1, r0
 6232 08a0 2846     		mov	r0, r5
 6233 08a2 FFF7FEFF 		bl	USBUARTH_Send
 6234              	.LVL896:
1215:main.c        **** 				UART_1_PutString(TransmitBuffer);
 6235              		.loc 2 1215 0
 6236 08a6 2846     		mov	r0, r5
 6237 08a8 FFF7FEFF 		bl	UART_1_PutString
 6238              	.LVL897:
 6239 08ac FFF7E2BB 		b	.L416
 6240              	.L456:
 6241              		.align	2
 6242              	.L455:
 6243 08b0 FC030000 		.word	.LC53
 6244 08b4 00000000 		.word	TransmitBuffer
 6245 08b8 18040000 		.word	.LC54
 6246 08bc 38040000 		.word	.LC55
 6247 08c0 50040000 		.word	.LC56
 6248 08c4 70040000 		.word	.LC57
 6249 08c8 88040000 		.word	.LC58
 6250 08cc A8040000 		.word	.LC59
 6251 08d0 C0040000 		.word	.LC60
 6252 08d4 DC040000 		.word	.LC61
 6253 08d8 00000000 		.word	Current_Measurement_Sample_Count
 6254 08dc 04050000 		.word	.LC62
 6255 08e0 30050000 		.word	.LC63
 6256              	.LBE62:
 6257              		.cfi_endproc
 6258              	.LFE114:
 6259              		.size	main, .-main
 6260              		.comm	Current_Measurement_Sample_Count,4,4
 6261              		.comm	Vds_Index_Goal_Relative,2,2
 6262              		.comm	Vgs_Index_Goal_Relative,2,2
ARM GAS  C:\Users\FRANKL~1\AppData\Local\Temp\ccLkvCvD.s 			page 144


 6263              		.comm	Compliance_Reached,1,1
 6264              		.global	TIA_Offsets_uV
 6265              		.global	TIA_Resistor_Values
 6266              		.global	TIA_Resistor_Codes
 6267              		.global	TIA_Selected_Resistor
 6268              		.comm	USBUART_Rx_Position,1,1
 6269              		.comm	USBUART_Receive_Buffer,64,4
 6270              		.comm	UART_Rx_Position,1,1
 6271              		.comm	UART_Receive_Buffer,64,4
 6272              		.global	G_Pause
 6273              		.global	G_Break
 6274              		.global	G_Stop
 6275              		.global	newData
 6276              		.comm	TransmitBuffer,64,4
 6277              		.comm	selectors,1020,4
 6278              		.data
 6279              		.align	2
 6280              		.set	.LANCHOR1,. + 0
 6281              		.type	TIA_Resistor_Codes, %object
 6282              		.size	TIA_Resistor_Codes, 8
 6283              	TIA_Resistor_Codes:
 6284 0000 00       		.byte	0
 6285 0001 01       		.byte	1
 6286 0002 02       		.byte	2
 6287 0003 03       		.byte	3
 6288 0004 04       		.byte	4
 6289 0005 05       		.byte	5
 6290 0006 06       		.byte	6
 6291 0007 07       		.byte	7
 6292              		.type	TIA_Resistor_Values, %object
 6293              		.size	TIA_Resistor_Values, 32
 6294              	TIA_Resistor_Values:
 6295 0008 00409C46 		.word	1184645120
 6296 000c 0060EA46 		.word	1189765120
 6297 0010 00401C47 		.word	1193033728
 6298 0014 00409C47 		.word	1201422336
 6299 0018 0060EA47 		.word	1206542336
 6300 001c 00247448 		.word	1215570944
 6301 0020 0024F448 		.word	1223959552
 6302 0024 00247449 		.word	1232348160
 6303              		.section	.rodata.str1.4,"aMS",%progbits,1
 6304              		.align	2
 6305              	.LC0:
 6306 0000 73746F70 		.ascii	"stop \000"
 6306      2000
 6307 0006 0000     		.space	2
 6308              	.LC1:
 6309 0008 62726561 		.ascii	"break \000"
 6309      6B2000
 6310 000f 00       		.space	1
 6311              	.LC2:
 6312 0010 70617573 		.ascii	"pause \000"
 6312      652000
 6313 0017 00       		.space	1
 6314              	.LC3:
 6315 0018 72657375 		.ascii	"resume \000"
 6315      6D652000 
ARM GAS  C:\Users\FRANKL~1\AppData\Local\Temp\ccLkvCvD.s 			page 145


 6316              	.LC4:
 6317 0020 74726973 		.ascii	"tristate \000"
 6317      74617465 
 6317      2000
 6318 002a 0000     		.space	2
 6319              	.LC5:
 6320 002c 55706461 		.ascii	"Updating Selector %u\015\012\000"
 6320      74696E67 
 6320      2053656C 
 6320      6563746F 
 6320      72202575 
 6321 0043 00       		.space	1
 6322              	.LC6:
 6323 0044 49324320 		.ascii	"I2C Transfer Error! Type: Timeout\015\012\000"
 6323      5472616E 
 6323      73666572 
 6323      20457272 
 6323      6F722120 
 6324              	.LC7:
 6325 0068 49324320 		.ascii	"I2C Transfer Error! \000"
 6325      5472616E 
 6325      73666572 
 6325      20457272 
 6325      6F722120 
 6326 007d 000000   		.space	3
 6327              	.LC8:
 6328 0080 54797065 		.ascii	"Type: NAK\000"
 6328      3A204E41 
 6328      4B00
 6329 008a 0000     		.space	2
 6330              	.LC9:
 6331 008c 0D0A00   		.ascii	"\015\012\000"
 6332 008f 00       		.space	1
 6333              	.LC10:
 6334 0090 55706461 		.ascii	"Updated Selector %u\015\012\000"
 6334      74656420 
 6334      53656C65 
 6334      63746F72 
 6334      2025750D 
 6335 00a6 0000     		.space	2
 6336              	.LC11:
 6337 00a8 23204F66 		.ascii	"# Offset %e Ohm: %li uV\015\012\000"
 6337      66736574 
 6337      20256520 
 6337      4F686D3A 
 6337      20256C69 
 6338 00c2 0000     		.space	2
 6339              	.LC12:
 6340 00c4 23204361 		.ascii	"# Calibrated ADC Offsets\015\012\000"
 6340      6C696272 
 6340      61746564 
 6340      20414443 
 6340      204F6666 
 6341 00df 00       		.space	1
 6342              	.LC13:
 6343 00e0 5B25652C 		.ascii	"[%e,%f,%f,%f,%u]\015\012\000"
 6343      25662C25 
ARM GAS  C:\Users\FRANKL~1\AppData\Local\Temp\ccLkvCvD.s 			page 146


 6343      662C2566 
 6343      2C25755D 
 6343      0D0A00
 6344 00f3 00       		.space	1
 6345              	.LC14:
 6346 00f4 0D0A2575 		.ascii	"\015\012%u\015\012\000"
 6346      0D0A00
 6347 00fb 00       		.space	1
 6348              	.LC15:
 6349 00fc 0D0A2320 		.ascii	"\015\012# Starting\015\012\000"
 6349      53746172 
 6349      74696E67 
 6349      0D0A00
 6350 010b 00       		.space	1
 6351              	.LC16:
 6352 010c 6D656173 		.ascii	"measure \000"
 6352      75726520 
 6352      00
 6353 0115 000000   		.space	3
 6354              	.LC17:
 6355 0118 6D656173 		.ascii	"measure-multiple \000"
 6355      7572652D 
 6355      6D756C74 
 6355      69706C65 
 6355      2000
 6356 012a 0000     		.space	2
 6357              	.LC18:
 6358 012c 6D656173 		.ascii	"measure-sweep \000"
 6358      7572652D 
 6358      73776565 
 6358      702000
 6359 013b 00       		.space	1
 6360              	.LC19:
 6361 013c 6D656173 		.ascii	"measure-gate-sweep \000"
 6361      7572652D 
 6361      67617465 
 6361      2D737765 
 6361      65702000 
 6362              	.LC20:
 6363 0150 6D656173 		.ascii	"measure-gate-sweep-loop \000"
 6363      7572652D 
 6363      67617465 
 6363      2D737765 
 6363      65702D6C 
 6364 0169 000000   		.space	3
 6365              	.LC21:
 6366 016c 63616C69 		.ascii	"calibrate-offset \000"
 6366      62726174 
 6366      652D6F66 
 6366      66736574 
 6366      2000
 6367 017e 0000     		.space	2
 6368              	.LC22:
 6369 0180 7365742D 		.ascii	"set-vgs-raw \000"
 6369      7667732D 
 6369      72617720 
 6369      00
ARM GAS  C:\Users\FRANKL~1\AppData\Local\Temp\ccLkvCvD.s 			page 147


 6370 018d 000000   		.space	3
 6371              	.LC23:
 6372 0190 7365742D 		.ascii	"set-vds-raw \000"
 6372      7664732D 
 6372      72617720 
 6372      00
 6373 019d 000000   		.space	3
 6374              	.LC24:
 6375 01a0 7365742D 		.ascii	"set-vgs-rel \000"
 6375      7667732D 
 6375      72656C20 
 6375      00
 6376 01ad 000000   		.space	3
 6377              	.LC25:
 6378 01b0 7365742D 		.ascii	"set-vds-rel \000"
 6378      7664732D 
 6378      72656C20 
 6378      00
 6379 01bd 000000   		.space	3
 6380              	.LC26:
 6381 01c0 7365742D 		.ascii	"set-vgs \000"
 6381      76677320 
 6381      00
 6382 01c9 000000   		.space	3
 6383              	.LC27:
 6384 01cc 256600   		.ascii	"%f\000"
 6385 01cf 00       		.space	1
 6386              	.LC28:
 6387 01d0 7365742D 		.ascii	"set-vds \000"
 6387      76647320 
 6387      00
 6388 01d9 000000   		.space	3
 6389              	.LC29:
 6390 01dc 7365742D 		.ascii	"set-vgs-mv \000"
 6390      7667732D 
 6390      6D762000 
 6391              	.LC30:
 6392 01e8 23205667 		.ascii	"# Vgs set to %f mV\015\012\000"
 6392      73207365 
 6392      7420746F 
 6392      20256620 
 6392      6D560D0A 
 6393 01fd 000000   		.space	3
 6394              	.LC31:
 6395 0200 7365742D 		.ascii	"set-vds-mv \000"
 6395      7664732D 
 6395      6D762000 
 6396              	.LC32:
 6397 020c 23205664 		.ascii	"# Vds set to %f mV\015\012\000"
 6397      73207365 
 6397      7420746F 
 6397      20256620 
 6397      6D560D0A 
 6398 0221 000000   		.space	3
 6399              	.LC33:
 6400 0224 7363616E 		.ascii	"scan \000"
 6400      2000
ARM GAS  C:\Users\FRANKL~1\AppData\Local\Temp\ccLkvCvD.s 			page 148


 6401 022a 0000     		.space	2
 6402              	.LC34:
 6403 022c 0D0A2320 		.ascii	"\015\012# Scan Starting\015\012\000"
 6403      5363616E 
 6403      20537461 
 6403      7274696E 
 6403      670D0A00 
 6404              	.LC35:
 6405 0240 0D0A2320 		.ascii	"\015\012# Scan Complete\015\012\000"
 6405      5363616E 
 6405      20436F6D 
 6405      706C6574 
 6405      650D0A00 
 6406              	.LC36:
 6407 0254 7363616E 		.ascii	"scan-range \000"
 6407      2D72616E 
 6407      67652000 
 6408              	.LC37:
 6409 0260 0D0A2320 		.ascii	"\015\012# Scan-Range Starting\015\012\000"
 6409      5363616E 
 6409      2D52616E 
 6409      67652053 
 6409      74617274 
 6410 027a 0000     		.space	2
 6411              	.LC38:
 6412 027c 0D0A2320 		.ascii	"\015\012# Scan Range Complete\015\012\000"
 6412      5363616E 
 6412      2052616E 
 6412      67652043 
 6412      6F6D706C 
 6413 0296 0000     		.space	2
 6414              	.LC39:
 6415 0298 7363616E 		.ascii	"scan-range-loop \000"
 6415      2D72616E 
 6415      67652D6C 
 6415      6F6F7020 
 6415      00
 6416 02a9 000000   		.space	3
 6417              	.LC40:
 6418 02ac 0D0A2320 		.ascii	"\015\012# Scan-Range-Loop Starting\015\012\000"
 6418      5363616E 
 6418      2D52616E 
 6418      67652D4C 
 6418      6F6F7020 
 6419 02cb 00       		.space	1
 6420              	.LC41:
 6421 02cc 0D0A2320 		.ascii	"\015\012# Scan Range Loop Complete\015\012\000"
 6421      5363616E 
 6421      2052616E 
 6421      6765204C 
 6421      6F6F7020 
 6422 02eb 00       		.space	1
 6423              	.LC42:
 6424 02ec 7363616E 		.ascii	"scan-range-wide-loop \000"
 6424      2D72616E 
 6424      67652D77 
 6424      6964652D 
ARM GAS  C:\Users\FRANKL~1\AppData\Local\Temp\ccLkvCvD.s 			page 149


 6424      6C6F6F70 
 6425 0302 0000     		.space	2
 6426              	.LC43:
 6427 0304 0D0A2320 		.ascii	"\015\012# Scan-Range-Wide-Loop Starting\015\012\000"
 6427      5363616E 
 6427      2D52616E 
 6427      67652D57 
 6427      6964652D 
 6428              	.LC44:
 6429 0328 0D0A2320 		.ascii	"\015\012# Scan Range Wide Loop Complete\015\012\000"
 6429      5363616E 
 6429      2052616E 
 6429      67652057 
 6429      69646520 
 6430              	.LC45:
 6431 034c 636F6E6E 		.ascii	"connect \000"
 6431      65637420 
 6431      00
 6432 0355 000000   		.space	3
 6433              	.LC46:
 6434 0358 2320436F 		.ascii	"# Connected %u to %u\015\012\000"
 6434      6E6E6563 
 6434      74656420 
 6434      25752074 
 6434      6F202575 
 6435 036f 00       		.space	1
 6436              	.LC47:
 6437 0370 636F6E6E 		.ascii	"connect-c \000"
 6437      6563742D 
 6437      632000
 6438 037b 00       		.space	1
 6439              	.LC48:
 6440 037c 2320436F 		.ascii	"# Connected channel %u to %u\015\012\000"
 6440      6E6E6563 
 6440      74656420 
 6440      6368616E 
 6440      6E656C20 
 6441 039b 00       		.space	1
 6442              	.LC49:
 6443 039c 64697363 		.ascii	"disconnect \000"
 6443      6F6E6E65 
 6443      63742000 
 6444              	.LC50:
 6445 03a8 23204469 		.ascii	"# Disonnected %u from %u\015\012\000"
 6445      736F6E6E 
 6445      65637465 
 6445      64202575 
 6445      2066726F 
 6446 03c3 00       		.space	1
 6447              	.LC51:
 6448 03c4 64697363 		.ascii	"disconnect-all-from \000"
 6448      6F6E6E65 
 6448      63742D61 
 6448      6C6C2D66 
 6448      726F6D20 
 6449 03d9 000000   		.space	3
 6450              	.LC52:
ARM GAS  C:\Users\FRANKL~1\AppData\Local\Temp\ccLkvCvD.s 			page 150


 6451 03dc 23204469 		.ascii	"# Disconnected all from  %u\015\012\000"
 6451      73636F6E 
 6451      6E656374 
 6451      65642061 
 6451      6C6C2066 
 6452 03fa 0000     		.space	2
 6453              	.LC53:
 6454 03fc 64697363 		.ascii	"disconnect-all-from-all \000"
 6454      6F6E6E65 
 6454      63742D61 
 6454      6C6C2D66 
 6454      726F6D2D 
 6455 0415 000000   		.space	3
 6456              	.LC54:
 6457 0418 23204469 		.ascii	"# Disconnected all from all\015\012\000"
 6457      73636F6E 
 6457      6E656374 
 6457      65642061 
 6457      6C6C2066 
 6458 0436 0000     		.space	2
 6459              	.LC55:
 6460 0438 64697363 		.ascii	"disconnect-from-all \000"
 6460      6F6E6E65 
 6460      63742D66 
 6460      726F6D2D 
 6460      616C6C20 
 6461 044d 000000   		.space	3
 6462              	.LC56:
 6463 0450 23204469 		.ascii	"# Disconnected %u from all\015\012\000"
 6463      73636F6E 
 6463      6E656374 
 6463      65642025 
 6463      75206672 
 6464 046d 000000   		.space	3
 6465              	.LC57:
 6466 0470 636F6E6E 		.ascii	"connect-intermediate \000"
 6466      6563742D 
 6466      696E7465 
 6466      726D6564 
 6466      69617465 
 6467 0486 0000     		.space	2
 6468              	.LC58:
 6469 0488 2320436F 		.ascii	"# Connected intermediate %u\015\012\000"
 6469      6E6E6563 
 6469      74656420 
 6469      696E7465 
 6469      726D6564 
 6470 04a6 0000     		.space	2
 6471              	.LC59:
 6472 04a8 636F6E6E 		.ascii	"connect-intermediates \000"
 6472      6563742D 
 6472      696E7465 
 6472      726D6564 
 6472      69617465 
 6473 04bf 00       		.space	1
 6474              	.LC60:
 6475 04c0 2320436F 		.ascii	"# Connected intermediates\015\012\000"
ARM GAS  C:\Users\FRANKL~1\AppData\Local\Temp\ccLkvCvD.s 			page 151


 6475      6E6E6563 
 6475      74656420 
 6475      696E7465 
 6475      726D6564 
 6476              	.LC61:
 6477 04dc 5365745F 		.ascii	"Set_Current_Measurement_Sample_Count \000"
 6477      43757272 
 6477      656E745F 
 6477      4D656173 
 6477      7572656D 
 6478 0502 0000     		.space	2
 6479              	.LC62:
 6480 0504 23205365 		.ascii	"# Set Current Measurement Sample Count\015\012\000"
 6480      74204375 
 6480      7272656E 
 6480      74204D65 
 6480      61737572 
 6481 052d 000000   		.space	3
 6482              	.LC63:
 6483 0530 2120556E 		.ascii	"! Unidentified command: |%s|\015\012\000"
 6483      6964656E 
 6483      74696669 
 6483      65642063 
 6483      6F6D6D61 
 6484              		.bss
 6485              		.align	2
 6486              		.set	.LANCHOR0,. + 0
 6487              		.type	newData, %object
 6488              		.size	newData, 1
 6489              	newData:
 6490 0000 00       		.space	1
 6491              		.type	G_Stop, %object
 6492              		.size	G_Stop, 1
 6493              	G_Stop:
 6494 0001 00       		.space	1
 6495              		.type	G_Break, %object
 6496              		.size	G_Break, 1
 6497              	G_Break:
 6498 0002 00       		.space	1
 6499              		.type	G_Pause, %object
 6500              		.size	G_Pause, 1
 6501              	G_Pause:
 6502 0003 00       		.space	1
 6503              		.type	TIA_Selected_Resistor, %object
 6504              		.size	TIA_Selected_Resistor, 1
 6505              	TIA_Selected_Resistor:
 6506 0004 00       		.space	1
 6507 0005 000000   		.space	3
 6508              		.type	TIA_Offsets_uV, %object
 6509              		.size	TIA_Offsets_uV, 32
 6510              	TIA_Offsets_uV:
 6511 0008 00000000 		.space	32
 6511      00000000 
 6511      00000000 
 6511      00000000 
 6511      00000000 
 6512              		.text
ARM GAS  C:\Users\FRANKL~1\AppData\Local\Temp\ccLkvCvD.s 			page 152


 6513              	.Letext0:
 6514              		.file 3 "c:\\program files (x86)\\cypress\\psoc creator\\4.1\\psoc creator\\import\\gnu\\arm\\5.4.
 6515              		.file 4 "c:\\program files (x86)\\cypress\\psoc creator\\4.1\\psoc creator\\import\\gnu\\arm\\5.4.
 6516              		.file 5 "Generated_Source\\PSoC5/cytypes.h"
 6517              		.file 6 "Generated_Source\\PSoC5/core_cm3.h"
 6518              		.file 7 "Generated_Source\\PSoC5/USBUART.h"
 6519              		.file 8 "Generated_Source\\PSoC5/USBUART_cdc.h"
 6520              		.file 9 "c:\\program files (x86)\\cypress\\psoc creator\\4.1\\psoc creator\\import\\gnu\\arm\\5.4.
 6521              		.file 10 "Generated_Source\\PSoC5/UART_1.h"
 6522              		.file 11 "Generated_Source\\PSoC5/CommunicationInterrupt.h"
 6523              		.file 12 "Generated_Source\\PSoC5/CommunicationTimer.h"
 6524              		.file 13 "Generated_Source\\PSoC5/I2C_1.h"
 6525              		.file 14 "c:\\program files (x86)\\cypress\\psoc creator\\4.1\\psoc creator\\import\\gnu\\arm\\5.4
 6526              		.file 15 "Generated_Source\\PSoC5/TIA_1.h"
 6527              		.file 16 "Generated_Source\\PSoC5/ADC_DelSig_1.h"
 6528              		.file 17 "Generated_Source\\PSoC5/ADC_SAR_1.h"
 6529              		.file 18 "Generated_Source\\PSoC5/ADC_SAR_2.h"
 6530              		.file 19 "Generated_Source\\PSoC5/VDAC_Vds.h"
 6531              		.file 20 "Generated_Source\\PSoC5/VDAC_Vgs.h"
 6532              		.file 21 "Generated_Source\\PSoC5/VDAC_Ref.h"
 6533              		.file 22 "c:\\program files (x86)\\cypress\\psoc creator\\4.1\\psoc creator\\import\\gnu\\arm\\5.4
 6534              		.file 23 "Generated_Source\\PSoC5/CyLib.h"
 6535              		.file 24 "<built-in>"
 6536              		.section	.debug_info,"",%progbits
 6537              	.Ldebug_info0:
 6538 0000 53380000 		.4byte	0x3853
 6539 0004 0400     		.2byte	0x4
 6540 0006 00000000 		.4byte	.Ldebug_abbrev0
 6541 000a 04       		.byte	0x4
 6542 000b 01       		.uleb128 0x1
 6543 000c 8F020000 		.4byte	.LASF248
 6544 0010 0C       		.byte	0xc
 6545 0011 CB060000 		.4byte	.LASF249
 6546 0015 E60B0000 		.4byte	.LASF250
 6547 0019 38010000 		.4byte	.Ldebug_ranges0+0x138
 6548 001d 00000000 		.4byte	0
 6549 0021 00000000 		.4byte	.Ldebug_line0
 6550 0025 02       		.uleb128 0x2
 6551 0026 04       		.byte	0x4
 6552 0027 04       		.byte	0x4
 6553 0028 650E0000 		.4byte	.LASF0
 6554 002c 02       		.uleb128 0x2
 6555 002d 08       		.byte	0x8
 6556 002e 04       		.byte	0x4
 6557 002f C4060000 		.4byte	.LASF1
 6558 0033 03       		.uleb128 0x3
 6559 0034 04       		.byte	0x4
 6560 0035 05       		.byte	0x5
 6561 0036 696E7400 		.ascii	"int\000"
 6562 003a 02       		.uleb128 0x2
 6563 003b 04       		.byte	0x4
 6564 003c 07       		.byte	0x7
 6565 003d B4070000 		.4byte	.LASF2
 6566 0041 02       		.uleb128 0x2
 6567 0042 08       		.byte	0x8
 6568 0043 05       		.byte	0x5
 6569 0044 AB060000 		.4byte	.LASF3
ARM GAS  C:\Users\FRANKL~1\AppData\Local\Temp\ccLkvCvD.s 			page 153


 6570 0048 02       		.uleb128 0x2
 6571 0049 08       		.byte	0x8
 6572 004a 04       		.byte	0x4
 6573 004b 97090000 		.4byte	.LASF4
 6574 004f 02       		.uleb128 0x2
 6575 0050 01       		.byte	0x1
 6576 0051 06       		.byte	0x6
 6577 0052 64030000 		.4byte	.LASF5
 6578 0056 02       		.uleb128 0x2
 6579 0057 01       		.byte	0x1
 6580 0058 08       		.byte	0x8
 6581 0059 9B030000 		.4byte	.LASF6
 6582 005d 02       		.uleb128 0x2
 6583 005e 02       		.byte	0x2
 6584 005f 05       		.byte	0x5
 6585 0060 A90C0000 		.4byte	.LASF7
 6586 0064 02       		.uleb128 0x2
 6587 0065 02       		.byte	0x2
 6588 0066 07       		.byte	0x7
 6589 0067 77020000 		.4byte	.LASF8
 6590 006b 04       		.uleb128 0x4
 6591 006c 8D0E0000 		.4byte	.LASF14
 6592 0070 03       		.byte	0x3
 6593 0071 3F       		.byte	0x3f
 6594 0072 76000000 		.4byte	0x76
 6595 0076 02       		.uleb128 0x2
 6596 0077 04       		.byte	0x4
 6597 0078 05       		.byte	0x5
 6598 0079 1F020000 		.4byte	.LASF9
 6599 007d 02       		.uleb128 0x2
 6600 007e 04       		.byte	0x4
 6601 007f 07       		.byte	0x7
 6602 0080 90050000 		.4byte	.LASF10
 6603 0084 02       		.uleb128 0x2
 6604 0085 08       		.byte	0x8
 6605 0086 07       		.byte	0x7
 6606 0087 790A0000 		.4byte	.LASF11
 6607 008b 02       		.uleb128 0x2
 6608 008c 04       		.byte	0x4
 6609 008d 07       		.byte	0x7
 6610 008e 0D000000 		.4byte	.LASF12
 6611 0092 05       		.uleb128 0x5
 6612 0093 04       		.byte	0x4
 6613 0094 98000000 		.4byte	0x98
 6614 0098 02       		.uleb128 0x2
 6615 0099 01       		.byte	0x1
 6616 009a 08       		.byte	0x8
 6617 009b 01040000 		.4byte	.LASF13
 6618 009f 05       		.uleb128 0x5
 6619 00a0 04       		.byte	0x4
 6620 00a1 A5000000 		.4byte	0xa5
 6621 00a5 06       		.uleb128 0x6
 6622 00a6 98000000 		.4byte	0x98
 6623 00aa 04       		.uleb128 0x4
 6624 00ab 69000000 		.4byte	.LASF15
 6625 00af 04       		.byte	0x4
 6626 00b0 2C       		.byte	0x2c
ARM GAS  C:\Users\FRANKL~1\AppData\Local\Temp\ccLkvCvD.s 			page 154


 6627 00b1 6B000000 		.4byte	0x6b
 6628 00b5 07       		.uleb128 0x7
 6629 00b6 5F0C0000 		.4byte	.LASF16
 6630 00ba 05       		.byte	0x5
 6631 00bb 9201     		.2byte	0x192
 6632 00bd 56000000 		.4byte	0x56
 6633 00c1 07       		.uleb128 0x7
 6634 00c2 F70E0000 		.4byte	.LASF17
 6635 00c6 05       		.byte	0x5
 6636 00c7 9301     		.2byte	0x193
 6637 00c9 64000000 		.4byte	0x64
 6638 00cd 07       		.uleb128 0x7
 6639 00ce 86000000 		.4byte	.LASF18
 6640 00d2 05       		.byte	0x5
 6641 00d3 9401     		.2byte	0x194
 6642 00d5 7D000000 		.4byte	0x7d
 6643 00d9 07       		.uleb128 0x7
 6644 00da 56010000 		.4byte	.LASF19
 6645 00de 05       		.byte	0x5
 6646 00df 9501     		.2byte	0x195
 6647 00e1 4F000000 		.4byte	0x4f
 6648 00e5 07       		.uleb128 0x7
 6649 00e6 B90D0000 		.4byte	.LASF20
 6650 00ea 05       		.byte	0x5
 6651 00eb 9601     		.2byte	0x196
 6652 00ed 5D000000 		.4byte	0x5d
 6653 00f1 07       		.uleb128 0x7
 6654 00f2 870E0000 		.4byte	.LASF21
 6655 00f6 05       		.byte	0x5
 6656 00f7 9701     		.2byte	0x197
 6657 00f9 76000000 		.4byte	0x76
 6658 00fd 07       		.uleb128 0x7
 6659 00fe E90A0000 		.4byte	.LASF22
 6660 0102 05       		.byte	0x5
 6661 0103 3C02     		.2byte	0x23c
 6662 0105 09010000 		.4byte	0x109
 6663 0109 08       		.uleb128 0x8
 6664 010a B5000000 		.4byte	0xb5
 6665 010e 09       		.uleb128 0x9
 6666 010f B5000000 		.4byte	0xb5
 6667 0113 1E010000 		.4byte	0x11e
 6668 0117 0A       		.uleb128 0xa
 6669 0118 8B000000 		.4byte	0x8b
 6670 011c 07       		.byte	0x7
 6671 011d 00       		.byte	0
 6672 011e 0B       		.uleb128 0xb
 6673 011f 7F       		.byte	0x7f
 6674 0120 02       		.byte	0x2
 6675 0121 08       		.byte	0x8
 6676 0122 3F010000 		.4byte	0x13f
 6677 0126 0C       		.uleb128 0xc
 6678 0127 B9060000 		.4byte	.LASF23
 6679 012b 02       		.byte	0x2
 6680 012c 09       		.byte	0x9
 6681 012d B5000000 		.4byte	0xb5
 6682 0131 00       		.byte	0
 6683 0132 0C       		.uleb128 0xc
ARM GAS  C:\Users\FRANKL~1\AppData\Local\Temp\ccLkvCvD.s 			page 155


 6684 0133 D00E0000 		.4byte	.LASF24
 6685 0137 02       		.byte	0x2
 6686 0138 0A       		.byte	0xa
 6687 0139 3F010000 		.4byte	0x13f
 6688 013d 01       		.byte	0x1
 6689 013e 00       		.byte	0
 6690 013f 09       		.uleb128 0x9
 6691 0140 B5000000 		.4byte	0xb5
 6692 0144 4F010000 		.4byte	0x14f
 6693 0148 0A       		.uleb128 0xa
 6694 0149 8B000000 		.4byte	0x8b
 6695 014d 7D       		.byte	0x7d
 6696 014e 00       		.byte	0
 6697 014f 0B       		.uleb128 0xb
 6698 0150 7F       		.byte	0x7f
 6699 0151 02       		.byte	0x2
 6700 0152 0C       		.byte	0xc
 6701 0153 70010000 		.4byte	0x170
 6702 0157 0C       		.uleb128 0xc
 6703 0158 B9060000 		.4byte	.LASF23
 6704 015c 02       		.byte	0x2
 6705 015d 0D       		.byte	0xd
 6706 015e B5000000 		.4byte	0xb5
 6707 0162 00       		.byte	0
 6708 0163 0C       		.uleb128 0xc
 6709 0164 D00E0000 		.4byte	.LASF24
 6710 0168 02       		.byte	0x2
 6711 0169 0E       		.byte	0xe
 6712 016a 3F010000 		.4byte	0x13f
 6713 016e 01       		.byte	0x1
 6714 016f 00       		.byte	0
 6715 0170 0D       		.uleb128 0xd
 6716 0171 70030000 		.4byte	.LASF251
 6717 0175 FF       		.byte	0xff
 6718 0176 02       		.byte	0x2
 6719 0177 07       		.byte	0x7
 6720 0178 A1010000 		.4byte	0x1a1
 6721 017c 0C       		.uleb128 0xc
 6722 017d 8D000000 		.4byte	.LASF25
 6723 0181 02       		.byte	0x2
 6724 0182 0B       		.byte	0xb
 6725 0183 1E010000 		.4byte	0x11e
 6726 0187 00       		.byte	0
 6727 0188 0C       		.uleb128 0xc
 6728 0189 86070000 		.4byte	.LASF26
 6729 018d 02       		.byte	0x2
 6730 018e 0F       		.byte	0xf
 6731 018f 4F010000 		.4byte	0x14f
 6732 0193 7F       		.byte	0x7f
 6733 0194 0C       		.uleb128 0xc
 6734 0195 3F0D0000 		.4byte	.LASF27
 6735 0199 02       		.byte	0x2
 6736 019a 10       		.byte	0x10
 6737 019b B5000000 		.4byte	0xb5
 6738 019f FE       		.byte	0xfe
 6739 01a0 00       		.byte	0
 6740 01a1 0E       		.uleb128 0xe
ARM GAS  C:\Users\FRANKL~1\AppData\Local\Temp\ccLkvCvD.s 			page 156


 6741 01a2 71000000 		.4byte	.LASF252
 6742 01a6 01       		.byte	0x1
 6743 01a7 56000000 		.4byte	0x56
 6744 01ab 02       		.byte	0x2
 6745 01ac 2B       		.byte	0x2b
 6746 01ad E2010000 		.4byte	0x1e2
 6747 01b1 0F       		.uleb128 0xf
 6748 01b2 5B020000 		.4byte	.LASF28
 6749 01b6 00       		.byte	0
 6750 01b7 0F       		.uleb128 0xf
 6751 01b8 F8040000 		.4byte	.LASF29
 6752 01bc 01       		.byte	0x1
 6753 01bd 0F       		.uleb128 0xf
 6754 01be 12080000 		.4byte	.LASF30
 6755 01c2 02       		.byte	0x2
 6756 01c3 0F       		.uleb128 0xf
 6757 01c4 31050000 		.4byte	.LASF31
 6758 01c8 03       		.byte	0x3
 6759 01c9 0F       		.uleb128 0xf
 6760 01ca 54040000 		.4byte	.LASF32
 6761 01ce 04       		.byte	0x4
 6762 01cf 0F       		.uleb128 0xf
 6763 01d0 74050000 		.4byte	.LASF33
 6764 01d4 05       		.byte	0x5
 6765 01d5 0F       		.uleb128 0xf
 6766 01d6 480E0000 		.4byte	.LASF34
 6767 01da 06       		.byte	0x6
 6768 01db 0F       		.uleb128 0xf
 6769 01dc 2D030000 		.4byte	.LASF35
 6770 01e0 07       		.byte	0x7
 6771 01e1 00       		.byte	0
 6772 01e2 10       		.uleb128 0x10
 6773 01e3 F2070000 		.4byte	.LASF54
 6774 01e7 01       		.byte	0x1
 6775 01e8 10       		.byte	0x10
 6776 01e9 00000000 		.4byte	.LFB64
 6777 01ed 18000000 		.4byte	.LFE64-.LFB64
 6778 01f1 01       		.uleb128 0x1
 6779 01f2 9C       		.byte	0x9c
 6780 01f3 2B020000 		.4byte	0x22b
 6781 01f7 11       		.uleb128 0x11
 6782 01f8 63000000 		.4byte	.LASF38
 6783 01fc 01       		.byte	0x1
 6784 01fd 11       		.byte	0x11
 6785 01fe 7D000000 		.4byte	0x7d
 6786 0202 00000000 		.4byte	.LLST0
 6787 0206 12       		.uleb128 0x12
 6788 0207 06000000 		.4byte	.LVL1
 6789 020b 13360000 		.4byte	0x3613
 6790 020f 12       		.uleb128 0x12
 6791 0210 0C000000 		.4byte	.LVL2
 6792 0214 1F360000 		.4byte	0x361f
 6793 0218 12       		.uleb128 0x12
 6794 0219 12000000 		.4byte	.LVL3
 6795 021d 2B360000 		.4byte	0x362b
 6796 0221 12       		.uleb128 0x12
 6797 0222 16000000 		.4byte	.LVL4
ARM GAS  C:\Users\FRANKL~1\AppData\Local\Temp\ccLkvCvD.s 			page 157


 6798 0226 1F360000 		.4byte	0x361f
 6799 022a 00       		.byte	0
 6800 022b 13       		.uleb128 0x13
 6801 022c F7060000 		.4byte	.LASF36
 6802 0230 01       		.byte	0x1
 6803 0231 22       		.byte	0x22
 6804 0232 B5000000 		.4byte	0xb5
 6805 0236 00000000 		.4byte	.LFB65
 6806 023a 1E000000 		.4byte	.LFE65-.LFB65
 6807 023e 01       		.uleb128 0x1
 6808 023f 9C       		.byte	0x9c
 6809 0240 60020000 		.4byte	0x260
 6810 0244 12       		.uleb128 0x12
 6811 0245 06000000 		.4byte	.LVL5
 6812 0249 E2010000 		.4byte	0x1e2
 6813 024d 12       		.uleb128 0x12
 6814 024e 0A000000 		.4byte	.LVL6
 6815 0252 1F360000 		.4byte	0x361f
 6816 0256 12       		.uleb128 0x12
 6817 0257 10000000 		.4byte	.LVL7
 6818 025b 36360000 		.4byte	0x3636
 6819 025f 00       		.byte	0
 6820 0260 14       		.uleb128 0x14
 6821 0261 930B0000 		.4byte	.LASF37
 6822 0265 02       		.byte	0x2
 6823 0266 7603     		.2byte	0x376
 6824 0268 00000000 		.4byte	.LFB113
 6825 026c B0010000 		.4byte	.LFE113-.LFB113
 6826 0270 01       		.uleb128 0x1
 6827 0271 9C       		.byte	0x9c
 6828 0272 C1030000 		.4byte	0x3c1
 6829 0276 15       		.uleb128 0x15
 6830 0277 0C000000 		.4byte	.LBB2
 6831 027b 70000000 		.4byte	.LBE2-.LBB2
 6832 027f E8020000 		.4byte	0x2e8
 6833 0283 16       		.uleb128 0x16
 6834 0284 EC040000 		.4byte	.LASF39
 6835 0288 02       		.byte	0x2
 6836 0289 7A03     		.2byte	0x37a
 6837 028b C1030000 		.4byte	0x3c1
 6838 028f 03       		.uleb128 0x3
 6839 0290 91       		.byte	0x91
 6840 0291 B07F     		.sleb128 -80
 6841 0293 17       		.uleb128 0x17
 6842 0294 060B0000 		.4byte	.LASF40
 6843 0298 02       		.byte	0x2
 6844 0299 7B03     		.2byte	0x37b
 6845 029b B5000000 		.4byte	0xb5
 6846 029f 20000000 		.4byte	.LLST1
 6847 02a3 15       		.uleb128 0x15
 6848 02a4 14000000 		.4byte	.LBB3
 6849 02a8 68000000 		.4byte	.LBE3-.LBB3
 6850 02ac D7020000 		.4byte	0x2d7
 6851 02b0 18       		.uleb128 0x18
 6852 02b1 6900     		.ascii	"i\000"
 6853 02b3 02       		.byte	0x2
 6854 02b4 7D03     		.2byte	0x37d
ARM GAS  C:\Users\FRANKL~1\AppData\Local\Temp\ccLkvCvD.s 			page 158


 6855 02b6 B5000000 		.4byte	0xb5
 6856 02ba 33000000 		.4byte	.LLST2
 6857 02be 19       		.uleb128 0x19
 6858 02bf 18000000 		.4byte	.LBB4
 6859 02c3 5A000000 		.4byte	.LBE4-.LBB4
 6860 02c7 18       		.uleb128 0x18
 6861 02c8 6300     		.ascii	"c\000"
 6862 02ca 02       		.byte	0x2
 6863 02cb 7E03     		.2byte	0x37e
 6864 02cd 98000000 		.4byte	0x98
 6865 02d1 5D000000 		.4byte	.LLST3
 6866 02d5 00       		.byte	0
 6867 02d6 00       		.byte	0
 6868 02d7 1A       		.uleb128 0x1a
 6869 02d8 12000000 		.4byte	.LVL9
 6870 02dc 41360000 		.4byte	0x3641
 6871 02e0 1B       		.uleb128 0x1b
 6872 02e1 01       		.uleb128 0x1
 6873 02e2 50       		.byte	0x50
 6874 02e3 02       		.uleb128 0x2
 6875 02e4 7D       		.byte	0x7d
 6876 02e5 00       		.sleb128 0
 6877 02e6 00       		.byte	0
 6878 02e7 00       		.byte	0
 6879 02e8 15       		.uleb128 0x15
 6880 02e9 FC000000 		.4byte	.LBB5
 6881 02ed 80000000 		.4byte	.LBE5-.LBB5
 6882 02f1 93030000 		.4byte	0x393
 6883 02f5 17       		.uleb128 0x17
 6884 02f6 B2090000 		.4byte	.LASF41
 6885 02fa 02       		.byte	0x2
 6886 02fb 9F03     		.2byte	0x39f
 6887 02fd 92000000 		.4byte	0x92
 6888 0301 B1000000 		.4byte	.LLST4
 6889 0305 1C       		.uleb128 0x1c
 6890 0306 14010000 		.4byte	.LVL23
 6891 030a 4C360000 		.4byte	0x364c
 6892 030e 22030000 		.4byte	0x322
 6893 0312 1B       		.uleb128 0x1b
 6894 0313 01       		.uleb128 0x1
 6895 0314 50       		.byte	0x50
 6896 0315 02       		.uleb128 0x2
 6897 0316 74       		.byte	0x74
 6898 0317 00       		.sleb128 0
 6899 0318 1B       		.uleb128 0x1b
 6900 0319 01       		.uleb128 0x1
 6901 031a 51       		.byte	0x51
 6902 031b 05       		.uleb128 0x5
 6903 031c 03       		.byte	0x3
 6904 031d 00000000 		.4byte	.LC0
 6905 0321 00       		.byte	0
 6906 0322 1C       		.uleb128 0x1c
 6907 0323 2C010000 		.4byte	.LVL24
 6908 0327 4C360000 		.4byte	0x364c
 6909 032b 3F030000 		.4byte	0x33f
 6910 032f 1B       		.uleb128 0x1b
 6911 0330 01       		.uleb128 0x1
ARM GAS  C:\Users\FRANKL~1\AppData\Local\Temp\ccLkvCvD.s 			page 159


 6912 0331 50       		.byte	0x50
 6913 0332 02       		.uleb128 0x2
 6914 0333 74       		.byte	0x74
 6915 0334 00       		.sleb128 0
 6916 0335 1B       		.uleb128 0x1b
 6917 0336 01       		.uleb128 0x1
 6918 0337 51       		.byte	0x51
 6919 0338 05       		.uleb128 0x5
 6920 0339 03       		.byte	0x3
 6921 033a 08000000 		.4byte	.LC1
 6922 033e 00       		.byte	0
 6923 033f 1C       		.uleb128 0x1c
 6924 0340 44010000 		.4byte	.LVL25
 6925 0344 4C360000 		.4byte	0x364c
 6926 0348 5C030000 		.4byte	0x35c
 6927 034c 1B       		.uleb128 0x1b
 6928 034d 01       		.uleb128 0x1
 6929 034e 50       		.byte	0x50
 6930 034f 02       		.uleb128 0x2
 6931 0350 74       		.byte	0x74
 6932 0351 00       		.sleb128 0
 6933 0352 1B       		.uleb128 0x1b
 6934 0353 01       		.uleb128 0x1
 6935 0354 51       		.byte	0x51
 6936 0355 05       		.uleb128 0x5
 6937 0356 03       		.byte	0x3
 6938 0357 10000000 		.4byte	.LC2
 6939 035b 00       		.byte	0
 6940 035c 1C       		.uleb128 0x1c
 6941 035d 5C010000 		.4byte	.LVL26
 6942 0361 4C360000 		.4byte	0x364c
 6943 0365 79030000 		.4byte	0x379
 6944 0369 1B       		.uleb128 0x1b
 6945 036a 01       		.uleb128 0x1
 6946 036b 50       		.byte	0x50
 6947 036c 02       		.uleb128 0x2
 6948 036d 74       		.byte	0x74
 6949 036e 00       		.sleb128 0
 6950 036f 1B       		.uleb128 0x1b
 6951 0370 01       		.uleb128 0x1
 6952 0371 51       		.byte	0x51
 6953 0372 05       		.uleb128 0x5
 6954 0373 03       		.byte	0x3
 6955 0374 18000000 		.4byte	.LC3
 6956 0378 00       		.byte	0
 6957 0379 1A       		.uleb128 0x1a
 6958 037a 72010000 		.4byte	.LVL27
 6959 037e 4C360000 		.4byte	0x364c
 6960 0382 1B       		.uleb128 0x1b
 6961 0383 01       		.uleb128 0x1
 6962 0384 50       		.byte	0x50
 6963 0385 02       		.uleb128 0x2
 6964 0386 74       		.byte	0x74
 6965 0387 00       		.sleb128 0
 6966 0388 1B       		.uleb128 0x1b
 6967 0389 01       		.uleb128 0x1
 6968 038a 51       		.byte	0x51
ARM GAS  C:\Users\FRANKL~1\AppData\Local\Temp\ccLkvCvD.s 			page 160


 6969 038b 05       		.uleb128 0x5
 6970 038c 03       		.byte	0x3
 6971 038d 20000000 		.4byte	.LC4
 6972 0391 00       		.byte	0
 6973 0392 00       		.byte	0
 6974 0393 12       		.uleb128 0x12
 6975 0394 08000000 		.4byte	.LVL8
 6976 0398 2B020000 		.4byte	0x22b
 6977 039c 12       		.uleb128 0x12
 6978 039d 80000000 		.4byte	.LVL19
 6979 03a1 57360000 		.4byte	0x3657
 6980 03a5 12       		.uleb128 0x12
 6981 03a6 8E000000 		.4byte	.LVL20
 6982 03aa 62360000 		.4byte	0x3662
 6983 03ae 12       		.uleb128 0x12
 6984 03af 80010000 		.4byte	.LVL29
 6985 03b3 6D360000 		.4byte	0x366d
 6986 03b7 12       		.uleb128 0x12
 6987 03b8 84010000 		.4byte	.LVL30
 6988 03bc 78360000 		.4byte	0x3678
 6989 03c0 00       		.byte	0
 6990 03c1 09       		.uleb128 0x9
 6991 03c2 98000000 		.4byte	0x98
 6992 03c6 D1030000 		.4byte	0x3d1
 6993 03ca 0A       		.uleb128 0xa
 6994 03cb 8B000000 		.4byte	0x8b
 6995 03cf 3F       		.byte	0x3f
 6996 03d0 00       		.byte	0
 6997 03d1 1D       		.uleb128 0x1d
 6998 03d2 E4000000 		.4byte	.LASF44
 6999 03d6 01       		.byte	0x1
 7000 03d7 29       		.byte	0x29
 7001 03d8 B5000000 		.4byte	0xb5
 7002 03dc 00000000 		.4byte	.LFB66
 7003 03e0 50000000 		.4byte	.LFE66-.LFB66
 7004 03e4 01       		.uleb128 0x1
 7005 03e5 9C       		.byte	0x9c
 7006 03e6 74040000 		.4byte	0x474
 7007 03ea 1E       		.uleb128 0x1e
 7008 03eb D4040000 		.4byte	.LASF42
 7009 03ef 01       		.byte	0x1
 7010 03f0 29       		.byte	0x29
 7011 03f1 92000000 		.4byte	0x92
 7012 03f5 D4000000 		.4byte	.LLST5
 7013 03f9 1E       		.uleb128 0x1e
 7014 03fa 80070000 		.4byte	.LASF43
 7015 03fe 01       		.byte	0x1
 7016 03ff 29       		.byte	0x29
 7017 0400 C1000000 		.4byte	0xc1
 7018 0404 16010000 		.4byte	.LLST6
 7019 0408 1F       		.uleb128 0x1f
 7020 0409 00000000 		.4byte	.Ldebug_ranges0+0
 7021 040d 33040000 		.4byte	0x433
 7022 0411 11       		.uleb128 0x11
 7023 0412 63000000 		.4byte	.LASF38
 7024 0416 01       		.byte	0x1
 7025 0417 2C       		.byte	0x2c
ARM GAS  C:\Users\FRANKL~1\AppData\Local\Temp\ccLkvCvD.s 			page 161


 7026 0418 CD000000 		.4byte	0xcd
 7027 041c 50010000 		.4byte	.LLST7
 7028 0420 12       		.uleb128 0x12
 7029 0421 0C000000 		.4byte	.LVL34
 7030 0425 E2010000 		.4byte	0x1e2
 7031 0429 12       		.uleb128 0x12
 7032 042a 10000000 		.4byte	.LVL35
 7033 042e 83360000 		.4byte	0x3683
 7034 0432 00       		.byte	0
 7035 0433 12       		.uleb128 0x12
 7036 0434 26000000 		.4byte	.LVL39
 7037 0438 83360000 		.4byte	0x3683
 7038 043c 1C       		.uleb128 0x1c
 7039 043d 32000000 		.4byte	.LVL40
 7040 0441 8E360000 		.4byte	0x368e
 7041 0445 56040000 		.4byte	0x456
 7042 0449 1B       		.uleb128 0x1b
 7043 044a 01       		.uleb128 0x1
 7044 044b 50       		.byte	0x50
 7045 044c 02       		.uleb128 0x2
 7046 044d 76       		.byte	0x76
 7047 044e 00       		.sleb128 0
 7048 044f 1B       		.uleb128 0x1b
 7049 0450 01       		.uleb128 0x1
 7050 0451 51       		.byte	0x51
 7051 0452 02       		.uleb128 0x2
 7052 0453 75       		.byte	0x75
 7053 0454 00       		.sleb128 0
 7054 0455 00       		.byte	0
 7055 0456 12       		.uleb128 0x12
 7056 0457 3A000000 		.4byte	.LVL41
 7057 045b 83360000 		.4byte	0x3683
 7058 045f 1A       		.uleb128 0x1a
 7059 0460 46000000 		.4byte	.LVL42
 7060 0464 8E360000 		.4byte	0x368e
 7061 0468 1B       		.uleb128 0x1b
 7062 0469 01       		.uleb128 0x1
 7063 046a 50       		.byte	0x50
 7064 046b 01       		.uleb128 0x1
 7065 046c 30       		.byte	0x30
 7066 046d 1B       		.uleb128 0x1b
 7067 046e 01       		.uleb128 0x1
 7068 046f 51       		.byte	0x51
 7069 0470 01       		.uleb128 0x1
 7070 0471 30       		.byte	0x30
 7071 0472 00       		.byte	0
 7072 0473 00       		.byte	0
 7073 0474 1D       		.uleb128 0x1d
 7074 0475 980C0000 		.4byte	.LASF45
 7075 0479 01       		.byte	0x1
 7076 047a 47       		.byte	0x47
 7077 047b B5000000 		.4byte	0xb5
 7078 047f 00000000 		.4byte	.LFB67
 7079 0483 24000000 		.4byte	.LFE67-.LFB67
 7080 0487 01       		.uleb128 0x1
 7081 0488 9C       		.byte	0x9c
 7082 0489 CE040000 		.4byte	0x4ce
ARM GAS  C:\Users\FRANKL~1\AppData\Local\Temp\ccLkvCvD.s 			page 162


 7083 048d 1E       		.uleb128 0x1e
 7084 048e D4040000 		.4byte	.LASF42
 7085 0492 01       		.byte	0x1
 7086 0493 47       		.byte	0x47
 7087 0494 92000000 		.4byte	0x92
 7088 0498 6E010000 		.4byte	.LLST8
 7089 049c 1E       		.uleb128 0x1e
 7090 049d 80070000 		.4byte	.LASF43
 7091 04a1 01       		.byte	0x1
 7092 04a2 47       		.byte	0x47
 7093 04a3 CE040000 		.4byte	0x4ce
 7094 04a7 8C010000 		.4byte	.LLST9
 7095 04ab 12       		.uleb128 0x12
 7096 04ac 0C000000 		.4byte	.LVL45
 7097 04b0 E2010000 		.4byte	0x1e2
 7098 04b4 12       		.uleb128 0x12
 7099 04b5 10000000 		.4byte	.LVL46
 7100 04b9 36360000 		.4byte	0x3636
 7101 04bd 1A       		.uleb128 0x1a
 7102 04be 1A000000 		.4byte	.LVL47
 7103 04c2 41360000 		.4byte	0x3641
 7104 04c6 1B       		.uleb128 0x1b
 7105 04c7 01       		.uleb128 0x1
 7106 04c8 50       		.byte	0x50
 7107 04c9 02       		.uleb128 0x2
 7108 04ca 74       		.byte	0x74
 7109 04cb 00       		.sleb128 0
 7110 04cc 00       		.byte	0
 7111 04cd 00       		.byte	0
 7112 04ce 05       		.uleb128 0x5
 7113 04cf 04       		.byte	0x4
 7114 04d0 C1000000 		.4byte	0xc1
 7115 04d4 13       		.uleb128 0x13
 7116 04d5 CA030000 		.4byte	.LASF46
 7117 04d9 01       		.byte	0x1
 7118 04da 53       		.byte	0x53
 7119 04db 98000000 		.4byte	0x98
 7120 04df 00000000 		.4byte	.LFB68
 7121 04e3 16000000 		.4byte	.LFE68-.LFB68
 7122 04e7 01       		.uleb128 0x1
 7123 04e8 9C       		.byte	0x9c
 7124 04e9 09050000 		.4byte	0x509
 7125 04ed 12       		.uleb128 0x12
 7126 04ee 08000000 		.4byte	.LVL48
 7127 04f2 E2010000 		.4byte	0x1e2
 7128 04f6 12       		.uleb128 0x12
 7129 04f7 0C000000 		.4byte	.LVL49
 7130 04fb 36360000 		.4byte	0x3636
 7131 04ff 12       		.uleb128 0x12
 7132 0500 14000000 		.4byte	.LVL50
 7133 0504 99360000 		.4byte	0x3699
 7134 0508 00       		.byte	0
 7135 0509 1D       		.uleb128 0x1d
 7136 050a D7080000 		.4byte	.LASF47
 7137 050e 01       		.byte	0x1
 7138 050f 59       		.byte	0x59
 7139 0510 B5000000 		.4byte	0xb5
ARM GAS  C:\Users\FRANKL~1\AppData\Local\Temp\ccLkvCvD.s 			page 163


 7140 0514 00000000 		.4byte	.LFB69
 7141 0518 58000000 		.4byte	.LFE69-.LFB69
 7142 051c 01       		.uleb128 0x1
 7143 051d 9C       		.byte	0x9c
 7144 051e B5050000 		.4byte	0x5b5
 7145 0522 1E       		.uleb128 0x1e
 7146 0523 D4040000 		.4byte	.LASF42
 7147 0527 01       		.byte	0x1
 7148 0528 59       		.byte	0x59
 7149 0529 92000000 		.4byte	0x92
 7150 052d AA010000 		.4byte	.LLST10
 7151 0531 1E       		.uleb128 0x1e
 7152 0532 5B050000 		.4byte	.LASF48
 7153 0536 01       		.byte	0x1
 7154 0537 59       		.byte	0x59
 7155 0538 C1000000 		.4byte	0xc1
 7156 053c C8010000 		.4byte	.LLST11
 7157 0540 1E       		.uleb128 0x1e
 7158 0541 0C070000 		.4byte	.LASF49
 7159 0545 01       		.byte	0x1
 7160 0546 59       		.byte	0x59
 7161 0547 9F000000 		.4byte	0x9f
 7162 054b E9010000 		.4byte	.LLST12
 7163 054f 15       		.uleb128 0x15
 7164 0550 0A000000 		.4byte	.LBB8
 7165 0554 14000000 		.4byte	.LBE8-.LBB8
 7166 0558 6A050000 		.4byte	0x56a
 7167 055c 20       		.uleb128 0x20
 7168 055d 6900     		.ascii	"i\000"
 7169 055f 01       		.byte	0x1
 7170 0560 5A       		.byte	0x5a
 7171 0561 C1000000 		.4byte	0xc1
 7172 0565 07020000 		.4byte	.LLST13
 7173 0569 00       		.byte	0
 7174 056a 19       		.uleb128 0x19
 7175 056b 1E000000 		.4byte	.LBB9
 7176 056f 34000000 		.4byte	.LBE9-.LBB9
 7177 0573 20       		.uleb128 0x20
 7178 0574 6900     		.ascii	"i\000"
 7179 0576 01       		.byte	0x1
 7180 0577 5E       		.byte	0x5e
 7181 0578 C1000000 		.4byte	0xc1
 7182 057c 31020000 		.4byte	.LLST14
 7183 0580 12       		.uleb128 0x12
 7184 0581 22000000 		.4byte	.LVL57
 7185 0585 D4040000 		.4byte	0x4d4
 7186 0589 1C       		.uleb128 0x1c
 7187 058a 32000000 		.4byte	.LVL58
 7188 058e 4C360000 		.4byte	0x364c
 7189 0592 A3050000 		.4byte	0x5a3
 7190 0596 1B       		.uleb128 0x1b
 7191 0597 01       		.uleb128 0x1
 7192 0598 50       		.byte	0x50
 7193 0599 02       		.uleb128 0x2
 7194 059a 75       		.byte	0x75
 7195 059b 00       		.sleb128 0
 7196 059c 1B       		.uleb128 0x1b
ARM GAS  C:\Users\FRANKL~1\AppData\Local\Temp\ccLkvCvD.s 			page 164


 7197 059d 01       		.uleb128 0x1
 7198 059e 51       		.byte	0x51
 7199 059f 02       		.uleb128 0x2
 7200 05a0 77       		.byte	0x77
 7201 05a1 00       		.sleb128 0
 7202 05a2 00       		.byte	0
 7203 05a3 1A       		.uleb128 0x1a
 7204 05a4 3A000000 		.4byte	.LVL59
 7205 05a8 A4360000 		.4byte	0x36a4
 7206 05ac 1B       		.uleb128 0x1b
 7207 05ad 01       		.uleb128 0x1
 7208 05ae 50       		.byte	0x50
 7209 05af 02       		.uleb128 0x2
 7210 05b0 77       		.byte	0x77
 7211 05b1 00       		.sleb128 0
 7212 05b2 00       		.byte	0
 7213 05b3 00       		.byte	0
 7214 05b4 00       		.byte	0
 7215 05b5 21       		.uleb128 0x21
 7216 05b6 4A030000 		.4byte	.LASF50
 7217 05ba 02       		.byte	0x2
 7218 05bb 38       		.byte	0x38
 7219 05bc 00000000 		.4byte	.LFB70
 7220 05c0 32000000 		.4byte	.LFE70-.LFB70
 7221 05c4 01       		.uleb128 0x1
 7222 05c5 9C       		.byte	0x9c
 7223 05c6 0A060000 		.4byte	0x60a
 7224 05ca 22       		.uleb128 0x22
 7225 05cb 970E0000 		.4byte	.LASF51
 7226 05cf 02       		.byte	0x2
 7227 05d0 38       		.byte	0x38
 7228 05d1 0A060000 		.4byte	0x60a
 7229 05d5 01       		.uleb128 0x1
 7230 05d6 50       		.byte	0x50
 7231 05d7 15       		.uleb128 0x15
 7232 05d8 0A000000 		.4byte	.LBB10
 7233 05dc 16000000 		.4byte	.LBE10-.LBB10
 7234 05e0 F2050000 		.4byte	0x5f2
 7235 05e4 20       		.uleb128 0x20
 7236 05e5 6900     		.ascii	"i\000"
 7237 05e7 02       		.byte	0x2
 7238 05e8 3C       		.byte	0x3c
 7239 05e9 C1000000 		.4byte	0xc1
 7240 05ed 4F020000 		.4byte	.LLST15
 7241 05f1 00       		.byte	0
 7242 05f2 19       		.uleb128 0x19
 7243 05f3 20000000 		.4byte	.LBB11
 7244 05f7 10000000 		.4byte	.LBE11-.LBB11
 7245 05fb 20       		.uleb128 0x20
 7246 05fc 6900     		.ascii	"i\000"
 7247 05fe 02       		.byte	0x2
 7248 05ff 3F       		.byte	0x3f
 7249 0600 C1000000 		.4byte	0xc1
 7250 0604 79020000 		.4byte	.LLST16
 7251 0608 00       		.byte	0
 7252 0609 00       		.byte	0
 7253 060a 05       		.uleb128 0x5
ARM GAS  C:\Users\FRANKL~1\AppData\Local\Temp\ccLkvCvD.s 			page 165


 7254 060b 04       		.byte	0x4
 7255 060c 70010000 		.4byte	0x170
 7256 0610 23       		.uleb128 0x23
 7257 0611 BE0B0000 		.4byte	.LASF52
 7258 0615 02       		.byte	0x2
 7259 0616 44       		.byte	0x44
 7260 0617 00000000 		.4byte	.LFB71
 7261 061b 90010000 		.4byte	.LFE71-.LFB71
 7262 061f 01       		.uleb128 0x1
 7263 0620 9C       		.byte	0x9c
 7264 0621 5E080000 		.4byte	0x85e
 7265 0625 1E       		.uleb128 0x1e
 7266 0626 4D070000 		.4byte	.LASF53
 7267 062a 02       		.byte	0x2
 7268 062b 44       		.byte	0x44
 7269 062c B5000000 		.4byte	0xb5
 7270 0630 97020000 		.4byte	.LLST17
 7271 0634 11       		.uleb128 0x11
 7272 0635 970E0000 		.4byte	.LASF51
 7273 0639 02       		.byte	0x2
 7274 063a 49       		.byte	0x49
 7275 063b 0A060000 		.4byte	0x60a
 7276 063f B8020000 		.4byte	.LLST18
 7277 0643 15       		.uleb128 0x15
 7278 0644 44000000 		.4byte	.LBB12
 7279 0648 76000000 		.4byte	.LBE12-.LBB12
 7280 064c B5060000 		.4byte	0x6b5
 7281 0650 20       		.uleb128 0x20
 7282 0651 6900     		.ascii	"i\000"
 7283 0653 02       		.byte	0x2
 7284 0654 4D       		.byte	0x4d
 7285 0655 CD000000 		.4byte	0xcd
 7286 0659 EC020000 		.4byte	.LLST19
 7287 065d 12       		.uleb128 0x12
 7288 065e 4C000000 		.4byte	.LVL82
 7289 0662 AF360000 		.4byte	0x36af
 7290 0666 1C       		.uleb128 0x1c
 7291 0667 8A000000 		.4byte	.LVL84
 7292 066b A4360000 		.4byte	0x36a4
 7293 066f 7A060000 		.4byte	0x67a
 7294 0673 1B       		.uleb128 0x1b
 7295 0674 01       		.uleb128 0x1
 7296 0675 50       		.byte	0x50
 7297 0676 02       		.uleb128 0x2
 7298 0677 75       		.byte	0x75
 7299 0678 00       		.sleb128 0
 7300 0679 00       		.byte	0
 7301 067a 1C       		.uleb128 0x1c
 7302 067b 92000000 		.4byte	.LVL85
 7303 067f D1030000 		.4byte	0x3d1
 7304 0683 8E060000 		.4byte	0x68e
 7305 0687 1B       		.uleb128 0x1b
 7306 0688 01       		.uleb128 0x1
 7307 0689 50       		.byte	0x50
 7308 068a 02       		.uleb128 0x2
 7309 068b 75       		.byte	0x75
 7310 068c 00       		.sleb128 0
ARM GAS  C:\Users\FRANKL~1\AppData\Local\Temp\ccLkvCvD.s 			page 166


 7311 068d 00       		.byte	0
 7312 068e 1C       		.uleb128 0x1c
 7313 068f 98000000 		.4byte	.LVL86
 7314 0693 BA360000 		.4byte	0x36ba
 7315 0697 A2060000 		.4byte	0x6a2
 7316 069b 1B       		.uleb128 0x1b
 7317 069c 01       		.uleb128 0x1
 7318 069d 50       		.byte	0x50
 7319 069e 02       		.uleb128 0x2
 7320 069f 75       		.byte	0x75
 7321 06a0 00       		.sleb128 0
 7322 06a1 00       		.byte	0
 7323 06a2 12       		.uleb128 0x12
 7324 06a3 9C000000 		.4byte	.LVL87
 7325 06a7 C5360000 		.4byte	0x36c5
 7326 06ab 12       		.uleb128 0x12
 7327 06ac A0000000 		.4byte	.LVL88
 7328 06b0 D0360000 		.4byte	0x36d0
 7329 06b4 00       		.byte	0
 7330 06b5 1C       		.uleb128 0x1c
 7331 06b6 16000000 		.4byte	.LVL74
 7332 06ba DB360000 		.4byte	0x36db
 7333 06be D8060000 		.4byte	0x6d8
 7334 06c2 1B       		.uleb128 0x1b
 7335 06c3 01       		.uleb128 0x1
 7336 06c4 50       		.byte	0x50
 7337 06c5 02       		.uleb128 0x2
 7338 06c6 75       		.byte	0x75
 7339 06c7 00       		.sleb128 0
 7340 06c8 1B       		.uleb128 0x1b
 7341 06c9 01       		.uleb128 0x1
 7342 06ca 51       		.byte	0x51
 7343 06cb 05       		.uleb128 0x5
 7344 06cc 03       		.byte	0x3
 7345 06cd 2C000000 		.4byte	.LC5
 7346 06d1 1B       		.uleb128 0x1b
 7347 06d2 01       		.uleb128 0x1
 7348 06d3 52       		.byte	0x52
 7349 06d4 02       		.uleb128 0x2
 7350 06d5 78       		.byte	0x78
 7351 06d6 00       		.sleb128 0
 7352 06d7 00       		.byte	0
 7353 06d8 1C       		.uleb128 0x1c
 7354 06d9 1C000000 		.4byte	.LVL75
 7355 06dd A4360000 		.4byte	0x36a4
 7356 06e1 EC060000 		.4byte	0x6ec
 7357 06e5 1B       		.uleb128 0x1b
 7358 06e6 01       		.uleb128 0x1
 7359 06e7 50       		.byte	0x50
 7360 06e8 02       		.uleb128 0x2
 7361 06e9 75       		.byte	0x75
 7362 06ea 00       		.sleb128 0
 7363 06eb 00       		.byte	0
 7364 06ec 1C       		.uleb128 0x1c
 7365 06ed 24000000 		.4byte	.LVL76
 7366 06f1 D1030000 		.4byte	0x3d1
 7367 06f5 00070000 		.4byte	0x700
ARM GAS  C:\Users\FRANKL~1\AppData\Local\Temp\ccLkvCvD.s 			page 167


 7368 06f9 1B       		.uleb128 0x1b
 7369 06fa 01       		.uleb128 0x1
 7370 06fb 50       		.byte	0x50
 7371 06fc 02       		.uleb128 0x2
 7372 06fd 75       		.byte	0x75
 7373 06fe 00       		.sleb128 0
 7374 06ff 00       		.byte	0
 7375 0700 1C       		.uleb128 0x1c
 7376 0701 2A000000 		.4byte	.LVL77
 7377 0705 BA360000 		.4byte	0x36ba
 7378 0709 14070000 		.4byte	0x714
 7379 070d 1B       		.uleb128 0x1b
 7380 070e 01       		.uleb128 0x1
 7381 070f 50       		.byte	0x50
 7382 0710 02       		.uleb128 0x2
 7383 0711 75       		.byte	0x75
 7384 0712 00       		.sleb128 0
 7385 0713 00       		.byte	0
 7386 0714 12       		.uleb128 0x12
 7387 0715 2E000000 		.4byte	.LVL78
 7388 0719 E6360000 		.4byte	0x36e6
 7389 071d 1C       		.uleb128 0x1c
 7390 071e 44000000 		.4byte	.LVL80
 7391 0722 F1360000 		.4byte	0x36f1
 7392 0726 3C070000 		.4byte	0x73c
 7393 072a 1B       		.uleb128 0x1b
 7394 072b 01       		.uleb128 0x1
 7395 072c 51       		.byte	0x51
 7396 072d 02       		.uleb128 0x2
 7397 072e 74       		.byte	0x74
 7398 072f 00       		.sleb128 0
 7399 0730 1B       		.uleb128 0x1b
 7400 0731 01       		.uleb128 0x1
 7401 0732 52       		.byte	0x52
 7402 0733 02       		.uleb128 0x2
 7403 0734 08       		.byte	0x8
 7404 0735 7F       		.byte	0x7f
 7405 0736 1B       		.uleb128 0x1b
 7406 0737 01       		.uleb128 0x1
 7407 0738 53       		.byte	0x53
 7408 0739 01       		.uleb128 0x1
 7409 073a 30       		.byte	0x30
 7410 073b 00       		.byte	0
 7411 073c 12       		.uleb128 0x12
 7412 073d BE000000 		.4byte	.LVL92
 7413 0741 AF360000 		.4byte	0x36af
 7414 0745 1C       		.uleb128 0x1c
 7415 0746 E0000000 		.4byte	.LVL94
 7416 074a A4360000 		.4byte	0x36a4
 7417 074e 59070000 		.4byte	0x759
 7418 0752 1B       		.uleb128 0x1b
 7419 0753 01       		.uleb128 0x1
 7420 0754 50       		.byte	0x50
 7421 0755 02       		.uleb128 0x2
 7422 0756 75       		.byte	0x75
 7423 0757 00       		.sleb128 0
 7424 0758 00       		.byte	0
ARM GAS  C:\Users\FRANKL~1\AppData\Local\Temp\ccLkvCvD.s 			page 168


 7425 0759 1C       		.uleb128 0x1c
 7426 075a E8000000 		.4byte	.LVL95
 7427 075e D1030000 		.4byte	0x3d1
 7428 0762 6D070000 		.4byte	0x76d
 7429 0766 1B       		.uleb128 0x1b
 7430 0767 01       		.uleb128 0x1
 7431 0768 50       		.byte	0x50
 7432 0769 02       		.uleb128 0x2
 7433 076a 75       		.byte	0x75
 7434 076b 00       		.sleb128 0
 7435 076c 00       		.byte	0
 7436 076d 1C       		.uleb128 0x1c
 7437 076e EE000000 		.4byte	.LVL96
 7438 0772 BA360000 		.4byte	0x36ba
 7439 0776 81070000 		.4byte	0x781
 7440 077a 1B       		.uleb128 0x1b
 7441 077b 01       		.uleb128 0x1
 7442 077c 50       		.byte	0x50
 7443 077d 02       		.uleb128 0x2
 7444 077e 75       		.byte	0x75
 7445 077f 00       		.sleb128 0
 7446 0780 00       		.byte	0
 7447 0781 12       		.uleb128 0x12
 7448 0782 F2000000 		.4byte	.LVL97
 7449 0786 AF360000 		.4byte	0x36af
 7450 078a 1C       		.uleb128 0x1c
 7451 078b 0A010000 		.4byte	.LVL98
 7452 078f A4360000 		.4byte	0x36a4
 7453 0793 9E070000 		.4byte	0x79e
 7454 0797 1B       		.uleb128 0x1b
 7455 0798 01       		.uleb128 0x1
 7456 0799 50       		.byte	0x50
 7457 079a 02       		.uleb128 0x2
 7458 079b 75       		.byte	0x75
 7459 079c 00       		.sleb128 0
 7460 079d 00       		.byte	0
 7461 079e 1C       		.uleb128 0x1c
 7462 079f 12010000 		.4byte	.LVL99
 7463 07a3 D1030000 		.4byte	0x3d1
 7464 07a7 B2070000 		.4byte	0x7b2
 7465 07ab 1B       		.uleb128 0x1b
 7466 07ac 01       		.uleb128 0x1
 7467 07ad 50       		.byte	0x50
 7468 07ae 02       		.uleb128 0x2
 7469 07af 75       		.byte	0x75
 7470 07b0 00       		.sleb128 0
 7471 07b1 00       		.byte	0
 7472 07b2 1C       		.uleb128 0x1c
 7473 07b3 18010000 		.4byte	.LVL100
 7474 07b7 BA360000 		.4byte	0x36ba
 7475 07bb C6070000 		.4byte	0x7c6
 7476 07bf 1B       		.uleb128 0x1b
 7477 07c0 01       		.uleb128 0x1
 7478 07c1 50       		.byte	0x50
 7479 07c2 02       		.uleb128 0x2
 7480 07c3 75       		.byte	0x75
 7481 07c4 00       		.sleb128 0
ARM GAS  C:\Users\FRANKL~1\AppData\Local\Temp\ccLkvCvD.s 			page 169


 7482 07c5 00       		.byte	0
 7483 07c6 1C       		.uleb128 0x1c
 7484 07c7 2A010000 		.4byte	.LVL101
 7485 07cb A4360000 		.4byte	0x36a4
 7486 07cf DA070000 		.4byte	0x7da
 7487 07d3 1B       		.uleb128 0x1b
 7488 07d4 01       		.uleb128 0x1
 7489 07d5 50       		.byte	0x50
 7490 07d6 02       		.uleb128 0x2
 7491 07d7 74       		.byte	0x74
 7492 07d8 00       		.sleb128 0
 7493 07d9 00       		.byte	0
 7494 07da 1C       		.uleb128 0x1c
 7495 07db 32010000 		.4byte	.LVL102
 7496 07df D1030000 		.4byte	0x3d1
 7497 07e3 EE070000 		.4byte	0x7ee
 7498 07e7 1B       		.uleb128 0x1b
 7499 07e8 01       		.uleb128 0x1
 7500 07e9 50       		.byte	0x50
 7501 07ea 02       		.uleb128 0x2
 7502 07eb 74       		.byte	0x74
 7503 07ec 00       		.sleb128 0
 7504 07ed 00       		.byte	0
 7505 07ee 1C       		.uleb128 0x1c
 7506 07ef 38010000 		.4byte	.LVL103
 7507 07f3 BA360000 		.4byte	0x36ba
 7508 07f7 02080000 		.4byte	0x802
 7509 07fb 1B       		.uleb128 0x1b
 7510 07fc 01       		.uleb128 0x1
 7511 07fd 50       		.byte	0x50
 7512 07fe 02       		.uleb128 0x2
 7513 07ff 74       		.byte	0x74
 7514 0800 00       		.sleb128 0
 7515 0801 00       		.byte	0
 7516 0802 1C       		.uleb128 0x1c
 7517 0803 44010000 		.4byte	.LVL104
 7518 0807 DB360000 		.4byte	0x36db
 7519 080b 25080000 		.4byte	0x825
 7520 080f 1B       		.uleb128 0x1b
 7521 0810 01       		.uleb128 0x1
 7522 0811 50       		.byte	0x50
 7523 0812 02       		.uleb128 0x2
 7524 0813 74       		.byte	0x74
 7525 0814 00       		.sleb128 0
 7526 0815 1B       		.uleb128 0x1b
 7527 0816 01       		.uleb128 0x1
 7528 0817 51       		.byte	0x51
 7529 0818 05       		.uleb128 0x5
 7530 0819 03       		.byte	0x3
 7531 081a 90000000 		.4byte	.LC10
 7532 081e 1B       		.uleb128 0x1b
 7533 081f 01       		.uleb128 0x1
 7534 0820 52       		.byte	0x52
 7535 0821 02       		.uleb128 0x2
 7536 0822 78       		.byte	0x78
 7537 0823 00       		.sleb128 0
 7538 0824 00       		.byte	0
ARM GAS  C:\Users\FRANKL~1\AppData\Local\Temp\ccLkvCvD.s 			page 170


 7539 0825 1C       		.uleb128 0x1c
 7540 0826 4A010000 		.4byte	.LVL105
 7541 082a A4360000 		.4byte	0x36a4
 7542 082e 39080000 		.4byte	0x839
 7543 0832 1B       		.uleb128 0x1b
 7544 0833 01       		.uleb128 0x1
 7545 0834 50       		.byte	0x50
 7546 0835 02       		.uleb128 0x2
 7547 0836 74       		.byte	0x74
 7548 0837 00       		.sleb128 0
 7549 0838 00       		.byte	0
 7550 0839 1C       		.uleb128 0x1c
 7551 083a 52010000 		.4byte	.LVL106
 7552 083e D1030000 		.4byte	0x3d1
 7553 0842 4D080000 		.4byte	0x84d
 7554 0846 1B       		.uleb128 0x1b
 7555 0847 01       		.uleb128 0x1
 7556 0848 50       		.byte	0x50
 7557 0849 02       		.uleb128 0x2
 7558 084a 74       		.byte	0x74
 7559 084b 00       		.sleb128 0
 7560 084c 00       		.byte	0
 7561 084d 1A       		.uleb128 0x1a
 7562 084e 58010000 		.4byte	.LVL107
 7563 0852 BA360000 		.4byte	0x36ba
 7564 0856 1B       		.uleb128 0x1b
 7565 0857 01       		.uleb128 0x1
 7566 0858 50       		.byte	0x50
 7567 0859 02       		.uleb128 0x2
 7568 085a 74       		.byte	0x74
 7569 085b 00       		.sleb128 0
 7570 085c 00       		.byte	0
 7571 085d 00       		.byte	0
 7572 085e 10       		.uleb128 0x10
 7573 085f 1D030000 		.4byte	.LASF55
 7574 0863 02       		.byte	0x2
 7575 0864 78       		.byte	0x78
 7576 0865 00000000 		.4byte	.LFB72
 7577 0869 3C000000 		.4byte	.LFE72-.LFB72
 7578 086d 01       		.uleb128 0x1
 7579 086e 9C       		.byte	0x9c
 7580 086f A6080000 		.4byte	0x8a6
 7581 0873 19       		.uleb128 0x19
 7582 0874 02000000 		.4byte	.LBB13
 7583 0878 18000000 		.4byte	.LBE13-.LBB13
 7584 087c 20       		.uleb128 0x20
 7585 087d 6900     		.ascii	"i\000"
 7586 087f 02       		.byte	0x2
 7587 0880 79       		.byte	0x79
 7588 0881 B5000000 		.4byte	0xb5
 7589 0885 0B030000 		.4byte	.LLST20
 7590 0889 1A       		.uleb128 0x1a
 7591 088a 12000000 		.4byte	.LVL111
 7592 088e B5050000 		.4byte	0x5b5
 7593 0892 1B       		.uleb128 0x1b
 7594 0893 01       		.uleb128 0x1
 7595 0894 50       		.byte	0x50
ARM GAS  C:\Users\FRANKL~1\AppData\Local\Temp\ccLkvCvD.s 			page 171


 7596 0895 0D       		.uleb128 0xd
 7597 0896 74       		.byte	0x74
 7598 0897 00       		.sleb128 0
 7599 0898 38       		.byte	0x38
 7600 0899 24       		.byte	0x24
 7601 089a 74       		.byte	0x74
 7602 089b 00       		.sleb128 0
 7603 089c 1C       		.byte	0x1c
 7604 089d 03       		.byte	0x3
 7605 089e 00000000 		.4byte	selectors
 7606 08a2 22       		.byte	0x22
 7607 08a3 00       		.byte	0
 7608 08a4 00       		.byte	0
 7609 08a5 00       		.byte	0
 7610 08a6 21       		.uleb128 0x21
 7611 08a7 280E0000 		.4byte	.LASF56
 7612 08ab 02       		.byte	0x2
 7613 08ac 81       		.byte	0x81
 7614 08ad 00000000 		.4byte	.LFB73
 7615 08b1 2C000000 		.4byte	.LFE73-.LFB73
 7616 08b5 01       		.uleb128 0x1
 7617 08b6 9C       		.byte	0x9c
 7618 08b7 E3080000 		.4byte	0x8e3
 7619 08bb 1E       		.uleb128 0x1e
 7620 08bc B8050000 		.4byte	.LASF57
 7621 08c0 02       		.byte	0x2
 7622 08c1 81       		.byte	0x81
 7623 08c2 B5000000 		.4byte	0xb5
 7624 08c6 35030000 		.4byte	.LLST21
 7625 08ca 1E       		.uleb128 0x1e
 7626 08cb 00000000 		.4byte	.LASF58
 7627 08cf 02       		.byte	0x2
 7628 08d0 81       		.byte	0x81
 7629 08d1 B5000000 		.4byte	0xb5
 7630 08d5 61030000 		.4byte	.LLST22
 7631 08d9 12       		.uleb128 0x12
 7632 08da 24000000 		.4byte	.LVL120
 7633 08de 10060000 		.4byte	0x610
 7634 08e2 00       		.byte	0
 7635 08e3 21       		.uleb128 0x21
 7636 08e4 DB0C0000 		.4byte	.LASF59
 7637 08e8 02       		.byte	0x2
 7638 08e9 8C       		.byte	0x8c
 7639 08ea 00000000 		.4byte	.LFB74
 7640 08ee 32000000 		.4byte	.LFE74-.LFB74
 7641 08f2 01       		.uleb128 0x1
 7642 08f3 9C       		.byte	0x9c
 7643 08f4 2F090000 		.4byte	0x92f
 7644 08f8 1E       		.uleb128 0x1e
 7645 08f9 D60A0000 		.4byte	.LASF60
 7646 08fd 02       		.byte	0x2
 7647 08fe 8C       		.byte	0x8c
 7648 08ff B5000000 		.4byte	0xb5
 7649 0903 91030000 		.4byte	.LLST23
 7650 0907 1E       		.uleb128 0x1e
 7651 0908 00000000 		.4byte	.LASF58
 7652 090c 02       		.byte	0x2
ARM GAS  C:\Users\FRANKL~1\AppData\Local\Temp\ccLkvCvD.s 			page 172


 7653 090d 8C       		.byte	0x8c
 7654 090e B5000000 		.4byte	0xb5
 7655 0912 C8030000 		.4byte	.LLST24
 7656 0916 11       		.uleb128 0x11
 7657 0917 FA080000 		.4byte	.LASF61
 7658 091b 02       		.byte	0x2
 7659 091c 93       		.byte	0x93
 7660 091d B5000000 		.4byte	0xb5
 7661 0921 05040000 		.4byte	.LLST25
 7662 0925 12       		.uleb128 0x12
 7663 0926 2E000000 		.4byte	.LVL129
 7664 092a A6080000 		.4byte	0x8a6
 7665 092e 00       		.byte	0
 7666 092f 21       		.uleb128 0x21
 7667 0930 540A0000 		.4byte	.LASF62
 7668 0934 02       		.byte	0x2
 7669 0935 9E       		.byte	0x9e
 7670 0936 00000000 		.4byte	.LFB75
 7671 093a 40000000 		.4byte	.LFE75-.LFB75
 7672 093e 01       		.uleb128 0x1
 7673 093f 9C       		.byte	0x9c
 7674 0940 7B090000 		.4byte	0x97b
 7675 0944 1E       		.uleb128 0x1e
 7676 0945 D60A0000 		.4byte	.LASF60
 7677 0949 02       		.byte	0x2
 7678 094a 9E       		.byte	0x9e
 7679 094b B5000000 		.4byte	0xb5
 7680 094f 3D040000 		.4byte	.LLST26
 7681 0953 1E       		.uleb128 0x1e
 7682 0954 00000000 		.4byte	.LASF58
 7683 0958 02       		.byte	0x2
 7684 0959 9E       		.byte	0x9e
 7685 095a B5000000 		.4byte	0xb5
 7686 095e 69040000 		.4byte	.LLST27
 7687 0962 11       		.uleb128 0x11
 7688 0963 FA080000 		.4byte	.LASF61
 7689 0967 02       		.byte	0x2
 7690 0968 A5       		.byte	0xa5
 7691 0969 B5000000 		.4byte	0xb5
 7692 096d 99040000 		.4byte	.LLST28
 7693 0971 12       		.uleb128 0x12
 7694 0972 38000000 		.4byte	.LVL141
 7695 0976 10060000 		.4byte	0x610
 7696 097a 00       		.byte	0
 7697 097b 21       		.uleb128 0x21
 7698 097c 17080000 		.4byte	.LASF63
 7699 0980 02       		.byte	0x2
 7700 0981 B2       		.byte	0xb2
 7701 0982 00000000 		.4byte	.LFB76
 7702 0986 40000000 		.4byte	.LFE76-.LFB76
 7703 098a 01       		.uleb128 0x1
 7704 098b 9C       		.byte	0x9c
 7705 098c E2090000 		.4byte	0x9e2
 7706 0990 1E       		.uleb128 0x1e
 7707 0991 D60A0000 		.4byte	.LASF60
 7708 0995 02       		.byte	0x2
 7709 0996 B2       		.byte	0xb2
ARM GAS  C:\Users\FRANKL~1\AppData\Local\Temp\ccLkvCvD.s 			page 173


 7710 0997 B5000000 		.4byte	0xb5
 7711 099b D1040000 		.4byte	.LLST29
 7712 099f 19       		.uleb128 0x19
 7713 09a0 06000000 		.4byte	.LBB14
 7714 09a4 34000000 		.4byte	.LBE14-.LBB14
 7715 09a8 11       		.uleb128 0x11
 7716 09a9 00000000 		.4byte	.LASF58
 7717 09ad 02       		.byte	0x2
 7718 09ae B5       		.byte	0xb5
 7719 09af B5000000 		.4byte	0xb5
 7720 09b3 FD040000 		.4byte	.LLST30
 7721 09b7 19       		.uleb128 0x19
 7722 09b8 0A000000 		.4byte	.LBB15
 7723 09bc 28000000 		.4byte	.LBE15-.LBB15
 7724 09c0 11       		.uleb128 0x11
 7725 09c1 FA080000 		.4byte	.LASF61
 7726 09c5 02       		.byte	0x2
 7727 09c6 B7       		.byte	0xb7
 7728 09c7 B5000000 		.4byte	0xb5
 7729 09cb 27050000 		.4byte	.LLST31
 7730 09cf 1A       		.uleb128 0x1a
 7731 09d0 32000000 		.4byte	.LVL150
 7732 09d4 10060000 		.4byte	0x610
 7733 09d8 1B       		.uleb128 0x1b
 7734 09d9 01       		.uleb128 0x1
 7735 09da 50       		.byte	0x50
 7736 09db 02       		.uleb128 0x2
 7737 09dc 74       		.byte	0x74
 7738 09dd 00       		.sleb128 0
 7739 09de 00       		.byte	0
 7740 09df 00       		.byte	0
 7741 09e0 00       		.byte	0
 7742 09e1 00       		.byte	0
 7743 09e2 10       		.uleb128 0x10
 7744 09e3 9B010000 		.4byte	.LASF64
 7745 09e7 02       		.byte	0x2
 7746 09e8 C5       		.byte	0xc5
 7747 09e9 00000000 		.4byte	.LFB77
 7748 09ed 34000000 		.4byte	.LFE77-.LFB77
 7749 09f1 01       		.uleb128 0x1
 7750 09f2 9C       		.byte	0x9c
 7751 09f3 3A0A0000 		.4byte	0xa3a
 7752 09f7 19       		.uleb128 0x19
 7753 09f8 02000000 		.4byte	.LBB16
 7754 09fc 2C000000 		.4byte	.LBE16-.LBB16
 7755 0a00 11       		.uleb128 0x11
 7756 0a01 00000000 		.4byte	.LASF58
 7757 0a05 02       		.byte	0x2
 7758 0a06 C6       		.byte	0xc6
 7759 0a07 B5000000 		.4byte	0xb5
 7760 0a0b 5F050000 		.4byte	.LLST32
 7761 0a0f 1F       		.uleb128 0x1f
 7762 0a10 18000000 		.4byte	.Ldebug_ranges0+0x18
 7763 0a14 280A0000 		.4byte	0xa28
 7764 0a18 11       		.uleb128 0x11
 7765 0a19 D60A0000 		.4byte	.LASF60
 7766 0a1d 02       		.byte	0x2
ARM GAS  C:\Users\FRANKL~1\AppData\Local\Temp\ccLkvCvD.s 			page 174


 7767 0a1e C7       		.byte	0xc7
 7768 0a1f B5000000 		.4byte	0xb5
 7769 0a23 89050000 		.4byte	.LLST33
 7770 0a27 00       		.byte	0
 7771 0a28 1A       		.uleb128 0x1a
 7772 0a29 26000000 		.4byte	.LVL160
 7773 0a2d 10060000 		.4byte	0x610
 7774 0a31 1B       		.uleb128 0x1b
 7775 0a32 01       		.uleb128 0x1
 7776 0a33 50       		.byte	0x50
 7777 0a34 02       		.uleb128 0x2
 7778 0a35 74       		.byte	0x74
 7779 0a36 00       		.sleb128 0
 7780 0a37 00       		.byte	0
 7781 0a38 00       		.byte	0
 7782 0a39 00       		.byte	0
 7783 0a3a 21       		.uleb128 0x21
 7784 0a3b 1D090000 		.4byte	.LASF65
 7785 0a3f 02       		.byte	0x2
 7786 0a40 CF       		.byte	0xcf
 7787 0a41 00000000 		.4byte	.LFB78
 7788 0a45 2C000000 		.4byte	.LFE78-.LFB78
 7789 0a49 01       		.uleb128 0x1
 7790 0a4a 9C       		.byte	0x9c
 7791 0a4b 850A0000 		.4byte	0xa85
 7792 0a4f 1E       		.uleb128 0x1e
 7793 0a50 00000000 		.4byte	.LASF58
 7794 0a54 02       		.byte	0x2
 7795 0a55 CF       		.byte	0xcf
 7796 0a56 B5000000 		.4byte	0xb5
 7797 0a5a B2050000 		.4byte	.LLST34
 7798 0a5e 15       		.uleb128 0x15
 7799 0a5f 06000000 		.4byte	.LBB19
 7800 0a63 1A000000 		.4byte	.LBE19-.LBB19
 7801 0a67 7B0A0000 		.4byte	0xa7b
 7802 0a6b 11       		.uleb128 0x11
 7803 0a6c D60A0000 		.4byte	.LASF60
 7804 0a70 02       		.byte	0x2
 7805 0a71 D2       		.byte	0xd2
 7806 0a72 B5000000 		.4byte	0xb5
 7807 0a76 DE050000 		.4byte	.LLST35
 7808 0a7a 00       		.byte	0
 7809 0a7b 12       		.uleb128 0x12
 7810 0a7c 24000000 		.4byte	.LVL170
 7811 0a80 10060000 		.4byte	0x610
 7812 0a84 00       		.byte	0
 7813 0a85 21       		.uleb128 0x21
 7814 0a86 9D000000 		.4byte	.LASF66
 7815 0a8a 02       		.byte	0x2
 7816 0a8b D9       		.byte	0xd9
 7817 0a8c 00000000 		.4byte	.LFB79
 7818 0a90 38000000 		.4byte	.LFE79-.LFB79
 7819 0a94 01       		.uleb128 0x1
 7820 0a95 9C       		.byte	0x9c
 7821 0a96 0A0B0000 		.4byte	0xb0a
 7822 0a9a 1E       		.uleb128 0x1e
 7823 0a9b 00000000 		.4byte	.LASF58
ARM GAS  C:\Users\FRANKL~1\AppData\Local\Temp\ccLkvCvD.s 			page 175


 7824 0a9f 02       		.byte	0x2
 7825 0aa0 D9       		.byte	0xd9
 7826 0aa1 B5000000 		.4byte	0xb5
 7827 0aa5 08060000 		.4byte	.LLST36
 7828 0aa9 1C       		.uleb128 0x1c
 7829 0aaa 18000000 		.4byte	.LVL173
 7830 0aae A6080000 		.4byte	0x8a6
 7831 0ab2 C20A0000 		.4byte	0xac2
 7832 0ab6 1B       		.uleb128 0x1b
 7833 0ab7 01       		.uleb128 0x1
 7834 0ab8 50       		.byte	0x50
 7835 0ab9 02       		.uleb128 0x2
 7836 0aba 08       		.byte	0x8
 7837 0abb 21       		.byte	0x21
 7838 0abc 1B       		.uleb128 0x1b
 7839 0abd 01       		.uleb128 0x1
 7840 0abe 51       		.byte	0x51
 7841 0abf 01       		.uleb128 0x1
 7842 0ac0 31       		.byte	0x31
 7843 0ac1 00       		.byte	0
 7844 0ac2 1C       		.uleb128 0x1c
 7845 0ac3 22000000 		.4byte	.LVL174
 7846 0ac7 A6080000 		.4byte	0x8a6
 7847 0acb DB0A0000 		.4byte	0xadb
 7848 0acf 1B       		.uleb128 0x1b
 7849 0ad0 01       		.uleb128 0x1
 7850 0ad1 50       		.byte	0x50
 7851 0ad2 02       		.uleb128 0x2
 7852 0ad3 08       		.byte	0x8
 7853 0ad4 21       		.byte	0x21
 7854 0ad5 1B       		.uleb128 0x1b
 7855 0ad6 01       		.uleb128 0x1
 7856 0ad7 51       		.byte	0x51
 7857 0ad8 01       		.uleb128 0x1
 7858 0ad9 32       		.byte	0x32
 7859 0ada 00       		.byte	0
 7860 0adb 1C       		.uleb128 0x1c
 7861 0adc 2C000000 		.4byte	.LVL175
 7862 0ae0 A6080000 		.4byte	0x8a6
 7863 0ae4 F40A0000 		.4byte	0xaf4
 7864 0ae8 1B       		.uleb128 0x1b
 7865 0ae9 01       		.uleb128 0x1
 7866 0aea 50       		.byte	0x50
 7867 0aeb 02       		.uleb128 0x2
 7868 0aec 08       		.byte	0x8
 7869 0aed 21       		.byte	0x21
 7870 0aee 1B       		.uleb128 0x1b
 7871 0aef 01       		.uleb128 0x1
 7872 0af0 51       		.byte	0x51
 7873 0af1 01       		.uleb128 0x1
 7874 0af2 33       		.byte	0x33
 7875 0af3 00       		.byte	0
 7876 0af4 1A       		.uleb128 0x1a
 7877 0af5 36000000 		.4byte	.LVL176
 7878 0af9 A6080000 		.4byte	0x8a6
 7879 0afd 1B       		.uleb128 0x1b
 7880 0afe 01       		.uleb128 0x1
ARM GAS  C:\Users\FRANKL~1\AppData\Local\Temp\ccLkvCvD.s 			page 176


 7881 0aff 50       		.byte	0x50
 7882 0b00 02       		.uleb128 0x2
 7883 0b01 08       		.byte	0x8
 7884 0b02 21       		.byte	0x21
 7885 0b03 1B       		.uleb128 0x1b
 7886 0b04 01       		.uleb128 0x1
 7887 0b05 51       		.byte	0x51
 7888 0b06 01       		.uleb128 0x1
 7889 0b07 34       		.byte	0x34
 7890 0b08 00       		.byte	0
 7891 0b09 00       		.byte	0
 7892 0b0a 10       		.uleb128 0x10
 7893 0b0b 87060000 		.4byte	.LASF67
 7894 0b0f 02       		.byte	0x2
 7895 0b10 E3       		.byte	0xe3
 7896 0b11 00000000 		.4byte	.LFB80
 7897 0b15 16000000 		.4byte	.LFE80-.LFB80
 7898 0b19 01       		.uleb128 0x1
 7899 0b1a 9C       		.byte	0x9c
 7900 0b1b 470B0000 		.4byte	0xb47
 7901 0b1f 19       		.uleb128 0x19
 7902 0b20 02000000 		.4byte	.LBB20
 7903 0b24 12000000 		.4byte	.LBE20-.LBB20
 7904 0b28 20       		.uleb128 0x20
 7905 0b29 6900     		.ascii	"i\000"
 7906 0b2b 02       		.byte	0x2
 7907 0b2c E4       		.byte	0xe4
 7908 0b2d B5000000 		.4byte	0xb5
 7909 0b31 29060000 		.4byte	.LLST37
 7910 0b35 1A       		.uleb128 0x1a
 7911 0b36 0C000000 		.4byte	.LVL179
 7912 0b3a 850A0000 		.4byte	0xa85
 7913 0b3e 1B       		.uleb128 0x1b
 7914 0b3f 01       		.uleb128 0x1
 7915 0b40 50       		.byte	0x50
 7916 0b41 02       		.uleb128 0x2
 7917 0b42 74       		.byte	0x74
 7918 0b43 00       		.sleb128 0
 7919 0b44 00       		.byte	0
 7920 0b45 00       		.byte	0
 7921 0b46 00       		.byte	0
 7922 0b47 21       		.uleb128 0x21
 7923 0b48 27000000 		.4byte	.LASF68
 7924 0b4c 02       		.byte	0x2
 7925 0b4d E9       		.byte	0xe9
 7926 0b4e 00000000 		.4byte	.LFB81
 7927 0b52 18000000 		.4byte	.LFE81-.LFB81
 7928 0b56 01       		.uleb128 0x1
 7929 0b57 9C       		.byte	0x9c
 7930 0b58 750B0000 		.4byte	0xb75
 7931 0b5c 1E       		.uleb128 0x1e
 7932 0b5d 480B0000 		.4byte	.LASF69
 7933 0b61 02       		.byte	0x2
 7934 0b62 E9       		.byte	0xe9
 7935 0b63 B5000000 		.4byte	0xb5
 7936 0b67 53060000 		.4byte	.LLST38
 7937 0b6b 12       		.uleb128 0x12
ARM GAS  C:\Users\FRANKL~1\AppData\Local\Temp\ccLkvCvD.s 			page 177


 7938 0b6c 0E000000 		.4byte	.LVL184
 7939 0b70 FC360000 		.4byte	0x36fc
 7940 0b74 00       		.byte	0
 7941 0b75 10       		.uleb128 0x10
 7942 0b76 AB0B0000 		.4byte	.LASF70
 7943 0b7a 02       		.byte	0x2
 7944 0b7b EE       		.byte	0xee
 7945 0b7c 00000000 		.4byte	.LFB82
 7946 0b80 18000000 		.4byte	.LFE82-.LFB82
 7947 0b84 01       		.uleb128 0x1
 7948 0b85 9C       		.byte	0x9c
 7949 0b86 9A0B0000 		.4byte	0xb9a
 7950 0b8a 1A       		.uleb128 0x1a
 7951 0b8b 10000000 		.4byte	.LVL185
 7952 0b8f 470B0000 		.4byte	0xb47
 7953 0b93 1B       		.uleb128 0x1b
 7954 0b94 01       		.uleb128 0x1
 7955 0b95 50       		.byte	0x50
 7956 0b96 01       		.uleb128 0x1
 7957 0b97 30       		.byte	0x30
 7958 0b98 00       		.byte	0
 7959 0b99 00       		.byte	0
 7960 0b9a 10       		.uleb128 0x10
 7961 0b9b 5B060000 		.4byte	.LASF71
 7962 0b9f 02       		.byte	0x2
 7963 0ba0 FC       		.byte	0xfc
 7964 0ba1 00000000 		.4byte	.LFB83
 7965 0ba5 14000000 		.4byte	.LFE83-.LFB83
 7966 0ba9 01       		.uleb128 0x1
 7967 0baa 9C       		.byte	0x9c
 7968 0bab BF0B0000 		.4byte	0xbbf
 7969 0baf 1A       		.uleb128 0x1a
 7970 0bb0 0E000000 		.4byte	.LVL186
 7971 0bb4 470B0000 		.4byte	0xb47
 7972 0bb8 1B       		.uleb128 0x1b
 7973 0bb9 01       		.uleb128 0x1
 7974 0bba 50       		.byte	0x50
 7975 0bbb 01       		.uleb128 0x1
 7976 0bbc 37       		.byte	0x37
 7977 0bbd 00       		.byte	0
 7978 0bbe 00       		.byte	0
 7979 0bbf 24       		.uleb128 0x24
 7980 0bc0 D1010000 		.4byte	.LASF72
 7981 0bc4 02       		.byte	0x2
 7982 0bc5 0B01     		.2byte	0x10b
 7983 0bc7 00000000 		.4byte	.LFB84
 7984 0bcb B6000000 		.4byte	.LFE84-.LFB84
 7985 0bcf 01       		.uleb128 0x1
 7986 0bd0 9C       		.byte	0x9c
 7987 0bd1 820C0000 		.4byte	0xc82
 7988 0bd5 25       		.uleb128 0x25
 7989 0bd6 DC000000 		.4byte	.LASF73
 7990 0bda 02       		.byte	0x2
 7991 0bdb 0B01     		.2byte	0x10b
 7992 0bdd 820C0000 		.4byte	0xc82
 7993 0be1 83060000 		.4byte	.LLST39
 7994 0be5 25       		.uleb128 0x25
ARM GAS  C:\Users\FRANKL~1\AppData\Local\Temp\ccLkvCvD.s 			page 178


 7995 0be6 C5080000 		.4byte	.LASF74
 7996 0bea 02       		.byte	0x2
 7997 0beb 0B01     		.2byte	0x10b
 7998 0bed 820C0000 		.4byte	0xc82
 7999 0bf1 AE060000 		.4byte	.LLST40
 8000 0bf5 25       		.uleb128 0x25
 8001 0bf6 6A070000 		.4byte	.LASF75
 8002 0bfa 02       		.byte	0x2
 8003 0bfb 0B01     		.2byte	0x10b
 8004 0bfd CD000000 		.4byte	0xcd
 8005 0c01 CD060000 		.4byte	.LLST41
 8006 0c05 17       		.uleb128 0x17
 8007 0c06 880B0000 		.4byte	.LASF76
 8008 0c0a 02       		.byte	0x2
 8009 0c0b 0C01     		.2byte	0x10c
 8010 0c0d F1000000 		.4byte	0xf1
 8011 0c11 EB060000 		.4byte	.LLST42
 8012 0c15 17       		.uleb128 0x17
 8013 0c16 1A050000 		.4byte	.LASF77
 8014 0c1a 02       		.byte	0x2
 8015 0c1b 0D01     		.2byte	0x10d
 8016 0c1d F1000000 		.4byte	0xf1
 8017 0c21 20070000 		.4byte	.LLST43
 8018 0c25 26       		.uleb128 0x26
 8019 0c26 30000000 		.4byte	.Ldebug_ranges0+0x30
 8020 0c2a 18       		.uleb128 0x18
 8021 0c2b 6900     		.ascii	"i\000"
 8022 0c2d 02       		.byte	0x2
 8023 0c2e 0F01     		.2byte	0x10f
 8024 0c30 CD000000 		.4byte	0xcd
 8025 0c34 55070000 		.4byte	.LLST44
 8026 0c38 19       		.uleb128 0x19
 8027 0c39 16000000 		.4byte	.LBB22
 8028 0c3d 8A000000 		.4byte	.LBE22-.LBB22
 8029 0c41 17       		.uleb128 0x17
 8030 0c42 21040000 		.4byte	.LASF78
 8031 0c46 02       		.byte	0x2
 8032 0c47 1301     		.2byte	0x113
 8033 0c49 F1000000 		.4byte	0xf1
 8034 0c4d 74070000 		.4byte	.LLST45
 8035 0c51 12       		.uleb128 0x12
 8036 0c52 1A000000 		.4byte	.LVL190
 8037 0c56 07370000 		.4byte	0x3707
 8038 0c5a 1C       		.uleb128 0x1c
 8039 0c5b 20000000 		.4byte	.LVL191
 8040 0c5f 12370000 		.4byte	0x3712
 8041 0c63 6D0C0000 		.4byte	0xc6d
 8042 0c67 1B       		.uleb128 0x1b
 8043 0c68 01       		.uleb128 0x1
 8044 0c69 50       		.byte	0x50
 8045 0c6a 01       		.uleb128 0x1
 8046 0c6b 31       		.byte	0x31
 8047 0c6c 00       		.byte	0
 8048 0c6d 12       		.uleb128 0x12
 8049 0c6e 28000000 		.4byte	.LVL192
 8050 0c72 1D370000 		.4byte	0x371d
 8051 0c76 12       		.uleb128 0x12
ARM GAS  C:\Users\FRANKL~1\AppData\Local\Temp\ccLkvCvD.s 			page 179


 8052 0c77 2C000000 		.4byte	.LVL193
 8053 0c7b 28370000 		.4byte	0x3728
 8054 0c7f 00       		.byte	0
 8055 0c80 00       		.byte	0
 8056 0c81 00       		.byte	0
 8057 0c82 05       		.uleb128 0x5
 8058 0c83 04       		.byte	0x4
 8059 0c84 F1000000 		.4byte	0xf1
 8060 0c88 14       		.uleb128 0x14
 8061 0c89 38000000 		.4byte	.LASF79
 8062 0c8d 02       		.byte	0x2
 8063 0c8e 1D01     		.2byte	0x11d
 8064 0c90 00000000 		.4byte	.LFB85
 8065 0c94 54000000 		.4byte	.LFE85-.LFB85
 8066 0c98 01       		.uleb128 0x1
 8067 0c99 9C       		.byte	0x9c
 8068 0c9a 1B0D0000 		.4byte	0xd1b
 8069 0c9e 25       		.uleb128 0x25
 8070 0c9f 6A070000 		.4byte	.LASF75
 8071 0ca3 02       		.byte	0x2
 8072 0ca4 1D01     		.2byte	0x11d
 8073 0ca6 CD000000 		.4byte	0xcd
 8074 0caa 92070000 		.4byte	.LLST46
 8075 0cae 16       		.uleb128 0x16
 8076 0caf E3050000 		.4byte	.LASF80
 8077 0cb3 02       		.byte	0x2
 8078 0cb4 1E01     		.2byte	0x11e
 8079 0cb6 F1000000 		.4byte	0xf1
 8080 0cba 02       		.uleb128 0x2
 8081 0cbb 91       		.byte	0x91
 8082 0cbc 74       		.sleb128 -12
 8083 0cbd 16       		.uleb128 0x16
 8084 0cbe B2000000 		.4byte	.LASF81
 8085 0cc2 02       		.byte	0x2
 8086 0cc3 1F01     		.2byte	0x11f
 8087 0cc5 F1000000 		.4byte	0xf1
 8088 0cc9 02       		.uleb128 0x2
 8089 0cca 91       		.byte	0x91
 8090 0ccb 70       		.sleb128 -16
 8091 0ccc 1C       		.uleb128 0x1c
 8092 0ccd 16000000 		.4byte	.LVL220
 8093 0cd1 BF0B0000 		.4byte	0xbbf
 8094 0cd5 ED0C0000 		.4byte	0xced
 8095 0cd9 1B       		.uleb128 0x1b
 8096 0cda 01       		.uleb128 0x1
 8097 0cdb 50       		.byte	0x50
 8098 0cdc 02       		.uleb128 0x2
 8099 0cdd 91       		.byte	0x91
 8100 0cde 74       		.sleb128 -12
 8101 0cdf 1B       		.uleb128 0x1b
 8102 0ce0 01       		.uleb128 0x1
 8103 0ce1 51       		.byte	0x51
 8104 0ce2 02       		.uleb128 0x2
 8105 0ce3 91       		.byte	0x91
 8106 0ce4 70       		.sleb128 -16
 8107 0ce5 1B       		.uleb128 0x1b
 8108 0ce6 01       		.uleb128 0x1
ARM GAS  C:\Users\FRANKL~1\AppData\Local\Temp\ccLkvCvD.s 			page 180


 8109 0ce7 52       		.byte	0x52
 8110 0ce8 03       		.uleb128 0x3
 8111 0ce9 F3       		.byte	0xf3
 8112 0cea 01       		.uleb128 0x1
 8113 0ceb 50       		.byte	0x50
 8114 0cec 00       		.byte	0
 8115 0ced 12       		.uleb128 0x12
 8116 0cee 2A000000 		.4byte	.LVL221
 8117 0cf2 750B0000 		.4byte	0xb75
 8118 0cf6 12       		.uleb128 0x12
 8119 0cf7 3E000000 		.4byte	.LVL222
 8120 0cfb 9A0B0000 		.4byte	0xb9a
 8121 0cff 1A       		.uleb128 0x1a
 8122 0d00 48000000 		.4byte	.LVL223
 8123 0d04 BF0B0000 		.4byte	0xbbf
 8124 0d08 1B       		.uleb128 0x1b
 8125 0d09 01       		.uleb128 0x1
 8126 0d0a 50       		.byte	0x50
 8127 0d0b 02       		.uleb128 0x2
 8128 0d0c 91       		.byte	0x91
 8129 0d0d 74       		.sleb128 -12
 8130 0d0e 1B       		.uleb128 0x1b
 8131 0d0f 01       		.uleb128 0x1
 8132 0d10 51       		.byte	0x51
 8133 0d11 02       		.uleb128 0x2
 8134 0d12 7D       		.byte	0x7d
 8135 0d13 00       		.sleb128 0
 8136 0d14 1B       		.uleb128 0x1b
 8137 0d15 01       		.uleb128 0x1
 8138 0d16 52       		.byte	0x52
 8139 0d17 01       		.uleb128 0x1
 8140 0d18 35       		.byte	0x35
 8141 0d19 00       		.byte	0
 8142 0d1a 00       		.byte	0
 8143 0d1b 24       		.uleb128 0x24
 8144 0d1c 2A0A0000 		.4byte	.LASF82
 8145 0d20 02       		.byte	0x2
 8146 0d21 3001     		.2byte	0x130
 8147 0d23 00000000 		.4byte	.LFB86
 8148 0d27 B6000000 		.4byte	.LFE86-.LFB86
 8149 0d2b 01       		.uleb128 0x1
 8150 0d2c 9C       		.byte	0x9c
 8151 0d2d DE0D0000 		.4byte	0xdde
 8152 0d31 25       		.uleb128 0x25
 8153 0d32 DC000000 		.4byte	.LASF73
 8154 0d36 02       		.byte	0x2
 8155 0d37 3001     		.2byte	0x130
 8156 0d39 820C0000 		.4byte	0xc82
 8157 0d3d BE070000 		.4byte	.LLST47
 8158 0d41 25       		.uleb128 0x25
 8159 0d42 C5080000 		.4byte	.LASF74
 8160 0d46 02       		.byte	0x2
 8161 0d47 3001     		.2byte	0x130
 8162 0d49 820C0000 		.4byte	0xc82
 8163 0d4d E9070000 		.4byte	.LLST48
 8164 0d51 25       		.uleb128 0x25
 8165 0d52 6A070000 		.4byte	.LASF75
ARM GAS  C:\Users\FRANKL~1\AppData\Local\Temp\ccLkvCvD.s 			page 181


 8166 0d56 02       		.byte	0x2
 8167 0d57 3001     		.2byte	0x130
 8168 0d59 CD000000 		.4byte	0xcd
 8169 0d5d 08080000 		.4byte	.LLST49
 8170 0d61 17       		.uleb128 0x17
 8171 0d62 44050000 		.4byte	.LASF83
 8172 0d66 02       		.byte	0x2
 8173 0d67 3101     		.2byte	0x131
 8174 0d69 F1000000 		.4byte	0xf1
 8175 0d6d 26080000 		.4byte	.LLST50
 8176 0d71 17       		.uleb128 0x17
 8177 0d72 DC050000 		.4byte	.LASF84
 8178 0d76 02       		.byte	0x2
 8179 0d77 3201     		.2byte	0x132
 8180 0d79 F1000000 		.4byte	0xf1
 8181 0d7d 5B080000 		.4byte	.LLST51
 8182 0d81 26       		.uleb128 0x26
 8183 0d82 48000000 		.4byte	.Ldebug_ranges0+0x48
 8184 0d86 18       		.uleb128 0x18
 8185 0d87 6900     		.ascii	"i\000"
 8186 0d89 02       		.byte	0x2
 8187 0d8a 3401     		.2byte	0x134
 8188 0d8c CD000000 		.4byte	0xcd
 8189 0d90 90080000 		.4byte	.LLST52
 8190 0d94 19       		.uleb128 0x19
 8191 0d95 16000000 		.4byte	.LBB25
 8192 0d99 8A000000 		.4byte	.LBE25-.LBB25
 8193 0d9d 17       		.uleb128 0x17
 8194 0d9e 87010000 		.4byte	.LASF85
 8195 0da2 02       		.byte	0x2
 8196 0da3 3801     		.2byte	0x138
 8197 0da5 F1000000 		.4byte	0xf1
 8198 0da9 AF080000 		.4byte	.LLST53
 8199 0dad 12       		.uleb128 0x12
 8200 0dae 1A000000 		.4byte	.LVL227
 8201 0db2 33370000 		.4byte	0x3733
 8202 0db6 1C       		.uleb128 0x1c
 8203 0db7 20000000 		.4byte	.LVL228
 8204 0dbb 3E370000 		.4byte	0x373e
 8205 0dbf C90D0000 		.4byte	0xdc9
 8206 0dc3 1B       		.uleb128 0x1b
 8207 0dc4 01       		.uleb128 0x1
 8208 0dc5 50       		.byte	0x50
 8209 0dc6 01       		.uleb128 0x1
 8210 0dc7 31       		.byte	0x31
 8211 0dc8 00       		.byte	0
 8212 0dc9 12       		.uleb128 0x12
 8213 0dca 28000000 		.4byte	.LVL229
 8214 0dce 49370000 		.4byte	0x3749
 8215 0dd2 12       		.uleb128 0x12
 8216 0dd3 2C000000 		.4byte	.LVL230
 8217 0dd7 54370000 		.4byte	0x3754
 8218 0ddb 00       		.byte	0
 8219 0ddc 00       		.byte	0
 8220 0ddd 00       		.byte	0
 8221 0dde 24       		.uleb128 0x24
 8222 0ddf D2060000 		.4byte	.LASF86
ARM GAS  C:\Users\FRANKL~1\AppData\Local\Temp\ccLkvCvD.s 			page 182


 8223 0de3 02       		.byte	0x2
 8224 0de4 4301     		.2byte	0x143
 8225 0de6 00000000 		.4byte	.LFB87
 8226 0dea B6000000 		.4byte	.LFE87-.LFB87
 8227 0dee 01       		.uleb128 0x1
 8228 0def 9C       		.byte	0x9c
 8229 0df0 A10E0000 		.4byte	0xea1
 8230 0df4 25       		.uleb128 0x25
 8231 0df5 DC000000 		.4byte	.LASF73
 8232 0df9 02       		.byte	0x2
 8233 0dfa 4301     		.2byte	0x143
 8234 0dfc 820C0000 		.4byte	0xc82
 8235 0e00 CD080000 		.4byte	.LLST54
 8236 0e04 25       		.uleb128 0x25
 8237 0e05 C5080000 		.4byte	.LASF74
 8238 0e09 02       		.byte	0x2
 8239 0e0a 4301     		.2byte	0x143
 8240 0e0c 820C0000 		.4byte	0xc82
 8241 0e10 F8080000 		.4byte	.LLST55
 8242 0e14 25       		.uleb128 0x25
 8243 0e15 6A070000 		.4byte	.LASF75
 8244 0e19 02       		.byte	0x2
 8245 0e1a 4301     		.2byte	0x143
 8246 0e1c CD000000 		.4byte	0xcd
 8247 0e20 17090000 		.4byte	.LLST56
 8248 0e24 17       		.uleb128 0x17
 8249 0e25 44050000 		.4byte	.LASF83
 8250 0e29 02       		.byte	0x2
 8251 0e2a 4401     		.2byte	0x144
 8252 0e2c F1000000 		.4byte	0xf1
 8253 0e30 35090000 		.4byte	.LLST57
 8254 0e34 17       		.uleb128 0x17
 8255 0e35 DC050000 		.4byte	.LASF84
 8256 0e39 02       		.byte	0x2
 8257 0e3a 4501     		.2byte	0x145
 8258 0e3c F1000000 		.4byte	0xf1
 8259 0e40 6A090000 		.4byte	.LLST58
 8260 0e44 26       		.uleb128 0x26
 8261 0e45 60000000 		.4byte	.Ldebug_ranges0+0x60
 8262 0e49 18       		.uleb128 0x18
 8263 0e4a 6900     		.ascii	"i\000"
 8264 0e4c 02       		.byte	0x2
 8265 0e4d 4701     		.2byte	0x147
 8266 0e4f CD000000 		.4byte	0xcd
 8267 0e53 9F090000 		.4byte	.LLST59
 8268 0e57 19       		.uleb128 0x19
 8269 0e58 16000000 		.4byte	.LBB28
 8270 0e5c 8A000000 		.4byte	.LBE28-.LBB28
 8271 0e60 17       		.uleb128 0x17
 8272 0e61 6F0D0000 		.4byte	.LASF87
 8273 0e65 02       		.byte	0x2
 8274 0e66 4B01     		.2byte	0x14b
 8275 0e68 F1000000 		.4byte	0xf1
 8276 0e6c BE090000 		.4byte	.LLST60
 8277 0e70 12       		.uleb128 0x12
 8278 0e71 1A000000 		.4byte	.LVL258
 8279 0e75 5F370000 		.4byte	0x375f
ARM GAS  C:\Users\FRANKL~1\AppData\Local\Temp\ccLkvCvD.s 			page 183


 8280 0e79 1C       		.uleb128 0x1c
 8281 0e7a 20000000 		.4byte	.LVL259
 8282 0e7e 6A370000 		.4byte	0x376a
 8283 0e82 8C0E0000 		.4byte	0xe8c
 8284 0e86 1B       		.uleb128 0x1b
 8285 0e87 01       		.uleb128 0x1
 8286 0e88 50       		.byte	0x50
 8287 0e89 01       		.uleb128 0x1
 8288 0e8a 31       		.byte	0x31
 8289 0e8b 00       		.byte	0
 8290 0e8c 12       		.uleb128 0x12
 8291 0e8d 28000000 		.4byte	.LVL260
 8292 0e91 75370000 		.4byte	0x3775
 8293 0e95 12       		.uleb128 0x12
 8294 0e96 2C000000 		.4byte	.LVL261
 8295 0e9a 80370000 		.4byte	0x3780
 8296 0e9e 00       		.byte	0
 8297 0e9f 00       		.byte	0
 8298 0ea0 00       		.byte	0
 8299 0ea1 24       		.uleb128 0x24
 8300 0ea2 40020000 		.4byte	.LASF88
 8301 0ea6 02       		.byte	0x2
 8302 0ea7 5601     		.2byte	0x156
 8303 0ea9 00000000 		.4byte	.LFB88
 8304 0ead 48010000 		.4byte	.LFE88-.LFB88
 8305 0eb1 01       		.uleb128 0x1
 8306 0eb2 9C       		.byte	0x9c
 8307 0eb3 A40F0000 		.4byte	0xfa4
 8308 0eb7 25       		.uleb128 0x25
 8309 0eb8 DB040000 		.4byte	.LASF89
 8310 0ebc 02       		.byte	0x2
 8311 0ebd 5601     		.2byte	0x156
 8312 0ebf A40F0000 		.4byte	0xfa4
 8313 0ec3 DC090000 		.4byte	.LLST61
 8314 0ec7 25       		.uleb128 0x25
 8315 0ec8 46080000 		.4byte	.LASF90
 8316 0ecc 02       		.byte	0x2
 8317 0ecd 5601     		.2byte	0x156
 8318 0ecf A40F0000 		.4byte	0xfa4
 8319 0ed3 070A0000 		.4byte	.LLST62
 8320 0ed7 25       		.uleb128 0x25
 8321 0ed8 6A070000 		.4byte	.LASF75
 8322 0edc 02       		.byte	0x2
 8323 0edd 5601     		.2byte	0x156
 8324 0edf CD000000 		.4byte	0xcd
 8325 0ee3 320A0000 		.4byte	.LLST63
 8326 0ee7 16       		.uleb128 0x16
 8327 0ee8 B0050000 		.4byte	.LASF91
 8328 0eec 02       		.byte	0x2
 8329 0eed 5A01     		.2byte	0x15a
 8330 0eef F1000000 		.4byte	0xf1
 8331 0ef3 02       		.uleb128 0x2
 8332 0ef4 91       		.byte	0x91
 8333 0ef5 54       		.sleb128 -44
 8334 0ef6 16       		.uleb128 0x16
 8335 0ef7 D2050000 		.4byte	.LASF92
 8336 0efb 02       		.byte	0x2
ARM GAS  C:\Users\FRANKL~1\AppData\Local\Temp\ccLkvCvD.s 			page 184


 8337 0efc 5B01     		.2byte	0x15b
 8338 0efe F1000000 		.4byte	0xf1
 8339 0f02 02       		.uleb128 0x2
 8340 0f03 91       		.byte	0x91
 8341 0f04 50       		.sleb128 -48
 8342 0f05 17       		.uleb128 0x17
 8343 0f06 B2080000 		.4byte	.LASF93
 8344 0f0a 02       		.byte	0x2
 8345 0f0b 5E01     		.2byte	0x15e
 8346 0f0d 25000000 		.4byte	0x25
 8347 0f11 5E0A0000 		.4byte	.LLST64
 8348 0f15 17       		.uleb128 0x17
 8349 0f16 30060000 		.4byte	.LASF94
 8350 0f1a 02       		.byte	0x2
 8351 0f1b 6001     		.2byte	0x160
 8352 0f1d 25000000 		.4byte	0x25
 8353 0f21 8C0A0000 		.4byte	.LLST65
 8354 0f25 17       		.uleb128 0x17
 8355 0f26 E0010000 		.4byte	.LASF95
 8356 0f2a 02       		.byte	0x2
 8357 0f2b 6101     		.2byte	0x161
 8358 0f2d 25000000 		.4byte	0x25
 8359 0f31 C50A0000 		.4byte	.LLST66
 8360 0f35 17       		.uleb128 0x17
 8361 0f36 47010000 		.4byte	.LASF96
 8362 0f3a 02       		.byte	0x2
 8363 0f3b 6301     		.2byte	0x163
 8364 0f3d 25000000 		.4byte	0x25
 8365 0f41 0A0B0000 		.4byte	.LLST67
 8366 0f45 17       		.uleb128 0x17
 8367 0f46 45040000 		.4byte	.LASF97
 8368 0f4a 02       		.byte	0x2
 8369 0f4b 6401     		.2byte	0x164
 8370 0f4d 25000000 		.4byte	0x25
 8371 0f51 1E0B0000 		.4byte	.LLST68
 8372 0f55 1F       		.uleb128 0x1f
 8373 0f56 78000000 		.4byte	.Ldebug_ranges0+0x78
 8374 0f5a 880F0000 		.4byte	0xf88
 8375 0f5e 18       		.uleb128 0x18
 8376 0f5f 6900     		.ascii	"i\000"
 8377 0f61 02       		.byte	0x2
 8378 0f62 6A01     		.2byte	0x16a
 8379 0f64 CD000000 		.4byte	0xcd
 8380 0f68 490B0000 		.4byte	.LLST69
 8381 0f6c 1A       		.uleb128 0x1a
 8382 0f6d 5C000000 		.4byte	.LVL298
 8383 0f71 BF0B0000 		.4byte	0xbbf
 8384 0f75 1B       		.uleb128 0x1b
 8385 0f76 01       		.uleb128 0x1
 8386 0f77 50       		.byte	0x50
 8387 0f78 02       		.uleb128 0x2
 8388 0f79 91       		.byte	0x91
 8389 0f7a 54       		.sleb128 -44
 8390 0f7b 1B       		.uleb128 0x1b
 8391 0f7c 01       		.uleb128 0x1
 8392 0f7d 51       		.byte	0x51
 8393 0f7e 02       		.uleb128 0x2
ARM GAS  C:\Users\FRANKL~1\AppData\Local\Temp\ccLkvCvD.s 			page 185


 8394 0f7f 91       		.byte	0x91
 8395 0f80 50       		.sleb128 -48
 8396 0f81 1B       		.uleb128 0x1b
 8397 0f82 01       		.uleb128 0x1
 8398 0f83 52       		.byte	0x52
 8399 0f84 01       		.uleb128 0x1
 8400 0f85 31       		.byte	0x31
 8401 0f86 00       		.byte	0
 8402 0f87 00       		.byte	0
 8403 0f88 1A       		.uleb128 0x1a
 8404 0f89 48000000 		.4byte	.LVL296
 8405 0f8d BF0B0000 		.4byte	0xbbf
 8406 0f91 1B       		.uleb128 0x1b
 8407 0f92 01       		.uleb128 0x1
 8408 0f93 50       		.byte	0x50
 8409 0f94 02       		.uleb128 0x2
 8410 0f95 91       		.byte	0x91
 8411 0f96 54       		.sleb128 -44
 8412 0f97 1B       		.uleb128 0x1b
 8413 0f98 01       		.uleb128 0x1
 8414 0f99 51       		.byte	0x51
 8415 0f9a 02       		.uleb128 0x2
 8416 0f9b 74       		.byte	0x74
 8417 0f9c 00       		.sleb128 0
 8418 0f9d 1B       		.uleb128 0x1b
 8419 0f9e 01       		.uleb128 0x1
 8420 0f9f 52       		.byte	0x52
 8421 0fa0 01       		.uleb128 0x1
 8422 0fa1 33       		.byte	0x33
 8423 0fa2 00       		.byte	0
 8424 0fa3 00       		.byte	0
 8425 0fa4 05       		.uleb128 0x5
 8426 0fa5 04       		.byte	0x4
 8427 0fa6 25000000 		.4byte	0x25
 8428 0faa 27       		.uleb128 0x27
 8429 0fab 720B0000 		.4byte	.LASF98
 8430 0faf 02       		.byte	0x2
 8431 0fb0 7E01     		.2byte	0x17e
 8432 0fb2 B5000000 		.4byte	0xb5
 8433 0fb6 00000000 		.4byte	.LFB89
 8434 0fba 54000000 		.4byte	.LFE89-.LFB89
 8435 0fbe 01       		.uleb128 0x1
 8436 0fbf 9C       		.byte	0x9c
 8437 0fc0 FE0F0000 		.4byte	0xffe
 8438 0fc4 16       		.uleb128 0x16
 8439 0fc5 BD080000 		.4byte	.LASF99
 8440 0fc9 02       		.byte	0x2
 8441 0fca 8101     		.2byte	0x181
 8442 0fcc 25000000 		.4byte	0x25
 8443 0fd0 02       		.uleb128 0x2
 8444 0fd1 91       		.byte	0x91
 8445 0fd2 74       		.sleb128 -12
 8446 0fd3 16       		.uleb128 0x16
 8447 0fd4 93000000 		.4byte	.LASF100
 8448 0fd8 02       		.byte	0x2
 8449 0fd9 8201     		.2byte	0x182
 8450 0fdb 25000000 		.4byte	0x25
ARM GAS  C:\Users\FRANKL~1\AppData\Local\Temp\ccLkvCvD.s 			page 186


 8451 0fdf 02       		.uleb128 0x2
 8452 0fe0 91       		.byte	0x91
 8453 0fe1 70       		.sleb128 -16
 8454 0fe2 1A       		.uleb128 0x1a
 8455 0fe3 1C000000 		.4byte	.LVL324
 8456 0fe7 A10E0000 		.4byte	0xea1
 8457 0feb 1B       		.uleb128 0x1b
 8458 0fec 01       		.uleb128 0x1
 8459 0fed 50       		.byte	0x50
 8460 0fee 02       		.uleb128 0x2
 8461 0fef 91       		.byte	0x91
 8462 0ff0 74       		.sleb128 -12
 8463 0ff1 1B       		.uleb128 0x1b
 8464 0ff2 01       		.uleb128 0x1
 8465 0ff3 51       		.byte	0x51
 8466 0ff4 02       		.uleb128 0x2
 8467 0ff5 91       		.byte	0x91
 8468 0ff6 70       		.sleb128 -16
 8469 0ff7 1B       		.uleb128 0x1b
 8470 0ff8 01       		.uleb128 0x1
 8471 0ff9 52       		.byte	0x52
 8472 0ffa 01       		.uleb128 0x1
 8473 0ffb 33       		.byte	0x33
 8474 0ffc 00       		.byte	0
 8475 0ffd 00       		.byte	0
 8476 0ffe 28       		.uleb128 0x28
 8477 0fff 8B070000 		.4byte	.LASF101
 8478 1003 02       		.byte	0x2
 8479 1004 8E01     		.2byte	0x18e
 8480 1006 00000000 		.4byte	.LFB90
 8481 100a 68000000 		.4byte	.LFE90-.LFB90
 8482 100e 01       		.uleb128 0x1
 8483 100f 9C       		.byte	0x9c
 8484 1010 B3100000 		.4byte	0x10b3
 8485 1014 17       		.uleb128 0x17
 8486 1015 CA010000 		.4byte	.LASF102
 8487 1019 02       		.byte	0x2
 8488 101a 8F01     		.2byte	0x18f
 8489 101c B5000000 		.4byte	0xb5
 8490 1020 680B0000 		.4byte	.LLST70
 8491 1024 17       		.uleb128 0x17
 8492 1025 1D060000 		.4byte	.LASF103
 8493 1029 02       		.byte	0x2
 8494 102a 9001     		.2byte	0x190
 8495 102c B5000000 		.4byte	0xb5
 8496 1030 860B0000 		.4byte	.LLST71
 8497 1034 17       		.uleb128 0x17
 8498 1035 A9030000 		.4byte	.LASF104
 8499 1039 02       		.byte	0x2
 8500 103a 9101     		.2byte	0x191
 8501 103c D9000000 		.4byte	0xd9
 8502 1040 A40B0000 		.4byte	.LLST72
 8503 1044 15       		.uleb128 0x15
 8504 1045 1A000000 		.4byte	.LBB32
 8505 1049 16000000 		.4byte	.LBE32-.LBB32
 8506 104d 7D100000 		.4byte	0x107d
 8507 1051 18       		.uleb128 0x18
ARM GAS  C:\Users\FRANKL~1\AppData\Local\Temp\ccLkvCvD.s 			page 187


 8508 1052 6900     		.ascii	"i\000"
 8509 1054 02       		.byte	0x2
 8510 1055 9401     		.2byte	0x194
 8511 1057 B5000000 		.4byte	0xb5
 8512 105b DA0B0000 		.4byte	.LLST73
 8513 105f 1C       		.uleb128 0x1c
 8514 1060 22000000 		.4byte	.LVL332
 8515 1064 8B370000 		.4byte	0x378b
 8516 1068 73100000 		.4byte	0x1073
 8517 106c 1B       		.uleb128 0x1b
 8518 106d 01       		.uleb128 0x1
 8519 106e 50       		.byte	0x50
 8520 106f 02       		.uleb128 0x2
 8521 1070 74       		.byte	0x74
 8522 1071 00       		.sleb128 0
 8523 1072 00       		.byte	0
 8524 1073 12       		.uleb128 0x12
 8525 1074 26000000 		.4byte	.LVL333
 8526 1078 AA0F0000 		.4byte	0xfaa
 8527 107c 00       		.byte	0
 8528 107d 19       		.uleb128 0x19
 8529 107e 48000000 		.4byte	.LBB33
 8530 1082 20000000 		.4byte	.LBE33-.LBB33
 8531 1086 18       		.uleb128 0x18
 8532 1087 6900     		.ascii	"i\000"
 8533 1089 02       		.byte	0x2
 8534 108a 9F01     		.2byte	0x19f
 8535 108c B5000000 		.4byte	0xb5
 8536 1090 F80B0000 		.4byte	.LLST74
 8537 1094 1C       		.uleb128 0x1c
 8538 1095 50000000 		.4byte	.LVL342
 8539 1099 96370000 		.4byte	0x3796
 8540 109d A8100000 		.4byte	0x10a8
 8541 10a1 1B       		.uleb128 0x1b
 8542 10a2 01       		.uleb128 0x1
 8543 10a3 50       		.byte	0x50
 8544 10a4 02       		.uleb128 0x2
 8545 10a5 74       		.byte	0x74
 8546 10a6 00       		.sleb128 0
 8547 10a7 00       		.byte	0
 8548 10a8 12       		.uleb128 0x12
 8549 10a9 54000000 		.4byte	.LVL343
 8550 10ad AA0F0000 		.4byte	0xfaa
 8551 10b1 00       		.byte	0
 8552 10b2 00       		.byte	0
 8553 10b3 27       		.uleb128 0x27
 8554 10b4 7E000000 		.4byte	.LASF105
 8555 10b8 02       		.byte	0x2
 8556 10b9 A901     		.2byte	0x1a9
 8557 10bb 25000000 		.4byte	0x25
 8558 10bf 00000000 		.4byte	.LFB91
 8559 10c3 30000000 		.4byte	.LFE91-.LFB91
 8560 10c7 01       		.uleb128 0x1
 8561 10c8 9C       		.byte	0x9c
 8562 10c9 DC100000 		.4byte	0x10dc
 8563 10cd 16       		.uleb128 0x16
 8564 10ce F9010000 		.4byte	.LASF106
ARM GAS  C:\Users\FRANKL~1\AppData\Local\Temp\ccLkvCvD.s 			page 188


 8565 10d2 02       		.byte	0x2
 8566 10d3 AA01     		.2byte	0x1aa
 8567 10d5 25000000 		.4byte	0x25
 8568 10d9 01       		.uleb128 0x1
 8569 10da 50       		.byte	0x50
 8570 10db 00       		.byte	0
 8571 10dc 27       		.uleb128 0x27
 8572 10dd 4E0E0000 		.4byte	.LASF107
 8573 10e1 02       		.byte	0x2
 8574 10e2 B201     		.2byte	0x1b2
 8575 10e4 25000000 		.4byte	0x25
 8576 10e8 00000000 		.4byte	.LFB92
 8577 10ec 48000000 		.4byte	.LFE92-.LFB92
 8578 10f0 01       		.uleb128 0x1
 8579 10f1 9C       		.byte	0x9c
 8580 10f2 0E110000 		.4byte	0x110e
 8581 10f6 16       		.uleb128 0x16
 8582 10f7 F9010000 		.4byte	.LASF106
 8583 10fb 02       		.byte	0x2
 8584 10fc B301     		.2byte	0x1b3
 8585 10fe 25000000 		.4byte	0x25
 8586 1102 01       		.uleb128 0x1
 8587 1103 50       		.byte	0x50
 8588 1104 12       		.uleb128 0x12
 8589 1105 1C000000 		.4byte	.LVL353
 8590 1109 B3100000 		.4byte	0x10b3
 8591 110d 00       		.byte	0
 8592 110e 27       		.uleb128 0x27
 8593 110f 090D0000 		.4byte	.LASF108
 8594 1113 02       		.byte	0x2
 8595 1114 BB01     		.2byte	0x1bb
 8596 1116 25000000 		.4byte	0x25
 8597 111a 00000000 		.4byte	.LFB93
 8598 111e 48000000 		.4byte	.LFE93-.LFB93
 8599 1122 01       		.uleb128 0x1
 8600 1123 9C       		.byte	0x9c
 8601 1124 40110000 		.4byte	0x1140
 8602 1128 16       		.uleb128 0x16
 8603 1129 F9010000 		.4byte	.LASF106
 8604 112d 02       		.byte	0x2
 8605 112e BC01     		.2byte	0x1bc
 8606 1130 25000000 		.4byte	0x25
 8607 1134 01       		.uleb128 0x1
 8608 1135 50       		.byte	0x50
 8609 1136 12       		.uleb128 0x12
 8610 1137 1C000000 		.4byte	.LVL359
 8611 113b B3100000 		.4byte	0x10b3
 8612 113f 00       		.byte	0
 8613 1140 14       		.uleb128 0x14
 8614 1141 A00E0000 		.4byte	.LASF109
 8615 1145 02       		.byte	0x2
 8616 1146 C601     		.2byte	0x1c6
 8617 1148 00000000 		.4byte	.LFB94
 8618 114c 74000000 		.4byte	.LFE94-.LFB94
 8619 1150 01       		.uleb128 0x1
 8620 1151 9C       		.byte	0x9c
 8621 1152 FF110000 		.4byte	0x11ff
ARM GAS  C:\Users\FRANKL~1\AppData\Local\Temp\ccLkvCvD.s 			page 189


 8622 1156 25       		.uleb128 0x25
 8623 1157 FB030000 		.4byte	.LASF110
 8624 115b 02       		.byte	0x2
 8625 115c C601     		.2byte	0x1c6
 8626 115e B5000000 		.4byte	0xb5
 8627 1162 160C0000 		.4byte	.LLST75
 8628 1166 17       		.uleb128 0x17
 8629 1167 CA010000 		.4byte	.LASF102
 8630 116b 02       		.byte	0x2
 8631 116c C901     		.2byte	0x1c9
 8632 116e B5000000 		.4byte	0xb5
 8633 1172 370C0000 		.4byte	.LLST76
 8634 1176 17       		.uleb128 0x17
 8635 1177 A9030000 		.4byte	.LASF104
 8636 117b 02       		.byte	0x2
 8637 117c CA01     		.2byte	0x1ca
 8638 117e D9000000 		.4byte	0xd9
 8639 1182 4A0C0000 		.4byte	.LLST77
 8640 1186 19       		.uleb128 0x19
 8641 1187 22000000 		.4byte	.LBB34
 8642 118b 52000000 		.4byte	.LBE34-.LBB34
 8643 118f 18       		.uleb128 0x18
 8644 1190 6900     		.ascii	"i\000"
 8645 1192 02       		.byte	0x2
 8646 1193 CD01     		.2byte	0x1cd
 8647 1195 B5000000 		.4byte	0xb5
 8648 1199 690C0000 		.4byte	.LLST78
 8649 119d 1F       		.uleb128 0x1f
 8650 119e 90000000 		.4byte	.Ldebug_ranges0+0x90
 8651 11a2 D2110000 		.4byte	0x11d2
 8652 11a6 18       		.uleb128 0x18
 8653 11a7 6A00     		.ascii	"j\000"
 8654 11a9 02       		.byte	0x2
 8655 11aa CF01     		.2byte	0x1cf
 8656 11ac B5000000 		.4byte	0xb5
 8657 11b0 930C0000 		.4byte	.LLST79
 8658 11b4 1C       		.uleb128 0x1c
 8659 11b5 34000000 		.4byte	.LVL369
 8660 11b9 8B370000 		.4byte	0x378b
 8661 11bd C8110000 		.4byte	0x11c8
 8662 11c1 1B       		.uleb128 0x1b
 8663 11c2 01       		.uleb128 0x1
 8664 11c3 50       		.byte	0x50
 8665 11c4 02       		.uleb128 0x2
 8666 11c5 74       		.byte	0x74
 8667 11c6 00       		.sleb128 0
 8668 11c7 00       		.byte	0
 8669 11c8 12       		.uleb128 0x12
 8670 11c9 38000000 		.4byte	.LVL370
 8671 11cd AA0F0000 		.4byte	0xfaa
 8672 11d1 00       		.byte	0
 8673 11d2 12       		.uleb128 0x12
 8674 11d3 2A000000 		.4byte	.LVL367
 8675 11d7 AA0F0000 		.4byte	0xfaa
 8676 11db 12       		.uleb128 0x12
 8677 11dc 4A000000 		.4byte	.LVL375
 8678 11e0 AA0F0000 		.4byte	0xfaa
ARM GAS  C:\Users\FRANKL~1\AppData\Local\Temp\ccLkvCvD.s 			page 190


 8679 11e4 12       		.uleb128 0x12
 8680 11e5 50000000 		.4byte	.LVL376
 8681 11e9 FE0F0000 		.4byte	0xffe
 8682 11ed 1A       		.uleb128 0x1a
 8683 11ee 5A000000 		.4byte	.LVL378
 8684 11f2 8B370000 		.4byte	0x378b
 8685 11f6 1B       		.uleb128 0x1b
 8686 11f7 01       		.uleb128 0x1
 8687 11f8 50       		.byte	0x50
 8688 11f9 02       		.uleb128 0x2
 8689 11fa 77       		.byte	0x77
 8690 11fb 00       		.sleb128 0
 8691 11fc 00       		.byte	0
 8692 11fd 00       		.byte	0
 8693 11fe 00       		.byte	0
 8694 11ff 14       		.uleb128 0x14
 8695 1200 3B010000 		.4byte	.LASF111
 8696 1204 02       		.byte	0x2
 8697 1205 DF01     		.2byte	0x1df
 8698 1207 00000000 		.4byte	.LFB95
 8699 120b 74000000 		.4byte	.LFE95-.LFB95
 8700 120f 01       		.uleb128 0x1
 8701 1210 9C       		.byte	0x9c
 8702 1211 BE120000 		.4byte	0x12be
 8703 1215 25       		.uleb128 0x25
 8704 1216 FB030000 		.4byte	.LASF110
 8705 121a 02       		.byte	0x2
 8706 121b DF01     		.2byte	0x1df
 8707 121d B5000000 		.4byte	0xb5
 8708 1221 BC0C0000 		.4byte	.LLST80
 8709 1225 17       		.uleb128 0x17
 8710 1226 A9030000 		.4byte	.LASF104
 8711 122a 02       		.byte	0x2
 8712 122b E201     		.2byte	0x1e2
 8713 122d D9000000 		.4byte	0xd9
 8714 1231 DD0C0000 		.4byte	.LLST81
 8715 1235 17       		.uleb128 0x17
 8716 1236 CA010000 		.4byte	.LASF102
 8717 123a 02       		.byte	0x2
 8718 123b E301     		.2byte	0x1e3
 8719 123d B5000000 		.4byte	0xb5
 8720 1241 FC0C0000 		.4byte	.LLST82
 8721 1245 19       		.uleb128 0x19
 8722 1246 22000000 		.4byte	.LBB37
 8723 124a 52000000 		.4byte	.LBE37-.LBB37
 8724 124e 18       		.uleb128 0x18
 8725 124f 6900     		.ascii	"i\000"
 8726 1251 02       		.byte	0x2
 8727 1252 E601     		.2byte	0x1e6
 8728 1254 B5000000 		.4byte	0xb5
 8729 1258 0F0D0000 		.4byte	.LLST83
 8730 125c 1F       		.uleb128 0x1f
 8731 125d A8000000 		.4byte	.Ldebug_ranges0+0xa8
 8732 1261 91120000 		.4byte	0x1291
 8733 1265 18       		.uleb128 0x18
 8734 1266 6A00     		.ascii	"j\000"
 8735 1268 02       		.byte	0x2
ARM GAS  C:\Users\FRANKL~1\AppData\Local\Temp\ccLkvCvD.s 			page 191


 8736 1269 E801     		.2byte	0x1e8
 8737 126b B5000000 		.4byte	0xb5
 8738 126f 380D0000 		.4byte	.LLST84
 8739 1273 1C       		.uleb128 0x1c
 8740 1274 34000000 		.4byte	.LVL389
 8741 1278 96370000 		.4byte	0x3796
 8742 127c 87120000 		.4byte	0x1287
 8743 1280 1B       		.uleb128 0x1b
 8744 1281 01       		.uleb128 0x1
 8745 1282 50       		.byte	0x50
 8746 1283 02       		.uleb128 0x2
 8747 1284 74       		.byte	0x74
 8748 1285 00       		.sleb128 0
 8749 1286 00       		.byte	0
 8750 1287 12       		.uleb128 0x12
 8751 1288 38000000 		.4byte	.LVL390
 8752 128c AA0F0000 		.4byte	0xfaa
 8753 1290 00       		.byte	0
 8754 1291 12       		.uleb128 0x12
 8755 1292 2A000000 		.4byte	.LVL387
 8756 1296 AA0F0000 		.4byte	0xfaa
 8757 129a 12       		.uleb128 0x12
 8758 129b 4A000000 		.4byte	.LVL395
 8759 129f AA0F0000 		.4byte	0xfaa
 8760 12a3 12       		.uleb128 0x12
 8761 12a4 50000000 		.4byte	.LVL396
 8762 12a8 FE0F0000 		.4byte	0xffe
 8763 12ac 1A       		.uleb128 0x1a
 8764 12ad 5A000000 		.4byte	.LVL398
 8765 12b1 96370000 		.4byte	0x3796
 8766 12b5 1B       		.uleb128 0x1b
 8767 12b6 01       		.uleb128 0x1
 8768 12b7 50       		.byte	0x50
 8769 12b8 02       		.uleb128 0x2
 8770 12b9 77       		.byte	0x77
 8771 12ba 00       		.sleb128 0
 8772 12bb 00       		.byte	0
 8773 12bc 00       		.byte	0
 8774 12bd 00       		.byte	0
 8775 12be 14       		.uleb128 0x14
 8776 12bf 4F050000 		.4byte	.LASF112
 8777 12c3 02       		.byte	0x2
 8778 12c4 F801     		.2byte	0x1f8
 8779 12c6 00000000 		.4byte	.LFB96
 8780 12ca 84000000 		.4byte	.LFE96-.LFB96
 8781 12ce 01       		.uleb128 0x1
 8782 12cf 9C       		.byte	0x9c
 8783 12d0 78130000 		.4byte	0x1378
 8784 12d4 25       		.uleb128 0x25
 8785 12d5 FB030000 		.4byte	.LASF110
 8786 12d9 02       		.byte	0x2
 8787 12da F801     		.2byte	0x1f8
 8788 12dc B5000000 		.4byte	0xb5
 8789 12e0 610D0000 		.4byte	.LLST85
 8790 12e4 17       		.uleb128 0x17
 8791 12e5 A9030000 		.4byte	.LASF104
 8792 12e9 02       		.byte	0x2
ARM GAS  C:\Users\FRANKL~1\AppData\Local\Temp\ccLkvCvD.s 			page 192


 8793 12ea FB01     		.2byte	0x1fb
 8794 12ec D9000000 		.4byte	0xd9
 8795 12f0 7F0D0000 		.4byte	.LLST86
 8796 12f4 19       		.uleb128 0x19
 8797 12f5 20000000 		.4byte	.LBB40
 8798 12f9 64000000 		.4byte	.LBE40-.LBB40
 8799 12fd 18       		.uleb128 0x18
 8800 12fe 6900     		.ascii	"i\000"
 8801 1300 02       		.byte	0x2
 8802 1301 FE01     		.2byte	0x1fe
 8803 1303 B5000000 		.4byte	0xb5
 8804 1307 9E0D0000 		.4byte	.LLST87
 8805 130b 19       		.uleb128 0x19
 8806 130c 28000000 		.4byte	.LBB41
 8807 1310 42000000 		.4byte	.LBE41-.LBB41
 8808 1314 17       		.uleb128 0x17
 8809 1315 29050000 		.4byte	.LASF113
 8810 1319 02       		.byte	0x2
 8811 131a 0202     		.2byte	0x202
 8812 131c E5000000 		.4byte	0xe5
 8813 1320 BC0D0000 		.4byte	.LLST88
 8814 1324 17       		.uleb128 0x17
 8815 1325 19040000 		.4byte	.LASF114
 8816 1329 02       		.byte	0x2
 8817 132a 0302     		.2byte	0x203
 8818 132c E5000000 		.4byte	0xe5
 8819 1330 CF0D0000 		.4byte	.LLST89
 8820 1334 12       		.uleb128 0x12
 8821 1335 2C000000 		.4byte	.LVL406
 8822 1339 AA0F0000 		.4byte	0xfaa
 8823 133d 1C       		.uleb128 0x1c
 8824 133e 5E000000 		.4byte	.LVL413
 8825 1342 A1370000 		.4byte	0x37a1
 8826 1346 51130000 		.4byte	0x1351
 8827 134a 1B       		.uleb128 0x1b
 8828 134b 01       		.uleb128 0x1
 8829 134c 50       		.byte	0x50
 8830 134d 02       		.uleb128 0x2
 8831 134e 76       		.byte	0x76
 8832 134f 00       		.sleb128 0
 8833 1350 00       		.byte	0
 8834 1351 1C       		.uleb128 0x1c
 8835 1352 64000000 		.4byte	.LVL414
 8836 1356 96370000 		.4byte	0x3796
 8837 135a 65130000 		.4byte	0x1365
 8838 135e 1B       		.uleb128 0x1b
 8839 135f 01       		.uleb128 0x1
 8840 1360 50       		.byte	0x50
 8841 1361 02       		.uleb128 0x2
 8842 1362 75       		.byte	0x75
 8843 1363 00       		.sleb128 0
 8844 1364 00       		.byte	0
 8845 1365 1A       		.uleb128 0x1a
 8846 1366 6A000000 		.4byte	.LVL415
 8847 136a 8B370000 		.4byte	0x378b
 8848 136e 1B       		.uleb128 0x1b
 8849 136f 01       		.uleb128 0x1
ARM GAS  C:\Users\FRANKL~1\AppData\Local\Temp\ccLkvCvD.s 			page 193


 8850 1370 50       		.byte	0x50
 8851 1371 02       		.uleb128 0x2
 8852 1372 74       		.byte	0x74
 8853 1373 00       		.sleb128 0
 8854 1374 00       		.byte	0
 8855 1375 00       		.byte	0
 8856 1376 00       		.byte	0
 8857 1377 00       		.byte	0
 8858 1378 14       		.uleb128 0x14
 8859 1379 CB000000 		.4byte	.LASF115
 8860 137d 02       		.byte	0x2
 8861 137e 1302     		.2byte	0x213
 8862 1380 00000000 		.4byte	.LFB97
 8863 1384 C8000000 		.4byte	.LFE97-.LFB97
 8864 1388 01       		.uleb128 0x1
 8865 1389 9C       		.byte	0x9c
 8866 138a 4A140000 		.4byte	0x144a
 8867 138e 25       		.uleb128 0x25
 8868 138f FB030000 		.4byte	.LASF110
 8869 1393 02       		.byte	0x2
 8870 1394 1302     		.2byte	0x213
 8871 1396 E5000000 		.4byte	0xe5
 8872 139a E20D0000 		.4byte	.LLST90
 8873 139e 17       		.uleb128 0x17
 8874 139f 1E000000 		.4byte	.LASF116
 8875 13a3 02       		.byte	0x2
 8876 13a4 1702     		.2byte	0x217
 8877 13a6 E5000000 		.4byte	0xe5
 8878 13aa 000E0000 		.4byte	.LLST91
 8879 13ae 17       		.uleb128 0x17
 8880 13af EF050000 		.4byte	.LASF117
 8881 13b3 02       		.byte	0x2
 8882 13b4 2502     		.2byte	0x225
 8883 13b6 C1000000 		.4byte	0xc1
 8884 13ba 3F0E0000 		.4byte	.LLST92
 8885 13be 17       		.uleb128 0x17
 8886 13bf 32070000 		.4byte	.LASF118
 8887 13c3 02       		.byte	0x2
 8888 13c4 2602     		.2byte	0x226
 8889 13c6 C1000000 		.4byte	0xc1
 8890 13ca 520E0000 		.4byte	.LLST93
 8891 13ce 17       		.uleb128 0x17
 8892 13cf A2050000 		.4byte	.LASF119
 8893 13d3 02       		.byte	0x2
 8894 13d4 2702     		.2byte	0x227
 8895 13d6 C1000000 		.4byte	0xc1
 8896 13da 650E0000 		.4byte	.LLST94
 8897 13de 17       		.uleb128 0x17
 8898 13df FB0C0000 		.4byte	.LASF120
 8899 13e3 02       		.byte	0x2
 8900 13e4 2802     		.2byte	0x228
 8901 13e6 C1000000 		.4byte	0xc1
 8902 13ea 780E0000 		.4byte	.LLST95
 8903 13ee 17       		.uleb128 0x17
 8904 13ef E50D0000 		.4byte	.LASF121
 8905 13f3 02       		.byte	0x2
 8906 13f4 2A02     		.2byte	0x22a
ARM GAS  C:\Users\FRANKL~1\AppData\Local\Temp\ccLkvCvD.s 			page 194


 8907 13f6 C1000000 		.4byte	0xc1
 8908 13fa 8B0E0000 		.4byte	.LLST96
 8909 13fe 12       		.uleb128 0x12
 8910 13ff 32000000 		.4byte	.LVL425
 8911 1403 BE120000 		.4byte	0x12be
 8912 1407 1C       		.uleb128 0x1c
 8913 1408 38000000 		.4byte	.LVL426
 8914 140c 40110000 		.4byte	0x1140
 8915 1410 1B140000 		.4byte	0x141b
 8916 1414 1B       		.uleb128 0x1b
 8917 1415 01       		.uleb128 0x1
 8918 1416 50       		.byte	0x50
 8919 1417 02       		.uleb128 0x2
 8920 1418 09       		.byte	0x9
 8921 1419 FF       		.byte	0xff
 8922 141a 00       		.byte	0
 8923 141b 12       		.uleb128 0x12
 8924 141c 4A000000 		.4byte	.LVL430
 8925 1420 BE120000 		.4byte	0x12be
 8926 1424 1C       		.uleb128 0x1c
 8927 1425 50000000 		.4byte	.LVL431
 8928 1429 40110000 		.4byte	0x1140
 8929 142d 37140000 		.4byte	0x1437
 8930 1431 1B       		.uleb128 0x1b
 8931 1432 01       		.uleb128 0x1
 8932 1433 50       		.byte	0x50
 8933 1434 01       		.uleb128 0x1
 8934 1435 30       		.byte	0x30
 8935 1436 00       		.byte	0
 8936 1437 12       		.uleb128 0x12
 8937 1438 58000000 		.4byte	.LVL433
 8938 143c 40110000 		.4byte	0x1140
 8939 1440 12       		.uleb128 0x12
 8940 1441 B8000000 		.4byte	.LVL444
 8941 1445 BE120000 		.4byte	0x12be
 8942 1449 00       		.byte	0
 8943 144a 14       		.uleb128 0x14
 8944 144b EF030000 		.4byte	.LASF122
 8945 144f 02       		.byte	0x2
 8946 1450 3502     		.2byte	0x235
 8947 1452 00000000 		.4byte	.LFB98
 8948 1456 C8000000 		.4byte	.LFE98-.LFB98
 8949 145a 01       		.uleb128 0x1
 8950 145b 9C       		.byte	0x9c
 8951 145c 1C150000 		.4byte	0x151c
 8952 1460 25       		.uleb128 0x25
 8953 1461 FB030000 		.4byte	.LASF110
 8954 1465 02       		.byte	0x2
 8955 1466 3502     		.2byte	0x235
 8956 1468 E5000000 		.4byte	0xe5
 8957 146c CA0E0000 		.4byte	.LLST97
 8958 1470 17       		.uleb128 0x17
 8959 1471 1E000000 		.4byte	.LASF116
 8960 1475 02       		.byte	0x2
 8961 1476 3902     		.2byte	0x239
 8962 1478 E5000000 		.4byte	0xe5
 8963 147c E80E0000 		.4byte	.LLST98
ARM GAS  C:\Users\FRANKL~1\AppData\Local\Temp\ccLkvCvD.s 			page 195


 8964 1480 17       		.uleb128 0x17
 8965 1481 EF050000 		.4byte	.LASF117
 8966 1485 02       		.byte	0x2
 8967 1486 4702     		.2byte	0x247
 8968 1488 C1000000 		.4byte	0xc1
 8969 148c 270F0000 		.4byte	.LLST99
 8970 1490 17       		.uleb128 0x17
 8971 1491 32070000 		.4byte	.LASF118
 8972 1495 02       		.byte	0x2
 8973 1496 4802     		.2byte	0x248
 8974 1498 C1000000 		.4byte	0xc1
 8975 149c 3A0F0000 		.4byte	.LLST100
 8976 14a0 17       		.uleb128 0x17
 8977 14a1 A2050000 		.4byte	.LASF119
 8978 14a5 02       		.byte	0x2
 8979 14a6 4902     		.2byte	0x249
 8980 14a8 C1000000 		.4byte	0xc1
 8981 14ac 4D0F0000 		.4byte	.LLST101
 8982 14b0 17       		.uleb128 0x17
 8983 14b1 FB0C0000 		.4byte	.LASF120
 8984 14b5 02       		.byte	0x2
 8985 14b6 4A02     		.2byte	0x24a
 8986 14b8 C1000000 		.4byte	0xc1
 8987 14bc 600F0000 		.4byte	.LLST102
 8988 14c0 17       		.uleb128 0x17
 8989 14c1 E50D0000 		.4byte	.LASF121
 8990 14c5 02       		.byte	0x2
 8991 14c6 4C02     		.2byte	0x24c
 8992 14c8 C1000000 		.4byte	0xc1
 8993 14cc 730F0000 		.4byte	.LLST103
 8994 14d0 12       		.uleb128 0x12
 8995 14d1 32000000 		.4byte	.LVL452
 8996 14d5 BE120000 		.4byte	0x12be
 8997 14d9 1C       		.uleb128 0x1c
 8998 14da 38000000 		.4byte	.LVL453
 8999 14de FF110000 		.4byte	0x11ff
 9000 14e2 ED140000 		.4byte	0x14ed
 9001 14e6 1B       		.uleb128 0x1b
 9002 14e7 01       		.uleb128 0x1
 9003 14e8 50       		.byte	0x50
 9004 14e9 02       		.uleb128 0x2
 9005 14ea 09       		.byte	0x9
 9006 14eb FF       		.byte	0xff
 9007 14ec 00       		.byte	0
 9008 14ed 12       		.uleb128 0x12
 9009 14ee 4A000000 		.4byte	.LVL457
 9010 14f2 BE120000 		.4byte	0x12be
 9011 14f6 1C       		.uleb128 0x1c
 9012 14f7 50000000 		.4byte	.LVL458
 9013 14fb FF110000 		.4byte	0x11ff
 9014 14ff 09150000 		.4byte	0x1509
 9015 1503 1B       		.uleb128 0x1b
 9016 1504 01       		.uleb128 0x1
 9017 1505 50       		.byte	0x50
 9018 1506 01       		.uleb128 0x1
 9019 1507 30       		.byte	0x30
 9020 1508 00       		.byte	0
ARM GAS  C:\Users\FRANKL~1\AppData\Local\Temp\ccLkvCvD.s 			page 196


 9021 1509 12       		.uleb128 0x12
 9022 150a 58000000 		.4byte	.LVL460
 9023 150e FF110000 		.4byte	0x11ff
 9024 1512 12       		.uleb128 0x12
 9025 1513 B8000000 		.4byte	.LVL471
 9026 1517 BE120000 		.4byte	0x12be
 9027 151b 00       		.byte	0
 9028 151c 24       		.uleb128 0x24
 9029 151d 4A0D0000 		.4byte	.LASF123
 9030 1521 02       		.byte	0x2
 9031 1522 5802     		.2byte	0x258
 9032 1524 00000000 		.4byte	.LFB99
 9033 1528 38000000 		.4byte	.LFE99-.LFB99
 9034 152c 01       		.uleb128 0x1
 9035 152d 9C       		.byte	0x9c
 9036 152e 4C150000 		.4byte	0x154c
 9037 1532 25       		.uleb128 0x25
 9038 1533 B0050000 		.4byte	.LASF91
 9039 1537 02       		.byte	0x2
 9040 1538 5802     		.2byte	0x258
 9041 153a 25000000 		.4byte	0x25
 9042 153e B20F0000 		.4byte	.LLST104
 9043 1542 12       		.uleb128 0x12
 9044 1543 24000000 		.4byte	.LVL478
 9045 1547 4A140000 		.4byte	0x144a
 9046 154b 00       		.byte	0
 9047 154c 24       		.uleb128 0x24
 9048 154d 800B0000 		.4byte	.LASF124
 9049 1551 02       		.byte	0x2
 9050 1552 5D02     		.2byte	0x25d
 9051 1554 00000000 		.4byte	.LFB100
 9052 1558 38000000 		.4byte	.LFE100-.LFB100
 9053 155c 01       		.uleb128 0x1
 9054 155d 9C       		.byte	0x9c
 9055 155e 7C150000 		.4byte	0x157c
 9056 1562 25       		.uleb128 0x25
 9057 1563 B0050000 		.4byte	.LASF91
 9058 1567 02       		.byte	0x2
 9059 1568 5D02     		.2byte	0x25d
 9060 156a 25000000 		.4byte	0x25
 9061 156e D50F0000 		.4byte	.LLST105
 9062 1572 12       		.uleb128 0x12
 9063 1573 24000000 		.4byte	.LVL484
 9064 1577 78130000 		.4byte	0x1378
 9065 157b 00       		.byte	0
 9066 157c 24       		.uleb128 0x24
 9067 157d F6090000 		.4byte	.LASF125
 9068 1581 02       		.byte	0x2
 9069 1582 6302     		.2byte	0x263
 9070 1584 00000000 		.4byte	.LFB101
 9071 1588 14000000 		.4byte	.LFE101-.LFB101
 9072 158c 01       		.uleb128 0x1
 9073 158d 9C       		.byte	0x9c
 9074 158e AB150000 		.4byte	0x15ab
 9075 1592 29       		.uleb128 0x29
 9076 1593 6D5600   		.ascii	"mV\000"
 9077 1596 02       		.byte	0x2
ARM GAS  C:\Users\FRANKL~1\AppData\Local\Temp\ccLkvCvD.s 			page 197


 9078 1597 6302     		.2byte	0x263
 9079 1599 25000000 		.4byte	0x25
 9080 159d F80F0000 		.4byte	.LLST106
 9081 15a1 12       		.uleb128 0x12
 9082 15a2 0C000000 		.4byte	.LVL487
 9083 15a6 1C150000 		.4byte	0x151c
 9084 15aa 00       		.byte	0
 9085 15ab 24       		.uleb128 0x24
 9086 15ac EE010000 		.4byte	.LASF126
 9087 15b0 02       		.byte	0x2
 9088 15b1 6802     		.2byte	0x268
 9089 15b3 00000000 		.4byte	.LFB102
 9090 15b7 14000000 		.4byte	.LFE102-.LFB102
 9091 15bb 01       		.uleb128 0x1
 9092 15bc 9C       		.byte	0x9c
 9093 15bd DA150000 		.4byte	0x15da
 9094 15c1 29       		.uleb128 0x29
 9095 15c2 6D5600   		.ascii	"mV\000"
 9096 15c5 02       		.byte	0x2
 9097 15c6 6802     		.2byte	0x268
 9098 15c8 25000000 		.4byte	0x25
 9099 15cc 1B100000 		.4byte	.LLST107
 9100 15d0 12       		.uleb128 0x12
 9101 15d1 0C000000 		.4byte	.LVL490
 9102 15d5 4C150000 		.4byte	0x154c
 9103 15d9 00       		.byte	0
 9104 15da 28       		.uleb128 0x28
 9105 15db AC040000 		.4byte	.LASF127
 9106 15df 02       		.byte	0x2
 9107 15e0 6E02     		.2byte	0x26e
 9108 15e2 00000000 		.4byte	.LFB103
 9109 15e6 1C000000 		.4byte	.LFE103-.LFB103
 9110 15ea 01       		.uleb128 0x1
 9111 15eb 9C       		.byte	0x9c
 9112 15ec 39160000 		.4byte	0x1639
 9113 15f0 1C       		.uleb128 0x1c
 9114 15f1 08000000 		.4byte	.LVL491
 9115 15f5 40110000 		.4byte	0x1140
 9116 15f9 03160000 		.4byte	0x1603
 9117 15fd 1B       		.uleb128 0x1b
 9118 15fe 01       		.uleb128 0x1
 9119 15ff 50       		.byte	0x50
 9120 1600 01       		.uleb128 0x1
 9121 1601 30       		.byte	0x30
 9122 1602 00       		.byte	0
 9123 1603 1C       		.uleb128 0x1c
 9124 1604 0E000000 		.4byte	.LVL492
 9125 1608 FF110000 		.4byte	0x11ff
 9126 160c 16160000 		.4byte	0x1616
 9127 1610 1B       		.uleb128 0x1b
 9128 1611 01       		.uleb128 0x1
 9129 1612 50       		.byte	0x50
 9130 1613 01       		.uleb128 0x1
 9131 1614 30       		.byte	0x30
 9132 1615 00       		.byte	0
 9133 1616 1C       		.uleb128 0x1c
 9134 1617 14000000 		.4byte	.LVL493
ARM GAS  C:\Users\FRANKL~1\AppData\Local\Temp\ccLkvCvD.s 			page 198


 9135 161b 8B370000 		.4byte	0x378b
 9136 161f 29160000 		.4byte	0x1629
 9137 1623 1B       		.uleb128 0x1b
 9138 1624 01       		.uleb128 0x1
 9139 1625 50       		.byte	0x50
 9140 1626 01       		.uleb128 0x1
 9141 1627 30       		.byte	0x30
 9142 1628 00       		.byte	0
 9143 1629 1A       		.uleb128 0x1a
 9144 162a 1A000000 		.4byte	.LVL494
 9145 162e 96370000 		.4byte	0x3796
 9146 1632 1B       		.uleb128 0x1b
 9147 1633 01       		.uleb128 0x1
 9148 1634 50       		.byte	0x50
 9149 1635 01       		.uleb128 0x1
 9150 1636 30       		.byte	0x30
 9151 1637 00       		.byte	0
 9152 1638 00       		.byte	0
 9153 1639 24       		.uleb128 0x24
 9154 163a D00D0000 		.4byte	.LASF128
 9155 163e 02       		.byte	0x2
 9156 163f 7602     		.2byte	0x276
 9157 1641 00000000 		.4byte	.LFB104
 9158 1645 D0000000 		.4byte	.LFE104-.LFB104
 9159 1649 01       		.uleb128 0x1
 9160 164a 9C       		.byte	0x9c
 9161 164b CF170000 		.4byte	0x17cf
 9162 164f 25       		.uleb128 0x25
 9163 1650 6A070000 		.4byte	.LASF75
 9164 1654 02       		.byte	0x2
 9165 1655 7602     		.2byte	0x276
 9166 1657 CD000000 		.4byte	0xcd
 9167 165b 3E100000 		.4byte	.LLST108
 9168 165f 17       		.uleb128 0x17
 9169 1660 B3030000 		.4byte	.LASF129
 9170 1664 02       		.byte	0x2
 9171 1665 7702     		.2byte	0x277
 9172 1667 B5000000 		.4byte	0xb5
 9173 166b 6A100000 		.4byte	.LLST109
 9174 166f 16       		.uleb128 0x16
 9175 1670 B0050000 		.4byte	.LASF91
 9176 1674 02       		.byte	0x2
 9177 1675 7E02     		.2byte	0x27e
 9178 1677 F1000000 		.4byte	0xf1
 9179 167b 02       		.uleb128 0x2
 9180 167c 91       		.byte	0x91
 9181 167d 64       		.sleb128 -28
 9182 167e 16       		.uleb128 0x16
 9183 167f D2050000 		.4byte	.LASF92
 9184 1683 02       		.byte	0x2
 9185 1684 7F02     		.2byte	0x27f
 9186 1686 F1000000 		.4byte	0xf1
 9187 168a 02       		.uleb128 0x2
 9188 168b 91       		.byte	0x91
 9189 168c 60       		.sleb128 -32
 9190 168d 15       		.uleb128 0x15
 9191 168e 22000000 		.4byte	.LBB42
ARM GAS  C:\Users\FRANKL~1\AppData\Local\Temp\ccLkvCvD.s 			page 199


 9192 1692 5E000000 		.4byte	.LBE42-.LBB42
 9193 1696 58170000 		.4byte	0x1758
 9194 169a 18       		.uleb128 0x18
 9195 169b 6900     		.ascii	"i\000"
 9196 169d 02       		.byte	0x2
 9197 169e 8202     		.2byte	0x282
 9198 16a0 B5000000 		.4byte	0xb5
 9199 16a4 7D100000 		.4byte	.LLST110
 9200 16a8 1C       		.uleb128 0x1c
 9201 16a9 2A000000 		.4byte	.LVL502
 9202 16ad 470B0000 		.4byte	0xb47
 9203 16b1 BC160000 		.4byte	0x16bc
 9204 16b5 1B       		.uleb128 0x1b
 9205 16b6 01       		.uleb128 0x1
 9206 16b7 50       		.byte	0x50
 9207 16b8 02       		.uleb128 0x2
 9208 16b9 74       		.byte	0x74
 9209 16ba 00       		.sleb128 0
 9210 16bb 00       		.byte	0
 9211 16bc 1C       		.uleb128 0x1c
 9212 16bd 34000000 		.4byte	.LVL503
 9213 16c1 BF0B0000 		.4byte	0xbbf
 9214 16c5 DB160000 		.4byte	0x16db
 9215 16c9 1B       		.uleb128 0x1b
 9216 16ca 01       		.uleb128 0x1
 9217 16cb 50       		.byte	0x50
 9218 16cc 02       		.uleb128 0x2
 9219 16cd 91       		.byte	0x91
 9220 16ce 64       		.sleb128 -28
 9221 16cf 1B       		.uleb128 0x1b
 9222 16d0 01       		.uleb128 0x1
 9223 16d1 51       		.byte	0x51
 9224 16d2 02       		.uleb128 0x2
 9225 16d3 91       		.byte	0x91
 9226 16d4 60       		.sleb128 -32
 9227 16d5 1B       		.uleb128 0x1b
 9228 16d6 01       		.uleb128 0x1
 9229 16d7 52       		.byte	0x52
 9230 16d8 01       		.uleb128 0x1
 9231 16d9 33       		.byte	0x33
 9232 16da 00       		.byte	0
 9233 16db 1C       		.uleb128 0x1c
 9234 16dc 3E000000 		.4byte	.LVL504
 9235 16e0 BF0B0000 		.4byte	0xbbf
 9236 16e4 FB160000 		.4byte	0x16fb
 9237 16e8 1B       		.uleb128 0x1b
 9238 16e9 01       		.uleb128 0x1
 9239 16ea 50       		.byte	0x50
 9240 16eb 02       		.uleb128 0x2
 9241 16ec 91       		.byte	0x91
 9242 16ed 64       		.sleb128 -28
 9243 16ee 1B       		.uleb128 0x1b
 9244 16ef 01       		.uleb128 0x1
 9245 16f0 51       		.byte	0x51
 9246 16f1 02       		.uleb128 0x2
 9247 16f2 91       		.byte	0x91
 9248 16f3 60       		.sleb128 -32
ARM GAS  C:\Users\FRANKL~1\AppData\Local\Temp\ccLkvCvD.s 			page 200


 9249 16f4 1B       		.uleb128 0x1b
 9250 16f5 01       		.uleb128 0x1
 9251 16f6 52       		.byte	0x52
 9252 16f7 02       		.uleb128 0x2
 9253 16f8 77       		.byte	0x77
 9254 16f9 00       		.sleb128 0
 9255 16fa 00       		.byte	0
 9256 16fb 1C       		.uleb128 0x1c
 9257 16fc 64000000 		.4byte	.LVL506
 9258 1700 DB360000 		.4byte	0x36db
 9259 1704 1F170000 		.4byte	0x171f
 9260 1708 1B       		.uleb128 0x1b
 9261 1709 01       		.uleb128 0x1
 9262 170a 50       		.byte	0x50
 9263 170b 02       		.uleb128 0x2
 9264 170c 75       		.byte	0x75
 9265 170d 00       		.sleb128 0
 9266 170e 1B       		.uleb128 0x1b
 9267 170f 01       		.uleb128 0x1
 9268 1710 51       		.byte	0x51
 9269 1711 05       		.uleb128 0x5
 9270 1712 03       		.byte	0x3
 9271 1713 A8000000 		.4byte	.LC11
 9272 1717 1B       		.uleb128 0x1b
 9273 1718 02       		.uleb128 0x2
 9274 1719 7D       		.byte	0x7d
 9275 171a 00       		.sleb128 0
 9276 171b 02       		.uleb128 0x2
 9277 171c 76       		.byte	0x76
 9278 171d 00       		.sleb128 0
 9279 171e 00       		.byte	0
 9280 171f 1C       		.uleb128 0x1c
 9281 1720 6A000000 		.4byte	.LVL507
 9282 1724 A4360000 		.4byte	0x36a4
 9283 1728 33170000 		.4byte	0x1733
 9284 172c 1B       		.uleb128 0x1b
 9285 172d 01       		.uleb128 0x1
 9286 172e 50       		.byte	0x50
 9287 172f 02       		.uleb128 0x2
 9288 1730 75       		.byte	0x75
 9289 1731 00       		.sleb128 0
 9290 1732 00       		.byte	0
 9291 1733 1C       		.uleb128 0x1c
 9292 1734 72000000 		.4byte	.LVL508
 9293 1738 D1030000 		.4byte	0x3d1
 9294 173c 47170000 		.4byte	0x1747
 9295 1740 1B       		.uleb128 0x1b
 9296 1741 01       		.uleb128 0x1
 9297 1742 50       		.byte	0x50
 9298 1743 02       		.uleb128 0x2
 9299 1744 75       		.byte	0x75
 9300 1745 00       		.sleb128 0
 9301 1746 00       		.byte	0
 9302 1747 1A       		.uleb128 0x1a
 9303 1748 78000000 		.4byte	.LVL509
 9304 174c BA360000 		.4byte	0x36ba
 9305 1750 1B       		.uleb128 0x1b
ARM GAS  C:\Users\FRANKL~1\AppData\Local\Temp\ccLkvCvD.s 			page 201


 9306 1751 01       		.uleb128 0x1
 9307 1752 50       		.byte	0x50
 9308 1753 02       		.uleb128 0x2
 9309 1754 75       		.byte	0x75
 9310 1755 00       		.sleb128 0
 9311 1756 00       		.byte	0
 9312 1757 00       		.byte	0
 9313 1758 1C       		.uleb128 0x1c
 9314 1759 16000000 		.4byte	.LVL498
 9315 175d 4C150000 		.4byte	0x154c
 9316 1761 6D170000 		.4byte	0x176d
 9317 1765 1B       		.uleb128 0x1b
 9318 1766 01       		.uleb128 0x1
 9319 1767 50       		.byte	0x50
 9320 1768 03       		.uleb128 0x3
 9321 1769 F5       		.byte	0xf5
 9322 176a 04       		.uleb128 0x4
 9323 176b 25       		.uleb128 0x25
 9324 176c 00       		.byte	0
 9325 176d 1C       		.uleb128 0x1c
 9326 176e 1C000000 		.4byte	.LVL499
 9327 1772 1C150000 		.4byte	0x151c
 9328 1776 82170000 		.4byte	0x1782
 9329 177a 1B       		.uleb128 0x1b
 9330 177b 01       		.uleb128 0x1
 9331 177c 50       		.byte	0x50
 9332 177d 03       		.uleb128 0x3
 9333 177e F5       		.byte	0xf5
 9334 177f 04       		.uleb128 0x4
 9335 1780 25       		.uleb128 0x25
 9336 1781 00       		.byte	0
 9337 1782 1C       		.uleb128 0x1c
 9338 1783 86000000 		.4byte	.LVL512
 9339 1787 470B0000 		.4byte	0xb47
 9340 178b 96170000 		.4byte	0x1796
 9341 178f 1B       		.uleb128 0x1b
 9342 1790 01       		.uleb128 0x1
 9343 1791 50       		.byte	0x50
 9344 1792 02       		.uleb128 0x2
 9345 1793 78       		.byte	0x78
 9346 1794 00       		.sleb128 0
 9347 1795 00       		.byte	0
 9348 1796 1C       		.uleb128 0x1c
 9349 1797 A8000000 		.4byte	.LVL514
 9350 179b A4360000 		.4byte	0x36a4
 9351 179f AA170000 		.4byte	0x17aa
 9352 17a3 1B       		.uleb128 0x1b
 9353 17a4 01       		.uleb128 0x1
 9354 17a5 50       		.byte	0x50
 9355 17a6 02       		.uleb128 0x2
 9356 17a7 75       		.byte	0x75
 9357 17a8 00       		.sleb128 0
 9358 17a9 00       		.byte	0
 9359 17aa 1C       		.uleb128 0x1c
 9360 17ab B0000000 		.4byte	.LVL515
 9361 17af D1030000 		.4byte	0x3d1
 9362 17b3 BE170000 		.4byte	0x17be
ARM GAS  C:\Users\FRANKL~1\AppData\Local\Temp\ccLkvCvD.s 			page 202


 9363 17b7 1B       		.uleb128 0x1b
 9364 17b8 01       		.uleb128 0x1
 9365 17b9 50       		.byte	0x50
 9366 17ba 02       		.uleb128 0x2
 9367 17bb 75       		.byte	0x75
 9368 17bc 00       		.sleb128 0
 9369 17bd 00       		.byte	0
 9370 17be 1A       		.uleb128 0x1a
 9371 17bf B6000000 		.4byte	.LVL516
 9372 17c3 BA360000 		.4byte	0x36ba
 9373 17c7 1B       		.uleb128 0x1b
 9374 17c8 01       		.uleb128 0x1
 9375 17c9 50       		.byte	0x50
 9376 17ca 02       		.uleb128 0x2
 9377 17cb 75       		.byte	0x75
 9378 17cc 00       		.sleb128 0
 9379 17cd 00       		.byte	0
 9380 17ce 00       		.byte	0
 9381 17cf 24       		.uleb128 0x24
 9382 17d0 C70A0000 		.4byte	.LASF130
 9383 17d4 02       		.byte	0x2
 9384 17d5 9602     		.2byte	0x296
 9385 17d7 00000000 		.4byte	.LFB105
 9386 17db 1C010000 		.4byte	.LFE105-.LFB105
 9387 17df 01       		.uleb128 0x1
 9388 17e0 9C       		.byte	0x9c
 9389 17e1 B1190000 		.4byte	0x19b1
 9390 17e5 25       		.uleb128 0x25
 9391 17e6 5C0B0000 		.4byte	.LASF131
 9392 17ea 02       		.byte	0x2
 9393 17eb 9602     		.2byte	0x296
 9394 17ed CD000000 		.4byte	0xcd
 9395 17f1 A7100000 		.4byte	.LLST111
 9396 17f5 25       		.uleb128 0x25
 9397 17f6 BF0D0000 		.4byte	.LASF132
 9398 17fa 02       		.byte	0x2
 9399 17fb 9602     		.2byte	0x296
 9400 17fd CD000000 		.4byte	0xcd
 9401 1801 D3100000 		.4byte	.LLST112
 9402 1805 25       		.uleb128 0x25
 9403 1806 34040000 		.4byte	.LASF133
 9404 180a 02       		.byte	0x2
 9405 180b 9602     		.2byte	0x296
 9406 180d CD000000 		.4byte	0xcd
 9407 1811 FF100000 		.4byte	.LLST113
 9408 1815 16       		.uleb128 0x16
 9409 1816 E3050000 		.4byte	.LASF80
 9410 181a 02       		.byte	0x2
 9411 181b 9702     		.2byte	0x297
 9412 181d F1000000 		.4byte	0xf1
 9413 1821 02       		.uleb128 0x2
 9414 1822 91       		.byte	0x91
 9415 1823 5C       		.sleb128 -36
 9416 1824 16       		.uleb128 0x16
 9417 1825 B2000000 		.4byte	.LASF81
 9418 1829 02       		.byte	0x2
 9419 182a 9802     		.2byte	0x298
ARM GAS  C:\Users\FRANKL~1\AppData\Local\Temp\ccLkvCvD.s 			page 203


 9420 182c F1000000 		.4byte	0xf1
 9421 1830 02       		.uleb128 0x2
 9422 1831 91       		.byte	0x91
 9423 1832 58       		.sleb128 -40
 9424 1833 17       		.uleb128 0x17
 9425 1834 47010000 		.4byte	.LASF96
 9426 1838 02       		.byte	0x2
 9427 1839 9E02     		.2byte	0x29e
 9428 183b 25000000 		.4byte	0x25
 9429 183f 2B110000 		.4byte	.LLST114
 9430 1843 17       		.uleb128 0x17
 9431 1844 9E040000 		.4byte	.LASF134
 9432 1848 02       		.byte	0x2
 9433 1849 9F02     		.2byte	0x29f
 9434 184b F1000000 		.4byte	0xf1
 9435 184f 3F110000 		.4byte	.LLST115
 9436 1853 17       		.uleb128 0x17
 9437 1854 45040000 		.4byte	.LASF97
 9438 1858 02       		.byte	0x2
 9439 1859 A002     		.2byte	0x2a0
 9440 185b 25000000 		.4byte	0x25
 9441 185f 52110000 		.4byte	.LLST116
 9442 1863 17       		.uleb128 0x17
 9443 1864 560E0000 		.4byte	.LASF135
 9444 1868 02       		.byte	0x2
 9445 1869 A202     		.2byte	0x2a2
 9446 186b 25000000 		.4byte	0x25
 9447 186f 70110000 		.4byte	.LLST117
 9448 1873 16       		.uleb128 0x16
 9449 1874 DB030000 		.4byte	.LASF136
 9450 1878 02       		.byte	0x2
 9451 1879 AB02     		.2byte	0x2ab
 9452 187b F1000000 		.4byte	0xf1
 9453 187f 02       		.uleb128 0x2
 9454 1880 91       		.byte	0x91
 9455 1881 54       		.sleb128 -44
 9456 1882 16       		.uleb128 0x16
 9457 1883 AC0E0000 		.4byte	.LASF137
 9458 1887 02       		.byte	0x2
 9459 1888 AC02     		.2byte	0x2ac
 9460 188a F1000000 		.4byte	0xf1
 9461 188e 02       		.uleb128 0x2
 9462 188f 91       		.byte	0x91
 9463 1890 50       		.sleb128 -48
 9464 1891 16       		.uleb128 0x16
 9465 1892 23060000 		.4byte	.LASF138
 9466 1896 02       		.byte	0x2
 9467 1897 AD02     		.2byte	0x2ad
 9468 1899 F1000000 		.4byte	0xf1
 9469 189d 02       		.uleb128 0x2
 9470 189e 91       		.byte	0x91
 9471 189f 4C       		.sleb128 -52
 9472 18a0 16       		.uleb128 0x16
 9473 18a1 16000000 		.4byte	.LASF139
 9474 18a5 02       		.byte	0x2
 9475 18a6 AE02     		.2byte	0x2ae
 9476 18a8 F1000000 		.4byte	0xf1
ARM GAS  C:\Users\FRANKL~1\AppData\Local\Temp\ccLkvCvD.s 			page 204


 9477 18ac 02       		.uleb128 0x2
 9478 18ad 91       		.byte	0x91
 9479 18ae 48       		.sleb128 -56
 9480 18af 17       		.uleb128 0x17
 9481 18b0 DC0B0000 		.4byte	.LASF140
 9482 18b4 02       		.byte	0x2
 9483 18b5 B302     		.2byte	0x2b3
 9484 18b7 25000000 		.4byte	0x25
 9485 18bb 8E110000 		.4byte	.LLST118
 9486 18bf 17       		.uleb128 0x17
 9487 18c0 E10B0000 		.4byte	.LASF141
 9488 18c4 02       		.byte	0x2
 9489 18c5 B402     		.2byte	0x2b4
 9490 18c7 25000000 		.4byte	0x25
 9491 18cb AC110000 		.4byte	.LLST119
 9492 18cf 1C       		.uleb128 0x1c
 9493 18d0 1C000000 		.4byte	.LVL520
 9494 18d4 880C0000 		.4byte	0xc88
 9495 18d8 E2180000 		.4byte	0x18e2
 9496 18dc 1B       		.uleb128 0x1b
 9497 18dd 01       		.uleb128 0x1
 9498 18de 50       		.byte	0x50
 9499 18df 01       		.uleb128 0x1
 9500 18e0 33       		.byte	0x33
 9501 18e1 00       		.byte	0
 9502 18e2 1C       		.uleb128 0x1c
 9503 18e3 26000000 		.4byte	.LVL521
 9504 18e7 BF0B0000 		.4byte	0xbbf
 9505 18eb 02190000 		.4byte	0x1902
 9506 18ef 1B       		.uleb128 0x1b
 9507 18f0 01       		.uleb128 0x1
 9508 18f1 50       		.byte	0x50
 9509 18f2 02       		.uleb128 0x2
 9510 18f3 91       		.byte	0x91
 9511 18f4 5C       		.sleb128 -36
 9512 18f5 1B       		.uleb128 0x1b
 9513 18f6 01       		.uleb128 0x1
 9514 18f7 51       		.byte	0x51
 9515 18f8 02       		.uleb128 0x2
 9516 18f9 76       		.byte	0x76
 9517 18fa 00       		.sleb128 0
 9518 18fb 1B       		.uleb128 0x1b
 9519 18fc 01       		.uleb128 0x1
 9520 18fd 52       		.byte	0x52
 9521 18fe 02       		.uleb128 0x2
 9522 18ff 78       		.byte	0x78
 9523 1900 00       		.sleb128 0
 9524 1901 00       		.byte	0
 9525 1902 1C       		.uleb128 0x1c
 9526 1903 74000000 		.4byte	.LVL533
 9527 1907 1B0D0000 		.4byte	0xd1b
 9528 190b 22190000 		.4byte	0x1922
 9529 190f 1B       		.uleb128 0x1b
 9530 1910 01       		.uleb128 0x1
 9531 1911 50       		.byte	0x50
 9532 1912 02       		.uleb128 0x2
 9533 1913 91       		.byte	0x91
ARM GAS  C:\Users\FRANKL~1\AppData\Local\Temp\ccLkvCvD.s 			page 205


 9534 1914 54       		.sleb128 -44
 9535 1915 1B       		.uleb128 0x1b
 9536 1916 01       		.uleb128 0x1
 9537 1917 51       		.byte	0x51
 9538 1918 02       		.uleb128 0x2
 9539 1919 91       		.byte	0x91
 9540 191a 50       		.sleb128 -48
 9541 191b 1B       		.uleb128 0x1b
 9542 191c 01       		.uleb128 0x1
 9543 191d 52       		.byte	0x52
 9544 191e 02       		.uleb128 0x2
 9545 191f 77       		.byte	0x77
 9546 1920 00       		.sleb128 0
 9547 1921 00       		.byte	0
 9548 1922 1C       		.uleb128 0x1c
 9549 1923 7E000000 		.4byte	.LVL534
 9550 1927 DE0D0000 		.4byte	0xdde
 9551 192b 42190000 		.4byte	0x1942
 9552 192f 1B       		.uleb128 0x1b
 9553 1930 01       		.uleb128 0x1
 9554 1931 50       		.byte	0x50
 9555 1932 02       		.uleb128 0x2
 9556 1933 91       		.byte	0x91
 9557 1934 4C       		.sleb128 -52
 9558 1935 1B       		.uleb128 0x1b
 9559 1936 01       		.uleb128 0x1
 9560 1937 51       		.byte	0x51
 9561 1938 02       		.uleb128 0x2
 9562 1939 91       		.byte	0x91
 9563 193a 48       		.sleb128 -56
 9564 193b 1B       		.uleb128 0x1b
 9565 193c 01       		.uleb128 0x1
 9566 193d 52       		.byte	0x52
 9567 193e 02       		.uleb128 0x2
 9568 193f 75       		.byte	0x75
 9569 1940 00       		.sleb128 0
 9570 1941 00       		.byte	0
 9571 1942 12       		.uleb128 0x12
 9572 1943 98000000 		.4byte	.LVL539
 9573 1947 DC100000 		.4byte	0x10dc
 9574 194b 12       		.uleb128 0x12
 9575 194c 9E000000 		.4byte	.LVL541
 9576 1950 0E110000 		.4byte	0x110e
 9577 1954 1C       		.uleb128 0x1c
 9578 1955 DE000000 		.4byte	.LVL549
 9579 1959 DB360000 		.4byte	0x36db
 9580 195d 78190000 		.4byte	0x1978
 9581 1961 1B       		.uleb128 0x1b
 9582 1962 01       		.uleb128 0x1
 9583 1963 50       		.byte	0x50
 9584 1964 02       		.uleb128 0x2
 9585 1965 74       		.byte	0x74
 9586 1966 00       		.sleb128 0
 9587 1967 1B       		.uleb128 0x1b
 9588 1968 01       		.uleb128 0x1
 9589 1969 51       		.byte	0x51
 9590 196a 05       		.uleb128 0x5
ARM GAS  C:\Users\FRANKL~1\AppData\Local\Temp\ccLkvCvD.s 			page 206


 9591 196b 03       		.byte	0x3
 9592 196c E0000000 		.4byte	.LC13
 9593 1970 1B       		.uleb128 0x1b
 9594 1971 02       		.uleb128 0x2
 9595 1972 7D       		.byte	0x7d
 9596 1973 18       		.sleb128 24
 9597 1974 02       		.uleb128 0x2
 9598 1975 75       		.byte	0x75
 9599 1976 00       		.sleb128 0
 9600 1977 00       		.byte	0
 9601 1978 1C       		.uleb128 0x1c
 9602 1979 E4000000 		.4byte	.LVL550
 9603 197d A4360000 		.4byte	0x36a4
 9604 1981 8C190000 		.4byte	0x198c
 9605 1985 1B       		.uleb128 0x1b
 9606 1986 01       		.uleb128 0x1
 9607 1987 50       		.byte	0x50
 9608 1988 02       		.uleb128 0x2
 9609 1989 74       		.byte	0x74
 9610 198a 00       		.sleb128 0
 9611 198b 00       		.byte	0
 9612 198c 1C       		.uleb128 0x1c
 9613 198d EC000000 		.4byte	.LVL551
 9614 1991 D1030000 		.4byte	0x3d1
 9615 1995 A0190000 		.4byte	0x19a0
 9616 1999 1B       		.uleb128 0x1b
 9617 199a 01       		.uleb128 0x1
 9618 199b 50       		.byte	0x50
 9619 199c 02       		.uleb128 0x2
 9620 199d 74       		.byte	0x74
 9621 199e 00       		.sleb128 0
 9622 199f 00       		.byte	0
 9623 19a0 1A       		.uleb128 0x1a
 9624 19a1 F2000000 		.4byte	.LVL552
 9625 19a5 BA360000 		.4byte	0x36ba
 9626 19a9 1B       		.uleb128 0x1b
 9627 19aa 01       		.uleb128 0x1
 9628 19ab 50       		.byte	0x50
 9629 19ac 02       		.uleb128 0x2
 9630 19ad 74       		.byte	0x74
 9631 19ae 00       		.sleb128 0
 9632 19af 00       		.byte	0
 9633 19b0 00       		.byte	0
 9634 19b1 14       		.uleb128 0x14
 9635 19b2 B30C0000 		.4byte	.LASF142
 9636 19b6 02       		.byte	0x2
 9637 19b7 BC02     		.2byte	0x2bc
 9638 19b9 00000000 		.4byte	.LFB106
 9639 19bd 1A000000 		.4byte	.LFE106-.LFB106
 9640 19c1 01       		.uleb128 0x1
 9641 19c2 9C       		.byte	0x9c
 9642 19c3 081A0000 		.4byte	0x1a08
 9643 19c7 29       		.uleb128 0x29
 9644 19c8 6E00     		.ascii	"n\000"
 9645 19ca 02       		.byte	0x2
 9646 19cb BC02     		.2byte	0x2bc
 9647 19cd CD000000 		.4byte	0xcd
ARM GAS  C:\Users\FRANKL~1\AppData\Local\Temp\ccLkvCvD.s 			page 207


 9648 19d1 D4110000 		.4byte	.LLST120
 9649 19d5 19       		.uleb128 0x19
 9650 19d6 04000000 		.4byte	.LBB43
 9651 19da 14000000 		.4byte	.LBE43-.LBB43
 9652 19de 18       		.uleb128 0x18
 9653 19df 6900     		.ascii	"i\000"
 9654 19e1 02       		.byte	0x2
 9655 19e2 BD02     		.2byte	0x2bd
 9656 19e4 CD000000 		.4byte	0xcd
 9657 19e8 F2110000 		.4byte	.LLST121
 9658 19ec 1A       		.uleb128 0x1a
 9659 19ed 12000000 		.4byte	.LVL557
 9660 19f1 CF170000 		.4byte	0x17cf
 9661 19f5 1B       		.uleb128 0x1b
 9662 19f6 01       		.uleb128 0x1
 9663 19f7 50       		.byte	0x50
 9664 19f8 02       		.uleb128 0x2
 9665 19f9 08       		.byte	0x8
 9666 19fa 64       		.byte	0x64
 9667 19fb 1B       		.uleb128 0x1b
 9668 19fc 01       		.uleb128 0x1
 9669 19fd 51       		.byte	0x51
 9670 19fe 01       		.uleb128 0x1
 9671 19ff 31       		.byte	0x31
 9672 1a00 1B       		.uleb128 0x1b
 9673 1a01 01       		.uleb128 0x1
 9674 1a02 52       		.byte	0x52
 9675 1a03 01       		.uleb128 0x1
 9676 1a04 3A       		.byte	0x3a
 9677 1a05 00       		.byte	0
 9678 1a06 00       		.byte	0
 9679 1a07 00       		.byte	0
 9680 1a08 28       		.uleb128 0x28
 9681 1a09 74040000 		.4byte	.LASF143
 9682 1a0d 02       		.byte	0x2
 9683 1a0e C302     		.2byte	0x2c3
 9684 1a10 00000000 		.4byte	.LFB107
 9685 1a14 2C000000 		.4byte	.LFE107-.LFB107
 9686 1a18 01       		.uleb128 0x1
 9687 1a19 9C       		.byte	0x9c
 9688 1a1a 8F1A0000 		.4byte	0x1a8f
 9689 1a1e 15       		.uleb128 0x15
 9690 1a1f 0E000000 		.4byte	.LBB44
 9691 1a23 1C000000 		.4byte	.LBE44-.LBB44
 9692 1a27 6A1A0000 		.4byte	0x1a6a
 9693 1a2b 17       		.uleb128 0x17
 9694 1a2c D7000000 		.4byte	.LASF144
 9695 1a30 02       		.byte	0x2
 9696 1a31 C702     		.2byte	0x2c7
 9697 1a33 C1000000 		.4byte	0xc1
 9698 1a37 11120000 		.4byte	.LLST122
 9699 1a3b 1C       		.uleb128 0x1c
 9700 1a3c 18000000 		.4byte	.LVL562
 9701 1a40 96370000 		.4byte	0x3796
 9702 1a44 4F1A0000 		.4byte	0x1a4f
 9703 1a48 1B       		.uleb128 0x1b
 9704 1a49 01       		.uleb128 0x1
ARM GAS  C:\Users\FRANKL~1\AppData\Local\Temp\ccLkvCvD.s 			page 208


 9705 1a4a 50       		.byte	0x50
 9706 1a4b 02       		.uleb128 0x2
 9707 1a4c 74       		.byte	0x74
 9708 1a4d 00       		.sleb128 0
 9709 1a4e 00       		.byte	0
 9710 1a4f 1A       		.uleb128 0x1a
 9711 1a50 22000000 		.4byte	.LVL563
 9712 1a54 CF170000 		.4byte	0x17cf
 9713 1a58 1B       		.uleb128 0x1b
 9714 1a59 01       		.uleb128 0x1
 9715 1a5a 50       		.byte	0x50
 9716 1a5b 02       		.uleb128 0x2
 9717 1a5c 08       		.byte	0x8
 9718 1a5d 64       		.byte	0x64
 9719 1a5e 1B       		.uleb128 0x1b
 9720 1a5f 01       		.uleb128 0x1
 9721 1a60 51       		.byte	0x51
 9722 1a61 01       		.uleb128 0x1
 9723 1a62 31       		.byte	0x31
 9724 1a63 1B       		.uleb128 0x1b
 9725 1a64 01       		.uleb128 0x1
 9726 1a65 52       		.byte	0x52
 9727 1a66 01       		.uleb128 0x1
 9728 1a67 31       		.byte	0x31
 9729 1a68 00       		.byte	0
 9730 1a69 00       		.byte	0
 9731 1a6a 1C       		.uleb128 0x1c
 9732 1a6b 08000000 		.4byte	.LVL559
 9733 1a6f 8B370000 		.4byte	0x378b
 9734 1a73 7E1A0000 		.4byte	0x1a7e
 9735 1a77 1B       		.uleb128 0x1b
 9736 1a78 01       		.uleb128 0x1
 9737 1a79 50       		.byte	0x50
 9738 1a7a 02       		.uleb128 0x2
 9739 1a7b 08       		.byte	0x8
 9740 1a7c 5A       		.byte	0x5a
 9741 1a7d 00       		.byte	0
 9742 1a7e 1A       		.uleb128 0x1a
 9743 1a7f 0E000000 		.4byte	.LVL560
 9744 1a83 96370000 		.4byte	0x3796
 9745 1a87 1B       		.uleb128 0x1b
 9746 1a88 01       		.uleb128 0x1
 9747 1a89 50       		.byte	0x50
 9748 1a8a 02       		.uleb128 0x2
 9749 1a8b 09       		.byte	0x9
 9750 1a8c FE       		.byte	0xfe
 9751 1a8d 00       		.byte	0
 9752 1a8e 00       		.byte	0
 9753 1a8f 14       		.uleb128 0x14
 9754 1a90 3F060000 		.4byte	.LASF145
 9755 1a94 02       		.byte	0x2
 9756 1a95 CD02     		.2byte	0x2cd
 9757 1a97 00000000 		.4byte	.LFB108
 9758 1a9b AC000000 		.4byte	.LFE108-.LFB108
 9759 1a9f 01       		.uleb128 0x1
 9760 1aa0 9C       		.byte	0x9c
 9761 1aa1 941B0000 		.4byte	0x1b94
ARM GAS  C:\Users\FRANKL~1\AppData\Local\Temp\ccLkvCvD.s 			page 209


 9762 1aa5 25       		.uleb128 0x25
 9763 1aa6 480A0000 		.4byte	.LASF146
 9764 1aaa 02       		.byte	0x2
 9765 1aab CD02     		.2byte	0x2cd
 9766 1aad B5000000 		.4byte	0xb5
 9767 1ab1 3B120000 		.4byte	.LLST123
 9768 1ab5 2A       		.uleb128 0x2a
 9769 1ab6 B40E0000 		.4byte	.LASF149
 9770 1aba 02       		.byte	0x2
 9771 1abb D502     		.2byte	0x2d5
 9772 1abd D9000000 		.4byte	0xd9
 9773 1ac1 1F       		.uleb128 0x1f
 9774 1ac2 C0000000 		.4byte	.Ldebug_ranges0+0xc0
 9775 1ac6 7A1B0000 		.4byte	0x1b7a
 9776 1aca 18       		.uleb128 0x18
 9777 1acb 6C00     		.ascii	"l\000"
 9778 1acd 02       		.byte	0x2
 9779 1ace D702     		.2byte	0x2d7
 9780 1ad0 B5000000 		.4byte	0xb5
 9781 1ad4 75120000 		.4byte	.LLST124
 9782 1ad8 26       		.uleb128 0x26
 9783 1ad9 D8000000 		.4byte	.Ldebug_ranges0+0xd8
 9784 1add 17       		.uleb128 0x17
 9785 1ade C1000000 		.4byte	.LASF147
 9786 1ae2 02       		.byte	0x2
 9787 1ae3 D802     		.2byte	0x2d8
 9788 1ae5 D9000000 		.4byte	0xd9
 9789 1ae9 93120000 		.4byte	.LLST125
 9790 1aed 17       		.uleb128 0x17
 9791 1aee CA010000 		.4byte	.LASF102
 9792 1af2 02       		.byte	0x2
 9793 1af3 D902     		.2byte	0x2d9
 9794 1af5 B5000000 		.4byte	0xb5
 9795 1af9 B2120000 		.4byte	.LLST126
 9796 1afd 17       		.uleb128 0x17
 9797 1afe 1D060000 		.4byte	.LASF103
 9798 1b02 02       		.byte	0x2
 9799 1b03 DE02     		.2byte	0x2de
 9800 1b05 B5000000 		.4byte	0xb5
 9801 1b09 F3120000 		.4byte	.LLST127
 9802 1b0d 26       		.uleb128 0x26
 9803 1b0e F0000000 		.4byte	.Ldebug_ranges0+0xf0
 9804 1b12 18       		.uleb128 0x18
 9805 1b13 6900     		.ascii	"i\000"
 9806 1b15 02       		.byte	0x2
 9807 1b16 E602     		.2byte	0x2e6
 9808 1b18 B5000000 		.4byte	0xb5
 9809 1b1c 13130000 		.4byte	.LLST128
 9810 1b20 26       		.uleb128 0x26
 9811 1b21 08010000 		.4byte	.Ldebug_ranges0+0x108
 9812 1b25 18       		.uleb128 0x18
 9813 1b26 6A00     		.ascii	"j\000"
 9814 1b28 02       		.byte	0x2
 9815 1b29 E702     		.2byte	0x2e7
 9816 1b2b B5000000 		.4byte	0xb5
 9817 1b2f 31130000 		.4byte	.LLST129
 9818 1b33 1C       		.uleb128 0x1c
ARM GAS  C:\Users\FRANKL~1\AppData\Local\Temp\ccLkvCvD.s 			page 210


 9819 1b34 5C000000 		.4byte	.LVL579
 9820 1b38 BE120000 		.4byte	0x12be
 9821 1b3c 481B0000 		.4byte	0x1b48
 9822 1b40 1B       		.uleb128 0x1b
 9823 1b41 01       		.uleb128 0x1
 9824 1b42 50       		.byte	0x50
 9825 1b43 03       		.uleb128 0x3
 9826 1b44 75       		.byte	0x75
 9827 1b45 00       		.sleb128 0
 9828 1b46 20       		.byte	0x20
 9829 1b47 00       		.byte	0
 9830 1b48 1C       		.uleb128 0x1c
 9831 1b49 62000000 		.4byte	.LVL580
 9832 1b4d FF110000 		.4byte	0x11ff
 9833 1b51 5C1B0000 		.4byte	0x1b5c
 9834 1b55 1B       		.uleb128 0x1b
 9835 1b56 01       		.uleb128 0x1
 9836 1b57 50       		.byte	0x50
 9837 1b58 02       		.uleb128 0x2
 9838 1b59 75       		.byte	0x75
 9839 1b5a 00       		.sleb128 0
 9840 1b5b 00       		.byte	0
 9841 1b5c 1A       		.uleb128 0x1a
 9842 1b5d 6C000000 		.4byte	.LVL581
 9843 1b61 CF170000 		.4byte	0x17cf
 9844 1b65 1B       		.uleb128 0x1b
 9845 1b66 01       		.uleb128 0x1
 9846 1b67 50       		.byte	0x50
 9847 1b68 02       		.uleb128 0x2
 9848 1b69 08       		.byte	0x8
 9849 1b6a 21       		.byte	0x21
 9850 1b6b 1B       		.uleb128 0x1b
 9851 1b6c 01       		.uleb128 0x1
 9852 1b6d 51       		.byte	0x51
 9853 1b6e 01       		.uleb128 0x1
 9854 1b6f 31       		.byte	0x31
 9855 1b70 1B       		.uleb128 0x1b
 9856 1b71 01       		.uleb128 0x1
 9857 1b72 52       		.byte	0x52
 9858 1b73 01       		.uleb128 0x1
 9859 1b74 31       		.byte	0x31
 9860 1b75 00       		.byte	0
 9861 1b76 00       		.byte	0
 9862 1b77 00       		.byte	0
 9863 1b78 00       		.byte	0
 9864 1b79 00       		.byte	0
 9865 1b7a 12       		.uleb128 0x12
 9866 1b7b 1A000000 		.4byte	.LVL568
 9867 1b7f BE120000 		.4byte	0x12be
 9868 1b83 1A       		.uleb128 0x1a
 9869 1b84 26000000 		.4byte	.LVL571
 9870 1b88 BE120000 		.4byte	0x12be
 9871 1b8c 1B       		.uleb128 0x1b
 9872 1b8d 01       		.uleb128 0x1
 9873 1b8e 50       		.byte	0x50
 9874 1b8f 02       		.uleb128 0x2
 9875 1b90 09       		.byte	0x9
ARM GAS  C:\Users\FRANKL~1\AppData\Local\Temp\ccLkvCvD.s 			page 211


 9876 1b91 FE       		.byte	0xfe
 9877 1b92 00       		.byte	0
 9878 1b93 00       		.byte	0
 9879 1b94 14       		.uleb128 0x14
 9880 1b95 EE0A0000 		.4byte	.LASF148
 9881 1b99 02       		.byte	0x2
 9882 1b9a F402     		.2byte	0x2f4
 9883 1b9c 00000000 		.4byte	.LFB109
 9884 1ba0 84000000 		.4byte	.LFE109-.LFB109
 9885 1ba4 01       		.uleb128 0x1
 9886 1ba5 9C       		.byte	0x9c
 9887 1ba6 9D1C0000 		.4byte	0x1c9d
 9888 1baa 25       		.uleb128 0x25
 9889 1bab 480A0000 		.4byte	.LASF146
 9890 1baf 02       		.byte	0x2
 9891 1bb0 F402     		.2byte	0x2f4
 9892 1bb2 B5000000 		.4byte	0xb5
 9893 1bb6 5A130000 		.4byte	.LLST130
 9894 1bba 2B       		.uleb128 0x2b
 9895 1bbb B40E0000 		.4byte	.LASF149
 9896 1bbf 02       		.byte	0x2
 9897 1bc0 F702     		.2byte	0x2f7
 9898 1bc2 D9000000 		.4byte	0xd9
 9899 1bc6 10       		.byte	0x10
 9900 1bc7 15       		.uleb128 0x15
 9901 1bc8 0C000000 		.4byte	.LBB53
 9902 1bcc 6E000000 		.4byte	.LBE53-.LBB53
 9903 1bd0 8C1C0000 		.4byte	0x1c8c
 9904 1bd4 18       		.uleb128 0x18
 9905 1bd5 6C00     		.ascii	"l\000"
 9906 1bd7 02       		.byte	0x2
 9907 1bd8 F902     		.2byte	0x2f9
 9908 1bda B5000000 		.4byte	0xb5
 9909 1bde 7B130000 		.4byte	.LLST131
 9910 1be2 19       		.uleb128 0x19
 9911 1be3 12000000 		.4byte	.LBB54
 9912 1be7 5C000000 		.4byte	.LBE54-.LBB54
 9913 1beb 17       		.uleb128 0x17
 9914 1bec C1000000 		.4byte	.LASF147
 9915 1bf0 02       		.byte	0x2
 9916 1bf1 FA02     		.2byte	0x2fa
 9917 1bf3 D9000000 		.4byte	0xd9
 9918 1bf7 A5130000 		.4byte	.LLST132
 9919 1bfb 17       		.uleb128 0x17
 9920 1bfc CA010000 		.4byte	.LASF102
 9921 1c00 02       		.byte	0x2
 9922 1c01 FB02     		.2byte	0x2fb
 9923 1c03 B5000000 		.4byte	0xb5
 9924 1c07 C4130000 		.4byte	.LLST133
 9925 1c0b 17       		.uleb128 0x17
 9926 1c0c 1D060000 		.4byte	.LASF103
 9927 1c10 02       		.byte	0x2
 9928 1c11 FC02     		.2byte	0x2fc
 9929 1c13 B5000000 		.4byte	0xb5
 9930 1c17 E3130000 		.4byte	.LLST134
 9931 1c1b 19       		.uleb128 0x19
 9932 1c1c 28000000 		.4byte	.LBB55
ARM GAS  C:\Users\FRANKL~1\AppData\Local\Temp\ccLkvCvD.s 			page 212


 9933 1c20 46000000 		.4byte	.LBE55-.LBB55
 9934 1c24 18       		.uleb128 0x18
 9935 1c25 6900     		.ascii	"i\000"
 9936 1c27 02       		.byte	0x2
 9937 1c28 0403     		.2byte	0x304
 9938 1c2a B5000000 		.4byte	0xb5
 9939 1c2e 03140000 		.4byte	.LLST135
 9940 1c32 26       		.uleb128 0x26
 9941 1c33 20010000 		.4byte	.Ldebug_ranges0+0x120
 9942 1c37 18       		.uleb128 0x18
 9943 1c38 6A00     		.ascii	"j\000"
 9944 1c3a 02       		.byte	0x2
 9945 1c3b 0503     		.2byte	0x305
 9946 1c3d B5000000 		.4byte	0xb5
 9947 1c41 21140000 		.4byte	.LLST136
 9948 1c45 1C       		.uleb128 0x1c
 9949 1c46 36000000 		.4byte	.LVL597
 9950 1c4a BE120000 		.4byte	0x12be
 9951 1c4e 5A1C0000 		.4byte	0x1c5a
 9952 1c52 1B       		.uleb128 0x1b
 9953 1c53 01       		.uleb128 0x1
 9954 1c54 50       		.byte	0x50
 9955 1c55 03       		.uleb128 0x3
 9956 1c56 75       		.byte	0x75
 9957 1c57 00       		.sleb128 0
 9958 1c58 20       		.byte	0x20
 9959 1c59 00       		.byte	0
 9960 1c5a 1C       		.uleb128 0x1c
 9961 1c5b 3C000000 		.4byte	.LVL598
 9962 1c5f FF110000 		.4byte	0x11ff
 9963 1c63 6E1C0000 		.4byte	0x1c6e
 9964 1c67 1B       		.uleb128 0x1b
 9965 1c68 01       		.uleb128 0x1
 9966 1c69 50       		.byte	0x50
 9967 1c6a 02       		.uleb128 0x2
 9968 1c6b 75       		.byte	0x75
 9969 1c6c 00       		.sleb128 0
 9970 1c6d 00       		.byte	0
 9971 1c6e 1A       		.uleb128 0x1a
 9972 1c6f 46000000 		.4byte	.LVL599
 9973 1c73 CF170000 		.4byte	0x17cf
 9974 1c77 1B       		.uleb128 0x1b
 9975 1c78 01       		.uleb128 0x1
 9976 1c79 50       		.byte	0x50
 9977 1c7a 02       		.uleb128 0x2
 9978 1c7b 08       		.byte	0x8
 9979 1c7c 21       		.byte	0x21
 9980 1c7d 1B       		.uleb128 0x1b
 9981 1c7e 01       		.uleb128 0x1
 9982 1c7f 51       		.byte	0x51
 9983 1c80 01       		.uleb128 0x1
 9984 1c81 31       		.byte	0x31
 9985 1c82 1B       		.uleb128 0x1b
 9986 1c83 01       		.uleb128 0x1
 9987 1c84 52       		.byte	0x52
 9988 1c85 01       		.uleb128 0x1
 9989 1c86 31       		.byte	0x31
ARM GAS  C:\Users\FRANKL~1\AppData\Local\Temp\ccLkvCvD.s 			page 213


 9990 1c87 00       		.byte	0
 9991 1c88 00       		.byte	0
 9992 1c89 00       		.byte	0
 9993 1c8a 00       		.byte	0
 9994 1c8b 00       		.byte	0
 9995 1c8c 1A       		.uleb128 0x1a
 9996 1c8d 0C000000 		.4byte	.LVL593
 9997 1c91 BE120000 		.4byte	0x12be
 9998 1c95 1B       		.uleb128 0x1b
 9999 1c96 01       		.uleb128 0x1
 10000 1c97 50       		.byte	0x50
 10001 1c98 02       		.uleb128 0x2
 10002 1c99 09       		.byte	0x9
 10003 1c9a FE       		.byte	0xfe
 10004 1c9b 00       		.byte	0
 10005 1c9c 00       		.byte	0
 10006 1c9d 28       		.uleb128 0x28
 10007 1c9e C1070000 		.4byte	.LASF150
 10008 1ca2 02       		.byte	0x2
 10009 1ca3 1303     		.2byte	0x313
 10010 1ca5 00000000 		.4byte	.LFB110
 10011 1ca9 98000000 		.4byte	.LFE110-.LFB110
 10012 1cad 01       		.uleb128 0x1
 10013 1cae 9C       		.byte	0x9c
 10014 1caf 941D0000 		.4byte	0x1d94
 10015 1cb3 17       		.uleb128 0x17
 10016 1cb4 980D0000 		.4byte	.LASF151
 10017 1cb8 02       		.byte	0x2
 10018 1cb9 1403     		.2byte	0x314
 10019 1cbb B5000000 		.4byte	0xb5
 10020 1cbf 4A140000 		.4byte	.LLST137
 10021 1cc3 2B       		.uleb128 0x2b
 10022 1cc4 520D0000 		.4byte	.LASF152
 10023 1cc8 02       		.byte	0x2
 10024 1cc9 1503     		.2byte	0x315
 10025 1ccb D9000000 		.4byte	0xd9
 10026 1ccf 01       		.byte	0x1
 10027 1cd0 2B       		.uleb128 0x2b
 10028 1cd1 1A0F0000 		.4byte	.LASF153
 10029 1cd5 02       		.byte	0x2
 10030 1cd6 1603     		.2byte	0x316
 10031 1cd8 B5000000 		.4byte	0xb5
 10032 1cdc 00       		.byte	0
 10033 1cdd 2B       		.uleb128 0x2b
 10034 1cde EE080000 		.4byte	.LASF154
 10035 1ce2 02       		.byte	0x2
 10036 1ce3 1703     		.2byte	0x317
 10037 1ce5 B5000000 		.4byte	0xb5
 10038 1ce9 00       		.byte	0
 10039 1cea 17       		.uleb128 0x17
 10040 1ceb 82040000 		.4byte	.LASF155
 10041 1cef 02       		.byte	0x2
 10042 1cf0 1803     		.2byte	0x318
 10043 1cf2 B5000000 		.4byte	0xb5
 10044 1cf6 7F140000 		.4byte	.LLST138
 10045 1cfa 17       		.uleb128 0x17
 10046 1cfb 28020000 		.4byte	.LASF156
ARM GAS  C:\Users\FRANKL~1\AppData\Local\Temp\ccLkvCvD.s 			page 214


 10047 1cff 02       		.byte	0x2
 10048 1d00 1903     		.2byte	0x319
 10049 1d02 B5000000 		.4byte	0xb5
 10050 1d06 A9140000 		.4byte	.LLST139
 10051 1d0a 2B       		.uleb128 0x2b
 10052 1d0b 9D060000 		.4byte	.LASF157
 10053 1d0f 02       		.byte	0x2
 10054 1d10 1B03     		.2byte	0x31b
 10055 1d12 D9000000 		.4byte	0xd9
 10056 1d16 01       		.byte	0x1
 10057 1d17 2B       		.uleb128 0x2b
 10058 1d18 88090000 		.4byte	.LASF158
 10059 1d1c 02       		.byte	0x2
 10060 1d1d 1C03     		.2byte	0x31c
 10061 1d1f B5000000 		.4byte	0xb5
 10062 1d23 00       		.byte	0
 10063 1d24 2B       		.uleb128 0x2b
 10064 1d25 EF0D0000 		.4byte	.LASF159
 10065 1d29 02       		.byte	0x2
 10066 1d2a 1D03     		.2byte	0x31d
 10067 1d2c B5000000 		.4byte	0xb5
 10068 1d30 00       		.byte	0
 10069 1d31 17       		.uleb128 0x17
 10070 1d32 31010000 		.4byte	.LASF160
 10071 1d36 02       		.byte	0x2
 10072 1d37 1E03     		.2byte	0x31e
 10073 1d39 B5000000 		.4byte	0xb5
 10074 1d3d D3140000 		.4byte	.LLST140
 10075 1d41 17       		.uleb128 0x17
 10076 1d42 7D0C0000 		.4byte	.LASF161
 10077 1d46 02       		.byte	0x2
 10078 1d47 1F03     		.2byte	0x31f
 10079 1d49 B5000000 		.4byte	0xb5
 10080 1d4d FD140000 		.4byte	.LLST141
 10081 1d51 1C       		.uleb128 0x1c
 10082 1d52 52000000 		.4byte	.LVL616
 10083 1d56 BE120000 		.4byte	0x12be
 10084 1d5a 651D0000 		.4byte	0x1d65
 10085 1d5e 1B       		.uleb128 0x1b
 10086 1d5f 01       		.uleb128 0x1
 10087 1d60 50       		.byte	0x50
 10088 1d61 02       		.uleb128 0x2
 10089 1d62 75       		.byte	0x75
 10090 1d63 00       		.sleb128 0
 10091 1d64 00       		.byte	0
 10092 1d65 1C       		.uleb128 0x1c
 10093 1d66 58000000 		.4byte	.LVL617
 10094 1d6a FF110000 		.4byte	0x11ff
 10095 1d6e 791D0000 		.4byte	0x1d79
 10096 1d72 1B       		.uleb128 0x1b
 10097 1d73 01       		.uleb128 0x1
 10098 1d74 50       		.byte	0x50
 10099 1d75 02       		.uleb128 0x2
 10100 1d76 76       		.byte	0x76
 10101 1d77 00       		.sleb128 0
 10102 1d78 00       		.byte	0
 10103 1d79 1A       		.uleb128 0x1a
ARM GAS  C:\Users\FRANKL~1\AppData\Local\Temp\ccLkvCvD.s 			page 215


 10104 1d7a 62000000 		.4byte	.LVL618
 10105 1d7e CF170000 		.4byte	0x17cf
 10106 1d82 1B       		.uleb128 0x1b
 10107 1d83 01       		.uleb128 0x1
 10108 1d84 50       		.byte	0x50
 10109 1d85 02       		.uleb128 0x2
 10110 1d86 08       		.byte	0x8
 10111 1d87 64       		.byte	0x64
 10112 1d88 1B       		.uleb128 0x1b
 10113 1d89 01       		.uleb128 0x1
 10114 1d8a 51       		.byte	0x51
 10115 1d8b 01       		.uleb128 0x1
 10116 1d8c 31       		.byte	0x31
 10117 1d8d 1B       		.uleb128 0x1b
 10118 1d8e 01       		.uleb128 0x1
 10119 1d8f 52       		.byte	0x52
 10120 1d90 01       		.uleb128 0x1
 10121 1d91 31       		.byte	0x31
 10122 1d92 00       		.byte	0
 10123 1d93 00       		.byte	0
 10124 1d94 14       		.uleb128 0x14
 10125 1d95 8A020000 		.4byte	.LASF162
 10126 1d99 02       		.byte	0x2
 10127 1d9a 3B03     		.2byte	0x33b
 10128 1d9c 00000000 		.4byte	.LFB111
 10129 1da0 90000000 		.4byte	.LFE111-.LFB111
 10130 1da4 01       		.uleb128 0x1
 10131 1da5 9C       		.byte	0x9c
 10132 1da6 FF1E0000 		.4byte	0x1eff
 10133 1daa 25       		.uleb128 0x25
 10134 1dab FE0E0000 		.4byte	.LASF163
 10135 1daf 02       		.byte	0x2
 10136 1db0 3B03     		.2byte	0x33b
 10137 1db2 B5000000 		.4byte	0xb5
 10138 1db6 27150000 		.4byte	.LLST142
 10139 1dba 25       		.uleb128 0x25
 10140 1dbb 480A0000 		.4byte	.LASF146
 10141 1dbf 02       		.byte	0x2
 10142 1dc0 3B03     		.2byte	0x33b
 10143 1dc2 B5000000 		.4byte	0xb5
 10144 1dc6 48150000 		.4byte	.LLST143
 10145 1dca 19       		.uleb128 0x19
 10146 1dcb 08000000 		.4byte	.LBB58
 10147 1dcf 88000000 		.4byte	.LBE58-.LBB58
 10148 1dd3 17       		.uleb128 0x17
 10149 1dd4 4D0A0000 		.4byte	.LASF164
 10150 1dd8 02       		.byte	0x2
 10151 1dd9 3C03     		.2byte	0x33c
 10152 1ddb B5000000 		.4byte	0xb5
 10153 1ddf 69150000 		.4byte	.LLST144
 10154 1de3 19       		.uleb128 0x19
 10155 1de4 0C000000 		.4byte	.LBB59
 10156 1de8 6E000000 		.4byte	.LBE59-.LBB59
 10157 1dec 17       		.uleb128 0x17
 10158 1ded A70D0000 		.4byte	.LASF165
 10159 1df1 02       		.byte	0x2
 10160 1df2 3D03     		.2byte	0x33d
ARM GAS  C:\Users\FRANKL~1\AppData\Local\Temp\ccLkvCvD.s 			page 216


 10161 1df4 B5000000 		.4byte	0xb5
 10162 1df8 88150000 		.4byte	.LLST145
 10163 1dfc 17       		.uleb128 0x17
 10164 1dfd B00D0000 		.4byte	.LASF166
 10165 1e01 02       		.byte	0x2
 10166 1e02 3E03     		.2byte	0x33e
 10167 1e04 B5000000 		.4byte	0xb5
 10168 1e08 9B150000 		.4byte	.LLST146
 10169 1e0c 17       		.uleb128 0x17
 10170 1e0d 6B0E0000 		.4byte	.LASF167
 10171 1e11 02       		.byte	0x2
 10172 1e12 3F03     		.2byte	0x33f
 10173 1e14 B5000000 		.4byte	0xb5
 10174 1e18 AE150000 		.4byte	.LLST147
 10175 1e1c 17       		.uleb128 0x17
 10176 1e1d 790E0000 		.4byte	.LASF168
 10177 1e21 02       		.byte	0x2
 10178 1e22 4003     		.2byte	0x340
 10179 1e24 B5000000 		.4byte	0xb5
 10180 1e28 C2150000 		.4byte	.LLST148
 10181 1e2c 12       		.uleb128 0x12
 10182 1e2d 14000000 		.4byte	.LVL630
 10183 1e31 E2090000 		.4byte	0x9e2
 10184 1e35 12       		.uleb128 0x12
 10185 1e36 18000000 		.4byte	.LVL631
 10186 1e3a DA150000 		.4byte	0x15da
 10187 1e3e 12       		.uleb128 0x12
 10188 1e3f 1C000000 		.4byte	.LVL632
 10189 1e43 0A0B0000 		.4byte	0xb0a
 10190 1e47 1C       		.uleb128 0x1c
 10191 1e48 24000000 		.4byte	.LVL633
 10192 1e4c E3080000 		.4byte	0x8e3
 10193 1e50 601E0000 		.4byte	0x1e60
 10194 1e54 1B       		.uleb128 0x1b
 10195 1e55 01       		.uleb128 0x1
 10196 1e56 50       		.byte	0x50
 10197 1e57 02       		.uleb128 0x2
 10198 1e58 74       		.byte	0x74
 10199 1e59 00       		.sleb128 0
 10200 1e5a 1B       		.uleb128 0x1b
 10201 1e5b 01       		.uleb128 0x1
 10202 1e5c 51       		.byte	0x51
 10203 1e5d 01       		.uleb128 0x1
 10204 1e5e 31       		.byte	0x31
 10205 1e5f 00       		.byte	0
 10206 1e60 1C       		.uleb128 0x1c
 10207 1e61 2C000000 		.4byte	.LVL634
 10208 1e65 E3080000 		.4byte	0x8e3
 10209 1e69 791E0000 		.4byte	0x1e79
 10210 1e6d 1B       		.uleb128 0x1b
 10211 1e6e 01       		.uleb128 0x1
 10212 1e6f 50       		.byte	0x50
 10213 1e70 02       		.uleb128 0x2
 10214 1e71 76       		.byte	0x76
 10215 1e72 00       		.sleb128 0
 10216 1e73 1B       		.uleb128 0x1b
 10217 1e74 01       		.uleb128 0x1
ARM GAS  C:\Users\FRANKL~1\AppData\Local\Temp\ccLkvCvD.s 			page 217


 10218 1e75 51       		.byte	0x51
 10219 1e76 01       		.uleb128 0x1
 10220 1e77 32       		.byte	0x32
 10221 1e78 00       		.byte	0
 10222 1e79 1C       		.uleb128 0x1c
 10223 1e7a 38000000 		.4byte	.LVL635
 10224 1e7e DB360000 		.4byte	0x36db
 10225 1e82 9C1E0000 		.4byte	0x1e9c
 10226 1e86 1B       		.uleb128 0x1b
 10227 1e87 01       		.uleb128 0x1
 10228 1e88 50       		.byte	0x50
 10229 1e89 02       		.uleb128 0x2
 10230 1e8a 75       		.byte	0x75
 10231 1e8b 00       		.sleb128 0
 10232 1e8c 1B       		.uleb128 0x1b
 10233 1e8d 01       		.uleb128 0x1
 10234 1e8e 51       		.byte	0x51
 10235 1e8f 05       		.uleb128 0x5
 10236 1e90 03       		.byte	0x3
 10237 1e91 F4000000 		.4byte	.LC14
 10238 1e95 1B       		.uleb128 0x1b
 10239 1e96 01       		.uleb128 0x1
 10240 1e97 52       		.byte	0x52
 10241 1e98 02       		.uleb128 0x2
 10242 1e99 74       		.byte	0x74
 10243 1e9a 00       		.sleb128 0
 10244 1e9b 00       		.byte	0
 10245 1e9c 1C       		.uleb128 0x1c
 10246 1e9d 3E000000 		.4byte	.LVL636
 10247 1ea1 A4360000 		.4byte	0x36a4
 10248 1ea5 B01E0000 		.4byte	0x1eb0
 10249 1ea9 1B       		.uleb128 0x1b
 10250 1eaa 01       		.uleb128 0x1
 10251 1eab 50       		.byte	0x50
 10252 1eac 02       		.uleb128 0x2
 10253 1ead 75       		.byte	0x75
 10254 1eae 00       		.sleb128 0
 10255 1eaf 00       		.byte	0
 10256 1eb0 1C       		.uleb128 0x1c
 10257 1eb1 46000000 		.4byte	.LVL637
 10258 1eb5 D1030000 		.4byte	0x3d1
 10259 1eb9 C41E0000 		.4byte	0x1ec4
 10260 1ebd 1B       		.uleb128 0x1b
 10261 1ebe 01       		.uleb128 0x1
 10262 1ebf 50       		.byte	0x50
 10263 1ec0 02       		.uleb128 0x2
 10264 1ec1 75       		.byte	0x75
 10265 1ec2 00       		.sleb128 0
 10266 1ec3 00       		.byte	0
 10267 1ec4 1C       		.uleb128 0x1c
 10268 1ec5 4C000000 		.4byte	.LVL638
 10269 1ec9 BA360000 		.4byte	0x36ba
 10270 1ecd D81E0000 		.4byte	0x1ed8
 10271 1ed1 1B       		.uleb128 0x1b
 10272 1ed2 01       		.uleb128 0x1
 10273 1ed3 50       		.byte	0x50
 10274 1ed4 02       		.uleb128 0x2
ARM GAS  C:\Users\FRANKL~1\AppData\Local\Temp\ccLkvCvD.s 			page 218


 10275 1ed5 75       		.byte	0x75
 10276 1ed6 00       		.sleb128 0
 10277 1ed7 00       		.byte	0
 10278 1ed8 1C       		.uleb128 0x1c
 10279 1ed9 54000000 		.4byte	.LVL639
 10280 1edd 941B0000 		.4byte	0x1b94
 10281 1ee1 EC1E0000 		.4byte	0x1eec
 10282 1ee5 1B       		.uleb128 0x1b
 10283 1ee6 01       		.uleb128 0x1
 10284 1ee7 50       		.byte	0x50
 10285 1ee8 02       		.uleb128 0x2
 10286 1ee9 78       		.byte	0x78
 10287 1eea 00       		.sleb128 0
 10288 1eeb 00       		.byte	0
 10289 1eec 1A       		.uleb128 0x1a
 10290 1eed 5C000000 		.4byte	.LVL640
 10291 1ef1 8F1A0000 		.4byte	0x1a8f
 10292 1ef5 1B       		.uleb128 0x1b
 10293 1ef6 01       		.uleb128 0x1
 10294 1ef7 50       		.byte	0x50
 10295 1ef8 02       		.uleb128 0x2
 10296 1ef9 78       		.byte	0x78
 10297 1efa 00       		.sleb128 0
 10298 1efb 00       		.byte	0
 10299 1efc 00       		.byte	0
 10300 1efd 00       		.byte	0
 10301 1efe 00       		.byte	0
 10302 1eff 14       		.uleb128 0x14
 10303 1f00 510B0000 		.4byte	.LASF169
 10304 1f04 02       		.byte	0x2
 10305 1f05 5703     		.2byte	0x357
 10306 1f07 00000000 		.4byte	.LFB112
 10307 1f0b A4000000 		.4byte	.LFE112-.LFB112
 10308 1f0f 01       		.uleb128 0x1
 10309 1f10 9C       		.byte	0x9c
 10310 1f11 8A200000 		.4byte	0x208a
 10311 1f15 25       		.uleb128 0x25
 10312 1f16 230B0000 		.4byte	.LASF170
 10313 1f1a 02       		.byte	0x2
 10314 1f1b 5703     		.2byte	0x357
 10315 1f1d B5000000 		.4byte	0xb5
 10316 1f21 D6150000 		.4byte	.LLST149
 10317 1f25 25       		.uleb128 0x25
 10318 1f26 DE0A0000 		.4byte	.LASF171
 10319 1f2a 02       		.byte	0x2
 10320 1f2b 5703     		.2byte	0x357
 10321 1f2d B5000000 		.4byte	0xb5
 10322 1f31 02160000 		.4byte	.LLST150
 10323 1f35 25       		.uleb128 0x25
 10324 1f36 FE0E0000 		.4byte	.LASF163
 10325 1f3a 02       		.byte	0x2
 10326 1f3b 5703     		.2byte	0x357
 10327 1f3d B5000000 		.4byte	0xb5
 10328 1f41 2E160000 		.4byte	.LLST151
 10329 1f45 25       		.uleb128 0x25
 10330 1f46 480A0000 		.4byte	.LASF146
 10331 1f4a 02       		.byte	0x2
ARM GAS  C:\Users\FRANKL~1\AppData\Local\Temp\ccLkvCvD.s 			page 219


 10332 1f4b 5703     		.2byte	0x357
 10333 1f4d B5000000 		.4byte	0xb5
 10334 1f51 5A160000 		.4byte	.LLST152
 10335 1f55 19       		.uleb128 0x19
 10336 1f56 18000000 		.4byte	.LBB60
 10337 1f5a 8C000000 		.4byte	.LBE60-.LBB60
 10338 1f5e 17       		.uleb128 0x17
 10339 1f5f 4D0A0000 		.4byte	.LASF164
 10340 1f63 02       		.byte	0x2
 10341 1f64 5B03     		.2byte	0x35b
 10342 1f66 B5000000 		.4byte	0xb5
 10343 1f6a 86160000 		.4byte	.LLST153
 10344 1f6e 19       		.uleb128 0x19
 10345 1f6f 18000000 		.4byte	.LBB61
 10346 1f73 72000000 		.4byte	.LBE61-.LBB61
 10347 1f77 17       		.uleb128 0x17
 10348 1f78 A70D0000 		.4byte	.LASF165
 10349 1f7c 02       		.byte	0x2
 10350 1f7d 5C03     		.2byte	0x35c
 10351 1f7f B5000000 		.4byte	0xb5
 10352 1f83 99160000 		.4byte	.LLST154
 10353 1f87 17       		.uleb128 0x17
 10354 1f88 B00D0000 		.4byte	.LASF166
 10355 1f8c 02       		.byte	0x2
 10356 1f8d 5D03     		.2byte	0x35d
 10357 1f8f B5000000 		.4byte	0xb5
 10358 1f93 AC160000 		.4byte	.LLST155
 10359 1f97 17       		.uleb128 0x17
 10360 1f98 6B0E0000 		.4byte	.LASF167
 10361 1f9c 02       		.byte	0x2
 10362 1f9d 5E03     		.2byte	0x35e
 10363 1f9f B5000000 		.4byte	0xb5
 10364 1fa3 BF160000 		.4byte	.LLST156
 10365 1fa7 17       		.uleb128 0x17
 10366 1fa8 790E0000 		.4byte	.LASF168
 10367 1fac 02       		.byte	0x2
 10368 1fad 5F03     		.2byte	0x35f
 10369 1faf B5000000 		.4byte	0xb5
 10370 1fb3 D3160000 		.4byte	.LLST157
 10371 1fb7 12       		.uleb128 0x12
 10372 1fb8 20000000 		.4byte	.LVL646
 10373 1fbc E2090000 		.4byte	0x9e2
 10374 1fc0 12       		.uleb128 0x12
 10375 1fc1 24000000 		.4byte	.LVL647
 10376 1fc5 DA150000 		.4byte	0x15da
 10377 1fc9 12       		.uleb128 0x12
 10378 1fca 28000000 		.4byte	.LVL648
 10379 1fce 0A0B0000 		.4byte	0xb0a
 10380 1fd2 1C       		.uleb128 0x1c
 10381 1fd3 30000000 		.4byte	.LVL649
 10382 1fd7 E3080000 		.4byte	0x8e3
 10383 1fdb EB1F0000 		.4byte	0x1feb
 10384 1fdf 1B       		.uleb128 0x1b
 10385 1fe0 01       		.uleb128 0x1
 10386 1fe1 50       		.byte	0x50
 10387 1fe2 02       		.uleb128 0x2
 10388 1fe3 74       		.byte	0x74
ARM GAS  C:\Users\FRANKL~1\AppData\Local\Temp\ccLkvCvD.s 			page 220


 10389 1fe4 00       		.sleb128 0
 10390 1fe5 1B       		.uleb128 0x1b
 10391 1fe6 01       		.uleb128 0x1
 10392 1fe7 51       		.byte	0x51
 10393 1fe8 01       		.uleb128 0x1
 10394 1fe9 31       		.byte	0x31
 10395 1fea 00       		.byte	0
 10396 1feb 1C       		.uleb128 0x1c
 10397 1fec 38000000 		.4byte	.LVL650
 10398 1ff0 E3080000 		.4byte	0x8e3
 10399 1ff4 04200000 		.4byte	0x2004
 10400 1ff8 1B       		.uleb128 0x1b
 10401 1ff9 01       		.uleb128 0x1
 10402 1ffa 50       		.byte	0x50
 10403 1ffb 02       		.uleb128 0x2
 10404 1ffc 76       		.byte	0x76
 10405 1ffd 00       		.sleb128 0
 10406 1ffe 1B       		.uleb128 0x1b
 10407 1fff 01       		.uleb128 0x1
 10408 2000 51       		.byte	0x51
 10409 2001 01       		.uleb128 0x1
 10410 2002 32       		.byte	0x32
 10411 2003 00       		.byte	0
 10412 2004 1C       		.uleb128 0x1c
 10413 2005 44000000 		.4byte	.LVL651
 10414 2009 DB360000 		.4byte	0x36db
 10415 200d 27200000 		.4byte	0x2027
 10416 2011 1B       		.uleb128 0x1b
 10417 2012 01       		.uleb128 0x1
 10418 2013 50       		.byte	0x50
 10419 2014 02       		.uleb128 0x2
 10420 2015 75       		.byte	0x75
 10421 2016 00       		.sleb128 0
 10422 2017 1B       		.uleb128 0x1b
 10423 2018 01       		.uleb128 0x1
 10424 2019 51       		.byte	0x51
 10425 201a 05       		.uleb128 0x5
 10426 201b 03       		.byte	0x3
 10427 201c F4000000 		.4byte	.LC14
 10428 2020 1B       		.uleb128 0x1b
 10429 2021 01       		.uleb128 0x1
 10430 2022 52       		.byte	0x52
 10431 2023 02       		.uleb128 0x2
 10432 2024 74       		.byte	0x74
 10433 2025 00       		.sleb128 0
 10434 2026 00       		.byte	0
 10435 2027 1C       		.uleb128 0x1c
 10436 2028 4A000000 		.4byte	.LVL652
 10437 202c A4360000 		.4byte	0x36a4
 10438 2030 3B200000 		.4byte	0x203b
 10439 2034 1B       		.uleb128 0x1b
 10440 2035 01       		.uleb128 0x1
 10441 2036 50       		.byte	0x50
 10442 2037 02       		.uleb128 0x2
 10443 2038 75       		.byte	0x75
 10444 2039 00       		.sleb128 0
 10445 203a 00       		.byte	0
ARM GAS  C:\Users\FRANKL~1\AppData\Local\Temp\ccLkvCvD.s 			page 221


 10446 203b 1C       		.uleb128 0x1c
 10447 203c 52000000 		.4byte	.LVL653
 10448 2040 D1030000 		.4byte	0x3d1
 10449 2044 4F200000 		.4byte	0x204f
 10450 2048 1B       		.uleb128 0x1b
 10451 2049 01       		.uleb128 0x1
 10452 204a 50       		.byte	0x50
 10453 204b 02       		.uleb128 0x2
 10454 204c 75       		.byte	0x75
 10455 204d 00       		.sleb128 0
 10456 204e 00       		.byte	0
 10457 204f 1C       		.uleb128 0x1c
 10458 2050 58000000 		.4byte	.LVL654
 10459 2054 BA360000 		.4byte	0x36ba
 10460 2058 63200000 		.4byte	0x2063
 10461 205c 1B       		.uleb128 0x1b
 10462 205d 01       		.uleb128 0x1
 10463 205e 50       		.byte	0x50
 10464 205f 02       		.uleb128 0x2
 10465 2060 75       		.byte	0x75
 10466 2061 00       		.sleb128 0
 10467 2062 00       		.byte	0
 10468 2063 1C       		.uleb128 0x1c
 10469 2064 64000000 		.4byte	.LVL655
 10470 2068 941B0000 		.4byte	0x1b94
 10471 206c 77200000 		.4byte	0x2077
 10472 2070 1B       		.uleb128 0x1b
 10473 2071 01       		.uleb128 0x1
 10474 2072 50       		.byte	0x50
 10475 2073 02       		.uleb128 0x2
 10476 2074 79       		.byte	0x79
 10477 2075 00       		.sleb128 0
 10478 2076 00       		.byte	0
 10479 2077 1A       		.uleb128 0x1a
 10480 2078 6C000000 		.4byte	.LVL656
 10481 207c 8F1A0000 		.4byte	0x1a8f
 10482 2080 1B       		.uleb128 0x1b
 10483 2081 01       		.uleb128 0x1
 10484 2082 50       		.byte	0x50
 10485 2083 02       		.uleb128 0x2
 10486 2084 79       		.byte	0x79
 10487 2085 00       		.sleb128 0
 10488 2086 00       		.byte	0
 10489 2087 00       		.byte	0
 10490 2088 00       		.byte	0
 10491 2089 00       		.byte	0
 10492 208a 2C       		.uleb128 0x2c
 10493 208b 60020000 		.4byte	.LASF253
 10494 208f 02       		.byte	0x2
 10495 2090 BC03     		.2byte	0x3bc
 10496 2092 33000000 		.4byte	0x33
 10497 2096 00000000 		.4byte	.LFB114
 10498 209a E4080000 		.4byte	.LFE114-.LFB114
 10499 209e 01       		.uleb128 0x1
 10500 209f 9C       		.byte	0x9c
 10501 20a0 81340000 		.4byte	0x3481
 10502 20a4 15       		.uleb128 0x15
ARM GAS  C:\Users\FRANKL~1\AppData\Local\Temp\ccLkvCvD.s 			page 222


 10503 20a5 84000000 		.4byte	.LBB62
 10504 20a9 60080000 		.4byte	.LBE62-.LBB62
 10505 20ad 9B330000 		.4byte	0x339b
 10506 20b1 17       		.uleb128 0x17
 10507 20b2 B2090000 		.4byte	.LASF41
 10508 20b6 02       		.byte	0x2
 10509 20b7 E303     		.2byte	0x3e3
 10510 20b9 92000000 		.4byte	0x92
 10511 20bd E7160000 		.4byte	.LLST158
 10512 20c1 15       		.uleb128 0x15
 10513 20c2 BE000000 		.4byte	.LBB63
 10514 20c6 18000000 		.4byte	.LBE63-.LBB63
 10515 20ca 28210000 		.4byte	0x2128
 10516 20ce 16       		.uleb128 0x16
 10517 20cf 52060000 		.4byte	.LASF172
 10518 20d3 02       		.byte	0x2
 10519 20d4 EC03     		.2byte	0x3ec
 10520 20d6 92000000 		.4byte	0x92
 10521 20da 02       		.uleb128 0x2
 10522 20db 91       		.byte	0x91
 10523 20dc 64       		.sleb128 -28
 10524 20dd 18       		.uleb128 0x18
 10525 20de 6E00     		.ascii	"n\000"
 10526 20e0 02       		.byte	0x2
 10527 20e1 ED03     		.2byte	0x3ed
 10528 20e3 CD000000 		.4byte	0xcd
 10529 20e7 AF170000 		.4byte	.LLST159
 10530 20eb 1C       		.uleb128 0x1c
 10531 20ec C6000000 		.4byte	.LVL682
 10532 20f0 AC370000 		.4byte	0x37ac
 10533 20f4 05210000 		.4byte	0x2105
 10534 20f8 1B       		.uleb128 0x1b
 10535 20f9 01       		.uleb128 0x1
 10536 20fa 50       		.byte	0x50
 10537 20fb 02       		.uleb128 0x2
 10538 20fc 74       		.byte	0x74
 10539 20fd 00       		.sleb128 0
 10540 20fe 1B       		.uleb128 0x1b
 10541 20ff 01       		.uleb128 0x1
 10542 2100 51       		.byte	0x51
 10543 2101 02       		.uleb128 0x2
 10544 2102 08       		.byte	0x8
 10545 2103 20       		.byte	0x20
 10546 2104 00       		.byte	0
 10547 2105 1C       		.uleb128 0x1c
 10548 2106 D2000000 		.4byte	.LVL683
 10549 210a BB370000 		.4byte	0x37bb
 10550 210e 1E210000 		.4byte	0x211e
 10551 2112 1B       		.uleb128 0x1b
 10552 2113 01       		.uleb128 0x1
 10553 2114 51       		.byte	0x51
 10554 2115 02       		.uleb128 0x2
 10555 2116 91       		.byte	0x91
 10556 2117 64       		.sleb128 -28
 10557 2118 1B       		.uleb128 0x1b
 10558 2119 01       		.uleb128 0x1
 10559 211a 52       		.byte	0x52
ARM GAS  C:\Users\FRANKL~1\AppData\Local\Temp\ccLkvCvD.s 			page 223


 10560 211b 01       		.uleb128 0x1
 10561 211c 3A       		.byte	0x3a
 10562 211d 00       		.byte	0
 10563 211e 12       		.uleb128 0x12
 10564 211f D6000000 		.4byte	.LVL684
 10565 2123 B1190000 		.4byte	0x19b1
 10566 2127 00       		.byte	0
 10567 2128 15       		.uleb128 0x15
 10568 2129 34010000 		.4byte	.LBB64
 10569 212d 1A000000 		.4byte	.LBE64-.LBB64
 10570 2131 91210000 		.4byte	0x2191
 10571 2135 16       		.uleb128 0x16
 10572 2136 52060000 		.4byte	.LASF172
 10573 213a 02       		.byte	0x2
 10574 213b FE03     		.2byte	0x3fe
 10575 213d 92000000 		.4byte	0x92
 10576 2141 02       		.uleb128 0x2
 10577 2142 91       		.byte	0x91
 10578 2143 64       		.sleb128 -28
 10579 2144 17       		.uleb128 0x17
 10580 2145 41080000 		.4byte	.LASF173
 10581 2149 02       		.byte	0x2
 10582 214a FF03     		.2byte	0x3ff
 10583 214c B5000000 		.4byte	0xb5
 10584 2150 C2170000 		.4byte	.LLST160
 10585 2154 1C       		.uleb128 0x1c
 10586 2155 3C010000 		.4byte	.LVL694
 10587 2159 AC370000 		.4byte	0x37ac
 10588 215d 6E210000 		.4byte	0x216e
 10589 2161 1B       		.uleb128 0x1b
 10590 2162 01       		.uleb128 0x1
 10591 2163 50       		.byte	0x50
 10592 2164 02       		.uleb128 0x2
 10593 2165 74       		.byte	0x74
 10594 2166 00       		.sleb128 0
 10595 2167 1B       		.uleb128 0x1b
 10596 2168 01       		.uleb128 0x1
 10597 2169 51       		.byte	0x51
 10598 216a 02       		.uleb128 0x2
 10599 216b 08       		.byte	0x8
 10600 216c 20       		.byte	0x20
 10601 216d 00       		.byte	0
 10602 216e 1C       		.uleb128 0x1c
 10603 216f 48010000 		.4byte	.LVL695
 10604 2173 BB370000 		.4byte	0x37bb
 10605 2177 87210000 		.4byte	0x2187
 10606 217b 1B       		.uleb128 0x1b
 10607 217c 01       		.uleb128 0x1
 10608 217d 51       		.byte	0x51
 10609 217e 02       		.uleb128 0x2
 10610 217f 91       		.byte	0x91
 10611 2180 64       		.sleb128 -28
 10612 2181 1B       		.uleb128 0x1b
 10613 2182 01       		.uleb128 0x1
 10614 2183 52       		.byte	0x52
 10615 2184 01       		.uleb128 0x1
 10616 2185 3A       		.byte	0x3a
ARM GAS  C:\Users\FRANKL~1\AppData\Local\Temp\ccLkvCvD.s 			page 224


 10617 2186 00       		.byte	0
 10618 2187 12       		.uleb128 0x12
 10619 2188 4E010000 		.4byte	.LVL696
 10620 218c FF110000 		.4byte	0x11ff
 10621 2190 00       		.byte	0
 10622 2191 15       		.uleb128 0x15
 10623 2192 5C010000 		.4byte	.LBB65
 10624 2196 1A000000 		.4byte	.LBE65-.LBB65
 10625 219a FA210000 		.4byte	0x21fa
 10626 219e 16       		.uleb128 0x16
 10627 219f 52060000 		.4byte	.LASF172
 10628 21a3 02       		.byte	0x2
 10629 21a4 0404     		.2byte	0x404
 10630 21a6 92000000 		.4byte	0x92
 10631 21aa 02       		.uleb128 0x2
 10632 21ab 91       		.byte	0x91
 10633 21ac 64       		.sleb128 -28
 10634 21ad 17       		.uleb128 0x17
 10635 21ae BA0E0000 		.4byte	.LASF174
 10636 21b2 02       		.byte	0x2
 10637 21b3 0504     		.2byte	0x405
 10638 21b5 B5000000 		.4byte	0xb5
 10639 21b9 D5170000 		.4byte	.LLST161
 10640 21bd 1C       		.uleb128 0x1c
 10641 21be 64010000 		.4byte	.LVL698
 10642 21c2 AC370000 		.4byte	0x37ac
 10643 21c6 D7210000 		.4byte	0x21d7
 10644 21ca 1B       		.uleb128 0x1b
 10645 21cb 01       		.uleb128 0x1
 10646 21cc 50       		.byte	0x50
 10647 21cd 02       		.uleb128 0x2
 10648 21ce 74       		.byte	0x74
 10649 21cf 00       		.sleb128 0
 10650 21d0 1B       		.uleb128 0x1b
 10651 21d1 01       		.uleb128 0x1
 10652 21d2 51       		.byte	0x51
 10653 21d3 02       		.uleb128 0x2
 10654 21d4 08       		.byte	0x8
 10655 21d5 20       		.byte	0x20
 10656 21d6 00       		.byte	0
 10657 21d7 1C       		.uleb128 0x1c
 10658 21d8 70010000 		.4byte	.LVL699
 10659 21dc BB370000 		.4byte	0x37bb
 10660 21e0 F0210000 		.4byte	0x21f0
 10661 21e4 1B       		.uleb128 0x1b
 10662 21e5 01       		.uleb128 0x1
 10663 21e6 51       		.byte	0x51
 10664 21e7 02       		.uleb128 0x2
 10665 21e8 91       		.byte	0x91
 10666 21e9 64       		.sleb128 -28
 10667 21ea 1B       		.uleb128 0x1b
 10668 21eb 01       		.uleb128 0x1
 10669 21ec 52       		.byte	0x52
 10670 21ed 01       		.uleb128 0x1
 10671 21ee 3A       		.byte	0x3a
 10672 21ef 00       		.byte	0
 10673 21f0 12       		.uleb128 0x12
ARM GAS  C:\Users\FRANKL~1\AppData\Local\Temp\ccLkvCvD.s 			page 225


 10674 21f1 76010000 		.4byte	.LVL700
 10675 21f5 40110000 		.4byte	0x1140
 10676 21f9 00       		.byte	0
 10677 21fa 15       		.uleb128 0x15
 10678 21fb 84010000 		.4byte	.LBB66
 10679 21ff 1A000000 		.4byte	.LBE66-.LBB66
 10680 2203 63220000 		.4byte	0x2263
 10681 2207 16       		.uleb128 0x16
 10682 2208 52060000 		.4byte	.LASF172
 10683 220c 02       		.byte	0x2
 10684 220d 0A04     		.2byte	0x40a
 10685 220f 92000000 		.4byte	0x92
 10686 2213 02       		.uleb128 0x2
 10687 2214 91       		.byte	0x91
 10688 2215 64       		.sleb128 -28
 10689 2216 17       		.uleb128 0x17
 10690 2217 41080000 		.4byte	.LASF173
 10691 221b 02       		.byte	0x2
 10692 221c 0B04     		.2byte	0x40b
 10693 221e D9000000 		.4byte	0xd9
 10694 2222 E8170000 		.4byte	.LLST162
 10695 2226 1C       		.uleb128 0x1c
 10696 2227 8C010000 		.4byte	.LVL702
 10697 222b AC370000 		.4byte	0x37ac
 10698 222f 40220000 		.4byte	0x2240
 10699 2233 1B       		.uleb128 0x1b
 10700 2234 01       		.uleb128 0x1
 10701 2235 50       		.byte	0x50
 10702 2236 02       		.uleb128 0x2
 10703 2237 74       		.byte	0x74
 10704 2238 00       		.sleb128 0
 10705 2239 1B       		.uleb128 0x1b
 10706 223a 01       		.uleb128 0x1
 10707 223b 51       		.byte	0x51
 10708 223c 02       		.uleb128 0x2
 10709 223d 08       		.byte	0x8
 10710 223e 20       		.byte	0x20
 10711 223f 00       		.byte	0
 10712 2240 1C       		.uleb128 0x1c
 10713 2241 98010000 		.4byte	.LVL703
 10714 2245 BB370000 		.4byte	0x37bb
 10715 2249 59220000 		.4byte	0x2259
 10716 224d 1B       		.uleb128 0x1b
 10717 224e 01       		.uleb128 0x1
 10718 224f 51       		.byte	0x51
 10719 2250 02       		.uleb128 0x2
 10720 2251 91       		.byte	0x91
 10721 2252 64       		.sleb128 -28
 10722 2253 1B       		.uleb128 0x1b
 10723 2254 01       		.uleb128 0x1
 10724 2255 52       		.byte	0x52
 10725 2256 01       		.uleb128 0x1
 10726 2257 3A       		.byte	0x3a
 10727 2258 00       		.byte	0
 10728 2259 12       		.uleb128 0x12
 10729 225a 9E010000 		.4byte	.LVL704
 10730 225e 4A140000 		.4byte	0x144a
ARM GAS  C:\Users\FRANKL~1\AppData\Local\Temp\ccLkvCvD.s 			page 226


 10731 2262 00       		.byte	0
 10732 2263 15       		.uleb128 0x15
 10733 2264 AC010000 		.4byte	.LBB67
 10734 2268 1A000000 		.4byte	.LBE67-.LBB67
 10735 226c CC220000 		.4byte	0x22cc
 10736 2270 16       		.uleb128 0x16
 10737 2271 52060000 		.4byte	.LASF172
 10738 2275 02       		.byte	0x2
 10739 2276 1004     		.2byte	0x410
 10740 2278 92000000 		.4byte	0x92
 10741 227c 02       		.uleb128 0x2
 10742 227d 91       		.byte	0x91
 10743 227e 64       		.sleb128 -28
 10744 227f 17       		.uleb128 0x17
 10745 2280 BA0E0000 		.4byte	.LASF174
 10746 2284 02       		.byte	0x2
 10747 2285 1104     		.2byte	0x411
 10748 2287 D9000000 		.4byte	0xd9
 10749 228b FB170000 		.4byte	.LLST163
 10750 228f 1C       		.uleb128 0x1c
 10751 2290 B4010000 		.4byte	.LVL706
 10752 2294 AC370000 		.4byte	0x37ac
 10753 2298 A9220000 		.4byte	0x22a9
 10754 229c 1B       		.uleb128 0x1b
 10755 229d 01       		.uleb128 0x1
 10756 229e 50       		.byte	0x50
 10757 229f 02       		.uleb128 0x2
 10758 22a0 74       		.byte	0x74
 10759 22a1 00       		.sleb128 0
 10760 22a2 1B       		.uleb128 0x1b
 10761 22a3 01       		.uleb128 0x1
 10762 22a4 51       		.byte	0x51
 10763 22a5 02       		.uleb128 0x2
 10764 22a6 08       		.byte	0x8
 10765 22a7 20       		.byte	0x20
 10766 22a8 00       		.byte	0
 10767 22a9 1C       		.uleb128 0x1c
 10768 22aa C0010000 		.4byte	.LVL707
 10769 22ae BB370000 		.4byte	0x37bb
 10770 22b2 C2220000 		.4byte	0x22c2
 10771 22b6 1B       		.uleb128 0x1b
 10772 22b7 01       		.uleb128 0x1
 10773 22b8 51       		.byte	0x51
 10774 22b9 02       		.uleb128 0x2
 10775 22ba 91       		.byte	0x91
 10776 22bb 64       		.sleb128 -28
 10777 22bc 1B       		.uleb128 0x1b
 10778 22bd 01       		.uleb128 0x1
 10779 22be 52       		.byte	0x52
 10780 22bf 01       		.uleb128 0x1
 10781 22c0 3A       		.byte	0x3a
 10782 22c1 00       		.byte	0
 10783 22c2 12       		.uleb128 0x12
 10784 22c3 C6010000 		.4byte	.LVL708
 10785 22c7 78130000 		.4byte	0x1378
 10786 22cb 00       		.byte	0
 10787 22cc 15       		.uleb128 0x15
ARM GAS  C:\Users\FRANKL~1\AppData\Local\Temp\ccLkvCvD.s 			page 227


 10788 22cd D4010000 		.4byte	.LBB68
 10789 22d1 1C000000 		.4byte	.LBE68-.LBB68
 10790 22d5 45230000 		.4byte	0x2345
 10791 22d9 17       		.uleb128 0x17
 10792 22da 52060000 		.4byte	.LASF172
 10793 22de 02       		.byte	0x2
 10794 22df 1604     		.2byte	0x416
 10795 22e1 92000000 		.4byte	0x92
 10796 22e5 0E180000 		.4byte	.LLST164
 10797 22e9 2D       		.uleb128 0x2d
 10798 22ea 76677300 		.ascii	"vgs\000"
 10799 22ee 02       		.byte	0x2
 10800 22ef 1704     		.2byte	0x417
 10801 22f1 25000000 		.4byte	0x25
 10802 22f5 02       		.uleb128 0x2
 10803 22f6 91       		.byte	0x91
 10804 22f7 64       		.sleb128 -28
 10805 22f8 2A       		.uleb128 0x2a
 10806 22f9 80090000 		.4byte	.LASF175
 10807 22fd 02       		.byte	0x2
 10808 22fe 1804     		.2byte	0x418
 10809 2300 D9000000 		.4byte	0xd9
 10810 2304 1C       		.uleb128 0x1c
 10811 2305 DC010000 		.4byte	.LVL710
 10812 2309 AC370000 		.4byte	0x37ac
 10813 230d 1E230000 		.4byte	0x231e
 10814 2311 1B       		.uleb128 0x1b
 10815 2312 01       		.uleb128 0x1
 10816 2313 50       		.byte	0x50
 10817 2314 02       		.uleb128 0x2
 10818 2315 74       		.byte	0x74
 10819 2316 00       		.sleb128 0
 10820 2317 1B       		.uleb128 0x1b
 10821 2318 01       		.uleb128 0x1
 10822 2319 51       		.byte	0x51
 10823 231a 02       		.uleb128 0x2
 10824 231b 08       		.byte	0x8
 10825 231c 20       		.byte	0x20
 10826 231d 00       		.byte	0
 10827 231e 1C       		.uleb128 0x1c
 10828 231f EA010000 		.4byte	.LVL711
 10829 2323 C6370000 		.4byte	0x37c6
 10830 2327 3B230000 		.4byte	0x233b
 10831 232b 1B       		.uleb128 0x1b
 10832 232c 01       		.uleb128 0x1
 10833 232d 51       		.byte	0x51
 10834 232e 05       		.uleb128 0x5
 10835 232f 03       		.byte	0x3
 10836 2330 CC010000 		.4byte	.LC27
 10837 2334 1B       		.uleb128 0x1b
 10838 2335 01       		.uleb128 0x1
 10839 2336 52       		.byte	0x52
 10840 2337 02       		.uleb128 0x2
 10841 2338 91       		.byte	0x91
 10842 2339 64       		.sleb128 -28
 10843 233a 00       		.byte	0
 10844 233b 12       		.uleb128 0x12
ARM GAS  C:\Users\FRANKL~1\AppData\Local\Temp\ccLkvCvD.s 			page 228


 10845 233c F0010000 		.4byte	.LVL712
 10846 2340 1C150000 		.4byte	0x151c
 10847 2344 00       		.byte	0
 10848 2345 15       		.uleb128 0x15
 10849 2346 FE010000 		.4byte	.LBB69
 10850 234a 1C000000 		.4byte	.LBE69-.LBB69
 10851 234e BE230000 		.4byte	0x23be
 10852 2352 17       		.uleb128 0x17
 10853 2353 52060000 		.4byte	.LASF172
 10854 2357 02       		.byte	0x2
 10855 2358 1D04     		.2byte	0x41d
 10856 235a 92000000 		.4byte	0x92
 10857 235e 21180000 		.4byte	.LLST165
 10858 2362 2D       		.uleb128 0x2d
 10859 2363 76647300 		.ascii	"vds\000"
 10860 2367 02       		.byte	0x2
 10861 2368 1E04     		.2byte	0x41e
 10862 236a 25000000 		.4byte	0x25
 10863 236e 02       		.uleb128 0x2
 10864 236f 91       		.byte	0x91
 10865 2370 64       		.sleb128 -28
 10866 2371 2A       		.uleb128 0x2a
 10867 2372 80090000 		.4byte	.LASF175
 10868 2376 02       		.byte	0x2
 10869 2377 1F04     		.2byte	0x41f
 10870 2379 D9000000 		.4byte	0xd9
 10871 237d 1C       		.uleb128 0x1c
 10872 237e 06020000 		.4byte	.LVL714
 10873 2382 AC370000 		.4byte	0x37ac
 10874 2386 97230000 		.4byte	0x2397
 10875 238a 1B       		.uleb128 0x1b
 10876 238b 01       		.uleb128 0x1
 10877 238c 50       		.byte	0x50
 10878 238d 02       		.uleb128 0x2
 10879 238e 74       		.byte	0x74
 10880 238f 00       		.sleb128 0
 10881 2390 1B       		.uleb128 0x1b
 10882 2391 01       		.uleb128 0x1
 10883 2392 51       		.byte	0x51
 10884 2393 02       		.uleb128 0x2
 10885 2394 08       		.byte	0x8
 10886 2395 20       		.byte	0x20
 10887 2396 00       		.byte	0
 10888 2397 1C       		.uleb128 0x1c
 10889 2398 14020000 		.4byte	.LVL715
 10890 239c C6370000 		.4byte	0x37c6
 10891 23a0 B4230000 		.4byte	0x23b4
 10892 23a4 1B       		.uleb128 0x1b
 10893 23a5 01       		.uleb128 0x1
 10894 23a6 51       		.byte	0x51
 10895 23a7 05       		.uleb128 0x5
 10896 23a8 03       		.byte	0x3
 10897 23a9 CC010000 		.4byte	.LC27
 10898 23ad 1B       		.uleb128 0x1b
 10899 23ae 01       		.uleb128 0x1
 10900 23af 52       		.byte	0x52
 10901 23b0 02       		.uleb128 0x2
ARM GAS  C:\Users\FRANKL~1\AppData\Local\Temp\ccLkvCvD.s 			page 229


 10902 23b1 91       		.byte	0x91
 10903 23b2 64       		.sleb128 -28
 10904 23b3 00       		.byte	0
 10905 23b4 12       		.uleb128 0x12
 10906 23b5 1A020000 		.4byte	.LVL716
 10907 23b9 4C150000 		.4byte	0x154c
 10908 23bd 00       		.byte	0
 10909 23be 15       		.uleb128 0x15
 10910 23bf 28020000 		.4byte	.LBB70
 10911 23c3 46000000 		.4byte	.LBE70-.LBB70
 10912 23c7 88240000 		.4byte	0x2488
 10913 23cb 16       		.uleb128 0x16
 10914 23cc 52060000 		.4byte	.LASF172
 10915 23d0 02       		.byte	0x2
 10916 23d1 2404     		.2byte	0x424
 10917 23d3 92000000 		.4byte	0x92
 10918 23d7 02       		.uleb128 0x2
 10919 23d8 91       		.byte	0x91
 10920 23d9 64       		.sleb128 -28
 10921 23da 17       		.uleb128 0x17
 10922 23db E8030000 		.4byte	.LASF176
 10923 23df 02       		.byte	0x2
 10924 23e0 2504     		.2byte	0x425
 10925 23e2 25000000 		.4byte	0x25
 10926 23e6 34180000 		.4byte	.LLST166
 10927 23ea 1C       		.uleb128 0x1c
 10928 23eb 30020000 		.4byte	.LVL718
 10929 23ef AC370000 		.4byte	0x37ac
 10930 23f3 04240000 		.4byte	0x2404
 10931 23f7 1B       		.uleb128 0x1b
 10932 23f8 01       		.uleb128 0x1
 10933 23f9 50       		.byte	0x50
 10934 23fa 02       		.uleb128 0x2
 10935 23fb 74       		.byte	0x74
 10936 23fc 00       		.sleb128 0
 10937 23fd 1B       		.uleb128 0x1b
 10938 23fe 01       		.uleb128 0x1
 10939 23ff 51       		.byte	0x51
 10940 2400 02       		.uleb128 0x2
 10941 2401 08       		.byte	0x8
 10942 2402 20       		.byte	0x20
 10943 2403 00       		.byte	0
 10944 2404 1C       		.uleb128 0x1c
 10945 2405 3C020000 		.4byte	.LVL719
 10946 2409 BB370000 		.4byte	0x37bb
 10947 240d 1D240000 		.4byte	0x241d
 10948 2411 1B       		.uleb128 0x1b
 10949 2412 01       		.uleb128 0x1
 10950 2413 51       		.byte	0x51
 10951 2414 02       		.uleb128 0x2
 10952 2415 91       		.byte	0x91
 10953 2416 64       		.sleb128 -28
 10954 2417 1B       		.uleb128 0x1b
 10955 2418 01       		.uleb128 0x1
 10956 2419 52       		.byte	0x52
 10957 241a 01       		.uleb128 0x1
 10958 241b 3A       		.byte	0x3a
ARM GAS  C:\Users\FRANKL~1\AppData\Local\Temp\ccLkvCvD.s 			page 230


 10959 241c 00       		.byte	0
 10960 241d 1C       		.uleb128 0x1c
 10961 241e 46020000 		.4byte	.LVL722
 10962 2422 7C150000 		.4byte	0x157c
 10963 2426 32240000 		.4byte	0x2432
 10964 242a 1B       		.uleb128 0x1b
 10965 242b 01       		.uleb128 0x1
 10966 242c 50       		.byte	0x50
 10967 242d 03       		.uleb128 0x3
 10968 242e F5       		.byte	0xf5
 10969 242f 04       		.uleb128 0x4
 10970 2430 25       		.uleb128 0x25
 10971 2431 00       		.byte	0
 10972 2432 1C       		.uleb128 0x1c
 10973 2433 5A020000 		.4byte	.LVL725
 10974 2437 DB360000 		.4byte	0x36db
 10975 243b 4F240000 		.4byte	0x244f
 10976 243f 1B       		.uleb128 0x1b
 10977 2440 01       		.uleb128 0x1
 10978 2441 50       		.byte	0x50
 10979 2442 02       		.uleb128 0x2
 10980 2443 74       		.byte	0x74
 10981 2444 00       		.sleb128 0
 10982 2445 1B       		.uleb128 0x1b
 10983 2446 01       		.uleb128 0x1
 10984 2447 51       		.byte	0x51
 10985 2448 05       		.uleb128 0x5
 10986 2449 03       		.byte	0x3
 10987 244a E8010000 		.4byte	.LC30
 10988 244e 00       		.byte	0
 10989 244f 1C       		.uleb128 0x1c
 10990 2450 60020000 		.4byte	.LVL726
 10991 2454 A4360000 		.4byte	0x36a4
 10992 2458 63240000 		.4byte	0x2463
 10993 245c 1B       		.uleb128 0x1b
 10994 245d 01       		.uleb128 0x1
 10995 245e 50       		.byte	0x50
 10996 245f 02       		.uleb128 0x2
 10997 2460 74       		.byte	0x74
 10998 2461 00       		.sleb128 0
 10999 2462 00       		.byte	0
 11000 2463 1C       		.uleb128 0x1c
 11001 2464 68020000 		.4byte	.LVL727
 11002 2468 D1030000 		.4byte	0x3d1
 11003 246c 77240000 		.4byte	0x2477
 11004 2470 1B       		.uleb128 0x1b
 11005 2471 01       		.uleb128 0x1
 11006 2472 50       		.byte	0x50
 11007 2473 02       		.uleb128 0x2
 11008 2474 74       		.byte	0x74
 11009 2475 00       		.sleb128 0
 11010 2476 00       		.byte	0
 11011 2477 1A       		.uleb128 0x1a
 11012 2478 6E020000 		.4byte	.LVL728
 11013 247c BA360000 		.4byte	0x36ba
 11014 2480 1B       		.uleb128 0x1b
 11015 2481 01       		.uleb128 0x1
ARM GAS  C:\Users\FRANKL~1\AppData\Local\Temp\ccLkvCvD.s 			page 231


 11016 2482 50       		.byte	0x50
 11017 2483 02       		.uleb128 0x2
 11018 2484 74       		.byte	0x74
 11019 2485 00       		.sleb128 0
 11020 2486 00       		.byte	0
 11021 2487 00       		.byte	0
 11022 2488 15       		.uleb128 0x15
 11023 2489 7C020000 		.4byte	.LBB71
 11024 248d 46000000 		.4byte	.LBE71-.LBB71
 11025 2491 52250000 		.4byte	0x2552
 11026 2495 16       		.uleb128 0x16
 11027 2496 52060000 		.4byte	.LASF172
 11028 249a 02       		.byte	0x2
 11029 249b 2E04     		.2byte	0x42e
 11030 249d 92000000 		.4byte	0x92
 11031 24a1 02       		.uleb128 0x2
 11032 24a2 91       		.byte	0x91
 11033 24a3 64       		.sleb128 -28
 11034 24a4 17       		.uleb128 0x17
 11035 24a5 CF0A0000 		.4byte	.LASF177
 11036 24a9 02       		.byte	0x2
 11037 24aa 2F04     		.2byte	0x42f
 11038 24ac 25000000 		.4byte	0x25
 11039 24b0 52180000 		.4byte	.LLST167
 11040 24b4 1C       		.uleb128 0x1c
 11041 24b5 84020000 		.4byte	.LVL731
 11042 24b9 AC370000 		.4byte	0x37ac
 11043 24bd CE240000 		.4byte	0x24ce
 11044 24c1 1B       		.uleb128 0x1b
 11045 24c2 01       		.uleb128 0x1
 11046 24c3 50       		.byte	0x50
 11047 24c4 02       		.uleb128 0x2
 11048 24c5 74       		.byte	0x74
 11049 24c6 00       		.sleb128 0
 11050 24c7 1B       		.uleb128 0x1b
 11051 24c8 01       		.uleb128 0x1
 11052 24c9 51       		.byte	0x51
 11053 24ca 02       		.uleb128 0x2
 11054 24cb 08       		.byte	0x8
 11055 24cc 20       		.byte	0x20
 11056 24cd 00       		.byte	0
 11057 24ce 1C       		.uleb128 0x1c
 11058 24cf 90020000 		.4byte	.LVL732
 11059 24d3 BB370000 		.4byte	0x37bb
 11060 24d7 E7240000 		.4byte	0x24e7
 11061 24db 1B       		.uleb128 0x1b
 11062 24dc 01       		.uleb128 0x1
 11063 24dd 51       		.byte	0x51
 11064 24de 02       		.uleb128 0x2
 11065 24df 91       		.byte	0x91
 11066 24e0 64       		.sleb128 -28
 11067 24e1 1B       		.uleb128 0x1b
 11068 24e2 01       		.uleb128 0x1
 11069 24e3 52       		.byte	0x52
 11070 24e4 01       		.uleb128 0x1
 11071 24e5 3A       		.byte	0x3a
 11072 24e6 00       		.byte	0
ARM GAS  C:\Users\FRANKL~1\AppData\Local\Temp\ccLkvCvD.s 			page 232


 11073 24e7 1C       		.uleb128 0x1c
 11074 24e8 9A020000 		.4byte	.LVL735
 11075 24ec AB150000 		.4byte	0x15ab
 11076 24f0 FC240000 		.4byte	0x24fc
 11077 24f4 1B       		.uleb128 0x1b
 11078 24f5 01       		.uleb128 0x1
 11079 24f6 50       		.byte	0x50
 11080 24f7 03       		.uleb128 0x3
 11081 24f8 F5       		.byte	0xf5
 11082 24f9 04       		.uleb128 0x4
 11083 24fa 25       		.uleb128 0x25
 11084 24fb 00       		.byte	0
 11085 24fc 1C       		.uleb128 0x1c
 11086 24fd AE020000 		.4byte	.LVL738
 11087 2501 DB360000 		.4byte	0x36db
 11088 2505 19250000 		.4byte	0x2519
 11089 2509 1B       		.uleb128 0x1b
 11090 250a 01       		.uleb128 0x1
 11091 250b 50       		.byte	0x50
 11092 250c 02       		.uleb128 0x2
 11093 250d 74       		.byte	0x74
 11094 250e 00       		.sleb128 0
 11095 250f 1B       		.uleb128 0x1b
 11096 2510 01       		.uleb128 0x1
 11097 2511 51       		.byte	0x51
 11098 2512 05       		.uleb128 0x5
 11099 2513 03       		.byte	0x3
 11100 2514 0C020000 		.4byte	.LC32
 11101 2518 00       		.byte	0
 11102 2519 1C       		.uleb128 0x1c
 11103 251a B4020000 		.4byte	.LVL739
 11104 251e A4360000 		.4byte	0x36a4
 11105 2522 2D250000 		.4byte	0x252d
 11106 2526 1B       		.uleb128 0x1b
 11107 2527 01       		.uleb128 0x1
 11108 2528 50       		.byte	0x50
 11109 2529 02       		.uleb128 0x2
 11110 252a 74       		.byte	0x74
 11111 252b 00       		.sleb128 0
 11112 252c 00       		.byte	0
 11113 252d 1C       		.uleb128 0x1c
 11114 252e BC020000 		.4byte	.LVL740
 11115 2532 D1030000 		.4byte	0x3d1
 11116 2536 41250000 		.4byte	0x2541
 11117 253a 1B       		.uleb128 0x1b
 11118 253b 01       		.uleb128 0x1
 11119 253c 50       		.byte	0x50
 11120 253d 02       		.uleb128 0x2
 11121 253e 74       		.byte	0x74
 11122 253f 00       		.sleb128 0
 11123 2540 00       		.byte	0
 11124 2541 1A       		.uleb128 0x1a
 11125 2542 C2020000 		.4byte	.LVL741
 11126 2546 BA360000 		.4byte	0x36ba
 11127 254a 1B       		.uleb128 0x1b
 11128 254b 01       		.uleb128 0x1
 11129 254c 50       		.byte	0x50
ARM GAS  C:\Users\FRANKL~1\AppData\Local\Temp\ccLkvCvD.s 			page 233


 11130 254d 02       		.uleb128 0x2
 11131 254e 74       		.byte	0x74
 11132 254f 00       		.sleb128 0
 11133 2550 00       		.byte	0
 11134 2551 00       		.byte	0
 11135 2552 15       		.uleb128 0x15
 11136 2553 A4030000 		.4byte	.LBB72
 11137 2557 84000000 		.4byte	.LBE72-.LBB72
 11138 255b 6D260000 		.4byte	0x266d
 11139 255f 16       		.uleb128 0x16
 11140 2560 52060000 		.4byte	.LASF172
 11141 2564 02       		.byte	0x2
 11142 2565 4704     		.2byte	0x447
 11143 2567 92000000 		.4byte	0x92
 11144 256b 02       		.uleb128 0x2
 11145 256c 91       		.byte	0x91
 11146 256d 64       		.sleb128 -28
 11147 256e 17       		.uleb128 0x17
 11148 256f 230B0000 		.4byte	.LASF170
 11149 2573 02       		.byte	0x2
 11150 2574 4804     		.2byte	0x448
 11151 2576 B5000000 		.4byte	0xb5
 11152 257a 70180000 		.4byte	.LLST168
 11153 257e 17       		.uleb128 0x17
 11154 257f DE0A0000 		.4byte	.LASF171
 11155 2583 02       		.byte	0x2
 11156 2584 4904     		.2byte	0x449
 11157 2586 B5000000 		.4byte	0xb5
 11158 258a 83180000 		.4byte	.LLST169
 11159 258e 1C       		.uleb128 0x1c
 11160 258f C2030000 		.4byte	.LVL754
 11161 2593 A4360000 		.4byte	0x36a4
 11162 2597 A2250000 		.4byte	0x25a2
 11163 259b 1B       		.uleb128 0x1b
 11164 259c 01       		.uleb128 0x1
 11165 259d 50       		.byte	0x50
 11166 259e 02       		.uleb128 0x2
 11167 259f 75       		.byte	0x75
 11168 25a0 00       		.sleb128 0
 11169 25a1 00       		.byte	0
 11170 25a2 1C       		.uleb128 0x1c
 11171 25a3 CA030000 		.4byte	.LVL755
 11172 25a7 D1030000 		.4byte	0x3d1
 11173 25ab B6250000 		.4byte	0x25b6
 11174 25af 1B       		.uleb128 0x1b
 11175 25b0 01       		.uleb128 0x1
 11176 25b1 50       		.byte	0x50
 11177 25b2 02       		.uleb128 0x2
 11178 25b3 75       		.byte	0x75
 11179 25b4 00       		.sleb128 0
 11180 25b5 00       		.byte	0
 11181 25b6 1C       		.uleb128 0x1c
 11182 25b7 D0030000 		.4byte	.LVL756
 11183 25bb BA360000 		.4byte	0x36ba
 11184 25bf CA250000 		.4byte	0x25ca
 11185 25c3 1B       		.uleb128 0x1b
 11186 25c4 01       		.uleb128 0x1
ARM GAS  C:\Users\FRANKL~1\AppData\Local\Temp\ccLkvCvD.s 			page 234


 11187 25c5 50       		.byte	0x50
 11188 25c6 02       		.uleb128 0x2
 11189 25c7 75       		.byte	0x75
 11190 25c8 00       		.sleb128 0
 11191 25c9 00       		.byte	0
 11192 25ca 1C       		.uleb128 0x1c
 11193 25cb D8030000 		.4byte	.LVL757
 11194 25cf AC370000 		.4byte	0x37ac
 11195 25d3 E4250000 		.4byte	0x25e4
 11196 25d7 1B       		.uleb128 0x1b
 11197 25d8 01       		.uleb128 0x1
 11198 25d9 50       		.byte	0x50
 11199 25da 02       		.uleb128 0x2
 11200 25db 74       		.byte	0x74
 11201 25dc 00       		.sleb128 0
 11202 25dd 1B       		.uleb128 0x1b
 11203 25de 01       		.uleb128 0x1
 11204 25df 51       		.byte	0x51
 11205 25e0 02       		.uleb128 0x2
 11206 25e1 08       		.byte	0x8
 11207 25e2 20       		.byte	0x20
 11208 25e3 00       		.byte	0
 11209 25e4 1C       		.uleb128 0x1c
 11210 25e5 E6030000 		.4byte	.LVL759
 11211 25e9 BB370000 		.4byte	0x37bb
 11212 25ed FD250000 		.4byte	0x25fd
 11213 25f1 1B       		.uleb128 0x1b
 11214 25f2 01       		.uleb128 0x1
 11215 25f3 51       		.byte	0x51
 11216 25f4 02       		.uleb128 0x2
 11217 25f5 74       		.byte	0x74
 11218 25f6 00       		.sleb128 0
 11219 25f7 1B       		.uleb128 0x1b
 11220 25f8 01       		.uleb128 0x1
 11221 25f9 52       		.byte	0x52
 11222 25fa 01       		.uleb128 0x1
 11223 25fb 3A       		.byte	0x3a
 11224 25fc 00       		.byte	0
 11225 25fd 1C       		.uleb128 0x1c
 11226 25fe F2030000 		.4byte	.LVL761
 11227 2602 BB370000 		.4byte	0x37bb
 11228 2606 16260000 		.4byte	0x2616
 11229 260a 1B       		.uleb128 0x1b
 11230 260b 01       		.uleb128 0x1
 11231 260c 51       		.byte	0x51
 11232 260d 02       		.uleb128 0x2
 11233 260e 74       		.byte	0x74
 11234 260f 00       		.sleb128 0
 11235 2610 1B       		.uleb128 0x1b
 11236 2611 01       		.uleb128 0x1
 11237 2612 52       		.byte	0x52
 11238 2613 01       		.uleb128 0x1
 11239 2614 3A       		.byte	0x3a
 11240 2615 00       		.byte	0
 11241 2616 1C       		.uleb128 0x1c
 11242 2617 FE030000 		.4byte	.LVL763
 11243 261b FF1E0000 		.4byte	0x1eff
ARM GAS  C:\Users\FRANKL~1\AppData\Local\Temp\ccLkvCvD.s 			page 235


 11244 261f 34260000 		.4byte	0x2634
 11245 2623 1B       		.uleb128 0x1b
 11246 2624 01       		.uleb128 0x1
 11247 2625 50       		.byte	0x50
 11248 2626 02       		.uleb128 0x2
 11249 2627 76       		.byte	0x76
 11250 2628 00       		.sleb128 0
 11251 2629 1B       		.uleb128 0x1b
 11252 262a 01       		.uleb128 0x1
 11253 262b 52       		.byte	0x52
 11254 262c 01       		.uleb128 0x1
 11255 262d 30       		.byte	0x30
 11256 262e 1B       		.uleb128 0x1b
 11257 262f 01       		.uleb128 0x1
 11258 2630 53       		.byte	0x53
 11259 2631 01       		.uleb128 0x1
 11260 2632 30       		.byte	0x30
 11261 2633 00       		.byte	0
 11262 2634 1C       		.uleb128 0x1c
 11263 2635 1A040000 		.4byte	.LVL764
 11264 2639 A4360000 		.4byte	0x36a4
 11265 263d 48260000 		.4byte	0x2648
 11266 2641 1B       		.uleb128 0x1b
 11267 2642 01       		.uleb128 0x1
 11268 2643 50       		.byte	0x50
 11269 2644 02       		.uleb128 0x2
 11270 2645 75       		.byte	0x75
 11271 2646 00       		.sleb128 0
 11272 2647 00       		.byte	0
 11273 2648 1C       		.uleb128 0x1c
 11274 2649 22040000 		.4byte	.LVL765
 11275 264d D1030000 		.4byte	0x3d1
 11276 2651 5C260000 		.4byte	0x265c
 11277 2655 1B       		.uleb128 0x1b
 11278 2656 01       		.uleb128 0x1
 11279 2657 50       		.byte	0x50
 11280 2658 02       		.uleb128 0x2
 11281 2659 75       		.byte	0x75
 11282 265a 00       		.sleb128 0
 11283 265b 00       		.byte	0
 11284 265c 1A       		.uleb128 0x1a
 11285 265d 28040000 		.4byte	.LVL766
 11286 2661 BA360000 		.4byte	0x36ba
 11287 2665 1B       		.uleb128 0x1b
 11288 2666 01       		.uleb128 0x1
 11289 2667 50       		.byte	0x50
 11290 2668 02       		.uleb128 0x2
 11291 2669 75       		.byte	0x75
 11292 266a 00       		.sleb128 0
 11293 266b 00       		.byte	0
 11294 266c 00       		.byte	0
 11295 266d 15       		.uleb128 0x15
 11296 266e 36040000 		.4byte	.LBB73
 11297 2672 90000000 		.4byte	.LBE73-.LBB73
 11298 2676 88270000 		.4byte	0x2788
 11299 267a 16       		.uleb128 0x16
 11300 267b 52060000 		.4byte	.LASF172
ARM GAS  C:\Users\FRANKL~1\AppData\Local\Temp\ccLkvCvD.s 			page 236


 11301 267f 02       		.byte	0x2
 11302 2680 5504     		.2byte	0x455
 11303 2682 92000000 		.4byte	0x92
 11304 2686 02       		.uleb128 0x2
 11305 2687 91       		.byte	0x91
 11306 2688 64       		.sleb128 -28
 11307 2689 17       		.uleb128 0x17
 11308 268a 230B0000 		.4byte	.LASF170
 11309 268e 02       		.byte	0x2
 11310 268f 5604     		.2byte	0x456
 11311 2691 B5000000 		.4byte	0xb5
 11312 2695 A1180000 		.4byte	.LLST170
 11313 2699 17       		.uleb128 0x17
 11314 269a DE0A0000 		.4byte	.LASF171
 11315 269e 02       		.byte	0x2
 11316 269f 5704     		.2byte	0x457
 11317 26a1 B5000000 		.4byte	0xb5
 11318 26a5 B4180000 		.4byte	.LLST171
 11319 26a9 1C       		.uleb128 0x1c
 11320 26aa 5A040000 		.4byte	.LVL769
 11321 26ae A4360000 		.4byte	0x36a4
 11322 26b2 BD260000 		.4byte	0x26bd
 11323 26b6 1B       		.uleb128 0x1b
 11324 26b7 01       		.uleb128 0x1
 11325 26b8 50       		.byte	0x50
 11326 26b9 02       		.uleb128 0x2
 11327 26ba 75       		.byte	0x75
 11328 26bb 00       		.sleb128 0
 11329 26bc 00       		.byte	0
 11330 26bd 1C       		.uleb128 0x1c
 11331 26be 62040000 		.4byte	.LVL770
 11332 26c2 D1030000 		.4byte	0x3d1
 11333 26c6 D1260000 		.4byte	0x26d1
 11334 26ca 1B       		.uleb128 0x1b
 11335 26cb 01       		.uleb128 0x1
 11336 26cc 50       		.byte	0x50
 11337 26cd 02       		.uleb128 0x2
 11338 26ce 75       		.byte	0x75
 11339 26cf 00       		.sleb128 0
 11340 26d0 00       		.byte	0
 11341 26d1 1C       		.uleb128 0x1c
 11342 26d2 68040000 		.4byte	.LVL771
 11343 26d6 BA360000 		.4byte	0x36ba
 11344 26da E5260000 		.4byte	0x26e5
 11345 26de 1B       		.uleb128 0x1b
 11346 26df 01       		.uleb128 0x1
 11347 26e0 50       		.byte	0x50
 11348 26e1 02       		.uleb128 0x2
 11349 26e2 75       		.byte	0x75
 11350 26e3 00       		.sleb128 0
 11351 26e4 00       		.byte	0
 11352 26e5 1C       		.uleb128 0x1c
 11353 26e6 70040000 		.4byte	.LVL772
 11354 26ea AC370000 		.4byte	0x37ac
 11355 26ee FF260000 		.4byte	0x26ff
 11356 26f2 1B       		.uleb128 0x1b
 11357 26f3 01       		.uleb128 0x1
ARM GAS  C:\Users\FRANKL~1\AppData\Local\Temp\ccLkvCvD.s 			page 237


 11358 26f4 50       		.byte	0x50
 11359 26f5 02       		.uleb128 0x2
 11360 26f6 74       		.byte	0x74
 11361 26f7 00       		.sleb128 0
 11362 26f8 1B       		.uleb128 0x1b
 11363 26f9 01       		.uleb128 0x1
 11364 26fa 51       		.byte	0x51
 11365 26fb 02       		.uleb128 0x2
 11366 26fc 08       		.byte	0x8
 11367 26fd 20       		.byte	0x20
 11368 26fe 00       		.byte	0
 11369 26ff 1C       		.uleb128 0x1c
 11370 2700 7E040000 		.4byte	.LVL774
 11371 2704 BB370000 		.4byte	0x37bb
 11372 2708 18270000 		.4byte	0x2718
 11373 270c 1B       		.uleb128 0x1b
 11374 270d 01       		.uleb128 0x1
 11375 270e 51       		.byte	0x51
 11376 270f 02       		.uleb128 0x2
 11377 2710 74       		.byte	0x74
 11378 2711 00       		.sleb128 0
 11379 2712 1B       		.uleb128 0x1b
 11380 2713 01       		.uleb128 0x1
 11381 2714 52       		.byte	0x52
 11382 2715 01       		.uleb128 0x1
 11383 2716 3A       		.byte	0x3a
 11384 2717 00       		.byte	0
 11385 2718 1C       		.uleb128 0x1c
 11386 2719 8A040000 		.4byte	.LVL776
 11387 271d BB370000 		.4byte	0x37bb
 11388 2721 31270000 		.4byte	0x2731
 11389 2725 1B       		.uleb128 0x1b
 11390 2726 01       		.uleb128 0x1
 11391 2727 51       		.byte	0x51
 11392 2728 02       		.uleb128 0x2
 11393 2729 74       		.byte	0x74
 11394 272a 00       		.sleb128 0
 11395 272b 1B       		.uleb128 0x1b
 11396 272c 01       		.uleb128 0x1
 11397 272d 52       		.byte	0x52
 11398 272e 01       		.uleb128 0x1
 11399 272f 3A       		.byte	0x3a
 11400 2730 00       		.byte	0
 11401 2731 1C       		.uleb128 0x1c
 11402 2732 96040000 		.4byte	.LVL778
 11403 2736 FF1E0000 		.4byte	0x1eff
 11404 273a 4F270000 		.4byte	0x274f
 11405 273e 1B       		.uleb128 0x1b
 11406 273f 01       		.uleb128 0x1
 11407 2740 50       		.byte	0x50
 11408 2741 02       		.uleb128 0x2
 11409 2742 76       		.byte	0x76
 11410 2743 00       		.sleb128 0
 11411 2744 1B       		.uleb128 0x1b
 11412 2745 01       		.uleb128 0x1
 11413 2746 52       		.byte	0x52
 11414 2747 01       		.uleb128 0x1
ARM GAS  C:\Users\FRANKL~1\AppData\Local\Temp\ccLkvCvD.s 			page 238


 11415 2748 30       		.byte	0x30
 11416 2749 1B       		.uleb128 0x1b
 11417 274a 01       		.uleb128 0x1
 11418 274b 53       		.byte	0x53
 11419 274c 01       		.uleb128 0x1
 11420 274d 31       		.byte	0x31
 11421 274e 00       		.byte	0
 11422 274f 1C       		.uleb128 0x1c
 11423 2750 B8040000 		.4byte	.LVL779
 11424 2754 A4360000 		.4byte	0x36a4
 11425 2758 63270000 		.4byte	0x2763
 11426 275c 1B       		.uleb128 0x1b
 11427 275d 01       		.uleb128 0x1
 11428 275e 50       		.byte	0x50
 11429 275f 02       		.uleb128 0x2
 11430 2760 75       		.byte	0x75
 11431 2761 00       		.sleb128 0
 11432 2762 00       		.byte	0
 11433 2763 1C       		.uleb128 0x1c
 11434 2764 C0040000 		.4byte	.LVL780
 11435 2768 D1030000 		.4byte	0x3d1
 11436 276c 77270000 		.4byte	0x2777
 11437 2770 1B       		.uleb128 0x1b
 11438 2771 01       		.uleb128 0x1
 11439 2772 50       		.byte	0x50
 11440 2773 02       		.uleb128 0x2
 11441 2774 75       		.byte	0x75
 11442 2775 00       		.sleb128 0
 11443 2776 00       		.byte	0
 11444 2777 1A       		.uleb128 0x1a
 11445 2778 C6040000 		.4byte	.LVL781
 11446 277c BA360000 		.4byte	0x36ba
 11447 2780 1B       		.uleb128 0x1b
 11448 2781 01       		.uleb128 0x1
 11449 2782 50       		.byte	0x50
 11450 2783 02       		.uleb128 0x2
 11451 2784 75       		.byte	0x75
 11452 2785 00       		.sleb128 0
 11453 2786 00       		.byte	0
 11454 2787 00       		.byte	0
 11455 2788 15       		.uleb128 0x15
 11456 2789 D4040000 		.4byte	.LBB74
 11457 278d 9A000000 		.4byte	.LBE74-.LBB74
 11458 2791 A3280000 		.4byte	0x28a3
 11459 2795 16       		.uleb128 0x16
 11460 2796 52060000 		.4byte	.LASF172
 11461 279a 02       		.byte	0x2
 11462 279b 6304     		.2byte	0x463
 11463 279d 92000000 		.4byte	0x92
 11464 27a1 02       		.uleb128 0x2
 11465 27a2 91       		.byte	0x91
 11466 27a3 64       		.sleb128 -28
 11467 27a4 17       		.uleb128 0x17
 11468 27a5 230B0000 		.4byte	.LASF170
 11469 27a9 02       		.byte	0x2
 11470 27aa 6404     		.2byte	0x464
 11471 27ac B5000000 		.4byte	0xb5
ARM GAS  C:\Users\FRANKL~1\AppData\Local\Temp\ccLkvCvD.s 			page 239


 11472 27b0 D2180000 		.4byte	.LLST172
 11473 27b4 17       		.uleb128 0x17
 11474 27b5 DE0A0000 		.4byte	.LASF171
 11475 27b9 02       		.byte	0x2
 11476 27ba 6504     		.2byte	0x465
 11477 27bc B5000000 		.4byte	0xb5
 11478 27c0 E5180000 		.4byte	.LLST173
 11479 27c4 1C       		.uleb128 0x1c
 11480 27c5 FC040000 		.4byte	.LVL784
 11481 27c9 A4360000 		.4byte	0x36a4
 11482 27cd D8270000 		.4byte	0x27d8
 11483 27d1 1B       		.uleb128 0x1b
 11484 27d2 01       		.uleb128 0x1
 11485 27d3 50       		.byte	0x50
 11486 27d4 02       		.uleb128 0x2
 11487 27d5 75       		.byte	0x75
 11488 27d6 00       		.sleb128 0
 11489 27d7 00       		.byte	0
 11490 27d8 1C       		.uleb128 0x1c
 11491 27d9 04050000 		.4byte	.LVL785
 11492 27dd D1030000 		.4byte	0x3d1
 11493 27e1 EC270000 		.4byte	0x27ec
 11494 27e5 1B       		.uleb128 0x1b
 11495 27e6 01       		.uleb128 0x1
 11496 27e7 50       		.byte	0x50
 11497 27e8 02       		.uleb128 0x2
 11498 27e9 75       		.byte	0x75
 11499 27ea 00       		.sleb128 0
 11500 27eb 00       		.byte	0
 11501 27ec 1C       		.uleb128 0x1c
 11502 27ed 0A050000 		.4byte	.LVL786
 11503 27f1 BA360000 		.4byte	0x36ba
 11504 27f5 00280000 		.4byte	0x2800
 11505 27f9 1B       		.uleb128 0x1b
 11506 27fa 01       		.uleb128 0x1
 11507 27fb 50       		.byte	0x50
 11508 27fc 02       		.uleb128 0x2
 11509 27fd 75       		.byte	0x75
 11510 27fe 00       		.sleb128 0
 11511 27ff 00       		.byte	0
 11512 2800 1C       		.uleb128 0x1c
 11513 2801 12050000 		.4byte	.LVL787
 11514 2805 AC370000 		.4byte	0x37ac
 11515 2809 1A280000 		.4byte	0x281a
 11516 280d 1B       		.uleb128 0x1b
 11517 280e 01       		.uleb128 0x1
 11518 280f 50       		.byte	0x50
 11519 2810 02       		.uleb128 0x2
 11520 2811 74       		.byte	0x74
 11521 2812 00       		.sleb128 0
 11522 2813 1B       		.uleb128 0x1b
 11523 2814 01       		.uleb128 0x1
 11524 2815 51       		.byte	0x51
 11525 2816 02       		.uleb128 0x2
 11526 2817 08       		.byte	0x8
 11527 2818 20       		.byte	0x20
 11528 2819 00       		.byte	0
ARM GAS  C:\Users\FRANKL~1\AppData\Local\Temp\ccLkvCvD.s 			page 240


 11529 281a 1C       		.uleb128 0x1c
 11530 281b 20050000 		.4byte	.LVL789
 11531 281f BB370000 		.4byte	0x37bb
 11532 2823 33280000 		.4byte	0x2833
 11533 2827 1B       		.uleb128 0x1b
 11534 2828 01       		.uleb128 0x1
 11535 2829 51       		.byte	0x51
 11536 282a 02       		.uleb128 0x2
 11537 282b 74       		.byte	0x74
 11538 282c 00       		.sleb128 0
 11539 282d 1B       		.uleb128 0x1b
 11540 282e 01       		.uleb128 0x1
 11541 282f 52       		.byte	0x52
 11542 2830 01       		.uleb128 0x1
 11543 2831 3A       		.byte	0x3a
 11544 2832 00       		.byte	0
 11545 2833 1C       		.uleb128 0x1c
 11546 2834 2C050000 		.4byte	.LVL791
 11547 2838 BB370000 		.4byte	0x37bb
 11548 283c 4C280000 		.4byte	0x284c
 11549 2840 1B       		.uleb128 0x1b
 11550 2841 01       		.uleb128 0x1
 11551 2842 51       		.byte	0x51
 11552 2843 02       		.uleb128 0x2
 11553 2844 74       		.byte	0x74
 11554 2845 00       		.sleb128 0
 11555 2846 1B       		.uleb128 0x1b
 11556 2847 01       		.uleb128 0x1
 11557 2848 52       		.byte	0x52
 11558 2849 01       		.uleb128 0x1
 11559 284a 3A       		.byte	0x3a
 11560 284b 00       		.byte	0
 11561 284c 1C       		.uleb128 0x1c
 11562 284d 38050000 		.4byte	.LVL793
 11563 2851 FF1E0000 		.4byte	0x1eff
 11564 2855 6A280000 		.4byte	0x286a
 11565 2859 1B       		.uleb128 0x1b
 11566 285a 01       		.uleb128 0x1
 11567 285b 50       		.byte	0x50
 11568 285c 02       		.uleb128 0x2
 11569 285d 76       		.byte	0x76
 11570 285e 00       		.sleb128 0
 11571 285f 1B       		.uleb128 0x1b
 11572 2860 01       		.uleb128 0x1
 11573 2861 52       		.byte	0x52
 11574 2862 01       		.uleb128 0x1
 11575 2863 31       		.byte	0x31
 11576 2864 1B       		.uleb128 0x1b
 11577 2865 01       		.uleb128 0x1
 11578 2866 53       		.byte	0x53
 11579 2867 01       		.uleb128 0x1
 11580 2868 31       		.byte	0x31
 11581 2869 00       		.byte	0
 11582 286a 1C       		.uleb128 0x1c
 11583 286b 60050000 		.4byte	.LVL795
 11584 286f A4360000 		.4byte	0x36a4
 11585 2873 7E280000 		.4byte	0x287e
ARM GAS  C:\Users\FRANKL~1\AppData\Local\Temp\ccLkvCvD.s 			page 241


 11586 2877 1B       		.uleb128 0x1b
 11587 2878 01       		.uleb128 0x1
 11588 2879 50       		.byte	0x50
 11589 287a 02       		.uleb128 0x2
 11590 287b 74       		.byte	0x74
 11591 287c 00       		.sleb128 0
 11592 287d 00       		.byte	0
 11593 287e 1C       		.uleb128 0x1c
 11594 287f 68050000 		.4byte	.LVL796
 11595 2883 D1030000 		.4byte	0x3d1
 11596 2887 92280000 		.4byte	0x2892
 11597 288b 1B       		.uleb128 0x1b
 11598 288c 01       		.uleb128 0x1
 11599 288d 50       		.byte	0x50
 11600 288e 02       		.uleb128 0x2
 11601 288f 74       		.byte	0x74
 11602 2890 00       		.sleb128 0
 11603 2891 00       		.byte	0
 11604 2892 1A       		.uleb128 0x1a
 11605 2893 6E050000 		.4byte	.LVL797
 11606 2897 BA360000 		.4byte	0x36ba
 11607 289b 1B       		.uleb128 0x1b
 11608 289c 01       		.uleb128 0x1
 11609 289d 50       		.byte	0x50
 11610 289e 02       		.uleb128 0x2
 11611 289f 74       		.byte	0x74
 11612 28a0 00       		.sleb128 0
 11613 28a1 00       		.byte	0
 11614 28a2 00       		.byte	0
 11615 28a3 15       		.uleb128 0x15
 11616 28a4 7C050000 		.4byte	.LBB75
 11617 28a8 4E000000 		.4byte	.LBE75-.LBB75
 11618 28ac A7290000 		.4byte	0x29a7
 11619 28b0 16       		.uleb128 0x16
 11620 28b1 52060000 		.4byte	.LASF172
 11621 28b5 02       		.byte	0x2
 11622 28b6 6D04     		.2byte	0x46d
 11623 28b8 92000000 		.4byte	0x92
 11624 28bc 02       		.uleb128 0x2
 11625 28bd 91       		.byte	0x91
 11626 28be 64       		.sleb128 -28
 11627 28bf 17       		.uleb128 0x17
 11628 28c0 D60A0000 		.4byte	.LASF60
 11629 28c4 02       		.byte	0x2
 11630 28c5 6E04     		.2byte	0x46e
 11631 28c7 B5000000 		.4byte	0xb5
 11632 28cb 03190000 		.4byte	.LLST174
 11633 28cf 17       		.uleb128 0x17
 11634 28d0 00000000 		.4byte	.LASF58
 11635 28d4 02       		.byte	0x2
 11636 28d5 6F04     		.2byte	0x46f
 11637 28d7 B5000000 		.4byte	0xb5
 11638 28db 16190000 		.4byte	.LLST175
 11639 28df 1C       		.uleb128 0x1c
 11640 28e0 84050000 		.4byte	.LVL800
 11641 28e4 AC370000 		.4byte	0x37ac
 11642 28e8 F9280000 		.4byte	0x28f9
ARM GAS  C:\Users\FRANKL~1\AppData\Local\Temp\ccLkvCvD.s 			page 242


 11643 28ec 1B       		.uleb128 0x1b
 11644 28ed 01       		.uleb128 0x1
 11645 28ee 50       		.byte	0x50
 11646 28ef 02       		.uleb128 0x2
 11647 28f0 74       		.byte	0x74
 11648 28f1 00       		.sleb128 0
 11649 28f2 1B       		.uleb128 0x1b
 11650 28f3 01       		.uleb128 0x1
 11651 28f4 51       		.byte	0x51
 11652 28f5 02       		.uleb128 0x2
 11653 28f6 08       		.byte	0x8
 11654 28f7 20       		.byte	0x20
 11655 28f8 00       		.byte	0
 11656 28f9 1C       		.uleb128 0x1c
 11657 28fa 92050000 		.4byte	.LVL802
 11658 28fe BB370000 		.4byte	0x37bb
 11659 2902 12290000 		.4byte	0x2912
 11660 2906 1B       		.uleb128 0x1b
 11661 2907 01       		.uleb128 0x1
 11662 2908 51       		.byte	0x51
 11663 2909 02       		.uleb128 0x2
 11664 290a 74       		.byte	0x74
 11665 290b 00       		.sleb128 0
 11666 290c 1B       		.uleb128 0x1b
 11667 290d 01       		.uleb128 0x1
 11668 290e 52       		.byte	0x52
 11669 290f 01       		.uleb128 0x1
 11670 2910 3A       		.byte	0x3a
 11671 2911 00       		.byte	0
 11672 2912 1C       		.uleb128 0x1c
 11673 2913 9E050000 		.4byte	.LVL804
 11674 2917 BB370000 		.4byte	0x37bb
 11675 291b 2B290000 		.4byte	0x292b
 11676 291f 1B       		.uleb128 0x1b
 11677 2920 01       		.uleb128 0x1
 11678 2921 51       		.byte	0x51
 11679 2922 02       		.uleb128 0x2
 11680 2923 74       		.byte	0x74
 11681 2924 00       		.sleb128 0
 11682 2925 1B       		.uleb128 0x1b
 11683 2926 01       		.uleb128 0x1
 11684 2927 52       		.byte	0x52
 11685 2928 01       		.uleb128 0x1
 11686 2929 3A       		.byte	0x3a
 11687 292a 00       		.byte	0
 11688 292b 1C       		.uleb128 0x1c
 11689 292c A8050000 		.4byte	.LVL806
 11690 2930 E3080000 		.4byte	0x8e3
 11691 2934 45290000 		.4byte	0x2945
 11692 2938 1B       		.uleb128 0x1b
 11693 2939 01       		.uleb128 0x1
 11694 293a 50       		.byte	0x50
 11695 293b 02       		.uleb128 0x2
 11696 293c 75       		.byte	0x75
 11697 293d 00       		.sleb128 0
 11698 293e 1B       		.uleb128 0x1b
 11699 293f 01       		.uleb128 0x1
ARM GAS  C:\Users\FRANKL~1\AppData\Local\Temp\ccLkvCvD.s 			page 243


 11700 2940 51       		.byte	0x51
 11701 2941 02       		.uleb128 0x2
 11702 2942 76       		.byte	0x76
 11703 2943 00       		.sleb128 0
 11704 2944 00       		.byte	0
 11705 2945 1C       		.uleb128 0x1c
 11706 2946 B6050000 		.4byte	.LVL807
 11707 294a DB360000 		.4byte	0x36db
 11708 294e 6E290000 		.4byte	0x296e
 11709 2952 1B       		.uleb128 0x1b
 11710 2953 01       		.uleb128 0x1
 11711 2954 50       		.byte	0x50
 11712 2955 02       		.uleb128 0x2
 11713 2956 74       		.byte	0x74
 11714 2957 00       		.sleb128 0
 11715 2958 1B       		.uleb128 0x1b
 11716 2959 01       		.uleb128 0x1
 11717 295a 51       		.byte	0x51
 11718 295b 05       		.uleb128 0x5
 11719 295c 03       		.byte	0x3
 11720 295d 58030000 		.4byte	.LC46
 11721 2961 1B       		.uleb128 0x1b
 11722 2962 01       		.uleb128 0x1
 11723 2963 52       		.byte	0x52
 11724 2964 02       		.uleb128 0x2
 11725 2965 75       		.byte	0x75
 11726 2966 00       		.sleb128 0
 11727 2967 1B       		.uleb128 0x1b
 11728 2968 01       		.uleb128 0x1
 11729 2969 53       		.byte	0x53
 11730 296a 02       		.uleb128 0x2
 11731 296b 76       		.byte	0x76
 11732 296c 00       		.sleb128 0
 11733 296d 00       		.byte	0
 11734 296e 1C       		.uleb128 0x1c
 11735 296f BC050000 		.4byte	.LVL808
 11736 2973 A4360000 		.4byte	0x36a4
 11737 2977 82290000 		.4byte	0x2982
 11738 297b 1B       		.uleb128 0x1b
 11739 297c 01       		.uleb128 0x1
 11740 297d 50       		.byte	0x50
 11741 297e 02       		.uleb128 0x2
 11742 297f 74       		.byte	0x74
 11743 2980 00       		.sleb128 0
 11744 2981 00       		.byte	0
 11745 2982 1C       		.uleb128 0x1c
 11746 2983 C4050000 		.4byte	.LVL809
 11747 2987 D1030000 		.4byte	0x3d1
 11748 298b 96290000 		.4byte	0x2996
 11749 298f 1B       		.uleb128 0x1b
 11750 2990 01       		.uleb128 0x1
 11751 2991 50       		.byte	0x50
 11752 2992 02       		.uleb128 0x2
 11753 2993 74       		.byte	0x74
 11754 2994 00       		.sleb128 0
 11755 2995 00       		.byte	0
 11756 2996 1A       		.uleb128 0x1a
ARM GAS  C:\Users\FRANKL~1\AppData\Local\Temp\ccLkvCvD.s 			page 244


 11757 2997 CA050000 		.4byte	.LVL810
 11758 299b BA360000 		.4byte	0x36ba
 11759 299f 1B       		.uleb128 0x1b
 11760 29a0 01       		.uleb128 0x1
 11761 29a1 50       		.byte	0x50
 11762 29a2 02       		.uleb128 0x2
 11763 29a3 74       		.byte	0x74
 11764 29a4 00       		.sleb128 0
 11765 29a5 00       		.byte	0
 11766 29a6 00       		.byte	0
 11767 29a7 15       		.uleb128 0x15
 11768 29a8 D8050000 		.4byte	.LBB76
 11769 29ac 4E000000 		.4byte	.LBE76-.LBB76
 11770 29b0 AB2A0000 		.4byte	0x2aab
 11771 29b4 16       		.uleb128 0x16
 11772 29b5 52060000 		.4byte	.LASF172
 11773 29b9 02       		.byte	0x2
 11774 29ba 7704     		.2byte	0x477
 11775 29bc 92000000 		.4byte	0x92
 11776 29c0 02       		.uleb128 0x2
 11777 29c1 91       		.byte	0x91
 11778 29c2 64       		.sleb128 -28
 11779 29c3 17       		.uleb128 0x17
 11780 29c4 B8050000 		.4byte	.LASF57
 11781 29c8 02       		.byte	0x2
 11782 29c9 7804     		.2byte	0x478
 11783 29cb B5000000 		.4byte	0xb5
 11784 29cf 29190000 		.4byte	.LLST176
 11785 29d3 17       		.uleb128 0x17
 11786 29d4 00000000 		.4byte	.LASF58
 11787 29d8 02       		.byte	0x2
 11788 29d9 7904     		.2byte	0x479
 11789 29db B5000000 		.4byte	0xb5
 11790 29df 3C190000 		.4byte	.LLST177
 11791 29e3 1C       		.uleb128 0x1c
 11792 29e4 E0050000 		.4byte	.LVL813
 11793 29e8 AC370000 		.4byte	0x37ac
 11794 29ec FD290000 		.4byte	0x29fd
 11795 29f0 1B       		.uleb128 0x1b
 11796 29f1 01       		.uleb128 0x1
 11797 29f2 50       		.byte	0x50
 11798 29f3 02       		.uleb128 0x2
 11799 29f4 74       		.byte	0x74
 11800 29f5 00       		.sleb128 0
 11801 29f6 1B       		.uleb128 0x1b
 11802 29f7 01       		.uleb128 0x1
 11803 29f8 51       		.byte	0x51
 11804 29f9 02       		.uleb128 0x2
 11805 29fa 08       		.byte	0x8
 11806 29fb 20       		.byte	0x20
 11807 29fc 00       		.byte	0
 11808 29fd 1C       		.uleb128 0x1c
 11809 29fe EE050000 		.4byte	.LVL815
 11810 2a02 BB370000 		.4byte	0x37bb
 11811 2a06 162A0000 		.4byte	0x2a16
 11812 2a0a 1B       		.uleb128 0x1b
 11813 2a0b 01       		.uleb128 0x1
ARM GAS  C:\Users\FRANKL~1\AppData\Local\Temp\ccLkvCvD.s 			page 245


 11814 2a0c 51       		.byte	0x51
 11815 2a0d 02       		.uleb128 0x2
 11816 2a0e 74       		.byte	0x74
 11817 2a0f 00       		.sleb128 0
 11818 2a10 1B       		.uleb128 0x1b
 11819 2a11 01       		.uleb128 0x1
 11820 2a12 52       		.byte	0x52
 11821 2a13 01       		.uleb128 0x1
 11822 2a14 3A       		.byte	0x3a
 11823 2a15 00       		.byte	0
 11824 2a16 1C       		.uleb128 0x1c
 11825 2a17 FA050000 		.4byte	.LVL817
 11826 2a1b BB370000 		.4byte	0x37bb
 11827 2a1f 2F2A0000 		.4byte	0x2a2f
 11828 2a23 1B       		.uleb128 0x1b
 11829 2a24 01       		.uleb128 0x1
 11830 2a25 51       		.byte	0x51
 11831 2a26 02       		.uleb128 0x2
 11832 2a27 74       		.byte	0x74
 11833 2a28 00       		.sleb128 0
 11834 2a29 1B       		.uleb128 0x1b
 11835 2a2a 01       		.uleb128 0x1
 11836 2a2b 52       		.byte	0x52
 11837 2a2c 01       		.uleb128 0x1
 11838 2a2d 3A       		.byte	0x3a
 11839 2a2e 00       		.byte	0
 11840 2a2f 1C       		.uleb128 0x1c
 11841 2a30 04060000 		.4byte	.LVL819
 11842 2a34 A6080000 		.4byte	0x8a6
 11843 2a38 492A0000 		.4byte	0x2a49
 11844 2a3c 1B       		.uleb128 0x1b
 11845 2a3d 01       		.uleb128 0x1
 11846 2a3e 50       		.byte	0x50
 11847 2a3f 02       		.uleb128 0x2
 11848 2a40 75       		.byte	0x75
 11849 2a41 00       		.sleb128 0
 11850 2a42 1B       		.uleb128 0x1b
 11851 2a43 01       		.uleb128 0x1
 11852 2a44 51       		.byte	0x51
 11853 2a45 02       		.uleb128 0x2
 11854 2a46 76       		.byte	0x76
 11855 2a47 00       		.sleb128 0
 11856 2a48 00       		.byte	0
 11857 2a49 1C       		.uleb128 0x1c
 11858 2a4a 12060000 		.4byte	.LVL820
 11859 2a4e DB360000 		.4byte	0x36db
 11860 2a52 722A0000 		.4byte	0x2a72
 11861 2a56 1B       		.uleb128 0x1b
 11862 2a57 01       		.uleb128 0x1
 11863 2a58 50       		.byte	0x50
 11864 2a59 02       		.uleb128 0x2
 11865 2a5a 74       		.byte	0x74
 11866 2a5b 00       		.sleb128 0
 11867 2a5c 1B       		.uleb128 0x1b
 11868 2a5d 01       		.uleb128 0x1
 11869 2a5e 51       		.byte	0x51
 11870 2a5f 05       		.uleb128 0x5
ARM GAS  C:\Users\FRANKL~1\AppData\Local\Temp\ccLkvCvD.s 			page 246


 11871 2a60 03       		.byte	0x3
 11872 2a61 7C030000 		.4byte	.LC48
 11873 2a65 1B       		.uleb128 0x1b
 11874 2a66 01       		.uleb128 0x1
 11875 2a67 52       		.byte	0x52
 11876 2a68 02       		.uleb128 0x2
 11877 2a69 75       		.byte	0x75
 11878 2a6a 00       		.sleb128 0
 11879 2a6b 1B       		.uleb128 0x1b
 11880 2a6c 01       		.uleb128 0x1
 11881 2a6d 53       		.byte	0x53
 11882 2a6e 02       		.uleb128 0x2
 11883 2a6f 76       		.byte	0x76
 11884 2a70 00       		.sleb128 0
 11885 2a71 00       		.byte	0
 11886 2a72 1C       		.uleb128 0x1c
 11887 2a73 18060000 		.4byte	.LVL821
 11888 2a77 A4360000 		.4byte	0x36a4
 11889 2a7b 862A0000 		.4byte	0x2a86
 11890 2a7f 1B       		.uleb128 0x1b
 11891 2a80 01       		.uleb128 0x1
 11892 2a81 50       		.byte	0x50
 11893 2a82 02       		.uleb128 0x2
 11894 2a83 74       		.byte	0x74
 11895 2a84 00       		.sleb128 0
 11896 2a85 00       		.byte	0
 11897 2a86 1C       		.uleb128 0x1c
 11898 2a87 20060000 		.4byte	.LVL822
 11899 2a8b D1030000 		.4byte	0x3d1
 11900 2a8f 9A2A0000 		.4byte	0x2a9a
 11901 2a93 1B       		.uleb128 0x1b
 11902 2a94 01       		.uleb128 0x1
 11903 2a95 50       		.byte	0x50
 11904 2a96 02       		.uleb128 0x2
 11905 2a97 74       		.byte	0x74
 11906 2a98 00       		.sleb128 0
 11907 2a99 00       		.byte	0
 11908 2a9a 1A       		.uleb128 0x1a
 11909 2a9b 26060000 		.4byte	.LVL823
 11910 2a9f BA360000 		.4byte	0x36ba
 11911 2aa3 1B       		.uleb128 0x1b
 11912 2aa4 01       		.uleb128 0x1
 11913 2aa5 50       		.byte	0x50
 11914 2aa6 02       		.uleb128 0x2
 11915 2aa7 74       		.byte	0x74
 11916 2aa8 00       		.sleb128 0
 11917 2aa9 00       		.byte	0
 11918 2aaa 00       		.byte	0
 11919 2aab 15       		.uleb128 0x15
 11920 2aac 34060000 		.4byte	.LBB77
 11921 2ab0 4E000000 		.4byte	.LBE77-.LBB77
 11922 2ab4 AF2B0000 		.4byte	0x2baf
 11923 2ab8 16       		.uleb128 0x16
 11924 2ab9 52060000 		.4byte	.LASF172
 11925 2abd 02       		.byte	0x2
 11926 2abe 8104     		.2byte	0x481
 11927 2ac0 92000000 		.4byte	0x92
ARM GAS  C:\Users\FRANKL~1\AppData\Local\Temp\ccLkvCvD.s 			page 247


 11928 2ac4 02       		.uleb128 0x2
 11929 2ac5 91       		.byte	0x91
 11930 2ac6 64       		.sleb128 -28
 11931 2ac7 17       		.uleb128 0x17
 11932 2ac8 D60A0000 		.4byte	.LASF60
 11933 2acc 02       		.byte	0x2
 11934 2acd 8204     		.2byte	0x482
 11935 2acf B5000000 		.4byte	0xb5
 11936 2ad3 4F190000 		.4byte	.LLST178
 11937 2ad7 17       		.uleb128 0x17
 11938 2ad8 00000000 		.4byte	.LASF58
 11939 2adc 02       		.byte	0x2
 11940 2add 8304     		.2byte	0x483
 11941 2adf B5000000 		.4byte	0xb5
 11942 2ae3 62190000 		.4byte	.LLST179
 11943 2ae7 1C       		.uleb128 0x1c
 11944 2ae8 3C060000 		.4byte	.LVL826
 11945 2aec AC370000 		.4byte	0x37ac
 11946 2af0 012B0000 		.4byte	0x2b01
 11947 2af4 1B       		.uleb128 0x1b
 11948 2af5 01       		.uleb128 0x1
 11949 2af6 50       		.byte	0x50
 11950 2af7 02       		.uleb128 0x2
 11951 2af8 74       		.byte	0x74
 11952 2af9 00       		.sleb128 0
 11953 2afa 1B       		.uleb128 0x1b
 11954 2afb 01       		.uleb128 0x1
 11955 2afc 51       		.byte	0x51
 11956 2afd 02       		.uleb128 0x2
 11957 2afe 08       		.byte	0x8
 11958 2aff 20       		.byte	0x20
 11959 2b00 00       		.byte	0
 11960 2b01 1C       		.uleb128 0x1c
 11961 2b02 4A060000 		.4byte	.LVL828
 11962 2b06 BB370000 		.4byte	0x37bb
 11963 2b0a 1A2B0000 		.4byte	0x2b1a
 11964 2b0e 1B       		.uleb128 0x1b
 11965 2b0f 01       		.uleb128 0x1
 11966 2b10 51       		.byte	0x51
 11967 2b11 02       		.uleb128 0x2
 11968 2b12 74       		.byte	0x74
 11969 2b13 00       		.sleb128 0
 11970 2b14 1B       		.uleb128 0x1b
 11971 2b15 01       		.uleb128 0x1
 11972 2b16 52       		.byte	0x52
 11973 2b17 01       		.uleb128 0x1
 11974 2b18 3A       		.byte	0x3a
 11975 2b19 00       		.byte	0
 11976 2b1a 1C       		.uleb128 0x1c
 11977 2b1b 56060000 		.4byte	.LVL830
 11978 2b1f BB370000 		.4byte	0x37bb
 11979 2b23 332B0000 		.4byte	0x2b33
 11980 2b27 1B       		.uleb128 0x1b
 11981 2b28 01       		.uleb128 0x1
 11982 2b29 51       		.byte	0x51
 11983 2b2a 02       		.uleb128 0x2
 11984 2b2b 74       		.byte	0x74
ARM GAS  C:\Users\FRANKL~1\AppData\Local\Temp\ccLkvCvD.s 			page 248


 11985 2b2c 00       		.sleb128 0
 11986 2b2d 1B       		.uleb128 0x1b
 11987 2b2e 01       		.uleb128 0x1
 11988 2b2f 52       		.byte	0x52
 11989 2b30 01       		.uleb128 0x1
 11990 2b31 3A       		.byte	0x3a
 11991 2b32 00       		.byte	0
 11992 2b33 1C       		.uleb128 0x1c
 11993 2b34 60060000 		.4byte	.LVL832
 11994 2b38 2F090000 		.4byte	0x92f
 11995 2b3c 4D2B0000 		.4byte	0x2b4d
 11996 2b40 1B       		.uleb128 0x1b
 11997 2b41 01       		.uleb128 0x1
 11998 2b42 50       		.byte	0x50
 11999 2b43 02       		.uleb128 0x2
 12000 2b44 75       		.byte	0x75
 12001 2b45 00       		.sleb128 0
 12002 2b46 1B       		.uleb128 0x1b
 12003 2b47 01       		.uleb128 0x1
 12004 2b48 51       		.byte	0x51
 12005 2b49 02       		.uleb128 0x2
 12006 2b4a 76       		.byte	0x76
 12007 2b4b 00       		.sleb128 0
 12008 2b4c 00       		.byte	0
 12009 2b4d 1C       		.uleb128 0x1c
 12010 2b4e 6E060000 		.4byte	.LVL833
 12011 2b52 DB360000 		.4byte	0x36db
 12012 2b56 762B0000 		.4byte	0x2b76
 12013 2b5a 1B       		.uleb128 0x1b
 12014 2b5b 01       		.uleb128 0x1
 12015 2b5c 50       		.byte	0x50
 12016 2b5d 02       		.uleb128 0x2
 12017 2b5e 74       		.byte	0x74
 12018 2b5f 00       		.sleb128 0
 12019 2b60 1B       		.uleb128 0x1b
 12020 2b61 01       		.uleb128 0x1
 12021 2b62 51       		.byte	0x51
 12022 2b63 05       		.uleb128 0x5
 12023 2b64 03       		.byte	0x3
 12024 2b65 A8030000 		.4byte	.LC50
 12025 2b69 1B       		.uleb128 0x1b
 12026 2b6a 01       		.uleb128 0x1
 12027 2b6b 52       		.byte	0x52
 12028 2b6c 02       		.uleb128 0x2
 12029 2b6d 75       		.byte	0x75
 12030 2b6e 00       		.sleb128 0
 12031 2b6f 1B       		.uleb128 0x1b
 12032 2b70 01       		.uleb128 0x1
 12033 2b71 53       		.byte	0x53
 12034 2b72 02       		.uleb128 0x2
 12035 2b73 76       		.byte	0x76
 12036 2b74 00       		.sleb128 0
 12037 2b75 00       		.byte	0
 12038 2b76 1C       		.uleb128 0x1c
 12039 2b77 74060000 		.4byte	.LVL834
 12040 2b7b A4360000 		.4byte	0x36a4
 12041 2b7f 8A2B0000 		.4byte	0x2b8a
ARM GAS  C:\Users\FRANKL~1\AppData\Local\Temp\ccLkvCvD.s 			page 249


 12042 2b83 1B       		.uleb128 0x1b
 12043 2b84 01       		.uleb128 0x1
 12044 2b85 50       		.byte	0x50
 12045 2b86 02       		.uleb128 0x2
 12046 2b87 74       		.byte	0x74
 12047 2b88 00       		.sleb128 0
 12048 2b89 00       		.byte	0
 12049 2b8a 1C       		.uleb128 0x1c
 12050 2b8b 7C060000 		.4byte	.LVL835
 12051 2b8f D1030000 		.4byte	0x3d1
 12052 2b93 9E2B0000 		.4byte	0x2b9e
 12053 2b97 1B       		.uleb128 0x1b
 12054 2b98 01       		.uleb128 0x1
 12055 2b99 50       		.byte	0x50
 12056 2b9a 02       		.uleb128 0x2
 12057 2b9b 74       		.byte	0x74
 12058 2b9c 00       		.sleb128 0
 12059 2b9d 00       		.byte	0
 12060 2b9e 1A       		.uleb128 0x1a
 12061 2b9f 82060000 		.4byte	.LVL836
 12062 2ba3 BA360000 		.4byte	0x36ba
 12063 2ba7 1B       		.uleb128 0x1b
 12064 2ba8 01       		.uleb128 0x1
 12065 2ba9 50       		.byte	0x50
 12066 2baa 02       		.uleb128 0x2
 12067 2bab 74       		.byte	0x74
 12068 2bac 00       		.sleb128 0
 12069 2bad 00       		.byte	0
 12070 2bae 00       		.byte	0
 12071 2baf 15       		.uleb128 0x15
 12072 2bb0 90060000 		.4byte	.LBB78
 12073 2bb4 3C000000 		.4byte	.LBE78-.LBB78
 12074 2bb8 7E2C0000 		.4byte	0x2c7e
 12075 2bbc 16       		.uleb128 0x16
 12076 2bbd 52060000 		.4byte	.LASF172
 12077 2bc1 02       		.byte	0x2
 12078 2bc2 8B04     		.2byte	0x48b
 12079 2bc4 92000000 		.4byte	0x92
 12080 2bc8 02       		.uleb128 0x2
 12081 2bc9 91       		.byte	0x91
 12082 2bca 64       		.sleb128 -28
 12083 2bcb 17       		.uleb128 0x17
 12084 2bcc 00000000 		.4byte	.LASF58
 12085 2bd0 02       		.byte	0x2
 12086 2bd1 8C04     		.2byte	0x48c
 12087 2bd3 B5000000 		.4byte	0xb5
 12088 2bd7 75190000 		.4byte	.LLST180
 12089 2bdb 1C       		.uleb128 0x1c
 12090 2bdc 98060000 		.4byte	.LVL839
 12091 2be0 AC370000 		.4byte	0x37ac
 12092 2be4 F52B0000 		.4byte	0x2bf5
 12093 2be8 1B       		.uleb128 0x1b
 12094 2be9 01       		.uleb128 0x1
 12095 2bea 50       		.byte	0x50
 12096 2beb 02       		.uleb128 0x2
 12097 2bec 74       		.byte	0x74
 12098 2bed 00       		.sleb128 0
ARM GAS  C:\Users\FRANKL~1\AppData\Local\Temp\ccLkvCvD.s 			page 250


 12099 2bee 1B       		.uleb128 0x1b
 12100 2bef 01       		.uleb128 0x1
 12101 2bf0 51       		.byte	0x51
 12102 2bf1 02       		.uleb128 0x2
 12103 2bf2 08       		.byte	0x8
 12104 2bf3 20       		.byte	0x20
 12105 2bf4 00       		.byte	0
 12106 2bf5 1C       		.uleb128 0x1c
 12107 2bf6 A4060000 		.4byte	.LVL840
 12108 2bfa BB370000 		.4byte	0x37bb
 12109 2bfe 0E2C0000 		.4byte	0x2c0e
 12110 2c02 1B       		.uleb128 0x1b
 12111 2c03 01       		.uleb128 0x1
 12112 2c04 51       		.byte	0x51
 12113 2c05 02       		.uleb128 0x2
 12114 2c06 91       		.byte	0x91
 12115 2c07 64       		.sleb128 -28
 12116 2c08 1B       		.uleb128 0x1b
 12117 2c09 01       		.uleb128 0x1
 12118 2c0a 52       		.byte	0x52
 12119 2c0b 01       		.uleb128 0x1
 12120 2c0c 3A       		.byte	0x3a
 12121 2c0d 00       		.byte	0
 12122 2c0e 1C       		.uleb128 0x1c
 12123 2c0f AC060000 		.4byte	.LVL842
 12124 2c13 3A0A0000 		.4byte	0xa3a
 12125 2c17 222C0000 		.4byte	0x2c22
 12126 2c1b 1B       		.uleb128 0x1b
 12127 2c1c 01       		.uleb128 0x1
 12128 2c1d 50       		.byte	0x50
 12129 2c1e 02       		.uleb128 0x2
 12130 2c1f 75       		.byte	0x75
 12131 2c20 00       		.sleb128 0
 12132 2c21 00       		.byte	0
 12133 2c22 1C       		.uleb128 0x1c
 12134 2c23 B8060000 		.4byte	.LVL844
 12135 2c27 DB360000 		.4byte	0x36db
 12136 2c2b 452C0000 		.4byte	0x2c45
 12137 2c2f 1B       		.uleb128 0x1b
 12138 2c30 01       		.uleb128 0x1
 12139 2c31 50       		.byte	0x50
 12140 2c32 02       		.uleb128 0x2
 12141 2c33 74       		.byte	0x74
 12142 2c34 00       		.sleb128 0
 12143 2c35 1B       		.uleb128 0x1b
 12144 2c36 01       		.uleb128 0x1
 12145 2c37 51       		.byte	0x51
 12146 2c38 05       		.uleb128 0x5
 12147 2c39 03       		.byte	0x3
 12148 2c3a DC030000 		.4byte	.LC52
 12149 2c3e 1B       		.uleb128 0x1b
 12150 2c3f 01       		.uleb128 0x1
 12151 2c40 52       		.byte	0x52
 12152 2c41 02       		.uleb128 0x2
 12153 2c42 75       		.byte	0x75
 12154 2c43 00       		.sleb128 0
 12155 2c44 00       		.byte	0
ARM GAS  C:\Users\FRANKL~1\AppData\Local\Temp\ccLkvCvD.s 			page 251


 12156 2c45 1C       		.uleb128 0x1c
 12157 2c46 BE060000 		.4byte	.LVL845
 12158 2c4a A4360000 		.4byte	0x36a4
 12159 2c4e 592C0000 		.4byte	0x2c59
 12160 2c52 1B       		.uleb128 0x1b
 12161 2c53 01       		.uleb128 0x1
 12162 2c54 50       		.byte	0x50
 12163 2c55 02       		.uleb128 0x2
 12164 2c56 74       		.byte	0x74
 12165 2c57 00       		.sleb128 0
 12166 2c58 00       		.byte	0
 12167 2c59 1C       		.uleb128 0x1c
 12168 2c5a C6060000 		.4byte	.LVL846
 12169 2c5e D1030000 		.4byte	0x3d1
 12170 2c62 6D2C0000 		.4byte	0x2c6d
 12171 2c66 1B       		.uleb128 0x1b
 12172 2c67 01       		.uleb128 0x1
 12173 2c68 50       		.byte	0x50
 12174 2c69 02       		.uleb128 0x2
 12175 2c6a 74       		.byte	0x74
 12176 2c6b 00       		.sleb128 0
 12177 2c6c 00       		.byte	0
 12178 2c6d 1A       		.uleb128 0x1a
 12179 2c6e CC060000 		.4byte	.LVL847
 12180 2c72 BA360000 		.4byte	0x36ba
 12181 2c76 1B       		.uleb128 0x1b
 12182 2c77 01       		.uleb128 0x1
 12183 2c78 50       		.byte	0x50
 12184 2c79 02       		.uleb128 0x2
 12185 2c7a 74       		.byte	0x74
 12186 2c7b 00       		.sleb128 0
 12187 2c7c 00       		.byte	0
 12188 2c7d 00       		.byte	0
 12189 2c7e 15       		.uleb128 0x15
 12190 2c7f 64070000 		.4byte	.LBB79
 12191 2c83 3C000000 		.4byte	.LBE79-.LBB79
 12192 2c87 4D2D0000 		.4byte	0x2d4d
 12193 2c8b 16       		.uleb128 0x16
 12194 2c8c 52060000 		.4byte	.LASF172
 12195 2c90 02       		.byte	0x2
 12196 2c91 9B04     		.2byte	0x49b
 12197 2c93 92000000 		.4byte	0x92
 12198 2c97 02       		.uleb128 0x2
 12199 2c98 91       		.byte	0x91
 12200 2c99 64       		.sleb128 -28
 12201 2c9a 17       		.uleb128 0x17
 12202 2c9b D60A0000 		.4byte	.LASF60
 12203 2c9f 02       		.byte	0x2
 12204 2ca0 9C04     		.2byte	0x49c
 12205 2ca2 B5000000 		.4byte	0xb5
 12206 2ca6 88190000 		.4byte	.LLST181
 12207 2caa 1C       		.uleb128 0x1c
 12208 2cab 6C070000 		.4byte	.LVL857
 12209 2caf AC370000 		.4byte	0x37ac
 12210 2cb3 C42C0000 		.4byte	0x2cc4
 12211 2cb7 1B       		.uleb128 0x1b
 12212 2cb8 01       		.uleb128 0x1
ARM GAS  C:\Users\FRANKL~1\AppData\Local\Temp\ccLkvCvD.s 			page 252


 12213 2cb9 50       		.byte	0x50
 12214 2cba 02       		.uleb128 0x2
 12215 2cbb 74       		.byte	0x74
 12216 2cbc 00       		.sleb128 0
 12217 2cbd 1B       		.uleb128 0x1b
 12218 2cbe 01       		.uleb128 0x1
 12219 2cbf 51       		.byte	0x51
 12220 2cc0 02       		.uleb128 0x2
 12221 2cc1 08       		.byte	0x8
 12222 2cc2 20       		.byte	0x20
 12223 2cc3 00       		.byte	0
 12224 2cc4 1C       		.uleb128 0x1c
 12225 2cc5 78070000 		.4byte	.LVL858
 12226 2cc9 BB370000 		.4byte	0x37bb
 12227 2ccd DD2C0000 		.4byte	0x2cdd
 12228 2cd1 1B       		.uleb128 0x1b
 12229 2cd2 01       		.uleb128 0x1
 12230 2cd3 51       		.byte	0x51
 12231 2cd4 02       		.uleb128 0x2
 12232 2cd5 91       		.byte	0x91
 12233 2cd6 64       		.sleb128 -28
 12234 2cd7 1B       		.uleb128 0x1b
 12235 2cd8 01       		.uleb128 0x1
 12236 2cd9 52       		.byte	0x52
 12237 2cda 01       		.uleb128 0x1
 12238 2cdb 3A       		.byte	0x3a
 12239 2cdc 00       		.byte	0
 12240 2cdd 1C       		.uleb128 0x1c
 12241 2cde 80070000 		.4byte	.LVL860
 12242 2ce2 7B090000 		.4byte	0x97b
 12243 2ce6 F12C0000 		.4byte	0x2cf1
 12244 2cea 1B       		.uleb128 0x1b
 12245 2ceb 01       		.uleb128 0x1
 12246 2cec 50       		.byte	0x50
 12247 2ced 02       		.uleb128 0x2
 12248 2cee 75       		.byte	0x75
 12249 2cef 00       		.sleb128 0
 12250 2cf0 00       		.byte	0
 12251 2cf1 1C       		.uleb128 0x1c
 12252 2cf2 8C070000 		.4byte	.LVL862
 12253 2cf6 DB360000 		.4byte	0x36db
 12254 2cfa 142D0000 		.4byte	0x2d14
 12255 2cfe 1B       		.uleb128 0x1b
 12256 2cff 01       		.uleb128 0x1
 12257 2d00 50       		.byte	0x50
 12258 2d01 02       		.uleb128 0x2
 12259 2d02 74       		.byte	0x74
 12260 2d03 00       		.sleb128 0
 12261 2d04 1B       		.uleb128 0x1b
 12262 2d05 01       		.uleb128 0x1
 12263 2d06 51       		.byte	0x51
 12264 2d07 05       		.uleb128 0x5
 12265 2d08 03       		.byte	0x3
 12266 2d09 50040000 		.4byte	.LC56
 12267 2d0d 1B       		.uleb128 0x1b
 12268 2d0e 01       		.uleb128 0x1
 12269 2d0f 52       		.byte	0x52
ARM GAS  C:\Users\FRANKL~1\AppData\Local\Temp\ccLkvCvD.s 			page 253


 12270 2d10 02       		.uleb128 0x2
 12271 2d11 75       		.byte	0x75
 12272 2d12 00       		.sleb128 0
 12273 2d13 00       		.byte	0
 12274 2d14 1C       		.uleb128 0x1c
 12275 2d15 92070000 		.4byte	.LVL863
 12276 2d19 A4360000 		.4byte	0x36a4
 12277 2d1d 282D0000 		.4byte	0x2d28
 12278 2d21 1B       		.uleb128 0x1b
 12279 2d22 01       		.uleb128 0x1
 12280 2d23 50       		.byte	0x50
 12281 2d24 02       		.uleb128 0x2
 12282 2d25 74       		.byte	0x74
 12283 2d26 00       		.sleb128 0
 12284 2d27 00       		.byte	0
 12285 2d28 1C       		.uleb128 0x1c
 12286 2d29 9A070000 		.4byte	.LVL864
 12287 2d2d D1030000 		.4byte	0x3d1
 12288 2d31 3C2D0000 		.4byte	0x2d3c
 12289 2d35 1B       		.uleb128 0x1b
 12290 2d36 01       		.uleb128 0x1
 12291 2d37 50       		.byte	0x50
 12292 2d38 02       		.uleb128 0x2
 12293 2d39 74       		.byte	0x74
 12294 2d3a 00       		.sleb128 0
 12295 2d3b 00       		.byte	0
 12296 2d3c 1A       		.uleb128 0x1a
 12297 2d3d A0070000 		.4byte	.LVL865
 12298 2d41 BA360000 		.4byte	0x36ba
 12299 2d45 1B       		.uleb128 0x1b
 12300 2d46 01       		.uleb128 0x1
 12301 2d47 50       		.byte	0x50
 12302 2d48 02       		.uleb128 0x2
 12303 2d49 74       		.byte	0x74
 12304 2d4a 00       		.sleb128 0
 12305 2d4b 00       		.byte	0
 12306 2d4c 00       		.byte	0
 12307 2d4d 15       		.uleb128 0x15
 12308 2d4e AE070000 		.4byte	.LBB80
 12309 2d52 3C000000 		.4byte	.LBE80-.LBB80
 12310 2d56 1C2E0000 		.4byte	0x2e1c
 12311 2d5a 16       		.uleb128 0x16
 12312 2d5b 52060000 		.4byte	.LASF172
 12313 2d5f 02       		.byte	0x2
 12314 2d60 A404     		.2byte	0x4a4
 12315 2d62 92000000 		.4byte	0x92
 12316 2d66 02       		.uleb128 0x2
 12317 2d67 91       		.byte	0x91
 12318 2d68 64       		.sleb128 -28
 12319 2d69 17       		.uleb128 0x17
 12320 2d6a 00000000 		.4byte	.LASF58
 12321 2d6e 02       		.byte	0x2
 12322 2d6f A504     		.2byte	0x4a5
 12323 2d71 B5000000 		.4byte	0xb5
 12324 2d75 9B190000 		.4byte	.LLST182
 12325 2d79 1C       		.uleb128 0x1c
 12326 2d7a B6070000 		.4byte	.LVL868
ARM GAS  C:\Users\FRANKL~1\AppData\Local\Temp\ccLkvCvD.s 			page 254


 12327 2d7e AC370000 		.4byte	0x37ac
 12328 2d82 932D0000 		.4byte	0x2d93
 12329 2d86 1B       		.uleb128 0x1b
 12330 2d87 01       		.uleb128 0x1
 12331 2d88 50       		.byte	0x50
 12332 2d89 02       		.uleb128 0x2
 12333 2d8a 74       		.byte	0x74
 12334 2d8b 00       		.sleb128 0
 12335 2d8c 1B       		.uleb128 0x1b
 12336 2d8d 01       		.uleb128 0x1
 12337 2d8e 51       		.byte	0x51
 12338 2d8f 02       		.uleb128 0x2
 12339 2d90 08       		.byte	0x8
 12340 2d91 20       		.byte	0x20
 12341 2d92 00       		.byte	0
 12342 2d93 1C       		.uleb128 0x1c
 12343 2d94 C2070000 		.4byte	.LVL869
 12344 2d98 BB370000 		.4byte	0x37bb
 12345 2d9c AC2D0000 		.4byte	0x2dac
 12346 2da0 1B       		.uleb128 0x1b
 12347 2da1 01       		.uleb128 0x1
 12348 2da2 51       		.byte	0x51
 12349 2da3 02       		.uleb128 0x2
 12350 2da4 91       		.byte	0x91
 12351 2da5 64       		.sleb128 -28
 12352 2da6 1B       		.uleb128 0x1b
 12353 2da7 01       		.uleb128 0x1
 12354 2da8 52       		.byte	0x52
 12355 2da9 01       		.uleb128 0x1
 12356 2daa 3A       		.byte	0x3a
 12357 2dab 00       		.byte	0
 12358 2dac 1C       		.uleb128 0x1c
 12359 2dad CA070000 		.4byte	.LVL871
 12360 2db1 850A0000 		.4byte	0xa85
 12361 2db5 C02D0000 		.4byte	0x2dc0
 12362 2db9 1B       		.uleb128 0x1b
 12363 2dba 01       		.uleb128 0x1
 12364 2dbb 50       		.byte	0x50
 12365 2dbc 02       		.uleb128 0x2
 12366 2dbd 75       		.byte	0x75
 12367 2dbe 00       		.sleb128 0
 12368 2dbf 00       		.byte	0
 12369 2dc0 1C       		.uleb128 0x1c
 12370 2dc1 D6070000 		.4byte	.LVL873
 12371 2dc5 DB360000 		.4byte	0x36db
 12372 2dc9 E32D0000 		.4byte	0x2de3
 12373 2dcd 1B       		.uleb128 0x1b
 12374 2dce 01       		.uleb128 0x1
 12375 2dcf 50       		.byte	0x50
 12376 2dd0 02       		.uleb128 0x2
 12377 2dd1 74       		.byte	0x74
 12378 2dd2 00       		.sleb128 0
 12379 2dd3 1B       		.uleb128 0x1b
 12380 2dd4 01       		.uleb128 0x1
 12381 2dd5 51       		.byte	0x51
 12382 2dd6 05       		.uleb128 0x5
 12383 2dd7 03       		.byte	0x3
ARM GAS  C:\Users\FRANKL~1\AppData\Local\Temp\ccLkvCvD.s 			page 255


 12384 2dd8 88040000 		.4byte	.LC58
 12385 2ddc 1B       		.uleb128 0x1b
 12386 2ddd 01       		.uleb128 0x1
 12387 2dde 52       		.byte	0x52
 12388 2ddf 02       		.uleb128 0x2
 12389 2de0 75       		.byte	0x75
 12390 2de1 00       		.sleb128 0
 12391 2de2 00       		.byte	0
 12392 2de3 1C       		.uleb128 0x1c
 12393 2de4 DC070000 		.4byte	.LVL874
 12394 2de8 A4360000 		.4byte	0x36a4
 12395 2dec F72D0000 		.4byte	0x2df7
 12396 2df0 1B       		.uleb128 0x1b
 12397 2df1 01       		.uleb128 0x1
 12398 2df2 50       		.byte	0x50
 12399 2df3 02       		.uleb128 0x2
 12400 2df4 74       		.byte	0x74
 12401 2df5 00       		.sleb128 0
 12402 2df6 00       		.byte	0
 12403 2df7 1C       		.uleb128 0x1c
 12404 2df8 E4070000 		.4byte	.LVL875
 12405 2dfc D1030000 		.4byte	0x3d1
 12406 2e00 0B2E0000 		.4byte	0x2e0b
 12407 2e04 1B       		.uleb128 0x1b
 12408 2e05 01       		.uleb128 0x1
 12409 2e06 50       		.byte	0x50
 12410 2e07 02       		.uleb128 0x2
 12411 2e08 74       		.byte	0x74
 12412 2e09 00       		.sleb128 0
 12413 2e0a 00       		.byte	0
 12414 2e0b 1A       		.uleb128 0x1a
 12415 2e0c EA070000 		.4byte	.LVL876
 12416 2e10 BA360000 		.4byte	0x36ba
 12417 2e14 1B       		.uleb128 0x1b
 12418 2e15 01       		.uleb128 0x1
 12419 2e16 50       		.byte	0x50
 12420 2e17 02       		.uleb128 0x2
 12421 2e18 74       		.byte	0x74
 12422 2e19 00       		.sleb128 0
 12423 2e1a 00       		.byte	0
 12424 2e1b 00       		.byte	0
 12425 2e1c 15       		.uleb128 0x15
 12426 2e1d 34080000 		.4byte	.LBB81
 12427 2e21 54000000 		.4byte	.LBE81-.LBB81
 12428 2e25 B42E0000 		.4byte	0x2eb4
 12429 2e29 16       		.uleb128 0x16
 12430 2e2a 52060000 		.4byte	.LASF172
 12431 2e2e 02       		.byte	0x2
 12432 2e2f B404     		.2byte	0x4b4
 12433 2e31 92000000 		.4byte	0x92
 12434 2e35 02       		.uleb128 0x2
 12435 2e36 91       		.byte	0x91
 12436 2e37 64       		.sleb128 -28
 12437 2e38 17       		.uleb128 0x17
 12438 2e39 6A070000 		.4byte	.LASF75
 12439 2e3d 02       		.byte	0x2
 12440 2e3e B504     		.2byte	0x4b5
ARM GAS  C:\Users\FRANKL~1\AppData\Local\Temp\ccLkvCvD.s 			page 256


 12441 2e40 CD000000 		.4byte	0xcd
 12442 2e44 AE190000 		.4byte	.LLST183
 12443 2e48 1C       		.uleb128 0x1c
 12444 2e49 3C080000 		.4byte	.LVL886
 12445 2e4d AC370000 		.4byte	0x37ac
 12446 2e51 622E0000 		.4byte	0x2e62
 12447 2e55 1B       		.uleb128 0x1b
 12448 2e56 01       		.uleb128 0x1
 12449 2e57 50       		.byte	0x50
 12450 2e58 02       		.uleb128 0x2
 12451 2e59 74       		.byte	0x74
 12452 2e5a 00       		.sleb128 0
 12453 2e5b 1B       		.uleb128 0x1b
 12454 2e5c 01       		.uleb128 0x1
 12455 2e5d 51       		.byte	0x51
 12456 2e5e 02       		.uleb128 0x2
 12457 2e5f 08       		.byte	0x8
 12458 2e60 20       		.byte	0x20
 12459 2e61 00       		.byte	0
 12460 2e62 1C       		.uleb128 0x1c
 12461 2e63 48080000 		.4byte	.LVL887
 12462 2e67 BB370000 		.4byte	0x37bb
 12463 2e6b 7B2E0000 		.4byte	0x2e7b
 12464 2e6f 1B       		.uleb128 0x1b
 12465 2e70 01       		.uleb128 0x1
 12466 2e71 51       		.byte	0x51
 12467 2e72 02       		.uleb128 0x2
 12468 2e73 91       		.byte	0x91
 12469 2e74 64       		.sleb128 -28
 12470 2e75 1B       		.uleb128 0x1b
 12471 2e76 01       		.uleb128 0x1
 12472 2e77 52       		.byte	0x52
 12473 2e78 01       		.uleb128 0x1
 12474 2e79 3A       		.byte	0x3a
 12475 2e7a 00       		.byte	0
 12476 2e7b 1C       		.uleb128 0x1c
 12477 2e7c 7A080000 		.4byte	.LVL890
 12478 2e80 A4360000 		.4byte	0x36a4
 12479 2e84 8F2E0000 		.4byte	0x2e8f
 12480 2e88 1B       		.uleb128 0x1b
 12481 2e89 01       		.uleb128 0x1
 12482 2e8a 50       		.byte	0x50
 12483 2e8b 02       		.uleb128 0x2
 12484 2e8c 74       		.byte	0x74
 12485 2e8d 00       		.sleb128 0
 12486 2e8e 00       		.byte	0
 12487 2e8f 1C       		.uleb128 0x1c
 12488 2e90 82080000 		.4byte	.LVL891
 12489 2e94 D1030000 		.4byte	0x3d1
 12490 2e98 A32E0000 		.4byte	0x2ea3
 12491 2e9c 1B       		.uleb128 0x1b
 12492 2e9d 01       		.uleb128 0x1
 12493 2e9e 50       		.byte	0x50
 12494 2e9f 02       		.uleb128 0x2
 12495 2ea0 74       		.byte	0x74
 12496 2ea1 00       		.sleb128 0
 12497 2ea2 00       		.byte	0
ARM GAS  C:\Users\FRANKL~1\AppData\Local\Temp\ccLkvCvD.s 			page 257


 12498 2ea3 1A       		.uleb128 0x1a
 12499 2ea4 88080000 		.4byte	.LVL892
 12500 2ea8 BA360000 		.4byte	0x36ba
 12501 2eac 1B       		.uleb128 0x1b
 12502 2ead 01       		.uleb128 0x1
 12503 2eae 50       		.byte	0x50
 12504 2eaf 02       		.uleb128 0x2
 12505 2eb0 74       		.byte	0x74
 12506 2eb1 00       		.sleb128 0
 12507 2eb2 00       		.byte	0
 12508 2eb3 00       		.byte	0
 12509 2eb4 1C       		.uleb128 0x1c
 12510 2eb5 A2000000 		.4byte	.LVL679
 12511 2eb9 4C360000 		.4byte	0x364c
 12512 2ebd D12E0000 		.4byte	0x2ed1
 12513 2ec1 1B       		.uleb128 0x1b
 12514 2ec2 01       		.uleb128 0x1
 12515 2ec3 50       		.byte	0x50
 12516 2ec4 02       		.uleb128 0x2
 12517 2ec5 74       		.byte	0x74
 12518 2ec6 00       		.sleb128 0
 12519 2ec7 1B       		.uleb128 0x1b
 12520 2ec8 01       		.uleb128 0x1
 12521 2ec9 51       		.byte	0x51
 12522 2eca 05       		.uleb128 0x5
 12523 2ecb 03       		.byte	0x3
 12524 2ecc 0C010000 		.4byte	.LC16
 12525 2ed0 00       		.byte	0
 12526 2ed1 1C       		.uleb128 0x1c
 12527 2ed2 B0000000 		.4byte	.LVL680
 12528 2ed6 CF170000 		.4byte	0x17cf
 12529 2eda EF2E0000 		.4byte	0x2eef
 12530 2ede 1B       		.uleb128 0x1b
 12531 2edf 01       		.uleb128 0x1
 12532 2ee0 50       		.byte	0x50
 12533 2ee1 02       		.uleb128 0x2
 12534 2ee2 08       		.byte	0x8
 12535 2ee3 64       		.byte	0x64
 12536 2ee4 1B       		.uleb128 0x1b
 12537 2ee5 01       		.uleb128 0x1
 12538 2ee6 51       		.byte	0x51
 12539 2ee7 01       		.uleb128 0x1
 12540 2ee8 31       		.byte	0x31
 12541 2ee9 1B       		.uleb128 0x1b
 12542 2eea 01       		.uleb128 0x1
 12543 2eeb 52       		.byte	0x52
 12544 2eec 01       		.uleb128 0x1
 12545 2eed 3A       		.byte	0x3a
 12546 2eee 00       		.byte	0
 12547 2eef 1C       		.uleb128 0x1c
 12548 2ef0 BA000000 		.4byte	.LVL681
 12549 2ef4 4C360000 		.4byte	0x364c
 12550 2ef8 0C2F0000 		.4byte	0x2f0c
 12551 2efc 1B       		.uleb128 0x1b
 12552 2efd 01       		.uleb128 0x1
 12553 2efe 50       		.byte	0x50
 12554 2eff 02       		.uleb128 0x2
ARM GAS  C:\Users\FRANKL~1\AppData\Local\Temp\ccLkvCvD.s 			page 258


 12555 2f00 74       		.byte	0x74
 12556 2f01 00       		.sleb128 0
 12557 2f02 1B       		.uleb128 0x1b
 12558 2f03 01       		.uleb128 0x1
 12559 2f04 51       		.byte	0x51
 12560 2f05 05       		.uleb128 0x5
 12561 2f06 03       		.byte	0x3
 12562 2f07 18010000 		.4byte	.LC17
 12563 2f0b 00       		.byte	0
 12564 2f0c 1C       		.uleb128 0x1c
 12565 2f0d E0000000 		.4byte	.LVL685
 12566 2f11 4C360000 		.4byte	0x364c
 12567 2f15 292F0000 		.4byte	0x2f29
 12568 2f19 1B       		.uleb128 0x1b
 12569 2f1a 01       		.uleb128 0x1
 12570 2f1b 50       		.byte	0x50
 12571 2f1c 02       		.uleb128 0x2
 12572 2f1d 74       		.byte	0x74
 12573 2f1e 00       		.sleb128 0
 12574 2f1f 1B       		.uleb128 0x1b
 12575 2f20 01       		.uleb128 0x1
 12576 2f21 51       		.byte	0x51
 12577 2f22 05       		.uleb128 0x5
 12578 2f23 03       		.byte	0x3
 12579 2f24 2C010000 		.4byte	.LC18
 12580 2f28 00       		.byte	0
 12581 2f29 12       		.uleb128 0x12
 12582 2f2a E8000000 		.4byte	.LVL686
 12583 2f2e 081A0000 		.4byte	0x1a08
 12584 2f32 1C       		.uleb128 0x1c
 12585 2f33 F2000000 		.4byte	.LVL687
 12586 2f37 4C360000 		.4byte	0x364c
 12587 2f3b 4F2F0000 		.4byte	0x2f4f
 12588 2f3f 1B       		.uleb128 0x1b
 12589 2f40 01       		.uleb128 0x1
 12590 2f41 50       		.byte	0x50
 12591 2f42 02       		.uleb128 0x2
 12592 2f43 74       		.byte	0x74
 12593 2f44 00       		.sleb128 0
 12594 2f45 1B       		.uleb128 0x1b
 12595 2f46 01       		.uleb128 0x1
 12596 2f47 51       		.byte	0x51
 12597 2f48 05       		.uleb128 0x5
 12598 2f49 03       		.byte	0x3
 12599 2f4a 3C010000 		.4byte	.LC19
 12600 2f4e 00       		.byte	0
 12601 2f4f 1C       		.uleb128 0x1c
 12602 2f50 FC000000 		.4byte	.LVL688
 12603 2f54 8F1A0000 		.4byte	0x1a8f
 12604 2f58 622F0000 		.4byte	0x2f62
 12605 2f5c 1B       		.uleb128 0x1b
 12606 2f5d 01       		.uleb128 0x1
 12607 2f5e 50       		.byte	0x50
 12608 2f5f 01       		.uleb128 0x1
 12609 2f60 30       		.byte	0x30
 12610 2f61 00       		.byte	0
 12611 2f62 1C       		.uleb128 0x1c
ARM GAS  C:\Users\FRANKL~1\AppData\Local\Temp\ccLkvCvD.s 			page 259


 12612 2f63 06010000 		.4byte	.LVL689
 12613 2f67 4C360000 		.4byte	0x364c
 12614 2f6b 7F2F0000 		.4byte	0x2f7f
 12615 2f6f 1B       		.uleb128 0x1b
 12616 2f70 01       		.uleb128 0x1
 12617 2f71 50       		.byte	0x50
 12618 2f72 02       		.uleb128 0x2
 12619 2f73 74       		.byte	0x74
 12620 2f74 00       		.sleb128 0
 12621 2f75 1B       		.uleb128 0x1b
 12622 2f76 01       		.uleb128 0x1
 12623 2f77 51       		.byte	0x51
 12624 2f78 05       		.uleb128 0x5
 12625 2f79 03       		.byte	0x3
 12626 2f7a 50010000 		.4byte	.LC20
 12627 2f7e 00       		.byte	0
 12628 2f7f 1C       		.uleb128 0x1c
 12629 2f80 10010000 		.4byte	.LVL690
 12630 2f84 8F1A0000 		.4byte	0x1a8f
 12631 2f88 922F0000 		.4byte	0x2f92
 12632 2f8c 1B       		.uleb128 0x1b
 12633 2f8d 01       		.uleb128 0x1
 12634 2f8e 50       		.byte	0x50
 12635 2f8f 01       		.uleb128 0x1
 12636 2f90 31       		.byte	0x31
 12637 2f91 00       		.byte	0
 12638 2f92 1C       		.uleb128 0x1c
 12639 2f93 1A010000 		.4byte	.LVL691
 12640 2f97 4C360000 		.4byte	0x364c
 12641 2f9b AF2F0000 		.4byte	0x2faf
 12642 2f9f 1B       		.uleb128 0x1b
 12643 2fa0 01       		.uleb128 0x1
 12644 2fa1 50       		.byte	0x50
 12645 2fa2 02       		.uleb128 0x2
 12646 2fa3 74       		.byte	0x74
 12647 2fa4 00       		.sleb128 0
 12648 2fa5 1B       		.uleb128 0x1b
 12649 2fa6 01       		.uleb128 0x1
 12650 2fa7 51       		.byte	0x51
 12651 2fa8 05       		.uleb128 0x5
 12652 2fa9 03       		.byte	0x3
 12653 2faa 6C010000 		.4byte	.LC21
 12654 2fae 00       		.byte	0
 12655 2faf 1C       		.uleb128 0x1c
 12656 2fb0 26010000 		.4byte	.LVL692
 12657 2fb4 39160000 		.4byte	0x1639
 12658 2fb8 C42F0000 		.4byte	0x2fc4
 12659 2fbc 1B       		.uleb128 0x1b
 12660 2fbd 01       		.uleb128 0x1
 12661 2fbe 50       		.byte	0x50
 12662 2fbf 03       		.uleb128 0x3
 12663 2fc0 0A       		.byte	0xa
 12664 2fc1 2C01     		.2byte	0x12c
 12665 2fc3 00       		.byte	0
 12666 2fc4 1C       		.uleb128 0x1c
 12667 2fc5 30010000 		.4byte	.LVL693
 12668 2fc9 4C360000 		.4byte	0x364c
ARM GAS  C:\Users\FRANKL~1\AppData\Local\Temp\ccLkvCvD.s 			page 260


 12669 2fcd E12F0000 		.4byte	0x2fe1
 12670 2fd1 1B       		.uleb128 0x1b
 12671 2fd2 01       		.uleb128 0x1
 12672 2fd3 50       		.byte	0x50
 12673 2fd4 02       		.uleb128 0x2
 12674 2fd5 74       		.byte	0x74
 12675 2fd6 00       		.sleb128 0
 12676 2fd7 1B       		.uleb128 0x1b
 12677 2fd8 01       		.uleb128 0x1
 12678 2fd9 51       		.byte	0x51
 12679 2fda 05       		.uleb128 0x5
 12680 2fdb 03       		.byte	0x3
 12681 2fdc 80010000 		.4byte	.LC22
 12682 2fe0 00       		.byte	0
 12683 2fe1 1C       		.uleb128 0x1c
 12684 2fe2 58010000 		.4byte	.LVL697
 12685 2fe6 4C360000 		.4byte	0x364c
 12686 2fea FE2F0000 		.4byte	0x2ffe
 12687 2fee 1B       		.uleb128 0x1b
 12688 2fef 01       		.uleb128 0x1
 12689 2ff0 50       		.byte	0x50
 12690 2ff1 02       		.uleb128 0x2
 12691 2ff2 74       		.byte	0x74
 12692 2ff3 00       		.sleb128 0
 12693 2ff4 1B       		.uleb128 0x1b
 12694 2ff5 01       		.uleb128 0x1
 12695 2ff6 51       		.byte	0x51
 12696 2ff7 05       		.uleb128 0x5
 12697 2ff8 03       		.byte	0x3
 12698 2ff9 90010000 		.4byte	.LC23
 12699 2ffd 00       		.byte	0
 12700 2ffe 1C       		.uleb128 0x1c
 12701 2fff 80010000 		.4byte	.LVL701
 12702 3003 4C360000 		.4byte	0x364c
 12703 3007 1B300000 		.4byte	0x301b
 12704 300b 1B       		.uleb128 0x1b
 12705 300c 01       		.uleb128 0x1
 12706 300d 50       		.byte	0x50
 12707 300e 02       		.uleb128 0x2
 12708 300f 74       		.byte	0x74
 12709 3010 00       		.sleb128 0
 12710 3011 1B       		.uleb128 0x1b
 12711 3012 01       		.uleb128 0x1
 12712 3013 51       		.byte	0x51
 12713 3014 05       		.uleb128 0x5
 12714 3015 03       		.byte	0x3
 12715 3016 A0010000 		.4byte	.LC24
 12716 301a 00       		.byte	0
 12717 301b 1C       		.uleb128 0x1c
 12718 301c A8010000 		.4byte	.LVL705
 12719 3020 4C360000 		.4byte	0x364c
 12720 3024 38300000 		.4byte	0x3038
 12721 3028 1B       		.uleb128 0x1b
 12722 3029 01       		.uleb128 0x1
 12723 302a 50       		.byte	0x50
 12724 302b 02       		.uleb128 0x2
 12725 302c 74       		.byte	0x74
ARM GAS  C:\Users\FRANKL~1\AppData\Local\Temp\ccLkvCvD.s 			page 261


 12726 302d 00       		.sleb128 0
 12727 302e 1B       		.uleb128 0x1b
 12728 302f 01       		.uleb128 0x1
 12729 3030 51       		.byte	0x51
 12730 3031 05       		.uleb128 0x5
 12731 3032 03       		.byte	0x3
 12732 3033 B0010000 		.4byte	.LC25
 12733 3037 00       		.byte	0
 12734 3038 1C       		.uleb128 0x1c
 12735 3039 D0010000 		.4byte	.LVL709
 12736 303d 4C360000 		.4byte	0x364c
 12737 3041 55300000 		.4byte	0x3055
 12738 3045 1B       		.uleb128 0x1b
 12739 3046 01       		.uleb128 0x1
 12740 3047 50       		.byte	0x50
 12741 3048 02       		.uleb128 0x2
 12742 3049 74       		.byte	0x74
 12743 304a 00       		.sleb128 0
 12744 304b 1B       		.uleb128 0x1b
 12745 304c 01       		.uleb128 0x1
 12746 304d 51       		.byte	0x51
 12747 304e 05       		.uleb128 0x5
 12748 304f 03       		.byte	0x3
 12749 3050 C0010000 		.4byte	.LC26
 12750 3054 00       		.byte	0
 12751 3055 1C       		.uleb128 0x1c
 12752 3056 FA010000 		.4byte	.LVL713
 12753 305a 4C360000 		.4byte	0x364c
 12754 305e 72300000 		.4byte	0x3072
 12755 3062 1B       		.uleb128 0x1b
 12756 3063 01       		.uleb128 0x1
 12757 3064 50       		.byte	0x50
 12758 3065 02       		.uleb128 0x2
 12759 3066 74       		.byte	0x74
 12760 3067 00       		.sleb128 0
 12761 3068 1B       		.uleb128 0x1b
 12762 3069 01       		.uleb128 0x1
 12763 306a 51       		.byte	0x51
 12764 306b 05       		.uleb128 0x5
 12765 306c 03       		.byte	0x3
 12766 306d D0010000 		.4byte	.LC28
 12767 3071 00       		.byte	0
 12768 3072 1C       		.uleb128 0x1c
 12769 3073 24020000 		.4byte	.LVL717
 12770 3077 4C360000 		.4byte	0x364c
 12771 307b 8F300000 		.4byte	0x308f
 12772 307f 1B       		.uleb128 0x1b
 12773 3080 01       		.uleb128 0x1
 12774 3081 50       		.byte	0x50
 12775 3082 02       		.uleb128 0x2
 12776 3083 74       		.byte	0x74
 12777 3084 00       		.sleb128 0
 12778 3085 1B       		.uleb128 0x1b
 12779 3086 01       		.uleb128 0x1
 12780 3087 51       		.byte	0x51
 12781 3088 05       		.uleb128 0x5
 12782 3089 03       		.byte	0x3
ARM GAS  C:\Users\FRANKL~1\AppData\Local\Temp\ccLkvCvD.s 			page 262


 12783 308a DC010000 		.4byte	.LC29
 12784 308e 00       		.byte	0
 12785 308f 1C       		.uleb128 0x1c
 12786 3090 78020000 		.4byte	.LVL730
 12787 3094 4C360000 		.4byte	0x364c
 12788 3098 AC300000 		.4byte	0x30ac
 12789 309c 1B       		.uleb128 0x1b
 12790 309d 01       		.uleb128 0x1
 12791 309e 50       		.byte	0x50
 12792 309f 02       		.uleb128 0x2
 12793 30a0 74       		.byte	0x74
 12794 30a1 00       		.sleb128 0
 12795 30a2 1B       		.uleb128 0x1b
 12796 30a3 01       		.uleb128 0x1
 12797 30a4 51       		.byte	0x51
 12798 30a5 05       		.uleb128 0x5
 12799 30a6 03       		.byte	0x3
 12800 30a7 00020000 		.4byte	.LC31
 12801 30ab 00       		.byte	0
 12802 30ac 1C       		.uleb128 0x1c
 12803 30ad CC020000 		.4byte	.LVL743
 12804 30b1 4C360000 		.4byte	0x364c
 12805 30b5 C9300000 		.4byte	0x30c9
 12806 30b9 1B       		.uleb128 0x1b
 12807 30ba 01       		.uleb128 0x1
 12808 30bb 50       		.byte	0x50
 12809 30bc 02       		.uleb128 0x2
 12810 30bd 74       		.byte	0x74
 12811 30be 00       		.sleb128 0
 12812 30bf 1B       		.uleb128 0x1b
 12813 30c0 01       		.uleb128 0x1
 12814 30c1 51       		.byte	0x51
 12815 30c2 05       		.uleb128 0x5
 12816 30c3 03       		.byte	0x3
 12817 30c4 24020000 		.4byte	.LC33
 12818 30c8 00       		.byte	0
 12819 30c9 1C       		.uleb128 0x1c
 12820 30ca E8020000 		.4byte	.LVL745
 12821 30ce A4360000 		.4byte	0x36a4
 12822 30d2 DD300000 		.4byte	0x30dd
 12823 30d6 1B       		.uleb128 0x1b
 12824 30d7 01       		.uleb128 0x1
 12825 30d8 50       		.byte	0x50
 12826 30d9 02       		.uleb128 0x2
 12827 30da 74       		.byte	0x74
 12828 30db 00       		.sleb128 0
 12829 30dc 00       		.byte	0
 12830 30dd 1C       		.uleb128 0x1c
 12831 30de F0020000 		.4byte	.LVL746
 12832 30e2 D1030000 		.4byte	0x3d1
 12833 30e6 F1300000 		.4byte	0x30f1
 12834 30ea 1B       		.uleb128 0x1b
 12835 30eb 01       		.uleb128 0x1
 12836 30ec 50       		.byte	0x50
 12837 30ed 02       		.uleb128 0x2
 12838 30ee 74       		.byte	0x74
 12839 30ef 00       		.sleb128 0
ARM GAS  C:\Users\FRANKL~1\AppData\Local\Temp\ccLkvCvD.s 			page 263


 12840 30f0 00       		.byte	0
 12841 30f1 1C       		.uleb128 0x1c
 12842 30f2 F6020000 		.4byte	.LVL747
 12843 30f6 BA360000 		.4byte	0x36ba
 12844 30fa 05310000 		.4byte	0x3105
 12845 30fe 1B       		.uleb128 0x1b
 12846 30ff 01       		.uleb128 0x1
 12847 3100 50       		.byte	0x50
 12848 3101 02       		.uleb128 0x2
 12849 3102 74       		.byte	0x74
 12850 3103 00       		.sleb128 0
 12851 3104 00       		.byte	0
 12852 3105 1C       		.uleb128 0x1c
 12853 3106 FE020000 		.4byte	.LVL748
 12854 310a 941D0000 		.4byte	0x1d94
 12855 310e 1D310000 		.4byte	0x311d
 12856 3112 1B       		.uleb128 0x1b
 12857 3113 01       		.uleb128 0x1
 12858 3114 50       		.byte	0x50
 12859 3115 01       		.uleb128 0x1
 12860 3116 30       		.byte	0x30
 12861 3117 1B       		.uleb128 0x1b
 12862 3118 01       		.uleb128 0x1
 12863 3119 51       		.byte	0x51
 12864 311a 01       		.uleb128 0x1
 12865 311b 30       		.byte	0x30
 12866 311c 00       		.byte	0
 12867 311d 1C       		.uleb128 0x1c
 12868 311e 14030000 		.4byte	.LVL749
 12869 3122 A4360000 		.4byte	0x36a4
 12870 3126 31310000 		.4byte	0x3131
 12871 312a 1B       		.uleb128 0x1b
 12872 312b 01       		.uleb128 0x1
 12873 312c 50       		.byte	0x50
 12874 312d 02       		.uleb128 0x2
 12875 312e 74       		.byte	0x74
 12876 312f 00       		.sleb128 0
 12877 3130 00       		.byte	0
 12878 3131 1C       		.uleb128 0x1c
 12879 3132 1C030000 		.4byte	.LVL750
 12880 3136 D1030000 		.4byte	0x3d1
 12881 313a 45310000 		.4byte	0x3145
 12882 313e 1B       		.uleb128 0x1b
 12883 313f 01       		.uleb128 0x1
 12884 3140 50       		.byte	0x50
 12885 3141 02       		.uleb128 0x2
 12886 3142 74       		.byte	0x74
 12887 3143 00       		.sleb128 0
 12888 3144 00       		.byte	0
 12889 3145 1C       		.uleb128 0x1c
 12890 3146 22030000 		.4byte	.LVL751
 12891 314a BA360000 		.4byte	0x36ba
 12892 314e 59310000 		.4byte	0x3159
 12893 3152 1B       		.uleb128 0x1b
 12894 3153 01       		.uleb128 0x1
 12895 3154 50       		.byte	0x50
 12896 3155 02       		.uleb128 0x2
ARM GAS  C:\Users\FRANKL~1\AppData\Local\Temp\ccLkvCvD.s 			page 264


 12897 3156 74       		.byte	0x74
 12898 3157 00       		.sleb128 0
 12899 3158 00       		.byte	0
 12900 3159 1C       		.uleb128 0x1c
 12901 315a A0030000 		.4byte	.LVL753
 12902 315e 4C360000 		.4byte	0x364c
 12903 3162 76310000 		.4byte	0x3176
 12904 3166 1B       		.uleb128 0x1b
 12905 3167 01       		.uleb128 0x1
 12906 3168 50       		.byte	0x50
 12907 3169 02       		.uleb128 0x2
 12908 316a 74       		.byte	0x74
 12909 316b 00       		.sleb128 0
 12910 316c 1B       		.uleb128 0x1b
 12911 316d 01       		.uleb128 0x1
 12912 316e 51       		.byte	0x51
 12913 316f 05       		.uleb128 0x5
 12914 3170 03       		.byte	0x3
 12915 3171 54020000 		.4byte	.LC36
 12916 3175 00       		.byte	0
 12917 3176 1C       		.uleb128 0x1c
 12918 3177 32040000 		.4byte	.LVL768
 12919 317b 4C360000 		.4byte	0x364c
 12920 317f 93310000 		.4byte	0x3193
 12921 3183 1B       		.uleb128 0x1b
 12922 3184 01       		.uleb128 0x1
 12923 3185 50       		.byte	0x50
 12924 3186 02       		.uleb128 0x2
 12925 3187 74       		.byte	0x74
 12926 3188 00       		.sleb128 0
 12927 3189 1B       		.uleb128 0x1b
 12928 318a 01       		.uleb128 0x1
 12929 318b 51       		.byte	0x51
 12930 318c 05       		.uleb128 0x5
 12931 318d 03       		.byte	0x3
 12932 318e 98020000 		.4byte	.LC39
 12933 3192 00       		.byte	0
 12934 3193 1C       		.uleb128 0x1c
 12935 3194 D0040000 		.4byte	.LVL783
 12936 3198 4C360000 		.4byte	0x364c
 12937 319c B0310000 		.4byte	0x31b0
 12938 31a0 1B       		.uleb128 0x1b
 12939 31a1 01       		.uleb128 0x1
 12940 31a2 50       		.byte	0x50
 12941 31a3 02       		.uleb128 0x2
 12942 31a4 74       		.byte	0x74
 12943 31a5 00       		.sleb128 0
 12944 31a6 1B       		.uleb128 0x1b
 12945 31a7 01       		.uleb128 0x1
 12946 31a8 51       		.byte	0x51
 12947 31a9 05       		.uleb128 0x5
 12948 31aa 03       		.byte	0x3
 12949 31ab EC020000 		.4byte	.LC42
 12950 31af 00       		.byte	0
 12951 31b0 1C       		.uleb128 0x1c
 12952 31b1 78050000 		.4byte	.LVL799
 12953 31b5 4C360000 		.4byte	0x364c
ARM GAS  C:\Users\FRANKL~1\AppData\Local\Temp\ccLkvCvD.s 			page 265


 12954 31b9 CD310000 		.4byte	0x31cd
 12955 31bd 1B       		.uleb128 0x1b
 12956 31be 01       		.uleb128 0x1
 12957 31bf 50       		.byte	0x50
 12958 31c0 02       		.uleb128 0x2
 12959 31c1 74       		.byte	0x74
 12960 31c2 00       		.sleb128 0
 12961 31c3 1B       		.uleb128 0x1b
 12962 31c4 01       		.uleb128 0x1
 12963 31c5 51       		.byte	0x51
 12964 31c6 05       		.uleb128 0x5
 12965 31c7 03       		.byte	0x3
 12966 31c8 4C030000 		.4byte	.LC45
 12967 31cc 00       		.byte	0
 12968 31cd 1C       		.uleb128 0x1c
 12969 31ce D4050000 		.4byte	.LVL812
 12970 31d2 4C360000 		.4byte	0x364c
 12971 31d6 EA310000 		.4byte	0x31ea
 12972 31da 1B       		.uleb128 0x1b
 12973 31db 01       		.uleb128 0x1
 12974 31dc 50       		.byte	0x50
 12975 31dd 02       		.uleb128 0x2
 12976 31de 74       		.byte	0x74
 12977 31df 00       		.sleb128 0
 12978 31e0 1B       		.uleb128 0x1b
 12979 31e1 01       		.uleb128 0x1
 12980 31e2 51       		.byte	0x51
 12981 31e3 05       		.uleb128 0x5
 12982 31e4 03       		.byte	0x3
 12983 31e5 70030000 		.4byte	.LC47
 12984 31e9 00       		.byte	0
 12985 31ea 1C       		.uleb128 0x1c
 12986 31eb 30060000 		.4byte	.LVL825
 12987 31ef 4C360000 		.4byte	0x364c
 12988 31f3 07320000 		.4byte	0x3207
 12989 31f7 1B       		.uleb128 0x1b
 12990 31f8 01       		.uleb128 0x1
 12991 31f9 50       		.byte	0x50
 12992 31fa 02       		.uleb128 0x2
 12993 31fb 74       		.byte	0x74
 12994 31fc 00       		.sleb128 0
 12995 31fd 1B       		.uleb128 0x1b
 12996 31fe 01       		.uleb128 0x1
 12997 31ff 51       		.byte	0x51
 12998 3200 05       		.uleb128 0x5
 12999 3201 03       		.byte	0x3
 13000 3202 9C030000 		.4byte	.LC49
 13001 3206 00       		.byte	0
 13002 3207 1C       		.uleb128 0x1c
 13003 3208 8C060000 		.4byte	.LVL838
 13004 320c 4C360000 		.4byte	0x364c
 13005 3210 24320000 		.4byte	0x3224
 13006 3214 1B       		.uleb128 0x1b
 13007 3215 01       		.uleb128 0x1
 13008 3216 50       		.byte	0x50
 13009 3217 02       		.uleb128 0x2
 13010 3218 74       		.byte	0x74
ARM GAS  C:\Users\FRANKL~1\AppData\Local\Temp\ccLkvCvD.s 			page 266


 13011 3219 00       		.sleb128 0
 13012 321a 1B       		.uleb128 0x1b
 13013 321b 01       		.uleb128 0x1
 13014 321c 51       		.byte	0x51
 13015 321d 05       		.uleb128 0x5
 13016 321e 03       		.byte	0x3
 13017 321f C4030000 		.4byte	.LC51
 13018 3223 00       		.byte	0
 13019 3224 1C       		.uleb128 0x1c
 13020 3225 20070000 		.4byte	.LVL849
 13021 3229 4C360000 		.4byte	0x364c
 13022 322d 41320000 		.4byte	0x3241
 13023 3231 1B       		.uleb128 0x1b
 13024 3232 01       		.uleb128 0x1
 13025 3233 50       		.byte	0x50
 13026 3234 02       		.uleb128 0x2
 13027 3235 74       		.byte	0x74
 13028 3236 00       		.sleb128 0
 13029 3237 1B       		.uleb128 0x1b
 13030 3238 01       		.uleb128 0x1
 13031 3239 51       		.byte	0x51
 13032 323a 05       		.uleb128 0x5
 13033 323b 03       		.byte	0x3
 13034 323c FC030000 		.4byte	.LC53
 13035 3240 00       		.byte	0
 13036 3241 12       		.uleb128 0x12
 13037 3242 28070000 		.4byte	.LVL850
 13038 3246 E2090000 		.4byte	0x9e2
 13039 324a 1C       		.uleb128 0x1c
 13040 324b 48070000 		.4byte	.LVL852
 13041 324f A4360000 		.4byte	0x36a4
 13042 3253 5E320000 		.4byte	0x325e
 13043 3257 1B       		.uleb128 0x1b
 13044 3258 01       		.uleb128 0x1
 13045 3259 50       		.byte	0x50
 13046 325a 02       		.uleb128 0x2
 13047 325b 75       		.byte	0x75
 13048 325c 00       		.sleb128 0
 13049 325d 00       		.byte	0
 13050 325e 1C       		.uleb128 0x1c
 13051 325f 50070000 		.4byte	.LVL853
 13052 3263 D1030000 		.4byte	0x3d1
 13053 3267 72320000 		.4byte	0x3272
 13054 326b 1B       		.uleb128 0x1b
 13055 326c 01       		.uleb128 0x1
 13056 326d 50       		.byte	0x50
 13057 326e 02       		.uleb128 0x2
 13058 326f 75       		.byte	0x75
 13059 3270 00       		.sleb128 0
 13060 3271 00       		.byte	0
 13061 3272 1C       		.uleb128 0x1c
 13062 3273 56070000 		.4byte	.LVL854
 13063 3277 BA360000 		.4byte	0x36ba
 13064 327b 86320000 		.4byte	0x3286
 13065 327f 1B       		.uleb128 0x1b
 13066 3280 01       		.uleb128 0x1
 13067 3281 50       		.byte	0x50
ARM GAS  C:\Users\FRANKL~1\AppData\Local\Temp\ccLkvCvD.s 			page 267


 13068 3282 02       		.uleb128 0x2
 13069 3283 75       		.byte	0x75
 13070 3284 00       		.sleb128 0
 13071 3285 00       		.byte	0
 13072 3286 1C       		.uleb128 0x1c
 13073 3287 60070000 		.4byte	.LVL856
 13074 328b 4C360000 		.4byte	0x364c
 13075 328f A3320000 		.4byte	0x32a3
 13076 3293 1B       		.uleb128 0x1b
 13077 3294 01       		.uleb128 0x1
 13078 3295 50       		.byte	0x50
 13079 3296 02       		.uleb128 0x2
 13080 3297 74       		.byte	0x74
 13081 3298 00       		.sleb128 0
 13082 3299 1B       		.uleb128 0x1b
 13083 329a 01       		.uleb128 0x1
 13084 329b 51       		.byte	0x51
 13085 329c 05       		.uleb128 0x5
 13086 329d 03       		.byte	0x3
 13087 329e 38040000 		.4byte	.LC55
 13088 32a2 00       		.byte	0
 13089 32a3 1C       		.uleb128 0x1c
 13090 32a4 AA070000 		.4byte	.LVL867
 13091 32a8 4C360000 		.4byte	0x364c
 13092 32ac C0320000 		.4byte	0x32c0
 13093 32b0 1B       		.uleb128 0x1b
 13094 32b1 01       		.uleb128 0x1
 13095 32b2 50       		.byte	0x50
 13096 32b3 02       		.uleb128 0x2
 13097 32b4 74       		.byte	0x74
 13098 32b5 00       		.sleb128 0
 13099 32b6 1B       		.uleb128 0x1b
 13100 32b7 01       		.uleb128 0x1
 13101 32b8 51       		.byte	0x51
 13102 32b9 05       		.uleb128 0x5
 13103 32ba 03       		.byte	0x3
 13104 32bb 70040000 		.4byte	.LC57
 13105 32bf 00       		.byte	0
 13106 32c0 1C       		.uleb128 0x1c
 13107 32c1 F4070000 		.4byte	.LVL878
 13108 32c5 4C360000 		.4byte	0x364c
 13109 32c9 DD320000 		.4byte	0x32dd
 13110 32cd 1B       		.uleb128 0x1b
 13111 32ce 01       		.uleb128 0x1
 13112 32cf 50       		.byte	0x50
 13113 32d0 02       		.uleb128 0x2
 13114 32d1 74       		.byte	0x74
 13115 32d2 00       		.sleb128 0
 13116 32d3 1B       		.uleb128 0x1b
 13117 32d4 01       		.uleb128 0x1
 13118 32d5 51       		.byte	0x51
 13119 32d6 05       		.uleb128 0x5
 13120 32d7 03       		.byte	0x3
 13121 32d8 A8040000 		.4byte	.LC59
 13122 32dc 00       		.byte	0
 13123 32dd 12       		.uleb128 0x12
 13124 32de FC070000 		.4byte	.LVL879
ARM GAS  C:\Users\FRANKL~1\AppData\Local\Temp\ccLkvCvD.s 			page 268


 13125 32e2 0A0B0000 		.4byte	0xb0a
 13126 32e6 1C       		.uleb128 0x1c
 13127 32e7 18080000 		.4byte	.LVL881
 13128 32eb A4360000 		.4byte	0x36a4
 13129 32ef FA320000 		.4byte	0x32fa
 13130 32f3 1B       		.uleb128 0x1b
 13131 32f4 01       		.uleb128 0x1
 13132 32f5 50       		.byte	0x50
 13133 32f6 02       		.uleb128 0x2
 13134 32f7 75       		.byte	0x75
 13135 32f8 00       		.sleb128 0
 13136 32f9 00       		.byte	0
 13137 32fa 1C       		.uleb128 0x1c
 13138 32fb 20080000 		.4byte	.LVL882
 13139 32ff D1030000 		.4byte	0x3d1
 13140 3303 0E330000 		.4byte	0x330e
 13141 3307 1B       		.uleb128 0x1b
 13142 3308 01       		.uleb128 0x1
 13143 3309 50       		.byte	0x50
 13144 330a 02       		.uleb128 0x2
 13145 330b 75       		.byte	0x75
 13146 330c 00       		.sleb128 0
 13147 330d 00       		.byte	0
 13148 330e 1C       		.uleb128 0x1c
 13149 330f 26080000 		.4byte	.LVL883
 13150 3313 BA360000 		.4byte	0x36ba
 13151 3317 22330000 		.4byte	0x3322
 13152 331b 1B       		.uleb128 0x1b
 13153 331c 01       		.uleb128 0x1
 13154 331d 50       		.byte	0x50
 13155 331e 02       		.uleb128 0x2
 13156 331f 75       		.byte	0x75
 13157 3320 00       		.sleb128 0
 13158 3321 00       		.byte	0
 13159 3322 1C       		.uleb128 0x1c
 13160 3323 30080000 		.4byte	.LVL885
 13161 3327 4C360000 		.4byte	0x364c
 13162 332b 3F330000 		.4byte	0x333f
 13163 332f 1B       		.uleb128 0x1b
 13164 3330 01       		.uleb128 0x1
 13165 3331 50       		.byte	0x50
 13166 3332 02       		.uleb128 0x2
 13167 3333 74       		.byte	0x74
 13168 3334 00       		.sleb128 0
 13169 3335 1B       		.uleb128 0x1b
 13170 3336 01       		.uleb128 0x1
 13171 3337 51       		.byte	0x51
 13172 3338 05       		.uleb128 0x5
 13173 3339 03       		.byte	0x3
 13174 333a DC040000 		.4byte	.LC61
 13175 333e 00       		.byte	0
 13176 333f 1C       		.uleb128 0x1c
 13177 3340 98080000 		.4byte	.LVL894
 13178 3344 DB360000 		.4byte	0x36db
 13179 3348 62330000 		.4byte	0x3362
 13180 334c 1B       		.uleb128 0x1b
 13181 334d 01       		.uleb128 0x1
ARM GAS  C:\Users\FRANKL~1\AppData\Local\Temp\ccLkvCvD.s 			page 269


 13182 334e 50       		.byte	0x50
 13183 334f 02       		.uleb128 0x2
 13184 3350 75       		.byte	0x75
 13185 3351 00       		.sleb128 0
 13186 3352 1B       		.uleb128 0x1b
 13187 3353 01       		.uleb128 0x1
 13188 3354 51       		.byte	0x51
 13189 3355 05       		.uleb128 0x5
 13190 3356 03       		.byte	0x3
 13191 3357 30050000 		.4byte	.LC63
 13192 335b 1B       		.uleb128 0x1b
 13193 335c 01       		.uleb128 0x1
 13194 335d 52       		.byte	0x52
 13195 335e 02       		.uleb128 0x2
 13196 335f 74       		.byte	0x74
 13197 3360 00       		.sleb128 0
 13198 3361 00       		.byte	0
 13199 3362 1C       		.uleb128 0x1c
 13200 3363 9E080000 		.4byte	.LVL895
 13201 3367 A4360000 		.4byte	0x36a4
 13202 336b 76330000 		.4byte	0x3376
 13203 336f 1B       		.uleb128 0x1b
 13204 3370 01       		.uleb128 0x1
 13205 3371 50       		.byte	0x50
 13206 3372 02       		.uleb128 0x2
 13207 3373 75       		.byte	0x75
 13208 3374 00       		.sleb128 0
 13209 3375 00       		.byte	0
 13210 3376 1C       		.uleb128 0x1c
 13211 3377 A6080000 		.4byte	.LVL896
 13212 337b D1030000 		.4byte	0x3d1
 13213 337f 8A330000 		.4byte	0x338a
 13214 3383 1B       		.uleb128 0x1b
 13215 3384 01       		.uleb128 0x1
 13216 3385 50       		.byte	0x50
 13217 3386 02       		.uleb128 0x2
 13218 3387 75       		.byte	0x75
 13219 3388 00       		.sleb128 0
 13220 3389 00       		.byte	0
 13221 338a 1A       		.uleb128 0x1a
 13222 338b AC080000 		.4byte	.LVL897
 13223 338f BA360000 		.4byte	0x36ba
 13224 3393 1B       		.uleb128 0x1b
 13225 3394 01       		.uleb128 0x1
 13226 3395 50       		.byte	0x50
 13227 3396 02       		.uleb128 0x2
 13228 3397 75       		.byte	0x75
 13229 3398 00       		.sleb128 0
 13230 3399 00       		.byte	0
 13231 339a 00       		.byte	0
 13232 339b 12       		.uleb128 0x12
 13233 339c 0A000000 		.4byte	.LVL659
 13234 33a0 5E080000 		.4byte	0x85e
 13235 33a4 1C       		.uleb128 0x1c
 13236 33a5 12000000 		.4byte	.LVL660
 13237 33a9 D1370000 		.4byte	0x37d1
 13238 33ad BC330000 		.4byte	0x33bc
ARM GAS  C:\Users\FRANKL~1\AppData\Local\Temp\ccLkvCvD.s 			page 270


 13239 33b1 1B       		.uleb128 0x1b
 13240 33b2 01       		.uleb128 0x1
 13241 33b3 50       		.byte	0x50
 13242 33b4 01       		.uleb128 0x1
 13243 33b5 30       		.byte	0x30
 13244 33b6 1B       		.uleb128 0x1b
 13245 33b7 01       		.uleb128 0x1
 13246 33b8 51       		.byte	0x51
 13247 33b9 01       		.uleb128 0x1
 13248 33ba 31       		.byte	0x31
 13249 33bb 00       		.byte	0
 13250 33bc 12       		.uleb128 0x12
 13251 33bd 16000000 		.4byte	.LVL661
 13252 33c1 DD370000 		.4byte	0x37dd
 13253 33c5 12       		.uleb128 0x12
 13254 33c6 1A000000 		.4byte	.LVL662
 13255 33ca E8370000 		.4byte	0x37e8
 13256 33ce 12       		.uleb128 0x12
 13257 33cf 1E000000 		.4byte	.LVL663
 13258 33d3 F3370000 		.4byte	0x37f3
 13259 33d7 12       		.uleb128 0x12
 13260 33d8 22000000 		.4byte	.LVL664
 13261 33dc FE370000 		.4byte	0x37fe
 13262 33e0 12       		.uleb128 0x12
 13263 33e1 26000000 		.4byte	.LVL665
 13264 33e5 09380000 		.4byte	0x3809
 13265 33e9 12       		.uleb128 0x12
 13266 33ea 2A000000 		.4byte	.LVL666
 13267 33ee 14380000 		.4byte	0x3814
 13268 33f2 12       		.uleb128 0x12
 13269 33f3 2E000000 		.4byte	.LVL667
 13270 33f7 D0360000 		.4byte	0x36d0
 13271 33fb 12       		.uleb128 0x12
 13272 33fc 32000000 		.4byte	.LVL668
 13273 3400 1F380000 		.4byte	0x381f
 13274 3404 12       		.uleb128 0x12
 13275 3405 36000000 		.4byte	.LVL669
 13276 3409 2A380000 		.4byte	0x382a
 13277 340d 1C       		.uleb128 0x1c
 13278 340e 3E000000 		.4byte	.LVL670
 13279 3412 35380000 		.4byte	0x3835
 13280 3416 22340000 		.4byte	0x3422
 13281 341a 1B       		.uleb128 0x1b
 13282 341b 01       		.uleb128 0x1
 13283 341c 50       		.byte	0x50
 13284 341d 03       		.uleb128 0x3
 13285 341e 0A       		.byte	0xa
 13286 341f E803     		.2byte	0x3e8
 13287 3421 00       		.byte	0
 13288 3422 1C       		.uleb128 0x1c
 13289 3423 44000000 		.4byte	.LVL671
 13290 3427 BA360000 		.4byte	0x36ba
 13291 342b 39340000 		.4byte	0x3439
 13292 342f 1B       		.uleb128 0x1b
 13293 3430 01       		.uleb128 0x1
 13294 3431 50       		.byte	0x50
 13295 3432 05       		.uleb128 0x5
ARM GAS  C:\Users\FRANKL~1\AppData\Local\Temp\ccLkvCvD.s 			page 271


 13296 3433 03       		.byte	0x3
 13297 3434 FC000000 		.4byte	.LC15
 13298 3438 00       		.byte	0
 13299 3439 12       		.uleb128 0x12
 13300 343a 48000000 		.4byte	.LVL672
 13301 343e 0A0B0000 		.4byte	0xb0a
 13302 3442 12       		.uleb128 0x12
 13303 3443 5A000000 		.4byte	.LVL673
 13304 3447 40380000 		.4byte	0x3840
 13305 344b 1C       		.uleb128 0x1c
 13306 344c 60000000 		.4byte	.LVL674
 13307 3450 4B380000 		.4byte	0x384b
 13308 3454 62340000 		.4byte	0x3462
 13309 3458 1B       		.uleb128 0x1b
 13310 3459 01       		.uleb128 0x1
 13311 345a 50       		.byte	0x50
 13312 345b 05       		.uleb128 0x5
 13313 345c 03       		.byte	0x3
 13314 345d 00000000 		.4byte	CommunicationHandlerISR
 13315 3461 00       		.byte	0
 13316 3462 1C       		.uleb128 0x1c
 13317 3463 6E000000 		.4byte	.LVL675
 13318 3467 39160000 		.4byte	0x1639
 13319 346b 77340000 		.4byte	0x3477
 13320 346f 1B       		.uleb128 0x1b
 13321 3470 01       		.uleb128 0x1
 13322 3471 50       		.byte	0x50
 13323 3472 03       		.uleb128 0x3
 13324 3473 0A       		.byte	0xa
 13325 3474 2C01     		.2byte	0x12c
 13326 3476 00       		.byte	0
 13327 3477 12       		.uleb128 0x12
 13328 3478 74000000 		.4byte	.LVL676
 13329 347c 470B0000 		.4byte	0xb47
 13330 3480 00       		.byte	0
 13331 3481 2E       		.uleb128 0x2e
 13332 3482 40070000 		.4byte	.LASF178
 13333 3486 06       		.byte	0x6
 13334 3487 1207     		.2byte	0x712
 13335 3489 8D340000 		.4byte	0x348d
 13336 348d 08       		.uleb128 0x8
 13337 348e AA000000 		.4byte	0xaa
 13338 3492 09       		.uleb128 0x9
 13339 3493 70010000 		.4byte	0x170
 13340 3497 A2340000 		.4byte	0x34a2
 13341 349b 0A       		.uleb128 0xa
 13342 349c 8B000000 		.4byte	0x8b
 13343 34a0 03       		.byte	0x3
 13344 34a1 00       		.byte	0
 13345 34a2 2F       		.uleb128 0x2f
 13346 34a3 76070000 		.4byte	.LASF179
 13347 34a7 02       		.byte	0x2
 13348 34a8 1D       		.byte	0x1d
 13349 34a9 92340000 		.4byte	0x3492
 13350 34ad 05       		.uleb128 0x5
 13351 34ae 03       		.byte	0x3
 13352 34af 00000000 		.4byte	selectors
ARM GAS  C:\Users\FRANKL~1\AppData\Local\Temp\ccLkvCvD.s 			page 272


 13353 34b3 2F       		.uleb128 0x2f
 13354 34b4 390A0000 		.4byte	.LASF180
 13355 34b8 02       		.byte	0x2
 13356 34b9 1E       		.byte	0x1e
 13357 34ba C1030000 		.4byte	0x3c1
 13358 34be 05       		.uleb128 0x5
 13359 34bf 03       		.byte	0x3
 13360 34c0 00000000 		.4byte	TransmitBuffer
 13361 34c4 2F       		.uleb128 0x2f
 13362 34c5 21050000 		.4byte	.LASF181
 13363 34c9 02       		.byte	0x2
 13364 34ca 20       		.byte	0x20
 13365 34cb 09010000 		.4byte	0x109
 13366 34cf 05       		.uleb128 0x5
 13367 34d0 03       		.byte	0x3
 13368 34d1 00000000 		.4byte	newData
 13369 34d5 2F       		.uleb128 0x2f
 13370 34d6 D50B0000 		.4byte	.LASF182
 13371 34da 02       		.byte	0x2
 13372 34db 21       		.byte	0x21
 13373 34dc 09010000 		.4byte	0x109
 13374 34e0 05       		.uleb128 0x5
 13375 34e1 03       		.byte	0x3
 13376 34e2 00000000 		.4byte	G_Stop
 13377 34e6 2F       		.uleb128 0x2f
 13378 34e7 29010000 		.4byte	.LASF183
 13379 34eb 02       		.byte	0x2
 13380 34ec 22       		.byte	0x22
 13381 34ed 09010000 		.4byte	0x109
 13382 34f1 05       		.uleb128 0x5
 13383 34f2 03       		.byte	0x3
 13384 34f3 00000000 		.4byte	G_Break
 13385 34f7 2F       		.uleb128 0x2f
 13386 34f8 890C0000 		.4byte	.LASF184
 13387 34fc 02       		.byte	0x2
 13388 34fd 23       		.byte	0x23
 13389 34fe 09010000 		.4byte	0x109
 13390 3502 05       		.uleb128 0x5
 13391 3503 03       		.byte	0x3
 13392 3504 00000000 		.4byte	G_Pause
 13393 3508 09       		.uleb128 0x9
 13394 3509 18350000 		.4byte	0x3518
 13395 350d 18350000 		.4byte	0x3518
 13396 3511 0A       		.uleb128 0xa
 13397 3512 8B000000 		.4byte	0x8b
 13398 3516 3F       		.byte	0x3f
 13399 3517 00       		.byte	0
 13400 3518 08       		.uleb128 0x8
 13401 3519 98000000 		.4byte	0x98
 13402 351d 2F       		.uleb128 0x2f
 13403 351e 900A0000 		.4byte	.LASF185
 13404 3522 02       		.byte	0x2
 13405 3523 25       		.byte	0x25
 13406 3524 2E350000 		.4byte	0x352e
 13407 3528 05       		.uleb128 0x5
 13408 3529 03       		.byte	0x3
 13409 352a 00000000 		.4byte	UART_Receive_Buffer
ARM GAS  C:\Users\FRANKL~1\AppData\Local\Temp\ccLkvCvD.s 			page 273


 13410 352e 08       		.uleb128 0x8
 13411 352f 08350000 		.4byte	0x3508
 13412 3533 2F       		.uleb128 0x2f
 13413 3534 010A0000 		.4byte	.LASF186
 13414 3538 02       		.byte	0x2
 13415 3539 26       		.byte	0x26
 13416 353a 09010000 		.4byte	0x109
 13417 353e 05       		.uleb128 0x5
 13418 353f 03       		.byte	0x3
 13419 3540 00000000 		.4byte	UART_Rx_Position
 13420 3544 2F       		.uleb128 0x2f
 13421 3545 12010000 		.4byte	.LASF187
 13422 3549 02       		.byte	0x2
 13423 354a 28       		.byte	0x28
 13424 354b 55350000 		.4byte	0x3555
 13425 354f 05       		.uleb128 0x5
 13426 3550 03       		.byte	0x3
 13427 3551 00000000 		.4byte	USBUART_Receive_Buffer
 13428 3555 08       		.uleb128 0x8
 13429 3556 08350000 		.4byte	0x3508
 13430 355a 2F       		.uleb128 0x2f
 13431 355b D1090000 		.4byte	.LASF188
 13432 355f 02       		.byte	0x2
 13433 3560 29       		.byte	0x29
 13434 3561 09010000 		.4byte	0x109
 13435 3565 05       		.uleb128 0x5
 13436 3566 03       		.byte	0x3
 13437 3567 00000000 		.4byte	USBUART_Rx_Position
 13438 356b 2F       		.uleb128 0x2f
 13439 356c 7A050000 		.4byte	.LASF189
 13440 3570 02       		.byte	0x2
 13441 3571 2C       		.byte	0x2c
 13442 3572 B5000000 		.4byte	0xb5
 13443 3576 05       		.uleb128 0x5
 13444 3577 03       		.byte	0x3
 13445 3578 00000000 		.4byte	TIA_Selected_Resistor
 13446 357c 2F       		.uleb128 0x2f
 13447 357d 5D090000 		.4byte	.LASF190
 13448 3581 02       		.byte	0x2
 13449 3582 2E       		.byte	0x2e
 13450 3583 0E010000 		.4byte	0x10e
 13451 3587 05       		.uleb128 0x5
 13452 3588 03       		.byte	0x3
 13453 3589 00000000 		.4byte	TIA_Resistor_Codes
 13454 358d 09       		.uleb128 0x9
 13455 358e 25000000 		.4byte	0x25
 13456 3592 9D350000 		.4byte	0x359d
 13457 3596 0A       		.uleb128 0xa
 13458 3597 8B000000 		.4byte	0x8b
 13459 359b 07       		.byte	0x7
 13460 359c 00       		.byte	0
 13461 359d 2F       		.uleb128 0x2f
 13462 359e F2000000 		.4byte	.LASF191
 13463 35a2 02       		.byte	0x2
 13464 35a3 2F       		.byte	0x2f
 13465 35a4 8D350000 		.4byte	0x358d
 13466 35a8 05       		.uleb128 0x5
ARM GAS  C:\Users\FRANKL~1\AppData\Local\Temp\ccLkvCvD.s 			page 274


 13467 35a9 03       		.byte	0x3
 13468 35aa 00000000 		.4byte	TIA_Resistor_Values
 13469 35ae 09       		.uleb128 0x9
 13470 35af F1000000 		.4byte	0xf1
 13471 35b3 BE350000 		.4byte	0x35be
 13472 35b7 0A       		.uleb128 0xa
 13473 35b8 8B000000 		.4byte	0x8b
 13474 35bc 07       		.byte	0x7
 13475 35bd 00       		.byte	0
 13476 35be 2F       		.uleb128 0x2f
 13477 35bf A40A0000 		.4byte	.LASF192
 13478 35c3 02       		.byte	0x2
 13479 35c4 30       		.byte	0x30
 13480 35c5 AE350000 		.4byte	0x35ae
 13481 35c9 05       		.uleb128 0x5
 13482 35ca 03       		.byte	0x3
 13483 35cb 00000000 		.4byte	TIA_Offsets_uV
 13484 35cf 2F       		.uleb128 0x2f
 13485 35d0 57070000 		.4byte	.LASF193
 13486 35d4 02       		.byte	0x2
 13487 35d5 32       		.byte	0x32
 13488 35d6 B5000000 		.4byte	0xb5
 13489 35da 05       		.uleb128 0x5
 13490 35db 03       		.byte	0x3
 13491 35dc 00000000 		.4byte	Compliance_Reached
 13492 35e0 2F       		.uleb128 0x2f
 13493 35e1 120A0000 		.4byte	.LASF194
 13494 35e5 02       		.byte	0x2
 13495 35e6 33       		.byte	0x33
 13496 35e7 E5000000 		.4byte	0xe5
 13497 35eb 05       		.uleb128 0x5
 13498 35ec 03       		.byte	0x3
 13499 35ed 00000000 		.4byte	Vgs_Index_Goal_Relative
 13500 35f1 2F       		.uleb128 0x2f
 13501 35f2 FD050000 		.4byte	.LASF195
 13502 35f6 02       		.byte	0x2
 13503 35f7 34       		.byte	0x34
 13504 35f8 E5000000 		.4byte	0xe5
 13505 35fc 05       		.uleb128 0x5
 13506 35fd 03       		.byte	0x3
 13507 35fe 00000000 		.4byte	Vds_Index_Goal_Relative
 13508 3602 2F       		.uleb128 0x2f
 13509 3603 5B010000 		.4byte	.LASF196
 13510 3607 02       		.byte	0x2
 13511 3608 36       		.byte	0x36
 13512 3609 CD000000 		.4byte	0xcd
 13513 360d 05       		.uleb128 0x5
 13514 360e 03       		.byte	0x3
 13515 360f 00000000 		.4byte	Current_Measurement_Sample_Count
 13516 3613 30       		.uleb128 0x30
 13517 3614 110D0000 		.4byte	.LASF197
 13518 3618 110D0000 		.4byte	.LASF197
 13519 361c 07       		.byte	0x7
 13520 361d 2E01     		.2byte	0x12e
 13521 361f 30       		.uleb128 0x30
 13522 3620 2F0B0000 		.4byte	.LASF198
 13523 3624 2F0B0000 		.4byte	.LASF198
ARM GAS  C:\Users\FRANKL~1\AppData\Local\Temp\ccLkvCvD.s 			page 275


 13524 3628 07       		.byte	0x7
 13525 3629 2D01     		.2byte	0x12d
 13526 362b 31       		.uleb128 0x31
 13527 362c E5090000 		.4byte	.LASF199
 13528 3630 E5090000 		.4byte	.LASF199
 13529 3634 08       		.byte	0x8
 13530 3635 22       		.byte	0x22
 13531 3636 31       		.uleb128 0x31
 13532 3637 B30A0000 		.4byte	.LASF200
 13533 363b B30A0000 		.4byte	.LASF200
 13534 363f 08       		.byte	0x8
 13535 3640 29       		.byte	0x29
 13536 3641 31       		.uleb128 0x31
 13537 3642 65050000 		.4byte	.LASF201
 13538 3646 65050000 		.4byte	.LASF201
 13539 364a 08       		.byte	0x8
 13540 364b 2B       		.byte	0x2b
 13541 364c 31       		.uleb128 0x31
 13542 364d CE0B0000 		.4byte	.LASF202
 13543 3651 CE0B0000 		.4byte	.LASF202
 13544 3655 09       		.byte	0x9
 13545 3656 28       		.byte	0x28
 13546 3657 31       		.uleb128 0x31
 13547 3658 C40C0000 		.4byte	.LASF203
 13548 365c C40C0000 		.4byte	.LASF203
 13549 3660 0A       		.byte	0xa
 13550 3661 73       		.byte	0x73
 13551 3662 31       		.uleb128 0x31
 13552 3663 300D0000 		.4byte	.LASF204
 13553 3667 300D0000 		.4byte	.LASF204
 13554 366b 0A       		.byte	0xa
 13555 366c 71       		.byte	0x71
 13556 366d 31       		.uleb128 0x31
 13557 366e FC0D0000 		.4byte	.LASF205
 13558 3672 FC0D0000 		.4byte	.LASF205
 13559 3676 0B       		.byte	0xb
 13560 3677 28       		.byte	0x28
 13561 3678 31       		.uleb128 0x31
 13562 3679 8C080000 		.4byte	.LASF206
 13563 367d 8C080000 		.4byte	.LASF206
 13564 3681 0C       		.byte	0xc
 13565 3682 5E       		.byte	0x5e
 13566 3683 31       		.uleb128 0x31
 13567 3684 8B040000 		.4byte	.LASF207
 13568 3688 8B040000 		.4byte	.LASF207
 13569 368c 08       		.byte	0x8
 13570 368d 28       		.byte	0x28
 13571 368e 31       		.uleb128 0x31
 13572 368f 70090000 		.4byte	.LASF208
 13573 3693 70090000 		.4byte	.LASF208
 13574 3697 08       		.byte	0x8
 13575 3698 23       		.byte	0x23
 13576 3699 31       		.uleb128 0x31
 13577 369a 5F0D0000 		.4byte	.LASF209
 13578 369e 5F0D0000 		.4byte	.LASF209
 13579 36a2 08       		.byte	0x8
 13580 36a3 2C       		.byte	0x2c
ARM GAS  C:\Users\FRANKL~1\AppData\Local\Temp\ccLkvCvD.s 			page 276


 13581 36a4 31       		.uleb128 0x31
 13582 36a5 A00D0000 		.4byte	.LASF210
 13583 36a9 A00D0000 		.4byte	.LASF210
 13584 36ad 09       		.byte	0x9
 13585 36ae 21       		.byte	0x21
 13586 36af 31       		.uleb128 0x31
 13587 36b0 06040000 		.4byte	.LASF211
 13588 36b4 06040000 		.4byte	.LASF211
 13589 36b8 0D       		.byte	0xd
 13590 36b9 A3       		.byte	0xa3
 13591 36ba 31       		.uleb128 0x31
 13592 36bb C0090000 		.4byte	.LASF212
 13593 36bf C0090000 		.4byte	.LASF212
 13594 36c3 0A       		.byte	0xa
 13595 36c4 8B       		.byte	0x8b
 13596 36c5 31       		.uleb128 0x31
 13597 36c6 7C010000 		.4byte	.LASF213
 13598 36ca 7C010000 		.4byte	.LASF213
 13599 36ce 0D       		.byte	0xd
 13600 36cf 94       		.byte	0x94
 13601 36d0 31       		.uleb128 0x31
 13602 36d1 06010000 		.4byte	.LASF214
 13603 36d5 06010000 		.4byte	.LASF214
 13604 36d9 0D       		.byte	0xd
 13605 36da 93       		.byte	0x93
 13606 36db 31       		.uleb128 0x31
 13607 36dc 15060000 		.4byte	.LASF215
 13608 36e0 15060000 		.4byte	.LASF215
 13609 36e4 0E       		.byte	0xe
 13610 36e5 E7       		.byte	0xe7
 13611 36e6 31       		.uleb128 0x31
 13612 36e7 650C0000 		.4byte	.LASF216
 13613 36eb 650C0000 		.4byte	.LASF216
 13614 36ef 0D       		.byte	0xd
 13615 36f0 A4       		.byte	0xa4
 13616 36f1 31       		.uleb128 0x31
 13617 36f2 830D0000 		.4byte	.LASF217
 13618 36f6 830D0000 		.4byte	.LASF217
 13619 36fa 0D       		.byte	0xd
 13620 36fb A7       		.byte	0xa7
 13621 36fc 31       		.uleb128 0x31
 13622 36fd D50E0000 		.4byte	.LASF218
 13623 3701 D50E0000 		.4byte	.LASF218
 13624 3705 0F       		.byte	0xf
 13625 3706 40       		.byte	0x40
 13626 3707 31       		.uleb128 0x31
 13627 3708 49000000 		.4byte	.LASF219
 13628 370c 49000000 		.4byte	.LASF219
 13629 3710 10       		.byte	0x10
 13630 3711 3D       		.byte	0x3d
 13631 3712 31       		.uleb128 0x31
 13632 3713 56080000 		.4byte	.LASF220
 13633 3717 56080000 		.4byte	.LASF220
 13634 371b 10       		.byte	0x10
 13635 371c 3F       		.byte	0x3f
 13636 371d 31       		.uleb128 0x31
 13637 371e 6E060000 		.4byte	.LASF221
ARM GAS  C:\Users\FRANKL~1\AppData\Local\Temp\ccLkvCvD.s 			page 277


 13638 3722 6E060000 		.4byte	.LASF221
 13639 3726 10       		.byte	0x10
 13640 3727 42       		.byte	0x42
 13641 3728 31       		.uleb128 0x31
 13642 3729 FD040000 		.4byte	.LASF222
 13643 372d FD040000 		.4byte	.LASF222
 13644 3731 10       		.byte	0x10
 13645 3732 48       		.byte	0x48
 13646 3733 31       		.uleb128 0x31
 13647 3734 84030000 		.4byte	.LASF223
 13648 3738 84030000 		.4byte	.LASF223
 13649 373c 11       		.byte	0x11
 13650 373d D1       		.byte	0xd1
 13651 373e 31       		.uleb128 0x31
 13652 373f D8070000 		.4byte	.LASF224
 13653 3743 D8070000 		.4byte	.LASF224
 13654 3747 11       		.byte	0x11
 13655 3748 39       		.byte	0x39
 13656 3749 31       		.uleb128 0x31
 13657 374a 34030000 		.4byte	.LASF225
 13658 374e 34030000 		.4byte	.LASF225
 13659 3752 11       		.byte	0x11
 13660 3753 3B       		.byte	0x3b
 13661 3754 31       		.uleb128 0x31
 13662 3755 BA040000 		.4byte	.LASF226
 13663 3759 BA040000 		.4byte	.LASF226
 13664 375d 11       		.byte	0x11
 13665 375e 40       		.byte	0x40
 13666 375f 31       		.uleb128 0x31
 13667 3760 030F0000 		.4byte	.LASF227
 13668 3764 030F0000 		.4byte	.LASF227
 13669 3768 12       		.byte	0x12
 13670 3769 D1       		.byte	0xd1
 13671 376a 31       		.uleb128 0x31
 13672 376b 18070000 		.4byte	.LASF228
 13673 376f 18070000 		.4byte	.LASF228
 13674 3773 12       		.byte	0x12
 13675 3774 39       		.byte	0x39
 13676 3775 31       		.uleb128 0x31
 13677 3776 47090000 		.4byte	.LASF229
 13678 377a 47090000 		.4byte	.LASF229
 13679 377e 12       		.byte	0x12
 13680 377f 3B       		.byte	0x3b
 13681 3780 31       		.uleb128 0x31
 13682 3781 5A040000 		.4byte	.LASF230
 13683 3785 5A040000 		.4byte	.LASF230
 13684 3789 12       		.byte	0x12
 13685 378a 40       		.byte	0x40
 13686 378b 31       		.uleb128 0x31
 13687 378c 65020000 		.4byte	.LASF231
 13688 3790 65020000 		.4byte	.LASF231
 13689 3794 13       		.byte	0x13
 13690 3795 37       		.byte	0x37
 13691 3796 31       		.uleb128 0x31
 13692 3797 C0050000 		.4byte	.LASF232
 13693 379b C0050000 		.4byte	.LASF232
 13694 379f 14       		.byte	0x14
ARM GAS  C:\Users\FRANKL~1\AppData\Local\Temp\ccLkvCvD.s 			page 278


 13695 37a0 37       		.byte	0x37
 13696 37a1 31       		.uleb128 0x31
 13697 37a2 110B0000 		.4byte	.LASF233
 13698 37a6 110B0000 		.4byte	.LASF233
 13699 37aa 15       		.byte	0x15
 13700 37ab 37       		.byte	0x37
 13701 37ac 32       		.uleb128 0x32
 13702 37ad 54020000 		.4byte	.LASF254
 13703 37b1 BF0E0000 		.4byte	.LASF255
 13704 37b5 18       		.byte	0x18
 13705 37b6 00       		.byte	0
 13706 37b7 54020000 		.4byte	.LASF254
 13707 37bb 31       		.uleb128 0x31
 13708 37bc 910C0000 		.4byte	.LASF234
 13709 37c0 910C0000 		.4byte	.LASF234
 13710 37c4 16       		.byte	0x16
 13711 37c5 A2       		.byte	0xa2
 13712 37c6 31       		.uleb128 0x31
 13713 37c7 E1060000 		.4byte	.LASF235
 13714 37cb E1060000 		.4byte	.LASF235
 13715 37cf 0E       		.byte	0xe
 13716 37d0 BF       		.byte	0xbf
 13717 37d1 30       		.uleb128 0x30
 13718 37d2 36050000 		.4byte	.LASF236
 13719 37d6 36050000 		.4byte	.LASF236
 13720 37da 07       		.byte	0x7
 13721 37db 2A01     		.2byte	0x12a
 13722 37dd 31       		.uleb128 0x31
 13723 37de 33020000 		.4byte	.LASF237
 13724 37e2 33020000 		.4byte	.LASF237
 13725 37e6 0A       		.byte	0xa
 13726 37e7 54       		.byte	0x54
 13727 37e8 31       		.uleb128 0x31
 13728 37e9 280F0000 		.4byte	.LASF238
 13729 37ed 280F0000 		.4byte	.LASF238
 13730 37f1 13       		.byte	0x13
 13731 37f2 33       		.byte	0x33
 13732 37f3 31       		.uleb128 0x31
 13733 37f4 A3090000 		.4byte	.LASF239
 13734 37f8 A3090000 		.4byte	.LASF239
 13735 37fc 14       		.byte	0x14
 13736 37fd 33       		.byte	0x33
 13737 37fe 31       		.uleb128 0x31
 13738 37ff E8060000 		.4byte	.LASF240
 13739 3803 E8060000 		.4byte	.LASF240
 13740 3807 15       		.byte	0x15
 13741 3808 33       		.byte	0x33
 13742 3809 31       		.uleb128 0x31
 13743 380a E40E0000 		.4byte	.LASF241
 13744 380e E40E0000 		.4byte	.LASF241
 13745 3812 10       		.byte	0x10
 13746 3813 3A       		.byte	0x3a
 13747 3814 31       		.uleb128 0x31
 13748 3815 01090000 		.4byte	.LASF242
 13749 3819 01090000 		.4byte	.LASF242
 13750 381d 0F       		.byte	0xf
 13751 381e 3D       		.byte	0x3d
ARM GAS  C:\Users\FRANKL~1\AppData\Local\Temp\ccLkvCvD.s 			page 279


 13752 381f 31       		.uleb128 0x31
 13753 3820 A4070000 		.4byte	.LASF243
 13754 3824 A4070000 		.4byte	.LASF243
 13755 3828 11       		.byte	0x11
 13756 3829 34       		.byte	0x34
 13757 382a 31       		.uleb128 0x31
 13758 382b 0D090000 		.4byte	.LASF244
 13759 382f 0D090000 		.4byte	.LASF244
 13760 3833 12       		.byte	0x12
 13761 3834 34       		.byte	0x34
 13762 3835 31       		.uleb128 0x31
 13763 3836 200E0000 		.4byte	.LASF245
 13764 383a 200E0000 		.4byte	.LASF245
 13765 383e 17       		.byte	0x17
 13766 383f 76       		.byte	0x76
 13767 3840 31       		.uleb128 0x31
 13768 3841 73080000 		.4byte	.LASF246
 13769 3845 73080000 		.4byte	.LASF246
 13770 3849 0C       		.byte	0xc
 13771 384a 5A       		.byte	0x5a
 13772 384b 31       		.uleb128 0x31
 13773 384c 00020000 		.4byte	.LASF247
 13774 3850 00020000 		.4byte	.LASF247
 13775 3854 0B       		.byte	0xb
 13776 3855 18       		.byte	0x18
 13777 3856 00       		.byte	0
 13778              		.section	.debug_abbrev,"",%progbits
 13779              	.Ldebug_abbrev0:
 13780 0000 01       		.uleb128 0x1
 13781 0001 11       		.uleb128 0x11
 13782 0002 01       		.byte	0x1
 13783 0003 25       		.uleb128 0x25
 13784 0004 0E       		.uleb128 0xe
 13785 0005 13       		.uleb128 0x13
 13786 0006 0B       		.uleb128 0xb
 13787 0007 03       		.uleb128 0x3
 13788 0008 0E       		.uleb128 0xe
 13789 0009 1B       		.uleb128 0x1b
 13790 000a 0E       		.uleb128 0xe
 13791 000b 55       		.uleb128 0x55
 13792 000c 17       		.uleb128 0x17
 13793 000d 11       		.uleb128 0x11
 13794 000e 01       		.uleb128 0x1
 13795 000f 10       		.uleb128 0x10
 13796 0010 17       		.uleb128 0x17
 13797 0011 00       		.byte	0
 13798 0012 00       		.byte	0
 13799 0013 02       		.uleb128 0x2
 13800 0014 24       		.uleb128 0x24
 13801 0015 00       		.byte	0
 13802 0016 0B       		.uleb128 0xb
 13803 0017 0B       		.uleb128 0xb
 13804 0018 3E       		.uleb128 0x3e
 13805 0019 0B       		.uleb128 0xb
 13806 001a 03       		.uleb128 0x3
 13807 001b 0E       		.uleb128 0xe
 13808 001c 00       		.byte	0
ARM GAS  C:\Users\FRANKL~1\AppData\Local\Temp\ccLkvCvD.s 			page 280


 13809 001d 00       		.byte	0
 13810 001e 03       		.uleb128 0x3
 13811 001f 24       		.uleb128 0x24
 13812 0020 00       		.byte	0
 13813 0021 0B       		.uleb128 0xb
 13814 0022 0B       		.uleb128 0xb
 13815 0023 3E       		.uleb128 0x3e
 13816 0024 0B       		.uleb128 0xb
 13817 0025 03       		.uleb128 0x3
 13818 0026 08       		.uleb128 0x8
 13819 0027 00       		.byte	0
 13820 0028 00       		.byte	0
 13821 0029 04       		.uleb128 0x4
 13822 002a 16       		.uleb128 0x16
 13823 002b 00       		.byte	0
 13824 002c 03       		.uleb128 0x3
 13825 002d 0E       		.uleb128 0xe
 13826 002e 3A       		.uleb128 0x3a
 13827 002f 0B       		.uleb128 0xb
 13828 0030 3B       		.uleb128 0x3b
 13829 0031 0B       		.uleb128 0xb
 13830 0032 49       		.uleb128 0x49
 13831 0033 13       		.uleb128 0x13
 13832 0034 00       		.byte	0
 13833 0035 00       		.byte	0
 13834 0036 05       		.uleb128 0x5
 13835 0037 0F       		.uleb128 0xf
 13836 0038 00       		.byte	0
 13837 0039 0B       		.uleb128 0xb
 13838 003a 0B       		.uleb128 0xb
 13839 003b 49       		.uleb128 0x49
 13840 003c 13       		.uleb128 0x13
 13841 003d 00       		.byte	0
 13842 003e 00       		.byte	0
 13843 003f 06       		.uleb128 0x6
 13844 0040 26       		.uleb128 0x26
 13845 0041 00       		.byte	0
 13846 0042 49       		.uleb128 0x49
 13847 0043 13       		.uleb128 0x13
 13848 0044 00       		.byte	0
 13849 0045 00       		.byte	0
 13850 0046 07       		.uleb128 0x7
 13851 0047 16       		.uleb128 0x16
 13852 0048 00       		.byte	0
 13853 0049 03       		.uleb128 0x3
 13854 004a 0E       		.uleb128 0xe
 13855 004b 3A       		.uleb128 0x3a
 13856 004c 0B       		.uleb128 0xb
 13857 004d 3B       		.uleb128 0x3b
 13858 004e 05       		.uleb128 0x5
 13859 004f 49       		.uleb128 0x49
 13860 0050 13       		.uleb128 0x13
 13861 0051 00       		.byte	0
 13862 0052 00       		.byte	0
 13863 0053 08       		.uleb128 0x8
 13864 0054 35       		.uleb128 0x35
 13865 0055 00       		.byte	0
ARM GAS  C:\Users\FRANKL~1\AppData\Local\Temp\ccLkvCvD.s 			page 281


 13866 0056 49       		.uleb128 0x49
 13867 0057 13       		.uleb128 0x13
 13868 0058 00       		.byte	0
 13869 0059 00       		.byte	0
 13870 005a 09       		.uleb128 0x9
 13871 005b 01       		.uleb128 0x1
 13872 005c 01       		.byte	0x1
 13873 005d 49       		.uleb128 0x49
 13874 005e 13       		.uleb128 0x13
 13875 005f 01       		.uleb128 0x1
 13876 0060 13       		.uleb128 0x13
 13877 0061 00       		.byte	0
 13878 0062 00       		.byte	0
 13879 0063 0A       		.uleb128 0xa
 13880 0064 21       		.uleb128 0x21
 13881 0065 00       		.byte	0
 13882 0066 49       		.uleb128 0x49
 13883 0067 13       		.uleb128 0x13
 13884 0068 2F       		.uleb128 0x2f
 13885 0069 0B       		.uleb128 0xb
 13886 006a 00       		.byte	0
 13887 006b 00       		.byte	0
 13888 006c 0B       		.uleb128 0xb
 13889 006d 13       		.uleb128 0x13
 13890 006e 01       		.byte	0x1
 13891 006f 0B       		.uleb128 0xb
 13892 0070 0B       		.uleb128 0xb
 13893 0071 3A       		.uleb128 0x3a
 13894 0072 0B       		.uleb128 0xb
 13895 0073 3B       		.uleb128 0x3b
 13896 0074 0B       		.uleb128 0xb
 13897 0075 01       		.uleb128 0x1
 13898 0076 13       		.uleb128 0x13
 13899 0077 00       		.byte	0
 13900 0078 00       		.byte	0
 13901 0079 0C       		.uleb128 0xc
 13902 007a 0D       		.uleb128 0xd
 13903 007b 00       		.byte	0
 13904 007c 03       		.uleb128 0x3
 13905 007d 0E       		.uleb128 0xe
 13906 007e 3A       		.uleb128 0x3a
 13907 007f 0B       		.uleb128 0xb
 13908 0080 3B       		.uleb128 0x3b
 13909 0081 0B       		.uleb128 0xb
 13910 0082 49       		.uleb128 0x49
 13911 0083 13       		.uleb128 0x13
 13912 0084 38       		.uleb128 0x38
 13913 0085 0B       		.uleb128 0xb
 13914 0086 00       		.byte	0
 13915 0087 00       		.byte	0
 13916 0088 0D       		.uleb128 0xd
 13917 0089 13       		.uleb128 0x13
 13918 008a 01       		.byte	0x1
 13919 008b 03       		.uleb128 0x3
 13920 008c 0E       		.uleb128 0xe
 13921 008d 0B       		.uleb128 0xb
 13922 008e 0B       		.uleb128 0xb
ARM GAS  C:\Users\FRANKL~1\AppData\Local\Temp\ccLkvCvD.s 			page 282


 13923 008f 3A       		.uleb128 0x3a
 13924 0090 0B       		.uleb128 0xb
 13925 0091 3B       		.uleb128 0x3b
 13926 0092 0B       		.uleb128 0xb
 13927 0093 01       		.uleb128 0x1
 13928 0094 13       		.uleb128 0x13
 13929 0095 00       		.byte	0
 13930 0096 00       		.byte	0
 13931 0097 0E       		.uleb128 0xe
 13932 0098 04       		.uleb128 0x4
 13933 0099 01       		.byte	0x1
 13934 009a 03       		.uleb128 0x3
 13935 009b 0E       		.uleb128 0xe
 13936 009c 0B       		.uleb128 0xb
 13937 009d 0B       		.uleb128 0xb
 13938 009e 49       		.uleb128 0x49
 13939 009f 13       		.uleb128 0x13
 13940 00a0 3A       		.uleb128 0x3a
 13941 00a1 0B       		.uleb128 0xb
 13942 00a2 3B       		.uleb128 0x3b
 13943 00a3 0B       		.uleb128 0xb
 13944 00a4 01       		.uleb128 0x1
 13945 00a5 13       		.uleb128 0x13
 13946 00a6 00       		.byte	0
 13947 00a7 00       		.byte	0
 13948 00a8 0F       		.uleb128 0xf
 13949 00a9 28       		.uleb128 0x28
 13950 00aa 00       		.byte	0
 13951 00ab 03       		.uleb128 0x3
 13952 00ac 0E       		.uleb128 0xe
 13953 00ad 1C       		.uleb128 0x1c
 13954 00ae 0B       		.uleb128 0xb
 13955 00af 00       		.byte	0
 13956 00b0 00       		.byte	0
 13957 00b1 10       		.uleb128 0x10
 13958 00b2 2E       		.uleb128 0x2e
 13959 00b3 01       		.byte	0x1
 13960 00b4 3F       		.uleb128 0x3f
 13961 00b5 19       		.uleb128 0x19
 13962 00b6 03       		.uleb128 0x3
 13963 00b7 0E       		.uleb128 0xe
 13964 00b8 3A       		.uleb128 0x3a
 13965 00b9 0B       		.uleb128 0xb
 13966 00ba 3B       		.uleb128 0x3b
 13967 00bb 0B       		.uleb128 0xb
 13968 00bc 11       		.uleb128 0x11
 13969 00bd 01       		.uleb128 0x1
 13970 00be 12       		.uleb128 0x12
 13971 00bf 06       		.uleb128 0x6
 13972 00c0 40       		.uleb128 0x40
 13973 00c1 18       		.uleb128 0x18
 13974 00c2 9742     		.uleb128 0x2117
 13975 00c4 19       		.uleb128 0x19
 13976 00c5 01       		.uleb128 0x1
 13977 00c6 13       		.uleb128 0x13
 13978 00c7 00       		.byte	0
 13979 00c8 00       		.byte	0
ARM GAS  C:\Users\FRANKL~1\AppData\Local\Temp\ccLkvCvD.s 			page 283


 13980 00c9 11       		.uleb128 0x11
 13981 00ca 34       		.uleb128 0x34
 13982 00cb 00       		.byte	0
 13983 00cc 03       		.uleb128 0x3
 13984 00cd 0E       		.uleb128 0xe
 13985 00ce 3A       		.uleb128 0x3a
 13986 00cf 0B       		.uleb128 0xb
 13987 00d0 3B       		.uleb128 0x3b
 13988 00d1 0B       		.uleb128 0xb
 13989 00d2 49       		.uleb128 0x49
 13990 00d3 13       		.uleb128 0x13
 13991 00d4 02       		.uleb128 0x2
 13992 00d5 17       		.uleb128 0x17
 13993 00d6 00       		.byte	0
 13994 00d7 00       		.byte	0
 13995 00d8 12       		.uleb128 0x12
 13996 00d9 898201   		.uleb128 0x4109
 13997 00dc 00       		.byte	0
 13998 00dd 11       		.uleb128 0x11
 13999 00de 01       		.uleb128 0x1
 14000 00df 31       		.uleb128 0x31
 14001 00e0 13       		.uleb128 0x13
 14002 00e1 00       		.byte	0
 14003 00e2 00       		.byte	0
 14004 00e3 13       		.uleb128 0x13
 14005 00e4 2E       		.uleb128 0x2e
 14006 00e5 01       		.byte	0x1
 14007 00e6 3F       		.uleb128 0x3f
 14008 00e7 19       		.uleb128 0x19
 14009 00e8 03       		.uleb128 0x3
 14010 00e9 0E       		.uleb128 0xe
 14011 00ea 3A       		.uleb128 0x3a
 14012 00eb 0B       		.uleb128 0xb
 14013 00ec 3B       		.uleb128 0x3b
 14014 00ed 0B       		.uleb128 0xb
 14015 00ee 49       		.uleb128 0x49
 14016 00ef 13       		.uleb128 0x13
 14017 00f0 11       		.uleb128 0x11
 14018 00f1 01       		.uleb128 0x1
 14019 00f2 12       		.uleb128 0x12
 14020 00f3 06       		.uleb128 0x6
 14021 00f4 40       		.uleb128 0x40
 14022 00f5 18       		.uleb128 0x18
 14023 00f6 9742     		.uleb128 0x2117
 14024 00f8 19       		.uleb128 0x19
 14025 00f9 01       		.uleb128 0x1
 14026 00fa 13       		.uleb128 0x13
 14027 00fb 00       		.byte	0
 14028 00fc 00       		.byte	0
 14029 00fd 14       		.uleb128 0x14
 14030 00fe 2E       		.uleb128 0x2e
 14031 00ff 01       		.byte	0x1
 14032 0100 3F       		.uleb128 0x3f
 14033 0101 19       		.uleb128 0x19
 14034 0102 03       		.uleb128 0x3
 14035 0103 0E       		.uleb128 0xe
 14036 0104 3A       		.uleb128 0x3a
ARM GAS  C:\Users\FRANKL~1\AppData\Local\Temp\ccLkvCvD.s 			page 284


 14037 0105 0B       		.uleb128 0xb
 14038 0106 3B       		.uleb128 0x3b
 14039 0107 05       		.uleb128 0x5
 14040 0108 27       		.uleb128 0x27
 14041 0109 19       		.uleb128 0x19
 14042 010a 11       		.uleb128 0x11
 14043 010b 01       		.uleb128 0x1
 14044 010c 12       		.uleb128 0x12
 14045 010d 06       		.uleb128 0x6
 14046 010e 40       		.uleb128 0x40
 14047 010f 18       		.uleb128 0x18
 14048 0110 9742     		.uleb128 0x2117
 14049 0112 19       		.uleb128 0x19
 14050 0113 01       		.uleb128 0x1
 14051 0114 13       		.uleb128 0x13
 14052 0115 00       		.byte	0
 14053 0116 00       		.byte	0
 14054 0117 15       		.uleb128 0x15
 14055 0118 0B       		.uleb128 0xb
 14056 0119 01       		.byte	0x1
 14057 011a 11       		.uleb128 0x11
 14058 011b 01       		.uleb128 0x1
 14059 011c 12       		.uleb128 0x12
 14060 011d 06       		.uleb128 0x6
 14061 011e 01       		.uleb128 0x1
 14062 011f 13       		.uleb128 0x13
 14063 0120 00       		.byte	0
 14064 0121 00       		.byte	0
 14065 0122 16       		.uleb128 0x16
 14066 0123 34       		.uleb128 0x34
 14067 0124 00       		.byte	0
 14068 0125 03       		.uleb128 0x3
 14069 0126 0E       		.uleb128 0xe
 14070 0127 3A       		.uleb128 0x3a
 14071 0128 0B       		.uleb128 0xb
 14072 0129 3B       		.uleb128 0x3b
 14073 012a 05       		.uleb128 0x5
 14074 012b 49       		.uleb128 0x49
 14075 012c 13       		.uleb128 0x13
 14076 012d 02       		.uleb128 0x2
 14077 012e 18       		.uleb128 0x18
 14078 012f 00       		.byte	0
 14079 0130 00       		.byte	0
 14080 0131 17       		.uleb128 0x17
 14081 0132 34       		.uleb128 0x34
 14082 0133 00       		.byte	0
 14083 0134 03       		.uleb128 0x3
 14084 0135 0E       		.uleb128 0xe
 14085 0136 3A       		.uleb128 0x3a
 14086 0137 0B       		.uleb128 0xb
 14087 0138 3B       		.uleb128 0x3b
 14088 0139 05       		.uleb128 0x5
 14089 013a 49       		.uleb128 0x49
 14090 013b 13       		.uleb128 0x13
 14091 013c 02       		.uleb128 0x2
 14092 013d 17       		.uleb128 0x17
 14093 013e 00       		.byte	0
ARM GAS  C:\Users\FRANKL~1\AppData\Local\Temp\ccLkvCvD.s 			page 285


 14094 013f 00       		.byte	0
 14095 0140 18       		.uleb128 0x18
 14096 0141 34       		.uleb128 0x34
 14097 0142 00       		.byte	0
 14098 0143 03       		.uleb128 0x3
 14099 0144 08       		.uleb128 0x8
 14100 0145 3A       		.uleb128 0x3a
 14101 0146 0B       		.uleb128 0xb
 14102 0147 3B       		.uleb128 0x3b
 14103 0148 05       		.uleb128 0x5
 14104 0149 49       		.uleb128 0x49
 14105 014a 13       		.uleb128 0x13
 14106 014b 02       		.uleb128 0x2
 14107 014c 17       		.uleb128 0x17
 14108 014d 00       		.byte	0
 14109 014e 00       		.byte	0
 14110 014f 19       		.uleb128 0x19
 14111 0150 0B       		.uleb128 0xb
 14112 0151 01       		.byte	0x1
 14113 0152 11       		.uleb128 0x11
 14114 0153 01       		.uleb128 0x1
 14115 0154 12       		.uleb128 0x12
 14116 0155 06       		.uleb128 0x6
 14117 0156 00       		.byte	0
 14118 0157 00       		.byte	0
 14119 0158 1A       		.uleb128 0x1a
 14120 0159 898201   		.uleb128 0x4109
 14121 015c 01       		.byte	0x1
 14122 015d 11       		.uleb128 0x11
 14123 015e 01       		.uleb128 0x1
 14124 015f 31       		.uleb128 0x31
 14125 0160 13       		.uleb128 0x13
 14126 0161 00       		.byte	0
 14127 0162 00       		.byte	0
 14128 0163 1B       		.uleb128 0x1b
 14129 0164 8A8201   		.uleb128 0x410a
 14130 0167 00       		.byte	0
 14131 0168 02       		.uleb128 0x2
 14132 0169 18       		.uleb128 0x18
 14133 016a 9142     		.uleb128 0x2111
 14134 016c 18       		.uleb128 0x18
 14135 016d 00       		.byte	0
 14136 016e 00       		.byte	0
 14137 016f 1C       		.uleb128 0x1c
 14138 0170 898201   		.uleb128 0x4109
 14139 0173 01       		.byte	0x1
 14140 0174 11       		.uleb128 0x11
 14141 0175 01       		.uleb128 0x1
 14142 0176 31       		.uleb128 0x31
 14143 0177 13       		.uleb128 0x13
 14144 0178 01       		.uleb128 0x1
 14145 0179 13       		.uleb128 0x13
 14146 017a 00       		.byte	0
 14147 017b 00       		.byte	0
 14148 017c 1D       		.uleb128 0x1d
 14149 017d 2E       		.uleb128 0x2e
 14150 017e 01       		.byte	0x1
ARM GAS  C:\Users\FRANKL~1\AppData\Local\Temp\ccLkvCvD.s 			page 286


 14151 017f 3F       		.uleb128 0x3f
 14152 0180 19       		.uleb128 0x19
 14153 0181 03       		.uleb128 0x3
 14154 0182 0E       		.uleb128 0xe
 14155 0183 3A       		.uleb128 0x3a
 14156 0184 0B       		.uleb128 0xb
 14157 0185 3B       		.uleb128 0x3b
 14158 0186 0B       		.uleb128 0xb
 14159 0187 27       		.uleb128 0x27
 14160 0188 19       		.uleb128 0x19
 14161 0189 49       		.uleb128 0x49
 14162 018a 13       		.uleb128 0x13
 14163 018b 11       		.uleb128 0x11
 14164 018c 01       		.uleb128 0x1
 14165 018d 12       		.uleb128 0x12
 14166 018e 06       		.uleb128 0x6
 14167 018f 40       		.uleb128 0x40
 14168 0190 18       		.uleb128 0x18
 14169 0191 9742     		.uleb128 0x2117
 14170 0193 19       		.uleb128 0x19
 14171 0194 01       		.uleb128 0x1
 14172 0195 13       		.uleb128 0x13
 14173 0196 00       		.byte	0
 14174 0197 00       		.byte	0
 14175 0198 1E       		.uleb128 0x1e
 14176 0199 05       		.uleb128 0x5
 14177 019a 00       		.byte	0
 14178 019b 03       		.uleb128 0x3
 14179 019c 0E       		.uleb128 0xe
 14180 019d 3A       		.uleb128 0x3a
 14181 019e 0B       		.uleb128 0xb
 14182 019f 3B       		.uleb128 0x3b
 14183 01a0 0B       		.uleb128 0xb
 14184 01a1 49       		.uleb128 0x49
 14185 01a2 13       		.uleb128 0x13
 14186 01a3 02       		.uleb128 0x2
 14187 01a4 17       		.uleb128 0x17
 14188 01a5 00       		.byte	0
 14189 01a6 00       		.byte	0
 14190 01a7 1F       		.uleb128 0x1f
 14191 01a8 0B       		.uleb128 0xb
 14192 01a9 01       		.byte	0x1
 14193 01aa 55       		.uleb128 0x55
 14194 01ab 17       		.uleb128 0x17
 14195 01ac 01       		.uleb128 0x1
 14196 01ad 13       		.uleb128 0x13
 14197 01ae 00       		.byte	0
 14198 01af 00       		.byte	0
 14199 01b0 20       		.uleb128 0x20
 14200 01b1 34       		.uleb128 0x34
 14201 01b2 00       		.byte	0
 14202 01b3 03       		.uleb128 0x3
 14203 01b4 08       		.uleb128 0x8
 14204 01b5 3A       		.uleb128 0x3a
 14205 01b6 0B       		.uleb128 0xb
 14206 01b7 3B       		.uleb128 0x3b
 14207 01b8 0B       		.uleb128 0xb
ARM GAS  C:\Users\FRANKL~1\AppData\Local\Temp\ccLkvCvD.s 			page 287


 14208 01b9 49       		.uleb128 0x49
 14209 01ba 13       		.uleb128 0x13
 14210 01bb 02       		.uleb128 0x2
 14211 01bc 17       		.uleb128 0x17
 14212 01bd 00       		.byte	0
 14213 01be 00       		.byte	0
 14214 01bf 21       		.uleb128 0x21
 14215 01c0 2E       		.uleb128 0x2e
 14216 01c1 01       		.byte	0x1
 14217 01c2 3F       		.uleb128 0x3f
 14218 01c3 19       		.uleb128 0x19
 14219 01c4 03       		.uleb128 0x3
 14220 01c5 0E       		.uleb128 0xe
 14221 01c6 3A       		.uleb128 0x3a
 14222 01c7 0B       		.uleb128 0xb
 14223 01c8 3B       		.uleb128 0x3b
 14224 01c9 0B       		.uleb128 0xb
 14225 01ca 27       		.uleb128 0x27
 14226 01cb 19       		.uleb128 0x19
 14227 01cc 11       		.uleb128 0x11
 14228 01cd 01       		.uleb128 0x1
 14229 01ce 12       		.uleb128 0x12
 14230 01cf 06       		.uleb128 0x6
 14231 01d0 40       		.uleb128 0x40
 14232 01d1 18       		.uleb128 0x18
 14233 01d2 9742     		.uleb128 0x2117
 14234 01d4 19       		.uleb128 0x19
 14235 01d5 01       		.uleb128 0x1
 14236 01d6 13       		.uleb128 0x13
 14237 01d7 00       		.byte	0
 14238 01d8 00       		.byte	0
 14239 01d9 22       		.uleb128 0x22
 14240 01da 05       		.uleb128 0x5
 14241 01db 00       		.byte	0
 14242 01dc 03       		.uleb128 0x3
 14243 01dd 0E       		.uleb128 0xe
 14244 01de 3A       		.uleb128 0x3a
 14245 01df 0B       		.uleb128 0xb
 14246 01e0 3B       		.uleb128 0x3b
 14247 01e1 0B       		.uleb128 0xb
 14248 01e2 49       		.uleb128 0x49
 14249 01e3 13       		.uleb128 0x13
 14250 01e4 02       		.uleb128 0x2
 14251 01e5 18       		.uleb128 0x18
 14252 01e6 00       		.byte	0
 14253 01e7 00       		.byte	0
 14254 01e8 23       		.uleb128 0x23
 14255 01e9 2E       		.uleb128 0x2e
 14256 01ea 01       		.byte	0x1
 14257 01eb 3F       		.uleb128 0x3f
 14258 01ec 19       		.uleb128 0x19
 14259 01ed 03       		.uleb128 0x3
 14260 01ee 0E       		.uleb128 0xe
 14261 01ef 3A       		.uleb128 0x3a
 14262 01f0 0B       		.uleb128 0xb
 14263 01f1 3B       		.uleb128 0x3b
 14264 01f2 0B       		.uleb128 0xb
ARM GAS  C:\Users\FRANKL~1\AppData\Local\Temp\ccLkvCvD.s 			page 288


 14265 01f3 27       		.uleb128 0x27
 14266 01f4 19       		.uleb128 0x19
 14267 01f5 11       		.uleb128 0x11
 14268 01f6 01       		.uleb128 0x1
 14269 01f7 12       		.uleb128 0x12
 14270 01f8 06       		.uleb128 0x6
 14271 01f9 40       		.uleb128 0x40
 14272 01fa 18       		.uleb128 0x18
 14273 01fb 9642     		.uleb128 0x2116
 14274 01fd 19       		.uleb128 0x19
 14275 01fe 01       		.uleb128 0x1
 14276 01ff 13       		.uleb128 0x13
 14277 0200 00       		.byte	0
 14278 0201 00       		.byte	0
 14279 0202 24       		.uleb128 0x24
 14280 0203 2E       		.uleb128 0x2e
 14281 0204 01       		.byte	0x1
 14282 0205 3F       		.uleb128 0x3f
 14283 0206 19       		.uleb128 0x19
 14284 0207 03       		.uleb128 0x3
 14285 0208 0E       		.uleb128 0xe
 14286 0209 3A       		.uleb128 0x3a
 14287 020a 0B       		.uleb128 0xb
 14288 020b 3B       		.uleb128 0x3b
 14289 020c 05       		.uleb128 0x5
 14290 020d 27       		.uleb128 0x27
 14291 020e 19       		.uleb128 0x19
 14292 020f 11       		.uleb128 0x11
 14293 0210 01       		.uleb128 0x1
 14294 0211 12       		.uleb128 0x12
 14295 0212 06       		.uleb128 0x6
 14296 0213 40       		.uleb128 0x40
 14297 0214 18       		.uleb128 0x18
 14298 0215 9642     		.uleb128 0x2116
 14299 0217 19       		.uleb128 0x19
 14300 0218 01       		.uleb128 0x1
 14301 0219 13       		.uleb128 0x13
 14302 021a 00       		.byte	0
 14303 021b 00       		.byte	0
 14304 021c 25       		.uleb128 0x25
 14305 021d 05       		.uleb128 0x5
 14306 021e 00       		.byte	0
 14307 021f 03       		.uleb128 0x3
 14308 0220 0E       		.uleb128 0xe
 14309 0221 3A       		.uleb128 0x3a
 14310 0222 0B       		.uleb128 0xb
 14311 0223 3B       		.uleb128 0x3b
 14312 0224 05       		.uleb128 0x5
 14313 0225 49       		.uleb128 0x49
 14314 0226 13       		.uleb128 0x13
 14315 0227 02       		.uleb128 0x2
 14316 0228 17       		.uleb128 0x17
 14317 0229 00       		.byte	0
 14318 022a 00       		.byte	0
 14319 022b 26       		.uleb128 0x26
 14320 022c 0B       		.uleb128 0xb
 14321 022d 01       		.byte	0x1
ARM GAS  C:\Users\FRANKL~1\AppData\Local\Temp\ccLkvCvD.s 			page 289


 14322 022e 55       		.uleb128 0x55
 14323 022f 17       		.uleb128 0x17
 14324 0230 00       		.byte	0
 14325 0231 00       		.byte	0
 14326 0232 27       		.uleb128 0x27
 14327 0233 2E       		.uleb128 0x2e
 14328 0234 01       		.byte	0x1
 14329 0235 3F       		.uleb128 0x3f
 14330 0236 19       		.uleb128 0x19
 14331 0237 03       		.uleb128 0x3
 14332 0238 0E       		.uleb128 0xe
 14333 0239 3A       		.uleb128 0x3a
 14334 023a 0B       		.uleb128 0xb
 14335 023b 3B       		.uleb128 0x3b
 14336 023c 05       		.uleb128 0x5
 14337 023d 49       		.uleb128 0x49
 14338 023e 13       		.uleb128 0x13
 14339 023f 11       		.uleb128 0x11
 14340 0240 01       		.uleb128 0x1
 14341 0241 12       		.uleb128 0x12
 14342 0242 06       		.uleb128 0x6
 14343 0243 40       		.uleb128 0x40
 14344 0244 18       		.uleb128 0x18
 14345 0245 9642     		.uleb128 0x2116
 14346 0247 19       		.uleb128 0x19
 14347 0248 01       		.uleb128 0x1
 14348 0249 13       		.uleb128 0x13
 14349 024a 00       		.byte	0
 14350 024b 00       		.byte	0
 14351 024c 28       		.uleb128 0x28
 14352 024d 2E       		.uleb128 0x2e
 14353 024e 01       		.byte	0x1
 14354 024f 3F       		.uleb128 0x3f
 14355 0250 19       		.uleb128 0x19
 14356 0251 03       		.uleb128 0x3
 14357 0252 0E       		.uleb128 0xe
 14358 0253 3A       		.uleb128 0x3a
 14359 0254 0B       		.uleb128 0xb
 14360 0255 3B       		.uleb128 0x3b
 14361 0256 05       		.uleb128 0x5
 14362 0257 11       		.uleb128 0x11
 14363 0258 01       		.uleb128 0x1
 14364 0259 12       		.uleb128 0x12
 14365 025a 06       		.uleb128 0x6
 14366 025b 40       		.uleb128 0x40
 14367 025c 18       		.uleb128 0x18
 14368 025d 9742     		.uleb128 0x2117
 14369 025f 19       		.uleb128 0x19
 14370 0260 01       		.uleb128 0x1
 14371 0261 13       		.uleb128 0x13
 14372 0262 00       		.byte	0
 14373 0263 00       		.byte	0
 14374 0264 29       		.uleb128 0x29
 14375 0265 05       		.uleb128 0x5
 14376 0266 00       		.byte	0
 14377 0267 03       		.uleb128 0x3
 14378 0268 08       		.uleb128 0x8
ARM GAS  C:\Users\FRANKL~1\AppData\Local\Temp\ccLkvCvD.s 			page 290


 14379 0269 3A       		.uleb128 0x3a
 14380 026a 0B       		.uleb128 0xb
 14381 026b 3B       		.uleb128 0x3b
 14382 026c 05       		.uleb128 0x5
 14383 026d 49       		.uleb128 0x49
 14384 026e 13       		.uleb128 0x13
 14385 026f 02       		.uleb128 0x2
 14386 0270 17       		.uleb128 0x17
 14387 0271 00       		.byte	0
 14388 0272 00       		.byte	0
 14389 0273 2A       		.uleb128 0x2a
 14390 0274 34       		.uleb128 0x34
 14391 0275 00       		.byte	0
 14392 0276 03       		.uleb128 0x3
 14393 0277 0E       		.uleb128 0xe
 14394 0278 3A       		.uleb128 0x3a
 14395 0279 0B       		.uleb128 0xb
 14396 027a 3B       		.uleb128 0x3b
 14397 027b 05       		.uleb128 0x5
 14398 027c 49       		.uleb128 0x49
 14399 027d 13       		.uleb128 0x13
 14400 027e 00       		.byte	0
 14401 027f 00       		.byte	0
 14402 0280 2B       		.uleb128 0x2b
 14403 0281 34       		.uleb128 0x34
 14404 0282 00       		.byte	0
 14405 0283 03       		.uleb128 0x3
 14406 0284 0E       		.uleb128 0xe
 14407 0285 3A       		.uleb128 0x3a
 14408 0286 0B       		.uleb128 0xb
 14409 0287 3B       		.uleb128 0x3b
 14410 0288 05       		.uleb128 0x5
 14411 0289 49       		.uleb128 0x49
 14412 028a 13       		.uleb128 0x13
 14413 028b 1C       		.uleb128 0x1c
 14414 028c 0B       		.uleb128 0xb
 14415 028d 00       		.byte	0
 14416 028e 00       		.byte	0
 14417 028f 2C       		.uleb128 0x2c
 14418 0290 2E       		.uleb128 0x2e
 14419 0291 01       		.byte	0x1
 14420 0292 3F       		.uleb128 0x3f
 14421 0293 19       		.uleb128 0x19
 14422 0294 03       		.uleb128 0x3
 14423 0295 0E       		.uleb128 0xe
 14424 0296 3A       		.uleb128 0x3a
 14425 0297 0B       		.uleb128 0xb
 14426 0298 3B       		.uleb128 0x3b
 14427 0299 05       		.uleb128 0x5
 14428 029a 27       		.uleb128 0x27
 14429 029b 19       		.uleb128 0x19
 14430 029c 49       		.uleb128 0x49
 14431 029d 13       		.uleb128 0x13
 14432 029e 8701     		.uleb128 0x87
 14433 02a0 19       		.uleb128 0x19
 14434 02a1 11       		.uleb128 0x11
 14435 02a2 01       		.uleb128 0x1
ARM GAS  C:\Users\FRANKL~1\AppData\Local\Temp\ccLkvCvD.s 			page 291


 14436 02a3 12       		.uleb128 0x12
 14437 02a4 06       		.uleb128 0x6
 14438 02a5 40       		.uleb128 0x40
 14439 02a6 18       		.uleb128 0x18
 14440 02a7 9642     		.uleb128 0x2116
 14441 02a9 19       		.uleb128 0x19
 14442 02aa 01       		.uleb128 0x1
 14443 02ab 13       		.uleb128 0x13
 14444 02ac 00       		.byte	0
 14445 02ad 00       		.byte	0
 14446 02ae 2D       		.uleb128 0x2d
 14447 02af 34       		.uleb128 0x34
 14448 02b0 00       		.byte	0
 14449 02b1 03       		.uleb128 0x3
 14450 02b2 08       		.uleb128 0x8
 14451 02b3 3A       		.uleb128 0x3a
 14452 02b4 0B       		.uleb128 0xb
 14453 02b5 3B       		.uleb128 0x3b
 14454 02b6 05       		.uleb128 0x5
 14455 02b7 49       		.uleb128 0x49
 14456 02b8 13       		.uleb128 0x13
 14457 02b9 02       		.uleb128 0x2
 14458 02ba 18       		.uleb128 0x18
 14459 02bb 00       		.byte	0
 14460 02bc 00       		.byte	0
 14461 02bd 2E       		.uleb128 0x2e
 14462 02be 34       		.uleb128 0x34
 14463 02bf 00       		.byte	0
 14464 02c0 03       		.uleb128 0x3
 14465 02c1 0E       		.uleb128 0xe
 14466 02c2 3A       		.uleb128 0x3a
 14467 02c3 0B       		.uleb128 0xb
 14468 02c4 3B       		.uleb128 0x3b
 14469 02c5 05       		.uleb128 0x5
 14470 02c6 49       		.uleb128 0x49
 14471 02c7 13       		.uleb128 0x13
 14472 02c8 3F       		.uleb128 0x3f
 14473 02c9 19       		.uleb128 0x19
 14474 02ca 3C       		.uleb128 0x3c
 14475 02cb 19       		.uleb128 0x19
 14476 02cc 00       		.byte	0
 14477 02cd 00       		.byte	0
 14478 02ce 2F       		.uleb128 0x2f
 14479 02cf 34       		.uleb128 0x34
 14480 02d0 00       		.byte	0
 14481 02d1 03       		.uleb128 0x3
 14482 02d2 0E       		.uleb128 0xe
 14483 02d3 3A       		.uleb128 0x3a
 14484 02d4 0B       		.uleb128 0xb
 14485 02d5 3B       		.uleb128 0x3b
 14486 02d6 0B       		.uleb128 0xb
 14487 02d7 49       		.uleb128 0x49
 14488 02d8 13       		.uleb128 0x13
 14489 02d9 3F       		.uleb128 0x3f
 14490 02da 19       		.uleb128 0x19
 14491 02db 02       		.uleb128 0x2
 14492 02dc 18       		.uleb128 0x18
ARM GAS  C:\Users\FRANKL~1\AppData\Local\Temp\ccLkvCvD.s 			page 292


 14493 02dd 00       		.byte	0
 14494 02de 00       		.byte	0
 14495 02df 30       		.uleb128 0x30
 14496 02e0 2E       		.uleb128 0x2e
 14497 02e1 00       		.byte	0
 14498 02e2 3F       		.uleb128 0x3f
 14499 02e3 19       		.uleb128 0x19
 14500 02e4 3C       		.uleb128 0x3c
 14501 02e5 19       		.uleb128 0x19
 14502 02e6 6E       		.uleb128 0x6e
 14503 02e7 0E       		.uleb128 0xe
 14504 02e8 03       		.uleb128 0x3
 14505 02e9 0E       		.uleb128 0xe
 14506 02ea 3A       		.uleb128 0x3a
 14507 02eb 0B       		.uleb128 0xb
 14508 02ec 3B       		.uleb128 0x3b
 14509 02ed 05       		.uleb128 0x5
 14510 02ee 00       		.byte	0
 14511 02ef 00       		.byte	0
 14512 02f0 31       		.uleb128 0x31
 14513 02f1 2E       		.uleb128 0x2e
 14514 02f2 00       		.byte	0
 14515 02f3 3F       		.uleb128 0x3f
 14516 02f4 19       		.uleb128 0x19
 14517 02f5 3C       		.uleb128 0x3c
 14518 02f6 19       		.uleb128 0x19
 14519 02f7 6E       		.uleb128 0x6e
 14520 02f8 0E       		.uleb128 0xe
 14521 02f9 03       		.uleb128 0x3
 14522 02fa 0E       		.uleb128 0xe
 14523 02fb 3A       		.uleb128 0x3a
 14524 02fc 0B       		.uleb128 0xb
 14525 02fd 3B       		.uleb128 0x3b
 14526 02fe 0B       		.uleb128 0xb
 14527 02ff 00       		.byte	0
 14528 0300 00       		.byte	0
 14529 0301 32       		.uleb128 0x32
 14530 0302 2E       		.uleb128 0x2e
 14531 0303 00       		.byte	0
 14532 0304 3F       		.uleb128 0x3f
 14533 0305 19       		.uleb128 0x19
 14534 0306 3C       		.uleb128 0x3c
 14535 0307 19       		.uleb128 0x19
 14536 0308 6E       		.uleb128 0x6e
 14537 0309 0E       		.uleb128 0xe
 14538 030a 03       		.uleb128 0x3
 14539 030b 0E       		.uleb128 0xe
 14540 030c 3A       		.uleb128 0x3a
 14541 030d 0B       		.uleb128 0xb
 14542 030e 3B       		.uleb128 0x3b
 14543 030f 0B       		.uleb128 0xb
 14544 0310 6E       		.uleb128 0x6e
 14545 0311 0E       		.uleb128 0xe
 14546 0312 00       		.byte	0
 14547 0313 00       		.byte	0
 14548 0314 00       		.byte	0
 14549              		.section	.debug_loc,"",%progbits
ARM GAS  C:\Users\FRANKL~1\AppData\Local\Temp\ccLkvCvD.s 			page 293


 14550              	.Ldebug_loc0:
 14551              	.LLST0:
 14552 0000 02000000 		.4byte	.LVL0
 14553 0004 12000000 		.4byte	.LVL3
 14554 0008 0200     		.2byte	0x2
 14555 000a 30       		.byte	0x30
 14556 000b 9F       		.byte	0x9f
 14557 000c 12000000 		.4byte	.LVL3
 14558 0010 18000000 		.4byte	.LFE64
 14559 0014 0200     		.2byte	0x2
 14560 0016 31       		.byte	0x31
 14561 0017 9F       		.byte	0x9f
 14562 0018 00000000 		.4byte	0
 14563 001c 00000000 		.4byte	0
 14564              	.LLST1:
 14565 0020 14000000 		.4byte	.LVL10
 14566 0024 7C000000 		.4byte	.LVL18
 14567 0028 0100     		.2byte	0x1
 14568 002a 50       		.byte	0x50
 14569 002b 00000000 		.4byte	0
 14570 002f 00000000 		.4byte	0
 14571              	.LLST2:
 14572 0033 14000000 		.4byte	.LVL10
 14573 0037 18000000 		.4byte	.LVL11
 14574 003b 0200     		.2byte	0x2
 14575 003d 30       		.byte	0x30
 14576 003e 9F       		.byte	0x9f
 14577 003f 18000000 		.4byte	.LVL11
 14578 0043 74000000 		.4byte	.LVL16
 14579 0047 0100     		.2byte	0x1
 14580 0049 53       		.byte	0x53
 14581 004a 76000000 		.4byte	.LVL17
 14582 004e 7C000000 		.4byte	.LVL18
 14583 0052 0100     		.2byte	0x1
 14584 0054 53       		.byte	0x53
 14585 0055 00000000 		.4byte	0
 14586 0059 00000000 		.4byte	0
 14587              	.LLST3:
 14588 005d 20000000 		.4byte	.LVL12
 14589 0061 3A000000 		.4byte	.LVL13
 14590 0065 0100     		.2byte	0x1
 14591 0067 52       		.byte	0x52
 14592 0068 3A000000 		.4byte	.LVL13
 14593 006c 58000000 		.4byte	.LVL14
 14594 0070 0800     		.2byte	0x8
 14595 0072 91       		.byte	0x91
 14596 0073 00       		.sleb128 0
 14597 0074 73       		.byte	0x73
 14598 0075 00       		.sleb128 0
 14599 0076 22       		.byte	0x22
 14600 0077 08       		.byte	0x8
 14601 0078 50       		.byte	0x50
 14602 0079 1C       		.byte	0x1c
 14603 007a 58000000 		.4byte	.LVL14
 14604 007e 5C000000 		.4byte	.LVL15
 14605 0082 0100     		.2byte	0x1
 14606 0084 52       		.byte	0x52
ARM GAS  C:\Users\FRANKL~1\AppData\Local\Temp\ccLkvCvD.s 			page 294


 14607 0085 5C000000 		.4byte	.LVL15
 14608 0089 74000000 		.4byte	.LVL16
 14609 008d 0800     		.2byte	0x8
 14610 008f 91       		.byte	0x91
 14611 0090 00       		.sleb128 0
 14612 0091 73       		.byte	0x73
 14613 0092 00       		.sleb128 0
 14614 0093 22       		.byte	0x22
 14615 0094 08       		.byte	0x8
 14616 0095 50       		.byte	0x50
 14617 0096 1C       		.byte	0x1c
 14618 0097 74000000 		.4byte	.LVL16
 14619 009b 76000000 		.4byte	.LVL17
 14620 009f 0800     		.2byte	0x8
 14621 00a1 91       		.byte	0x91
 14622 00a2 00       		.sleb128 0
 14623 00a3 73       		.byte	0x73
 14624 00a4 00       		.sleb128 0
 14625 00a5 22       		.byte	0x22
 14626 00a6 08       		.byte	0x8
 14627 00a7 51       		.byte	0x51
 14628 00a8 1C       		.byte	0x1c
 14629 00a9 00000000 		.4byte	0
 14630 00ad 00000000 		.4byte	0
 14631              	.LLST4:
 14632 00b1 FC000000 		.4byte	.LVL21
 14633 00b5 0C010000 		.4byte	.LVL22
 14634 00b9 0600     		.2byte	0x6
 14635 00bb 03       		.byte	0x3
 14636 00bc 00000000 		.4byte	USBUART_Receive_Buffer
 14637 00c0 9F       		.byte	0x9f
 14638 00c1 0C010000 		.4byte	.LVL22
 14639 00c5 7C010000 		.4byte	.LVL28
 14640 00c9 0100     		.2byte	0x1
 14641 00cb 54       		.byte	0x54
 14642 00cc 00000000 		.4byte	0
 14643 00d0 00000000 		.4byte	0
 14644              	.LLST5:
 14645 00d4 00000000 		.4byte	.LVL31
 14646 00d8 06000000 		.4byte	.LVL32
 14647 00dc 0100     		.2byte	0x1
 14648 00de 50       		.byte	0x50
 14649 00df 06000000 		.4byte	.LVL32
 14650 00e3 08000000 		.4byte	.LVL33
 14651 00e7 0400     		.2byte	0x4
 14652 00e9 F3       		.byte	0xf3
 14653 00ea 01       		.uleb128 0x1
 14654 00eb 50       		.byte	0x50
 14655 00ec 9F       		.byte	0x9f
 14656 00ed 08000000 		.4byte	.LVL33
 14657 00f1 16000000 		.4byte	.LVL37
 14658 00f5 0100     		.2byte	0x1
 14659 00f7 56       		.byte	0x56
 14660 00f8 16000000 		.4byte	.LVL37
 14661 00fc 1E000000 		.4byte	.LVL38
 14662 0100 0100     		.2byte	0x1
 14663 0102 50       		.byte	0x50
ARM GAS  C:\Users\FRANKL~1\AppData\Local\Temp\ccLkvCvD.s 			page 295


 14664 0103 1E000000 		.4byte	.LVL38
 14665 0107 50000000 		.4byte	.LFE66
 14666 010b 0100     		.2byte	0x1
 14667 010d 56       		.byte	0x56
 14668 010e 00000000 		.4byte	0
 14669 0112 00000000 		.4byte	0
 14670              	.LLST6:
 14671 0116 00000000 		.4byte	.LVL31
 14672 011a 08000000 		.4byte	.LVL33
 14673 011e 0100     		.2byte	0x1
 14674 0120 51       		.byte	0x51
 14675 0121 08000000 		.4byte	.LVL33
 14676 0125 16000000 		.4byte	.LVL37
 14677 0129 0400     		.2byte	0x4
 14678 012b F3       		.byte	0xf3
 14679 012c 01       		.uleb128 0x1
 14680 012d 51       		.byte	0x51
 14681 012e 9F       		.byte	0x9f
 14682 012f 16000000 		.4byte	.LVL37
 14683 0133 1E000000 		.4byte	.LVL38
 14684 0137 0100     		.2byte	0x1
 14685 0139 51       		.byte	0x51
 14686 013a 1E000000 		.4byte	.LVL38
 14687 013e 50000000 		.4byte	.LFE66
 14688 0142 0400     		.2byte	0x4
 14689 0144 F3       		.byte	0xf3
 14690 0145 01       		.uleb128 0x1
 14691 0146 51       		.byte	0x51
 14692 0147 9F       		.byte	0x9f
 14693 0148 00000000 		.4byte	0
 14694 014c 00000000 		.4byte	0
 14695              	.LLST7:
 14696 0150 08000000 		.4byte	.LVL33
 14697 0154 16000000 		.4byte	.LVL37
 14698 0158 0100     		.2byte	0x1
 14699 015a 54       		.byte	0x54
 14700 015b 1E000000 		.4byte	.LVL38
 14701 015f 50000000 		.4byte	.LFE66
 14702 0163 0100     		.2byte	0x1
 14703 0165 54       		.byte	0x54
 14704 0166 00000000 		.4byte	0
 14705 016a 00000000 		.4byte	0
 14706              	.LLST8:
 14707 016e 00000000 		.4byte	.LVL43
 14708 0172 08000000 		.4byte	.LVL44
 14709 0176 0100     		.2byte	0x1
 14710 0178 50       		.byte	0x50
 14711 0179 08000000 		.4byte	.LVL44
 14712 017d 24000000 		.4byte	.LFE67
 14713 0181 0100     		.2byte	0x1
 14714 0183 54       		.byte	0x54
 14715 0184 00000000 		.4byte	0
 14716 0188 00000000 		.4byte	0
 14717              	.LLST9:
 14718 018c 00000000 		.4byte	.LVL43
 14719 0190 08000000 		.4byte	.LVL44
 14720 0194 0100     		.2byte	0x1
ARM GAS  C:\Users\FRANKL~1\AppData\Local\Temp\ccLkvCvD.s 			page 296


 14721 0196 51       		.byte	0x51
 14722 0197 08000000 		.4byte	.LVL44
 14723 019b 24000000 		.4byte	.LFE67
 14724 019f 0100     		.2byte	0x1
 14725 01a1 55       		.byte	0x55
 14726 01a2 00000000 		.4byte	0
 14727 01a6 00000000 		.4byte	0
 14728              	.LLST10:
 14729 01aa 00000000 		.4byte	.LVL51
 14730 01ae 1E000000 		.4byte	.LVL56
 14731 01b2 0100     		.2byte	0x1
 14732 01b4 50       		.byte	0x50
 14733 01b5 1E000000 		.4byte	.LVL56
 14734 01b9 58000000 		.4byte	.LFE69
 14735 01bd 0100     		.2byte	0x1
 14736 01bf 55       		.byte	0x55
 14737 01c0 00000000 		.4byte	0
 14738 01c4 00000000 		.4byte	0
 14739              	.LLST11:
 14740 01c8 00000000 		.4byte	.LVL51
 14741 01cc 1E000000 		.4byte	.LVL56
 14742 01d0 0100     		.2byte	0x1
 14743 01d2 51       		.byte	0x51
 14744 01d3 1E000000 		.4byte	.LVL56
 14745 01d7 58000000 		.4byte	.LFE69
 14746 01db 0400     		.2byte	0x4
 14747 01dd F3       		.byte	0xf3
 14748 01de 01       		.uleb128 0x1
 14749 01df 51       		.byte	0x51
 14750 01e0 9F       		.byte	0x9f
 14751 01e1 00000000 		.4byte	0
 14752 01e5 00000000 		.4byte	0
 14753              	.LLST12:
 14754 01e9 00000000 		.4byte	.LVL51
 14755 01ed 0E000000 		.4byte	.LVL53
 14756 01f1 0100     		.2byte	0x1
 14757 01f3 52       		.byte	0x52
 14758 01f4 0E000000 		.4byte	.LVL53
 14759 01f8 58000000 		.4byte	.LFE69
 14760 01fc 0100     		.2byte	0x1
 14761 01fe 57       		.byte	0x57
 14762 01ff 00000000 		.4byte	0
 14763 0203 00000000 		.4byte	0
 14764              	.LLST13:
 14765 0207 0A000000 		.4byte	.LVL52
 14766 020b 0E000000 		.4byte	.LVL53
 14767 020f 0200     		.2byte	0x2
 14768 0211 30       		.byte	0x30
 14769 0212 9F       		.byte	0x9f
 14770 0213 0E000000 		.4byte	.LVL53
 14771 0217 14000000 		.4byte	.LVL54
 14772 021b 0100     		.2byte	0x1
 14773 021d 53       		.byte	0x53
 14774 021e 16000000 		.4byte	.LVL55
 14775 0222 1E000000 		.4byte	.LVL56
 14776 0226 0100     		.2byte	0x1
 14777 0228 53       		.byte	0x53
ARM GAS  C:\Users\FRANKL~1\AppData\Local\Temp\ccLkvCvD.s 			page 297


 14778 0229 00000000 		.4byte	0
 14779 022d 00000000 		.4byte	0
 14780              	.LLST14:
 14781 0231 1E000000 		.4byte	.LVL56
 14782 0235 4A000000 		.4byte	.LVL61
 14783 0239 0100     		.2byte	0x1
 14784 023b 54       		.byte	0x54
 14785 023c 4C000000 		.4byte	.LVL62
 14786 0240 58000000 		.4byte	.LFE69
 14787 0244 0100     		.2byte	0x1
 14788 0246 54       		.byte	0x54
 14789 0247 00000000 		.4byte	0
 14790 024b 00000000 		.4byte	0
 14791              	.LLST15:
 14792 024f 0A000000 		.4byte	.LVL64
 14793 0253 0E000000 		.4byte	.LVL65
 14794 0257 0200     		.2byte	0x2
 14795 0259 30       		.byte	0x30
 14796 025a 9F       		.byte	0x9f
 14797 025b 0E000000 		.4byte	.LVL65
 14798 025f 16000000 		.4byte	.LVL66
 14799 0263 0100     		.2byte	0x1
 14800 0265 53       		.byte	0x53
 14801 0266 18000000 		.4byte	.LVL67
 14802 026a 1E000000 		.4byte	.LVL68
 14803 026e 0100     		.2byte	0x1
 14804 0270 53       		.byte	0x53
 14805 0271 00000000 		.4byte	0
 14806 0275 00000000 		.4byte	0
 14807              	.LLST16:
 14808 0279 20000000 		.4byte	.LVL69
 14809 027d 2A000000 		.4byte	.LVL70
 14810 0281 0100     		.2byte	0x1
 14811 0283 53       		.byte	0x53
 14812 0284 2C000000 		.4byte	.LVL71
 14813 0288 32000000 		.4byte	.LFE70
 14814 028c 0100     		.2byte	0x1
 14815 028e 53       		.byte	0x53
 14816 028f 00000000 		.4byte	0
 14817 0293 00000000 		.4byte	0
 14818              	.LLST17:
 14819 0297 00000000 		.4byte	.LVL72
 14820 029b 12000000 		.4byte	.LVL73
 14821 029f 0100     		.2byte	0x1
 14822 02a1 50       		.byte	0x50
 14823 02a2 12000000 		.4byte	.LVL73
 14824 02a6 90010000 		.4byte	.LFE71
 14825 02aa 0400     		.2byte	0x4
 14826 02ac F3       		.byte	0xf3
 14827 02ad 01       		.uleb128 0x1
 14828 02ae 50       		.byte	0x50
 14829 02af 9F       		.byte	0x9f
 14830 02b0 00000000 		.4byte	0
 14831 02b4 00000000 		.4byte	0
 14832              	.LLST18:
 14833 02b8 2A000000 		.4byte	.LVL77
 14834 02bc 32000000 		.4byte	.LVL79
ARM GAS  C:\Users\FRANKL~1\AppData\Local\Temp\ccLkvCvD.s 			page 298


 14835 02c0 0C00     		.2byte	0xc
 14836 02c2 74       		.byte	0x74
 14837 02c3 00       		.sleb128 0
 14838 02c4 08       		.byte	0x8
 14839 02c5 FF       		.byte	0xff
 14840 02c6 1E       		.byte	0x1e
 14841 02c7 03       		.byte	0x3
 14842 02c8 00000000 		.4byte	selectors
 14843 02cc 22       		.byte	0x22
 14844 02cd 9F       		.byte	0x9f
 14845 02ce 32000000 		.4byte	.LVL79
 14846 02d2 5C010000 		.4byte	.LVL108
 14847 02d6 0C00     		.2byte	0xc
 14848 02d8 78       		.byte	0x78
 14849 02d9 7F       		.sleb128 -1
 14850 02da 08       		.byte	0x8
 14851 02db FF       		.byte	0xff
 14852 02dc 1E       		.byte	0x1e
 14853 02dd 03       		.byte	0x3
 14854 02de 00000000 		.4byte	selectors
 14855 02e2 22       		.byte	0x22
 14856 02e3 9F       		.byte	0x9f
 14857 02e4 00000000 		.4byte	0
 14858 02e8 00000000 		.4byte	0
 14859              	.LLST19:
 14860 02ec 44000000 		.4byte	.LVL80
 14861 02f0 48000000 		.4byte	.LVL81
 14862 02f4 0200     		.2byte	0x2
 14863 02f6 30       		.byte	0x30
 14864 02f7 9F       		.byte	0x9f
 14865 02f8 48000000 		.4byte	.LVL81
 14866 02fc C6000000 		.4byte	.LVL93
 14867 0300 0100     		.2byte	0x1
 14868 0302 54       		.byte	0x54
 14869 0303 00000000 		.4byte	0
 14870 0307 00000000 		.4byte	0
 14871              	.LLST20:
 14872 030b 02000000 		.4byte	.LVL109
 14873 030f 06000000 		.4byte	.LVL110
 14874 0313 0200     		.2byte	0x2
 14875 0315 30       		.byte	0x30
 14876 0316 9F       		.byte	0x9f
 14877 0317 06000000 		.4byte	.LVL110
 14878 031b 14000000 		.4byte	.LVL112
 14879 031f 0100     		.2byte	0x1
 14880 0321 54       		.byte	0x54
 14881 0322 16000000 		.4byte	.LVL113
 14882 0326 36000000 		.4byte	.LVL114
 14883 032a 0100     		.2byte	0x1
 14884 032c 54       		.byte	0x54
 14885 032d 00000000 		.4byte	0
 14886 0331 00000000 		.4byte	0
 14887              	.LLST21:
 14888 0335 00000000 		.4byte	.LVL115
 14889 0339 04000000 		.4byte	.LVL116
 14890 033d 0100     		.2byte	0x1
 14891 033f 50       		.byte	0x50
ARM GAS  C:\Users\FRANKL~1\AppData\Local\Temp\ccLkvCvD.s 			page 299


 14892 0340 04000000 		.4byte	.LVL116
 14893 0344 06000000 		.4byte	.LVL117
 14894 0348 0400     		.2byte	0x4
 14895 034a F3       		.byte	0xf3
 14896 034b 01       		.uleb128 0x1
 14897 034c 50       		.byte	0x50
 14898 034d 9F       		.byte	0x9f
 14899 034e 06000000 		.4byte	.LVL117
 14900 0352 1C000000 		.4byte	.LVL119
 14901 0356 0100     		.2byte	0x1
 14902 0358 53       		.byte	0x53
 14903 0359 00000000 		.4byte	0
 14904 035d 00000000 		.4byte	0
 14905              	.LLST22:
 14906 0361 00000000 		.4byte	.LVL115
 14907 0365 06000000 		.4byte	.LVL117
 14908 0369 0100     		.2byte	0x1
 14909 036b 51       		.byte	0x51
 14910 036c 06000000 		.4byte	.LVL117
 14911 0370 0C000000 		.4byte	.LVL118
 14912 0374 0300     		.2byte	0x3
 14913 0376 71       		.byte	0x71
 14914 0377 7F       		.sleb128 -1
 14915 0378 9F       		.byte	0x9f
 14916 0379 0C000000 		.4byte	.LVL118
 14917 037d 2C000000 		.4byte	.LFE73
 14918 0381 0600     		.2byte	0x6
 14919 0383 F3       		.byte	0xf3
 14920 0384 01       		.uleb128 0x1
 14921 0385 51       		.byte	0x51
 14922 0386 31       		.byte	0x31
 14923 0387 1C       		.byte	0x1c
 14924 0388 9F       		.byte	0x9f
 14925 0389 00000000 		.4byte	0
 14926 038d 00000000 		.4byte	0
 14927              	.LLST23:
 14928 0391 00000000 		.4byte	.LVL121
 14929 0395 02000000 		.4byte	.LVL122
 14930 0399 0100     		.2byte	0x1
 14931 039b 50       		.byte	0x50
 14932 039c 02000000 		.4byte	.LVL122
 14933 03a0 04000000 		.4byte	.LVL123
 14934 03a4 0400     		.2byte	0x4
 14935 03a6 F3       		.byte	0xf3
 14936 03a7 01       		.uleb128 0x1
 14937 03a8 50       		.byte	0x50
 14938 03a9 9F       		.byte	0x9f
 14939 03aa 04000000 		.4byte	.LVL123
 14940 03ae 26000000 		.4byte	.LVL128
 14941 03b2 0100     		.2byte	0x1
 14942 03b4 50       		.byte	0x50
 14943 03b5 30000000 		.4byte	.LVL130
 14944 03b9 32000000 		.4byte	.LFE74
 14945 03bd 0100     		.2byte	0x1
 14946 03bf 50       		.byte	0x50
 14947 03c0 00000000 		.4byte	0
 14948 03c4 00000000 		.4byte	0
ARM GAS  C:\Users\FRANKL~1\AppData\Local\Temp\ccLkvCvD.s 			page 300


 14949              	.LLST24:
 14950 03c8 00000000 		.4byte	.LVL121
 14951 03cc 04000000 		.4byte	.LVL123
 14952 03d0 0100     		.2byte	0x1
 14953 03d2 51       		.byte	0x51
 14954 03d3 04000000 		.4byte	.LVL123
 14955 03d7 2D000000 		.4byte	.LVL129-1
 14956 03db 0300     		.2byte	0x3
 14957 03dd 71       		.byte	0x71
 14958 03de 7F       		.sleb128 -1
 14959 03df 9F       		.byte	0x9f
 14960 03e0 2D000000 		.4byte	.LVL129-1
 14961 03e4 30000000 		.4byte	.LVL130
 14962 03e8 0600     		.2byte	0x6
 14963 03ea F3       		.byte	0xf3
 14964 03eb 01       		.uleb128 0x1
 14965 03ec 51       		.byte	0x51
 14966 03ed 31       		.byte	0x31
 14967 03ee 1C       		.byte	0x1c
 14968 03ef 9F       		.byte	0x9f
 14969 03f0 30000000 		.4byte	.LVL130
 14970 03f4 32000000 		.4byte	.LFE74
 14971 03f8 0300     		.2byte	0x3
 14972 03fa 71       		.byte	0x71
 14973 03fb 7F       		.sleb128 -1
 14974 03fc 9F       		.byte	0x9f
 14975 03fd 00000000 		.4byte	0
 14976 0401 00000000 		.4byte	0
 14977              	.LLST25:
 14978 0405 12000000 		.4byte	.LVL124
 14979 0409 16000000 		.4byte	.LVL125
 14980 040d 0200     		.2byte	0x2
 14981 040f 30       		.byte	0x30
 14982 0410 9F       		.byte	0x9f
 14983 0411 16000000 		.4byte	.LVL125
 14984 0415 1E000000 		.4byte	.LVL126
 14985 0419 0300     		.2byte	0x3
 14986 041b 08       		.byte	0x8
 14987 041c 20       		.byte	0x20
 14988 041d 9F       		.byte	0x9f
 14989 041e 1E000000 		.4byte	.LVL126
 14990 0422 24000000 		.4byte	.LVL127
 14991 0426 0200     		.2byte	0x2
 14992 0428 30       		.byte	0x30
 14993 0429 9F       		.byte	0x9f
 14994 042a 24000000 		.4byte	.LVL127
 14995 042e 2D000000 		.4byte	.LVL129-1
 14996 0432 0100     		.2byte	0x1
 14997 0434 53       		.byte	0x53
 14998 0435 00000000 		.4byte	0
 14999 0439 00000000 		.4byte	0
 15000              	.LLST26:
 15001 043d 00000000 		.4byte	.LVL131
 15002 0441 04000000 		.4byte	.LVL132
 15003 0445 0100     		.2byte	0x1
 15004 0447 50       		.byte	0x50
 15005 0448 04000000 		.4byte	.LVL132
ARM GAS  C:\Users\FRANKL~1\AppData\Local\Temp\ccLkvCvD.s 			page 301


 15006 044c 06000000 		.4byte	.LVL133
 15007 0450 0400     		.2byte	0x4
 15008 0452 F3       		.byte	0xf3
 15009 0453 01       		.uleb128 0x1
 15010 0454 50       		.byte	0x50
 15011 0455 9F       		.byte	0x9f
 15012 0456 06000000 		.4byte	.LVL133
 15013 045a 26000000 		.4byte	.LVL139
 15014 045e 0100     		.2byte	0x1
 15015 0460 53       		.byte	0x53
 15016 0461 00000000 		.4byte	0
 15017 0465 00000000 		.4byte	0
 15018              	.LLST27:
 15019 0469 00000000 		.4byte	.LVL131
 15020 046d 06000000 		.4byte	.LVL133
 15021 0471 0100     		.2byte	0x1
 15022 0473 51       		.byte	0x51
 15023 0474 06000000 		.4byte	.LVL133
 15024 0478 0C000000 		.4byte	.LVL134
 15025 047c 0300     		.2byte	0x3
 15026 047e 71       		.byte	0x71
 15027 047f 7F       		.sleb128 -1
 15028 0480 9F       		.byte	0x9f
 15029 0481 0C000000 		.4byte	.LVL134
 15030 0485 40000000 		.4byte	.LFE75
 15031 0489 0600     		.2byte	0x6
 15032 048b F3       		.byte	0xf3
 15033 048c 01       		.uleb128 0x1
 15034 048d 51       		.byte	0x51
 15035 048e 31       		.byte	0x31
 15036 048f 1C       		.byte	0x1c
 15037 0490 9F       		.byte	0x9f
 15038 0491 00000000 		.4byte	0
 15039 0495 00000000 		.4byte	0
 15040              	.LLST28:
 15041 0499 12000000 		.4byte	.LVL135
 15042 049d 16000000 		.4byte	.LVL136
 15043 04a1 0200     		.2byte	0x2
 15044 04a3 30       		.byte	0x30
 15045 04a4 9F       		.byte	0x9f
 15046 04a5 16000000 		.4byte	.LVL136
 15047 04a9 1E000000 		.4byte	.LVL137
 15048 04ad 0300     		.2byte	0x3
 15049 04af 08       		.byte	0x8
 15050 04b0 20       		.byte	0x20
 15051 04b1 9F       		.byte	0x9f
 15052 04b2 1E000000 		.4byte	.LVL137
 15053 04b6 24000000 		.4byte	.LVL138
 15054 04ba 0200     		.2byte	0x2
 15055 04bc 30       		.byte	0x30
 15056 04bd 9F       		.byte	0x9f
 15057 04be 24000000 		.4byte	.LVL138
 15058 04c2 2A000000 		.4byte	.LVL140
 15059 04c6 0100     		.2byte	0x1
 15060 04c8 52       		.byte	0x52
 15061 04c9 00000000 		.4byte	0
 15062 04cd 00000000 		.4byte	0
ARM GAS  C:\Users\FRANKL~1\AppData\Local\Temp\ccLkvCvD.s 			page 302


 15063              	.LLST29:
 15064 04d1 00000000 		.4byte	.LVL142
 15065 04d5 04000000 		.4byte	.LVL143
 15066 04d9 0100     		.2byte	0x1
 15067 04db 50       		.byte	0x50
 15068 04dc 04000000 		.4byte	.LVL143
 15069 04e0 06000000 		.4byte	.LVL144
 15070 04e4 0400     		.2byte	0x4
 15071 04e6 F3       		.byte	0xf3
 15072 04e7 01       		.uleb128 0x1
 15073 04e8 50       		.byte	0x50
 15074 04e9 9F       		.byte	0x9f
 15075 04ea 06000000 		.4byte	.LVL144
 15076 04ee 3C000000 		.4byte	.LVL153
 15077 04f2 0100     		.2byte	0x1
 15078 04f4 55       		.byte	0x55
 15079 04f5 00000000 		.4byte	0
 15080 04f9 00000000 		.4byte	0
 15081              	.LLST30:
 15082 04fd 06000000 		.4byte	.LVL144
 15083 0501 0A000000 		.4byte	.LVL145
 15084 0505 0200     		.2byte	0x2
 15085 0507 30       		.byte	0x30
 15086 0508 9F       		.byte	0x9f
 15087 0509 0A000000 		.4byte	.LVL145
 15088 050d 34000000 		.4byte	.LVL151
 15089 0511 0100     		.2byte	0x1
 15090 0513 54       		.byte	0x54
 15091 0514 36000000 		.4byte	.LVL152
 15092 0518 3C000000 		.4byte	.LVL153
 15093 051c 0100     		.2byte	0x1
 15094 051e 54       		.byte	0x54
 15095 051f 00000000 		.4byte	0
 15096 0523 00000000 		.4byte	0
 15097              	.LLST31:
 15098 0527 0A000000 		.4byte	.LVL145
 15099 052b 0E000000 		.4byte	.LVL146
 15100 052f 0200     		.2byte	0x2
 15101 0531 30       		.byte	0x30
 15102 0532 9F       		.byte	0x9f
 15103 0533 0E000000 		.4byte	.LVL146
 15104 0537 16000000 		.4byte	.LVL147
 15105 053b 0300     		.2byte	0x3
 15106 053d 08       		.byte	0x8
 15107 053e 20       		.byte	0x20
 15108 053f 9F       		.byte	0x9f
 15109 0540 16000000 		.4byte	.LVL147
 15110 0544 1C000000 		.4byte	.LVL148
 15111 0548 0200     		.2byte	0x2
 15112 054a 30       		.byte	0x30
 15113 054b 9F       		.byte	0x9f
 15114 054c 1C000000 		.4byte	.LVL148
 15115 0550 22000000 		.4byte	.LVL149
 15116 0554 0100     		.2byte	0x1
 15117 0556 53       		.byte	0x53
 15118 0557 00000000 		.4byte	0
 15119 055b 00000000 		.4byte	0
ARM GAS  C:\Users\FRANKL~1\AppData\Local\Temp\ccLkvCvD.s 			page 303


 15120              	.LLST32:
 15121 055f 02000000 		.4byte	.LVL154
 15122 0563 06000000 		.4byte	.LVL155
 15123 0567 0200     		.2byte	0x2
 15124 0569 30       		.byte	0x30
 15125 056a 9F       		.byte	0x9f
 15126 056b 06000000 		.4byte	.LVL155
 15127 056f 28000000 		.4byte	.LVL161
 15128 0573 0100     		.2byte	0x1
 15129 0575 54       		.byte	0x54
 15130 0576 2A000000 		.4byte	.LVL162
 15131 057a 30000000 		.4byte	.LVL163
 15132 057e 0100     		.2byte	0x1
 15133 0580 54       		.byte	0x54
 15134 0581 00000000 		.4byte	0
 15135 0585 00000000 		.4byte	0
 15136              	.LLST33:
 15137 0589 06000000 		.4byte	.LVL155
 15138 058d 16000000 		.4byte	.LVL156
 15139 0591 0100     		.2byte	0x1
 15140 0593 53       		.byte	0x53
 15141 0594 18000000 		.4byte	.LVL157
 15142 0598 1A000000 		.4byte	.LVL158
 15143 059c 0100     		.2byte	0x1
 15144 059e 53       		.byte	0x53
 15145 059f 1C000000 		.4byte	.LVL159
 15146 05a3 25000000 		.4byte	.LVL160-1
 15147 05a7 0100     		.2byte	0x1
 15148 05a9 53       		.byte	0x53
 15149 05aa 00000000 		.4byte	0
 15150 05ae 00000000 		.4byte	0
 15151              	.LLST34:
 15152 05b2 00000000 		.4byte	.LVL164
 15153 05b6 04000000 		.4byte	.LVL165
 15154 05ba 0100     		.2byte	0x1
 15155 05bc 50       		.byte	0x50
 15156 05bd 04000000 		.4byte	.LVL165
 15157 05c1 06000000 		.4byte	.LVL166
 15158 05c5 0400     		.2byte	0x4
 15159 05c7 F3       		.byte	0xf3
 15160 05c8 01       		.uleb128 0x1
 15161 05c9 50       		.byte	0x50
 15162 05ca 9F       		.byte	0x9f
 15163 05cb 06000000 		.4byte	.LVL166
 15164 05cf 23000000 		.4byte	.LVL170-1
 15165 05d3 0100     		.2byte	0x1
 15166 05d5 50       		.byte	0x50
 15167 05d6 00000000 		.4byte	0
 15168 05da 00000000 		.4byte	0
 15169              	.LLST35:
 15170 05de 06000000 		.4byte	.LVL166
 15171 05e2 0A000000 		.4byte	.LVL167
 15172 05e6 0200     		.2byte	0x2
 15173 05e8 30       		.byte	0x30
 15174 05e9 9F       		.byte	0x9f
 15175 05ea 0A000000 		.4byte	.LVL167
 15176 05ee 1A000000 		.4byte	.LVL168
ARM GAS  C:\Users\FRANKL~1\AppData\Local\Temp\ccLkvCvD.s 			page 304


 15177 05f2 0100     		.2byte	0x1
 15178 05f4 53       		.byte	0x53
 15179 05f5 1C000000 		.4byte	.LVL169
 15180 05f9 23000000 		.4byte	.LVL170-1
 15181 05fd 0100     		.2byte	0x1
 15182 05ff 53       		.byte	0x53
 15183 0600 00000000 		.4byte	0
 15184 0604 00000000 		.4byte	0
 15185              	.LLST36:
 15186 0608 00000000 		.4byte	.LVL171
 15187 060c 04000000 		.4byte	.LVL172
 15188 0610 0100     		.2byte	0x1
 15189 0612 50       		.byte	0x50
 15190 0613 04000000 		.4byte	.LVL172
 15191 0617 38000000 		.4byte	.LFE79
 15192 061b 0400     		.2byte	0x4
 15193 061d F3       		.byte	0xf3
 15194 061e 01       		.uleb128 0x1
 15195 061f 50       		.byte	0x50
 15196 0620 9F       		.byte	0x9f
 15197 0621 00000000 		.4byte	0
 15198 0625 00000000 		.4byte	0
 15199              	.LLST37:
 15200 0629 02000000 		.4byte	.LVL177
 15201 062d 06000000 		.4byte	.LVL178
 15202 0631 0200     		.2byte	0x2
 15203 0633 31       		.byte	0x31
 15204 0634 9F       		.byte	0x9f
 15205 0635 06000000 		.4byte	.LVL178
 15206 0639 0E000000 		.4byte	.LVL180
 15207 063d 0100     		.2byte	0x1
 15208 063f 54       		.byte	0x54
 15209 0640 10000000 		.4byte	.LVL181
 15210 0644 16000000 		.4byte	.LFE80
 15211 0648 0100     		.2byte	0x1
 15212 064a 54       		.byte	0x54
 15213 064b 00000000 		.4byte	0
 15214 064f 00000000 		.4byte	0
 15215              	.LLST38:
 15216 0653 00000000 		.4byte	.LVL182
 15217 0657 0A000000 		.4byte	.LVL183
 15218 065b 0100     		.2byte	0x1
 15219 065d 50       		.byte	0x50
 15220 065e 0A000000 		.4byte	.LVL183
 15221 0662 0D000000 		.4byte	.LVL184-1
 15222 0666 0500     		.2byte	0x5
 15223 0668 03       		.byte	0x3
 15224 0669 00000000 		.4byte	TIA_Selected_Resistor
 15225 066d 0D000000 		.4byte	.LVL184-1
 15226 0671 18000000 		.4byte	.LFE81
 15227 0675 0400     		.2byte	0x4
 15228 0677 F3       		.byte	0xf3
 15229 0678 01       		.uleb128 0x1
 15230 0679 50       		.byte	0x50
 15231 067a 9F       		.byte	0x9f
 15232 067b 00000000 		.4byte	0
 15233 067f 00000000 		.4byte	0
ARM GAS  C:\Users\FRANKL~1\AppData\Local\Temp\ccLkvCvD.s 			page 305


 15234              	.LLST39:
 15235 0683 00000000 		.4byte	.LVL187
 15236 0687 16000000 		.4byte	.LVL189
 15237 068b 0100     		.2byte	0x1
 15238 068d 50       		.byte	0x50
 15239 068e 16000000 		.4byte	.LVL189
 15240 0692 B2000000 		.4byte	.LVL217
 15241 0696 0200     		.2byte	0x2
 15242 0698 7D       		.byte	0x7d
 15243 0699 00       		.sleb128 0
 15244 069a B2000000 		.4byte	.LVL217
 15245 069e B6000000 		.4byte	.LFE84
 15246 06a2 0200     		.2byte	0x2
 15247 06a4 91       		.byte	0x91
 15248 06a5 50       		.sleb128 -48
 15249 06a6 00000000 		.4byte	0
 15250 06aa 00000000 		.4byte	0
 15251              	.LLST40:
 15252 06ae 00000000 		.4byte	.LVL187
 15253 06b2 16000000 		.4byte	.LVL189
 15254 06b6 0100     		.2byte	0x1
 15255 06b8 51       		.byte	0x51
 15256 06b9 16000000 		.4byte	.LVL189
 15257 06bd B6000000 		.4byte	.LFE84
 15258 06c1 0200     		.2byte	0x2
 15259 06c3 91       		.byte	0x91
 15260 06c4 54       		.sleb128 -44
 15261 06c5 00000000 		.4byte	0
 15262 06c9 00000000 		.4byte	0
 15263              	.LLST41:
 15264 06cd 00000000 		.4byte	.LVL187
 15265 06d1 16000000 		.4byte	.LVL189
 15266 06d5 0100     		.2byte	0x1
 15267 06d7 52       		.byte	0x52
 15268 06d8 16000000 		.4byte	.LVL189
 15269 06dc B6000000 		.4byte	.LFE84
 15270 06e0 0100     		.2byte	0x1
 15271 06e2 5B       		.byte	0x5b
 15272 06e3 00000000 		.4byte	0
 15273 06e7 00000000 		.4byte	0
 15274              	.LLST42:
 15275 06eb 0C000000 		.4byte	.LVL188
 15276 06ef 16000000 		.4byte	.LVL189
 15277 06f3 0200     		.2byte	0x2
 15278 06f5 30       		.byte	0x30
 15279 06f6 9F       		.byte	0x9f
 15280 06f7 16000000 		.4byte	.LVL189
 15281 06fb 84000000 		.4byte	.LVL210
 15282 06ff 0100     		.2byte	0x1
 15283 0701 55       		.byte	0x55
 15284 0702 A0000000 		.4byte	.LVL215
 15285 0706 A2000000 		.4byte	.LVL216
 15286 070a 0100     		.2byte	0x1
 15287 070c 50       		.byte	0x50
 15288 070d A2000000 		.4byte	.LVL216
 15289 0711 B6000000 		.4byte	.LFE84
 15290 0715 0100     		.2byte	0x1
ARM GAS  C:\Users\FRANKL~1\AppData\Local\Temp\ccLkvCvD.s 			page 306


 15291 0717 55       		.byte	0x55
 15292 0718 00000000 		.4byte	0
 15293 071c 00000000 		.4byte	0
 15294              	.LLST43:
 15295 0720 0C000000 		.4byte	.LVL188
 15296 0724 16000000 		.4byte	.LVL189
 15297 0728 0200     		.2byte	0x2
 15298 072a 30       		.byte	0x30
 15299 072b 9F       		.byte	0x9f
 15300 072c 16000000 		.4byte	.LVL189
 15301 0730 74000000 		.4byte	.LVL205
 15302 0734 0100     		.2byte	0x1
 15303 0736 59       		.byte	0x59
 15304 0737 74000000 		.4byte	.LVL205
 15305 073b 76000000 		.4byte	.LVL206
 15306 073f 0100     		.2byte	0x1
 15307 0741 50       		.byte	0x50
 15308 0742 76000000 		.4byte	.LVL206
 15309 0746 B6000000 		.4byte	.LFE84
 15310 074a 0100     		.2byte	0x1
 15311 074c 59       		.byte	0x59
 15312 074d 00000000 		.4byte	0
 15313 0751 00000000 		.4byte	0
 15314              	.LLST44:
 15315 0755 0C000000 		.4byte	.LVL188
 15316 0759 16000000 		.4byte	.LVL189
 15317 075d 0200     		.2byte	0x2
 15318 075f 31       		.byte	0x31
 15319 0760 9F       		.byte	0x9f
 15320 0761 16000000 		.4byte	.LVL189
 15321 0765 B6000000 		.4byte	.LFE84
 15322 0769 0100     		.2byte	0x1
 15323 076b 54       		.byte	0x54
 15324 076c 00000000 		.4byte	0
 15325 0770 00000000 		.4byte	0
 15326              	.LLST45:
 15327 0774 2E000000 		.4byte	.LVL194
 15328 0778 30000000 		.4byte	.LVL195
 15329 077c 0100     		.2byte	0x1
 15330 077e 50       		.byte	0x50
 15331 077f 30000000 		.4byte	.LVL195
 15332 0783 7C000000 		.4byte	.LVL208
 15333 0787 0100     		.2byte	0x1
 15334 0789 57       		.byte	0x57
 15335 078a 00000000 		.4byte	0
 15336 078e 00000000 		.4byte	0
 15337              	.LLST46:
 15338 0792 00000000 		.4byte	.LVL218
 15339 0796 12000000 		.4byte	.LVL219
 15340 079a 0100     		.2byte	0x1
 15341 079c 50       		.byte	0x50
 15342 079d 12000000 		.4byte	.LVL219
 15343 07a1 15000000 		.4byte	.LVL220-1
 15344 07a5 0100     		.2byte	0x1
 15345 07a7 52       		.byte	0x52
 15346 07a8 15000000 		.4byte	.LVL220-1
 15347 07ac 54000000 		.4byte	.LFE85
ARM GAS  C:\Users\FRANKL~1\AppData\Local\Temp\ccLkvCvD.s 			page 307


 15348 07b0 0400     		.2byte	0x4
 15349 07b2 F3       		.byte	0xf3
 15350 07b3 01       		.uleb128 0x1
 15351 07b4 50       		.byte	0x50
 15352 07b5 9F       		.byte	0x9f
 15353 07b6 00000000 		.4byte	0
 15354 07ba 00000000 		.4byte	0
 15355              	.LLST47:
 15356 07be 00000000 		.4byte	.LVL224
 15357 07c2 16000000 		.4byte	.LVL226
 15358 07c6 0100     		.2byte	0x1
 15359 07c8 50       		.byte	0x50
 15360 07c9 16000000 		.4byte	.LVL226
 15361 07cd B2000000 		.4byte	.LVL254
 15362 07d1 0200     		.2byte	0x2
 15363 07d3 7D       		.byte	0x7d
 15364 07d4 00       		.sleb128 0
 15365 07d5 B2000000 		.4byte	.LVL254
 15366 07d9 B6000000 		.4byte	.LFE86
 15367 07dd 0200     		.2byte	0x2
 15368 07df 91       		.byte	0x91
 15369 07e0 50       		.sleb128 -48
 15370 07e1 00000000 		.4byte	0
 15371 07e5 00000000 		.4byte	0
 15372              	.LLST48:
 15373 07e9 00000000 		.4byte	.LVL224
 15374 07ed 16000000 		.4byte	.LVL226
 15375 07f1 0100     		.2byte	0x1
 15376 07f3 51       		.byte	0x51
 15377 07f4 16000000 		.4byte	.LVL226
 15378 07f8 B6000000 		.4byte	.LFE86
 15379 07fc 0200     		.2byte	0x2
 15380 07fe 91       		.byte	0x91
 15381 07ff 54       		.sleb128 -44
 15382 0800 00000000 		.4byte	0
 15383 0804 00000000 		.4byte	0
 15384              	.LLST49:
 15385 0808 00000000 		.4byte	.LVL224
 15386 080c 16000000 		.4byte	.LVL226
 15387 0810 0100     		.2byte	0x1
 15388 0812 52       		.byte	0x52
 15389 0813 16000000 		.4byte	.LVL226
 15390 0817 B6000000 		.4byte	.LFE86
 15391 081b 0100     		.2byte	0x1
 15392 081d 5B       		.byte	0x5b
 15393 081e 00000000 		.4byte	0
 15394 0822 00000000 		.4byte	0
 15395              	.LLST50:
 15396 0826 0C000000 		.4byte	.LVL225
 15397 082a 16000000 		.4byte	.LVL226
 15398 082e 0200     		.2byte	0x2
 15399 0830 30       		.byte	0x30
 15400 0831 9F       		.byte	0x9f
 15401 0832 16000000 		.4byte	.LVL226
 15402 0836 84000000 		.4byte	.LVL247
 15403 083a 0100     		.2byte	0x1
 15404 083c 55       		.byte	0x55
ARM GAS  C:\Users\FRANKL~1\AppData\Local\Temp\ccLkvCvD.s 			page 308


 15405 083d A0000000 		.4byte	.LVL252
 15406 0841 A2000000 		.4byte	.LVL253
 15407 0845 0100     		.2byte	0x1
 15408 0847 50       		.byte	0x50
 15409 0848 A2000000 		.4byte	.LVL253
 15410 084c B6000000 		.4byte	.LFE86
 15411 0850 0100     		.2byte	0x1
 15412 0852 55       		.byte	0x55
 15413 0853 00000000 		.4byte	0
 15414 0857 00000000 		.4byte	0
 15415              	.LLST51:
 15416 085b 0C000000 		.4byte	.LVL225
 15417 085f 16000000 		.4byte	.LVL226
 15418 0863 0200     		.2byte	0x2
 15419 0865 30       		.byte	0x30
 15420 0866 9F       		.byte	0x9f
 15421 0867 16000000 		.4byte	.LVL226
 15422 086b 74000000 		.4byte	.LVL242
 15423 086f 0100     		.2byte	0x1
 15424 0871 59       		.byte	0x59
 15425 0872 74000000 		.4byte	.LVL242
 15426 0876 76000000 		.4byte	.LVL243
 15427 087a 0100     		.2byte	0x1
 15428 087c 50       		.byte	0x50
 15429 087d 76000000 		.4byte	.LVL243
 15430 0881 B6000000 		.4byte	.LFE86
 15431 0885 0100     		.2byte	0x1
 15432 0887 59       		.byte	0x59
 15433 0888 00000000 		.4byte	0
 15434 088c 00000000 		.4byte	0
 15435              	.LLST52:
 15436 0890 0C000000 		.4byte	.LVL225
 15437 0894 16000000 		.4byte	.LVL226
 15438 0898 0200     		.2byte	0x2
 15439 089a 31       		.byte	0x31
 15440 089b 9F       		.byte	0x9f
 15441 089c 16000000 		.4byte	.LVL226
 15442 08a0 B6000000 		.4byte	.LFE86
 15443 08a4 0100     		.2byte	0x1
 15444 08a6 54       		.byte	0x54
 15445 08a7 00000000 		.4byte	0
 15446 08ab 00000000 		.4byte	0
 15447              	.LLST53:
 15448 08af 2E000000 		.4byte	.LVL231
 15449 08b3 30000000 		.4byte	.LVL232
 15450 08b7 0100     		.2byte	0x1
 15451 08b9 50       		.byte	0x50
 15452 08ba 30000000 		.4byte	.LVL232
 15453 08be 7C000000 		.4byte	.LVL245
 15454 08c2 0100     		.2byte	0x1
 15455 08c4 57       		.byte	0x57
 15456 08c5 00000000 		.4byte	0
 15457 08c9 00000000 		.4byte	0
 15458              	.LLST54:
 15459 08cd 00000000 		.4byte	.LVL255
 15460 08d1 16000000 		.4byte	.LVL257
 15461 08d5 0100     		.2byte	0x1
ARM GAS  C:\Users\FRANKL~1\AppData\Local\Temp\ccLkvCvD.s 			page 309


 15462 08d7 50       		.byte	0x50
 15463 08d8 16000000 		.4byte	.LVL257
 15464 08dc B2000000 		.4byte	.LVL285
 15465 08e0 0200     		.2byte	0x2
 15466 08e2 7D       		.byte	0x7d
 15467 08e3 00       		.sleb128 0
 15468 08e4 B2000000 		.4byte	.LVL285
 15469 08e8 B6000000 		.4byte	.LFE87
 15470 08ec 0200     		.2byte	0x2
 15471 08ee 91       		.byte	0x91
 15472 08ef 50       		.sleb128 -48
 15473 08f0 00000000 		.4byte	0
 15474 08f4 00000000 		.4byte	0
 15475              	.LLST55:
 15476 08f8 00000000 		.4byte	.LVL255
 15477 08fc 16000000 		.4byte	.LVL257
 15478 0900 0100     		.2byte	0x1
 15479 0902 51       		.byte	0x51
 15480 0903 16000000 		.4byte	.LVL257
 15481 0907 B6000000 		.4byte	.LFE87
 15482 090b 0200     		.2byte	0x2
 15483 090d 91       		.byte	0x91
 15484 090e 54       		.sleb128 -44
 15485 090f 00000000 		.4byte	0
 15486 0913 00000000 		.4byte	0
 15487              	.LLST56:
 15488 0917 00000000 		.4byte	.LVL255
 15489 091b 16000000 		.4byte	.LVL257
 15490 091f 0100     		.2byte	0x1
 15491 0921 52       		.byte	0x52
 15492 0922 16000000 		.4byte	.LVL257
 15493 0926 B6000000 		.4byte	.LFE87
 15494 092a 0100     		.2byte	0x1
 15495 092c 5B       		.byte	0x5b
 15496 092d 00000000 		.4byte	0
 15497 0931 00000000 		.4byte	0
 15498              	.LLST57:
 15499 0935 0C000000 		.4byte	.LVL256
 15500 0939 16000000 		.4byte	.LVL257
 15501 093d 0200     		.2byte	0x2
 15502 093f 30       		.byte	0x30
 15503 0940 9F       		.byte	0x9f
 15504 0941 16000000 		.4byte	.LVL257
 15505 0945 84000000 		.4byte	.LVL278
 15506 0949 0100     		.2byte	0x1
 15507 094b 55       		.byte	0x55
 15508 094c A0000000 		.4byte	.LVL283
 15509 0950 A2000000 		.4byte	.LVL284
 15510 0954 0100     		.2byte	0x1
 15511 0956 50       		.byte	0x50
 15512 0957 A2000000 		.4byte	.LVL284
 15513 095b B6000000 		.4byte	.LFE87
 15514 095f 0100     		.2byte	0x1
 15515 0961 55       		.byte	0x55
 15516 0962 00000000 		.4byte	0
 15517 0966 00000000 		.4byte	0
 15518              	.LLST58:
ARM GAS  C:\Users\FRANKL~1\AppData\Local\Temp\ccLkvCvD.s 			page 310


 15519 096a 0C000000 		.4byte	.LVL256
 15520 096e 16000000 		.4byte	.LVL257
 15521 0972 0200     		.2byte	0x2
 15522 0974 30       		.byte	0x30
 15523 0975 9F       		.byte	0x9f
 15524 0976 16000000 		.4byte	.LVL257
 15525 097a 74000000 		.4byte	.LVL273
 15526 097e 0100     		.2byte	0x1
 15527 0980 59       		.byte	0x59
 15528 0981 74000000 		.4byte	.LVL273
 15529 0985 76000000 		.4byte	.LVL274
 15530 0989 0100     		.2byte	0x1
 15531 098b 50       		.byte	0x50
 15532 098c 76000000 		.4byte	.LVL274
 15533 0990 B6000000 		.4byte	.LFE87
 15534 0994 0100     		.2byte	0x1
 15535 0996 59       		.byte	0x59
 15536 0997 00000000 		.4byte	0
 15537 099b 00000000 		.4byte	0
 15538              	.LLST59:
 15539 099f 0C000000 		.4byte	.LVL256
 15540 09a3 16000000 		.4byte	.LVL257
 15541 09a7 0200     		.2byte	0x2
 15542 09a9 31       		.byte	0x31
 15543 09aa 9F       		.byte	0x9f
 15544 09ab 16000000 		.4byte	.LVL257
 15545 09af B6000000 		.4byte	.LFE87
 15546 09b3 0100     		.2byte	0x1
 15547 09b5 54       		.byte	0x54
 15548 09b6 00000000 		.4byte	0
 15549 09ba 00000000 		.4byte	0
 15550              	.LLST60:
 15551 09be 2E000000 		.4byte	.LVL262
 15552 09c2 30000000 		.4byte	.LVL263
 15553 09c6 0100     		.2byte	0x1
 15554 09c8 50       		.byte	0x50
 15555 09c9 30000000 		.4byte	.LVL263
 15556 09cd 7C000000 		.4byte	.LVL276
 15557 09d1 0100     		.2byte	0x1
 15558 09d3 57       		.byte	0x57
 15559 09d4 00000000 		.4byte	0
 15560 09d8 00000000 		.4byte	0
 15561              	.LLST61:
 15562 09dc 00000000 		.4byte	.LVL286
 15563 09e0 26000000 		.4byte	.LVL290
 15564 09e4 0100     		.2byte	0x1
 15565 09e6 50       		.byte	0x50
 15566 09e7 26000000 		.4byte	.LVL290
 15567 09eb 26010000 		.4byte	.LVL323
 15568 09ef 0200     		.2byte	0x2
 15569 09f1 91       		.byte	0x91
 15570 09f2 48       		.sleb128 -56
 15571 09f3 26010000 		.4byte	.LVL323
 15572 09f7 48010000 		.4byte	.LFE88
 15573 09fb 0200     		.2byte	0x2
 15574 09fd 7D       		.byte	0x7d
 15575 09fe 48       		.sleb128 -56
ARM GAS  C:\Users\FRANKL~1\AppData\Local\Temp\ccLkvCvD.s 			page 311


 15576 09ff 00000000 		.4byte	0
 15577 0a03 00000000 		.4byte	0
 15578              	.LLST62:
 15579 0a07 00000000 		.4byte	.LVL286
 15580 0a0b 29000000 		.4byte	.LVL291-1
 15581 0a0f 0100     		.2byte	0x1
 15582 0a11 51       		.byte	0x51
 15583 0a12 29000000 		.4byte	.LVL291-1
 15584 0a16 26010000 		.4byte	.LVL323
 15585 0a1a 0200     		.2byte	0x2
 15586 0a1c 91       		.byte	0x91
 15587 0a1d 4C       		.sleb128 -52
 15588 0a1e 26010000 		.4byte	.LVL323
 15589 0a22 48010000 		.4byte	.LFE88
 15590 0a26 0200     		.2byte	0x2
 15591 0a28 7D       		.byte	0x7d
 15592 0a29 4C       		.sleb128 -52
 15593 0a2a 00000000 		.4byte	0
 15594 0a2e 00000000 		.4byte	0
 15595              	.LLST63:
 15596 0a32 00000000 		.4byte	.LVL286
 15597 0a36 10000000 		.4byte	.LVL287
 15598 0a3a 0100     		.2byte	0x1
 15599 0a3c 52       		.byte	0x52
 15600 0a3d 10000000 		.4byte	.LVL287
 15601 0a41 26010000 		.4byte	.LVL323
 15602 0a45 0100     		.2byte	0x1
 15603 0a47 5B       		.byte	0x5b
 15604 0a48 26010000 		.4byte	.LVL323
 15605 0a4c 48010000 		.4byte	.LFE88
 15606 0a50 0400     		.2byte	0x4
 15607 0a52 F3       		.byte	0xf3
 15608 0a53 01       		.uleb128 0x1
 15609 0a54 52       		.byte	0x52
 15610 0a55 9F       		.byte	0x9f
 15611 0a56 00000000 		.4byte	0
 15612 0a5a 00000000 		.4byte	0
 15613              	.LLST64:
 15614 0a5e 1A000000 		.4byte	.LVL288
 15615 0a62 52000000 		.4byte	.LVL297
 15616 0a66 0600     		.2byte	0x6
 15617 0a68 9E       		.byte	0x9e
 15618 0a69 04       		.uleb128 0x4
 15619 0a6a 00000000 		.4byte	0
 15620 0a6e 6C000000 		.4byte	.LVL301
 15621 0a72 6F000000 		.4byte	.LVL302-1
 15622 0a76 0100     		.2byte	0x1
 15623 0a78 50       		.byte	0x50
 15624 0a79 6F000000 		.4byte	.LVL302-1
 15625 0a7d C4000000 		.4byte	.LVL310
 15626 0a81 0100     		.2byte	0x1
 15627 0a83 55       		.byte	0x55
 15628 0a84 00000000 		.4byte	0
 15629 0a88 00000000 		.4byte	0
 15630              	.LLST65:
 15631 0a8c 1A000000 		.4byte	.LVL288
 15632 0a90 52000000 		.4byte	.LVL297
ARM GAS  C:\Users\FRANKL~1\AppData\Local\Temp\ccLkvCvD.s 			page 312


 15633 0a94 0600     		.2byte	0x6
 15634 0a96 9E       		.byte	0x9e
 15635 0a97 04       		.uleb128 0x4
 15636 0a98 00000000 		.4byte	0
 15637 0a9c 52000000 		.4byte	.LVL297
 15638 0aa0 0E010000 		.4byte	.LVL321
 15639 0aa4 0100     		.2byte	0x1
 15640 0aa6 59       		.byte	0x59
 15641 0aa7 0E010000 		.4byte	.LVL321
 15642 0aab 10010000 		.4byte	.LVL322
 15643 0aaf 0100     		.2byte	0x1
 15644 0ab1 50       		.byte	0x50
 15645 0ab2 10010000 		.4byte	.LVL322
 15646 0ab6 26010000 		.4byte	.LVL323
 15647 0aba 0100     		.2byte	0x1
 15648 0abc 59       		.byte	0x59
 15649 0abd 00000000 		.4byte	0
 15650 0ac1 00000000 		.4byte	0
 15651              	.LLST66:
 15652 0ac5 1A000000 		.4byte	.LVL288
 15653 0ac9 52000000 		.4byte	.LVL297
 15654 0acd 0600     		.2byte	0x6
 15655 0acf 9E       		.byte	0x9e
 15656 0ad0 04       		.uleb128 0x4
 15657 0ad1 00000000 		.4byte	0
 15658 0ad5 52000000 		.4byte	.LVL297
 15659 0ad9 FC000000 		.4byte	.LVL317
 15660 0add 0100     		.2byte	0x1
 15661 0adf 58       		.byte	0x58
 15662 0ae0 FC000000 		.4byte	.LVL317
 15663 0ae4 00010000 		.4byte	.LVL318
 15664 0ae8 0100     		.2byte	0x1
 15665 0aea 50       		.byte	0x50
 15666 0aeb 00010000 		.4byte	.LVL318
 15667 0aef 26010000 		.4byte	.LVL323
 15668 0af3 0100     		.2byte	0x1
 15669 0af5 58       		.byte	0x58
 15670 0af6 26010000 		.4byte	.LVL323
 15671 0afa 48010000 		.4byte	.LFE88
 15672 0afe 0200     		.2byte	0x2
 15673 0b00 73       		.byte	0x73
 15674 0b01 00       		.sleb128 0
 15675 0b02 00000000 		.4byte	0
 15676 0b06 00000000 		.4byte	0
 15677              	.LLST67:
 15678 0b0a 24000000 		.4byte	.LVL289
 15679 0b0e 29000000 		.4byte	.LVL291-1
 15680 0b12 0200     		.2byte	0x2
 15681 0b14 73       		.byte	0x73
 15682 0b15 08       		.sleb128 8
 15683 0b16 00000000 		.4byte	0
 15684 0b1a 00000000 		.4byte	0
 15685              	.LLST68:
 15686 0b1e 3E000000 		.4byte	.LVL294
 15687 0b22 44000000 		.4byte	.LVL295
 15688 0b26 0100     		.2byte	0x1
 15689 0b28 50       		.byte	0x50
ARM GAS  C:\Users\FRANKL~1\AppData\Local\Temp\ccLkvCvD.s 			page 313


 15690 0b29 44000000 		.4byte	.LVL295
 15691 0b2d 26010000 		.4byte	.LVL323
 15692 0b31 0200     		.2byte	0x2
 15693 0b33 91       		.byte	0x91
 15694 0b34 44       		.sleb128 -60
 15695 0b35 26010000 		.4byte	.LVL323
 15696 0b39 48010000 		.4byte	.LFE88
 15697 0b3d 0200     		.2byte	0x2
 15698 0b3f 7D       		.byte	0x7d
 15699 0b40 44       		.sleb128 -60
 15700 0b41 00000000 		.4byte	0
 15701 0b45 00000000 		.4byte	0
 15702              	.LLST69:
 15703 0b49 48000000 		.4byte	.LVL296
 15704 0b4d 52000000 		.4byte	.LVL297
 15705 0b51 0200     		.2byte	0x2
 15706 0b53 31       		.byte	0x31
 15707 0b54 9F       		.byte	0x9f
 15708 0b55 52000000 		.4byte	.LVL297
 15709 0b59 26010000 		.4byte	.LVL323
 15710 0b5d 0100     		.2byte	0x1
 15711 0b5f 54       		.byte	0x54
 15712 0b60 00000000 		.4byte	0
 15713 0b64 00000000 		.4byte	0
 15714              	.LLST70:
 15715 0b68 08000000 		.4byte	.LVL328
 15716 0b6c 1C000000 		.4byte	.LVL331
 15717 0b70 0100     		.2byte	0x1
 15718 0b72 54       		.byte	0x54
 15719 0b73 36000000 		.4byte	.LVL337
 15720 0b77 4A000000 		.4byte	.LVL341
 15721 0b7b 0100     		.2byte	0x1
 15722 0b7d 54       		.byte	0x54
 15723 0b7e 00000000 		.4byte	0
 15724 0b82 00000000 		.4byte	0
 15725              	.LLST71:
 15726 0b86 0E000000 		.4byte	.LVL329
 15727 0b8a 3A000000 		.4byte	.LVL338
 15728 0b8e 0100     		.2byte	0x1
 15729 0b90 55       		.byte	0x55
 15730 0b91 3C000000 		.4byte	.LVL339
 15731 0b95 60000000 		.4byte	.LVL347
 15732 0b99 0100     		.2byte	0x1
 15733 0b9b 55       		.byte	0x55
 15734 0b9c 00000000 		.4byte	0
 15735 0ba0 00000000 		.4byte	0
 15736              	.LLST72:
 15737 0ba4 0E000000 		.4byte	.LVL329
 15738 0ba8 1A000000 		.4byte	.LVL330
 15739 0bac 0200     		.2byte	0x2
 15740 0bae 31       		.byte	0x31
 15741 0baf 9F       		.byte	0x9f
 15742 0bb0 1A000000 		.4byte	.LVL330
 15743 0bb4 1C000000 		.4byte	.LVL331
 15744 0bb8 0100     		.2byte	0x1
 15745 0bba 56       		.byte	0x56
 15746 0bbb 3C000000 		.4byte	.LVL339
ARM GAS  C:\Users\FRANKL~1\AppData\Local\Temp\ccLkvCvD.s 			page 314


 15747 0bbf 48000000 		.4byte	.LVL340
 15748 0bc3 0200     		.2byte	0x2
 15749 0bc5 31       		.byte	0x31
 15750 0bc6 9F       		.byte	0x9f
 15751 0bc7 48000000 		.4byte	.LVL340
 15752 0bcb 4A000000 		.4byte	.LVL341
 15753 0bcf 0100     		.2byte	0x1
 15754 0bd1 56       		.byte	0x56
 15755 0bd2 00000000 		.4byte	0
 15756 0bd6 00000000 		.4byte	0
 15757              	.LLST73:
 15758 0bda 1A000000 		.4byte	.LVL330
 15759 0bde 2A000000 		.4byte	.LVL334
 15760 0be2 0100     		.2byte	0x1
 15761 0be4 54       		.byte	0x54
 15762 0be5 2C000000 		.4byte	.LVL335
 15763 0be9 34000000 		.4byte	.LVL336
 15764 0bed 0100     		.2byte	0x1
 15765 0bef 54       		.byte	0x54
 15766 0bf0 00000000 		.4byte	0
 15767 0bf4 00000000 		.4byte	0
 15768              	.LLST74:
 15769 0bf8 48000000 		.4byte	.LVL340
 15770 0bfc 58000000 		.4byte	.LVL344
 15771 0c00 0100     		.2byte	0x1
 15772 0c02 54       		.byte	0x54
 15773 0c03 5A000000 		.4byte	.LVL345
 15774 0c07 5E000000 		.4byte	.LVL346
 15775 0c0b 0100     		.2byte	0x1
 15776 0c0d 54       		.byte	0x54
 15777 0c0e 00000000 		.4byte	0
 15778 0c12 00000000 		.4byte	0
 15779              	.LLST75:
 15780 0c16 00000000 		.4byte	.LVL363
 15781 0c1a 26000000 		.4byte	.LVL366
 15782 0c1e 0100     		.2byte	0x1
 15783 0c20 50       		.byte	0x50
 15784 0c21 26000000 		.4byte	.LVL366
 15785 0c25 74000000 		.4byte	.LFE94
 15786 0c29 0400     		.2byte	0x4
 15787 0c2b F3       		.byte	0xf3
 15788 0c2c 01       		.uleb128 0x1
 15789 0c2d 50       		.byte	0x50
 15790 0c2e 9F       		.byte	0x9f
 15791 0c2f 00000000 		.4byte	0
 15792 0c33 00000000 		.4byte	0
 15793              	.LLST76:
 15794 0c37 16000000 		.4byte	.LVL364
 15795 0c3b 66000000 		.4byte	.LVL381
 15796 0c3f 0100     		.2byte	0x1
 15797 0c41 55       		.byte	0x55
 15798 0c42 00000000 		.4byte	0
 15799 0c46 00000000 		.4byte	0
 15800              	.LLST77:
 15801 0c4a 16000000 		.4byte	.LVL364
 15802 0c4e 22000000 		.4byte	.LVL365
 15803 0c52 0200     		.2byte	0x2
ARM GAS  C:\Users\FRANKL~1\AppData\Local\Temp\ccLkvCvD.s 			page 315


 15804 0c54 31       		.byte	0x31
 15805 0c55 9F       		.byte	0x9f
 15806 0c56 22000000 		.4byte	.LVL365
 15807 0c5a 66000000 		.4byte	.LVL381
 15808 0c5e 0100     		.2byte	0x1
 15809 0c60 56       		.byte	0x56
 15810 0c61 00000000 		.4byte	0
 15811 0c65 00000000 		.4byte	0
 15812              	.LLST78:
 15813 0c69 22000000 		.4byte	.LVL365
 15814 0c6d 26000000 		.4byte	.LVL366
 15815 0c71 0200     		.2byte	0x2
 15816 0c73 30       		.byte	0x30
 15817 0c74 9F       		.byte	0x9f
 15818 0c75 26000000 		.4byte	.LVL366
 15819 0c79 5C000000 		.4byte	.LVL379
 15820 0c7d 0100     		.2byte	0x1
 15821 0c7f 57       		.byte	0x57
 15822 0c80 5E000000 		.4byte	.LVL380
 15823 0c84 66000000 		.4byte	.LVL381
 15824 0c88 0100     		.2byte	0x1
 15825 0c8a 57       		.byte	0x57
 15826 0c8b 00000000 		.4byte	0
 15827 0c8f 00000000 		.4byte	0
 15828              	.LLST79:
 15829 0c93 2E000000 		.4byte	.LVL368
 15830 0c97 3C000000 		.4byte	.LVL371
 15831 0c9b 0100     		.2byte	0x1
 15832 0c9d 54       		.byte	0x54
 15833 0c9e 3E000000 		.4byte	.LVL372
 15834 0ca2 40000000 		.4byte	.LVL373
 15835 0ca6 0100     		.2byte	0x1
 15836 0ca8 54       		.byte	0x54
 15837 0ca9 42000000 		.4byte	.LVL374
 15838 0cad 54000000 		.4byte	.LVL377
 15839 0cb1 0100     		.2byte	0x1
 15840 0cb3 54       		.byte	0x54
 15841 0cb4 00000000 		.4byte	0
 15842 0cb8 00000000 		.4byte	0
 15843              	.LLST80:
 15844 0cbc 00000000 		.4byte	.LVL382
 15845 0cc0 26000000 		.4byte	.LVL386
 15846 0cc4 0100     		.2byte	0x1
 15847 0cc6 50       		.byte	0x50
 15848 0cc7 26000000 		.4byte	.LVL386
 15849 0ccb 74000000 		.4byte	.LFE95
 15850 0ccf 0400     		.2byte	0x4
 15851 0cd1 F3       		.byte	0xf3
 15852 0cd2 01       		.uleb128 0x1
 15853 0cd3 50       		.byte	0x50
 15854 0cd4 9F       		.byte	0x9f
 15855 0cd5 00000000 		.4byte	0
 15856 0cd9 00000000 		.4byte	0
 15857              	.LLST81:
 15858 0cdd 10000000 		.4byte	.LVL383
 15859 0ce1 22000000 		.4byte	.LVL385
 15860 0ce5 0200     		.2byte	0x2
ARM GAS  C:\Users\FRANKL~1\AppData\Local\Temp\ccLkvCvD.s 			page 316


 15861 0ce7 31       		.byte	0x31
 15862 0ce8 9F       		.byte	0x9f
 15863 0ce9 22000000 		.4byte	.LVL385
 15864 0ced 66000000 		.4byte	.LVL401
 15865 0cf1 0100     		.2byte	0x1
 15866 0cf3 56       		.byte	0x56
 15867 0cf4 00000000 		.4byte	0
 15868 0cf8 00000000 		.4byte	0
 15869              	.LLST82:
 15870 0cfc 16000000 		.4byte	.LVL384
 15871 0d00 66000000 		.4byte	.LVL401
 15872 0d04 0100     		.2byte	0x1
 15873 0d06 55       		.byte	0x55
 15874 0d07 00000000 		.4byte	0
 15875 0d0b 00000000 		.4byte	0
 15876              	.LLST83:
 15877 0d0f 22000000 		.4byte	.LVL385
 15878 0d13 26000000 		.4byte	.LVL386
 15879 0d17 0100     		.2byte	0x1
 15880 0d19 55       		.byte	0x55
 15881 0d1a 26000000 		.4byte	.LVL386
 15882 0d1e 5C000000 		.4byte	.LVL399
 15883 0d22 0100     		.2byte	0x1
 15884 0d24 57       		.byte	0x57
 15885 0d25 5E000000 		.4byte	.LVL400
 15886 0d29 66000000 		.4byte	.LVL401
 15887 0d2d 0100     		.2byte	0x1
 15888 0d2f 57       		.byte	0x57
 15889 0d30 00000000 		.4byte	0
 15890 0d34 00000000 		.4byte	0
 15891              	.LLST84:
 15892 0d38 2E000000 		.4byte	.LVL388
 15893 0d3c 3C000000 		.4byte	.LVL391
 15894 0d40 0100     		.2byte	0x1
 15895 0d42 54       		.byte	0x54
 15896 0d43 3E000000 		.4byte	.LVL392
 15897 0d47 40000000 		.4byte	.LVL393
 15898 0d4b 0100     		.2byte	0x1
 15899 0d4d 54       		.byte	0x54
 15900 0d4e 42000000 		.4byte	.LVL394
 15901 0d52 54000000 		.4byte	.LVL397
 15902 0d56 0100     		.2byte	0x1
 15903 0d58 54       		.byte	0x54
 15904 0d59 00000000 		.4byte	0
 15905 0d5d 00000000 		.4byte	0
 15906              	.LLST85:
 15907 0d61 00000000 		.4byte	.LVL402
 15908 0d65 0C000000 		.4byte	.LVL403
 15909 0d69 0100     		.2byte	0x1
 15910 0d6b 50       		.byte	0x50
 15911 0d6c 0C000000 		.4byte	.LVL403
 15912 0d70 76000000 		.4byte	.LVL418
 15913 0d74 0100     		.2byte	0x1
 15914 0d76 57       		.byte	0x57
 15915 0d77 00000000 		.4byte	0
 15916 0d7b 00000000 		.4byte	0
 15917              	.LLST86:
ARM GAS  C:\Users\FRANKL~1\AppData\Local\Temp\ccLkvCvD.s 			page 317


 15918 0d7f 0C000000 		.4byte	.LVL403
 15919 0d83 20000000 		.4byte	.LVL404
 15920 0d87 0200     		.2byte	0x2
 15921 0d89 31       		.byte	0x31
 15922 0d8a 9F       		.byte	0x9f
 15923 0d8b 20000000 		.4byte	.LVL404
 15924 0d8f 76000000 		.4byte	.LVL418
 15925 0d93 0100     		.2byte	0x1
 15926 0d95 58       		.byte	0x58
 15927 0d96 00000000 		.4byte	0
 15928 0d9a 00000000 		.4byte	0
 15929              	.LLST87:
 15930 0d9e 26000000 		.4byte	.LVL405
 15931 0da2 6C000000 		.4byte	.LVL416
 15932 0da6 0100     		.2byte	0x1
 15933 0da8 56       		.byte	0x56
 15934 0da9 6E000000 		.4byte	.LVL417
 15935 0dad 76000000 		.4byte	.LVL418
 15936 0db1 0100     		.2byte	0x1
 15937 0db3 56       		.byte	0x56
 15938 0db4 00000000 		.4byte	0
 15939 0db8 00000000 		.4byte	0
 15940              	.LLST88:
 15941 0dbc 38000000 		.4byte	.LVL407
 15942 0dc0 6E000000 		.4byte	.LVL417
 15943 0dc4 0100     		.2byte	0x1
 15944 0dc6 55       		.byte	0x55
 15945 0dc7 00000000 		.4byte	0
 15946 0dcb 00000000 		.4byte	0
 15947              	.LLST89:
 15948 0dcf 40000000 		.4byte	.LVL408
 15949 0dd3 6E000000 		.4byte	.LVL417
 15950 0dd7 0100     		.2byte	0x1
 15951 0dd9 54       		.byte	0x54
 15952 0dda 00000000 		.4byte	0
 15953 0dde 00000000 		.4byte	0
 15954              	.LLST90:
 15955 0de2 00000000 		.4byte	.LVL419
 15956 0de6 0A000000 		.4byte	.LVL420
 15957 0dea 0100     		.2byte	0x1
 15958 0dec 50       		.byte	0x50
 15959 0ded 0A000000 		.4byte	.LVL420
 15960 0df1 BA000000 		.4byte	.LVL445
 15961 0df5 0100     		.2byte	0x1
 15962 0df7 54       		.byte	0x54
 15963 0df8 00000000 		.4byte	0
 15964 0dfc 00000000 		.4byte	0
 15965              	.LLST91:
 15966 0e00 20000000 		.4byte	.LVL422
 15967 0e04 26000000 		.4byte	.LVL423
 15968 0e08 0100     		.2byte	0x1
 15969 0e0a 53       		.byte	0x53
 15970 0e0b 26000000 		.4byte	.LVL423
 15971 0e0f 2A000000 		.4byte	.LVL424
 15972 0e13 0100     		.2byte	0x1
 15973 0e15 50       		.byte	0x50
 15974 0e16 3A000000 		.4byte	.LVL427
ARM GAS  C:\Users\FRANKL~1\AppData\Local\Temp\ccLkvCvD.s 			page 318


 15975 0e1a 40000000 		.4byte	.LVL428
 15976 0e1e 0100     		.2byte	0x1
 15977 0e20 53       		.byte	0x53
 15978 0e21 40000000 		.4byte	.LVL428
 15979 0e25 44000000 		.4byte	.LVL429
 15980 0e29 0100     		.2byte	0x1
 15981 0e2b 50       		.byte	0x50
 15982 0e2c 52000000 		.4byte	.LVL432
 15983 0e30 57000000 		.4byte	.LVL433-1
 15984 0e34 0100     		.2byte	0x1
 15985 0e36 53       		.byte	0x53
 15986 0e37 00000000 		.4byte	0
 15987 0e3b 00000000 		.4byte	0
 15988              	.LLST92:
 15989 0e3f 68000000 		.4byte	.LVL434
 15990 0e43 AC000000 		.4byte	.LVL441
 15991 0e47 0100     		.2byte	0x1
 15992 0e49 56       		.byte	0x56
 15993 0e4a 00000000 		.4byte	0
 15994 0e4e 00000000 		.4byte	0
 15995              	.LLST93:
 15996 0e52 76000000 		.4byte	.LVL435
 15997 0e56 B2000000 		.4byte	.LVL442
 15998 0e5a 0100     		.2byte	0x1
 15999 0e5c 50       		.byte	0x50
 16000 0e5d 00000000 		.4byte	0
 16001 0e61 00000000 		.4byte	0
 16002              	.LLST94:
 16003 0e65 88000000 		.4byte	.LVL436
 16004 0e69 A0000000 		.4byte	.LVL439
 16005 0e6d 0100     		.2byte	0x1
 16006 0e6f 52       		.byte	0x52
 16007 0e70 00000000 		.4byte	0
 16008 0e74 00000000 		.4byte	0
 16009              	.LLST95:
 16010 0e78 96000000 		.4byte	.LVL437
 16011 0e7c A6000000 		.4byte	.LVL440
 16012 0e80 0100     		.2byte	0x1
 16013 0e82 53       		.byte	0x53
 16014 0e83 00000000 		.4byte	0
 16015 0e87 00000000 		.4byte	0
 16016              	.LLST96:
 16017 0e8b 9A000000 		.4byte	.LVL438
 16018 0e8f A0000000 		.4byte	.LVL439
 16019 0e93 0100     		.2byte	0x1
 16020 0e95 51       		.byte	0x51
 16021 0e96 A0000000 		.4byte	.LVL439
 16022 0e9a A6000000 		.4byte	.LVL440
 16023 0e9e 0100     		.2byte	0x1
 16024 0ea0 52       		.byte	0x52
 16025 0ea1 A6000000 		.4byte	.LVL440
 16026 0ea5 AC000000 		.4byte	.LVL441
 16027 0ea9 0100     		.2byte	0x1
 16028 0eab 53       		.byte	0x53
 16029 0eac AC000000 		.4byte	.LVL441
 16030 0eb0 B2000000 		.4byte	.LVL442
 16031 0eb4 0100     		.2byte	0x1
ARM GAS  C:\Users\FRANKL~1\AppData\Local\Temp\ccLkvCvD.s 			page 319


 16032 0eb6 56       		.byte	0x56
 16033 0eb7 B2000000 		.4byte	.LVL442
 16034 0ebb B4000000 		.4byte	.LVL443
 16035 0ebf 0100     		.2byte	0x1
 16036 0ec1 50       		.byte	0x50
 16037 0ec2 00000000 		.4byte	0
 16038 0ec6 00000000 		.4byte	0
 16039              	.LLST97:
 16040 0eca 00000000 		.4byte	.LVL446
 16041 0ece 0A000000 		.4byte	.LVL447
 16042 0ed2 0100     		.2byte	0x1
 16043 0ed4 50       		.byte	0x50
 16044 0ed5 0A000000 		.4byte	.LVL447
 16045 0ed9 BA000000 		.4byte	.LVL472
 16046 0edd 0100     		.2byte	0x1
 16047 0edf 54       		.byte	0x54
 16048 0ee0 00000000 		.4byte	0
 16049 0ee4 00000000 		.4byte	0
 16050              	.LLST98:
 16051 0ee8 20000000 		.4byte	.LVL449
 16052 0eec 26000000 		.4byte	.LVL450
 16053 0ef0 0100     		.2byte	0x1
 16054 0ef2 53       		.byte	0x53
 16055 0ef3 26000000 		.4byte	.LVL450
 16056 0ef7 2A000000 		.4byte	.LVL451
 16057 0efb 0100     		.2byte	0x1
 16058 0efd 50       		.byte	0x50
 16059 0efe 3A000000 		.4byte	.LVL454
 16060 0f02 40000000 		.4byte	.LVL455
 16061 0f06 0100     		.2byte	0x1
 16062 0f08 53       		.byte	0x53
 16063 0f09 40000000 		.4byte	.LVL455
 16064 0f0d 44000000 		.4byte	.LVL456
 16065 0f11 0100     		.2byte	0x1
 16066 0f13 50       		.byte	0x50
 16067 0f14 52000000 		.4byte	.LVL459
 16068 0f18 57000000 		.4byte	.LVL460-1
 16069 0f1c 0100     		.2byte	0x1
 16070 0f1e 53       		.byte	0x53
 16071 0f1f 00000000 		.4byte	0
 16072 0f23 00000000 		.4byte	0
 16073              	.LLST99:
 16074 0f27 6E000000 		.4byte	.LVL461
 16075 0f2b A0000000 		.4byte	.LVL466
 16076 0f2f 0100     		.2byte	0x1
 16077 0f31 52       		.byte	0x52
 16078 0f32 00000000 		.4byte	0
 16079 0f36 00000000 		.4byte	0
 16080              	.LLST100:
 16081 0f3a 7C000000 		.4byte	.LVL462
 16082 0f3e A6000000 		.4byte	.LVL467
 16083 0f42 0100     		.2byte	0x1
 16084 0f44 53       		.byte	0x53
 16085 0f45 00000000 		.4byte	0
 16086 0f49 00000000 		.4byte	0
 16087              	.LLST101:
 16088 0f4d 88000000 		.4byte	.LVL463
ARM GAS  C:\Users\FRANKL~1\AppData\Local\Temp\ccLkvCvD.s 			page 320


 16089 0f51 AC000000 		.4byte	.LVL468
 16090 0f55 0100     		.2byte	0x1
 16091 0f57 56       		.byte	0x56
 16092 0f58 00000000 		.4byte	0
 16093 0f5c 00000000 		.4byte	0
 16094              	.LLST102:
 16095 0f60 96000000 		.4byte	.LVL464
 16096 0f64 B2000000 		.4byte	.LVL469
 16097 0f68 0100     		.2byte	0x1
 16098 0f6a 50       		.byte	0x50
 16099 0f6b 00000000 		.4byte	0
 16100 0f6f 00000000 		.4byte	0
 16101              	.LLST103:
 16102 0f73 9A000000 		.4byte	.LVL465
 16103 0f77 A0000000 		.4byte	.LVL466
 16104 0f7b 0100     		.2byte	0x1
 16105 0f7d 51       		.byte	0x51
 16106 0f7e A0000000 		.4byte	.LVL466
 16107 0f82 A6000000 		.4byte	.LVL467
 16108 0f86 0100     		.2byte	0x1
 16109 0f88 52       		.byte	0x52
 16110 0f89 A6000000 		.4byte	.LVL467
 16111 0f8d AC000000 		.4byte	.LVL468
 16112 0f91 0100     		.2byte	0x1
 16113 0f93 53       		.byte	0x53
 16114 0f94 AC000000 		.4byte	.LVL468
 16115 0f98 B2000000 		.4byte	.LVL469
 16116 0f9c 0100     		.2byte	0x1
 16117 0f9e 56       		.byte	0x56
 16118 0f9f B2000000 		.4byte	.LVL469
 16119 0fa3 B4000000 		.4byte	.LVL470
 16120 0fa7 0100     		.2byte	0x1
 16121 0fa9 50       		.byte	0x50
 16122 0faa 00000000 		.4byte	0
 16123 0fae 00000000 		.4byte	0
 16124              	.LLST104:
 16125 0fb2 00000000 		.4byte	.LVL473
 16126 0fb6 05000000 		.4byte	.LVL474-1
 16127 0fba 0100     		.2byte	0x1
 16128 0fbc 50       		.byte	0x50
 16129 0fbd 05000000 		.4byte	.LVL474-1
 16130 0fc1 38000000 		.4byte	.LFE99
 16131 0fc5 0600     		.2byte	0x6
 16132 0fc7 F3       		.byte	0xf3
 16133 0fc8 03       		.uleb128 0x3
 16134 0fc9 F5       		.byte	0xf5
 16135 0fca 00       		.uleb128 0
 16136 0fcb 25       		.uleb128 0x25
 16137 0fcc 9F       		.byte	0x9f
 16138 0fcd 00000000 		.4byte	0
 16139 0fd1 00000000 		.4byte	0
 16140              	.LLST105:
 16141 0fd5 00000000 		.4byte	.LVL479
 16142 0fd9 05000000 		.4byte	.LVL480-1
 16143 0fdd 0100     		.2byte	0x1
 16144 0fdf 50       		.byte	0x50
 16145 0fe0 05000000 		.4byte	.LVL480-1
ARM GAS  C:\Users\FRANKL~1\AppData\Local\Temp\ccLkvCvD.s 			page 321


 16146 0fe4 38000000 		.4byte	.LFE100
 16147 0fe8 0600     		.2byte	0x6
 16148 0fea F3       		.byte	0xf3
 16149 0feb 03       		.uleb128 0x3
 16150 0fec F5       		.byte	0xf5
 16151 0fed 00       		.uleb128 0
 16152 0fee 25       		.uleb128 0x25
 16153 0fef 9F       		.byte	0x9f
 16154 0ff0 00000000 		.4byte	0
 16155 0ff4 00000000 		.4byte	0
 16156              	.LLST106:
 16157 0ff8 00000000 		.4byte	.LVL485
 16158 0ffc 07000000 		.4byte	.LVL486-1
 16159 1000 0100     		.2byte	0x1
 16160 1002 50       		.byte	0x50
 16161 1003 07000000 		.4byte	.LVL486-1
 16162 1007 14000000 		.4byte	.LFE101
 16163 100b 0600     		.2byte	0x6
 16164 100d F3       		.byte	0xf3
 16165 100e 03       		.uleb128 0x3
 16166 100f F5       		.byte	0xf5
 16167 1010 00       		.uleb128 0
 16168 1011 25       		.uleb128 0x25
 16169 1012 9F       		.byte	0x9f
 16170 1013 00000000 		.4byte	0
 16171 1017 00000000 		.4byte	0
 16172              	.LLST107:
 16173 101b 00000000 		.4byte	.LVL488
 16174 101f 07000000 		.4byte	.LVL489-1
 16175 1023 0100     		.2byte	0x1
 16176 1025 50       		.byte	0x50
 16177 1026 07000000 		.4byte	.LVL489-1
 16178 102a 14000000 		.4byte	.LFE102
 16179 102e 0600     		.2byte	0x6
 16180 1030 F3       		.byte	0xf3
 16181 1031 03       		.uleb128 0x3
 16182 1032 F5       		.byte	0xf5
 16183 1033 00       		.uleb128 0
 16184 1034 25       		.uleb128 0x25
 16185 1035 9F       		.byte	0x9f
 16186 1036 00000000 		.4byte	0
 16187 103a 00000000 		.4byte	0
 16188              	.LLST108:
 16189 103e 00000000 		.4byte	.LVL495
 16190 1042 12000000 		.4byte	.LVL497
 16191 1046 0100     		.2byte	0x1
 16192 1048 50       		.byte	0x50
 16193 1049 12000000 		.4byte	.LVL497
 16194 104d BC000000 		.4byte	.LVL517
 16195 1051 0100     		.2byte	0x1
 16196 1053 57       		.byte	0x57
 16197 1054 BC000000 		.4byte	.LVL517
 16198 1058 D0000000 		.4byte	.LFE104
 16199 105c 0400     		.2byte	0x4
 16200 105e F3       		.byte	0xf3
 16201 105f 01       		.uleb128 0x1
 16202 1060 50       		.byte	0x50
ARM GAS  C:\Users\FRANKL~1\AppData\Local\Temp\ccLkvCvD.s 			page 322


 16203 1061 9F       		.byte	0x9f
 16204 1062 00000000 		.4byte	0
 16205 1066 00000000 		.4byte	0
 16206              	.LLST109:
 16207 106a 0E000000 		.4byte	.LVL496
 16208 106e BC000000 		.4byte	.LVL517
 16209 1072 0100     		.2byte	0x1
 16210 1074 58       		.byte	0x58
 16211 1075 00000000 		.4byte	0
 16212 1079 00000000 		.4byte	0
 16213              	.LLST110:
 16214 107d 22000000 		.4byte	.LVL500
 16215 1081 24000000 		.4byte	.LVL501
 16216 1085 0200     		.2byte	0x2
 16217 1087 30       		.byte	0x30
 16218 1088 9F       		.byte	0x9f
 16219 1089 24000000 		.4byte	.LVL501
 16220 108d 7A000000 		.4byte	.LVL510
 16221 1091 0100     		.2byte	0x1
 16222 1093 54       		.byte	0x54
 16223 1094 7C000000 		.4byte	.LVL511
 16224 1098 8A000000 		.4byte	.LVL513
 16225 109c 0100     		.2byte	0x1
 16226 109e 54       		.byte	0x54
 16227 109f 00000000 		.4byte	0
 16228 10a3 00000000 		.4byte	0
 16229              	.LLST111:
 16230 10a7 00000000 		.4byte	.LVL518
 16231 10ab 18000000 		.4byte	.LVL519
 16232 10af 0100     		.2byte	0x1
 16233 10b1 50       		.byte	0x50
 16234 10b2 18000000 		.4byte	.LVL519
 16235 10b6 36000000 		.4byte	.LVL523
 16236 10ba 0100     		.2byte	0x1
 16237 10bc 58       		.byte	0x58
 16238 10bd 36000000 		.4byte	.LVL523
 16239 10c1 1C010000 		.4byte	.LFE105
 16240 10c5 0400     		.2byte	0x4
 16241 10c7 F3       		.byte	0xf3
 16242 10c8 01       		.uleb128 0x1
 16243 10c9 50       		.byte	0x50
 16244 10ca 9F       		.byte	0x9f
 16245 10cb 00000000 		.4byte	0
 16246 10cf 00000000 		.4byte	0
 16247              	.LLST112:
 16248 10d3 00000000 		.4byte	.LVL518
 16249 10d7 1B000000 		.4byte	.LVL520-1
 16250 10db 0100     		.2byte	0x1
 16251 10dd 51       		.byte	0x51
 16252 10de 1B000000 		.4byte	.LVL520-1
 16253 10e2 B0000000 		.4byte	.LVL545
 16254 10e6 0100     		.2byte	0x1
 16255 10e8 57       		.byte	0x57
 16256 10e9 B0000000 		.4byte	.LVL545
 16257 10ed 1C010000 		.4byte	.LFE105
 16258 10f1 0400     		.2byte	0x4
 16259 10f3 F3       		.byte	0xf3
ARM GAS  C:\Users\FRANKL~1\AppData\Local\Temp\ccLkvCvD.s 			page 323


 16260 10f4 01       		.uleb128 0x1
 16261 10f5 51       		.byte	0x51
 16262 10f6 9F       		.byte	0x9f
 16263 10f7 00000000 		.4byte	0
 16264 10fb 00000000 		.4byte	0
 16265              	.LLST113:
 16266 10ff 00000000 		.4byte	.LVL518
 16267 1103 1B000000 		.4byte	.LVL520-1
 16268 1107 0100     		.2byte	0x1
 16269 1109 52       		.byte	0x52
 16270 110a 1B000000 		.4byte	.LVL520-1
 16271 110e A4000000 		.4byte	.LVL542
 16272 1112 0100     		.2byte	0x1
 16273 1114 55       		.byte	0x55
 16274 1115 A4000000 		.4byte	.LVL542
 16275 1119 1C010000 		.4byte	.LFE105
 16276 111d 0400     		.2byte	0x4
 16277 111f F3       		.byte	0xf3
 16278 1120 01       		.uleb128 0x1
 16279 1121 52       		.byte	0x52
 16280 1122 9F       		.byte	0x9f
 16281 1123 00000000 		.4byte	0
 16282 1127 00000000 		.4byte	0
 16283              	.LLST114:
 16284 112b 30000000 		.4byte	.LVL522
 16285 112f 3B000000 		.4byte	.LVL524-1
 16286 1133 0200     		.2byte	0x2
 16287 1135 72       		.byte	0x72
 16288 1136 08       		.sleb128 8
 16289 1137 00000000 		.4byte	0
 16290 113b 00000000 		.4byte	0
 16291              	.LLST115:
 16292 113f 36000000 		.4byte	.LVL523
 16293 1143 9A000000 		.4byte	.LVL540
 16294 1147 0100     		.2byte	0x1
 16295 1149 58       		.byte	0x58
 16296 114a 00000000 		.4byte	0
 16297 114e 00000000 		.4byte	0
 16298              	.LLST116:
 16299 1152 50000000 		.4byte	.LVL527
 16300 1156 52000000 		.4byte	.LVL528
 16301 115a 0100     		.2byte	0x1
 16302 115c 50       		.byte	0x50
 16303 115d 52000000 		.4byte	.LVL528
 16304 1161 62000000 		.4byte	.LVL531
 16305 1165 0100     		.2byte	0x1
 16306 1167 56       		.byte	0x56
 16307 1168 00000000 		.4byte	0
 16308 116c 00000000 		.4byte	0
 16309              	.LLST117:
 16310 1170 62000000 		.4byte	.LVL531
 16311 1174 70000000 		.4byte	.LVL532
 16312 1178 0100     		.2byte	0x1
 16313 117a 50       		.byte	0x50
 16314 117b 70000000 		.4byte	.LVL532
 16315 117f AE000000 		.4byte	.LVL544
 16316 1183 0100     		.2byte	0x1
ARM GAS  C:\Users\FRANKL~1\AppData\Local\Temp\ccLkvCvD.s 			page 324


 16317 1185 56       		.byte	0x56
 16318 1186 00000000 		.4byte	0
 16319 118a 00000000 		.4byte	0
 16320              	.LLST118:
 16321 118e 94000000 		.4byte	.LVL538
 16322 1192 97000000 		.4byte	.LVL539-1
 16323 1196 0100     		.2byte	0x1
 16324 1198 50       		.byte	0x50
 16325 1199 97000000 		.4byte	.LVL539-1
 16326 119d F8000000 		.4byte	.LVL553
 16327 11a1 0100     		.2byte	0x1
 16328 11a3 5A       		.byte	0x5a
 16329 11a4 00000000 		.4byte	0
 16330 11a8 00000000 		.4byte	0
 16331              	.LLST119:
 16332 11ac 94000000 		.4byte	.LVL538
 16333 11b0 97000000 		.4byte	.LVL539-1
 16334 11b4 1600     		.2byte	0x16
 16335 11b6 91       		.byte	0x91
 16336 11b7 4C       		.sleb128 -52
 16337 11b8 06       		.byte	0x6
 16338 11b9 F7       		.byte	0xf7
 16339 11ba 33       		.uleb128 0x33
 16340 11bb F7       		.byte	0xf7
 16341 11bc 2C       		.uleb128 0x2c
 16342 11bd F4       		.byte	0xf4
 16343 11be 2C       		.uleb128 0x2c
 16344 11bf 08       		.byte	0x8
 16345 11c0 8DEDB5A0 		.4byte	0xa0b5ed8d
 16346 11c4 F7C6B03E 		.4byte	0x3eb0c6f7
 16347 11c8 1E       		.byte	0x1e
 16348 11c9 F7       		.byte	0xf7
 16349 11ca 25       		.uleb128 0x25
 16350 11cb 9F       		.byte	0x9f
 16351 11cc 00000000 		.4byte	0
 16352 11d0 00000000 		.4byte	0
 16353              	.LLST120:
 16354 11d4 00000000 		.4byte	.LVL554
 16355 11d8 08000000 		.4byte	.LVL556
 16356 11dc 0100     		.2byte	0x1
 16357 11de 50       		.byte	0x50
 16358 11df 08000000 		.4byte	.LVL556
 16359 11e3 1A000000 		.4byte	.LFE106
 16360 11e7 0100     		.2byte	0x1
 16361 11e9 55       		.byte	0x55
 16362 11ea 00000000 		.4byte	0
 16363 11ee 00000000 		.4byte	0
 16364              	.LLST121:
 16365 11f2 04000000 		.4byte	.LVL555
 16366 11f6 08000000 		.4byte	.LVL556
 16367 11fa 0200     		.2byte	0x2
 16368 11fc 30       		.byte	0x30
 16369 11fd 9F       		.byte	0x9f
 16370 11fe 08000000 		.4byte	.LVL556
 16371 1202 1A000000 		.4byte	.LFE106
 16372 1206 0100     		.2byte	0x1
 16373 1208 54       		.byte	0x54
ARM GAS  C:\Users\FRANKL~1\AppData\Local\Temp\ccLkvCvD.s 			page 325


 16374 1209 00000000 		.4byte	0
 16375 120d 00000000 		.4byte	0
 16376              	.LLST122:
 16377 1211 0E000000 		.4byte	.LVL560
 16378 1215 12000000 		.4byte	.LVL561
 16379 1219 0200     		.2byte	0x2
 16380 121b 30       		.byte	0x30
 16381 121c 9F       		.byte	0x9f
 16382 121d 12000000 		.4byte	.LVL561
 16383 1221 24000000 		.4byte	.LVL564
 16384 1225 0100     		.2byte	0x1
 16385 1227 54       		.byte	0x54
 16386 1228 26000000 		.4byte	.LVL565
 16387 122c 2C000000 		.4byte	.LFE107
 16388 1230 0100     		.2byte	0x1
 16389 1232 54       		.byte	0x54
 16390 1233 00000000 		.4byte	0
 16391 1237 00000000 		.4byte	0
 16392              	.LLST123:
 16393 123b 00000000 		.4byte	.LVL566
 16394 123f 14000000 		.4byte	.LVL567
 16395 1243 0100     		.2byte	0x1
 16396 1245 50       		.byte	0x50
 16397 1246 14000000 		.4byte	.LVL567
 16398 124a 20000000 		.4byte	.LVL569
 16399 124e 0400     		.2byte	0x4
 16400 1250 F3       		.byte	0xf3
 16401 1251 01       		.uleb128 0x1
 16402 1252 50       		.byte	0x50
 16403 1253 9F       		.byte	0x9f
 16404 1254 20000000 		.4byte	.LVL569
 16405 1258 22000000 		.4byte	.LVL570
 16406 125c 0100     		.2byte	0x1
 16407 125e 50       		.byte	0x50
 16408 125f 22000000 		.4byte	.LVL570
 16409 1263 AC000000 		.4byte	.LFE108
 16410 1267 0400     		.2byte	0x4
 16411 1269 F3       		.byte	0xf3
 16412 126a 01       		.uleb128 0x1
 16413 126b 50       		.byte	0x50
 16414 126c 9F       		.byte	0x9f
 16415 126d 00000000 		.4byte	0
 16416 1271 00000000 		.4byte	0
 16417              	.LLST124:
 16418 1275 28000000 		.4byte	.LVL572
 16419 1279 98000000 		.4byte	.LVL588
 16420 127d 0100     		.2byte	0x1
 16421 127f 58       		.byte	0x58
 16422 1280 9C000000 		.4byte	.LVL589
 16423 1284 A4000000 		.4byte	.LVL590
 16424 1288 0100     		.2byte	0x1
 16425 128a 58       		.byte	0x58
 16426 128b 00000000 		.4byte	0
 16427 128f 00000000 		.4byte	0
 16428              	.LLST125:
 16429 1293 28000000 		.4byte	.LVL572
 16430 1297 4E000000 		.4byte	.LVL577
ARM GAS  C:\Users\FRANKL~1\AppData\Local\Temp\ccLkvCvD.s 			page 326


 16431 129b 0200     		.2byte	0x2
 16432 129d 40       		.byte	0x40
 16433 129e 9F       		.byte	0x9f
 16434 129f 4E000000 		.4byte	.LVL577
 16435 12a3 50000000 		.4byte	.LVL578
 16436 12a7 0100     		.2byte	0x1
 16437 12a9 57       		.byte	0x57
 16438 12aa 00000000 		.4byte	0
 16439 12ae 00000000 		.4byte	0
 16440              	.LLST126:
 16441 12b2 28000000 		.4byte	.LVL572
 16442 12b6 36000000 		.4byte	.LVL573
 16443 12ba 0200     		.2byte	0x2
 16444 12bc 30       		.byte	0x30
 16445 12bd 9F       		.byte	0x9f
 16446 12be 36000000 		.4byte	.LVL573
 16447 12c2 38000000 		.4byte	.LVL574
 16448 12c6 0100     		.2byte	0x1
 16449 12c8 55       		.byte	0x55
 16450 12c9 38000000 		.4byte	.LVL574
 16451 12cd 3A000000 		.4byte	.LVL575
 16452 12d1 0200     		.2byte	0x2
 16453 12d3 30       		.byte	0x30
 16454 12d4 9F       		.byte	0x9f
 16455 12d5 3A000000 		.4byte	.LVL575
 16456 12d9 4A000000 		.4byte	.LVL576
 16457 12dd 0100     		.2byte	0x1
 16458 12df 55       		.byte	0x55
 16459 12e0 4E000000 		.4byte	.LVL577
 16460 12e4 50000000 		.4byte	.LVL578
 16461 12e8 0100     		.2byte	0x1
 16462 12ea 55       		.byte	0x55
 16463 12eb 00000000 		.4byte	0
 16464 12ef 00000000 		.4byte	0
 16465              	.LLST127:
 16466 12f3 3A000000 		.4byte	.LVL575
 16467 12f7 4E000000 		.4byte	.LVL577
 16468 12fb 0300     		.2byte	0x3
 16469 12fd 09       		.byte	0x9
 16470 12fe F0       		.byte	0xf0
 16471 12ff 9F       		.byte	0x9f
 16472 1300 4E000000 		.4byte	.LVL577
 16473 1304 50000000 		.4byte	.LVL578
 16474 1308 0100     		.2byte	0x1
 16475 130a 56       		.byte	0x56
 16476 130b 00000000 		.4byte	0
 16477 130f 00000000 		.4byte	0
 16478              	.LLST128:
 16479 1313 4E000000 		.4byte	.LVL577
 16480 1317 8E000000 		.4byte	.LVL586
 16481 131b 0100     		.2byte	0x1
 16482 131d 55       		.byte	0x55
 16483 131e 90000000 		.4byte	.LVL587
 16484 1322 9C000000 		.4byte	.LVL589
 16485 1326 0100     		.2byte	0x1
 16486 1328 55       		.byte	0x55
 16487 1329 00000000 		.4byte	0
ARM GAS  C:\Users\FRANKL~1\AppData\Local\Temp\ccLkvCvD.s 			page 327


 16488 132d 00000000 		.4byte	0
 16489              	.LLST129:
 16490 1331 50000000 		.4byte	.LVL578
 16491 1335 82000000 		.4byte	.LVL582
 16492 1339 0100     		.2byte	0x1
 16493 133b 54       		.byte	0x54
 16494 133c 84000000 		.4byte	.LVL583
 16495 1340 86000000 		.4byte	.LVL584
 16496 1344 0100     		.2byte	0x1
 16497 1346 54       		.byte	0x54
 16498 1347 88000000 		.4byte	.LVL585
 16499 134b 90000000 		.4byte	.LVL587
 16500 134f 0100     		.2byte	0x1
 16501 1351 54       		.byte	0x54
 16502 1352 00000000 		.4byte	0
 16503 1356 00000000 		.4byte	0
 16504              	.LLST130:
 16505 135a 00000000 		.4byte	.LVL591
 16506 135e 08000000 		.4byte	.LVL592
 16507 1362 0100     		.2byte	0x1
 16508 1364 50       		.byte	0x50
 16509 1365 08000000 		.4byte	.LVL592
 16510 1369 84000000 		.4byte	.LFE109
 16511 136d 0400     		.2byte	0x4
 16512 136f F3       		.byte	0xf3
 16513 1370 01       		.uleb128 0x1
 16514 1371 50       		.byte	0x50
 16515 1372 9F       		.byte	0x9f
 16516 1373 00000000 		.4byte	0
 16517 1377 00000000 		.4byte	0
 16518              	.LLST131:
 16519 137b 0C000000 		.4byte	.LVL593
 16520 137f 12000000 		.4byte	.LVL594
 16521 1383 0200     		.2byte	0x2
 16522 1385 30       		.byte	0x30
 16523 1386 9F       		.byte	0x9f
 16524 1387 12000000 		.4byte	.LVL594
 16525 138b 72000000 		.4byte	.LVL606
 16526 138f 0100     		.2byte	0x1
 16527 1391 58       		.byte	0x58
 16528 1392 76000000 		.4byte	.LVL607
 16529 1396 7E000000 		.4byte	.LVL608
 16530 139a 0100     		.2byte	0x1
 16531 139c 58       		.byte	0x58
 16532 139d 00000000 		.4byte	0
 16533 13a1 00000000 		.4byte	0
 16534              	.LLST132:
 16535 13a5 12000000 		.4byte	.LVL594
 16536 13a9 28000000 		.4byte	.LVL595
 16537 13ad 0200     		.2byte	0x2
 16538 13af 40       		.byte	0x40
 16539 13b0 9F       		.byte	0x9f
 16540 13b1 28000000 		.4byte	.LVL595
 16541 13b5 2A000000 		.4byte	.LVL596
 16542 13b9 0100     		.2byte	0x1
 16543 13bb 57       		.byte	0x57
 16544 13bc 00000000 		.4byte	0
ARM GAS  C:\Users\FRANKL~1\AppData\Local\Temp\ccLkvCvD.s 			page 328


 16545 13c0 00000000 		.4byte	0
 16546              	.LLST133:
 16547 13c4 12000000 		.4byte	.LVL594
 16548 13c8 28000000 		.4byte	.LVL595
 16549 13cc 0200     		.2byte	0x2
 16550 13ce 30       		.byte	0x30
 16551 13cf 9F       		.byte	0x9f
 16552 13d0 28000000 		.4byte	.LVL595
 16553 13d4 2A000000 		.4byte	.LVL596
 16554 13d8 0100     		.2byte	0x1
 16555 13da 55       		.byte	0x55
 16556 13db 00000000 		.4byte	0
 16557 13df 00000000 		.4byte	0
 16558              	.LLST134:
 16559 13e3 12000000 		.4byte	.LVL594
 16560 13e7 28000000 		.4byte	.LVL595
 16561 13eb 0300     		.2byte	0x3
 16562 13ed 09       		.byte	0x9
 16563 13ee F0       		.byte	0xf0
 16564 13ef 9F       		.byte	0x9f
 16565 13f0 28000000 		.4byte	.LVL595
 16566 13f4 2A000000 		.4byte	.LVL596
 16567 13f8 0100     		.2byte	0x1
 16568 13fa 56       		.byte	0x56
 16569 13fb 00000000 		.4byte	0
 16570 13ff 00000000 		.4byte	0
 16571              	.LLST135:
 16572 1403 28000000 		.4byte	.LVL595
 16573 1407 68000000 		.4byte	.LVL604
 16574 140b 0100     		.2byte	0x1
 16575 140d 55       		.byte	0x55
 16576 140e 6A000000 		.4byte	.LVL605
 16577 1412 76000000 		.4byte	.LVL607
 16578 1416 0100     		.2byte	0x1
 16579 1418 55       		.byte	0x55
 16580 1419 00000000 		.4byte	0
 16581 141d 00000000 		.4byte	0
 16582              	.LLST136:
 16583 1421 2A000000 		.4byte	.LVL596
 16584 1425 5C000000 		.4byte	.LVL600
 16585 1429 0100     		.2byte	0x1
 16586 142b 54       		.byte	0x54
 16587 142c 5E000000 		.4byte	.LVL601
 16588 1430 60000000 		.4byte	.LVL602
 16589 1434 0100     		.2byte	0x1
 16590 1436 54       		.byte	0x54
 16591 1437 62000000 		.4byte	.LVL603
 16592 143b 6A000000 		.4byte	.LVL605
 16593 143f 0100     		.2byte	0x1
 16594 1441 54       		.byte	0x54
 16595 1442 00000000 		.4byte	0
 16596 1446 00000000 		.4byte	0
 16597              	.LLST137:
 16598 144a 04000000 		.4byte	.LVL609
 16599 144e 10000000 		.4byte	.LVL610
 16600 1452 0200     		.2byte	0x2
 16601 1454 31       		.byte	0x31
ARM GAS  C:\Users\FRANKL~1\AppData\Local\Temp\ccLkvCvD.s 			page 329


 16602 1455 9F       		.byte	0x9f
 16603 1456 10000000 		.4byte	.LVL610
 16604 145a 40000000 		.4byte	.LVL615
 16605 145e 0100     		.2byte	0x1
 16606 1460 54       		.byte	0x54
 16607 1461 40000000 		.4byte	.LVL615
 16608 1465 84000000 		.4byte	.LVL623
 16609 1469 0100     		.2byte	0x1
 16610 146b 58       		.byte	0x58
 16611 146c 84000000 		.4byte	.LVL623
 16612 1470 8E000000 		.4byte	.LVL624
 16613 1474 0100     		.2byte	0x1
 16614 1476 54       		.byte	0x54
 16615 1477 00000000 		.4byte	0
 16616 147b 00000000 		.4byte	0
 16617              	.LLST138:
 16618 147f 04000000 		.4byte	.LVL609
 16619 1483 10000000 		.4byte	.LVL610
 16620 1487 0200     		.2byte	0x2
 16621 1489 30       		.byte	0x30
 16622 148a 9F       		.byte	0x9f
 16623 148b 10000000 		.4byte	.LVL610
 16624 148f 66000000 		.4byte	.LVL619
 16625 1493 0100     		.2byte	0x1
 16626 1495 55       		.byte	0x55
 16627 1496 68000000 		.4byte	.LVL620
 16628 149a 92000000 		.4byte	.LVL625
 16629 149e 0100     		.2byte	0x1
 16630 14a0 55       		.byte	0x55
 16631 14a1 00000000 		.4byte	0
 16632 14a5 00000000 		.4byte	0
 16633              	.LLST139:
 16634 14a9 04000000 		.4byte	.LVL609
 16635 14ad 10000000 		.4byte	.LVL610
 16636 14b1 0200     		.2byte	0x2
 16637 14b3 30       		.byte	0x30
 16638 14b4 9F       		.byte	0x9f
 16639 14b5 10000000 		.4byte	.LVL610
 16640 14b9 30000000 		.4byte	.LVL613
 16641 14bd 0100     		.2byte	0x1
 16642 14bf 59       		.byte	0x59
 16643 14c0 34000000 		.4byte	.LVL614
 16644 14c4 92000000 		.4byte	.LVL625
 16645 14c8 0100     		.2byte	0x1
 16646 14ca 59       		.byte	0x59
 16647 14cb 00000000 		.4byte	0
 16648 14cf 00000000 		.4byte	0
 16649              	.LLST140:
 16650 14d3 04000000 		.4byte	.LVL609
 16651 14d7 10000000 		.4byte	.LVL610
 16652 14db 0200     		.2byte	0x2
 16653 14dd 30       		.byte	0x30
 16654 14de 9F       		.byte	0x9f
 16655 14df 10000000 		.4byte	.LVL610
 16656 14e3 6C000000 		.4byte	.LVL621
 16657 14e7 0100     		.2byte	0x1
 16658 14e9 56       		.byte	0x56
ARM GAS  C:\Users\FRANKL~1\AppData\Local\Temp\ccLkvCvD.s 			page 330


 16659 14ea 6E000000 		.4byte	.LVL622
 16660 14ee 92000000 		.4byte	.LVL625
 16661 14f2 0100     		.2byte	0x1
 16662 14f4 56       		.byte	0x56
 16663 14f5 00000000 		.4byte	0
 16664 14f9 00000000 		.4byte	0
 16665              	.LLST141:
 16666 14fd 04000000 		.4byte	.LVL609
 16667 1501 10000000 		.4byte	.LVL610
 16668 1505 0200     		.2byte	0x2
 16669 1507 30       		.byte	0x30
 16670 1508 9F       		.byte	0x9f
 16671 1509 10000000 		.4byte	.LVL610
 16672 150d 1E000000 		.4byte	.LVL611
 16673 1511 0100     		.2byte	0x1
 16674 1513 57       		.byte	0x57
 16675 1514 20000000 		.4byte	.LVL612
 16676 1518 92000000 		.4byte	.LVL625
 16677 151c 0100     		.2byte	0x1
 16678 151e 57       		.byte	0x57
 16679 151f 00000000 		.4byte	0
 16680 1523 00000000 		.4byte	0
 16681              	.LLST142:
 16682 1527 00000000 		.4byte	.LVL626
 16683 152b 0C000000 		.4byte	.LVL628
 16684 152f 0100     		.2byte	0x1
 16685 1531 50       		.byte	0x50
 16686 1532 0C000000 		.4byte	.LVL628
 16687 1536 90000000 		.4byte	.LFE111
 16688 153a 0400     		.2byte	0x4
 16689 153c F3       		.byte	0xf3
 16690 153d 01       		.uleb128 0x1
 16691 153e 50       		.byte	0x50
 16692 153f 9F       		.byte	0x9f
 16693 1540 00000000 		.4byte	0
 16694 1544 00000000 		.4byte	0
 16695              	.LLST143:
 16696 1548 00000000 		.4byte	.LVL626
 16697 154c 0C000000 		.4byte	.LVL628
 16698 1550 0100     		.2byte	0x1
 16699 1552 51       		.byte	0x51
 16700 1553 0C000000 		.4byte	.LVL628
 16701 1557 90000000 		.4byte	.LFE111
 16702 155b 0400     		.2byte	0x4
 16703 155d F3       		.byte	0xf3
 16704 155e 01       		.uleb128 0x1
 16705 155f 51       		.byte	0x51
 16706 1560 9F       		.byte	0x9f
 16707 1561 00000000 		.4byte	0
 16708 1565 00000000 		.4byte	0
 16709              	.LLST144:
 16710 1569 08000000 		.4byte	.LVL627
 16711 156d 0C000000 		.4byte	.LVL628
 16712 1571 0200     		.2byte	0x2
 16713 1573 31       		.byte	0x31
 16714 1574 9F       		.byte	0x9f
 16715 1575 0C000000 		.4byte	.LVL628
ARM GAS  C:\Users\FRANKL~1\AppData\Local\Temp\ccLkvCvD.s 			page 331


 16716 1579 84000000 		.4byte	.LVL642
 16717 157d 0100     		.2byte	0x1
 16718 157f 54       		.byte	0x54
 16719 1580 00000000 		.4byte	0
 16720 1584 00000000 		.4byte	0
 16721              	.LLST145:
 16722 1588 0C000000 		.4byte	.LVL628
 16723 158c 7C000000 		.4byte	.LVL641
 16724 1590 0100     		.2byte	0x1
 16725 1592 54       		.byte	0x54
 16726 1593 00000000 		.4byte	0
 16727 1597 00000000 		.4byte	0
 16728              	.LLST146:
 16729 159b 10000000 		.4byte	.LVL629
 16730 159f 7C000000 		.4byte	.LVL641
 16731 15a3 0100     		.2byte	0x1
 16732 15a5 56       		.byte	0x56
 16733 15a6 00000000 		.4byte	0
 16734 15aa 00000000 		.4byte	0
 16735              	.LLST147:
 16736 15ae 10000000 		.4byte	.LVL629
 16737 15b2 7C000000 		.4byte	.LVL641
 16738 15b6 0200     		.2byte	0x2
 16739 15b8 31       		.byte	0x31
 16740 15b9 9F       		.byte	0x9f
 16741 15ba 00000000 		.4byte	0
 16742 15be 00000000 		.4byte	0
 16743              	.LLST148:
 16744 15c2 10000000 		.4byte	.LVL629
 16745 15c6 7C000000 		.4byte	.LVL641
 16746 15ca 0200     		.2byte	0x2
 16747 15cc 32       		.byte	0x32
 16748 15cd 9F       		.byte	0x9f
 16749 15ce 00000000 		.4byte	0
 16750 15d2 00000000 		.4byte	0
 16751              	.LLST149:
 16752 15d6 00000000 		.4byte	.LVL643
 16753 15da 18000000 		.4byte	.LVL644
 16754 15de 0100     		.2byte	0x1
 16755 15e0 50       		.byte	0x50
 16756 15e1 18000000 		.4byte	.LVL644
 16757 15e5 94000000 		.4byte	.LVL658
 16758 15e9 0400     		.2byte	0x4
 16759 15eb F3       		.byte	0xf3
 16760 15ec 01       		.uleb128 0x1
 16761 15ed 50       		.byte	0x50
 16762 15ee 9F       		.byte	0x9f
 16763 15ef 94000000 		.4byte	.LVL658
 16764 15f3 A4000000 		.4byte	.LFE112
 16765 15f7 0100     		.2byte	0x1
 16766 15f9 50       		.byte	0x50
 16767 15fa 00000000 		.4byte	0
 16768 15fe 00000000 		.4byte	0
 16769              	.LLST150:
 16770 1602 00000000 		.4byte	.LVL643
 16771 1606 18000000 		.4byte	.LVL644
 16772 160a 0100     		.2byte	0x1
ARM GAS  C:\Users\FRANKL~1\AppData\Local\Temp\ccLkvCvD.s 			page 332


 16773 160c 51       		.byte	0x51
 16774 160d 18000000 		.4byte	.LVL644
 16775 1611 94000000 		.4byte	.LVL658
 16776 1615 0400     		.2byte	0x4
 16777 1617 F3       		.byte	0xf3
 16778 1618 01       		.uleb128 0x1
 16779 1619 51       		.byte	0x51
 16780 161a 9F       		.byte	0x9f
 16781 161b 94000000 		.4byte	.LVL658
 16782 161f A4000000 		.4byte	.LFE112
 16783 1623 0100     		.2byte	0x1
 16784 1625 51       		.byte	0x51
 16785 1626 00000000 		.4byte	0
 16786 162a 00000000 		.4byte	0
 16787              	.LLST151:
 16788 162e 00000000 		.4byte	.LVL643
 16789 1632 18000000 		.4byte	.LVL644
 16790 1636 0100     		.2byte	0x1
 16791 1638 52       		.byte	0x52
 16792 1639 18000000 		.4byte	.LVL644
 16793 163d 94000000 		.4byte	.LVL658
 16794 1641 0400     		.2byte	0x4
 16795 1643 F3       		.byte	0xf3
 16796 1644 01       		.uleb128 0x1
 16797 1645 52       		.byte	0x52
 16798 1646 9F       		.byte	0x9f
 16799 1647 94000000 		.4byte	.LVL658
 16800 164b A4000000 		.4byte	.LFE112
 16801 164f 0100     		.2byte	0x1
 16802 1651 52       		.byte	0x52
 16803 1652 00000000 		.4byte	0
 16804 1656 00000000 		.4byte	0
 16805              	.LLST152:
 16806 165a 00000000 		.4byte	.LVL643
 16807 165e 18000000 		.4byte	.LVL644
 16808 1662 0100     		.2byte	0x1
 16809 1664 53       		.byte	0x53
 16810 1665 18000000 		.4byte	.LVL644
 16811 1669 94000000 		.4byte	.LVL658
 16812 166d 0400     		.2byte	0x4
 16813 166f F3       		.byte	0xf3
 16814 1670 01       		.uleb128 0x1
 16815 1671 53       		.byte	0x53
 16816 1672 9F       		.byte	0x9f
 16817 1673 94000000 		.4byte	.LVL658
 16818 1677 A4000000 		.4byte	.LFE112
 16819 167b 0100     		.2byte	0x1
 16820 167d 53       		.byte	0x53
 16821 167e 00000000 		.4byte	0
 16822 1682 00000000 		.4byte	0
 16823              	.LLST153:
 16824 1686 18000000 		.4byte	.LVL644
 16825 168a 94000000 		.4byte	.LVL658
 16826 168e 0100     		.2byte	0x1
 16827 1690 54       		.byte	0x54
 16828 1691 00000000 		.4byte	0
 16829 1695 00000000 		.4byte	0
ARM GAS  C:\Users\FRANKL~1\AppData\Local\Temp\ccLkvCvD.s 			page 333


 16830              	.LLST154:
 16831 1699 18000000 		.4byte	.LVL644
 16832 169d 8C000000 		.4byte	.LVL657
 16833 16a1 0100     		.2byte	0x1
 16834 16a3 54       		.byte	0x54
 16835 16a4 00000000 		.4byte	0
 16836 16a8 00000000 		.4byte	0
 16837              	.LLST155:
 16838 16ac 1C000000 		.4byte	.LVL645
 16839 16b0 8C000000 		.4byte	.LVL657
 16840 16b4 0100     		.2byte	0x1
 16841 16b6 56       		.byte	0x56
 16842 16b7 00000000 		.4byte	0
 16843 16bb 00000000 		.4byte	0
 16844              	.LLST156:
 16845 16bf 1C000000 		.4byte	.LVL645
 16846 16c3 8C000000 		.4byte	.LVL657
 16847 16c7 0200     		.2byte	0x2
 16848 16c9 31       		.byte	0x31
 16849 16ca 9F       		.byte	0x9f
 16850 16cb 00000000 		.4byte	0
 16851 16cf 00000000 		.4byte	0
 16852              	.LLST157:
 16853 16d3 1C000000 		.4byte	.LVL645
 16854 16d7 8C000000 		.4byte	.LVL657
 16855 16db 0200     		.2byte	0x2
 16856 16dd 32       		.byte	0x32
 16857 16de 9F       		.byte	0x9f
 16858 16df 00000000 		.4byte	0
 16859 16e3 00000000 		.4byte	0
 16860              	.LLST158:
 16861 16e7 84000000 		.4byte	.LVL677
 16862 16eb 94000000 		.4byte	.LVL678
 16863 16ef 0600     		.2byte	0x6
 16864 16f1 03       		.byte	0x3
 16865 16f2 00000000 		.4byte	USBUART_Receive_Buffer
 16866 16f6 9F       		.byte	0x9f
 16867 16f7 94000000 		.4byte	.LVL678
 16868 16fb 42020000 		.4byte	.LVL721
 16869 16ff 0100     		.2byte	0x1
 16870 1701 54       		.byte	0x54
 16871 1702 70020000 		.4byte	.LVL729
 16872 1706 96020000 		.4byte	.LVL734
 16873 170a 0100     		.2byte	0x1
 16874 170c 54       		.byte	0x54
 16875 170d C4020000 		.4byte	.LVL742
 16876 1711 D2020000 		.4byte	.LVL744
 16877 1715 0100     		.2byte	0x1
 16878 1717 54       		.byte	0x54
 16879 1718 98030000 		.4byte	.LVL752
 16880 171c DA030000 		.4byte	.LVL758
 16881 1720 0100     		.2byte	0x1
 16882 1722 54       		.byte	0x54
 16883 1723 2A040000 		.4byte	.LVL767
 16884 1727 72040000 		.4byte	.LVL773
 16885 172b 0100     		.2byte	0x1
 16886 172d 54       		.byte	0x54
ARM GAS  C:\Users\FRANKL~1\AppData\Local\Temp\ccLkvCvD.s 			page 334


 16887 172e C8040000 		.4byte	.LVL782
 16888 1732 14050000 		.4byte	.LVL788
 16889 1736 0100     		.2byte	0x1
 16890 1738 54       		.byte	0x54
 16891 1739 70050000 		.4byte	.LVL798
 16892 173d 86050000 		.4byte	.LVL801
 16893 1741 0100     		.2byte	0x1
 16894 1743 54       		.byte	0x54
 16895 1744 CC050000 		.4byte	.LVL811
 16896 1748 E2050000 		.4byte	.LVL814
 16897 174c 0100     		.2byte	0x1
 16898 174e 54       		.byte	0x54
 16899 174f 28060000 		.4byte	.LVL824
 16900 1753 3E060000 		.4byte	.LVL827
 16901 1757 0100     		.2byte	0x1
 16902 1759 54       		.byte	0x54
 16903 175a 84060000 		.4byte	.LVL837
 16904 175e AE060000 		.4byte	.LVL843
 16905 1762 0100     		.2byte	0x1
 16906 1764 54       		.byte	0x54
 16907 1765 18070000 		.4byte	.LVL848
 16908 1769 2C070000 		.4byte	.LVL851
 16909 176d 0100     		.2byte	0x1
 16910 176f 54       		.byte	0x54
 16911 1770 58070000 		.4byte	.LVL855
 16912 1774 82070000 		.4byte	.LVL861
 16913 1778 0100     		.2byte	0x1
 16914 177a 54       		.byte	0x54
 16915 177b A2070000 		.4byte	.LVL866
 16916 177f CC070000 		.4byte	.LVL872
 16917 1783 0100     		.2byte	0x1
 16918 1785 54       		.byte	0x54
 16919 1786 EC070000 		.4byte	.LVL877
 16920 178a 00080000 		.4byte	.LVL880
 16921 178e 0100     		.2byte	0x1
 16922 1790 54       		.byte	0x54
 16923 1791 28080000 		.4byte	.LVL884
 16924 1795 4E080000 		.4byte	.LVL888
 16925 1799 0100     		.2byte	0x1
 16926 179b 54       		.byte	0x54
 16927 179c 8C080000 		.4byte	.LVL893
 16928 17a0 E4080000 		.4byte	.LFE114
 16929 17a4 0100     		.2byte	0x1
 16930 17a6 54       		.byte	0x54
 16931 17a7 00000000 		.4byte	0
 16932 17ab 00000000 		.4byte	0
 16933              	.LLST159:
 16934 17af D2000000 		.4byte	.LVL683
 16935 17b3 D5000000 		.4byte	.LVL684-1
 16936 17b7 0100     		.2byte	0x1
 16937 17b9 50       		.byte	0x50
 16938 17ba 00000000 		.4byte	0
 16939 17be 00000000 		.4byte	0
 16940              	.LLST160:
 16941 17c2 48010000 		.4byte	.LVL695
 16942 17c6 4D010000 		.4byte	.LVL696-1
 16943 17ca 0100     		.2byte	0x1
ARM GAS  C:\Users\FRANKL~1\AppData\Local\Temp\ccLkvCvD.s 			page 335


 16944 17cc 50       		.byte	0x50
 16945 17cd 00000000 		.4byte	0
 16946 17d1 00000000 		.4byte	0
 16947              	.LLST161:
 16948 17d5 70010000 		.4byte	.LVL699
 16949 17d9 75010000 		.4byte	.LVL700-1
 16950 17dd 0100     		.2byte	0x1
 16951 17df 50       		.byte	0x50
 16952 17e0 00000000 		.4byte	0
 16953 17e4 00000000 		.4byte	0
 16954              	.LLST162:
 16955 17e8 98010000 		.4byte	.LVL703
 16956 17ec 9D010000 		.4byte	.LVL704-1
 16957 17f0 0100     		.2byte	0x1
 16958 17f2 50       		.byte	0x50
 16959 17f3 00000000 		.4byte	0
 16960 17f7 00000000 		.4byte	0
 16961              	.LLST163:
 16962 17fb C0010000 		.4byte	.LVL707
 16963 17ff C5010000 		.4byte	.LVL708-1
 16964 1803 0100     		.2byte	0x1
 16965 1805 50       		.byte	0x50
 16966 1806 00000000 		.4byte	0
 16967 180a 00000000 		.4byte	0
 16968              	.LLST164:
 16969 180e DC010000 		.4byte	.LVL710
 16970 1812 E9010000 		.4byte	.LVL711-1
 16971 1816 0100     		.2byte	0x1
 16972 1818 50       		.byte	0x50
 16973 1819 00000000 		.4byte	0
 16974 181d 00000000 		.4byte	0
 16975              	.LLST165:
 16976 1821 06020000 		.4byte	.LVL714
 16977 1825 13020000 		.4byte	.LVL715-1
 16978 1829 0100     		.2byte	0x1
 16979 182b 50       		.byte	0x50
 16980 182c 00000000 		.4byte	0
 16981 1830 00000000 		.4byte	0
 16982              	.LLST166:
 16983 1834 42020000 		.4byte	.LVL721
 16984 1838 45020000 		.4byte	.LVL722-1
 16985 183c 0100     		.2byte	0x1
 16986 183e 50       		.byte	0x50
 16987 183f 45020000 		.4byte	.LVL722-1
 16988 1843 4E020000 		.4byte	.LVL724
 16989 1847 0100     		.2byte	0x1
 16990 1849 54       		.byte	0x54
 16991 184a 00000000 		.4byte	0
 16992 184e 00000000 		.4byte	0
 16993              	.LLST167:
 16994 1852 96020000 		.4byte	.LVL734
 16995 1856 99020000 		.4byte	.LVL735-1
 16996 185a 0100     		.2byte	0x1
 16997 185c 50       		.byte	0x50
 16998 185d 99020000 		.4byte	.LVL735-1
 16999 1861 A2020000 		.4byte	.LVL737
 17000 1865 0100     		.2byte	0x1
ARM GAS  C:\Users\FRANKL~1\AppData\Local\Temp\ccLkvCvD.s 			page 336


 17001 1867 54       		.byte	0x54
 17002 1868 00000000 		.4byte	0
 17003 186c 00000000 		.4byte	0
 17004              	.LLST168:
 17005 1870 E8030000 		.4byte	.LVL760
 17006 1874 2A040000 		.4byte	.LVL767
 17007 1878 0100     		.2byte	0x1
 17008 187a 56       		.byte	0x56
 17009 187b 00000000 		.4byte	0
 17010 187f 00000000 		.4byte	0
 17011              	.LLST169:
 17012 1883 F2030000 		.4byte	.LVL761
 17013 1887 FA030000 		.4byte	.LVL762
 17014 188b 0100     		.2byte	0x1
 17015 188d 50       		.byte	0x50
 17016 188e FA030000 		.4byte	.LVL762
 17017 1892 FD030000 		.4byte	.LVL763-1
 17018 1896 0100     		.2byte	0x1
 17019 1898 51       		.byte	0x51
 17020 1899 00000000 		.4byte	0
 17021 189d 00000000 		.4byte	0
 17022              	.LLST170:
 17023 18a1 80040000 		.4byte	.LVL775
 17024 18a5 C8040000 		.4byte	.LVL782
 17025 18a9 0100     		.2byte	0x1
 17026 18ab 56       		.byte	0x56
 17027 18ac 00000000 		.4byte	0
 17028 18b0 00000000 		.4byte	0
 17029              	.LLST171:
 17030 18b4 8A040000 		.4byte	.LVL776
 17031 18b8 92040000 		.4byte	.LVL777
 17032 18bc 0100     		.2byte	0x1
 17033 18be 50       		.byte	0x50
 17034 18bf 92040000 		.4byte	.LVL777
 17035 18c3 95040000 		.4byte	.LVL778-1
 17036 18c7 0100     		.2byte	0x1
 17037 18c9 51       		.byte	0x51
 17038 18ca 00000000 		.4byte	0
 17039 18ce 00000000 		.4byte	0
 17040              	.LLST172:
 17041 18d2 22050000 		.4byte	.LVL790
 17042 18d6 3A050000 		.4byte	.LVL794
 17043 18da 0100     		.2byte	0x1
 17044 18dc 56       		.byte	0x56
 17045 18dd 00000000 		.4byte	0
 17046 18e1 00000000 		.4byte	0
 17047              	.LLST173:
 17048 18e5 2C050000 		.4byte	.LVL791
 17049 18e9 34050000 		.4byte	.LVL792
 17050 18ed 0100     		.2byte	0x1
 17051 18ef 50       		.byte	0x50
 17052 18f0 34050000 		.4byte	.LVL792
 17053 18f4 37050000 		.4byte	.LVL793-1
 17054 18f8 0100     		.2byte	0x1
 17055 18fa 51       		.byte	0x51
 17056 18fb 00000000 		.4byte	0
 17057 18ff 00000000 		.4byte	0
ARM GAS  C:\Users\FRANKL~1\AppData\Local\Temp\ccLkvCvD.s 			page 337


 17058              	.LLST174:
 17059 1903 94050000 		.4byte	.LVL803
 17060 1907 CC050000 		.4byte	.LVL811
 17061 190b 0100     		.2byte	0x1
 17062 190d 55       		.byte	0x55
 17063 190e 00000000 		.4byte	0
 17064 1912 00000000 		.4byte	0
 17065              	.LLST175:
 17066 1916 A0050000 		.4byte	.LVL805
 17067 191a CC050000 		.4byte	.LVL811
 17068 191e 0100     		.2byte	0x1
 17069 1920 56       		.byte	0x56
 17070 1921 00000000 		.4byte	0
 17071 1925 00000000 		.4byte	0
 17072              	.LLST176:
 17073 1929 F0050000 		.4byte	.LVL816
 17074 192d 28060000 		.4byte	.LVL824
 17075 1931 0100     		.2byte	0x1
 17076 1933 55       		.byte	0x55
 17077 1934 00000000 		.4byte	0
 17078 1938 00000000 		.4byte	0
 17079              	.LLST177:
 17080 193c FC050000 		.4byte	.LVL818
 17081 1940 28060000 		.4byte	.LVL824
 17082 1944 0100     		.2byte	0x1
 17083 1946 56       		.byte	0x56
 17084 1947 00000000 		.4byte	0
 17085 194b 00000000 		.4byte	0
 17086              	.LLST178:
 17087 194f 4C060000 		.4byte	.LVL829
 17088 1953 84060000 		.4byte	.LVL837
 17089 1957 0100     		.2byte	0x1
 17090 1959 55       		.byte	0x55
 17091 195a 00000000 		.4byte	0
 17092 195e 00000000 		.4byte	0
 17093              	.LLST179:
 17094 1962 58060000 		.4byte	.LVL831
 17095 1966 84060000 		.4byte	.LVL837
 17096 196a 0100     		.2byte	0x1
 17097 196c 56       		.byte	0x56
 17098 196d 00000000 		.4byte	0
 17099 1971 00000000 		.4byte	0
 17100              	.LLST180:
 17101 1975 A6060000 		.4byte	.LVL841
 17102 1979 18070000 		.4byte	.LVL848
 17103 197d 0100     		.2byte	0x1
 17104 197f 55       		.byte	0x55
 17105 1980 00000000 		.4byte	0
 17106 1984 00000000 		.4byte	0
 17107              	.LLST181:
 17108 1988 7A070000 		.4byte	.LVL859
 17109 198c A2070000 		.4byte	.LVL866
 17110 1990 0100     		.2byte	0x1
 17111 1992 55       		.byte	0x55
 17112 1993 00000000 		.4byte	0
 17113 1997 00000000 		.4byte	0
 17114              	.LLST182:
ARM GAS  C:\Users\FRANKL~1\AppData\Local\Temp\ccLkvCvD.s 			page 338


 17115 199b C4070000 		.4byte	.LVL870
 17116 199f EC070000 		.4byte	.LVL877
 17117 19a3 0100     		.2byte	0x1
 17118 19a5 55       		.byte	0x55
 17119 19a6 00000000 		.4byte	0
 17120 19aa 00000000 		.4byte	0
 17121              	.LLST183:
 17122 19ae 48080000 		.4byte	.LVL887
 17123 19b2 54080000 		.4byte	.LVL889
 17124 19b6 0100     		.2byte	0x1
 17125 19b8 50       		.byte	0x50
 17126 19b9 00000000 		.4byte	0
 17127 19bd 00000000 		.4byte	0
 17128              		.section	.debug_aranges,"",%progbits
 17129 0000 AC010000 		.4byte	0x1ac
 17130 0004 0200     		.2byte	0x2
 17131 0006 00000000 		.4byte	.Ldebug_info0
 17132 000a 04       		.byte	0x4
 17133 000b 00       		.byte	0
 17134 000c 0000     		.2byte	0
 17135 000e 0000     		.2byte	0
 17136 0010 00000000 		.4byte	.LFB64
 17137 0014 18000000 		.4byte	.LFE64-.LFB64
 17138 0018 00000000 		.4byte	.LFB65
 17139 001c 1E000000 		.4byte	.LFE65-.LFB65
 17140 0020 00000000 		.4byte	.LFB113
 17141 0024 B0010000 		.4byte	.LFE113-.LFB113
 17142 0028 00000000 		.4byte	.LFB66
 17143 002c 50000000 		.4byte	.LFE66-.LFB66
 17144 0030 00000000 		.4byte	.LFB67
 17145 0034 24000000 		.4byte	.LFE67-.LFB67
 17146 0038 00000000 		.4byte	.LFB68
 17147 003c 16000000 		.4byte	.LFE68-.LFB68
 17148 0040 00000000 		.4byte	.LFB69
 17149 0044 58000000 		.4byte	.LFE69-.LFB69
 17150 0048 00000000 		.4byte	.LFB70
 17151 004c 32000000 		.4byte	.LFE70-.LFB70
 17152 0050 00000000 		.4byte	.LFB71
 17153 0054 90010000 		.4byte	.LFE71-.LFB71
 17154 0058 00000000 		.4byte	.LFB72
 17155 005c 3C000000 		.4byte	.LFE72-.LFB72
 17156 0060 00000000 		.4byte	.LFB73
 17157 0064 2C000000 		.4byte	.LFE73-.LFB73
 17158 0068 00000000 		.4byte	.LFB74
 17159 006c 32000000 		.4byte	.LFE74-.LFB74
 17160 0070 00000000 		.4byte	.LFB75
 17161 0074 40000000 		.4byte	.LFE75-.LFB75
 17162 0078 00000000 		.4byte	.LFB76
 17163 007c 40000000 		.4byte	.LFE76-.LFB76
 17164 0080 00000000 		.4byte	.LFB77
 17165 0084 34000000 		.4byte	.LFE77-.LFB77
 17166 0088 00000000 		.4byte	.LFB78
 17167 008c 2C000000 		.4byte	.LFE78-.LFB78
 17168 0090 00000000 		.4byte	.LFB79
 17169 0094 38000000 		.4byte	.LFE79-.LFB79
 17170 0098 00000000 		.4byte	.LFB80
 17171 009c 16000000 		.4byte	.LFE80-.LFB80
ARM GAS  C:\Users\FRANKL~1\AppData\Local\Temp\ccLkvCvD.s 			page 339


 17172 00a0 00000000 		.4byte	.LFB81
 17173 00a4 18000000 		.4byte	.LFE81-.LFB81
 17174 00a8 00000000 		.4byte	.LFB82
 17175 00ac 18000000 		.4byte	.LFE82-.LFB82
 17176 00b0 00000000 		.4byte	.LFB83
 17177 00b4 14000000 		.4byte	.LFE83-.LFB83
 17178 00b8 00000000 		.4byte	.LFB84
 17179 00bc B6000000 		.4byte	.LFE84-.LFB84
 17180 00c0 00000000 		.4byte	.LFB85
 17181 00c4 54000000 		.4byte	.LFE85-.LFB85
 17182 00c8 00000000 		.4byte	.LFB86
 17183 00cc B6000000 		.4byte	.LFE86-.LFB86
 17184 00d0 00000000 		.4byte	.LFB87
 17185 00d4 B6000000 		.4byte	.LFE87-.LFB87
 17186 00d8 00000000 		.4byte	.LFB88
 17187 00dc 48010000 		.4byte	.LFE88-.LFB88
 17188 00e0 00000000 		.4byte	.LFB89
 17189 00e4 54000000 		.4byte	.LFE89-.LFB89
 17190 00e8 00000000 		.4byte	.LFB90
 17191 00ec 68000000 		.4byte	.LFE90-.LFB90
 17192 00f0 00000000 		.4byte	.LFB91
 17193 00f4 30000000 		.4byte	.LFE91-.LFB91
 17194 00f8 00000000 		.4byte	.LFB92
 17195 00fc 48000000 		.4byte	.LFE92-.LFB92
 17196 0100 00000000 		.4byte	.LFB93
 17197 0104 48000000 		.4byte	.LFE93-.LFB93
 17198 0108 00000000 		.4byte	.LFB94
 17199 010c 74000000 		.4byte	.LFE94-.LFB94
 17200 0110 00000000 		.4byte	.LFB95
 17201 0114 74000000 		.4byte	.LFE95-.LFB95
 17202 0118 00000000 		.4byte	.LFB96
 17203 011c 84000000 		.4byte	.LFE96-.LFB96
 17204 0120 00000000 		.4byte	.LFB97
 17205 0124 C8000000 		.4byte	.LFE97-.LFB97
 17206 0128 00000000 		.4byte	.LFB98
 17207 012c C8000000 		.4byte	.LFE98-.LFB98
 17208 0130 00000000 		.4byte	.LFB99
 17209 0134 38000000 		.4byte	.LFE99-.LFB99
 17210 0138 00000000 		.4byte	.LFB100
 17211 013c 38000000 		.4byte	.LFE100-.LFB100
 17212 0140 00000000 		.4byte	.LFB101
 17213 0144 14000000 		.4byte	.LFE101-.LFB101
 17214 0148 00000000 		.4byte	.LFB102
 17215 014c 14000000 		.4byte	.LFE102-.LFB102
 17216 0150 00000000 		.4byte	.LFB103
 17217 0154 1C000000 		.4byte	.LFE103-.LFB103
 17218 0158 00000000 		.4byte	.LFB104
 17219 015c D0000000 		.4byte	.LFE104-.LFB104
 17220 0160 00000000 		.4byte	.LFB105
 17221 0164 1C010000 		.4byte	.LFE105-.LFB105
 17222 0168 00000000 		.4byte	.LFB106
 17223 016c 1A000000 		.4byte	.LFE106-.LFB106
 17224 0170 00000000 		.4byte	.LFB107
 17225 0174 2C000000 		.4byte	.LFE107-.LFB107
 17226 0178 00000000 		.4byte	.LFB108
 17227 017c AC000000 		.4byte	.LFE108-.LFB108
 17228 0180 00000000 		.4byte	.LFB109
ARM GAS  C:\Users\FRANKL~1\AppData\Local\Temp\ccLkvCvD.s 			page 340


 17229 0184 84000000 		.4byte	.LFE109-.LFB109
 17230 0188 00000000 		.4byte	.LFB110
 17231 018c 98000000 		.4byte	.LFE110-.LFB110
 17232 0190 00000000 		.4byte	.LFB111
 17233 0194 90000000 		.4byte	.LFE111-.LFB111
 17234 0198 00000000 		.4byte	.LFB112
 17235 019c A4000000 		.4byte	.LFE112-.LFB112
 17236 01a0 00000000 		.4byte	.LFB114
 17237 01a4 E4080000 		.4byte	.LFE114-.LFB114
 17238 01a8 00000000 		.4byte	0
 17239 01ac 00000000 		.4byte	0
 17240              		.section	.debug_ranges,"",%progbits
 17241              	.Ldebug_ranges0:
 17242 0000 08000000 		.4byte	.LBB6
 17243 0004 16000000 		.4byte	.LBE6
 17244 0008 1E000000 		.4byte	.LBB7
 17245 000c 22000000 		.4byte	.LBE7
 17246 0010 00000000 		.4byte	0
 17247 0014 00000000 		.4byte	0
 17248 0018 06000000 		.4byte	.LBB17
 17249 001c 1A000000 		.4byte	.LBE17
 17250 0020 1C000000 		.4byte	.LBB18
 17251 0024 20000000 		.4byte	.LBE18
 17252 0028 00000000 		.4byte	0
 17253 002c 00000000 		.4byte	0
 17254 0030 0C000000 		.4byte	.LBB21
 17255 0034 0E000000 		.4byte	.LBE21
 17256 0038 14000000 		.4byte	.LBB23
 17257 003c A6000000 		.4byte	.LBE23
 17258 0040 00000000 		.4byte	0
 17259 0044 00000000 		.4byte	0
 17260 0048 0C000000 		.4byte	.LBB24
 17261 004c 0E000000 		.4byte	.LBE24
 17262 0050 14000000 		.4byte	.LBB26
 17263 0054 A6000000 		.4byte	.LBE26
 17264 0058 00000000 		.4byte	0
 17265 005c 00000000 		.4byte	0
 17266 0060 0C000000 		.4byte	.LBB27
 17267 0064 0E000000 		.4byte	.LBE27
 17268 0068 14000000 		.4byte	.LBB29
 17269 006c A6000000 		.4byte	.LBE29
 17270 0070 00000000 		.4byte	0
 17271 0074 00000000 		.4byte	0
 17272 0078 48000000 		.4byte	.LBB30
 17273 007c 4A000000 		.4byte	.LBE30
 17274 0080 50000000 		.4byte	.LBB31
 17275 0084 14010000 		.4byte	.LBE31
 17276 0088 00000000 		.4byte	0
 17277 008c 00000000 		.4byte	0
 17278 0090 2E000000 		.4byte	.LBB35
 17279 0094 40000000 		.4byte	.LBE35
 17280 0098 42000000 		.4byte	.LBB36
 17281 009c 46000000 		.4byte	.LBE36
 17282 00a0 00000000 		.4byte	0
 17283 00a4 00000000 		.4byte	0
 17284 00a8 2E000000 		.4byte	.LBB38
 17285 00ac 40000000 		.4byte	.LBE38
ARM GAS  C:\Users\FRANKL~1\AppData\Local\Temp\ccLkvCvD.s 			page 341


 17286 00b0 42000000 		.4byte	.LBB39
 17287 00b4 46000000 		.4byte	.LBE39
 17288 00b8 00000000 		.4byte	0
 17289 00bc 00000000 		.4byte	0
 17290 00c0 1A000000 		.4byte	.LBB45
 17291 00c4 20000000 		.4byte	.LBE45
 17292 00c8 28000000 		.4byte	.LBB52
 17293 00cc A0000000 		.4byte	.LBE52
 17294 00d0 00000000 		.4byte	0
 17295 00d4 00000000 		.4byte	0
 17296 00d8 1A000000 		.4byte	.LBB46
 17297 00dc 20000000 		.4byte	.LBE46
 17298 00e0 28000000 		.4byte	.LBB51
 17299 00e4 94000000 		.4byte	.LBE51
 17300 00e8 00000000 		.4byte	0
 17301 00ec 00000000 		.4byte	0
 17302 00f0 1A000000 		.4byte	.LBB47
 17303 00f4 20000000 		.4byte	.LBE47
 17304 00f8 4E000000 		.4byte	.LBB50
 17305 00fc 94000000 		.4byte	.LBE50
 17306 0100 00000000 		.4byte	0
 17307 0104 00000000 		.4byte	0
 17308 0108 50000000 		.4byte	.LBB48
 17309 010c 86000000 		.4byte	.LBE48
 17310 0110 88000000 		.4byte	.LBB49
 17311 0114 8C000000 		.4byte	.LBE49
 17312 0118 00000000 		.4byte	0
 17313 011c 00000000 		.4byte	0
 17314 0120 2A000000 		.4byte	.LBB56
 17315 0124 60000000 		.4byte	.LBE56
 17316 0128 62000000 		.4byte	.LBB57
 17317 012c 66000000 		.4byte	.LBE57
 17318 0130 00000000 		.4byte	0
 17319 0134 00000000 		.4byte	0
 17320 0138 00000000 		.4byte	.LFB64
 17321 013c 18000000 		.4byte	.LFE64
 17322 0140 00000000 		.4byte	.LFB65
 17323 0144 1E000000 		.4byte	.LFE65
 17324 0148 00000000 		.4byte	.LFB113
 17325 014c B0010000 		.4byte	.LFE113
 17326 0150 00000000 		.4byte	.LFB66
 17327 0154 50000000 		.4byte	.LFE66
 17328 0158 00000000 		.4byte	.LFB67
 17329 015c 24000000 		.4byte	.LFE67
 17330 0160 00000000 		.4byte	.LFB68
 17331 0164 16000000 		.4byte	.LFE68
 17332 0168 00000000 		.4byte	.LFB69
 17333 016c 58000000 		.4byte	.LFE69
 17334 0170 00000000 		.4byte	.LFB70
 17335 0174 32000000 		.4byte	.LFE70
 17336 0178 00000000 		.4byte	.LFB71
 17337 017c 90010000 		.4byte	.LFE71
 17338 0180 00000000 		.4byte	.LFB72
 17339 0184 3C000000 		.4byte	.LFE72
 17340 0188 00000000 		.4byte	.LFB73
 17341 018c 2C000000 		.4byte	.LFE73
 17342 0190 00000000 		.4byte	.LFB74
ARM GAS  C:\Users\FRANKL~1\AppData\Local\Temp\ccLkvCvD.s 			page 342


 17343 0194 32000000 		.4byte	.LFE74
 17344 0198 00000000 		.4byte	.LFB75
 17345 019c 40000000 		.4byte	.LFE75
 17346 01a0 00000000 		.4byte	.LFB76
 17347 01a4 40000000 		.4byte	.LFE76
 17348 01a8 00000000 		.4byte	.LFB77
 17349 01ac 34000000 		.4byte	.LFE77
 17350 01b0 00000000 		.4byte	.LFB78
 17351 01b4 2C000000 		.4byte	.LFE78
 17352 01b8 00000000 		.4byte	.LFB79
 17353 01bc 38000000 		.4byte	.LFE79
 17354 01c0 00000000 		.4byte	.LFB80
 17355 01c4 16000000 		.4byte	.LFE80
 17356 01c8 00000000 		.4byte	.LFB81
 17357 01cc 18000000 		.4byte	.LFE81
 17358 01d0 00000000 		.4byte	.LFB82
 17359 01d4 18000000 		.4byte	.LFE82
 17360 01d8 00000000 		.4byte	.LFB83
 17361 01dc 14000000 		.4byte	.LFE83
 17362 01e0 00000000 		.4byte	.LFB84
 17363 01e4 B6000000 		.4byte	.LFE84
 17364 01e8 00000000 		.4byte	.LFB85
 17365 01ec 54000000 		.4byte	.LFE85
 17366 01f0 00000000 		.4byte	.LFB86
 17367 01f4 B6000000 		.4byte	.LFE86
 17368 01f8 00000000 		.4byte	.LFB87
 17369 01fc B6000000 		.4byte	.LFE87
 17370 0200 00000000 		.4byte	.LFB88
 17371 0204 48010000 		.4byte	.LFE88
 17372 0208 00000000 		.4byte	.LFB89
 17373 020c 54000000 		.4byte	.LFE89
 17374 0210 00000000 		.4byte	.LFB90
 17375 0214 68000000 		.4byte	.LFE90
 17376 0218 00000000 		.4byte	.LFB91
 17377 021c 30000000 		.4byte	.LFE91
 17378 0220 00000000 		.4byte	.LFB92
 17379 0224 48000000 		.4byte	.LFE92
 17380 0228 00000000 		.4byte	.LFB93
 17381 022c 48000000 		.4byte	.LFE93
 17382 0230 00000000 		.4byte	.LFB94
 17383 0234 74000000 		.4byte	.LFE94
 17384 0238 00000000 		.4byte	.LFB95
 17385 023c 74000000 		.4byte	.LFE95
 17386 0240 00000000 		.4byte	.LFB96
 17387 0244 84000000 		.4byte	.LFE96
 17388 0248 00000000 		.4byte	.LFB97
 17389 024c C8000000 		.4byte	.LFE97
 17390 0250 00000000 		.4byte	.LFB98
 17391 0254 C8000000 		.4byte	.LFE98
 17392 0258 00000000 		.4byte	.LFB99
 17393 025c 38000000 		.4byte	.LFE99
 17394 0260 00000000 		.4byte	.LFB100
 17395 0264 38000000 		.4byte	.LFE100
 17396 0268 00000000 		.4byte	.LFB101
 17397 026c 14000000 		.4byte	.LFE101
 17398 0270 00000000 		.4byte	.LFB102
 17399 0274 14000000 		.4byte	.LFE102
ARM GAS  C:\Users\FRANKL~1\AppData\Local\Temp\ccLkvCvD.s 			page 343


 17400 0278 00000000 		.4byte	.LFB103
 17401 027c 1C000000 		.4byte	.LFE103
 17402 0280 00000000 		.4byte	.LFB104
 17403 0284 D0000000 		.4byte	.LFE104
 17404 0288 00000000 		.4byte	.LFB105
 17405 028c 1C010000 		.4byte	.LFE105
 17406 0290 00000000 		.4byte	.LFB106
 17407 0294 1A000000 		.4byte	.LFE106
 17408 0298 00000000 		.4byte	.LFB107
 17409 029c 2C000000 		.4byte	.LFE107
 17410 02a0 00000000 		.4byte	.LFB108
 17411 02a4 AC000000 		.4byte	.LFE108
 17412 02a8 00000000 		.4byte	.LFB109
 17413 02ac 84000000 		.4byte	.LFE109
 17414 02b0 00000000 		.4byte	.LFB110
 17415 02b4 98000000 		.4byte	.LFE110
 17416 02b8 00000000 		.4byte	.LFB111
 17417 02bc 90000000 		.4byte	.LFE111
 17418 02c0 00000000 		.4byte	.LFB112
 17419 02c4 A4000000 		.4byte	.LFE112
 17420 02c8 00000000 		.4byte	.LFB114
 17421 02cc E4080000 		.4byte	.LFE114
 17422 02d0 00000000 		.4byte	0
 17423 02d4 00000000 		.4byte	0
 17424              		.section	.debug_line,"",%progbits
 17425              	.Ldebug_line0:
 17426 0000 4B0E0000 		.section	.debug_str,"MS",%progbits,1
 17426      0200D302 
 17426      00000201 
 17426      FB0E0D00 
 17426      01010101 
 17427              	.LASF58:
 17428 0000 696E7465 		.ascii	"intermediate\000"
 17428      726D6564 
 17428      69617465 
 17428      00
 17429              	.LASF12:
 17430 000d 73697A65 		.ascii	"sizetype\000"
 17430      74797065 
 17430      00
 17431              	.LASF139:
 17432 0016 53415232 		.ascii	"SAR2_SD\000"
 17432      5F534400 
 17433              	.LASF116:
 17434 001e 6162736F 		.ascii	"absolute\000"
 17434      6C757465 
 17434      00
 17435              	.LASF68:
 17436 0027 5449415F 		.ascii	"TIA_Set_Resistor\000"
 17436      5365745F 
 17436      52657369 
 17436      73746F72 
 17436      00
 17437              	.LASF79:
 17438 0038 4144435F 		.ascii	"ADC_Adjust_Range\000"
 17438      41646A75 
 17438      73745F52 
ARM GAS  C:\Users\FRANKL~1\AppData\Local\Temp\ccLkvCvD.s 			page 344


 17438      616E6765 
 17438      00
 17439              	.LASF219:
 17440 0049 4144435F 		.ascii	"ADC_DelSig_1_StartConvert\000"
 17440      44656C53 
 17440      69675F31 
 17440      5F537461 
 17440      7274436F 
 17441              	.LASF38:
 17442 0063 74726965 		.ascii	"tries\000"
 17442      7300
 17443              	.LASF15:
 17444 0069 696E7433 		.ascii	"int32_t\000"
 17444      325F7400 
 17445              	.LASF252:
 17446 0071 5449415F 		.ascii	"TIA_resistor\000"
 17446      72657369 
 17446      73746F72 
 17446      00
 17447              	.LASF105:
 17448 007e 4765745F 		.ascii	"Get_Ref\000"
 17448      52656600 
 17449              	.LASF18:
 17450 0086 75696E74 		.ascii	"uint32\000"
 17450      333200
 17451              	.LASF25:
 17452 008d 77726974 		.ascii	"write\000"
 17452      6500
 17453              	.LASF100:
 17454 0093 63757272 		.ascii	"currentSD\000"
 17454      656E7453 
 17454      4400
 17455              	.LASF66:
 17456 009d 436F6E6E 		.ascii	"Connect_Intermediate\000"
 17456      6563745F 
 17456      496E7465 
 17456      726D6564 
 17456      69617465 
 17457              	.LASF81:
 17458 00b2 4144435F 		.ascii	"ADC_Voltage_SD\000"
 17458      566F6C74 
 17458      6167655F 
 17458      534400
 17459              	.LASF147:
 17460 00c1 64697265 		.ascii	"direction\000"
 17460      6374696F 
 17460      6E00
 17461              	.LASF115:
 17462 00cb 5365745F 		.ascii	"Set_Vds_Rel\000"
 17462      5664735F 
 17462      52656C00 
 17463              	.LASF144:
 17464 00d7 56677369 		.ascii	"Vgsi\000"
 17464      00
 17465              	.LASF73:
 17466 00dc 61766572 		.ascii	"average\000"
 17466      61676500 
ARM GAS  C:\Users\FRANKL~1\AppData\Local\Temp\ccLkvCvD.s 			page 345


 17467              	.LASF44:
 17468 00e4 55534255 		.ascii	"USBUARTH_Send\000"
 17468      41525448 
 17468      5F53656E 
 17468      6400
 17469              	.LASF191:
 17470 00f2 5449415F 		.ascii	"TIA_Resistor_Values\000"
 17470      52657369 
 17470      73746F72 
 17470      5F56616C 
 17470      75657300 
 17471              	.LASF214:
 17472 0106 4932435F 		.ascii	"I2C_1_Start\000"
 17472      315F5374 
 17472      61727400 
 17473              	.LASF187:
 17474 0112 55534255 		.ascii	"USBUART_Receive_Buffer\000"
 17474      4152545F 
 17474      52656365 
 17474      6976655F 
 17474      42756666 
 17475              	.LASF183:
 17476 0129 475F4272 		.ascii	"G_Break\000"
 17476      65616B00 
 17477              	.LASF160:
 17478 0131 67617465 		.ascii	"gateIndex\000"
 17478      496E6465 
 17478      7800
 17479              	.LASF111:
 17480 013b 5365745F 		.ascii	"Set_Vgs_Raw\000"
 17480      5667735F 
 17480      52617700 
 17481              	.LASF96:
 17482 0147 5449415F 		.ascii	"TIA_Feedback_R\000"
 17482      46656564 
 17482      6261636B 
 17482      5F5200
 17483              	.LASF19:
 17484 0156 696E7438 		.ascii	"int8\000"
 17484      00
 17485              	.LASF196:
 17486 015b 43757272 		.ascii	"Current_Measurement_Sample_Count\000"
 17486      656E745F 
 17486      4D656173 
 17486      7572656D 
 17486      656E745F 
 17487              	.LASF213:
 17488 017c 4932435F 		.ascii	"I2C_1_Stop\000"
 17488      315F5374 
 17488      6F7000
 17489              	.LASF85:
 17490 0187 53415231 		.ascii	"SAR1_Result_Current\000"
 17490      5F526573 
 17490      756C745F 
 17490      43757272 
 17490      656E7400 
 17491              	.LASF64:
ARM GAS  C:\Users\FRANKL~1\AppData\Local\Temp\ccLkvCvD.s 			page 346


 17492 019b 44697363 		.ascii	"Disconnect_All_Contacts_From_All_Intermediates\000"
 17492      6F6E6E65 
 17492      63745F41 
 17492      6C6C5F43 
 17492      6F6E7461 
 17493              	.LASF102:
 17494 01ca 69737461 		.ascii	"istart\000"
 17494      727400
 17495              	.LASF72:
 17496 01d1 4144435F 		.ascii	"ADC_Measure_uV\000"
 17496      4D656173 
 17496      7572655F 
 17496      755600
 17497              	.LASF95:
 17498 01e0 63757272 		.ascii	"currentStdDev\000"
 17498      656E7453 
 17498      74644465 
 17498      7600
 17499              	.LASF126:
 17500 01ee 5365745F 		.ascii	"Set_Vds_mV\000"
 17500      5664735F 
 17500      6D5600
 17501              	.LASF106:
 17502 01f9 72657375 		.ascii	"result\000"
 17502      6C7400
 17503              	.LASF247:
 17504 0200 436F6D6D 		.ascii	"CommunicationInterrupt_StartEx\000"
 17504      756E6963 
 17504      6174696F 
 17504      6E496E74 
 17504      65727275 
 17505              	.LASF9:
 17506 021f 6C6F6E67 		.ascii	"long int\000"
 17506      20696E74 
 17506      00
 17507              	.LASF156:
 17508 0228 72656641 		.ascii	"refArrived\000"
 17508      72726976 
 17508      656400
 17509              	.LASF237:
 17510 0233 55415254 		.ascii	"UART_1_Start\000"
 17510      5F315F53 
 17510      74617274 
 17510      00
 17511              	.LASF88:
 17512 0240 4D656173 		.ascii	"Measure_Current_Vss\000"
 17512      7572655F 
 17512      43757272 
 17512      656E745F 
 17512      56737300 
 17513              	.LASF254:
 17514 0254 73747263 		.ascii	"strchr\000"
 17514      687200
 17515              	.LASF28:
 17516 025b 5232304B 		.ascii	"R20K\000"
 17516      00
 17517              	.LASF253:
ARM GAS  C:\Users\FRANKL~1\AppData\Local\Temp\ccLkvCvD.s 			page 347


 17518 0260 6D61696E 		.ascii	"main\000"
 17518      00
 17519              	.LASF231:
 17520 0265 56444143 		.ascii	"VDAC_Vds_SetValue\000"
 17520      5F566473 
 17520      5F536574 
 17520      56616C75 
 17520      6500
 17521              	.LASF8:
 17522 0277 73686F72 		.ascii	"short unsigned int\000"
 17522      7420756E 
 17522      7369676E 
 17522      65642069 
 17522      6E7400
 17523              	.LASF162:
 17524 028a 5363616E 		.ascii	"Scan\000"
 17524      00
 17525              	.LASF248:
 17526 028f 474E5520 		.ascii	"GNU C11 5.4.1 20160609 (release) [ARM/embedded-5-br"
 17526      43313120 
 17526      352E342E 
 17526      31203230 
 17526      31363036 
 17527 02c2 616E6368 		.ascii	"anch revision 237715] -mcpu=cortex-m3 -mthumb -g -O"
 17527      20726576 
 17527      6973696F 
 17527      6E203233 
 17527      37373135 
 17528 02f5 67202D66 		.ascii	"g -ffunction-sections -ffat-lto-objects\000"
 17528      66756E63 
 17528      74696F6E 
 17528      2D736563 
 17528      74696F6E 
 17529              	.LASF55:
 17530 031d 53657475 		.ascii	"Setup_Selectors\000"
 17530      705F5365 
 17530      6C656374 
 17530      6F727300 
 17531              	.LASF35:
 17532 032d 52313030 		.ascii	"R1000K\000"
 17532      304B00
 17533              	.LASF225:
 17534 0334 4144435F 		.ascii	"ADC_SAR_1_GetResult16\000"
 17534      5341525F 
 17534      315F4765 
 17534      74526573 
 17534      756C7431 
 17535              	.LASF50:
 17536 034a 53657475 		.ascii	"Setup_Selector_I2C_Struct\000"
 17536      705F5365 
 17536      6C656374 
 17536      6F725F49 
 17536      32435F53 
 17537              	.LASF5:
 17538 0364 7369676E 		.ascii	"signed char\000"
 17538      65642063 
 17538      68617200 
ARM GAS  C:\Users\FRANKL~1\AppData\Local\Temp\ccLkvCvD.s 			page 348


 17539              	.LASF251:
 17540 0370 53656C65 		.ascii	"Selector_I2C_Struct\000"
 17540      63746F72 
 17540      5F493243 
 17540      5F537472 
 17540      75637400 
 17541              	.LASF223:
 17542 0384 4144435F 		.ascii	"ADC_SAR_1_StartConvert\000"
 17542      5341525F 
 17542      315F5374 
 17542      61727443 
 17542      6F6E7665 
 17543              	.LASF6:
 17544 039b 756E7369 		.ascii	"unsigned char\000"
 17544      676E6564 
 17544      20636861 
 17544      7200
 17545              	.LASF104:
 17546 03a9 696E6372 		.ascii	"increment\000"
 17546      656D656E 
 17546      7400
 17547              	.LASF129:
 17548 03b3 63757272 		.ascii	"current_range_resistor\000"
 17548      656E745F 
 17548      72616E67 
 17548      655F7265 
 17548      73697374 
 17549              	.LASF46:
 17550 03ca 55534255 		.ascii	"USBUARTH_GetChar\000"
 17550      41525448 
 17550      5F476574 
 17550      43686172 
 17550      00
 17551              	.LASF136:
 17552 03db 53415231 		.ascii	"SAR1_Average\000"
 17552      5F417665 
 17552      72616765 
 17552      00
 17553              	.LASF176:
 17554 03e8 5667735F 		.ascii	"Vgs_mV\000"
 17554      6D5600
 17555              	.LASF122:
 17556 03ef 5365745F 		.ascii	"Set_Vgs_Rel\000"
 17556      5667735F 
 17556      52656C00 
 17557              	.LASF110:
 17558 03fb 76616C75 		.ascii	"value\000"
 17558      6500
 17559              	.LASF13:
 17560 0401 63686172 		.ascii	"char\000"
 17560      00
 17561              	.LASF211:
 17562 0406 4932435F 		.ascii	"I2C_1_MasterStatus\000"
 17562      315F4D61 
 17562      73746572 
 17562      53746174 
 17562      757300
ARM GAS  C:\Users\FRANKL~1\AppData\Local\Temp\ccLkvCvD.s 			page 349


 17563              	.LASF114:
 17564 0419 6E65775F 		.ascii	"new_Vds\000"
 17564      56647300 
 17565              	.LASF78:
 17566 0421 4144435F 		.ascii	"ADC_Result_Current\000"
 17566      52657375 
 17566      6C745F43 
 17566      75727265 
 17566      6E7400
 17567              	.LASF133:
 17568 0434 53415232 		.ascii	"SAR2_SampleCount\000"
 17568      5F53616D 
 17568      706C6543 
 17568      6F756E74 
 17568      00
 17569              	.LASF97:
 17570 0445 756E6974 		.ascii	"unitConversion\000"
 17570      436F6E76 
 17570      65727369 
 17570      6F6E00
 17571              	.LASF32:
 17572 0454 52313230 		.ascii	"R120K\000"
 17572      4B00
 17573              	.LASF230:
 17574 045a 4144435F 		.ascii	"ADC_SAR_2_CountsTo_uVolts\000"
 17574      5341525F 
 17574      325F436F 
 17574      756E7473 
 17574      546F5F75 
 17575              	.LASF143:
 17576 0474 4D656173 		.ascii	"Measure_Sweep\000"
 17576      7572655F 
 17576      53776565 
 17576      7000
 17577              	.LASF155:
 17578 0482 72656649 		.ascii	"refIndex\000"
 17578      6E646578 
 17578      00
 17579              	.LASF207:
 17580 048b 55534255 		.ascii	"USBUART_CDCIsReady\000"
 17580      4152545F 
 17580      43444349 
 17580      73526561 
 17580      647900
 17581              	.LASF134:
 17582 049e 5449415F 		.ascii	"TIA_Offset_uV\000"
 17582      4F666673 
 17582      65745F75 
 17582      5600
 17583              	.LASF127:
 17584 04ac 5A65726F 		.ascii	"Zero_All_DACs\000"
 17584      5F416C6C 
 17584      5F444143 
 17584      7300
 17585              	.LASF226:
 17586 04ba 4144435F 		.ascii	"ADC_SAR_1_CountsTo_uVolts\000"
 17586      5341525F 
ARM GAS  C:\Users\FRANKL~1\AppData\Local\Temp\ccLkvCvD.s 			page 350


 17586      315F436F 
 17586      756E7473 
 17586      546F5F75 
 17587              	.LASF42:
 17588 04d4 62756666 		.ascii	"buffer\000"
 17588      657200
 17589              	.LASF89:
 17590 04db 63757272 		.ascii	"currentAverageIn\000"
 17590      656E7441 
 17590      76657261 
 17590      6765496E 
 17590      00
 17591              	.LASF39:
 17592 04ec 74656D70 		.ascii	"temp_buffer\000"
 17592      5F627566 
 17592      66657200 
 17593              	.LASF29:
 17594 04f8 5233304B 		.ascii	"R30K\000"
 17594      00
 17595              	.LASF222:
 17596 04fd 4144435F 		.ascii	"ADC_DelSig_1_CountsTo_uVolts\000"
 17596      44656C53 
 17596      69675F31 
 17596      5F436F75 
 17596      6E747354 
 17597              	.LASF77:
 17598 051a 4144435F 		.ascii	"ADC_SD\000"
 17598      534400
 17599              	.LASF181:
 17600 0521 6E657744 		.ascii	"newData\000"
 17600      61746100 
 17601              	.LASF113:
 17602 0529 6E65775F 		.ascii	"new_Vgs\000"
 17602      56677300 
 17603              	.LASF31:
 17604 0531 5238304B 		.ascii	"R80K\000"
 17604      00
 17605              	.LASF236:
 17606 0536 55534255 		.ascii	"USBUART_Start\000"
 17606      4152545F 
 17606      53746172 
 17606      7400
 17607              	.LASF83:
 17608 0544 5341525F 		.ascii	"SAR_Result\000"
 17608      52657375 
 17608      6C7400
 17609              	.LASF112:
 17610 054f 5365745F 		.ascii	"Set_Ref_Raw\000"
 17610      5265665F 
 17610      52617700 
 17611              	.LASF48:
 17612 055b 6D61784C 		.ascii	"maxLength\000"
 17612      656E6774 
 17612      6800
 17613              	.LASF201:
 17614 0565 55534255 		.ascii	"USBUART_GetAll\000"
 17614      4152545F 
ARM GAS  C:\Users\FRANKL~1\AppData\Local\Temp\ccLkvCvD.s 			page 351


 17614      47657441 
 17614      6C6C00
 17615              	.LASF33:
 17616 0574 52323530 		.ascii	"R250K\000"
 17616      4B00
 17617              	.LASF189:
 17618 057a 5449415F 		.ascii	"TIA_Selected_Resistor\000"
 17618      53656C65 
 17618      63746564 
 17618      5F526573 
 17618      6973746F 
 17619              	.LASF10:
 17620 0590 6C6F6E67 		.ascii	"long unsigned int\000"
 17620      20756E73 
 17620      69676E65 
 17620      6420696E 
 17620      7400
 17621              	.LASF119:
 17622 05a2 5667735F 		.ascii	"Vgs_minRefRaw\000"
 17622      6D696E52 
 17622      65665261 
 17622      7700
 17623              	.LASF91:
 17624 05b0 766F6C74 		.ascii	"voltage\000"
 17624      61676500 
 17625              	.LASF57:
 17626 05b8 6368616E 		.ascii	"channel\000"
 17626      6E656C00 
 17627              	.LASF232:
 17628 05c0 56444143 		.ascii	"VDAC_Vgs_SetValue\000"
 17628      5F566773 
 17628      5F536574 
 17628      56616C75 
 17628      6500
 17629              	.LASF92:
 17630 05d2 766F6C74 		.ascii	"voltageSD\000"
 17630      61676553 
 17630      4400
 17631              	.LASF84:
 17632 05dc 5341525F 		.ascii	"SAR_SD\000"
 17632      534400
 17633              	.LASF80:
 17634 05e3 4144435F 		.ascii	"ADC_Voltage\000"
 17634      566F6C74 
 17634      61676500 
 17635              	.LASF117:
 17636 05ef 5664735F 		.ascii	"Vds_minRefRaw\000"
 17636      6D696E52 
 17636      65665261 
 17636      7700
 17637              	.LASF195:
 17638 05fd 5664735F 		.ascii	"Vds_Index_Goal_Relative\000"
 17638      496E6465 
 17638      785F476F 
 17638      616C5F52 
 17638      656C6174 
 17639              	.LASF215:
ARM GAS  C:\Users\FRANKL~1\AppData\Local\Temp\ccLkvCvD.s 			page 352


 17640 0615 73707269 		.ascii	"sprintf\000"
 17640      6E746600 
 17641              	.LASF103:
 17642 061d 6973746F 		.ascii	"istop\000"
 17642      7000
 17643              	.LASF138:
 17644 0623 53415232 		.ascii	"SAR2_Average\000"
 17644      5F417665 
 17644      72616765 
 17644      00
 17645              	.LASF94:
 17646 0630 63757272 		.ascii	"currentAverage\000"
 17646      656E7441 
 17646      76657261 
 17646      676500
 17647              	.LASF145:
 17648 063f 4D656173 		.ascii	"Measure_Gate_Sweep\000"
 17648      7572655F 
 17648      47617465 
 17648      5F537765 
 17648      657000
 17649              	.LASF172:
 17650 0652 6C6F6361 		.ascii	"location\000"
 17650      74696F6E 
 17650      00
 17651              	.LASF71:
 17652 065b 4144435F 		.ascii	"ADC_Decrease_Range\000"
 17652      44656372 
 17652      65617365 
 17652      5F52616E 
 17652      676500
 17653              	.LASF221:
 17654 066e 4144435F 		.ascii	"ADC_DelSig_1_GetResult32\000"
 17654      44656C53 
 17654      69675F31 
 17654      5F476574 
 17654      52657375 
 17655              	.LASF67:
 17656 0687 436F6E6E 		.ascii	"Connect_Intermediates\000"
 17656      6563745F 
 17656      496E7465 
 17656      726D6564 
 17656      69617465 
 17657              	.LASF157:
 17658 069d 67617465 		.ascii	"gateIncrement\000"
 17658      496E6372 
 17658      656D656E 
 17658      7400
 17659              	.LASF3:
 17660 06ab 6C6F6E67 		.ascii	"long long int\000"
 17660      206C6F6E 
 17660      6720696E 
 17660      7400
 17661              	.LASF23:
 17662 06b9 73756241 		.ascii	"subAddress\000"
 17662      64647265 
 17662      737300
ARM GAS  C:\Users\FRANKL~1\AppData\Local\Temp\ccLkvCvD.s 			page 353


 17663              	.LASF1:
 17664 06c4 646F7562 		.ascii	"double\000"
 17664      6C6500
 17665              	.LASF249:
 17666 06cb 6D61696E 		.ascii	"main.c\000"
 17666      2E6300
 17667              	.LASF86:
 17668 06d2 53415232 		.ascii	"SAR2_Measure_V\000"
 17668      5F4D6561 
 17668      73757265 
 17668      5F5600
 17669              	.LASF235:
 17670 06e1 73736361 		.ascii	"sscanf\000"
 17670      6E6600
 17671              	.LASF240:
 17672 06e8 56444143 		.ascii	"VDAC_Ref_Start\000"
 17672      5F526566 
 17672      5F537461 
 17672      727400
 17673              	.LASF36:
 17674 06f7 55534255 		.ascii	"USBUARTH_DataIsReady\000"
 17674      41525448 
 17674      5F446174 
 17674      61497352 
 17674      65616479 
 17675              	.LASF49:
 17676 070c 7465726D 		.ascii	"termination\000"
 17676      696E6174 
 17676      696F6E00 
 17677              	.LASF228:
 17678 0718 4144435F 		.ascii	"ADC_SAR_2_IsEndConversion\000"
 17678      5341525F 
 17678      325F4973 
 17678      456E6443 
 17678      6F6E7665 
 17679              	.LASF118:
 17680 0732 5664735F 		.ascii	"Vds_maxRefRaw\000"
 17680      6D617852 
 17680      65665261 
 17680      7700
 17681              	.LASF178:
 17682 0740 49544D5F 		.ascii	"ITM_RxBuffer\000"
 17682      52784275 
 17682      66666572 
 17682      00
 17683              	.LASF53:
 17684 074d 73656C65 		.ascii	"selectori\000"
 17684      63746F72 
 17684      6900
 17685              	.LASF193:
 17686 0757 436F6D70 		.ascii	"Compliance_Reached\000"
 17686      6C69616E 
 17686      63655F52 
 17686      65616368 
 17686      656400
 17687              	.LASF75:
 17688 076a 73616D70 		.ascii	"sampleCount\000"
ARM GAS  C:\Users\FRANKL~1\AppData\Local\Temp\ccLkvCvD.s 			page 354


 17688      6C65436F 
 17688      756E7400 
 17689              	.LASF179:
 17690 0776 73656C65 		.ascii	"selectors\000"
 17690      63746F72 
 17690      7300
 17691              	.LASF43:
 17692 0780 636F756E 		.ascii	"count\000"
 17692      7400
 17693              	.LASF26:
 17694 0786 72656164 		.ascii	"read\000"
 17694      00
 17695              	.LASF101:
 17696 078b 48616E64 		.ascii	"Handle_Compliance_Breach\000"
 17696      6C655F43 
 17696      6F6D706C 
 17696      69616E63 
 17696      655F4272 
 17697              	.LASF243:
 17698 07a4 4144435F 		.ascii	"ADC_SAR_1_Start\000"
 17698      5341525F 
 17698      315F5374 
 17698      61727400 
 17699              	.LASF2:
 17700 07b4 756E7369 		.ascii	"unsigned int\000"
 17700      676E6564 
 17700      20696E74 
 17700      00
 17701              	.LASF150:
 17702 07c1 4D656173 		.ascii	"Measure_Gate_Sweep_New\000"
 17702      7572655F 
 17702      47617465 
 17702      5F537765 
 17702      65705F4E 
 17703              	.LASF224:
 17704 07d8 4144435F 		.ascii	"ADC_SAR_1_IsEndConversion\000"
 17704      5341525F 
 17704      315F4973 
 17704      456E6443 
 17704      6F6E7665 
 17705              	.LASF54:
 17706 07f2 55534255 		.ascii	"USBUARTH_Maintain_Configuration\000"
 17706      41525448 
 17706      5F4D6169 
 17706      6E746169 
 17706      6E5F436F 
 17707              	.LASF30:
 17708 0812 5234304B 		.ascii	"R40K\000"
 17708      00
 17709              	.LASF63:
 17710 0817 44697363 		.ascii	"Disconnect_Contact_From_All_Intermediates\000"
 17710      6F6E6E65 
 17710      63745F43 
 17710      6F6E7461 
 17710      63745F46 
 17711              	.LASF173:
 17712 0841 76677369 		.ascii	"vgsi\000"
ARM GAS  C:\Users\FRANKL~1\AppData\Local\Temp\ccLkvCvD.s 			page 355


 17712      00
 17713              	.LASF90:
 17714 0846 63757272 		.ascii	"currentStdDevIn\000"
 17714      656E7453 
 17714      74644465 
 17714      76496E00 
 17715              	.LASF220:
 17716 0856 4144435F 		.ascii	"ADC_DelSig_1_IsEndConversion\000"
 17716      44656C53 
 17716      69675F31 
 17716      5F497345 
 17716      6E64436F 
 17717              	.LASF246:
 17718 0873 436F6D6D 		.ascii	"CommunicationTimer_Start\000"
 17718      756E6963 
 17718      6174696F 
 17718      6E54696D 
 17718      65725F53 
 17719              	.LASF206:
 17720 088c 436F6D6D 		.ascii	"CommunicationTimer_ReadStatusRegister\000"
 17720      756E6963 
 17720      6174696F 
 17720      6E54696D 
 17720      65725F52 
 17721              	.LASF93:
 17722 08b2 63757272 		.ascii	"currentNow\000"
 17722      656E744E 
 17722      6F7700
 17723              	.LASF99:
 17724 08bd 63757272 		.ascii	"current\000"
 17724      656E7400 
 17725              	.LASF74:
 17726 08c5 7374616E 		.ascii	"standardDeviation\000"
 17726      64617264 
 17726      44657669 
 17726      6174696F 
 17726      6E00
 17727              	.LASF47:
 17728 08d7 55534255 		.ascii	"USBUARTH_Receive_Until\000"
 17728      41525448 
 17728      5F526563 
 17728      65697665 
 17728      5F556E74 
 17729              	.LASF154:
 17730 08ee 656E6452 		.ascii	"endRefIndex\000"
 17730      6566496E 
 17730      64657800 
 17731              	.LASF61:
 17732 08fa 6F666673 		.ascii	"offset\000"
 17732      657400
 17733              	.LASF242:
 17734 0901 5449415F 		.ascii	"TIA_1_Start\000"
 17734      315F5374 
 17734      61727400 
 17735              	.LASF244:
 17736 090d 4144435F 		.ascii	"ADC_SAR_2_Start\000"
 17736      5341525F 
ARM GAS  C:\Users\FRANKL~1\AppData\Local\Temp\ccLkvCvD.s 			page 356


 17736      325F5374 
 17736      61727400 
 17737              	.LASF65:
 17738 091d 44697363 		.ascii	"Disconnect_All_Contacts_From_Intermediate\000"
 17738      6F6E6E65 
 17738      63745F41 
 17738      6C6C5F43 
 17738      6F6E7461 
 17739              	.LASF229:
 17740 0947 4144435F 		.ascii	"ADC_SAR_2_GetResult16\000"
 17740      5341525F 
 17740      325F4765 
 17740      74526573 
 17740      756C7431 
 17741              	.LASF190:
 17742 095d 5449415F 		.ascii	"TIA_Resistor_Codes\000"
 17742      52657369 
 17742      73746F72 
 17742      5F436F64 
 17742      657300
 17743              	.LASF208:
 17744 0970 55534255 		.ascii	"USBUART_PutData\000"
 17744      4152545F 
 17744      50757444 
 17744      61746100 
 17745              	.LASF175:
 17746 0980 73756363 		.ascii	"success\000"
 17746      65737300 
 17747              	.LASF158:
 17748 0988 73746172 		.ascii	"startGateIndex\000"
 17748      74476174 
 17748      65496E64 
 17748      657800
 17749              	.LASF4:
 17750 0997 6C6F6E67 		.ascii	"long double\000"
 17750      20646F75 
 17750      626C6500 
 17751              	.LASF239:
 17752 09a3 56444143 		.ascii	"VDAC_Vgs_Start\000"
 17752      5F566773 
 17752      5F537461 
 17752      727400
 17753              	.LASF41:
 17754 09b2 52656365 		.ascii	"ReceiveBuffer\000"
 17754      69766542 
 17754      75666665 
 17754      7200
 17755              	.LASF212:
 17756 09c0 55415254 		.ascii	"UART_1_PutString\000"
 17756      5F315F50 
 17756      75745374 
 17756      72696E67 
 17756      00
 17757              	.LASF188:
 17758 09d1 55534255 		.ascii	"USBUART_Rx_Position\000"
 17758      4152545F 
 17758      52785F50 
ARM GAS  C:\Users\FRANKL~1\AppData\Local\Temp\ccLkvCvD.s 			page 357


 17758      6F736974 
 17758      696F6E00 
 17759              	.LASF199:
 17760 09e5 55534255 		.ascii	"USBUART_CDC_Init\000"
 17760      4152545F 
 17760      4344435F 
 17760      496E6974 
 17760      00
 17761              	.LASF125:
 17762 09f6 5365745F 		.ascii	"Set_Vgs_mV\000"
 17762      5667735F 
 17762      6D5600
 17763              	.LASF186:
 17764 0a01 55415254 		.ascii	"UART_Rx_Position\000"
 17764      5F52785F 
 17764      506F7369 
 17764      74696F6E 
 17764      00
 17765              	.LASF194:
 17766 0a12 5667735F 		.ascii	"Vgs_Index_Goal_Relative\000"
 17766      496E6465 
 17766      785F476F 
 17766      616C5F52 
 17766      656C6174 
 17767              	.LASF82:
 17768 0a2a 53415231 		.ascii	"SAR1_Measure_V\000"
 17768      5F4D6561 
 17768      73757265 
 17768      5F5600
 17769              	.LASF180:
 17770 0a39 5472616E 		.ascii	"TransmitBuffer\000"
 17770      736D6974 
 17770      42756666 
 17770      657200
 17771              	.LASF146:
 17772 0a48 6C6F6F70 		.ascii	"loop\000"
 17772      00
 17773              	.LASF164:
 17774 0a4d 64657669 		.ascii	"device\000"
 17774      636500
 17775              	.LASF62:
 17776 0a54 44697363 		.ascii	"Disconnect_Contact_From_Intermediate\000"
 17776      6F6E6E65 
 17776      63745F43 
 17776      6F6E7461 
 17776      63745F46 
 17777              	.LASF11:
 17778 0a79 6C6F6E67 		.ascii	"long long unsigned int\000"
 17778      206C6F6E 
 17778      6720756E 
 17778      7369676E 
 17778      65642069 
 17779              	.LASF185:
 17780 0a90 55415254 		.ascii	"UART_Receive_Buffer\000"
 17780      5F526563 
 17780      65697665 
 17780      5F427566 
ARM GAS  C:\Users\FRANKL~1\AppData\Local\Temp\ccLkvCvD.s 			page 358


 17780      66657200 
 17781              	.LASF192:
 17782 0aa4 5449415F 		.ascii	"TIA_Offsets_uV\000"
 17782      4F666673 
 17782      6574735F 
 17782      755600
 17783              	.LASF200:
 17784 0ab3 55534255 		.ascii	"USBUART_DataIsReady\000"
 17784      4152545F 
 17784      44617461 
 17784      49735265 
 17784      61647900 
 17785              	.LASF130:
 17786 0ac7 4D656173 		.ascii	"Measure\000"
 17786      75726500 
 17787              	.LASF177:
 17788 0acf 5664735F 		.ascii	"Vds_mV\000"
 17788      6D5600
 17789              	.LASF60:
 17790 0ad6 636F6E74 		.ascii	"contact\000"
 17790      61637400 
 17791              	.LASF171:
 17792 0ade 73746F70 		.ascii	"stopDevice\000"
 17792      44657669 
 17792      636500
 17793              	.LASF22:
 17794 0ae9 72656738 		.ascii	"reg8\000"
 17794      00
 17795              	.LASF148:
 17796 0aee 4D656173 		.ascii	"Measure_Wide_Gate_Sweep\000"
 17796      7572655F 
 17796      57696465 
 17796      5F476174 
 17796      655F5377 
 17797              	.LASF40:
 17798 0b06 74656D70 		.ascii	"temp_count\000"
 17798      5F636F75 
 17798      6E7400
 17799              	.LASF233:
 17800 0b11 56444143 		.ascii	"VDAC_Ref_SetValue\000"
 17800      5F526566 
 17800      5F536574 
 17800      56616C75 
 17800      6500
 17801              	.LASF170:
 17802 0b23 73746172 		.ascii	"startDevice\000"
 17802      74446576 
 17802      69636500 
 17803              	.LASF198:
 17804 0b2f 55534255 		.ascii	"USBUART_GetConfiguration\000"
 17804      4152545F 
 17804      47657443 
 17804      6F6E6669 
 17804      67757261 
 17805              	.LASF69:
 17806 0b48 72657369 		.ascii	"resistor\000"
 17806      73746F72 
ARM GAS  C:\Users\FRANKL~1\AppData\Local\Temp\ccLkvCvD.s 			page 359


 17806      00
 17807              	.LASF169:
 17808 0b51 5363616E 		.ascii	"Scan_Range\000"
 17808      5F52616E 
 17808      676500
 17809              	.LASF131:
 17810 0b5c 64656C74 		.ascii	"deltaSigmaSampleCount\000"
 17810      61536967 
 17810      6D615361 
 17810      6D706C65 
 17810      436F756E 
 17811              	.LASF98:
 17812 0b72 41745F43 		.ascii	"At_Compliance\000"
 17812      6F6D706C 
 17812      69616E63 
 17812      6500
 17813              	.LASF124:
 17814 0b80 5365745F 		.ascii	"Set_Vds\000"
 17814      56647300 
 17815              	.LASF76:
 17816 0b88 4144435F 		.ascii	"ADC_Result\000"
 17816      52657375 
 17816      6C7400
 17817              	.LASF37:
 17818 0b93 436F6D6D 		.ascii	"CommunicationHandlerISR\000"
 17818      756E6963 
 17818      6174696F 
 17818      6E48616E 
 17818      646C6572 
 17819              	.LASF70:
 17820 0bab 4144435F 		.ascii	"ADC_Increase_Range\000"
 17820      496E6372 
 17820      65617365 
 17820      5F52616E 
 17820      676500
 17821              	.LASF52:
 17822 0bbe 55706461 		.ascii	"Update_Selector\000"
 17822      74655F53 
 17822      656C6563 
 17822      746F7200 
 17823              	.LASF202:
 17824 0bce 73747273 		.ascii	"strstr\000"
 17824      747200
 17825              	.LASF182:
 17826 0bd5 475F5374 		.ascii	"G_Stop\000"
 17826      6F7000
 17827              	.LASF140:
 17828 0bdc 53415231 		.ascii	"SAR1\000"
 17828      00
 17829              	.LASF141:
 17830 0be1 53415232 		.ascii	"SAR2\000"
 17830      00
 17831              	.LASF250:
 17832 0be6 433A5C55 		.ascii	"C:\\Users\\FranklinLab_PC_1\\Documents\\Python Scri"
 17832      73657273 
 17832      5C467261 
 17832      6E6B6C69 
ARM GAS  C:\Users\FRANKL~1\AppData\Local\Temp\ccLkvCvD.s 			page 360


 17832      6E4C6162 
 17833 0c15 7074735C 		.ascii	"pts\\CNT_IV\\PSoC\\Layout 2_14\\Version 4_Full\\Mas"
 17833      434E545F 
 17833      49565C50 
 17833      536F435C 
 17833      4C61796F 
 17834 0c43 7465725C 		.ascii	"ter\\Master 1\\Design01.cydsn\000"
 17834      4D617374 
 17834      65722031 
 17834      5C446573 
 17834      69676E30 
 17835              	.LASF16:
 17836 0c5f 75696E74 		.ascii	"uint8\000"
 17836      3800
 17837              	.LASF216:
 17838 0c65 4932435F 		.ascii	"I2C_1_MasterClearStatus\000"
 17838      315F4D61 
 17838      73746572 
 17838      436C6561 
 17838      72537461 
 17839              	.LASF161:
 17840 0c7d 67617465 		.ascii	"gateArrived\000"
 17840      41727269 
 17840      76656400 
 17841              	.LASF184:
 17842 0c89 475F5061 		.ascii	"G_Pause\000"
 17842      75736500 
 17843              	.LASF234:
 17844 0c91 73747274 		.ascii	"strtol\000"
 17844      6F6C00
 17845              	.LASF45:
 17846 0c98 55534255 		.ascii	"USBUARTH_Receive\000"
 17846      41525448 
 17846      5F526563 
 17846      65697665 
 17846      00
 17847              	.LASF7:
 17848 0ca9 73686F72 		.ascii	"short int\000"
 17848      7420696E 
 17848      7400
 17849              	.LASF142:
 17850 0cb3 4D656173 		.ascii	"Measure_Multiple\000"
 17850      7572655F 
 17850      4D756C74 
 17850      69706C65 
 17850      00
 17851              	.LASF203:
 17852 0cc4 55415254 		.ascii	"UART_1_GetRxBufferSize\000"
 17852      5F315F47 
 17852      65745278 
 17852      42756666 
 17852      65725369 
 17853              	.LASF59:
 17854 0cdb 436F6E6E 		.ascii	"Connect_Contact_To_Intermediate\000"
 17854      6563745F 
 17854      436F6E74 
 17854      6163745F 
ARM GAS  C:\Users\FRANKL~1\AppData\Local\Temp\ccLkvCvD.s 			page 361


 17854      546F5F49 
 17855              	.LASF120:
 17856 0cfb 5667735F 		.ascii	"Vgs_maxRefRaw\000"
 17856      6D617852 
 17856      65665261 
 17856      7700
 17857              	.LASF108:
 17858 0d09 4765745F 		.ascii	"Get_Vds\000"
 17858      56647300 
 17859              	.LASF197:
 17860 0d11 55534255 		.ascii	"USBUART_IsConfigurationChanged\000"
 17860      4152545F 
 17860      4973436F 
 17860      6E666967 
 17860      75726174 
 17861              	.LASF204:
 17862 0d30 55415254 		.ascii	"UART_1_GetChar\000"
 17862      5F315F47 
 17862      65744368 
 17862      617200
 17863              	.LASF27:
 17864 0d3f 62757341 		.ascii	"busAddress\000"
 17864      64647265 
 17864      737300
 17865              	.LASF123:
 17866 0d4a 5365745F 		.ascii	"Set_Vgs\000"
 17866      56677300 
 17867              	.LASF152:
 17868 0d52 72656649 		.ascii	"refIncrement\000"
 17868      6E637265 
 17868      6D656E74 
 17868      00
 17869              	.LASF209:
 17870 0d5f 55534255 		.ascii	"USBUART_GetChar\000"
 17870      4152545F 
 17870      47657443 
 17870      68617200 
 17871              	.LASF87:
 17872 0d6f 53415232 		.ascii	"SAR2_Result_Current\000"
 17872      5F526573 
 17872      756C745F 
 17872      43757272 
 17872      656E7400 
 17873              	.LASF217:
 17874 0d83 4932435F 		.ascii	"I2C_1_MasterWriteBuf\000"
 17874      315F4D61 
 17874      73746572 
 17874      57726974 
 17874      65427566 
 17875              	.LASF151:
 17876 0d98 72656654 		.ascii	"refTurn\000"
 17876      75726E00 
 17877              	.LASF210:
 17878 0da0 7374726C 		.ascii	"strlen\000"
 17878      656E00
 17879              	.LASF165:
 17880 0da7 636F6E74 		.ascii	"contact1\000"
ARM GAS  C:\Users\FRANKL~1\AppData\Local\Temp\ccLkvCvD.s 			page 362


 17880      61637431 
 17880      00
 17881              	.LASF166:
 17882 0db0 636F6E74 		.ascii	"contact2\000"
 17882      61637432 
 17882      00
 17883              	.LASF20:
 17884 0db9 696E7431 		.ascii	"int16\000"
 17884      3600
 17885              	.LASF132:
 17886 0dbf 53415231 		.ascii	"SAR1_SampleCount\000"
 17886      5F53616D 
 17886      706C6543 
 17886      6F756E74 
 17886      00
 17887              	.LASF128:
 17888 0dd0 43616C69 		.ascii	"Calibrate_ADC_Offset\000"
 17888      62726174 
 17888      655F4144 
 17888      435F4F66 
 17888      66736574 
 17889              	.LASF121:
 17890 0de5 6E657752 		.ascii	"newRefRaw\000"
 17890      65665261 
 17890      7700
 17891              	.LASF159:
 17892 0def 656E6447 		.ascii	"endGateIndex\000"
 17892      61746549 
 17892      6E646578 
 17892      00
 17893              	.LASF205:
 17894 0dfc 436F6D6D 		.ascii	"CommunicationInterrupt_ClearPending\000"
 17894      756E6963 
 17894      6174696F 
 17894      6E496E74 
 17894      65727275 
 17895              	.LASF245:
 17896 0e20 43794465 		.ascii	"CyDelay\000"
 17896      6C617900 
 17897              	.LASF56:
 17898 0e28 436F6E6E 		.ascii	"Connect_Channel_On_Intermediate\000"
 17898      6563745F 
 17898      4368616E 
 17898      6E656C5F 
 17898      4F6E5F49 
 17899              	.LASF34:
 17900 0e48 52353030 		.ascii	"R500K\000"
 17900      4B00
 17901              	.LASF107:
 17902 0e4e 4765745F 		.ascii	"Get_Vgs\000"
 17902      56677300 
 17903              	.LASF135:
 17904 0e56 49647341 		.ascii	"IdsAverageAmps\000"
 17904      76657261 
 17904      6765416D 
 17904      707300
 17905              	.LASF0:
ARM GAS  C:\Users\FRANKL~1\AppData\Local\Temp\ccLkvCvD.s 			page 363


 17906 0e65 666C6F61 		.ascii	"float\000"
 17906      7400
 17907              	.LASF167:
 17908 0e6b 696E7465 		.ascii	"intermediate1\000"
 17908      726D6564 
 17908      69617465 
 17908      3100
 17909              	.LASF168:
 17910 0e79 696E7465 		.ascii	"intermediate2\000"
 17910      726D6564 
 17910      69617465 
 17910      3200
 17911              	.LASF21:
 17912 0e87 696E7433 		.ascii	"int32\000"
 17912      3200
 17913              	.LASF14:
 17914 0e8d 5F5F696E 		.ascii	"__int32_t\000"
 17914      7433325F 
 17914      7400
 17915              	.LASF51:
 17916 0e97 73656C65 		.ascii	"selector\000"
 17916      63746F72 
 17916      00
 17917              	.LASF109:
 17918 0ea0 5365745F 		.ascii	"Set_Vds_Raw\000"
 17918      5664735F 
 17918      52617700 
 17919              	.LASF137:
 17920 0eac 53415231 		.ascii	"SAR1_SD\000"
 17920      5F534400 
 17921              	.LASF149:
 17922 0eb4 73706565 		.ascii	"speed\000"
 17922      6400
 17923              	.LASF174:
 17924 0eba 76647369 		.ascii	"vdsi\000"
 17924      00
 17925              	.LASF255:
 17926 0ebf 5F5F6275 		.ascii	"__builtin_strchr\000"
 17926      696C7469 
 17926      6E5F7374 
 17926      72636872 
 17926      00
 17927              	.LASF24:
 17928 0ed0 64617461 		.ascii	"data\000"
 17928      00
 17929              	.LASF218:
 17930 0ed5 5449415F 		.ascii	"TIA_1_SetResFB\000"
 17930      315F5365 
 17930      74526573 
 17930      464200
 17931              	.LASF241:
 17932 0ee4 4144435F 		.ascii	"ADC_DelSig_1_Start\000"
 17932      44656C53 
 17932      69675F31 
 17932      5F537461 
 17932      727400
 17933              	.LASF17:
ARM GAS  C:\Users\FRANKL~1\AppData\Local\Temp\ccLkvCvD.s 			page 364


 17934 0ef7 75696E74 		.ascii	"uint16\000"
 17934      313600
 17935              	.LASF163:
 17936 0efe 77696465 		.ascii	"wide\000"
 17936      00
 17937              	.LASF227:
 17938 0f03 4144435F 		.ascii	"ADC_SAR_2_StartConvert\000"
 17938      5341525F 
 17938      325F5374 
 17938      61727443 
 17938      6F6E7665 
 17939              	.LASF153:
 17940 0f1a 73746172 		.ascii	"startRefIndex\000"
 17940      74526566 
 17940      496E6465 
 17940      7800
 17941              	.LASF238:
 17942 0f28 56444143 		.ascii	"VDAC_Vds_Start\000"
 17942      5F566473 
 17942      5F537461 
 17942      727400
 17943              		.ident	"GCC: (GNU Tools for ARM Embedded Processors) 5.4.1 20160609 (release) [ARM/embedded-5-bran
