ARM GAS  C:\Users\FRANKL~1\AppData\Local\Temp\ccjWonOy.s 			page 1


   1              		.syntax unified
   2              		.cpu cortex-m3
   3              		.fpu softvfp
   4              		.eabi_attribute 20, 1
   5              		.eabi_attribute 21, 1
   6              		.eabi_attribute 23, 3
   7              		.eabi_attribute 24, 1
   8              		.eabi_attribute 25, 1
   9              		.eabi_attribute 26, 1
  10              		.eabi_attribute 30, 1
  11              		.eabi_attribute 34, 1
  12              		.eabi_attribute 18, 4
  13              		.thumb
  14              		.syntax unified
  15              		.file	"main.c"
  16              		.text
  17              	.Ltext0:
  18              		.cfi_sections	.debug_frame
  19              		.syntax unified
  20              		.global _printf_float
  21              		.thumb
  22              		.syntax unified
  23              		.section	.text.USBUARTH_Maintain_Configuration,"ax",%progbits
  24              		.align	2
  25              		.global	USBUARTH_Maintain_Configuration
  26              		.thumb
  27              		.thumb_func
  28              		.type	USBUARTH_Maintain_Configuration, %function
  29              	USBUARTH_Maintain_Configuration:
  30              	.LFB64:
  31              		.file 1 "USBUART_Helpers.h"
   1:USBUART_Helpers.h **** #include "project.h"
   2:USBUART_Helpers.h **** #include "stdio.h"
   3:USBUART_Helpers.h **** 
   4:USBUART_Helpers.h **** #if defined (__GNUC__)
   5:USBUART_Helpers.h **** 	/* Add an explicit reference to the floating point printf library */
   6:USBUART_Helpers.h **** 	/* to allow usage of the floating point conversion specifiers. */
   7:USBUART_Helpers.h **** 	/* This is not linked in by default with the newlib-nano library. */
   8:USBUART_Helpers.h **** 	asm (".global _printf_float");
   9:USBUART_Helpers.h **** #endif
  10:USBUART_Helpers.h **** 
  11:USBUART_Helpers.h **** // The buffer size is equal to the maximum packet size of the IN and OUT bulk endpoints.
  12:USBUART_Helpers.h **** #define USBUART_BUFFER_SIZE	(64u)
  13:USBUART_Helpers.h **** #define LINE_STR_LENGTH		(20u)
  14:USBUART_Helpers.h **** 
  15:USBUART_Helpers.h **** 
  16:USBUART_Helpers.h **** void USBUARTH_Maintain_Configuration() {
  32              		.loc 1 16 0
  33              		.cfi_startproc
  34              		@ args = 0, pretend = 0, frame = 0
  35              		@ frame_needed = 0, uses_anonymous_args = 0
  36 0000 08B5     		push	{r3, lr}
  37              		.cfi_def_cfa_offset 8
  38              		.cfi_offset 3, -8
  39              		.cfi_offset 14, -4
  40              	.LVL0:
  17:USBUART_Helpers.h **** 	unsigned long tries = 0;
ARM GAS  C:\Users\FRANKL~1\AppData\Local\Temp\ccjWonOy.s 			page 2


  18:USBUART_Helpers.h **** 	
  19:USBUART_Helpers.h **** 	do {
  20:USBUART_Helpers.h **** 		// Host can send double SET_INTERFACE request.
  21:USBUART_Helpers.h **** 		if (USBUART_IsConfigurationChanged()) {
  41              		.loc 1 21 0
  42 0002 FFF7FEFF 		bl	USBUART_IsConfigurationChanged
  43              	.LVL1:
  44 0006 20B1     		cbz	r0, .L2
  22:USBUART_Helpers.h **** 			// Initialize IN endpoints when device is configured.
  23:USBUART_Helpers.h **** 			if (USBUART_GetConfiguration()) {
  45              		.loc 1 23 0
  46 0008 FFF7FEFF 		bl	USBUART_GetConfiguration
  47              	.LVL2:
  48 000c 08B1     		cbz	r0, .L2
  24:USBUART_Helpers.h **** 				// Enumeration is done, enable OUT endpoint to receive data from host.
  25:USBUART_Helpers.h **** 				USBUART_CDC_Init();
  49              		.loc 1 25 0
  50 000e FFF7FEFF 		bl	USBUART_CDC_Init
  51              	.LVL3:
  52              	.L2:
  26:USBUART_Helpers.h **** 			}
  27:USBUART_Helpers.h **** 		}
  28:USBUART_Helpers.h **** 		
  29:USBUART_Helpers.h **** 		tries++;
  30:USBUART_Helpers.h **** 	// Keep trying until USB CDC device is configured
  31:USBUART_Helpers.h **** 	} while (!USBUART_GetConfiguration() && tries < 1);
  53              		.loc 1 31 0
  54 0012 FFF7FEFF 		bl	USBUART_GetConfiguration
  55              	.LVL4:
  56 0016 08BD     		pop	{r3, pc}
  57              		.cfi_endproc
  58              	.LFE64:
  59              		.size	USBUARTH_Maintain_Configuration, .-USBUARTH_Maintain_Configuration
  60              		.section	.text.USBUARTH_DataIsReady,"ax",%progbits
  61              		.align	2
  62              		.global	USBUARTH_DataIsReady
  63              		.thumb
  64              		.thumb_func
  65              		.type	USBUARTH_DataIsReady, %function
  66              	USBUARTH_DataIsReady:
  67              	.LFB65:
  32:USBUART_Helpers.h **** }
  33:USBUART_Helpers.h **** 
  34:USBUART_Helpers.h **** uint8 USBUARTH_DataIsReady() {
  68              		.loc 1 34 0
  69              		.cfi_startproc
  70              		@ args = 0, pretend = 0, frame = 0
  71              		@ frame_needed = 0, uses_anonymous_args = 0
  72 0000 08B5     		push	{r3, lr}
  73              		.cfi_def_cfa_offset 8
  74              		.cfi_offset 3, -8
  75              		.cfi_offset 14, -4
  35:USBUART_Helpers.h **** 	USBUARTH_Maintain_Configuration();
  76              		.loc 1 35 0
  77 0002 FFF7FEFF 		bl	USBUARTH_Maintain_Configuration
  78              	.LVL5:
  36:USBUART_Helpers.h **** 	
ARM GAS  C:\Users\FRANKL~1\AppData\Local\Temp\ccjWonOy.s 			page 3


  37:USBUART_Helpers.h **** 	return USBUART_GetConfiguration() && USBUART_DataIsReady();
  79              		.loc 1 37 0
  80 0006 FFF7FEFF 		bl	USBUART_GetConfiguration
  81              	.LVL6:
  82 000a 20B1     		cbz	r0, .L6
  83              		.loc 1 37 0 is_stmt 0 discriminator 1
  84 000c FFF7FEFF 		bl	USBUART_DataIsReady
  85              	.LVL7:
  86 0010 18B1     		cbz	r0, .L7
  87              		.loc 1 37 0
  88 0012 0120     		movs	r0, #1
  89 0014 08BD     		pop	{r3, pc}
  90              	.L6:
  91 0016 0020     		movs	r0, #0
  92 0018 08BD     		pop	{r3, pc}
  93              	.L7:
  94 001a 0020     		movs	r0, #0
  38:USBUART_Helpers.h **** }
  95              		.loc 1 38 0 is_stmt 1
  96 001c 08BD     		pop	{r3, pc}
  97              		.cfi_endproc
  98              	.LFE65:
  99              		.size	USBUARTH_DataIsReady, .-USBUARTH_DataIsReady
 100 001e 00BF     		.section	.text.CommunicationHandlerISR,"ax",%progbits
 101              		.align	2
 102              		.global	CommunicationHandlerISR
 103              		.thumb
 104              		.thumb_func
 105              		.type	CommunicationHandlerISR, %function
 106              	CommunicationHandlerISR:
 107              	.LFB119:
 108              		.file 2 "main.c"
   1:main.c        **** #include <stdlib.h>
   2:main.c        **** #include <stdio.h>
   3:main.c        **** #include <stdbool.h>
   4:main.c        **** #include "project.h"
   5:main.c        **** #include "USBUART_Helpers.h"
   6:main.c        **** 
   7:main.c        **** 
   8:main.c        **** 
   9:main.c        **** struct Selector_I2C_Struct {
  10:main.c        **** 	struct {
  11:main.c        **** 		uint8 subAddress;
  12:main.c        **** 		uint8 data[126];
  13:main.c        **** 	} write;
  14:main.c        **** 	struct {
  15:main.c        **** 		uint8 subAddress;
  16:main.c        **** 		uint8 data[126];
  17:main.c        **** 	} read;
  18:main.c        **** 	uint8 busAddress;
  19:main.c        **** };
  20:main.c        **** 
  21:main.c        **** 
  22:main.c        **** // Globals ----------------------------------------------
  23:main.c        **** #define SELECTOR_COUNT (4u)
  24:main.c        **** #define INTERMEDIATE_COUNT (4u)
  25:main.c        **** #define CONTACT_COUNT (64u)
ARM GAS  C:\Users\FRANKL~1\AppData\Local\Temp\ccjWonOy.s 			page 4


  26:main.c        **** #define CHANNEL_COUNT (34u)
  27:main.c        **** #define CONTACT_CONNECT_CODE (0xC0u)
  28:main.c        **** #define CONTACT_DISCONNECT_CODE (0xD1u)
  29:main.c        **** #define COMPLIANCE_CURRENT_LIMIT (10e-6)
  30:main.c        **** 
  31:main.c        **** struct Selector_I2C_Struct selectors[SELECTOR_COUNT];
  32:main.c        **** char TransmitBuffer[USBUART_BUFFER_SIZE];
  33:main.c        **** 
  34:main.c        **** volatile uint8 newData = 0;
  35:main.c        **** volatile uint8 G_Stop = 0;
  36:main.c        **** volatile uint8 G_Break = 0;
  37:main.c        **** volatile uint8 G_Pause = 0;
  38:main.c        **** 
  39:main.c        **** volatile char UART_Receive_Buffer[USBUART_BUFFER_SIZE];
  40:main.c        **** volatile uint8 UART_Rx_Position;
  41:main.c        **** 
  42:main.c        **** volatile char USBUART_Receive_Buffer[USBUART_BUFFER_SIZE];
  43:main.c        **** volatile uint8 USBUART_Rx_Position;
  44:main.c        **** 
  45:main.c        **** enum TIA_resistor {R20K, R30K, R40K, R80K, R120K, R250K, R500K, R1000K};
  46:main.c        **** uint8 TIA_Selected_Resistor = R20K;
  47:main.c        **** 
  48:main.c        **** uint8 TIA_Resistor_Codes[8] = {TIA_1_RES_FEEDBACK_20K, TIA_1_RES_FEEDBACK_30K, TIA_1_RES_FEEDBACK_4
  49:main.c        **** float TIA_Resistor_Values[8] = {20e3, 30e3, 40e3, 80e3, 120e3, 250e3, 500e3, 1e6};
  50:main.c        **** int32 TIA_Offsets_uV[8] = {0, 0, 0, 0, 0, 0, 0, 0};
  51:main.c        **** 
  52:main.c        **** uint8 Compliance_Reached;
  53:main.c        **** int16 Vgs_Index_Goal_Relative;
  54:main.c        **** int16 Vds_Index_Goal_Relative;
  55:main.c        **** 
  56:main.c        **** uint32 Current_Measurement_Sample_Count;
  57:main.c        **** 
  58:main.c        **** bool uartSendingEnabled = true;
  59:main.c        **** bool usbuSendingEnabled = true;
  60:main.c        **** 
  61:main.c        **** void sendTransmitBuffer() {
  62:main.c        **** 	if (usbuSendingEnabled) USBUARTH_Send(TransmitBuffer, strlen(TransmitBuffer));
  63:main.c        **** 	if (uartSendingEnabled) UART_1_PutString(TransmitBuffer);
  64:main.c        **** }
  65:main.c        **** 
  66:main.c        **** void Setup_Selector_I2C_Struct(struct Selector_I2C_Struct *selector) {
  67:main.c        **** 	selector->write.subAddress = 1;
  68:main.c        **** 	selector->read.subAddress = sizeof(selector->write) + 1;
  69:main.c        **** 	
  70:main.c        **** 	for (uint16 i = 0; i < sizeof(selector->write.data); i++) {
  71:main.c        **** 		selector->write.data[i] = i + 6;
  72:main.c        **** 	}
  73:main.c        **** 	for (uint16 i = 0; i < sizeof(selector->read.data); i++) {
  74:main.c        **** 		selector->read.data[i] = 0xbe;
  75:main.c        **** 	}
  76:main.c        **** }
  77:main.c        **** 
  78:main.c        **** void Update_Selector(uint8 selectori) {
  79:main.c        **** 	sprintf(TransmitBuffer, "Updating Selector %u\r\n", selectori + 1);
  80:main.c        **** 	sendTransmitBuffer();
  81:main.c        **** 	
  82:main.c        **** 	struct Selector_I2C_Struct* selector = &selectors[selectori];
ARM GAS  C:\Users\FRANKL~1\AppData\Local\Temp\ccjWonOy.s 			page 5


  83:main.c        **** 	
  84:main.c        **** 	I2C_1_MasterClearStatus();
  85:main.c        **** 	I2C_1_MasterWriteBuf(selector->busAddress, (uint8 *) &selector->write, sizeof(selector->write), I2
  86:main.c        **** 	for (uint32 i = 0; i < 4e5; i++) {
  87:main.c        **** 		if ((I2C_1_MasterStatus() & I2C_1_MSTAT_WR_CMPLT)) break;
  88:main.c        **** 		if (i >= 4e5 - 1) {
  89:main.c        **** 			sprintf(TransmitBuffer, "I2C Transfer Error! Type: Timeout\r\n");
  90:main.c        **** 			sendTransmitBuffer();
  91:main.c        **** 			I2C_1_Stop();
  92:main.c        **** 			I2C_1_Start();
  93:main.c        **** 		}
  94:main.c        **** 	}
  95:main.c        **** 	
  96:main.c        **** 	// I2C_1_MasterClearStatus();
  97:main.c        **** 	// I2C_1_MasterWriteBuf(selector->busAddress, (uint8 *) &selector->read.subAddress, 1, I2C_1_MODE_
  98:main.c        **** 	// for (uint32 i - 0; i < 4e5; i++) {
  99:main.c        **** 	// 	if ((I2C_1_MasterStatus() & I2C_1_MSTAT_WR_CMPLT)) break;
 100:main.c        **** 	// }
 101:main.c        **** 	
 102:main.c        **** 	// I2C_1_MasterReadBuf(selector->busAddress, (uint8 *) &selector->read.data, sizeof(selector->read
 103:main.c        **** 	// for (uint32 i - 0; i < 4e5; i++) {
 104:main.c        **** 	// 	if ((I2C_1_MasterStatus() & I2C_1_MSTAT_RD_CMPLT)) break;
 105:main.c        **** 	// }
 106:main.c        **** 	
 107:main.c        **** 	if (I2C_1_MasterStatus() & I2C_1_MSTAT_ERR_XFER) {
 108:main.c        **** 		sprintf(TransmitBuffer, "I2C Transfer Error! ");
 109:main.c        **** 		sendTransmitBuffer();
 110:main.c        **** 		
 111:main.c        **** 		if (I2C_1_MasterStatus() & I2C_1_MSTAT_ERR_ADDR_NAK) {
 112:main.c        **** 			sprintf(TransmitBuffer, "Type: NAK");
 113:main.c        **** 			sendTransmitBuffer();
 114:main.c        **** 		}
 115:main.c        **** 		
 116:main.c        **** 		sprintf(TransmitBuffer, "\r\n");
 117:main.c        **** 		sendTransmitBuffer();
 118:main.c        **** 	}
 119:main.c        **** 	
 120:main.c        **** 	sprintf(TransmitBuffer, "Updated Selector %u\r\n", selectori + 1);
 121:main.c        **** 	sendTransmitBuffer();
 122:main.c        **** }
 123:main.c        **** 
 124:main.c        **** void Setup_Selectors() {
 125:main.c        **** 	for (uint8 i = 0; i < SELECTOR_COUNT; i++) Setup_Selector_I2C_Struct(&selectors[i]);
 126:main.c        **** 	
 127:main.c        **** 	selectors[0].busAddress = 0x66;
 128:main.c        **** 	selectors[1].busAddress = 0x11;
 129:main.c        **** 	selectors[2].busAddress = 0x44;
 130:main.c        **** 	selectors[3].busAddress = 0x22;
 131:main.c        **** }
 132:main.c        **** 
 133:main.c        **** void Connect_Channel_On_Intermediate(uint8 channel, uint8 intermediate) {
 134:main.c        **** 	channel--;
 135:main.c        **** 	intermediate--;
 136:main.c        **** 	
 137:main.c        **** 	if (channel >= CHANNEL_COUNT) return;
 138:main.c        **** 	if (intermediate >= INTERMEDIATE_COUNT) return;
 139:main.c        **** 	
ARM GAS  C:\Users\FRANKL~1\AppData\Local\Temp\ccjWonOy.s 			page 6


 140:main.c        **** 	selectors[intermediate].write.data[channel] = CONTACT_CONNECT_CODE;
 141:main.c        **** 	Update_Selector(intermediate);
 142:main.c        **** }
 143:main.c        **** 
 144:main.c        **** void Disconnect_Channel_On_Intermediate(uint8 channel, uint8 intermediate) {
 145:main.c        **** 	channel--;
 146:main.c        **** 	intermediate--;
 147:main.c        **** 	
 148:main.c        **** 	if (channel >= CHANNEL_COUNT) return;
 149:main.c        **** 	if (intermediate >= INTERMEDIATE_COUNT) return;
 150:main.c        **** 	
 151:main.c        **** 	selectors[intermediate].write.data[channel] = CONTACT_DISCONNECT_CODE;
 152:main.c        **** 	Update_Selector(intermediate);
 153:main.c        **** }
 154:main.c        **** 
 155:main.c        **** void Connect_Contact_To_Intermediate(uint8 contact, uint8 intermediate) {
 156:main.c        **** 	contact--;
 157:main.c        **** 	intermediate--;
 158:main.c        **** 	
 159:main.c        **** 	if (contact >= CONTACT_COUNT) return;
 160:main.c        **** 	if (intermediate >= INTERMEDIATE_COUNT) return;
 161:main.c        **** 	
 162:main.c        **** 	uint8 offset = 0;
 163:main.c        **** 	if (intermediate >= INTERMEDIATE_COUNT/2) {
 164:main.c        **** 		offset = CONTACT_COUNT/2;
 165:main.c        **** 		if (contact < CONTACT_COUNT/2) return;
 166:main.c        **** 	} else {
 167:main.c        **** 		if (contact >= CONTACT_COUNT/2) return;
 168:main.c        **** 	}
 169:main.c        **** 	
 170:main.c        **** 	Connect_Channel_On_Intermediate(contact - offset + 1, intermediate + 1);
 171:main.c        **** }
 172:main.c        **** 
 173:main.c        **** void Disconnect_Contact_From_Intermediate(uint8 contact, uint8 intermediate) {
 174:main.c        **** 	contact--;
 175:main.c        **** 	intermediate--;
 176:main.c        **** 	
 177:main.c        **** 	if (contact >= CONTACT_COUNT) return;
 178:main.c        **** 	if (intermediate >= INTERMEDIATE_COUNT) return;
 179:main.c        **** 	
 180:main.c        **** 	uint8 offset = 0;
 181:main.c        **** 	if (intermediate >= INTERMEDIATE_COUNT/2) {
 182:main.c        **** 		offset = CONTACT_COUNT/2;
 183:main.c        **** 		if (contact < CONTACT_COUNT/2) return;
 184:main.c        **** 	} else {
 185:main.c        **** 		if (contact >= CONTACT_COUNT/2) return;
 186:main.c        **** 	}
 187:main.c        **** 	
 188:main.c        **** 	selectors[intermediate].write.data[contact - offset] = CONTACT_DISCONNECT_CODE;
 189:main.c        **** 	
 190:main.c        **** 	Update_Selector(intermediate);
 191:main.c        **** }
 192:main.c        **** 
 193:main.c        **** void Disconnect_Contact_From_All_Intermediates(uint8 contact) {
 194:main.c        **** 	contact--;
 195:main.c        **** 	
 196:main.c        **** 	for (uint8 intermediate = 0; intermediate < INTERMEDIATE_COUNT; intermediate++) {
ARM GAS  C:\Users\FRANKL~1\AppData\Local\Temp\ccjWonOy.s 			page 7


 197:main.c        **** 		
 198:main.c        **** 		uint8 offset = 0;
 199:main.c        **** 		if (intermediate >= INTERMEDIATE_COUNT/2) {
 200:main.c        **** 			offset = CONTACT_COUNT/2;
 201:main.c        **** 			if (contact < CONTACT_COUNT/2) continue;
 202:main.c        **** 		} else {
 203:main.c        **** 			if (contact >= CONTACT_COUNT/2) continue;
 204:main.c        **** 		}
 205:main.c        **** 		
 206:main.c        **** 		selectors[intermediate].write.data[contact - offset] = CONTACT_DISCONNECT_CODE;
 207:main.c        **** 		
 208:main.c        **** 		Update_Selector(intermediate);
 209:main.c        **** 	}
 210:main.c        **** }
 211:main.c        **** 
 212:main.c        **** void Disconnect_All_Contacts_From_All_Intermediates() {
 213:main.c        **** 	for (uint8 intermediate = 0; intermediate < INTERMEDIATE_COUNT; intermediate++) {
 214:main.c        **** 		for (uint8 contact = 0; contact < CONTACT_COUNT/2; contact++) {
 215:main.c        **** 			selectors[intermediate].write.data[contact] = CONTACT_DISCONNECT_CODE;
 216:main.c        **** 		}
 217:main.c        **** 		
 218:main.c        **** 		Update_Selector(intermediate);
 219:main.c        **** 	}
 220:main.c        **** }
 221:main.c        **** 
 222:main.c        **** void Disconnect_All_Contacts_From_Intermediate(uint8 intermediate) {
 223:main.c        **** 	intermediate--;
 224:main.c        **** 	
 225:main.c        **** 	for (uint8 contact = 0; contact < CONTACT_COUNT/2; contact++) {
 226:main.c        **** 		selectors[intermediate].write.data[contact] = CONTACT_DISCONNECT_CODE;
 227:main.c        **** 	}
 228:main.c        **** 	
 229:main.c        **** 	Update_Selector(intermediate);
 230:main.c        **** }
 231:main.c        **** 
 232:main.c        **** void Connect_Intermediate(uint8 intermediate) {
 233:main.c        **** 	switch (intermediate) {
 234:main.c        **** 		case 1: Connect_Channel_On_Intermediate(33, 1); break;
 235:main.c        **** 		case 2: Connect_Channel_On_Intermediate(33, 2); break;
 236:main.c        **** 		case 3: Connect_Channel_On_Intermediate(33, 3); break;
 237:main.c        **** 		case 4: Connect_Channel_On_Intermediate(33, 4); break;
 238:main.c        **** 		default: return;
 239:main.c        **** 	}
 240:main.c        **** }
 241:main.c        **** 
 242:main.c        **** void Disconnect_Intermediate(uint8 intermediate) {
 243:main.c        **** 	switch (intermediate) {
 244:main.c        **** 		case 1: Disconnect_Channel_On_Intermediate(33, 1); break;
 245:main.c        **** 		case 2: Disconnect_Channel_On_Intermediate(33, 2); break;
 246:main.c        **** 		case 3: Disconnect_Channel_On_Intermediate(33, 3); break;
 247:main.c        **** 		case 4: Disconnect_Channel_On_Intermediate(33, 4); break;
 248:main.c        **** 		default: return;
 249:main.c        **** 	}
 250:main.c        **** }
 251:main.c        **** 
 252:main.c        **** void Connect_Intermediates() {
 253:main.c        **** 	for (uint8 i = 1; i <= INTERMEDIATE_COUNT; i++) {
ARM GAS  C:\Users\FRANKL~1\AppData\Local\Temp\ccjWonOy.s 			page 8


 254:main.c        **** 		Connect_Intermediate(i);
 255:main.c        **** 	}
 256:main.c        **** }
 257:main.c        **** 
 258:main.c        **** void Disconnect_Intermediates() {
 259:main.c        **** 	for (uint8 i = 1; i <= INTERMEDIATE_COUNT; i++) {
 260:main.c        **** 		Disconnect_Intermediate(i);
 261:main.c        **** 	}
 262:main.c        **** }
 263:main.c        **** 
 264:main.c        **** void TIA_Set_Resistor(uint8 resistor) {
 265:main.c        **** 	TIA_Selected_Resistor = resistor;
 266:main.c        **** 	TIA_1_SetResFB(TIA_Resistor_Codes[resistor]);
 267:main.c        **** }
 268:main.c        **** 
 269:main.c        **** void ADC_Increase_Range() {
 270:main.c        **** 	switch(TIA_Selected_Resistor) {
 271:main.c        **** 		case R20K: 	 break;
 272:main.c        **** 		//case R30K: 	 TIA_Set_Resistor(R20K); break;
 273:main.c        **** 		//case R40K:	 TIA_Set_Resistor(R30K); break;
 274:main.c        **** 		//case R80K:	 TIA_Set_Resistor(R40K); break;
 275:main.c        **** 		//case R120K:	 TIA_Set_Resistor(R80K); break;
 276:main.c        **** 		//case R250K:	 TIA_Set_Resistor(R120K); break;
 277:main.c        **** 		//case R500K:	 TIA_Set_Resistor(R250K); break;
 278:main.c        **** 		case R1000K: TIA_Set_Resistor(R20K); break;
 279:main.c        **** 		default: return;
 280:main.c        **** 	}
 281:main.c        **** }
 282:main.c        **** 
 283:main.c        **** void ADC_Decrease_Range() {
 284:main.c        **** 	switch(TIA_Selected_Resistor) {
 285:main.c        **** 		case R20K: 	 TIA_Set_Resistor(R1000K); break;
 286:main.c        **** 		//case R30K: 	 TIA_Set_Resistor(R40K); break;
 287:main.c        **** 		//case R40K:	 TIA_Set_Resistor(R80K); break;
 288:main.c        **** 		//case R80K:	 TIA_Set_Resistor(R120K); break;
 289:main.c        **** 		//case R120K:	 TIA_Set_Resistor(R250K); break;
 290:main.c        **** 		//case R250K:	 TIA_Set_Resistor(R500K); break;
 291:main.c        **** 		//case R500K:	 TIA_Set_Resistor(R1000K); break;
 292:main.c        **** 		case R1000K: break;
 293:main.c        **** 		default: return;
 294:main.c        **** 	}
 295:main.c        **** }
 296:main.c        **** 
 297:main.c        **** void sortArray(int32 array[], uint32 size) {
 298:main.c        **** 	int32 temp;
 299:main.c        **** 	// the following two loops sort the array x in ascending order
 300:main.c        **** 	for(uint32 i = 0; i < size-1; i++) {
 301:main.c        **** 		for(uint32 j = i+1; j < size; j++) {
 302:main.c        **** 			if(array[j] < array[i]) {
 303:main.c        **** 				// swap elements
 304:main.c        **** 				temp = array[i];
 305:main.c        **** 				array[i] = array[j];
 306:main.c        **** 				array[j] = temp;
 307:main.c        **** 			}
 308:main.c        **** 		}
 309:main.c        **** 	}
 310:main.c        **** }
ARM GAS  C:\Users\FRANKL~1\AppData\Local\Temp\ccjWonOy.s 			page 9


 311:main.c        **** 
 312:main.c        **** int32 medianOfArray(int32 array[], uint32 size) {
 313:main.c        **** 	sortArray(array, size);
 314:main.c        **** 	
 315:main.c        **** 	if(size%2 == 0) {
 316:main.c        **** 		// if size is even, return the mean of middle elements
 317:main.c        **** 		return((array[size/2] + array[size/2 - 1]) / 2);
 318:main.c        **** 	} else {
 319:main.c        **** 		// else return the middle element
 320:main.c        **** 		return array[size/2];
 321:main.c        **** 	}
 322:main.c        **** }
 323:main.c        **** 
 324:main.c        **** // Measure Delta-Sigma ADC
 325:main.c        **** void ADC_Measure_uV(int32* average, int32* standardDeviation, uint32 sampleCount) {
 326:main.c        **** 	int32 ADC_Result = 0;
 327:main.c        **** 	int32 ADC_SD = 0;
 328:main.c        **** 	
 329:main.c        **** 	uint32 medianArraySize = 19;
 330:main.c        **** 	if (sampleCount < medianArraySize) medianArraySize = sampleCount;
 331:main.c        **** 	
 332:main.c        **** 	uint32 medianCount = sampleCount/medianArraySize;
 333:main.c        **** 	int32 medianArray[medianArraySize];
 334:main.c        **** 	
 335:main.c        **** 	for (uint32 i = 1; i <= medianCount; i++) {
 336:main.c        **** 		for (uint32 j = 0; j < medianArraySize; j++) {
 337:main.c        **** 			while (!ADC_DelSig_1_IsEndConversion(ADC_DelSig_1_RETURN_STATUS));
 338:main.c        **** 			//int16 ADC_Result = ADC_DelSig_1_CountsTo_mVolts(ADC_DelSig_1_GetResult16());
 339:main.c        **** 			medianArray[j] = ADC_DelSig_1_CountsTo_uVolts(ADC_DelSig_1_GetResult32());
 340:main.c        **** 		}
 341:main.c        **** 		
 342:main.c        **** 		int32 ADC_Result_Current = medianOfArray(medianArray, medianArraySize);
 343:main.c        **** 		
 344:main.c        **** 		ADC_SD += (float)(i-1)/(float)(i)*(ADC_Result_Current - ADC_Result)*(ADC_Result_Current - ADC_Res
 345:main.c        **** 		ADC_Result += ((float)ADC_Result_Current - (float)ADC_Result)/(float)i;
 346:main.c        **** 	}
 347:main.c        **** 	
 348:main.c        **** 	*average = ADC_Result;
 349:main.c        **** 	*standardDeviation = ADC_SD;
 350:main.c        **** }
 351:main.c        **** 
 352:main.c        **** void ADC_Adjust_Range(uint32 sampleCount) {
 353:main.c        **** 	int32 ADC_Voltage = 0;
 354:main.c        **** 	int32 ADC_Voltage_SD = 0;
 355:main.c        **** 	
 356:main.c        **** 	ADC_Measure_uV(&ADC_Voltage, &ADC_Voltage_SD, sampleCount);
 357:main.c        **** 	
 358:main.c        **** 	if(abs(ADC_Voltage) > 870400) {
 359:main.c        **** 		ADC_Increase_Range();
 360:main.c        **** 	} else if (abs(ADC_Voltage) < 10240) {
 361:main.c        **** 		ADC_Decrease_Range();
 362:main.c        **** 	} else {
 363:main.c        **** 		return;
 364:main.c        **** 	}
 365:main.c        **** 	
 366:main.c        **** 	// If the range switches, discard a few measurements
 367:main.c        **** 	ADC_Measure_uV(&ADC_Voltage, &ADC_Voltage_SD, 5);
ARM GAS  C:\Users\FRANKL~1\AppData\Local\Temp\ccjWonOy.s 			page 10


 368:main.c        **** }
 369:main.c        **** 
 370:main.c        **** // Measure SAR1 ADC
 371:main.c        **** void SAR1_Measure_V(int32* average, int32* standardDeviation, uint32 sampleCount) {
 372:main.c        **** 	int32 SAR_Result = 0;
 373:main.c        **** 	int32 SAR_SD = 0;
 374:main.c        **** 	
 375:main.c        **** 	for (uint32 i = 1; i <= sampleCount; i++) {
 376:main.c        **** 		ADC_SAR_1_StartConvert();
 377:main.c        **** 		while (!ADC_SAR_1_IsEndConversion(ADC_SAR_1_RETURN_STATUS));
 378:main.c        **** 		
 379:main.c        **** 		int32 SAR1_Result_Current = ADC_SAR_1_CountsTo_uVolts(ADC_SAR_1_GetResult16());
 380:main.c        **** 		
 381:main.c        **** 		SAR_SD += (float)(i-1)/(float)(i)*(SAR1_Result_Current - SAR_Result)*(SAR1_Result_Current - SAR_R
 382:main.c        **** 		SAR_Result += ((float)SAR1_Result_Current - (float)SAR_Result)/(float)i;
 383:main.c        **** 	}
 384:main.c        **** 	
 385:main.c        **** 	*average = SAR_Result;
 386:main.c        **** 	*standardDeviation = SAR_SD;
 387:main.c        **** }
 388:main.c        **** 
 389:main.c        **** // Measure SAR2 ADC
 390:main.c        **** void SAR2_Measure_V(int32* average, int32* standardDeviation, uint32 sampleCount) {
 391:main.c        **** 	int32 SAR_Result = 0;
 392:main.c        **** 	int32 SAR_SD = 0;
 393:main.c        **** 	
 394:main.c        **** 	for (uint32 i = 1; i <= sampleCount; i++) {
 395:main.c        **** 		ADC_SAR_2_StartConvert();
 396:main.c        **** 		while (!ADC_SAR_2_IsEndConversion(ADC_SAR_2_RETURN_STATUS));
 397:main.c        **** 		
 398:main.c        **** 		int32 SAR2_Result_Current = ADC_SAR_2_CountsTo_uVolts(ADC_SAR_2_GetResult16());
 399:main.c        **** 		
 400:main.c        **** 		SAR_SD += (float)(i-1)/(float)(i)*(SAR2_Result_Current - SAR_Result)*(SAR2_Result_Current - SAR_R
 401:main.c        **** 		SAR_Result += ((float)SAR2_Result_Current - (float)SAR_Result)/(float)i;
 402:main.c        **** 	}
 403:main.c        **** 	
 404:main.c        **** 	*average = SAR_Result;
 405:main.c        **** 	*standardDeviation = SAR_SD;
 406:main.c        **** }
 407:main.c        **** 
 408:main.c        **** // Measure current and compare it to some compliance value
 409:main.c        **** void Measure_Current_Vss(float* currentAverageIn, float* currentStdDevIn, uint32 sampleCount, uint8
 410:main.c        **** 	Compliance_Reached = 0;
 411:main.c        **** 		
 412:main.c        **** 	// Auto-adjust the current range
 413:main.c        **** 	ADC_Adjust_Range(3);
 414:main.c        **** 	
 415:main.c        **** 	// Voltage and its standard deviation (in uV)
 416:main.c        **** 	int32 ADC_Voltage = 0;
 417:main.c        **** 	int32 ADC_Voltage_SD = 0;
 418:main.c        **** 	
 419:main.c        **** 	// Current and its standard deviation (in A)
 420:main.c        **** 	float currentNow = 0;
 421:main.c        **** 	float currentAverage = 0;
 422:main.c        **** 	float currentStdDev = 0;
 423:main.c        **** 	
 424:main.c        **** 	float TIA_Feedback_R = TIA_Resistor_Values[TIA_Selected_Resistor];
ARM GAS  C:\Users\FRANKL~1\AppData\Local\Temp\ccjWonOy.s 			page 11


 425:main.c        **** 	int32 TIA_Offset_uV = TIA_Offsets_uV[TIA_Selected_Resistor];
 426:main.c        **** 	float unitConversion = -1.0e-6/TIA_Feedback_R;
 427:main.c        **** 	
 428:main.c        **** 	// Allow for the first measurement (normally not correct) to take place
 429:main.c        **** 	ADC_Measure_uV(&ADC_Voltage, &ADC_Voltage_SD, 3);
 430:main.c        **** 	
 431:main.c        **** 	// Now take the real measurement
 432:main.c        **** 	if (checkCompliance) {
 433:main.c        **** 		for (uint32 i = 1; i <= sampleCount; i++) {
 434:main.c        **** 			ADC_Measure_uV(&ADC_Voltage, &ADC_Voltage_SD, 1);
 435:main.c        **** 			
 436:main.c        **** 			currentNow = unitConversion * (ADC_Voltage + TIA_Offset_uV);
 437:main.c        **** 			
 438:main.c        **** 			currentStdDev += ((float)i-1.0)/(float)(i)*(currentNow - currentAverage)*(currentNow - currentAv
 439:main.c        **** 			currentAverage += (currentNow - currentAverage)/(float)i;
 440:main.c        **** 			
 441:main.c        **** 			if (abs(currentNow) > COMPLIANCE_CURRENT_LIMIT) {
 442:main.c        **** 				Compliance_Reached += 1;
 443:main.c        **** 				break;
 444:main.c        **** 			} else {
 445:main.c        **** 				Compliance_Reached = 0;
 446:main.c        **** 			}
 447:main.c        **** 		}
 448:main.c        **** 	} else {
 449:main.c        **** 		ADC_Measure_uV(&ADC_Voltage, &ADC_Voltage_SD, sampleCount);
 450:main.c        **** 			
 451:main.c        **** 		currentAverage = unitConversion * (ADC_Voltage + TIA_Offset_uV);
 452:main.c        **** 		currentStdDev = unitConversion * (ADC_Voltage_SD + TIA_Offset_uV);
 453:main.c        **** 	}
 454:main.c        **** 	
 455:main.c        **** 	*currentAverageIn = currentAverage;
 456:main.c        **** 	*currentStdDevIn = currentStdDev;
 457:main.c        **** }
 458:main.c        **** 
 459:main.c        **** uint8 At_Compliance() {
 460:main.c        **** 	Compliance_Reached = 0;
 461:main.c        **** 	
 462:main.c        **** 	float current = 0;
 463:main.c        **** 	float currentSD = 0;
 464:main.c        **** 	
 465:main.c        **** 	Measure_Current_Vss(&current, &currentSD, 3, 1);
 466:main.c        **** 	
 467:main.c        **** 	if (abs(current) > COMPLIANCE_CURRENT_LIMIT) {
 468:main.c        **** 		Compliance_Reached = 1;
 469:main.c        **** 		return 1;
 470:main.c        **** 	}
 471:main.c        **** 	
 472:main.c        **** 	return 0;
 473:main.c        **** }
 474:main.c        **** 
 475:main.c        **** void Handle_Compliance_Breach() {
 476:main.c        **** 	uint8 istart = VDAC_Vds_Data;
 477:main.c        **** 	uint8 istop = VDAC_Ref_Data;
 478:main.c        **** 	int8 increment = 1;
 479:main.c        **** 	if (istart < istop) increment = -1;
 480:main.c        **** 	
 481:main.c        **** 	for (uint8 i = istart; i != istop; i += increment) {
ARM GAS  C:\Users\FRANKL~1\AppData\Local\Temp\ccjWonOy.s 			page 12


 482:main.c        **** 		VDAC_Vds_SetValue(i);
 483:main.c        **** 		
 484:main.c        **** 		if (!At_Compliance()) return;
 485:main.c        **** 	}
 486:main.c        **** 	
 487:main.c        **** 	istart = VDAC_Vgs_Data;
 488:main.c        **** 	istop = VDAC_Ref_Data;
 489:main.c        **** 	increment = 1;
 490:main.c        **** 	if (istart < istop) increment = -1;
 491:main.c        **** 	
 492:main.c        **** 	for (uint8 i = istart; i != istop; i += increment) {
 493:main.c        **** 		VDAC_Vgs_SetValue(i);
 494:main.c        **** 		
 495:main.c        **** 		if (!At_Compliance()) return;
 496:main.c        **** 	}
 497:main.c        **** 	
 498:main.c        **** 	// To do: Should disconnect something or take some other action at this point since still at compl
 499:main.c        **** }
 500:main.c        **** 
 501:main.c        **** // Get the reference voltage in volts
 502:main.c        **** float Get_Ref() {
 503:main.c        **** 	float result = 4.080/255.0*VDAC_Ref_Data;
 504:main.c        **** 	if (VDAC_Ref_CR0 & (VDAC_Ref_RANGE_1V & VDAC_Ref_RANGE_MASK)) {
 505:main.c        **** 		result = 1.020/255.0*VDAC_Ref_Data;
 506:main.c        **** 	}
 507:main.c        **** 	return result;
 508:main.c        **** }
 509:main.c        **** 
 510:main.c        **** // Get Vgs in volts
 511:main.c        **** float Get_Vgs() {
 512:main.c        **** 	float result = 4.080/255.0*VDAC_Vgs_Data - Get_Ref();
 513:main.c        **** 	if (VDAC_Vgs_CR0 & (VDAC_Vgs_RANGE_1V & VDAC_Vgs_RANGE_MASK)) {
 514:main.c        **** 		result = 1.020/255.0*VDAC_Vgs_Data - Get_Ref();
 515:main.c        **** 	}
 516:main.c        **** 	return result;
 517:main.c        **** }
 518:main.c        **** 
 519:main.c        **** // Get Vds in volts
 520:main.c        **** float Get_Vds() {
 521:main.c        **** 	float result = 4.080/255.0*VDAC_Vds_Data - Get_Ref();
 522:main.c        **** 	if (VDAC_Vds_CR0 & (VDAC_Vds_RANGE_1V & VDAC_Vds_RANGE_MASK)) {
 523:main.c        **** 		result = 1.020/255.0*VDAC_Vds_Data - Get_Ref();
 524:main.c        **** 	}
 525:main.c        **** 	return result;
 526:main.c        **** }
 527:main.c        **** 
 528:main.c        **** 
 529:main.c        **** // ****************************
 530:main.c        **** // Set the raw value of Vds
 531:main.c        **** void Set_Vds_Raw(uint8 value) {
 532:main.c        **** 	Vds_Index_Goal_Relative = (int16)value - (int16)VDAC_Ref_Data;
 533:main.c        **** 	
 534:main.c        **** 	uint8 istart = VDAC_Vds_Data;
 535:main.c        **** 	int8 increment = 1;
 536:main.c        **** 	if (istart > value) increment = -1;
 537:main.c        **** 	
 538:main.c        **** 	// Ramp up to the Vds value
ARM GAS  C:\Users\FRANKL~1\AppData\Local\Temp\ccjWonOy.s 			page 13


 539:main.c        **** 	for (uint8 i = istart; i != value; i += increment) {
 540:main.c        **** 		if (At_Compliance()) {
 541:main.c        **** 			for (uint8 j = i; j != istart; j -= increment) {
 542:main.c        **** 				VDAC_Vds_SetValue(j);
 543:main.c        **** 				
 544:main.c        **** 				if (!At_Compliance()) return;
 545:main.c        **** 			}
 546:main.c        **** 			if (At_Compliance()) {
 547:main.c        **** 				Handle_Compliance_Breach();
 548:main.c        **** 				return;
 549:main.c        **** 			}
 550:main.c        **** 		}
 551:main.c        **** 		
 552:main.c        **** 		VDAC_Vds_SetValue(i);
 553:main.c        **** 	}
 554:main.c        **** 	
 555:main.c        **** 	// Now that ramp is done, set the Vds value
 556:main.c        **** 	VDAC_Vds_SetValue(value);
 557:main.c        **** }
 558:main.c        **** 
 559:main.c        **** // Set the raw value of Vgs
 560:main.c        **** void Set_Vgs_Raw(uint8 value) {
 561:main.c        **** 	Vgs_Index_Goal_Relative = (int16)value - (int16)VDAC_Ref_Data;
 562:main.c        **** 	
 563:main.c        **** 	int8 increment = 1;
 564:main.c        **** 	uint8 istart = VDAC_Vgs_Data;
 565:main.c        **** 	if (value < istart) increment = -1;
 566:main.c        **** 	
 567:main.c        **** 	// Ramp up to the Vgs value
 568:main.c        **** 	for (uint8 i = istart; i != value; i += increment) {
 569:main.c        **** 		if (At_Compliance()) {
 570:main.c        **** 			for (uint8 j = i; j != istart; j -= increment) {
 571:main.c        **** 				VDAC_Vgs_SetValue(j);
 572:main.c        **** 				
 573:main.c        **** 				if (!At_Compliance()) return;
 574:main.c        **** 			}
 575:main.c        **** 			if (At_Compliance()) {
 576:main.c        **** 				Handle_Compliance_Breach();
 577:main.c        **** 				return;
 578:main.c        **** 			}
 579:main.c        **** 		}
 580:main.c        **** 		
 581:main.c        **** 		VDAC_Vgs_SetValue(i);
 582:main.c        **** 	}
 583:main.c        **** 	
 584:main.c        **** 	// Now that ramp is done, set the Vgs value
 585:main.c        **** 	VDAC_Vgs_SetValue(value);
 586:main.c        **** }
 587:main.c        **** 
 588:main.c        **** // Set the raw value of the reference voltage
 589:main.c        **** void Set_Ref_Raw(uint8 value) {
 590:main.c        **** 	if (value < 6) value = 6;
 591:main.c        **** 	
 592:main.c        **** 	int8 increment = 1;
 593:main.c        **** 	if (value < VDAC_Ref_Data) increment = -1;
 594:main.c        **** 	
 595:main.c        **** 	// Ramp up to the Reference value
ARM GAS  C:\Users\FRANKL~1\AppData\Local\Temp\ccjWonOy.s 			page 14


 596:main.c        **** 	for (uint8 i = VDAC_Ref_Data; i != value; i += increment) {
 597:main.c        **** 		
 598:main.c        **** 		if (At_Compliance()) return;
 599:main.c        **** 		
 600:main.c        **** 		int16 new_Vgs = (int16)i + Vgs_Index_Goal_Relative;
 601:main.c        **** 		int16 new_Vds = (int16)i + Vds_Index_Goal_Relative;
 602:main.c        **** 		
 603:main.c        **** 		if (new_Vgs > 255) new_Vgs = 255;
 604:main.c        **** 		if (new_Vds > 255) new_Vds = 255;
 605:main.c        **** 		
 606:main.c        **** 		if (new_Vgs < 0) new_Vgs = 0;
 607:main.c        **** 		if (new_Vds < 0) new_Vds = 0;
 608:main.c        **** 		
 609:main.c        **** 		VDAC_Ref_SetValue(i);
 610:main.c        **** 		VDAC_Vgs_SetValue(new_Vgs);
 611:main.c        **** 		VDAC_Vds_SetValue(new_Vds);
 612:main.c        **** 	}
 613:main.c        **** 	
 614:main.c        **** 	// Now that ramp is done, set the Reference value
 615:main.c        **** 	int16 new_Vgs = (int16)value + Vgs_Index_Goal_Relative;
 616:main.c        **** 	int16 new_Vds = (int16)value + Vds_Index_Goal_Relative;
 617:main.c        **** 	
 618:main.c        **** 	if (new_Vgs > 255) new_Vgs = 255;
 619:main.c        **** 	if (new_Vds > 255) new_Vds = 255;
 620:main.c        **** 	
 621:main.c        **** 	if (new_Vgs < 0) new_Vgs = 0;
 622:main.c        **** 	if (new_Vds < 0) new_Vds = 0;
 623:main.c        **** 	
 624:main.c        **** 	VDAC_Ref_SetValue(value);
 625:main.c        **** 	VDAC_Vgs_SetValue(new_Vgs);
 626:main.c        **** 	VDAC_Vds_SetValue(new_Vds);
 627:main.c        **** }
 628:main.c        **** // ****************************
 629:main.c        **** 
 630:main.c        **** // Set Vds and move the reference voltage if necessary
 631:main.c        **** void Set_Vds_Rel(int16 value) {
 632:main.c        **** 	if (value > 255) value = 255;
 633:main.c        **** 	if (value < -255) value = -255;
 634:main.c        **** 	
 635:main.c        **** 	int16 absolute = (int16)value + (int16)VDAC_Ref_Data;
 636:main.c        **** 	
 637:main.c        **** 	if (absolute > 255) {
 638:main.c        **** 		Set_Ref_Raw(VDAC_Ref_Data - (absolute - 255));
 639:main.c        **** 		Set_Vds_Raw(255);
 640:main.c        **** 	} else if (absolute < 0) {
 641:main.c        **** 		Set_Ref_Raw(VDAC_Ref_Data - absolute);
 642:main.c        **** 		Set_Vds_Raw(0);
 643:main.c        **** 	} else {
 644:main.c        **** 		Set_Vds_Raw(absolute);
 645:main.c        **** 	}
 646:main.c        **** 	
 647:main.c        **** 	Vds_Index_Goal_Relative = (int16)value;
 648:main.c        **** 	
 649:main.c        **** 	uint16 Vds_minRefRaw = Vds_Index_Goal_Relative > 0? 0: -Vds_Index_Goal_Relative;
 650:main.c        **** 	uint16 Vds_maxRefRaw = Vds_Index_Goal_Relative > 0? 255 - Vds_Index_Goal_Relative: 255;
 651:main.c        **** 	uint16 Vgs_minRefRaw = Vgs_Index_Goal_Relative > 0? 0: -Vgs_Index_Goal_Relative;
 652:main.c        **** 	uint16 Vgs_maxRefRaw = Vgs_Index_Goal_Relative > 0? 255 - Vgs_Index_Goal_Relative: 255;
ARM GAS  C:\Users\FRANKL~1\AppData\Local\Temp\ccjWonOy.s 			page 15


 653:main.c        **** 	
 654:main.c        **** 	uint16 newRefRaw = VDAC_Ref_Data;
 655:main.c        **** 	
 656:main.c        **** 	if (newRefRaw < Vgs_minRefRaw) newRefRaw = Vgs_minRefRaw;
 657:main.c        **** 	if (newRefRaw > Vgs_maxRefRaw) newRefRaw = Vgs_maxRefRaw;
 658:main.c        **** 	if (newRefRaw < Vds_minRefRaw) newRefRaw = Vds_minRefRaw;
 659:main.c        **** 	if (newRefRaw > Vds_maxRefRaw) newRefRaw = Vds_maxRefRaw;
 660:main.c        **** 	
 661:main.c        **** 	Set_Ref_Raw(newRefRaw);
 662:main.c        **** }
 663:main.c        **** 
 664:main.c        **** // Set Vgs and move the reference voltage if necessary
 665:main.c        **** void Set_Vgs_Rel(int16 value) {
 666:main.c        **** 	if (value > 255) value = 255;
 667:main.c        **** 	if (value < -255) value = -255;
 668:main.c        **** 	
 669:main.c        **** 	int16 absolute = (int16)value + (int16)VDAC_Ref_Data;
 670:main.c        **** 	
 671:main.c        **** 	if (absolute > 255) {
 672:main.c        **** 		Set_Ref_Raw(VDAC_Ref_Data - (absolute - 255));
 673:main.c        **** 		Set_Vgs_Raw(255);
 674:main.c        **** 	} else if (absolute < 0) {
 675:main.c        **** 		Set_Ref_Raw(VDAC_Ref_Data - absolute);
 676:main.c        **** 		Set_Vgs_Raw(0);
 677:main.c        **** 	} else {
 678:main.c        **** 		Set_Vgs_Raw(absolute);
 679:main.c        **** 	}
 680:main.c        **** 	
 681:main.c        **** 	Vgs_Index_Goal_Relative = (int16)value;
 682:main.c        **** 	
 683:main.c        **** 	uint16 Vds_minRefRaw = Vds_Index_Goal_Relative > 0? 0: -Vds_Index_Goal_Relative;
 684:main.c        **** 	uint16 Vds_maxRefRaw = Vds_Index_Goal_Relative > 0? 255 - Vds_Index_Goal_Relative: 255;
 685:main.c        **** 	uint16 Vgs_minRefRaw = Vgs_Index_Goal_Relative > 0? 0: -Vgs_Index_Goal_Relative;
 686:main.c        **** 	uint16 Vgs_maxRefRaw = Vgs_Index_Goal_Relative > 0? 255 - Vgs_Index_Goal_Relative: 255;
 687:main.c        **** 	
 688:main.c        **** 	uint16 newRefRaw = VDAC_Ref_Data;
 689:main.c        **** 	
 690:main.c        **** 	if (newRefRaw < Vds_minRefRaw) newRefRaw = Vds_minRefRaw;
 691:main.c        **** 	if (newRefRaw > Vds_maxRefRaw) newRefRaw = Vds_maxRefRaw;
 692:main.c        **** 	if (newRefRaw < Vgs_minRefRaw) newRefRaw = Vgs_minRefRaw;
 693:main.c        **** 	if (newRefRaw > Vgs_maxRefRaw) newRefRaw = Vgs_maxRefRaw;
 694:main.c        **** 	
 695:main.c        **** 	Set_Ref_Raw(newRefRaw);
 696:main.c        **** }
 697:main.c        **** // ****************************
 698:main.c        **** 
 699:main.c        **** // Set Vgs by volts (good for readability, but requires passing floats)
 700:main.c        **** void Set_Vgs(float voltage) {
 701:main.c        **** 	Set_Vgs_Rel((voltage/4.080)*255.0);
 702:main.c        **** }
 703:main.c        **** 
 704:main.c        **** // Set Vds by volts (good for readability, but requires passing floats)
 705:main.c        **** void Set_Vds(float voltage) {
 706:main.c        **** 	Set_Vds_Rel((voltage/4.080)*255.0);
 707:main.c        **** }
 708:main.c        **** // ****************************
 709:main.c        **** 
ARM GAS  C:\Users\FRANKL~1\AppData\Local\Temp\ccjWonOy.s 			page 16


 710:main.c        **** // Set Vgs by mV (good for passing in integers instead of floats)
 711:main.c        **** void Set_Vgs_mV(float mV) {
 712:main.c        **** 	Set_Vgs(mV/1000.0);
 713:main.c        **** }
 714:main.c        **** 
 715:main.c        **** // Set Vds by mV (good for passing in integers instead of floats)
 716:main.c        **** void Set_Vds_mV(float mV) {
 717:main.c        **** 	Set_Vds(mV/1000.0);
 718:main.c        **** }
 719:main.c        **** // ****************************
 720:main.c        **** 
 721:main.c        **** // Set Vgs and Vds to 0
 722:main.c        **** void Zero_All_DACs() {
 723:main.c        **** 	Set_Vds_Raw(0);
 724:main.c        **** 	Set_Vgs_Raw(0);
 725:main.c        **** 	
 726:main.c        **** 	VDAC_Vds_SetValue(0);
 727:main.c        **** 	VDAC_Vgs_SetValue(0);
 728:main.c        **** }
 729:main.c        **** 
 730:main.c        **** void Calibrate_ADC_Offset(uint32 sampleCount) {
 731:main.c        **** 	uint8 current_range_resistor = TIA_Selected_Resistor;
 732:main.c        **** 	
 733:main.c        **** 	// Zero the DACs
 734:main.c        **** 	Set_Vds(0);
 735:main.c        **** 	Set_Vgs(0);
 736:main.c        **** 	
 737:main.c        **** 	// Voltage and its standard deviation (in uV)
 738:main.c        **** 	int32 voltage = 0;
 739:main.c        **** 	int32 voltageSD = 0;
 740:main.c        **** 	
 741:main.c        **** 	// Measure ADC offset voltages
 742:main.c        **** 	for (uint8 i = R20K; i <= R1000K; i++) {
 743:main.c        **** 		TIA_Set_Resistor(i);
 744:main.c        **** 		// Take a few measurements to discard any problems with the initial measurements
 745:main.c        **** 		ADC_Measure_uV(&voltage, &voltageSD, 3);
 746:main.c        **** 		ADC_Measure_uV(&voltage, &voltageSD, sampleCount);
 747:main.c        **** 		TIA_Offsets_uV[i] = -voltage;
 748:main.c        **** 		sprintf(TransmitBuffer, "# Offset %e Ohm: %li uV\r\n", TIA_Resistor_Values[i], -voltage);
 749:main.c        **** 		sendTransmitBuffer();
 750:main.c        **** 	}
 751:main.c        **** 	
 752:main.c        **** 	// Reset TIA Resistor
 753:main.c        **** 	TIA_Set_Resistor(current_range_resistor);
 754:main.c        **** 	
 755:main.c        **** 	sprintf(TransmitBuffer, "# Calibrated ADC Offsets\r\n");
 756:main.c        **** 	sendTransmitBuffer();
 757:main.c        **** }
 758:main.c        **** 
 759:main.c        **** // Take a measurement of the system (Id - from delta-sigma ADC, Vgs, Vds, SAR1 ADC, SAR2 ADC)
 760:main.c        **** void Measure(uint32 deltaSigmaSampleCount, uint32 SAR1_SampleCount, uint32 SAR2_SampleCount) {
 761:main.c        **** 	float IdsAverageAmps = 0;
 762:main.c        **** 	float IdsSDAmps = 0;
 763:main.c        **** 	
 764:main.c        **** 	Measure_Current_Vss(&IdsAverageAmps, &IdsSDAmps, deltaSigmaSampleCount, 0);
 765:main.c        **** 	
 766:main.c        **** //	int32 SAR1_Average = 0;
ARM GAS  C:\Users\FRANKL~1\AppData\Local\Temp\ccjWonOy.s 			page 17


 767:main.c        **** //	int32 SAR1_SD = 0;
 768:main.c        **** //	int32 SAR2_Average = 0;
 769:main.c        **** //	int32 SAR2_SD = 0;
 770:main.c        **** //
 771:main.c        **** //	SAR1_Measure_V(&SAR1_Average, &SAR1_SD, SAR1_SampleCount);
 772:main.c        **** //	SAR2_Measure_V(&SAR2_Average, &SAR2_SD, SAR2_SampleCount);
 773:main.c        **** //
 774:main.c        **** //	float SAR1 = 1e-6*SAR1_Average;
 775:main.c        **** //	float SAR2 = 1e-6*SAR2_Average;
 776:main.c        **** 	
 777:main.c        **** 	sprintf(TransmitBuffer, "[%e,%f,%f]\r\n", IdsAverageAmps, Get_Vgs(), Get_Vds());
 778:main.c        **** 	sendTransmitBuffer();
 779:main.c        **** }
 780:main.c        **** 
 781:main.c        **** // Repeatedly take measurements of the system
 782:main.c        **** void Measure_Multiple(uint32 n) {
 783:main.c        **** 	for (uint32 i = 0; i < n; i++) {
 784:main.c        **** 		Measure(100, 1, 10);
 785:main.c        **** 	}
 786:main.c        **** }
 787:main.c        **** 
 788:main.c        **** // Take a basic gate sweep (hardcoded voltages, hardcoded number of data points)
 789:main.c        **** void Measure_Sweep() {
 790:main.c        **** 	VDAC_Vds_SetValue(90);
 791:main.c        **** 	VDAC_Vgs_SetValue(254);
 792:main.c        **** 	
 793:main.c        **** 	for (uint16 Vgsi = 0; Vgsi < 256; Vgsi++) {
 794:main.c        **** 		VDAC_Vgs_SetValue(Vgsi);
 795:main.c        **** 		Measure(100, 1, 1);
 796:main.c        **** 	}
 797:main.c        **** }
 798:main.c        **** 
 799:main.c        **** void Measure_Gate_Sweep(uint8 loop) {
 800:main.c        **** 	
 801:main.c        **** 	if (Vds_Index_Goal_Relative > 0) {
 802:main.c        **** 		Set_Ref_Raw(254 - Vds_Index_Goal_Relative);
 803:main.c        **** 	} else {
 804:main.c        **** 		Set_Ref_Raw(254);
 805:main.c        **** 	}
 806:main.c        **** 	
 807:main.c        **** 	int8 speed = 16;
 808:main.c        **** 	
 809:main.c        **** 	for (uint8 l = 0; l <= loop; l++) {
 810:main.c        **** 		int8 direction = 1*speed;
 811:main.c        **** 		uint8 istart = 0;
 812:main.c        **** 		if (Vds_Index_Goal_Relative < 0) {
 813:main.c        **** 			istart = -Vds_Index_Goal_Relative;
 814:main.c        **** 		}
 815:main.c        **** 		
 816:main.c        **** 		uint8 istop = 256-speed;
 817:main.c        **** 		
 818:main.c        **** 		if (l%2 == 1) {
 819:main.c        **** 			direction = -1*speed;
 820:main.c        **** 			istart = 256-speed;
 821:main.c        **** 			istop = 0;
 822:main.c        **** 		}
 823:main.c        **** 		
ARM GAS  C:\Users\FRANKL~1\AppData\Local\Temp\ccjWonOy.s 			page 18


 824:main.c        **** 		for (uint8 i = istart; i != istop; i += direction) {
 825:main.c        **** 			for (uint8 j = 0; j <= 1; j++) {
 826:main.c        **** 				if (j == 1) Set_Ref_Raw(254 - i + 1);
 827:main.c        **** 				Set_Vgs_Raw(i);
 828:main.c        **** 				
 829:main.c        **** 				Measure(33, 1, 1);
 830:main.c        **** 				
 831:main.c        **** 				if (G_Stop) break;
 832:main.c        **** 				while (G_Pause);
 833:main.c        **** 			}
 834:main.c        **** 		}
 835:main.c        **** 	}
 836:main.c        **** }
 837:main.c        **** 
 838:main.c        **** void Measure_Wide_Gate_Sweep(uint8 loop) {
 839:main.c        **** 	Set_Ref_Raw(254);
 840:main.c        **** 	
 841:main.c        **** 	int8 speed = 16;
 842:main.c        **** 	
 843:main.c        **** 	for (uint8 l = 0; l <= loop; l++) {
 844:main.c        **** 		int8 direction = 1*speed;
 845:main.c        **** 		uint8 istart = 0;
 846:main.c        **** 		uint8 istop = 256-speed;
 847:main.c        **** 		
 848:main.c        **** 		if (l%2 == 1) {
 849:main.c        **** 			direction = -1*speed;
 850:main.c        **** 			istart = 256-speed;
 851:main.c        **** 			istop = 0;
 852:main.c        **** 		}
 853:main.c        **** 		
 854:main.c        **** 		for (uint8 i = istart; i != istop; i += direction) {
 855:main.c        **** 			for (uint8 j = 0; j <= 1; j++) {
 856:main.c        **** 				
 857:main.c        **** 				if (j == 1) Set_Ref_Raw(254 - i + 1);
 858:main.c        **** 				Set_Vgs_Raw(i);
 859:main.c        **** 				
 860:main.c        **** 				Measure(33, 1, 1);
 861:main.c        **** 				
 862:main.c        **** 				if (G_Stop) break;
 863:main.c        **** 				while (G_Pause);
 864:main.c        **** 			}
 865:main.c        **** 		}
 866:main.c        **** 	}
 867:main.c        **** }
 868:main.c        **** 
 869:main.c        **** void Measure_Gate_Sweep_New() {
 870:main.c        **** 	uint8 refTurn = 1;
 871:main.c        **** 	int8 refIncrement = 1;
 872:main.c        **** 	uint8 startRefIndex = 0;
 873:main.c        **** 	uint8 endRefIndex = 0;
 874:main.c        **** 	uint8 refIndex = startRefIndex;
 875:main.c        **** 	uint8 refArrived = 0;
 876:main.c        **** 	
 877:main.c        **** 	int8 gateIncrement = 1;
 878:main.c        **** 	uint8 startGateIndex = 0;
 879:main.c        **** 	uint8 endGateIndex = 0;
 880:main.c        **** 	uint8 gateIndex = startGateIndex;
ARM GAS  C:\Users\FRANKL~1\AppData\Local\Temp\ccjWonOy.s 			page 19


 881:main.c        **** 	uint8 gateArrived = 0;
 882:main.c        **** 	
 883:main.c        **** 	
 884:main.c        **** 	while (!gateArrived || !refArrived) {
 885:main.c        **** 		gateArrived = abs(gateIndex-endGateIndex) < abs(gateIncrement);
 886:main.c        **** 		refArrived = abs(refIndex-endRefIndex) < abs(refIncrement);
 887:main.c        **** 		
 888:main.c        **** 		refTurn = !refTurn;
 889:main.c        **** 		
 890:main.c        **** 		if (refTurn && refArrived) continue;
 891:main.c        **** 		if (!refTurn && gateArrived) continue;
 892:main.c        **** 		
 893:main.c        **** 		Set_Ref_Raw(refIndex);
 894:main.c        **** 		Set_Vgs_Raw(gateIndex);
 895:main.c        **** 		
 896:main.c        **** 		Measure(100, 1, 1);
 897:main.c        **** 		
 898:main.c        **** 		if (refTurn) {
 899:main.c        **** 			refIndex += refIncrement;
 900:main.c        **** 		} else {
 901:main.c        **** 			gateIndex += gateIncrement;
 902:main.c        **** 		}
 903:main.c        **** 		
 904:main.c        **** 		if (G_Stop) break;
 905:main.c        **** 		while (G_Pause);
 906:main.c        **** 	}
 907:main.c        **** }
 908:main.c        **** 
 909:main.c        **** void Scan(uint8 wide, uint8 loop) {
 910:main.c        **** 	for (uint8 device = 1; device <= CONTACT_COUNT/**//2; device++) {
 911:main.c        **** 		uint8 contact1 = device;
 912:main.c        **** 		uint8 contact2 = device + 1;
 913:main.c        **** 		uint8 intermediate1 = 1;
 914:main.c        **** 		uint8 intermediate2 = 2;
 915:main.c        **** 		
 916:main.c        **** 		Disconnect_All_Contacts_From_All_Intermediates();
 917:main.c        **** 		Zero_All_DACs();
 918:main.c        **** 		Connect_Intermediates();
 919:main.c        **** 		Connect_Contact_To_Intermediate(contact1, intermediate1);
 920:main.c        **** 		Connect_Contact_To_Intermediate(contact2, intermediate2);
 921:main.c        **** 		
 922:main.c        **** 		sprintf(TransmitBuffer, "\r\n%u\r\n", device);
 923:main.c        **** 		sendTransmitBuffer();
 924:main.c        **** 		
 925:main.c        **** 		if (wide) {
 926:main.c        **** 			Measure_Wide_Gate_Sweep(loop);
 927:main.c        **** 		} else {
 928:main.c        **** 			Measure_Gate_Sweep(loop);
 929:main.c        **** 		}
 930:main.c        **** 		
 931:main.c        **** 		if (G_Break || G_Stop) break;
 932:main.c        **** 		while (G_Pause);
 933:main.c        **** 	}
 934:main.c        **** }
 935:main.c        **** 
 936:main.c        **** void Scan_Range(uint8 startDevice, uint8 stopDevice, uint8 wide, uint8 loop) {
 937:main.c        **** 	if (startDevice >= CONTACT_COUNT) return;
ARM GAS  C:\Users\FRANKL~1\AppData\Local\Temp\ccjWonOy.s 			page 20


 938:main.c        **** 	if (stopDevice >= CONTACT_COUNT) return;
 939:main.c        **** 	
 940:main.c        **** 	for (uint8 device = startDevice; device <= stopDevice; device++) {
 941:main.c        **** 		uint8 contact1 = device;
 942:main.c        **** 		uint8 contact2 = device + 1;
 943:main.c        **** 		uint8 intermediate1 = 1;
 944:main.c        **** 		uint8 intermediate2 = 2;
 945:main.c        **** 		
 946:main.c        **** 		Disconnect_All_Contacts_From_All_Intermediates();
 947:main.c        **** 		Zero_All_DACs();
 948:main.c        **** 		Connect_Intermediates();
 949:main.c        **** 		Connect_Contact_To_Intermediate(contact1, intermediate1);
 950:main.c        **** 		Connect_Contact_To_Intermediate(contact2, intermediate2);
 951:main.c        **** 		
 952:main.c        **** 		sprintf(TransmitBuffer, "\r\n%u\r\n", device);
 953:main.c        **** 		sendTransmitBuffer();
 954:main.c        **** 		
 955:main.c        **** 		if (wide) {
 956:main.c        **** 			Measure_Wide_Gate_Sweep(loop);
 957:main.c        **** 		} else {
 958:main.c        **** 			Measure_Gate_Sweep(loop);
 959:main.c        **** 		}
 960:main.c        **** 		
 961:main.c        **** 		if (G_Break || G_Stop) break;
 962:main.c        **** 		while (G_Pause);
 963:main.c        **** 	}
 964:main.c        **** }
 965:main.c        **** 
 966:main.c        **** CY_ISR (CommunicationHandlerISR) {
 109              		.loc 2 966 0
 110              		.cfi_startproc
 111              		@ args = 0, pretend = 0, frame = 64
 112              		@ frame_needed = 0, uses_anonymous_args = 0
 113 0000 30B5     		push	{r4, r5, lr}
 114              		.cfi_def_cfa_offset 12
 115              		.cfi_offset 4, -12
 116              		.cfi_offset 5, -8
 117              		.cfi_offset 14, -4
 118 0002 91B0     		sub	sp, sp, #68
 119              		.cfi_def_cfa_offset 80
 967:main.c        **** 	if (USBUARTH_DataIsReady()) {
 120              		.loc 2 967 0
 121 0004 FFF7FEFF 		bl	USBUARTH_DataIsReady
 122              	.LVL8:
 123 0008 0028     		cmp	r0, #0
 124 000a 37D0     		beq	.L10
 125              	.LBB2:
 968:main.c        **** 		// USBUARTH_Receive_Until(UART_Receive_Buffer, USBUART_BUFFER_SIZE, "\r");
 969:main.c        **** 		
 970:main.c        **** 		char temp_buffer[USBUART_BUFFER_SIZE];
 971:main.c        **** 		uint8 temp_count = USBUART_GetAll((uint8*) temp_buffer);
 126              		.loc 2 971 0
 127 000c 6846     		mov	r0, sp
 128 000e FFF7FEFF 		bl	USBUART_GetAll
 129              	.LVL9:
 130 0012 C0B2     		uxtb	r0, r0
 131              	.LVL10:
ARM GAS  C:\Users\FRANKL~1\AppData\Local\Temp\ccjWonOy.s 			page 21


 132              	.LBB3:
 972:main.c        **** 		
 973:main.c        **** 		for (uint8 i = 0; i < temp_count; i++) {
 133              		.loc 2 973 0
 134 0014 0023     		movs	r3, #0
 135 0016 2EE0     		b	.L11
 136              	.LVL11:
 137              	.L17:
 138              	.LBB4:
 974:main.c        **** 			char c = temp_buffer[i];
 139              		.loc 2 974 0
 140 0018 10AA     		add	r2, sp, #64
 141 001a 1A44     		add	r2, r2, r3
 142 001c 12F8402C 		ldrb	r2, [r2, #-64]	@ zero_extendqisi2
 143              	.LVL12:
 975:main.c        **** 			
 976:main.c        **** 			USBUART_Receive_Buffer[USBUART_Rx_Position] = c;
 144              		.loc 2 976 0
 145 0020 5949     		ldr	r1, .L31
 146 0022 0978     		ldrb	r1, [r1]	@ zero_extendqisi2
 147 0024 C9B2     		uxtb	r1, r1
 148 0026 594C     		ldr	r4, .L31+4
 149 0028 6254     		strb	r2, [r4, r1]
 977:main.c        **** 			
 978:main.c        **** 			// sprintf(TransmitBuffer, "USB: %c\r\n", USBUART_Receive_Buffer[USBUART_Rx_Position]);
 979:main.c        **** 			// UART_1_PutString(TransmitBuffer);
 980:main.c        **** 			
 981:main.c        **** 			if (c == '\r' || c == '\n' || c == '!') {
 150              		.loc 2 981 0
 151 002a 0D2A     		cmp	r2, #13
 152 002c 03D0     		beq	.L12
 153              		.loc 2 981 0 is_stmt 0 discriminator 1
 154 002e 0A2A     		cmp	r2, #10
 155 0030 01D0     		beq	.L12
 156              		.loc 2 981 0 discriminator 2
 157 0032 212A     		cmp	r2, #33
 158 0034 10D1     		bne	.L13
 159              	.L12:
 982:main.c        **** 				USBUART_Receive_Buffer[USBUART_Rx_Position] = 0;
 160              		.loc 2 982 0 is_stmt 1
 161 0036 5449     		ldr	r1, .L31
 162 0038 0A78     		ldrb	r2, [r1]	@ zero_extendqisi2
 163              	.LVL13:
 164 003a D2B2     		uxtb	r2, r2
 165 003c 0025     		movs	r5, #0
 166 003e 534C     		ldr	r4, .L31+4
 167 0040 A554     		strb	r5, [r4, r2]
 983:main.c        **** 				if (USBUART_Rx_Position) newData = 1;
 168              		.loc 2 983 0
 169 0042 0A78     		ldrb	r2, [r1]	@ zero_extendqisi2
 170 0044 12F0FF0F 		tst	r2, #255
 171 0048 02D0     		beq	.L14
 172              		.loc 2 983 0 is_stmt 0 discriminator 1
 173 004a 0121     		movs	r1, #1
 174 004c 504A     		ldr	r2, .L31+8
 175 004e 1170     		strb	r1, [r2]
 176              	.L14:
ARM GAS  C:\Users\FRANKL~1\AppData\Local\Temp\ccjWonOy.s 			page 22


 984:main.c        **** 				USBUART_Rx_Position = 0;
 177              		.loc 2 984 0 is_stmt 1
 178 0050 0021     		movs	r1, #0
 179 0052 4D4A     		ldr	r2, .L31
 180 0054 1170     		strb	r1, [r2]
 181 0056 04E0     		b	.L15
 182              	.LVL14:
 183              	.L13:
 985:main.c        **** 			} else {
 986:main.c        **** 				USBUART_Rx_Position++;
 184              		.loc 2 986 0
 185 0058 4B49     		ldr	r1, .L31
 186 005a 0A78     		ldrb	r2, [r1]	@ zero_extendqisi2
 187              	.LVL15:
 188 005c 0132     		adds	r2, r2, #1
 189 005e D2B2     		uxtb	r2, r2
 190 0060 0A70     		strb	r2, [r1]
 191              	.L15:
 987:main.c        **** 			}
 988:main.c        **** 			
 989:main.c        **** 			if (USBUART_Rx_Position >= USBUART_BUFFER_SIZE) USBUART_Rx_Position = 0;
 192              		.loc 2 989 0
 193 0062 494A     		ldr	r2, .L31
 194 0064 1278     		ldrb	r2, [r2]	@ zero_extendqisi2
 195 0066 D2B2     		uxtb	r2, r2
 196 0068 3F2A     		cmp	r2, #63
 197 006a 02D9     		bls	.L16
 198              		.loc 2 989 0 is_stmt 0 discriminator 1
 199 006c 0021     		movs	r1, #0
 200 006e 464A     		ldr	r2, .L31
 201 0070 1170     		strb	r1, [r2]
 202              	.L16:
 203              	.LBE4:
 973:main.c        **** 			char c = temp_buffer[i];
 204              		.loc 2 973 0 is_stmt 1 discriminator 2
 205 0072 0133     		adds	r3, r3, #1
 206              	.LVL16:
 207 0074 DBB2     		uxtb	r3, r3
 208              	.LVL17:
 209              	.L11:
 973:main.c        **** 			char c = temp_buffer[i];
 210              		.loc 2 973 0 is_stmt 0 discriminator 1
 211 0076 8342     		cmp	r3, r0
 212 0078 CED3     		bcc	.L17
 213 007a 3AE0     		b	.L18
 214              	.LVL18:
 215              	.L10:
 216              	.LBE3:
 217              	.LBE2:
 990:main.c        **** 		}
 991:main.c        **** 	} else
 992:main.c        **** 	if (UART_1_GetRxBufferSize()) {
 218              		.loc 2 992 0 is_stmt 1
 219 007c FFF7FEFF 		bl	UART_1_GetRxBufferSize
 220              	.LVL19:
 221 0080 0028     		cmp	r0, #0
 222 0082 36D0     		beq	.L18
ARM GAS  C:\Users\FRANKL~1\AppData\Local\Temp\ccjWonOy.s 			page 23


 993:main.c        **** 		UART_Receive_Buffer[UART_Rx_Position] = UART_1_GetChar();
 223              		.loc 2 993 0
 224 0084 434D     		ldr	r5, .L31+12
 225 0086 2C78     		ldrb	r4, [r5]	@ zero_extendqisi2
 226 0088 E4B2     		uxtb	r4, r4
 227 008a FFF7FEFF 		bl	UART_1_GetChar
 228              	.LVL20:
 229 008e 424A     		ldr	r2, .L31+16
 230 0090 1055     		strb	r0, [r2, r4]
 994:main.c        **** 		
 995:main.c        **** 		if (UART_Receive_Buffer[UART_Rx_Position] == '\r' || UART_Receive_Buffer[UART_Rx_Position] == '\n
 231              		.loc 2 995 0
 232 0092 2B78     		ldrb	r3, [r5]	@ zero_extendqisi2
 233 0094 DBB2     		uxtb	r3, r3
 234 0096 D35C     		ldrb	r3, [r2, r3]	@ zero_extendqisi2
 235 0098 DBB2     		uxtb	r3, r3
 236 009a 0D2B     		cmp	r3, #13
 237 009c 0BD0     		beq	.L19
 238              		.loc 2 995 0 is_stmt 0 discriminator 1
 239 009e 2B78     		ldrb	r3, [r5]	@ zero_extendqisi2
 240 00a0 DBB2     		uxtb	r3, r3
 241 00a2 D35C     		ldrb	r3, [r2, r3]	@ zero_extendqisi2
 242 00a4 DBB2     		uxtb	r3, r3
 243 00a6 0A2B     		cmp	r3, #10
 244 00a8 05D0     		beq	.L19
 245              		.loc 2 995 0 discriminator 2
 246 00aa 2B78     		ldrb	r3, [r5]	@ zero_extendqisi2
 247 00ac DBB2     		uxtb	r3, r3
 248 00ae D35C     		ldrb	r3, [r2, r3]	@ zero_extendqisi2
 249 00b0 DBB2     		uxtb	r3, r3
 250 00b2 212B     		cmp	r3, #33
 251 00b4 10D1     		bne	.L20
 252              	.L19:
 996:main.c        **** 			UART_Receive_Buffer[UART_Rx_Position] = 0;
 253              		.loc 2 996 0 is_stmt 1
 254 00b6 374A     		ldr	r2, .L31+12
 255 00b8 1378     		ldrb	r3, [r2]	@ zero_extendqisi2
 256 00ba DBB2     		uxtb	r3, r3
 257 00bc 0020     		movs	r0, #0
 258 00be 3649     		ldr	r1, .L31+16
 259 00c0 C854     		strb	r0, [r1, r3]
 997:main.c        **** 			if (UART_Rx_Position) newData = 2;
 260              		.loc 2 997 0
 261 00c2 1378     		ldrb	r3, [r2]	@ zero_extendqisi2
 262 00c4 13F0FF0F 		tst	r3, #255
 263 00c8 02D0     		beq	.L21
 264              		.loc 2 997 0 is_stmt 0 discriminator 1
 265 00ca 0222     		movs	r2, #2
 266 00cc 304B     		ldr	r3, .L31+8
 267 00ce 1A70     		strb	r2, [r3]
 268              	.L21:
 998:main.c        **** 			UART_Rx_Position = 0;
 269              		.loc 2 998 0 is_stmt 1
 270 00d0 0022     		movs	r2, #0
 271 00d2 304B     		ldr	r3, .L31+12
 272 00d4 1A70     		strb	r2, [r3]
 273 00d6 04E0     		b	.L22
ARM GAS  C:\Users\FRANKL~1\AppData\Local\Temp\ccjWonOy.s 			page 24


 274              	.L20:
 999:main.c        **** 		} else {
1000:main.c        **** 			UART_Rx_Position++;
 275              		.loc 2 1000 0
 276 00d8 2E4A     		ldr	r2, .L31+12
 277 00da 1378     		ldrb	r3, [r2]	@ zero_extendqisi2
 278 00dc 0133     		adds	r3, r3, #1
 279 00de DBB2     		uxtb	r3, r3
 280 00e0 1370     		strb	r3, [r2]
 281              	.L22:
1001:main.c        **** 		}
1002:main.c        **** 		
1003:main.c        **** 		if (UART_Rx_Position >= USBUART_BUFFER_SIZE) UART_Rx_Position = 0;
 282              		.loc 2 1003 0
 283 00e2 2C4B     		ldr	r3, .L31+12
 284 00e4 1B78     		ldrb	r3, [r3]	@ zero_extendqisi2
 285 00e6 DBB2     		uxtb	r3, r3
 286 00e8 3F2B     		cmp	r3, #63
 287 00ea 02D9     		bls	.L18
 288              		.loc 2 1003 0 is_stmt 0 discriminator 1
 289 00ec 0022     		movs	r2, #0
 290 00ee 294B     		ldr	r3, .L31+12
 291 00f0 1A70     		strb	r2, [r3]
 292              	.L18:
1004:main.c        **** 	}
1005:main.c        **** 	
1006:main.c        **** 	if (newData) {
 293              		.loc 2 1006 0 is_stmt 1
 294 00f2 274B     		ldr	r3, .L31+8
 295 00f4 1B78     		ldrb	r3, [r3]	@ zero_extendqisi2
 296 00f6 13F0FF0F 		tst	r3, #255
 297 00fa 3FD0     		beq	.L23
 298              	.LVL21:
 299              	.LBB5:
1007:main.c        **** 		char* ReceiveBuffer = &USBUART_Receive_Buffer[0];
1008:main.c        **** 		if (newData == 2) ReceiveBuffer = &UART_Receive_Buffer[0];
 300              		.loc 2 1008 0
 301 00fc 244B     		ldr	r3, .L31+8
 302 00fe 1B78     		ldrb	r3, [r3]	@ zero_extendqisi2
 303 0100 DBB2     		uxtb	r3, r3
 304 0102 022B     		cmp	r3, #2
 305 0104 01D0     		beq	.L29
1007:main.c        **** 		char* ReceiveBuffer = &USBUART_Receive_Buffer[0];
 306              		.loc 2 1007 0
 307 0106 214C     		ldr	r4, .L31+4
 308 0108 00E0     		b	.L24
 309              	.L29:
 310              		.loc 2 1008 0
 311 010a 234C     		ldr	r4, .L31+16
 312              	.L24:
 313              	.LVL22:
1009:main.c        **** 		
1010:main.c        **** 		if (strstr(ReceiveBuffer, "stop ") == &ReceiveBuffer[0]) {
 314              		.loc 2 1010 0
 315 010c 2349     		ldr	r1, .L31+20
 316 010e 2046     		mov	r0, r4
 317 0110 FFF7FEFF 		bl	strstr
ARM GAS  C:\Users\FRANKL~1\AppData\Local\Temp\ccjWonOy.s 			page 25


 318              	.LVL23:
 319 0114 8442     		cmp	r4, r0
 320 0116 05D1     		bne	.L25
1011:main.c        **** 			G_Stop = 1;
 321              		.loc 2 1011 0
 322 0118 1D4B     		ldr	r3, .L31+8
 323 011a 0122     		movs	r2, #1
 324 011c 5A70     		strb	r2, [r3, #1]
1012:main.c        **** 			newData = 0;
 325              		.loc 2 1012 0
 326 011e 0022     		movs	r2, #0
 327 0120 1A70     		strb	r2, [r3]
 328 0122 2BE0     		b	.L23
 329              	.L25:
1013:main.c        **** 		} else 
1014:main.c        **** 		if (strstr(ReceiveBuffer, "break ") == &ReceiveBuffer[0]) {
 330              		.loc 2 1014 0
 331 0124 1E49     		ldr	r1, .L31+24
 332 0126 2046     		mov	r0, r4
 333 0128 FFF7FEFF 		bl	strstr
 334              	.LVL24:
 335 012c 8442     		cmp	r4, r0
 336 012e 05D1     		bne	.L26
1015:main.c        **** 			G_Break = 1;
 337              		.loc 2 1015 0
 338 0130 174B     		ldr	r3, .L31+8
 339 0132 0122     		movs	r2, #1
 340 0134 9A70     		strb	r2, [r3, #2]
1016:main.c        **** 			newData = 0;
 341              		.loc 2 1016 0
 342 0136 0022     		movs	r2, #0
 343 0138 1A70     		strb	r2, [r3]
 344 013a 1FE0     		b	.L23
 345              	.L26:
1017:main.c        **** 		} else 
1018:main.c        **** 		if (strstr(ReceiveBuffer, "pause ") == &ReceiveBuffer[0]) {
 346              		.loc 2 1018 0
 347 013c 1949     		ldr	r1, .L31+28
 348 013e 2046     		mov	r0, r4
 349 0140 FFF7FEFF 		bl	strstr
 350              	.LVL25:
 351 0144 8442     		cmp	r4, r0
 352 0146 05D1     		bne	.L27
1019:main.c        **** 			G_Pause = 1;
 353              		.loc 2 1019 0
 354 0148 114B     		ldr	r3, .L31+8
 355 014a 0122     		movs	r2, #1
 356 014c DA70     		strb	r2, [r3, #3]
1020:main.c        **** 			newData = 0;
 357              		.loc 2 1020 0
 358 014e 0022     		movs	r2, #0
 359 0150 1A70     		strb	r2, [r3]
 360 0152 13E0     		b	.L23
 361              	.L27:
1021:main.c        **** 		} else 
1022:main.c        **** 		if (strstr(ReceiveBuffer, "resume ") == &ReceiveBuffer[0]) {
 362              		.loc 2 1022 0
ARM GAS  C:\Users\FRANKL~1\AppData\Local\Temp\ccjWonOy.s 			page 26


 363 0154 1449     		ldr	r1, .L31+32
 364 0156 2046     		mov	r0, r4
 365 0158 FFF7FEFF 		bl	strstr
 366              	.LVL26:
 367 015c 8442     		cmp	r4, r0
 368 015e 04D1     		bne	.L28
1023:main.c        **** 			G_Pause = 0;
 369              		.loc 2 1023 0
 370 0160 0B4B     		ldr	r3, .L31+8
 371 0162 0022     		movs	r2, #0
 372 0164 DA70     		strb	r2, [r3, #3]
1024:main.c        **** 			newData = 0;
 373              		.loc 2 1024 0
 374 0166 1A70     		strb	r2, [r3]
 375 0168 08E0     		b	.L23
 376              	.L28:
1025:main.c        **** 		} else 
1026:main.c        **** 		if (strstr(ReceiveBuffer, "tristate ") == &ReceiveBuffer[0]) {
 377              		.loc 2 1026 0
 378 016a 1049     		ldr	r1, .L31+36
 379 016c 2046     		mov	r0, r4
 380 016e FFF7FEFF 		bl	strstr
 381              	.LVL27:
 382 0172 8442     		cmp	r4, r0
 383 0174 02D1     		bne	.L23
1027:main.c        **** 			// To do
1028:main.c        **** 			newData = 0;
 384              		.loc 2 1028 0
 385 0176 0022     		movs	r2, #0
 386 0178 054B     		ldr	r3, .L31+8
 387 017a 1A70     		strb	r2, [r3]
 388              	.LVL28:
 389              	.L23:
 390              	.LBE5:
1029:main.c        **** 		}
1030:main.c        **** 	}
1031:main.c        **** 	
1032:main.c        **** 	CommunicationInterrupt_ClearPending();
 391              		.loc 2 1032 0
 392 017c FFF7FEFF 		bl	CommunicationInterrupt_ClearPending
 393              	.LVL29:
1033:main.c        **** 	CommunicationTimer_ReadStatusRegister();
 394              		.loc 2 1033 0
 395 0180 FFF7FEFF 		bl	CommunicationTimer_ReadStatusRegister
 396              	.LVL30:
1034:main.c        **** }
 397              		.loc 2 1034 0
 398 0184 11B0     		add	sp, sp, #68
 399              		.cfi_def_cfa_offset 12
 400              		@ sp needed
 401 0186 30BD     		pop	{r4, r5, pc}
 402              	.L32:
 403              		.align	2
 404              	.L31:
 405 0188 00000000 		.word	USBUART_Rx_Position
 406 018c 00000000 		.word	USBUART_Receive_Buffer
 407 0190 00000000 		.word	.LANCHOR0
ARM GAS  C:\Users\FRANKL~1\AppData\Local\Temp\ccjWonOy.s 			page 27


 408 0194 00000000 		.word	UART_Rx_Position
 409 0198 00000000 		.word	UART_Receive_Buffer
 410 019c 00000000 		.word	.LC0
 411 01a0 08000000 		.word	.LC1
 412 01a4 10000000 		.word	.LC2
 413 01a8 18000000 		.word	.LC3
 414 01ac 20000000 		.word	.LC4
 415              		.cfi_endproc
 416              	.LFE119:
 417              		.size	CommunicationHandlerISR, .-CommunicationHandlerISR
 418              		.section	.text.USBUARTH_Send,"ax",%progbits
 419              		.align	2
 420              		.global	USBUARTH_Send
 421              		.thumb
 422              		.thumb_func
 423              		.type	USBUARTH_Send, %function
 424              	USBUARTH_Send:
 425              	.LFB66:
  39:USBUART_Helpers.h **** 
  40:USBUART_Helpers.h **** 
  41:USBUART_Helpers.h **** uint8 USBUARTH_Send(char* buffer, uint16 count) {
 426              		.loc 1 41 0
 427              		.cfi_startproc
 428              		@ args = 0, pretend = 0, frame = 0
 429              		@ frame_needed = 0, uses_anonymous_args = 0
 430              	.LVL31:
  42:USBUART_Helpers.h **** 	if (count > 0) {
 431              		.loc 1 42 0
 432 0000 49B9     		cbnz	r1, .L39
  43:USBUART_Helpers.h **** 		// Wait until component is ready to send data to host.
  44:USBUART_Helpers.h **** 		for (uint32 tries = 0; tries < 10; tries++) {
  45:USBUART_Helpers.h **** 			USBUARTH_Maintain_Configuration();
  46:USBUART_Helpers.h **** 			if (USBUART_CDCIsReady()) break;
  47:USBUART_Helpers.h **** 		}
  48:USBUART_Helpers.h ****         
  49:USBUART_Helpers.h **** 		if (!USBUART_CDCIsReady()) return 0;
  50:USBUART_Helpers.h **** 		
  51:USBUART_Helpers.h **** 		// Send data to host
  52:USBUART_Helpers.h **** 		USBUART_PutData((uint8*) buffer, count);
  53:USBUART_Helpers.h **** 		
  54:USBUART_Helpers.h **** 		/* If the last sent packet is exactly the maximum packet 
  55:USBUART_Helpers.h **** 		*  size, it is followed by a zero-length packet to assure
  56:USBUART_Helpers.h **** 		*  that the end of the segment is properly identified by 
  57:USBUART_Helpers.h **** 		*  the terminal.
  58:USBUART_Helpers.h **** 		*/
  59:USBUART_Helpers.h **** 		if (USBUART_BUFFER_SIZE == count) {
  60:USBUART_Helpers.h **** 			// Wait until component is ready to send data to PC.
  61:USBUART_Helpers.h **** 			while (!USBUART_CDCIsReady());
  62:USBUART_Helpers.h ****             
  63:USBUART_Helpers.h **** 			// Send zero-length packet to PC.
  64:USBUART_Helpers.h **** 			USBUART_PutData(NULL, 0);
  65:USBUART_Helpers.h **** 		}
  66:USBUART_Helpers.h **** 	}
  67:USBUART_Helpers.h **** 	
  68:USBUART_Helpers.h **** 	return 1;
 433              		.loc 1 68 0
 434 0002 0123     		movs	r3, #1
ARM GAS  C:\Users\FRANKL~1\AppData\Local\Temp\ccjWonOy.s 			page 28


  69:USBUART_Helpers.h **** }
 435              		.loc 1 69 0
 436 0004 1846     		mov	r0, r3
 437              	.LVL32:
 438 0006 7047     		bx	lr
 439              	.LVL33:
 440              	.L37:
 441              		.cfi_def_cfa_offset 16
 442              		.cfi_offset 4, -16
 443              		.cfi_offset 5, -12
 444              		.cfi_offset 6, -8
 445              		.cfi_offset 14, -4
 446              	.LBB6:
  45:USBUART_Helpers.h **** 			if (USBUART_CDCIsReady()) break;
 447              		.loc 1 45 0
 448 0008 FFF7FEFF 		bl	USBUARTH_Maintain_Configuration
 449              	.LVL34:
  46:USBUART_Helpers.h **** 		}
 450              		.loc 1 46 0
 451 000c FFF7FEFF 		bl	USBUART_CDCIsReady
 452              	.LVL35:
 453 0010 38B9     		cbnz	r0, .L36
  44:USBUART_Helpers.h **** 			USBUARTH_Maintain_Configuration();
 454              		.loc 1 44 0 discriminator 2
 455 0012 0134     		adds	r4, r4, #1
 456              	.LVL36:
 457 0014 03E0     		b	.L34
 458              	.LVL37:
 459              	.L39:
 460              		.cfi_def_cfa_offset 0
 461              		.cfi_restore 4
 462              		.cfi_restore 5
 463              		.cfi_restore 6
 464              		.cfi_restore 14
 465              	.LBE6:
  41:USBUART_Helpers.h **** 	if (count > 0) {
 466              		.loc 1 41 0
 467 0016 70B5     		push	{r4, r5, r6, lr}
 468              		.cfi_def_cfa_offset 16
 469              		.cfi_offset 4, -16
 470              		.cfi_offset 5, -12
 471              		.cfi_offset 6, -8
 472              		.cfi_offset 14, -4
 473 0018 0D46     		mov	r5, r1
 474 001a 0646     		mov	r6, r0
 475 001c 0024     		movs	r4, #0
 476              	.LVL38:
 477              	.L34:
 478              	.LBB7:
  44:USBUART_Helpers.h **** 			USBUARTH_Maintain_Configuration();
 479              		.loc 1 44 0 discriminator 1
 480 001e 092C     		cmp	r4, #9
 481 0020 F2D9     		bls	.L37
 482              	.L36:
 483              	.LBE7:
  49:USBUART_Helpers.h **** 		
 484              		.loc 1 49 0
ARM GAS  C:\Users\FRANKL~1\AppData\Local\Temp\ccjWonOy.s 			page 29


 485 0022 FFF7FEFF 		bl	USBUART_CDCIsReady
 486              	.LVL39:
 487 0026 0346     		mov	r3, r0
 488 0028 80B1     		cbz	r0, .L35
  52:USBUART_Helpers.h **** 		
 489              		.loc 1 52 0
 490 002a 2946     		mov	r1, r5
 491 002c 3046     		mov	r0, r6
 492 002e FFF7FEFF 		bl	USBUART_PutData
 493              	.LVL40:
  59:USBUART_Helpers.h **** 			// Wait until component is ready to send data to PC.
 494              		.loc 1 59 0
 495 0032 402D     		cmp	r5, #64
 496 0034 09D1     		bne	.L40
 497              	.L38:
  61:USBUART_Helpers.h ****             
 498              		.loc 1 61 0 discriminator 1
 499 0036 FFF7FEFF 		bl	USBUART_CDCIsReady
 500              	.LVL41:
 501 003a 0028     		cmp	r0, #0
 502 003c FBD0     		beq	.L38
  64:USBUART_Helpers.h **** 		}
 503              		.loc 1 64 0
 504 003e 0021     		movs	r1, #0
 505 0040 0846     		mov	r0, r1
 506 0042 FFF7FEFF 		bl	USBUART_PutData
 507              	.LVL42:
  68:USBUART_Helpers.h **** }
 508              		.loc 1 68 0
 509 0046 0123     		movs	r3, #1
 510 0048 00E0     		b	.L35
 511              	.L40:
 512 004a 0123     		movs	r3, #1
 513              	.L35:
 514              		.loc 1 69 0
 515 004c 1846     		mov	r0, r3
 516 004e 70BD     		pop	{r4, r5, r6, pc}
 517              		.cfi_endproc
 518              	.LFE66:
 519              		.size	USBUARTH_Send, .-USBUARTH_Send
 520              		.section	.text.USBUARTH_Receive,"ax",%progbits
 521              		.align	2
 522              		.global	USBUARTH_Receive
 523              		.thumb
 524              		.thumb_func
 525              		.type	USBUARTH_Receive, %function
 526              	USBUARTH_Receive:
 527              	.LFB67:
  70:USBUART_Helpers.h **** 
  71:USBUART_Helpers.h **** uint8 USBUARTH_Receive(char* buffer, uint16* count) {
 528              		.loc 1 71 0
 529              		.cfi_startproc
 530              		@ args = 0, pretend = 0, frame = 0
 531              		@ frame_needed = 0, uses_anonymous_args = 0
 532              	.LVL43:
 533 0000 38B5     		push	{r3, r4, r5, lr}
 534              		.cfi_def_cfa_offset 16
ARM GAS  C:\Users\FRANKL~1\AppData\Local\Temp\ccjWonOy.s 			page 30


 535              		.cfi_offset 3, -16
 536              		.cfi_offset 4, -12
 537              		.cfi_offset 5, -8
 538              		.cfi_offset 14, -4
 539 0002 0446     		mov	r4, r0
 540 0004 0D46     		mov	r5, r1
  72:USBUART_Helpers.h **** 	// Wait for input data from host
  73:USBUART_Helpers.h **** 	while (!USBUART_DataIsReady()) USBUARTH_Maintain_Configuration();
 541              		.loc 1 73 0
 542 0006 01E0     		b	.L43
 543              	.LVL44:
 544              	.L44:
 545              		.loc 1 73 0 is_stmt 0 discriminator 2
 546 0008 FFF7FEFF 		bl	USBUARTH_Maintain_Configuration
 547              	.LVL45:
 548              	.L43:
 549              		.loc 1 73 0 discriminator 1
 550 000c FFF7FEFF 		bl	USBUART_DataIsReady
 551              	.LVL46:
 552 0010 0028     		cmp	r0, #0
 553 0012 F9D0     		beq	.L44
  74:USBUART_Helpers.h **** 	
  75:USBUART_Helpers.h **** 	// Read received data and re-enable OUT endpoint.
  76:USBUART_Helpers.h **** 	*count = USBUART_GetAll((uint8*) buffer);
 554              		.loc 1 76 0 is_stmt 1
 555 0014 2046     		mov	r0, r4
 556 0016 FFF7FEFF 		bl	USBUART_GetAll
 557              	.LVL47:
 558 001a 2880     		strh	r0, [r5]	@ movhi
  77:USBUART_Helpers.h **** 	
  78:USBUART_Helpers.h **** 	buffer[*count] = 0;
 559              		.loc 1 78 0
 560 001c 0023     		movs	r3, #0
 561 001e 2354     		strb	r3, [r4, r0]
  79:USBUART_Helpers.h **** 	
  80:USBUART_Helpers.h **** 	return 1u;
  81:USBUART_Helpers.h **** }
 562              		.loc 1 81 0
 563 0020 0120     		movs	r0, #1
 564 0022 38BD     		pop	{r3, r4, r5, pc}
 565              		.cfi_endproc
 566              	.LFE67:
 567              		.size	USBUARTH_Receive, .-USBUARTH_Receive
 568              		.section	.text.USBUARTH_GetChar,"ax",%progbits
 569              		.align	2
 570              		.global	USBUARTH_GetChar
 571              		.thumb
 572              		.thumb_func
 573              		.type	USBUARTH_GetChar, %function
 574              	USBUARTH_GetChar:
 575              	.LFB68:
  82:USBUART_Helpers.h **** 
  83:USBUART_Helpers.h **** char USBUARTH_GetChar() {
 576              		.loc 1 83 0
 577              		.cfi_startproc
 578              		@ args = 0, pretend = 0, frame = 0
 579              		@ frame_needed = 0, uses_anonymous_args = 0
ARM GAS  C:\Users\FRANKL~1\AppData\Local\Temp\ccjWonOy.s 			page 31


 580 0000 08B5     		push	{r3, lr}
 581              		.cfi_def_cfa_offset 8
 582              		.cfi_offset 3, -8
 583              		.cfi_offset 14, -4
  84:USBUART_Helpers.h **** 	while (!USBUART_DataIsReady()) USBUARTH_Maintain_Configuration();
 584              		.loc 1 84 0
 585 0002 01E0     		b	.L47
 586              	.L48:
 587              		.loc 1 84 0 is_stmt 0 discriminator 2
 588 0004 FFF7FEFF 		bl	USBUARTH_Maintain_Configuration
 589              	.LVL48:
 590              	.L47:
 591              		.loc 1 84 0 discriminator 1
 592 0008 FFF7FEFF 		bl	USBUART_DataIsReady
 593              	.LVL49:
 594 000c 0028     		cmp	r0, #0
 595 000e F9D0     		beq	.L48
  85:USBUART_Helpers.h **** 	
  86:USBUART_Helpers.h **** 	return USBUART_GetChar();
 596              		.loc 1 86 0 is_stmt 1
 597 0010 FFF7FEFF 		bl	USBUART_GetChar
 598              	.LVL50:
  87:USBUART_Helpers.h **** }
 599              		.loc 1 87 0
 600 0014 08BD     		pop	{r3, pc}
 601              		.cfi_endproc
 602              	.LFE68:
 603              		.size	USBUARTH_GetChar, .-USBUARTH_GetChar
 604 0016 00BF     		.section	.text.USBUARTH_Receive_Until,"ax",%progbits
 605              		.align	2
 606              		.global	USBUARTH_Receive_Until
 607              		.thumb
 608              		.thumb_func
 609              		.type	USBUARTH_Receive_Until, %function
 610              	USBUARTH_Receive_Until:
 611              	.LFB69:
  88:USBUART_Helpers.h **** 
  89:USBUART_Helpers.h **** uint8 USBUARTH_Receive_Until(char* buffer, uint16 maxLength, const char* termination) {
 612              		.loc 1 89 0
 613              		.cfi_startproc
 614              		@ args = 0, pretend = 0, frame = 0
 615              		@ frame_needed = 0, uses_anonymous_args = 0
 616              	.LVL51:
 617 0000 2DE9F041 		push	{r4, r5, r6, r7, r8, lr}
 618              		.cfi_def_cfa_offset 24
 619              		.cfi_offset 4, -24
 620              		.cfi_offset 5, -20
 621              		.cfi_offset 6, -16
 622              		.cfi_offset 7, -12
 623              		.cfi_offset 8, -8
 624              		.cfi_offset 14, -4
 625 0004 0546     		mov	r5, r0
 626 0006 0E46     		mov	r6, r1
 627 0008 1746     		mov	r7, r2
 628              	.LVL52:
 629              	.LBB8:
  90:USBUART_Helpers.h **** 	for (uint16 i = 0; i < maxLength; i++) {
ARM GAS  C:\Users\FRANKL~1\AppData\Local\Temp\ccjWonOy.s 			page 32


 630              		.loc 1 90 0
 631 000a 0023     		movs	r3, #0
 632 000c 03E0     		b	.L51
 633              	.LVL53:
 634              	.L52:
  91:USBUART_Helpers.h **** 		buffer[i] = 0;
 635              		.loc 1 91 0 discriminator 3
 636 000e 0022     		movs	r2, #0
 637 0010 EA54     		strb	r2, [r5, r3]
  90:USBUART_Helpers.h **** 	for (uint16 i = 0; i < maxLength; i++) {
 638              		.loc 1 90 0 discriminator 3
 639 0012 0133     		adds	r3, r3, #1
 640              	.LVL54:
 641 0014 9BB2     		uxth	r3, r3
 642              	.LVL55:
 643              	.L51:
  90:USBUART_Helpers.h **** 	for (uint16 i = 0; i < maxLength; i++) {
 644              		.loc 1 90 0 is_stmt 0 discriminator 1
 645 0016 B342     		cmp	r3, r6
 646 0018 F9D3     		bcc	.L52
 647 001a 0024     		movs	r4, #0
 648 001c 16E0     		b	.L53
 649              	.LVL56:
 650              	.L56:
 651              	.LBE8:
 652              	.LBB9:
  92:USBUART_Helpers.h **** 	}
  93:USBUART_Helpers.h **** 	
  94:USBUART_Helpers.h **** 	for (uint16 i = 0; i < maxLength - 1; i++) {
  95:USBUART_Helpers.h **** 		buffer[i] = USBUARTH_GetChar();
 653              		.loc 1 95 0 is_stmt 1
 654 001e FFF7FEFF 		bl	USBUARTH_GetChar
 655              	.LVL57:
 656 0022 2855     		strb	r0, [r5, r4]
  96:USBUART_Helpers.h **** 		buffer[i+1] = 0;
 657              		.loc 1 96 0
 658 0024 631C     		adds	r3, r4, #1
 659 0026 0022     		movs	r2, #0
 660 0028 EA54     		strb	r2, [r5, r3]
  97:USBUART_Helpers.h **** 		
  98:USBUART_Helpers.h **** 		if (strstr(buffer, termination)) {
 661              		.loc 1 98 0
 662 002a 3946     		mov	r1, r7
 663 002c 2846     		mov	r0, r5
 664 002e FFF7FEFF 		bl	strstr
 665              	.LVL58:
 666 0032 48B1     		cbz	r0, .L54
  99:USBUART_Helpers.h **** 			buffer[i + 1 - strlen(termination)] = 0;
 667              		.loc 1 99 0
 668 0034 3846     		mov	r0, r7
 669 0036 FFF7FEFF 		bl	strlen
 670              	.LVL59:
 671 003a 201A     		subs	r0, r4, r0
 672 003c 0130     		adds	r0, r0, #1
 673 003e 0023     		movs	r3, #0
 674 0040 2B54     		strb	r3, [r5, r0]
 100:USBUART_Helpers.h **** 			return 1;
ARM GAS  C:\Users\FRANKL~1\AppData\Local\Temp\ccjWonOy.s 			page 33


 675              		.loc 1 100 0
 676 0042 0120     		movs	r0, #1
 677 0044 BDE8F081 		pop	{r4, r5, r6, r7, r8, pc}
 678              	.LVL60:
 679              	.L54:
  94:USBUART_Helpers.h **** 		buffer[i] = USBUARTH_GetChar();
 680              		.loc 1 94 0 discriminator 2
 681 0048 0134     		adds	r4, r4, #1
 682              	.LVL61:
 683 004a A4B2     		uxth	r4, r4
 684              	.LVL62:
 685              	.L53:
  94:USBUART_Helpers.h **** 		buffer[i] = USBUARTH_GetChar();
 686              		.loc 1 94 0 is_stmt 0 discriminator 1
 687 004c 731E     		subs	r3, r6, #1
 688 004e 9C42     		cmp	r4, r3
 689 0050 E5DB     		blt	.L56
 690              	.LBE9:
 101:USBUART_Helpers.h **** 		}
 102:USBUART_Helpers.h **** 	}
 103:USBUART_Helpers.h **** 	
 104:USBUART_Helpers.h **** 	return 0;
 691              		.loc 1 104 0 is_stmt 1
 692 0052 0020     		movs	r0, #0
 105:USBUART_Helpers.h **** }
 693              		.loc 1 105 0
 694 0054 BDE8F081 		pop	{r4, r5, r6, r7, r8, pc}
 695              		.cfi_endproc
 696              	.LFE69:
 697              		.size	USBUARTH_Receive_Until, .-USBUARTH_Receive_Until
 698              		.section	.text.sendTransmitBuffer,"ax",%progbits
 699              		.align	2
 700              		.global	sendTransmitBuffer
 701              		.thumb
 702              		.thumb_func
 703              		.type	sendTransmitBuffer, %function
 704              	sendTransmitBuffer:
 705              	.LFB70:
  61:main.c        **** 	if (usbuSendingEnabled) USBUARTH_Send(TransmitBuffer, strlen(TransmitBuffer));
 706              		.loc 2 61 0
 707              		.cfi_startproc
 708              		@ args = 0, pretend = 0, frame = 0
 709              		@ frame_needed = 0, uses_anonymous_args = 0
 710 0000 10B5     		push	{r4, lr}
 711              		.cfi_def_cfa_offset 8
 712              		.cfi_offset 4, -8
 713              		.cfi_offset 14, -4
  62:main.c        **** 	if (uartSendingEnabled) UART_1_PutString(TransmitBuffer);
 714              		.loc 2 62 0
 715 0002 094B     		ldr	r3, .L62
 716 0004 1B78     		ldrb	r3, [r3]	@ zero_extendqisi2
 717 0006 3BB1     		cbz	r3, .L59
  62:main.c        **** 	if (uartSendingEnabled) UART_1_PutString(TransmitBuffer);
 718              		.loc 2 62 0 is_stmt 0 discriminator 1
 719 0008 084C     		ldr	r4, .L62+4
 720 000a 2046     		mov	r0, r4
 721 000c FFF7FEFF 		bl	strlen
ARM GAS  C:\Users\FRANKL~1\AppData\Local\Temp\ccjWonOy.s 			page 34


 722              	.LVL63:
 723 0010 81B2     		uxth	r1, r0
 724 0012 2046     		mov	r0, r4
 725 0014 FFF7FEFF 		bl	USBUARTH_Send
 726              	.LVL64:
 727              	.L59:
  63:main.c        **** }
 728              		.loc 2 63 0 is_stmt 1
 729 0018 034B     		ldr	r3, .L62
 730 001a 5B78     		ldrb	r3, [r3, #1]	@ zero_extendqisi2
 731 001c 13B1     		cbz	r3, .L58
  63:main.c        **** }
 732              		.loc 2 63 0 is_stmt 0 discriminator 1
 733 001e 0348     		ldr	r0, .L62+4
 734 0020 FFF7FEFF 		bl	UART_1_PutString
 735              	.LVL65:
 736              	.L58:
 737 0024 10BD     		pop	{r4, pc}
 738              	.L63:
 739 0026 00BF     		.align	2
 740              	.L62:
 741 0028 00000000 		.word	.LANCHOR1
 742 002c 00000000 		.word	TransmitBuffer
 743              		.cfi_endproc
 744              	.LFE70:
 745              		.size	sendTransmitBuffer, .-sendTransmitBuffer
 746              		.section	.text.Setup_Selector_I2C_Struct,"ax",%progbits
 747              		.align	2
 748              		.global	Setup_Selector_I2C_Struct
 749              		.thumb
 750              		.thumb_func
 751              		.type	Setup_Selector_I2C_Struct, %function
 752              	Setup_Selector_I2C_Struct:
 753              	.LFB71:
  66:main.c        **** 	selector->write.subAddress = 1;
 754              		.loc 2 66 0 is_stmt 1
 755              		.cfi_startproc
 756              		@ args = 0, pretend = 0, frame = 0
 757              		@ frame_needed = 0, uses_anonymous_args = 0
 758              		@ link register save eliminated.
 759              	.LVL66:
  67:main.c        **** 	selector->read.subAddress = sizeof(selector->write) + 1;
 760              		.loc 2 67 0
 761 0000 0123     		movs	r3, #1
 762 0002 0370     		strb	r3, [r0]
  68:main.c        **** 	
 763              		.loc 2 68 0
 764 0004 8023     		movs	r3, #128
 765 0006 80F87F30 		strb	r3, [r0, #127]
 766              	.LVL67:
 767              	.LBB10:
  70:main.c        **** 		selector->write.data[i] = i + 6;
 768              		.loc 2 70 0
 769 000a 0023     		movs	r3, #0
 770 000c 04E0     		b	.L65
 771              	.LVL68:
 772              	.L66:
ARM GAS  C:\Users\FRANKL~1\AppData\Local\Temp\ccjWonOy.s 			page 35


  71:main.c        **** 	}
 773              		.loc 2 71 0 discriminator 3
 774 000e C218     		adds	r2, r0, r3
 775 0010 991D     		adds	r1, r3, #6
 776 0012 5170     		strb	r1, [r2, #1]
  70:main.c        **** 		selector->write.data[i] = i + 6;
 777              		.loc 2 70 0 discriminator 3
 778 0014 0133     		adds	r3, r3, #1
 779              	.LVL69:
 780 0016 9BB2     		uxth	r3, r3
 781              	.LVL70:
 782              	.L65:
  70:main.c        **** 		selector->write.data[i] = i + 6;
 783              		.loc 2 70 0 is_stmt 0 discriminator 1
 784 0018 7D2B     		cmp	r3, #125
 785 001a F8D9     		bls	.L66
 786 001c 0023     		movs	r3, #0
 787              	.LVL71:
 788 001e 05E0     		b	.L67
 789              	.LVL72:
 790              	.L68:
 791              	.LBE10:
 792              	.LBB11:
  74:main.c        **** 	}
 793              		.loc 2 74 0 is_stmt 1 discriminator 3
 794 0020 C218     		adds	r2, r0, r3
 795 0022 BE21     		movs	r1, #190
 796 0024 82F88010 		strb	r1, [r2, #128]
  73:main.c        **** 		selector->read.data[i] = 0xbe;
 797              		.loc 2 73 0 discriminator 3
 798 0028 0133     		adds	r3, r3, #1
 799              	.LVL73:
 800 002a 9BB2     		uxth	r3, r3
 801              	.LVL74:
 802              	.L67:
  73:main.c        **** 		selector->read.data[i] = 0xbe;
 803              		.loc 2 73 0 is_stmt 0 discriminator 1
 804 002c 7D2B     		cmp	r3, #125
 805 002e F7D9     		bls	.L68
 806              	.LBE11:
  76:main.c        **** 
 807              		.loc 2 76 0 is_stmt 1
 808 0030 7047     		bx	lr
 809              		.cfi_endproc
 810              	.LFE71:
 811              		.size	Setup_Selector_I2C_Struct, .-Setup_Selector_I2C_Struct
 812              		.global	__aeabi_dcmpge
 813              		.global	__aeabi_ui2d
 814              		.global	__aeabi_dcmplt
 815 0032 00BF     		.section	.text.Update_Selector,"ax",%progbits
 816              		.align	2
 817              		.global	Update_Selector
 818              		.thumb
 819              		.thumb_func
 820              		.type	Update_Selector, %function
 821              	Update_Selector:
 822              	.LFB72:
ARM GAS  C:\Users\FRANKL~1\AppData\Local\Temp\ccjWonOy.s 			page 36


  78:main.c        **** 	sprintf(TransmitBuffer, "Updating Selector %u\r\n", selectori + 1);
 823              		.loc 2 78 0
 824              		.cfi_startproc
 825              		@ args = 0, pretend = 0, frame = 0
 826              		@ frame_needed = 0, uses_anonymous_args = 0
 827              	.LVL75:
 828 0000 2DE9F041 		push	{r4, r5, r6, r7, r8, lr}
 829              		.cfi_def_cfa_offset 24
 830              		.cfi_offset 4, -24
 831              		.cfi_offset 5, -20
 832              		.cfi_offset 6, -16
 833              		.cfi_offset 7, -12
 834              		.cfi_offset 8, -8
 835              		.cfi_offset 14, -4
 836 0004 0446     		mov	r4, r0
  79:main.c        **** 	sendTransmitBuffer();
 837              		.loc 2 79 0
 838 0006 00F10108 		add	r8, r0, #1
 839 000a 4246     		mov	r2, r8
 840 000c 3E49     		ldr	r1, .L80+16
 841 000e 3F48     		ldr	r0, .L80+20
 842              	.LVL76:
 843 0010 FFF7FEFF 		bl	sprintf
 844              	.LVL77:
  80:main.c        **** 	
 845              		.loc 2 80 0
 846 0014 FFF7FEFF 		bl	sendTransmitBuffer
 847              	.LVL78:
  84:main.c        **** 	I2C_1_MasterWriteBuf(selector->busAddress, (uint8 *) &selector->write, sizeof(selector->write), I2
 848              		.loc 2 84 0
 849 0018 FFF7FEFF 		bl	I2C_1_MasterClearStatus
 850              	.LVL79:
  85:main.c        **** 	for (uint32 i = 0; i < 4e5; i++) {
 851              		.loc 2 85 0
 852 001c C4EB0424 		rsb	r4, r4, r4, lsl #8
 853              	.LVL80:
 854 0020 3B4B     		ldr	r3, .L80+24
 855 0022 1C44     		add	r4, r4, r3
 856 0024 0023     		movs	r3, #0
 857 0026 7F22     		movs	r2, #127
 858 0028 2146     		mov	r1, r4
 859 002a 94F8FE00 		ldrb	r0, [r4, #254]	@ zero_extendqisi2
 860 002e FFF7FEFF 		bl	I2C_1_MasterWriteBuf
 861              	.LVL81:
 862              	.LBB12:
  86:main.c        **** 		if ((I2C_1_MasterStatus() & I2C_1_MSTAT_WR_CMPLT)) break;
 863              		.loc 2 86 0
 864 0032 0024     		movs	r4, #0
 865 0034 23E0     		b	.L70
 866              	.LVL82:
 867              	.L75:
  87:main.c        **** 		if (i >= 4e5 - 1) {
 868              		.loc 2 87 0
 869 0036 FFF7FEFF 		bl	I2C_1_MasterStatus
 870              	.LVL83:
 871 003a 10F0020F 		tst	r0, #2
 872 003e 2AD1     		bne	.L71
ARM GAS  C:\Users\FRANKL~1\AppData\Local\Temp\ccjWonOy.s 			page 37


  88:main.c        **** 			sprintf(TransmitBuffer, "I2C Transfer Error! Type: Timeout\r\n");
 873              		.loc 2 88 0
 874 0040 2DA3     		adr	r3, .L80
 875 0042 D3E90023 		ldrd	r2, [r3]
 876 0046 3046     		mov	r0, r6
 877 0048 3946     		mov	r1, r7
 878 004a FFF7FEFF 		bl	__aeabi_dcmpge
 879              	.LVL84:
 880 004e A8B1     		cbz	r0, .L72
  89:main.c        **** 			sendTransmitBuffer();
 881              		.loc 2 89 0
 882 0050 304F     		ldr	r7, .L80+28
 883 0052 2E4D     		ldr	r5, .L80+20
 884 0054 07F1200E 		add	lr, r7, #32
 885              	.L74:
 886 0058 3E46     		mov	r6, r7
 887 005a 0FCE     		ldmia	r6!, {r0, r1, r2, r3}
 888 005c 2860     		str	r0, [r5]	@ unaligned
 889 005e 6960     		str	r1, [r5, #4]	@ unaligned
 890 0060 AA60     		str	r2, [r5, #8]	@ unaligned
 891 0062 EB60     		str	r3, [r5, #12]	@ unaligned
 892 0064 3746     		mov	r7, r6
 893 0066 1035     		adds	r5, r5, #16
 894 0068 7645     		cmp	r6, lr
 895 006a F5D1     		bne	.L74
 896 006c 3068     		ldr	r0, [r6]	@ unaligned
 897 006e 2860     		str	r0, [r5]	@ unaligned
  90:main.c        **** 			I2C_1_Stop();
 898              		.loc 2 90 0
 899 0070 FFF7FEFF 		bl	sendTransmitBuffer
 900              	.LVL85:
  91:main.c        **** 			I2C_1_Start();
 901              		.loc 2 91 0
 902 0074 FFF7FEFF 		bl	I2C_1_Stop
 903              	.LVL86:
  92:main.c        **** 		}
 904              		.loc 2 92 0
 905 0078 FFF7FEFF 		bl	I2C_1_Start
 906              	.LVL87:
 907              	.L72:
  86:main.c        **** 		if ((I2C_1_MasterStatus() & I2C_1_MSTAT_WR_CMPLT)) break;
 908              		.loc 2 86 0 discriminator 2
 909 007c 0134     		adds	r4, r4, #1
 910              	.LVL88:
 911              	.L70:
  86:main.c        **** 		if ((I2C_1_MasterStatus() & I2C_1_MSTAT_WR_CMPLT)) break;
 912              		.loc 2 86 0 is_stmt 0 discriminator 1
 913 007e 2046     		mov	r0, r4
 914 0080 FFF7FEFF 		bl	__aeabi_ui2d
 915              	.LVL89:
 916 0084 0646     		mov	r6, r0
 917 0086 0F46     		mov	r7, r1
 918 0088 1DA3     		adr	r3, .L80+8
 919 008a D3E90023 		ldrd	r2, [r3]
 920 008e FFF7FEFF 		bl	__aeabi_dcmplt
 921              	.LVL90:
 922 0092 0028     		cmp	r0, #0
ARM GAS  C:\Users\FRANKL~1\AppData\Local\Temp\ccjWonOy.s 			page 38


 923 0094 CFD1     		bne	.L75
 924              	.L71:
 925              	.LBE12:
 107:main.c        **** 		sprintf(TransmitBuffer, "I2C Transfer Error! ");
 926              		.loc 2 107 0 is_stmt 1
 927 0096 FFF7FEFF 		bl	I2C_1_MasterStatus
 928              	.LVL91:
 929 009a 10F0800F 		tst	r0, #128
 930 009e 21D0     		beq	.L76
 108:main.c        **** 		sendTransmitBuffer();
 931              		.loc 2 108 0
 932 00a0 1A4D     		ldr	r5, .L80+20
 933 00a2 1D4C     		ldr	r4, .L80+32
 934              	.LVL92:
 935 00a4 0FCC     		ldmia	r4!, {r0, r1, r2, r3}
 936 00a6 2860     		str	r0, [r5]	@ unaligned
 937 00a8 6960     		str	r1, [r5, #4]	@ unaligned
 938 00aa AA60     		str	r2, [r5, #8]	@ unaligned
 939 00ac EB60     		str	r3, [r5, #12]	@ unaligned
 940 00ae 2068     		ldr	r0, [r4]	@ unaligned
 941 00b0 2861     		str	r0, [r5, #16]	@ unaligned
 942 00b2 2379     		ldrb	r3, [r4, #4]	@ zero_extendqisi2
 943 00b4 2B75     		strb	r3, [r5, #20]
 109:main.c        **** 		
 944              		.loc 2 109 0
 945 00b6 FFF7FEFF 		bl	sendTransmitBuffer
 946              	.LVL93:
 111:main.c        **** 			sprintf(TransmitBuffer, "Type: NAK");
 947              		.loc 2 111 0
 948 00ba FFF7FEFF 		bl	I2C_1_MasterStatus
 949              	.LVL94:
 950 00be 10F0200F 		tst	r0, #32
 951 00c2 07D0     		beq	.L77
 112:main.c        **** 			sendTransmitBuffer();
 952              		.loc 2 112 0
 953 00c4 154B     		ldr	r3, .L80+36
 954 00c6 03CB     		ldmia	r3!, {r0, r1}
 955 00c8 2860     		str	r0, [r5]	@ unaligned
 956 00ca 6960     		str	r1, [r5, #4]	@ unaligned
 957 00cc 1B88     		ldrh	r3, [r3]	@ unaligned
 958 00ce 2B81     		strh	r3, [r5, #8]	@ unaligned
 113:main.c        **** 		}
 959              		.loc 2 113 0
 960 00d0 FFF7FEFF 		bl	sendTransmitBuffer
 961              	.LVL95:
 962              	.L77:
 116:main.c        **** 		sendTransmitBuffer();
 963              		.loc 2 116 0
 964 00d4 0D4B     		ldr	r3, .L80+20
 965 00d6 124A     		ldr	r2, .L80+40
 966 00d8 1188     		ldrh	r1, [r2]	@ unaligned
 967 00da 9278     		ldrb	r2, [r2, #2]	@ zero_extendqisi2
 968 00dc 1980     		strh	r1, [r3]	@ unaligned
 969 00de 9A70     		strb	r2, [r3, #2]
 117:main.c        **** 	}
 970              		.loc 2 117 0
 971 00e0 FFF7FEFF 		bl	sendTransmitBuffer
ARM GAS  C:\Users\FRANKL~1\AppData\Local\Temp\ccjWonOy.s 			page 39


 972              	.LVL96:
 973              	.L76:
 120:main.c        **** 	sendTransmitBuffer();
 974              		.loc 2 120 0
 975 00e4 4246     		mov	r2, r8
 976 00e6 0F49     		ldr	r1, .L80+44
 977 00e8 0848     		ldr	r0, .L80+20
 978 00ea FFF7FEFF 		bl	sprintf
 979              	.LVL97:
 121:main.c        **** }
 980              		.loc 2 121 0
 981 00ee FFF7FEFF 		bl	sendTransmitBuffer
 982              	.LVL98:
 983 00f2 BDE8F081 		pop	{r4, r5, r6, r7, r8, pc}
 984              	.LVL99:
 985              	.L81:
 986 00f6 00BF     		.align	3
 987              	.L80:
 988 00f8 00000000 		.word	0
 989 00fc FC691841 		.word	1092119036
 990 0100 00000000 		.word	0
 991 0104 006A1841 		.word	1092119040
 992 0108 2C000000 		.word	.LC5
 993 010c 00000000 		.word	TransmitBuffer
 994 0110 00000000 		.word	selectors
 995 0114 44000000 		.word	.LC6
 996 0118 68000000 		.word	.LC7
 997 011c 80000000 		.word	.LC8
 998 0120 8C000000 		.word	.LC9
 999 0124 90000000 		.word	.LC10
 1000              		.cfi_endproc
 1001              	.LFE72:
 1002              		.size	Update_Selector, .-Update_Selector
 1003              		.section	.text.Setup_Selectors,"ax",%progbits
 1004              		.align	2
 1005              		.global	Setup_Selectors
 1006              		.thumb
 1007              		.thumb_func
 1008              		.type	Setup_Selectors, %function
 1009              	Setup_Selectors:
 1010              	.LFB73:
 124:main.c        **** 	for (uint8 i = 0; i < SELECTOR_COUNT; i++) Setup_Selector_I2C_Struct(&selectors[i]);
 1011              		.loc 2 124 0
 1012              		.cfi_startproc
 1013              		@ args = 0, pretend = 0, frame = 0
 1014              		@ frame_needed = 0, uses_anonymous_args = 0
 1015 0000 10B5     		push	{r4, lr}
 1016              		.cfi_def_cfa_offset 8
 1017              		.cfi_offset 4, -8
 1018              		.cfi_offset 14, -4
 1019              	.LVL100:
 1020              	.LBB13:
 125:main.c        **** 	
 1021              		.loc 2 125 0
 1022 0002 0024     		movs	r4, #0
 1023 0004 07E0     		b	.L83
 1024              	.LVL101:
ARM GAS  C:\Users\FRANKL~1\AppData\Local\Temp\ccjWonOy.s 			page 40


 1025              	.L84:
 125:main.c        **** 	
 1026              		.loc 2 125 0 is_stmt 0 discriminator 3
 1027 0006 C4EB0423 		rsb	r3, r4, r4, lsl #8
 1028 000a 0B48     		ldr	r0, .L86
 1029 000c 1844     		add	r0, r0, r3
 1030 000e FFF7FEFF 		bl	Setup_Selector_I2C_Struct
 1031              	.LVL102:
 1032 0012 0134     		adds	r4, r4, #1
 1033              	.LVL103:
 1034 0014 E4B2     		uxtb	r4, r4
 1035              	.LVL104:
 1036              	.L83:
 125:main.c        **** 	
 1037              		.loc 2 125 0 discriminator 1
 1038 0016 032C     		cmp	r4, #3
 1039 0018 F5D9     		bls	.L84
 1040              	.LBE13:
 127:main.c        **** 	selectors[1].busAddress = 0x11;
 1041              		.loc 2 127 0 is_stmt 1
 1042 001a 074B     		ldr	r3, .L86
 1043 001c 6622     		movs	r2, #102
 1044 001e 83F8FE20 		strb	r2, [r3, #254]
 128:main.c        **** 	selectors[2].busAddress = 0x44;
 1045              		.loc 2 128 0
 1046 0022 1122     		movs	r2, #17
 1047 0024 83F8FD21 		strb	r2, [r3, #509]
 129:main.c        **** 	selectors[3].busAddress = 0x22;
 1048              		.loc 2 129 0
 1049 0028 4422     		movs	r2, #68
 1050 002a 83F8FC22 		strb	r2, [r3, #764]
 130:main.c        **** }
 1051              		.loc 2 130 0
 1052 002e 2222     		movs	r2, #34
 1053 0030 83F8FB23 		strb	r2, [r3, #1019]
 1054 0034 10BD     		pop	{r4, pc}
 1055              	.LVL105:
 1056              	.L87:
 1057 0036 00BF     		.align	2
 1058              	.L86:
 1059 0038 00000000 		.word	selectors
 1060              		.cfi_endproc
 1061              	.LFE73:
 1062              		.size	Setup_Selectors, .-Setup_Selectors
 1063              		.section	.text.Connect_Channel_On_Intermediate,"ax",%progbits
 1064              		.align	2
 1065              		.global	Connect_Channel_On_Intermediate
 1066              		.thumb
 1067              		.thumb_func
 1068              		.type	Connect_Channel_On_Intermediate, %function
 1069              	Connect_Channel_On_Intermediate:
 1070              	.LFB74:
 133:main.c        **** 	channel--;
 1071              		.loc 2 133 0
 1072              		.cfi_startproc
 1073              		@ args = 0, pretend = 0, frame = 0
 1074              		@ frame_needed = 0, uses_anonymous_args = 0
ARM GAS  C:\Users\FRANKL~1\AppData\Local\Temp\ccjWonOy.s 			page 41


 1075              	.LVL106:
 1076 0000 08B5     		push	{r3, lr}
 1077              		.cfi_def_cfa_offset 8
 1078              		.cfi_offset 3, -8
 1079              		.cfi_offset 14, -4
 134:main.c        **** 	intermediate--;
 1080              		.loc 2 134 0
 1081 0002 0138     		subs	r0, r0, #1
 1082              	.LVL107:
 1083 0004 C3B2     		uxtb	r3, r0
 1084              	.LVL108:
 137:main.c        **** 	if (intermediate >= INTERMEDIATE_COUNT) return;
 1085              		.loc 2 137 0
 1086 0006 212B     		cmp	r3, #33
 1087 0008 0CD8     		bhi	.L88
 1088 000a 0139     		subs	r1, r1, #1
 1089              	.LVL109:
 1090 000c C8B2     		uxtb	r0, r1
 138:main.c        **** 	
 1091              		.loc 2 138 0
 1092 000e 0328     		cmp	r0, #3
 1093 0010 08D8     		bhi	.L88
 140:main.c        **** 	Update_Selector(intermediate);
 1094              		.loc 2 140 0
 1095 0012 C0EB0022 		rsb	r2, r0, r0, lsl #8
 1096 0016 0449     		ldr	r1, .L91
 1097 0018 0A44     		add	r2, r2, r1
 1098 001a 1344     		add	r3, r3, r2
 1099              	.LVL110:
 1100 001c C022     		movs	r2, #192
 1101 001e 5A70     		strb	r2, [r3, #1]
 141:main.c        **** }
 1102              		.loc 2 141 0
 1103 0020 FFF7FEFF 		bl	Update_Selector
 1104              	.LVL111:
 1105              	.L88:
 1106 0024 08BD     		pop	{r3, pc}
 1107              	.L92:
 1108 0026 00BF     		.align	2
 1109              	.L91:
 1110 0028 00000000 		.word	selectors
 1111              		.cfi_endproc
 1112              	.LFE74:
 1113              		.size	Connect_Channel_On_Intermediate, .-Connect_Channel_On_Intermediate
 1114              		.section	.text.Disconnect_Channel_On_Intermediate,"ax",%progbits
 1115              		.align	2
 1116              		.global	Disconnect_Channel_On_Intermediate
 1117              		.thumb
 1118              		.thumb_func
 1119              		.type	Disconnect_Channel_On_Intermediate, %function
 1120              	Disconnect_Channel_On_Intermediate:
 1121              	.LFB75:
 144:main.c        **** 	channel--;
 1122              		.loc 2 144 0
 1123              		.cfi_startproc
 1124              		@ args = 0, pretend = 0, frame = 0
 1125              		@ frame_needed = 0, uses_anonymous_args = 0
ARM GAS  C:\Users\FRANKL~1\AppData\Local\Temp\ccjWonOy.s 			page 42


 1126              	.LVL112:
 1127 0000 08B5     		push	{r3, lr}
 1128              		.cfi_def_cfa_offset 8
 1129              		.cfi_offset 3, -8
 1130              		.cfi_offset 14, -4
 145:main.c        **** 	intermediate--;
 1131              		.loc 2 145 0
 1132 0002 0138     		subs	r0, r0, #1
 1133              	.LVL113:
 1134 0004 C3B2     		uxtb	r3, r0
 1135              	.LVL114:
 148:main.c        **** 	if (intermediate >= INTERMEDIATE_COUNT) return;
 1136              		.loc 2 148 0
 1137 0006 212B     		cmp	r3, #33
 1138 0008 0CD8     		bhi	.L93
 1139 000a 0139     		subs	r1, r1, #1
 1140              	.LVL115:
 1141 000c C8B2     		uxtb	r0, r1
 149:main.c        **** 	
 1142              		.loc 2 149 0
 1143 000e 0328     		cmp	r0, #3
 1144 0010 08D8     		bhi	.L93
 151:main.c        **** 	Update_Selector(intermediate);
 1145              		.loc 2 151 0
 1146 0012 C0EB0022 		rsb	r2, r0, r0, lsl #8
 1147 0016 0449     		ldr	r1, .L96
 1148 0018 0A44     		add	r2, r2, r1
 1149 001a 1344     		add	r3, r3, r2
 1150              	.LVL116:
 1151 001c D122     		movs	r2, #209
 1152 001e 5A70     		strb	r2, [r3, #1]
 152:main.c        **** }
 1153              		.loc 2 152 0
 1154 0020 FFF7FEFF 		bl	Update_Selector
 1155              	.LVL117:
 1156              	.L93:
 1157 0024 08BD     		pop	{r3, pc}
 1158              	.L97:
 1159 0026 00BF     		.align	2
 1160              	.L96:
 1161 0028 00000000 		.word	selectors
 1162              		.cfi_endproc
 1163              	.LFE75:
 1164              		.size	Disconnect_Channel_On_Intermediate, .-Disconnect_Channel_On_Intermediate
 1165              		.section	.text.Connect_Contact_To_Intermediate,"ax",%progbits
 1166              		.align	2
 1167              		.global	Connect_Contact_To_Intermediate
 1168              		.thumb
 1169              		.thumb_func
 1170              		.type	Connect_Contact_To_Intermediate, %function
 1171              	Connect_Contact_To_Intermediate:
 1172              	.LFB76:
 155:main.c        **** 	contact--;
 1173              		.loc 2 155 0
 1174              		.cfi_startproc
 1175              		@ args = 0, pretend = 0, frame = 0
 1176              		@ frame_needed = 0, uses_anonymous_args = 0
ARM GAS  C:\Users\FRANKL~1\AppData\Local\Temp\ccjWonOy.s 			page 43


 1177              	.LVL118:
 156:main.c        **** 	intermediate--;
 1178              		.loc 2 156 0
 1179 0000 0138     		subs	r0, r0, #1
 1180              	.LVL119:
 1181 0002 C0B2     		uxtb	r0, r0
 1182              	.LVL120:
 159:main.c        **** 	if (intermediate >= INTERMEDIATE_COUNT) return;
 1183              		.loc 2 159 0
 1184 0004 3F28     		cmp	r0, #63
 1185 0006 13D8     		bhi	.L103
 155:main.c        **** 	contact--;
 1186              		.loc 2 155 0
 1187 0008 08B5     		push	{r3, lr}
 1188              		.cfi_def_cfa_offset 8
 1189              		.cfi_offset 3, -8
 1190              		.cfi_offset 14, -4
 1191 000a 4B1E     		subs	r3, r1, #1
 1192 000c DBB2     		uxtb	r3, r3
 160:main.c        **** 	
 1193              		.loc 2 160 0
 1194 000e 032B     		cmp	r3, #3
 1195 0010 0DD8     		bhi	.L98
 1196              	.LVL121:
 163:main.c        **** 		offset = CONTACT_COUNT/2;
 1197              		.loc 2 163 0
 1198 0012 012B     		cmp	r3, #1
 1199 0014 03D9     		bls	.L100
 1200              	.LVL122:
 165:main.c        **** 	} else {
 1201              		.loc 2 165 0
 1202 0016 1F28     		cmp	r0, #31
 1203 0018 09D9     		bls	.L98
 164:main.c        **** 		if (contact < CONTACT_COUNT/2) return;
 1204              		.loc 2 164 0
 1205 001a 2023     		movs	r3, #32
 1206 001c 02E0     		b	.L101
 1207              	.LVL123:
 1208              	.L100:
 167:main.c        **** 	}
 1209              		.loc 2 167 0
 1210 001e 1F28     		cmp	r0, #31
 1211 0020 05D8     		bhi	.L98
 162:main.c        **** 	if (intermediate >= INTERMEDIATE_COUNT/2) {
 1212              		.loc 2 162 0
 1213 0022 0023     		movs	r3, #0
 1214              	.LVL124:
 1215              	.L101:
 170:main.c        **** }
 1216              		.loc 2 170 0
 1217 0024 C01A     		subs	r0, r0, r3
 1218              	.LVL125:
 1219 0026 0130     		adds	r0, r0, #1
 1220 0028 C0B2     		uxtb	r0, r0
 1221 002a FFF7FEFF 		bl	Connect_Channel_On_Intermediate
 1222              	.LVL126:
 1223              	.L98:
ARM GAS  C:\Users\FRANKL~1\AppData\Local\Temp\ccjWonOy.s 			page 44


 1224 002e 08BD     		pop	{r3, pc}
 1225              	.LVL127:
 1226              	.L103:
 1227              		.cfi_def_cfa_offset 0
 1228              		.cfi_restore 3
 1229              		.cfi_restore 14
 1230 0030 7047     		bx	lr
 1231              		.cfi_endproc
 1232              	.LFE76:
 1233              		.size	Connect_Contact_To_Intermediate, .-Connect_Contact_To_Intermediate
 1234 0032 00BF     		.section	.text.Disconnect_Contact_From_Intermediate,"ax",%progbits
 1235              		.align	2
 1236              		.global	Disconnect_Contact_From_Intermediate
 1237              		.thumb
 1238              		.thumb_func
 1239              		.type	Disconnect_Contact_From_Intermediate, %function
 1240              	Disconnect_Contact_From_Intermediate:
 1241              	.LFB77:
 173:main.c        **** 	contact--;
 1242              		.loc 2 173 0
 1243              		.cfi_startproc
 1244              		@ args = 0, pretend = 0, frame = 0
 1245              		@ frame_needed = 0, uses_anonymous_args = 0
 1246              	.LVL128:
 1247 0000 08B5     		push	{r3, lr}
 1248              		.cfi_def_cfa_offset 8
 1249              		.cfi_offset 3, -8
 1250              		.cfi_offset 14, -4
 174:main.c        **** 	intermediate--;
 1251              		.loc 2 174 0
 1252 0002 0138     		subs	r0, r0, #1
 1253              	.LVL129:
 1254 0004 C3B2     		uxtb	r3, r0
 1255              	.LVL130:
 177:main.c        **** 	if (intermediate >= INTERMEDIATE_COUNT) return;
 1256              		.loc 2 177 0
 1257 0006 3F2B     		cmp	r3, #63
 1258 0008 16D8     		bhi	.L104
 1259 000a 0139     		subs	r1, r1, #1
 1260              	.LVL131:
 1261 000c C8B2     		uxtb	r0, r1
 178:main.c        **** 	
 1262              		.loc 2 178 0
 1263 000e 0328     		cmp	r0, #3
 1264 0010 12D8     		bhi	.L104
 1265              	.LVL132:
 181:main.c        **** 		offset = CONTACT_COUNT/2;
 1266              		.loc 2 181 0
 1267 0012 0128     		cmp	r0, #1
 1268 0014 03D9     		bls	.L106
 1269              	.LVL133:
 183:main.c        **** 	} else {
 1270              		.loc 2 183 0
 1271 0016 1F2B     		cmp	r3, #31
 1272 0018 0ED9     		bls	.L104
 182:main.c        **** 		if (contact < CONTACT_COUNT/2) return;
 1273              		.loc 2 182 0
ARM GAS  C:\Users\FRANKL~1\AppData\Local\Temp\ccjWonOy.s 			page 45


 1274 001a 2022     		movs	r2, #32
 1275 001c 02E0     		b	.L107
 1276              	.LVL134:
 1277              	.L106:
 185:main.c        **** 	}
 1278              		.loc 2 185 0
 1279 001e 1F2B     		cmp	r3, #31
 1280 0020 0AD8     		bhi	.L104
 180:main.c        **** 	if (intermediate >= INTERMEDIATE_COUNT/2) {
 1281              		.loc 2 180 0
 1282 0022 0022     		movs	r2, #0
 1283              	.LVL135:
 1284              	.L107:
 188:main.c        **** 	
 1285              		.loc 2 188 0
 1286 0024 9B1A     		subs	r3, r3, r2
 1287              	.LVL136:
 1288 0026 C0EB0022 		rsb	r2, r0, r0, lsl #8
 1289              	.LVL137:
 1290 002a 0449     		ldr	r1, .L109
 1291 002c 0A44     		add	r2, r2, r1
 1292 002e 1344     		add	r3, r3, r2
 1293 0030 D122     		movs	r2, #209
 1294 0032 5A70     		strb	r2, [r3, #1]
 190:main.c        **** }
 1295              		.loc 2 190 0
 1296 0034 FFF7FEFF 		bl	Update_Selector
 1297              	.LVL138:
 1298              	.L104:
 1299 0038 08BD     		pop	{r3, pc}
 1300              	.L110:
 1301 003a 00BF     		.align	2
 1302              	.L109:
 1303 003c 00000000 		.word	selectors
 1304              		.cfi_endproc
 1305              	.LFE77:
 1306              		.size	Disconnect_Contact_From_Intermediate, .-Disconnect_Contact_From_Intermediate
 1307              		.section	.text.Disconnect_Contact_From_All_Intermediates,"ax",%progbits
 1308              		.align	2
 1309              		.global	Disconnect_Contact_From_All_Intermediates
 1310              		.thumb
 1311              		.thumb_func
 1312              		.type	Disconnect_Contact_From_All_Intermediates, %function
 1313              	Disconnect_Contact_From_All_Intermediates:
 1314              	.LFB78:
 193:main.c        **** 	contact--;
 1315              		.loc 2 193 0
 1316              		.cfi_startproc
 1317              		@ args = 0, pretend = 0, frame = 0
 1318              		@ frame_needed = 0, uses_anonymous_args = 0
 1319              	.LVL139:
 1320 0000 38B5     		push	{r3, r4, r5, lr}
 1321              		.cfi_def_cfa_offset 16
 1322              		.cfi_offset 3, -16
 1323              		.cfi_offset 4, -12
 1324              		.cfi_offset 5, -8
 1325              		.cfi_offset 14, -4
ARM GAS  C:\Users\FRANKL~1\AppData\Local\Temp\ccjWonOy.s 			page 46


 194:main.c        **** 	
 1326              		.loc 2 194 0
 1327 0002 0138     		subs	r0, r0, #1
 1328              	.LVL140:
 1329 0004 C5B2     		uxtb	r5, r0
 1330              	.LVL141:
 1331              	.LBB14:
 196:main.c        **** 		
 1332              		.loc 2 196 0
 1333 0006 0024     		movs	r4, #0
 1334 0008 15E0     		b	.L112
 1335              	.LVL142:
 1336              	.L116:
 1337              	.LBB15:
 199:main.c        **** 			offset = CONTACT_COUNT/2;
 1338              		.loc 2 199 0
 1339 000a 012C     		cmp	r4, #1
 1340 000c 03D9     		bls	.L113
 1341              	.LVL143:
 201:main.c        **** 		} else {
 1342              		.loc 2 201 0
 1343 000e 1F2D     		cmp	r5, #31
 1344 0010 0FD9     		bls	.L114
 200:main.c        **** 			if (contact < CONTACT_COUNT/2) continue;
 1345              		.loc 2 200 0
 1346 0012 2023     		movs	r3, #32
 1347 0014 02E0     		b	.L115
 1348              	.LVL144:
 1349              	.L113:
 203:main.c        **** 		}
 1350              		.loc 2 203 0
 1351 0016 1F2D     		cmp	r5, #31
 1352 0018 0BD8     		bhi	.L114
 198:main.c        **** 		if (intermediate >= INTERMEDIATE_COUNT/2) {
 1353              		.loc 2 198 0
 1354 001a 0023     		movs	r3, #0
 1355              	.LVL145:
 1356              	.L115:
 206:main.c        **** 		
 1357              		.loc 2 206 0
 1358 001c EA1A     		subs	r2, r5, r3
 1359 001e C4EB0423 		rsb	r3, r4, r4, lsl #8
 1360              	.LVL146:
 1361 0022 0649     		ldr	r1, .L118
 1362 0024 0B44     		add	r3, r3, r1
 1363 0026 1344     		add	r3, r3, r2
 1364 0028 D122     		movs	r2, #209
 1365 002a 5A70     		strb	r2, [r3, #1]
 208:main.c        **** 	}
 1366              		.loc 2 208 0
 1367 002c 2046     		mov	r0, r4
 1368 002e FFF7FEFF 		bl	Update_Selector
 1369              	.LVL147:
 1370              	.L114:
 1371              	.LBE15:
 196:main.c        **** 		
 1372              		.loc 2 196 0 discriminator 2
ARM GAS  C:\Users\FRANKL~1\AppData\Local\Temp\ccjWonOy.s 			page 47


 1373 0032 0134     		adds	r4, r4, #1
 1374              	.LVL148:
 1375 0034 E4B2     		uxtb	r4, r4
 1376              	.LVL149:
 1377              	.L112:
 196:main.c        **** 		
 1378              		.loc 2 196 0 is_stmt 0 discriminator 1
 1379 0036 032C     		cmp	r4, #3
 1380 0038 E7D9     		bls	.L116
 1381              	.LBE14:
 210:main.c        **** 
 1382              		.loc 2 210 0 is_stmt 1
 1383 003a 38BD     		pop	{r3, r4, r5, pc}
 1384              	.LVL150:
 1385              	.L119:
 1386              		.align	2
 1387              	.L118:
 1388 003c 00000000 		.word	selectors
 1389              		.cfi_endproc
 1390              	.LFE78:
 1391              		.size	Disconnect_Contact_From_All_Intermediates, .-Disconnect_Contact_From_All_Intermediates
 1392              		.section	.text.Disconnect_All_Contacts_From_All_Intermediates,"ax",%progbits
 1393              		.align	2
 1394              		.global	Disconnect_All_Contacts_From_All_Intermediates
 1395              		.thumb
 1396              		.thumb_func
 1397              		.type	Disconnect_All_Contacts_From_All_Intermediates, %function
 1398              	Disconnect_All_Contacts_From_All_Intermediates:
 1399              	.LFB79:
 212:main.c        **** 	for (uint8 intermediate = 0; intermediate < INTERMEDIATE_COUNT; intermediate++) {
 1400              		.loc 2 212 0
 1401              		.cfi_startproc
 1402              		@ args = 0, pretend = 0, frame = 0
 1403              		@ frame_needed = 0, uses_anonymous_args = 0
 1404 0000 10B5     		push	{r4, lr}
 1405              		.cfi_def_cfa_offset 8
 1406              		.cfi_offset 4, -8
 1407              		.cfi_offset 14, -4
 1408              	.LVL151:
 1409              	.LBB16:
 213:main.c        **** 		for (uint8 contact = 0; contact < CONTACT_COUNT/2; contact++) {
 1410              		.loc 2 213 0
 1411 0002 0024     		movs	r4, #0
 1412 0004 11E0     		b	.L121
 1413              	.LVL152:
 1414              	.L122:
 1415              	.LBB17:
 215:main.c        **** 		}
 1416              		.loc 2 215 0 discriminator 3
 1417 0006 C4EB0422 		rsb	r2, r4, r4, lsl #8
 1418 000a 0949     		ldr	r1, .L126
 1419 000c 0A44     		add	r2, r2, r1
 1420 000e 1A44     		add	r2, r2, r3
 1421 0010 D121     		movs	r1, #209
 1422 0012 5170     		strb	r1, [r2, #1]
 214:main.c        **** 			selectors[intermediate].write.data[contact] = CONTACT_DISCONNECT_CODE;
 1423              		.loc 2 214 0 discriminator 3
ARM GAS  C:\Users\FRANKL~1\AppData\Local\Temp\ccjWonOy.s 			page 48


 1424 0014 0133     		adds	r3, r3, #1
 1425              	.LVL153:
 1426 0016 DBB2     		uxtb	r3, r3
 1427              	.LVL154:
 1428 0018 00E0     		b	.L123
 1429              	.LVL155:
 1430              	.L124:
 1431              	.LBE17:
 1432 001a 0023     		movs	r3, #0
 1433              	.L123:
 1434              	.LVL156:
 1435              	.LBB18:
 214:main.c        **** 			selectors[intermediate].write.data[contact] = CONTACT_DISCONNECT_CODE;
 1436              		.loc 2 214 0 is_stmt 0 discriminator 1
 1437 001c 1F2B     		cmp	r3, #31
 1438 001e F2D9     		bls	.L122
 1439              	.LBE18:
 218:main.c        **** 	}
 1440              		.loc 2 218 0 is_stmt 1 discriminator 2
 1441 0020 2046     		mov	r0, r4
 1442 0022 FFF7FEFF 		bl	Update_Selector
 1443              	.LVL157:
 213:main.c        **** 		for (uint8 contact = 0; contact < CONTACT_COUNT/2; contact++) {
 1444              		.loc 2 213 0 discriminator 2
 1445 0026 0134     		adds	r4, r4, #1
 1446              	.LVL158:
 1447 0028 E4B2     		uxtb	r4, r4
 1448              	.LVL159:
 1449              	.L121:
 213:main.c        **** 		for (uint8 contact = 0; contact < CONTACT_COUNT/2; contact++) {
 1450              		.loc 2 213 0 is_stmt 0 discriminator 1
 1451 002a 032C     		cmp	r4, #3
 1452 002c F5D9     		bls	.L124
 1453              	.LBE16:
 220:main.c        **** 
 1454              		.loc 2 220 0 is_stmt 1
 1455 002e 10BD     		pop	{r4, pc}
 1456              	.LVL160:
 1457              	.L127:
 1458              		.align	2
 1459              	.L126:
 1460 0030 00000000 		.word	selectors
 1461              		.cfi_endproc
 1462              	.LFE79:
 1463              		.size	Disconnect_All_Contacts_From_All_Intermediates, .-Disconnect_All_Contacts_From_All_Intermedi
 1464              		.section	.text.Disconnect_All_Contacts_From_Intermediate,"ax",%progbits
 1465              		.align	2
 1466              		.global	Disconnect_All_Contacts_From_Intermediate
 1467              		.thumb
 1468              		.thumb_func
 1469              		.type	Disconnect_All_Contacts_From_Intermediate, %function
 1470              	Disconnect_All_Contacts_From_Intermediate:
 1471              	.LFB80:
 222:main.c        **** 	intermediate--;
 1472              		.loc 2 222 0
 1473              		.cfi_startproc
 1474              		@ args = 0, pretend = 0, frame = 0
ARM GAS  C:\Users\FRANKL~1\AppData\Local\Temp\ccjWonOy.s 			page 49


 1475              		@ frame_needed = 0, uses_anonymous_args = 0
 1476              	.LVL161:
 1477 0000 08B5     		push	{r3, lr}
 1478              		.cfi_def_cfa_offset 8
 1479              		.cfi_offset 3, -8
 1480              		.cfi_offset 14, -4
 223:main.c        **** 	
 1481              		.loc 2 223 0
 1482 0002 0138     		subs	r0, r0, #1
 1483              	.LVL162:
 1484 0004 C0B2     		uxtb	r0, r0
 1485              	.LVL163:
 1486              	.LBB19:
 225:main.c        **** 		selectors[intermediate].write.data[contact] = CONTACT_DISCONNECT_CODE;
 1487              		.loc 2 225 0
 1488 0006 0023     		movs	r3, #0
 1489 0008 08E0     		b	.L129
 1490              	.LVL164:
 1491              	.L130:
 226:main.c        **** 	}
 1492              		.loc 2 226 0 discriminator 3
 1493 000a C0EB0022 		rsb	r2, r0, r0, lsl #8
 1494 000e 0649     		ldr	r1, .L132
 1495 0010 0A44     		add	r2, r2, r1
 1496 0012 1A44     		add	r2, r2, r3
 1497 0014 D121     		movs	r1, #209
 1498 0016 5170     		strb	r1, [r2, #1]
 225:main.c        **** 		selectors[intermediate].write.data[contact] = CONTACT_DISCONNECT_CODE;
 1499              		.loc 2 225 0 discriminator 3
 1500 0018 0133     		adds	r3, r3, #1
 1501              	.LVL165:
 1502 001a DBB2     		uxtb	r3, r3
 1503              	.LVL166:
 1504              	.L129:
 225:main.c        **** 		selectors[intermediate].write.data[contact] = CONTACT_DISCONNECT_CODE;
 1505              		.loc 2 225 0 is_stmt 0 discriminator 1
 1506 001c 1F2B     		cmp	r3, #31
 1507 001e F4D9     		bls	.L130
 1508              	.LBE19:
 229:main.c        **** }
 1509              		.loc 2 229 0 is_stmt 1
 1510 0020 FFF7FEFF 		bl	Update_Selector
 1511              	.LVL167:
 1512 0024 08BD     		pop	{r3, pc}
 1513              	.L133:
 1514 0026 00BF     		.align	2
 1515              	.L132:
 1516 0028 00000000 		.word	selectors
 1517              		.cfi_endproc
 1518              	.LFE80:
 1519              		.size	Disconnect_All_Contacts_From_Intermediate, .-Disconnect_All_Contacts_From_Intermediate
 1520              		.section	.text.Connect_Intermediate,"ax",%progbits
 1521              		.align	2
 1522              		.global	Connect_Intermediate
 1523              		.thumb
 1524              		.thumb_func
 1525              		.type	Connect_Intermediate, %function
ARM GAS  C:\Users\FRANKL~1\AppData\Local\Temp\ccjWonOy.s 			page 50


 1526              	Connect_Intermediate:
 1527              	.LFB81:
 232:main.c        **** 	switch (intermediate) {
 1528              		.loc 2 232 0
 1529              		.cfi_startproc
 1530              		@ args = 0, pretend = 0, frame = 0
 1531              		@ frame_needed = 0, uses_anonymous_args = 0
 1532              	.LVL168:
 1533 0000 08B5     		push	{r3, lr}
 1534              		.cfi_def_cfa_offset 8
 1535              		.cfi_offset 3, -8
 1536              		.cfi_offset 14, -4
 233:main.c        **** 		case 1: Connect_Channel_On_Intermediate(33, 1); break;
 1537              		.loc 2 233 0
 1538 0002 0138     		subs	r0, r0, #1
 1539              	.LVL169:
 1540 0004 0328     		cmp	r0, #3
 1541 0006 16D8     		bhi	.L134
 1542 0008 DFE800F0 		tbb	[pc, r0]
 1543              	.L137:
 1544 000c 02       		.byte	(.L136-.L137)/2
 1545 000d 07       		.byte	(.L138-.L137)/2
 1546 000e 0C       		.byte	(.L139-.L137)/2
 1547 000f 11       		.byte	(.L140-.L137)/2
 1548              		.p2align 1
 1549              	.L136:
 234:main.c        **** 		case 2: Connect_Channel_On_Intermediate(33, 2); break;
 1550              		.loc 2 234 0
 1551 0010 0121     		movs	r1, #1
 1552 0012 2120     		movs	r0, #33
 1553 0014 FFF7FEFF 		bl	Connect_Channel_On_Intermediate
 1554              	.LVL170:
 1555 0018 08BD     		pop	{r3, pc}
 1556              	.L138:
 235:main.c        **** 		case 3: Connect_Channel_On_Intermediate(33, 3); break;
 1557              		.loc 2 235 0
 1558 001a 0221     		movs	r1, #2
 1559 001c 2120     		movs	r0, #33
 1560 001e FFF7FEFF 		bl	Connect_Channel_On_Intermediate
 1561              	.LVL171:
 1562 0022 08BD     		pop	{r3, pc}
 1563              	.L139:
 236:main.c        **** 		case 4: Connect_Channel_On_Intermediate(33, 4); break;
 1564              		.loc 2 236 0
 1565 0024 0321     		movs	r1, #3
 1566 0026 2120     		movs	r0, #33
 1567 0028 FFF7FEFF 		bl	Connect_Channel_On_Intermediate
 1568              	.LVL172:
 1569 002c 08BD     		pop	{r3, pc}
 1570              	.L140:
 237:main.c        **** 		default: return;
 1571              		.loc 2 237 0
 1572 002e 0421     		movs	r1, #4
 1573 0030 2120     		movs	r0, #33
 1574 0032 FFF7FEFF 		bl	Connect_Channel_On_Intermediate
 1575              	.LVL173:
 1576              	.L134:
ARM GAS  C:\Users\FRANKL~1\AppData\Local\Temp\ccjWonOy.s 			page 51


 1577 0036 08BD     		pop	{r3, pc}
 1578              		.cfi_endproc
 1579              	.LFE81:
 1580              		.size	Connect_Intermediate, .-Connect_Intermediate
 1581              		.section	.text.Disconnect_Intermediate,"ax",%progbits
 1582              		.align	2
 1583              		.global	Disconnect_Intermediate
 1584              		.thumb
 1585              		.thumb_func
 1586              		.type	Disconnect_Intermediate, %function
 1587              	Disconnect_Intermediate:
 1588              	.LFB82:
 242:main.c        **** 	switch (intermediate) {
 1589              		.loc 2 242 0
 1590              		.cfi_startproc
 1591              		@ args = 0, pretend = 0, frame = 0
 1592              		@ frame_needed = 0, uses_anonymous_args = 0
 1593              	.LVL174:
 1594 0000 08B5     		push	{r3, lr}
 1595              		.cfi_def_cfa_offset 8
 1596              		.cfi_offset 3, -8
 1597              		.cfi_offset 14, -4
 243:main.c        **** 		case 1: Disconnect_Channel_On_Intermediate(33, 1); break;
 1598              		.loc 2 243 0
 1599 0002 0138     		subs	r0, r0, #1
 1600              	.LVL175:
 1601 0004 0328     		cmp	r0, #3
 1602 0006 16D8     		bhi	.L142
 1603 0008 DFE800F0 		tbb	[pc, r0]
 1604              	.L145:
 1605 000c 02       		.byte	(.L144-.L145)/2
 1606 000d 07       		.byte	(.L146-.L145)/2
 1607 000e 0C       		.byte	(.L147-.L145)/2
 1608 000f 11       		.byte	(.L148-.L145)/2
 1609              		.p2align 1
 1610              	.L144:
 244:main.c        **** 		case 2: Disconnect_Channel_On_Intermediate(33, 2); break;
 1611              		.loc 2 244 0
 1612 0010 0121     		movs	r1, #1
 1613 0012 2120     		movs	r0, #33
 1614 0014 FFF7FEFF 		bl	Disconnect_Channel_On_Intermediate
 1615              	.LVL176:
 1616 0018 08BD     		pop	{r3, pc}
 1617              	.L146:
 245:main.c        **** 		case 3: Disconnect_Channel_On_Intermediate(33, 3); break;
 1618              		.loc 2 245 0
 1619 001a 0221     		movs	r1, #2
 1620 001c 2120     		movs	r0, #33
 1621 001e FFF7FEFF 		bl	Disconnect_Channel_On_Intermediate
 1622              	.LVL177:
 1623 0022 08BD     		pop	{r3, pc}
 1624              	.L147:
 246:main.c        **** 		case 4: Disconnect_Channel_On_Intermediate(33, 4); break;
 1625              		.loc 2 246 0
 1626 0024 0321     		movs	r1, #3
 1627 0026 2120     		movs	r0, #33
 1628 0028 FFF7FEFF 		bl	Disconnect_Channel_On_Intermediate
ARM GAS  C:\Users\FRANKL~1\AppData\Local\Temp\ccjWonOy.s 			page 52


 1629              	.LVL178:
 1630 002c 08BD     		pop	{r3, pc}
 1631              	.L148:
 247:main.c        **** 		default: return;
 1632              		.loc 2 247 0
 1633 002e 0421     		movs	r1, #4
 1634 0030 2120     		movs	r0, #33
 1635 0032 FFF7FEFF 		bl	Disconnect_Channel_On_Intermediate
 1636              	.LVL179:
 1637              	.L142:
 1638 0036 08BD     		pop	{r3, pc}
 1639              		.cfi_endproc
 1640              	.LFE82:
 1641              		.size	Disconnect_Intermediate, .-Disconnect_Intermediate
 1642              		.section	.text.Connect_Intermediates,"ax",%progbits
 1643              		.align	2
 1644              		.global	Connect_Intermediates
 1645              		.thumb
 1646              		.thumb_func
 1647              		.type	Connect_Intermediates, %function
 1648              	Connect_Intermediates:
 1649              	.LFB83:
 252:main.c        **** 	for (uint8 i = 1; i <= INTERMEDIATE_COUNT; i++) {
 1650              		.loc 2 252 0
 1651              		.cfi_startproc
 1652              		@ args = 0, pretend = 0, frame = 0
 1653              		@ frame_needed = 0, uses_anonymous_args = 0
 1654 0000 10B5     		push	{r4, lr}
 1655              		.cfi_def_cfa_offset 8
 1656              		.cfi_offset 4, -8
 1657              		.cfi_offset 14, -4
 1658              	.LVL180:
 1659              	.LBB20:
 253:main.c        **** 		Connect_Intermediate(i);
 1660              		.loc 2 253 0
 1661 0002 0124     		movs	r4, #1
 1662 0004 04E0     		b	.L151
 1663              	.LVL181:
 1664              	.L152:
 254:main.c        **** 	}
 1665              		.loc 2 254 0 discriminator 3
 1666 0006 2046     		mov	r0, r4
 1667 0008 FFF7FEFF 		bl	Connect_Intermediate
 1668              	.LVL182:
 253:main.c        **** 		Connect_Intermediate(i);
 1669              		.loc 2 253 0 discriminator 3
 1670 000c 0134     		adds	r4, r4, #1
 1671              	.LVL183:
 1672 000e E4B2     		uxtb	r4, r4
 1673              	.LVL184:
 1674              	.L151:
 253:main.c        **** 		Connect_Intermediate(i);
 1675              		.loc 2 253 0 is_stmt 0 discriminator 1
 1676 0010 042C     		cmp	r4, #4
 1677 0012 F8D9     		bls	.L152
 1678              	.LBE20:
 256:main.c        **** 
ARM GAS  C:\Users\FRANKL~1\AppData\Local\Temp\ccjWonOy.s 			page 53


 1679              		.loc 2 256 0 is_stmt 1
 1680 0014 10BD     		pop	{r4, pc}
 1681              		.cfi_endproc
 1682              	.LFE83:
 1683              		.size	Connect_Intermediates, .-Connect_Intermediates
 1684 0016 00BF     		.section	.text.Disconnect_Intermediates,"ax",%progbits
 1685              		.align	2
 1686              		.global	Disconnect_Intermediates
 1687              		.thumb
 1688              		.thumb_func
 1689              		.type	Disconnect_Intermediates, %function
 1690              	Disconnect_Intermediates:
 1691              	.LFB84:
 258:main.c        **** 	for (uint8 i = 1; i <= INTERMEDIATE_COUNT; i++) {
 1692              		.loc 2 258 0
 1693              		.cfi_startproc
 1694              		@ args = 0, pretend = 0, frame = 0
 1695              		@ frame_needed = 0, uses_anonymous_args = 0
 1696 0000 10B5     		push	{r4, lr}
 1697              		.cfi_def_cfa_offset 8
 1698              		.cfi_offset 4, -8
 1699              		.cfi_offset 14, -4
 1700              	.LVL185:
 1701              	.LBB21:
 259:main.c        **** 		Disconnect_Intermediate(i);
 1702              		.loc 2 259 0
 1703 0002 0124     		movs	r4, #1
 1704 0004 04E0     		b	.L155
 1705              	.LVL186:
 1706              	.L156:
 260:main.c        **** 	}
 1707              		.loc 2 260 0 discriminator 3
 1708 0006 2046     		mov	r0, r4
 1709 0008 FFF7FEFF 		bl	Disconnect_Intermediate
 1710              	.LVL187:
 259:main.c        **** 		Disconnect_Intermediate(i);
 1711              		.loc 2 259 0 discriminator 3
 1712 000c 0134     		adds	r4, r4, #1
 1713              	.LVL188:
 1714 000e E4B2     		uxtb	r4, r4
 1715              	.LVL189:
 1716              	.L155:
 259:main.c        **** 		Disconnect_Intermediate(i);
 1717              		.loc 2 259 0 is_stmt 0 discriminator 1
 1718 0010 042C     		cmp	r4, #4
 1719 0012 F8D9     		bls	.L156
 1720              	.LBE21:
 262:main.c        **** 
 1721              		.loc 2 262 0 is_stmt 1
 1722 0014 10BD     		pop	{r4, pc}
 1723              		.cfi_endproc
 1724              	.LFE84:
 1725              		.size	Disconnect_Intermediates, .-Disconnect_Intermediates
 1726 0016 00BF     		.section	.text.TIA_Set_Resistor,"ax",%progbits
 1727              		.align	2
 1728              		.global	TIA_Set_Resistor
 1729              		.thumb
ARM GAS  C:\Users\FRANKL~1\AppData\Local\Temp\ccjWonOy.s 			page 54


 1730              		.thumb_func
 1731              		.type	TIA_Set_Resistor, %function
 1732              	TIA_Set_Resistor:
 1733              	.LFB85:
 264:main.c        **** 	TIA_Selected_Resistor = resistor;
 1734              		.loc 2 264 0
 1735              		.cfi_startproc
 1736              		@ args = 0, pretend = 0, frame = 0
 1737              		@ frame_needed = 0, uses_anonymous_args = 0
 1738              	.LVL190:
 1739 0000 08B5     		push	{r3, lr}
 1740              		.cfi_def_cfa_offset 8
 1741              		.cfi_offset 3, -8
 1742              		.cfi_offset 14, -4
 265:main.c        **** 	TIA_1_SetResFB(TIA_Resistor_Codes[resistor]);
 1743              		.loc 2 265 0
 1744 0002 044B     		ldr	r3, .L160
 1745 0004 1871     		strb	r0, [r3, #4]
 266:main.c        **** }
 1746              		.loc 2 266 0
 1747 0006 044B     		ldr	r3, .L160+4
 1748 0008 1844     		add	r0, r0, r3
 1749              	.LVL191:
 1750 000a 0079     		ldrb	r0, [r0, #4]	@ zero_extendqisi2
 1751 000c FFF7FEFF 		bl	TIA_1_SetResFB
 1752              	.LVL192:
 1753 0010 08BD     		pop	{r3, pc}
 1754              	.L161:
 1755 0012 00BF     		.align	2
 1756              	.L160:
 1757 0014 00000000 		.word	.LANCHOR0
 1758 0018 00000000 		.word	.LANCHOR1
 1759              		.cfi_endproc
 1760              	.LFE85:
 1761              		.size	TIA_Set_Resistor, .-TIA_Set_Resistor
 1762              		.section	.text.ADC_Increase_Range,"ax",%progbits
 1763              		.align	2
 1764              		.global	ADC_Increase_Range
 1765              		.thumb
 1766              		.thumb_func
 1767              		.type	ADC_Increase_Range, %function
 1768              	ADC_Increase_Range:
 1769              	.LFB86:
 269:main.c        **** 	switch(TIA_Selected_Resistor) {
 1770              		.loc 2 269 0
 1771              		.cfi_startproc
 1772              		@ args = 0, pretend = 0, frame = 0
 1773              		@ frame_needed = 0, uses_anonymous_args = 0
 1774 0000 08B5     		push	{r3, lr}
 1775              		.cfi_def_cfa_offset 8
 1776              		.cfi_offset 3, -8
 1777              		.cfi_offset 14, -4
 270:main.c        **** 		case R20K: 	 break;
 1778              		.loc 2 270 0
 1779 0002 044B     		ldr	r3, .L166
 1780 0004 1B79     		ldrb	r3, [r3, #4]	@ zero_extendqisi2
 1781 0006 072B     		cmp	r3, #7
ARM GAS  C:\Users\FRANKL~1\AppData\Local\Temp\ccjWonOy.s 			page 55


 1782 0008 02D1     		bne	.L162
 278:main.c        **** 		default: return;
 1783              		.loc 2 278 0
 1784 000a 0020     		movs	r0, #0
 1785 000c FFF7FEFF 		bl	TIA_Set_Resistor
 1786              	.LVL193:
 1787              	.L162:
 1788 0010 08BD     		pop	{r3, pc}
 1789              	.L167:
 1790 0012 00BF     		.align	2
 1791              	.L166:
 1792 0014 00000000 		.word	.LANCHOR0
 1793              		.cfi_endproc
 1794              	.LFE86:
 1795              		.size	ADC_Increase_Range, .-ADC_Increase_Range
 1796              		.section	.text.ADC_Decrease_Range,"ax",%progbits
 1797              		.align	2
 1798              		.global	ADC_Decrease_Range
 1799              		.thumb
 1800              		.thumb_func
 1801              		.type	ADC_Decrease_Range, %function
 1802              	ADC_Decrease_Range:
 1803              	.LFB87:
 283:main.c        **** 	switch(TIA_Selected_Resistor) {
 1804              		.loc 2 283 0
 1805              		.cfi_startproc
 1806              		@ args = 0, pretend = 0, frame = 0
 1807              		@ frame_needed = 0, uses_anonymous_args = 0
 1808 0000 08B5     		push	{r3, lr}
 1809              		.cfi_def_cfa_offset 8
 1810              		.cfi_offset 3, -8
 1811              		.cfi_offset 14, -4
 284:main.c        **** 		case R20K: 	 TIA_Set_Resistor(R1000K); break;
 1812              		.loc 2 284 0
 1813 0002 034B     		ldr	r3, .L172
 1814 0004 1B79     		ldrb	r3, [r3, #4]	@ zero_extendqisi2
 1815 0006 13B9     		cbnz	r3, .L168
 285:main.c        **** 		//case R30K: 	 TIA_Set_Resistor(R40K); break;
 1816              		.loc 2 285 0
 1817 0008 0720     		movs	r0, #7
 1818 000a FFF7FEFF 		bl	TIA_Set_Resistor
 1819              	.LVL194:
 1820              	.L168:
 1821 000e 08BD     		pop	{r3, pc}
 1822              	.L173:
 1823              		.align	2
 1824              	.L172:
 1825 0010 00000000 		.word	.LANCHOR0
 1826              		.cfi_endproc
 1827              	.LFE87:
 1828              		.size	ADC_Decrease_Range, .-ADC_Decrease_Range
 1829              		.section	.text.sortArray,"ax",%progbits
 1830              		.align	2
 1831              		.global	sortArray
 1832              		.thumb
 1833              		.thumb_func
 1834              		.type	sortArray, %function
ARM GAS  C:\Users\FRANKL~1\AppData\Local\Temp\ccjWonOy.s 			page 56


 1835              	sortArray:
 1836              	.LFB88:
 297:main.c        **** 	int32 temp;
 1837              		.loc 2 297 0
 1838              		.cfi_startproc
 1839              		@ args = 0, pretend = 0, frame = 0
 1840              		@ frame_needed = 0, uses_anonymous_args = 0
 1841              		@ link register save eliminated.
 1842              	.LVL195:
 1843 0000 70B4     		push	{r4, r5, r6}
 1844              		.cfi_def_cfa_offset 12
 1845              		.cfi_offset 4, -12
 1846              		.cfi_offset 5, -8
 1847              		.cfi_offset 6, -4
 1848              	.LVL196:
 1849              	.LBB22:
 300:main.c        **** 		for(uint32 j = i+1; j < size; j++) {
 1850              		.loc 2 300 0
 1851 0002 0025     		movs	r5, #0
 1852 0004 10E0     		b	.L175
 1853              	.LVL197:
 1854              	.L179:
 1855              	.LBB23:
 301:main.c        **** 			if(array[j] < array[i]) {
 1856              		.loc 2 301 0
 1857 0006 6E1C     		adds	r6, r5, #1
 1858              	.LVL198:
 1859 0008 3346     		mov	r3, r6
 1860 000a 0AE0     		b	.L176
 1861              	.LVL199:
 1862              	.L178:
 302:main.c        **** 				// swap elements
 1863              		.loc 2 302 0
 1864 000c 50F82340 		ldr	r4, [r0, r3, lsl #2]
 1865 0010 50F82520 		ldr	r2, [r0, r5, lsl #2]
 1866 0014 9442     		cmp	r4, r2
 1867 0016 03DA     		bge	.L177
 1868              	.LVL200:
 305:main.c        **** 				array[j] = temp;
 1869              		.loc 2 305 0
 1870 0018 40F82540 		str	r4, [r0, r5, lsl #2]
 306:main.c        **** 			}
 1871              		.loc 2 306 0
 1872 001c 40F82320 		str	r2, [r0, r3, lsl #2]
 1873              	.LVL201:
 1874              	.L177:
 301:main.c        **** 			if(array[j] < array[i]) {
 1875              		.loc 2 301 0 discriminator 2
 1876 0020 0133     		adds	r3, r3, #1
 1877              	.LVL202:
 1878              	.L176:
 301:main.c        **** 			if(array[j] < array[i]) {
 1879              		.loc 2 301 0 is_stmt 0 discriminator 1
 1880 0022 8B42     		cmp	r3, r1
 1881 0024 F2D3     		bcc	.L178
 1882              	.LBE23:
 300:main.c        **** 		for(uint32 j = i+1; j < size; j++) {
ARM GAS  C:\Users\FRANKL~1\AppData\Local\Temp\ccjWonOy.s 			page 57


 1883              		.loc 2 300 0 is_stmt 1
 1884 0026 3546     		mov	r5, r6
 1885              	.LVL203:
 1886              	.L175:
 300:main.c        **** 		for(uint32 j = i+1; j < size; j++) {
 1887              		.loc 2 300 0 is_stmt 0 discriminator 1
 1888 0028 4B1E     		subs	r3, r1, #1
 1889 002a 9D42     		cmp	r5, r3
 1890 002c EBD3     		bcc	.L179
 1891              	.LBE22:
 310:main.c        **** 
 1892              		.loc 2 310 0 is_stmt 1
 1893 002e 70BC     		pop	{r4, r5, r6}
 1894              		.cfi_restore 6
 1895              		.cfi_restore 5
 1896              		.cfi_restore 4
 1897              		.cfi_def_cfa_offset 0
 1898              	.LVL204:
 1899 0030 7047     		bx	lr
 1900              		.cfi_endproc
 1901              	.LFE88:
 1902              		.size	sortArray, .-sortArray
 1903 0032 00BF     		.section	.text.medianOfArray,"ax",%progbits
 1904              		.align	2
 1905              		.global	medianOfArray
 1906              		.thumb
 1907              		.thumb_func
 1908              		.type	medianOfArray, %function
 1909              	medianOfArray:
 1910              	.LFB89:
 312:main.c        **** 	sortArray(array, size);
 1911              		.loc 2 312 0
 1912              		.cfi_startproc
 1913              		@ args = 0, pretend = 0, frame = 0
 1914              		@ frame_needed = 0, uses_anonymous_args = 0
 1915              	.LVL205:
 1916 0000 38B5     		push	{r3, r4, r5, lr}
 1917              		.cfi_def_cfa_offset 16
 1918              		.cfi_offset 3, -16
 1919              		.cfi_offset 4, -12
 1920              		.cfi_offset 5, -8
 1921              		.cfi_offset 14, -4
 1922 0002 0546     		mov	r5, r0
 1923 0004 0C46     		mov	r4, r1
 313:main.c        **** 	
 1924              		.loc 2 313 0
 1925 0006 FFF7FEFF 		bl	sortArray
 1926              	.LVL206:
 315:main.c        **** 		// if size is even, return the mean of middle elements
 1927              		.loc 2 315 0
 1928 000a 14F0010F 		tst	r4, #1
 1929 000e 0CD1     		bne	.L182
 317:main.c        **** 	} else {
 1930              		.loc 2 317 0
 1931 0010 6408     		lsrs	r4, r4, #1
 1932              	.LVL207:
 1933 0012 55F82400 		ldr	r0, [r5, r4, lsl #2]
ARM GAS  C:\Users\FRANKL~1\AppData\Local\Temp\ccjWonOy.s 			page 58


 1934 0016 04F18044 		add	r4, r4, #1073741824
 1935 001a 013C     		subs	r4, r4, #1
 1936 001c 55F82430 		ldr	r3, [r5, r4, lsl #2]
 1937 0020 1844     		add	r0, r0, r3
 1938 0022 00EBD070 		add	r0, r0, r0, lsr #31
 1939 0026 4010     		asrs	r0, r0, #1
 1940 0028 38BD     		pop	{r3, r4, r5, pc}
 1941              	.LVL208:
 1942              	.L182:
 320:main.c        **** 	}
 1943              		.loc 2 320 0
 1944 002a 6408     		lsrs	r4, r4, #1
 1945              	.LVL209:
 1946 002c 55F82400 		ldr	r0, [r5, r4, lsl #2]
 322:main.c        **** 
 1947              		.loc 2 322 0
 1948 0030 38BD     		pop	{r3, r4, r5, pc}
 1949              		.cfi_endproc
 1950              	.LFE89:
 1951              		.size	medianOfArray, .-medianOfArray
 1952              		.global	__aeabi_ui2f
 1953              		.global	__aeabi_fdiv
 1954              		.global	__aeabi_i2f
 1955              		.global	__aeabi_fmul
 1956              		.global	__aeabi_fadd
 1957              		.global	__aeabi_f2iz
 1958              		.global	__aeabi_fsub
 1959 0032 00BF     		.section	.text.ADC_Measure_uV,"ax",%progbits
 1960              		.align	2
 1961              		.global	ADC_Measure_uV
 1962              		.thumb
 1963              		.thumb_func
 1964              		.type	ADC_Measure_uV, %function
 1965              	ADC_Measure_uV:
 1966              	.LFB90:
 325:main.c        **** 	int32 ADC_Result = 0;
 1967              		.loc 2 325 0
 1968              		.cfi_startproc
 1969              		@ args = 0, pretend = 0, frame = 24
 1970              		@ frame_needed = 1, uses_anonymous_args = 0
 1971              	.LVL210:
 1972 0000 2DE9F04F 		push	{r4, r5, r6, r7, r8, r9, r10, fp, lr}
 1973              		.cfi_def_cfa_offset 36
 1974              		.cfi_offset 4, -36
 1975              		.cfi_offset 5, -32
 1976              		.cfi_offset 6, -28
 1977              		.cfi_offset 7, -24
 1978              		.cfi_offset 8, -20
 1979              		.cfi_offset 9, -16
 1980              		.cfi_offset 10, -12
 1981              		.cfi_offset 11, -8
 1982              		.cfi_offset 14, -4
 1983 0004 87B0     		sub	sp, sp, #28
 1984              		.cfi_def_cfa_offset 64
 1985 0006 00AF     		add	r7, sp, #0
 1986              		.cfi_def_cfa_register 7
 1987 0008 B860     		str	r0, [r7, #8]
ARM GAS  C:\Users\FRANKL~1\AppData\Local\Temp\ccjWonOy.s 			page 59


 1988 000a 7960     		str	r1, [r7, #4]
 1989              	.LVL211:
 330:main.c        **** 	
 1990              		.loc 2 330 0
 1991 000c 122A     		cmp	r2, #18
 1992 000e 01D9     		bls	.L190
 329:main.c        **** 	if (sampleCount < medianArraySize) medianArraySize = sampleCount;
 1993              		.loc 2 329 0
 1994 0010 1324     		movs	r4, #19
 1995 0012 00E0     		b	.L186
 1996              	.L190:
 330:main.c        **** 	
 1997              		.loc 2 330 0
 1998 0014 1446     		mov	r4, r2
 1999              	.L186:
 2000              	.LVL212:
 332:main.c        **** 	int32 medianArray[medianArraySize];
 2001              		.loc 2 332 0
 2002 0016 B2FBF4FA 		udiv	r10, r2, r4
 2003              	.LVL213:
 333:main.c        **** 	
 2004              		.loc 2 333 0
 2005 001a A300     		lsls	r3, r4, #2
 2006 001c 0A33     		adds	r3, r3, #10
 2007 001e 23F00703 		bic	r3, r3, #7
 2008 0022 ADEB030D 		sub	sp, sp, r3
 2009 0026 6D46     		mov	r5, sp
 2010              	.LVL214:
 2011              	.LBB24:
 335:main.c        **** 		for (uint32 j = 0; j < medianArraySize; j++) {
 2012              		.loc 2 335 0
 2013 0028 0126     		movs	r6, #1
 2014              	.LBE24:
 327:main.c        **** 	
 2015              		.loc 2 327 0
 2016 002a 0023     		movs	r3, #0
 2017 002c 7B61     		str	r3, [r7, #20]
 326:main.c        **** 	int32 ADC_SD = 0;
 2018              		.loc 2 326 0
 2019 002e 9B46     		mov	fp, r3
 2020              	.LBB29:
 335:main.c        **** 		for (uint32 j = 0; j < medianArraySize; j++) {
 2021              		.loc 2 335 0
 2022 0030 51E0     		b	.L187
 2023              	.LVL215:
 2024              	.L188:
 2025              	.LBB25:
 2026              	.LBB26:
 337:main.c        **** 			//int16 ADC_Result = ADC_DelSig_1_CountsTo_mVolts(ADC_DelSig_1_GetResult16());
 2027              		.loc 2 337 0 discriminator 1
 2028 0032 0120     		movs	r0, #1
 2029 0034 FFF7FEFF 		bl	ADC_DelSig_1_IsEndConversion
 2030              	.LVL216:
 2031 0038 0028     		cmp	r0, #0
 2032 003a FAD0     		beq	.L188
 339:main.c        **** 		}
 2033              		.loc 2 339 0 discriminator 2
ARM GAS  C:\Users\FRANKL~1\AppData\Local\Temp\ccjWonOy.s 			page 60


 2034 003c FFF7FEFF 		bl	ADC_DelSig_1_GetResult32
 2035              	.LVL217:
 2036 0040 FFF7FEFF 		bl	ADC_DelSig_1_CountsTo_uVolts
 2037              	.LVL218:
 2038 0044 45F82800 		str	r0, [r5, r8, lsl #2]
 336:main.c        **** 			while (!ADC_DelSig_1_IsEndConversion(ADC_DelSig_1_RETURN_STATUS));
 2039              		.loc 2 336 0 discriminator 2
 2040 0048 08F10108 		add	r8, r8, #1
 2041              	.LVL219:
 2042 004c 01E0     		b	.L189
 2043              	.LVL220:
 2044              	.L191:
 2045              	.LBE26:
 2046              	.LBE25:
 2047 004e 4FF00008 		mov	r8, #0
 2048              	.L189:
 2049              	.LVL221:
 2050              	.LBB28:
 2051              	.LBB27:
 336:main.c        **** 			while (!ADC_DelSig_1_IsEndConversion(ADC_DelSig_1_RETURN_STATUS));
 2052              		.loc 2 336 0 is_stmt 0 discriminator 1
 2053 0052 4445     		cmp	r4, r8
 2054 0054 EDD8     		bhi	.L188
 2055              	.LBE27:
 342:main.c        **** 		
 2056              		.loc 2 342 0 is_stmt 1 discriminator 2
 2057 0056 2146     		mov	r1, r4
 2058 0058 2846     		mov	r0, r5
 2059 005a FFF7FEFF 		bl	medianOfArray
 2060              	.LVL222:
 2061 005e 8046     		mov	r8, r0
 2062              	.LVL223:
 344:main.c        **** 		ADC_Result += ((float)ADC_Result_Current - (float)ADC_Result)/(float)i;
 2063              		.loc 2 344 0 discriminator 2
 2064 0060 701E     		subs	r0, r6, #1
 2065              	.LVL224:
 2066 0062 FFF7FEFF 		bl	__aeabi_ui2f
 2067              	.LVL225:
 2068 0066 8146     		mov	r9, r0
 2069 0068 3046     		mov	r0, r6
 2070 006a FFF7FEFF 		bl	__aeabi_ui2f
 2071              	.LVL226:
 2072 006e 3861     		str	r0, [r7, #16]	@ float
 2073 0070 0146     		mov	r1, r0
 2074 0072 4846     		mov	r0, r9
 2075 0074 FFF7FEFF 		bl	__aeabi_fdiv
 2076              	.LVL227:
 2077 0078 F860     		str	r0, [r7, #12]	@ float
 2078 007a CBEB0800 		rsb	r0, fp, r8
 2079 007e FFF7FEFF 		bl	__aeabi_i2f
 2080              	.LVL228:
 2081 0082 8146     		mov	r9, r0
 2082 0084 0146     		mov	r1, r0
 2083 0086 F868     		ldr	r0, [r7, #12]	@ float
 2084 0088 FFF7FEFF 		bl	__aeabi_fmul
 2085              	.LVL229:
 2086 008c 0146     		mov	r1, r0
ARM GAS  C:\Users\FRANKL~1\AppData\Local\Temp\ccjWonOy.s 			page 61


 2087 008e 4846     		mov	r0, r9
 2088 0090 FFF7FEFF 		bl	__aeabi_fmul
 2089              	.LVL230:
 2090 0094 8146     		mov	r9, r0
 2091 0096 7869     		ldr	r0, [r7, #20]
 2092 0098 FFF7FEFF 		bl	__aeabi_i2f
 2093              	.LVL231:
 2094 009c 4946     		mov	r1, r9
 2095 009e FFF7FEFF 		bl	__aeabi_fadd
 2096              	.LVL232:
 2097 00a2 FFF7FEFF 		bl	__aeabi_f2iz
 2098              	.LVL233:
 2099 00a6 7861     		str	r0, [r7, #20]
 2100              	.LVL234:
 345:main.c        **** 	}
 2101              		.loc 2 345 0 discriminator 2
 2102 00a8 4046     		mov	r0, r8
 2103              	.LVL235:
 2104 00aa FFF7FEFF 		bl	__aeabi_i2f
 2105              	.LVL236:
 2106 00ae 8046     		mov	r8, r0
 2107              	.LVL237:
 2108 00b0 5846     		mov	r0, fp
 2109 00b2 FFF7FEFF 		bl	__aeabi_i2f
 2110              	.LVL238:
 2111 00b6 8146     		mov	r9, r0
 2112 00b8 0146     		mov	r1, r0
 2113 00ba 4046     		mov	r0, r8
 2114 00bc FFF7FEFF 		bl	__aeabi_fsub
 2115              	.LVL239:
 2116 00c0 3969     		ldr	r1, [r7, #16]	@ float
 2117 00c2 FFF7FEFF 		bl	__aeabi_fdiv
 2118              	.LVL240:
 2119 00c6 0146     		mov	r1, r0
 2120 00c8 4846     		mov	r0, r9
 2121 00ca FFF7FEFF 		bl	__aeabi_fadd
 2122              	.LVL241:
 2123 00ce FFF7FEFF 		bl	__aeabi_f2iz
 2124              	.LVL242:
 2125 00d2 8346     		mov	fp, r0
 2126              	.LVL243:
 2127              	.LBE28:
 335:main.c        **** 		for (uint32 j = 0; j < medianArraySize; j++) {
 2128              		.loc 2 335 0 discriminator 2
 2129 00d4 0136     		adds	r6, r6, #1
 2130              	.LVL244:
 2131              	.L187:
 335:main.c        **** 		for (uint32 j = 0; j < medianArraySize; j++) {
 2132              		.loc 2 335 0 is_stmt 0 discriminator 1
 2133 00d6 5645     		cmp	r6, r10
 2134 00d8 B9D9     		bls	.L191
 2135              	.LBE29:
 348:main.c        **** 	*standardDeviation = ADC_SD;
 2136              		.loc 2 348 0 is_stmt 1
 2137 00da BB68     		ldr	r3, [r7, #8]
 2138 00dc C3F800B0 		str	fp, [r3]
 349:main.c        **** }
ARM GAS  C:\Users\FRANKL~1\AppData\Local\Temp\ccjWonOy.s 			page 62


 2139              		.loc 2 349 0
 2140 00e0 7B68     		ldr	r3, [r7, #4]
 2141 00e2 1A46     		mov	r2, r3
 2142 00e4 7B69     		ldr	r3, [r7, #20]
 2143 00e6 1360     		str	r3, [r2]
 350:main.c        **** 
 2144              		.loc 2 350 0
 2145 00e8 1C37     		adds	r7, r7, #28
 2146              		.cfi_def_cfa_offset 36
 2147              	.LVL245:
 2148 00ea BD46     		mov	sp, r7
 2149              		.cfi_def_cfa_register 13
 2150              		@ sp needed
 2151 00ec BDE8F08F 		pop	{r4, r5, r6, r7, r8, r9, r10, fp, pc}
 2152              		.cfi_endproc
 2153              	.LFE90:
 2154              		.size	ADC_Measure_uV, .-ADC_Measure_uV
 2155              		.section	.text.ADC_Adjust_Range,"ax",%progbits
 2156              		.align	2
 2157              		.global	ADC_Adjust_Range
 2158              		.thumb
 2159              		.thumb_func
 2160              		.type	ADC_Adjust_Range, %function
 2161              	ADC_Adjust_Range:
 2162              	.LFB91:
 352:main.c        **** 	int32 ADC_Voltage = 0;
 2163              		.loc 2 352 0
 2164              		.cfi_startproc
 2165              		@ args = 0, pretend = 0, frame = 8
 2166              		@ frame_needed = 0, uses_anonymous_args = 0
 2167              	.LVL246:
 2168 0000 00B5     		push	{lr}
 2169              		.cfi_def_cfa_offset 4
 2170              		.cfi_offset 14, -4
 2171 0002 83B0     		sub	sp, sp, #12
 2172              		.cfi_def_cfa_offset 16
 353:main.c        **** 	int32 ADC_Voltage_SD = 0;
 2173              		.loc 2 353 0
 2174 0004 0023     		movs	r3, #0
 2175 0006 0193     		str	r3, [sp, #4]
 354:main.c        **** 	
 2176              		.loc 2 354 0
 2177 0008 02A9     		add	r1, sp, #8
 2178 000a 41F8083D 		str	r3, [r1, #-8]!
 356:main.c        **** 	
 2179              		.loc 2 356 0
 2180 000e 0246     		mov	r2, r0
 2181 0010 01A8     		add	r0, sp, #4
 2182              	.LVL247:
 2183 0012 FFF7FEFF 		bl	ADC_Measure_uV
 2184              	.LVL248:
 358:main.c        **** 		ADC_Increase_Range();
 2185              		.loc 2 358 0
 2186 0016 019B     		ldr	r3, [sp, #4]
 2187 0018 83EAE371 		eor	r1, r3, r3, asr #31
 2188 001c A1EBE371 		sub	r1, r1, r3, asr #31
 2189 0020 0B4A     		ldr	r2, .L199
ARM GAS  C:\Users\FRANKL~1\AppData\Local\Temp\ccjWonOy.s 			page 63


 2190 0022 9142     		cmp	r1, r2
 2191 0024 02DD     		ble	.L194
 359:main.c        **** 	} else if (abs(ADC_Voltage) < 10240) {
 2192              		.loc 2 359 0
 2193 0026 FFF7FEFF 		bl	ADC_Increase_Range
 2194              	.LVL249:
 2195 002a 08E0     		b	.L195
 2196              	.L194:
 360:main.c        **** 		ADC_Decrease_Range();
 2197              		.loc 2 360 0
 2198 002c 03F51F53 		add	r3, r3, #10176
 2199 0030 3F33     		adds	r3, r3, #63
 2200 0032 44F6FE72 		movw	r2, #20478
 2201 0036 9342     		cmp	r3, r2
 2202 0038 06D8     		bhi	.L193
 361:main.c        **** 	} else {
 2203              		.loc 2 361 0
 2204 003a FFF7FEFF 		bl	ADC_Decrease_Range
 2205              	.LVL250:
 2206              	.L195:
 367:main.c        **** }
 2207              		.loc 2 367 0
 2208 003e 0522     		movs	r2, #5
 2209 0040 6946     		mov	r1, sp
 2210 0042 01A8     		add	r0, sp, #4
 2211 0044 FFF7FEFF 		bl	ADC_Measure_uV
 2212              	.LVL251:
 2213              	.L193:
 368:main.c        **** 
 2214              		.loc 2 368 0
 2215 0048 03B0     		add	sp, sp, #12
 2216              		.cfi_def_cfa_offset 4
 2217              		@ sp needed
 2218 004a 5DF804FB 		ldr	pc, [sp], #4
 2219              	.L200:
 2220 004e 00BF     		.align	2
 2221              	.L199:
 2222 0050 00480D00 		.word	870400
 2223              		.cfi_endproc
 2224              	.LFE91:
 2225              		.size	ADC_Adjust_Range, .-ADC_Adjust_Range
 2226              		.section	.text.SAR1_Measure_V,"ax",%progbits
 2227              		.align	2
 2228              		.global	SAR1_Measure_V
 2229              		.thumb
 2230              		.thumb_func
 2231              		.type	SAR1_Measure_V, %function
 2232              	SAR1_Measure_V:
 2233              	.LFB92:
 371:main.c        **** 	int32 SAR_Result = 0;
 2234              		.loc 2 371 0
 2235              		.cfi_startproc
 2236              		@ args = 0, pretend = 0, frame = 8
 2237              		@ frame_needed = 0, uses_anonymous_args = 0
 2238              	.LVL252:
 2239 0000 2DE9F04F 		push	{r4, r5, r6, r7, r8, r9, r10, fp, lr}
 2240              		.cfi_def_cfa_offset 36
ARM GAS  C:\Users\FRANKL~1\AppData\Local\Temp\ccjWonOy.s 			page 64


 2241              		.cfi_offset 4, -36
 2242              		.cfi_offset 5, -32
 2243              		.cfi_offset 6, -28
 2244              		.cfi_offset 7, -24
 2245              		.cfi_offset 8, -20
 2246              		.cfi_offset 9, -16
 2247              		.cfi_offset 10, -12
 2248              		.cfi_offset 11, -8
 2249              		.cfi_offset 14, -4
 2250 0004 83B0     		sub	sp, sp, #12
 2251              		.cfi_def_cfa_offset 48
 2252 0006 0090     		str	r0, [sp]
 2253 0008 0191     		str	r1, [sp, #4]
 2254 000a 9346     		mov	fp, r2
 2255              	.LVL253:
 2256              	.LBB30:
 375:main.c        **** 		ADC_SAR_1_StartConvert();
 2257              		.loc 2 375 0
 2258 000c 0124     		movs	r4, #1
 2259              	.LBE30:
 373:main.c        **** 	
 2260              		.loc 2 373 0
 2261 000e 4FF00009 		mov	r9, #0
 372:main.c        **** 	int32 SAR_SD = 0;
 2262              		.loc 2 372 0
 2263 0012 4D46     		mov	r5, r9
 2264              	.LBB32:
 375:main.c        **** 		ADC_SAR_1_StartConvert();
 2265              		.loc 2 375 0
 2266 0014 45E0     		b	.L202
 2267              	.LVL254:
 2268              	.L204:
 2269              	.LBB31:
 376:main.c        **** 		while (!ADC_SAR_1_IsEndConversion(ADC_SAR_1_RETURN_STATUS));
 2270              		.loc 2 376 0
 2271 0016 FFF7FEFF 		bl	ADC_SAR_1_StartConvert
 2272              	.LVL255:
 2273              	.L203:
 377:main.c        **** 		
 2274              		.loc 2 377 0 discriminator 1
 2275 001a 0120     		movs	r0, #1
 2276 001c FFF7FEFF 		bl	ADC_SAR_1_IsEndConversion
 2277              	.LVL256:
 2278 0020 0028     		cmp	r0, #0
 2279 0022 FAD0     		beq	.L203
 379:main.c        **** 		
 2280              		.loc 2 379 0 discriminator 2
 2281 0024 FFF7FEFF 		bl	ADC_SAR_1_GetResult16
 2282              	.LVL257:
 2283 0028 FFF7FEFF 		bl	ADC_SAR_1_CountsTo_uVolts
 2284              	.LVL258:
 2285 002c 0746     		mov	r7, r0
 2286              	.LVL259:
 381:main.c        **** 		SAR_Result += ((float)SAR1_Result_Current - (float)SAR_Result)/(float)i;
 2287              		.loc 2 381 0 discriminator 2
 2288 002e 601E     		subs	r0, r4, #1
 2289              	.LVL260:
ARM GAS  C:\Users\FRANKL~1\AppData\Local\Temp\ccjWonOy.s 			page 65


 2290 0030 FFF7FEFF 		bl	__aeabi_ui2f
 2291              	.LVL261:
 2292 0034 8046     		mov	r8, r0
 2293 0036 2046     		mov	r0, r4
 2294 0038 FFF7FEFF 		bl	__aeabi_ui2f
 2295              	.LVL262:
 2296 003c 0646     		mov	r6, r0
 2297 003e 0146     		mov	r1, r0
 2298 0040 4046     		mov	r0, r8
 2299 0042 FFF7FEFF 		bl	__aeabi_fdiv
 2300              	.LVL263:
 2301 0046 8246     		mov	r10, r0
 2302 0048 781B     		subs	r0, r7, r5
 2303 004a FFF7FEFF 		bl	__aeabi_i2f
 2304              	.LVL264:
 2305 004e 8046     		mov	r8, r0
 2306 0050 0146     		mov	r1, r0
 2307 0052 5046     		mov	r0, r10
 2308 0054 FFF7FEFF 		bl	__aeabi_fmul
 2309              	.LVL265:
 2310 0058 0146     		mov	r1, r0
 2311 005a 4046     		mov	r0, r8
 2312 005c FFF7FEFF 		bl	__aeabi_fmul
 2313              	.LVL266:
 2314 0060 8046     		mov	r8, r0
 2315 0062 4846     		mov	r0, r9
 2316 0064 FFF7FEFF 		bl	__aeabi_i2f
 2317              	.LVL267:
 2318 0068 4146     		mov	r1, r8
 2319 006a FFF7FEFF 		bl	__aeabi_fadd
 2320              	.LVL268:
 2321 006e FFF7FEFF 		bl	__aeabi_f2iz
 2322              	.LVL269:
 2323 0072 8146     		mov	r9, r0
 2324              	.LVL270:
 382:main.c        **** 	}
 2325              		.loc 2 382 0 discriminator 2
 2326 0074 3846     		mov	r0, r7
 2327              	.LVL271:
 2328 0076 FFF7FEFF 		bl	__aeabi_i2f
 2329              	.LVL272:
 2330 007a 0746     		mov	r7, r0
 2331              	.LVL273:
 2332 007c 2846     		mov	r0, r5
 2333 007e FFF7FEFF 		bl	__aeabi_i2f
 2334              	.LVL274:
 2335 0082 0546     		mov	r5, r0
 2336              	.LVL275:
 2337 0084 0146     		mov	r1, r0
 2338 0086 3846     		mov	r0, r7
 2339 0088 FFF7FEFF 		bl	__aeabi_fsub
 2340              	.LVL276:
 2341 008c 3146     		mov	r1, r6
 2342 008e FFF7FEFF 		bl	__aeabi_fdiv
 2343              	.LVL277:
 2344 0092 0146     		mov	r1, r0
 2345 0094 2846     		mov	r0, r5
ARM GAS  C:\Users\FRANKL~1\AppData\Local\Temp\ccjWonOy.s 			page 66


 2346 0096 FFF7FEFF 		bl	__aeabi_fadd
 2347              	.LVL278:
 2348 009a FFF7FEFF 		bl	__aeabi_f2iz
 2349              	.LVL279:
 2350 009e 0546     		mov	r5, r0
 2351              	.LVL280:
 2352              	.LBE31:
 375:main.c        **** 		ADC_SAR_1_StartConvert();
 2353              		.loc 2 375 0 discriminator 2
 2354 00a0 0134     		adds	r4, r4, #1
 2355              	.LVL281:
 2356              	.L202:
 375:main.c        **** 		ADC_SAR_1_StartConvert();
 2357              		.loc 2 375 0 is_stmt 0 discriminator 1
 2358 00a2 5C45     		cmp	r4, fp
 2359 00a4 B7D9     		bls	.L204
 2360              	.LBE32:
 385:main.c        **** 	*standardDeviation = SAR_SD;
 2361              		.loc 2 385 0 is_stmt 1
 2362 00a6 009B     		ldr	r3, [sp]
 2363 00a8 1D60     		str	r5, [r3]
 386:main.c        **** }
 2364              		.loc 2 386 0
 2365 00aa 019B     		ldr	r3, [sp, #4]
 2366 00ac C3F80090 		str	r9, [r3]
 387:main.c        **** 
 2367              		.loc 2 387 0
 2368 00b0 03B0     		add	sp, sp, #12
 2369              		.cfi_def_cfa_offset 36
 2370              	.LVL282:
 2371              		@ sp needed
 2372 00b2 BDE8F08F 		pop	{r4, r5, r6, r7, r8, r9, r10, fp, pc}
 2373              		.cfi_endproc
 2374              	.LFE92:
 2375              		.size	SAR1_Measure_V, .-SAR1_Measure_V
 2376 00b6 00BF     		.section	.text.SAR2_Measure_V,"ax",%progbits
 2377              		.align	2
 2378              		.global	SAR2_Measure_V
 2379              		.thumb
 2380              		.thumb_func
 2381              		.type	SAR2_Measure_V, %function
 2382              	SAR2_Measure_V:
 2383              	.LFB93:
 390:main.c        **** 	int32 SAR_Result = 0;
 2384              		.loc 2 390 0
 2385              		.cfi_startproc
 2386              		@ args = 0, pretend = 0, frame = 8
 2387              		@ frame_needed = 0, uses_anonymous_args = 0
 2388              	.LVL283:
 2389 0000 2DE9F04F 		push	{r4, r5, r6, r7, r8, r9, r10, fp, lr}
 2390              		.cfi_def_cfa_offset 36
 2391              		.cfi_offset 4, -36
 2392              		.cfi_offset 5, -32
 2393              		.cfi_offset 6, -28
 2394              		.cfi_offset 7, -24
 2395              		.cfi_offset 8, -20
 2396              		.cfi_offset 9, -16
ARM GAS  C:\Users\FRANKL~1\AppData\Local\Temp\ccjWonOy.s 			page 67


 2397              		.cfi_offset 10, -12
 2398              		.cfi_offset 11, -8
 2399              		.cfi_offset 14, -4
 2400 0004 83B0     		sub	sp, sp, #12
 2401              		.cfi_def_cfa_offset 48
 2402 0006 0090     		str	r0, [sp]
 2403 0008 0191     		str	r1, [sp, #4]
 2404 000a 9346     		mov	fp, r2
 2405              	.LVL284:
 2406              	.LBB33:
 394:main.c        **** 		ADC_SAR_2_StartConvert();
 2407              		.loc 2 394 0
 2408 000c 0124     		movs	r4, #1
 2409              	.LBE33:
 392:main.c        **** 	
 2410              		.loc 2 392 0
 2411 000e 4FF00009 		mov	r9, #0
 391:main.c        **** 	int32 SAR_SD = 0;
 2412              		.loc 2 391 0
 2413 0012 4D46     		mov	r5, r9
 2414              	.LBB35:
 394:main.c        **** 		ADC_SAR_2_StartConvert();
 2415              		.loc 2 394 0
 2416 0014 45E0     		b	.L207
 2417              	.LVL285:
 2418              	.L209:
 2419              	.LBB34:
 395:main.c        **** 		while (!ADC_SAR_2_IsEndConversion(ADC_SAR_2_RETURN_STATUS));
 2420              		.loc 2 395 0
 2421 0016 FFF7FEFF 		bl	ADC_SAR_2_StartConvert
 2422              	.LVL286:
 2423              	.L208:
 396:main.c        **** 		
 2424              		.loc 2 396 0 discriminator 1
 2425 001a 0120     		movs	r0, #1
 2426 001c FFF7FEFF 		bl	ADC_SAR_2_IsEndConversion
 2427              	.LVL287:
 2428 0020 0028     		cmp	r0, #0
 2429 0022 FAD0     		beq	.L208
 398:main.c        **** 		
 2430              		.loc 2 398 0 discriminator 2
 2431 0024 FFF7FEFF 		bl	ADC_SAR_2_GetResult16
 2432              	.LVL288:
 2433 0028 FFF7FEFF 		bl	ADC_SAR_2_CountsTo_uVolts
 2434              	.LVL289:
 2435 002c 0746     		mov	r7, r0
 2436              	.LVL290:
 400:main.c        **** 		SAR_Result += ((float)SAR2_Result_Current - (float)SAR_Result)/(float)i;
 2437              		.loc 2 400 0 discriminator 2
 2438 002e 601E     		subs	r0, r4, #1
 2439              	.LVL291:
 2440 0030 FFF7FEFF 		bl	__aeabi_ui2f
 2441              	.LVL292:
 2442 0034 8046     		mov	r8, r0
 2443 0036 2046     		mov	r0, r4
 2444 0038 FFF7FEFF 		bl	__aeabi_ui2f
 2445              	.LVL293:
ARM GAS  C:\Users\FRANKL~1\AppData\Local\Temp\ccjWonOy.s 			page 68


 2446 003c 0646     		mov	r6, r0
 2447 003e 0146     		mov	r1, r0
 2448 0040 4046     		mov	r0, r8
 2449 0042 FFF7FEFF 		bl	__aeabi_fdiv
 2450              	.LVL294:
 2451 0046 8246     		mov	r10, r0
 2452 0048 781B     		subs	r0, r7, r5
 2453 004a FFF7FEFF 		bl	__aeabi_i2f
 2454              	.LVL295:
 2455 004e 8046     		mov	r8, r0
 2456 0050 0146     		mov	r1, r0
 2457 0052 5046     		mov	r0, r10
 2458 0054 FFF7FEFF 		bl	__aeabi_fmul
 2459              	.LVL296:
 2460 0058 0146     		mov	r1, r0
 2461 005a 4046     		mov	r0, r8
 2462 005c FFF7FEFF 		bl	__aeabi_fmul
 2463              	.LVL297:
 2464 0060 8046     		mov	r8, r0
 2465 0062 4846     		mov	r0, r9
 2466 0064 FFF7FEFF 		bl	__aeabi_i2f
 2467              	.LVL298:
 2468 0068 4146     		mov	r1, r8
 2469 006a FFF7FEFF 		bl	__aeabi_fadd
 2470              	.LVL299:
 2471 006e FFF7FEFF 		bl	__aeabi_f2iz
 2472              	.LVL300:
 2473 0072 8146     		mov	r9, r0
 2474              	.LVL301:
 401:main.c        **** 	}
 2475              		.loc 2 401 0 discriminator 2
 2476 0074 3846     		mov	r0, r7
 2477              	.LVL302:
 2478 0076 FFF7FEFF 		bl	__aeabi_i2f
 2479              	.LVL303:
 2480 007a 0746     		mov	r7, r0
 2481              	.LVL304:
 2482 007c 2846     		mov	r0, r5
 2483 007e FFF7FEFF 		bl	__aeabi_i2f
 2484              	.LVL305:
 2485 0082 0546     		mov	r5, r0
 2486              	.LVL306:
 2487 0084 0146     		mov	r1, r0
 2488 0086 3846     		mov	r0, r7
 2489 0088 FFF7FEFF 		bl	__aeabi_fsub
 2490              	.LVL307:
 2491 008c 3146     		mov	r1, r6
 2492 008e FFF7FEFF 		bl	__aeabi_fdiv
 2493              	.LVL308:
 2494 0092 0146     		mov	r1, r0
 2495 0094 2846     		mov	r0, r5
 2496 0096 FFF7FEFF 		bl	__aeabi_fadd
 2497              	.LVL309:
 2498 009a FFF7FEFF 		bl	__aeabi_f2iz
 2499              	.LVL310:
 2500 009e 0546     		mov	r5, r0
 2501              	.LVL311:
ARM GAS  C:\Users\FRANKL~1\AppData\Local\Temp\ccjWonOy.s 			page 69


 2502              	.LBE34:
 394:main.c        **** 		ADC_SAR_2_StartConvert();
 2503              		.loc 2 394 0 discriminator 2
 2504 00a0 0134     		adds	r4, r4, #1
 2505              	.LVL312:
 2506              	.L207:
 394:main.c        **** 		ADC_SAR_2_StartConvert();
 2507              		.loc 2 394 0 is_stmt 0 discriminator 1
 2508 00a2 5C45     		cmp	r4, fp
 2509 00a4 B7D9     		bls	.L209
 2510              	.LBE35:
 404:main.c        **** 	*standardDeviation = SAR_SD;
 2511              		.loc 2 404 0 is_stmt 1
 2512 00a6 009B     		ldr	r3, [sp]
 2513 00a8 1D60     		str	r5, [r3]
 405:main.c        **** }
 2514              		.loc 2 405 0
 2515 00aa 019B     		ldr	r3, [sp, #4]
 2516 00ac C3F80090 		str	r9, [r3]
 406:main.c        **** 
 2517              		.loc 2 406 0
 2518 00b0 03B0     		add	sp, sp, #12
 2519              		.cfi_def_cfa_offset 36
 2520              	.LVL313:
 2521              		@ sp needed
 2522 00b2 BDE8F08F 		pop	{r4, r5, r6, r7, r8, r9, r10, fp, pc}
 2523              		.cfi_endproc
 2524              	.LFE93:
 2525              		.size	SAR2_Measure_V, .-SAR2_Measure_V
 2526              		.global	__aeabi_f2d
 2527              		.global	__aeabi_ddiv
 2528              		.global	__aeabi_d2f
 2529              		.global	__aeabi_dsub
 2530              		.global	__aeabi_dmul
 2531              		.global	__aeabi_dadd
 2532              		.global	__aeabi_i2d
 2533              		.global	__aeabi_dcmpgt
 2534 00b6 00BF     		.section	.text.Measure_Current_Vss,"ax",%progbits
 2535              		.align	2
 2536              		.global	Measure_Current_Vss
 2537              		.thumb
 2538              		.thumb_func
 2539              		.type	Measure_Current_Vss, %function
 2540              	Measure_Current_Vss:
 2541              	.LFB94:
 409:main.c        **** 	Compliance_Reached = 0;
 2542              		.loc 2 409 0
 2543              		.cfi_startproc
 2544              		@ args = 0, pretend = 0, frame = 40
 2545              		@ frame_needed = 0, uses_anonymous_args = 0
 2546              	.LVL314:
 2547 0000 2DE9F04F 		push	{r4, r5, r6, r7, r8, r9, r10, fp, lr}
 2548              		.cfi_def_cfa_offset 36
 2549              		.cfi_offset 4, -36
 2550              		.cfi_offset 5, -32
 2551              		.cfi_offset 6, -28
 2552              		.cfi_offset 7, -24
ARM GAS  C:\Users\FRANKL~1\AppData\Local\Temp\ccjWonOy.s 			page 70


 2553              		.cfi_offset 8, -20
 2554              		.cfi_offset 9, -16
 2555              		.cfi_offset 10, -12
 2556              		.cfi_offset 11, -8
 2557              		.cfi_offset 14, -4
 2558 0004 8BB0     		sub	sp, sp, #44
 2559              		.cfi_def_cfa_offset 80
 2560 0006 0690     		str	r0, [sp, #24]
 2561 0008 0791     		str	r1, [sp, #28]
 2562 000a 9246     		mov	r10, r2
 2563 000c 1D46     		mov	r5, r3
 410:main.c        **** 		
 2564              		.loc 2 410 0
 2565 000e 0026     		movs	r6, #0
 2566 0010 5B4B     		ldr	r3, .L223+16
 2567              	.LVL315:
 2568 0012 1E70     		strb	r6, [r3]
 413:main.c        **** 	
 2569              		.loc 2 413 0
 2570 0014 0320     		movs	r0, #3
 2571              	.LVL316:
 2572 0016 FFF7FEFF 		bl	ADC_Adjust_Range
 2573              	.LVL317:
 416:main.c        **** 	int32 ADC_Voltage_SD = 0;
 2574              		.loc 2 416 0
 2575 001a 0996     		str	r6, [sp, #36]
 417:main.c        **** 	
 2576              		.loc 2 417 0
 2577 001c 0AAC     		add	r4, sp, #40
 2578 001e 44F8086D 		str	r6, [r4, #-8]!
 2579              	.LVL318:
 424:main.c        **** 	int32 TIA_Offset_uV = TIA_Offsets_uV[TIA_Selected_Resistor];
 2580              		.loc 2 424 0
 2581 0022 5849     		ldr	r1, .L223+20
 2582 0024 0A79     		ldrb	r2, [r1, #4]	@ zero_extendqisi2
 2583 0026 9300     		lsls	r3, r2, #2
 2584 0028 574A     		ldr	r2, .L223+24
 2585 002a 1A44     		add	r2, r2, r3
 2586              	.LVL319:
 425:main.c        **** 	float unitConversion = -1.0e-6/TIA_Feedback_R;
 2587              		.loc 2 425 0
 2588 002c 0B44     		add	r3, r3, r1
 2589 002e D3F80890 		ldr	r9, [r3, #8]
 2590              	.LVL320:
 426:main.c        **** 	
 2591              		.loc 2 426 0
 2592 0032 D068     		ldr	r0, [r2, #12]	@ float
 2593 0034 FFF7FEFF 		bl	__aeabi_f2d
 2594              	.LVL321:
 2595 0038 0246     		mov	r2, r0
 2596 003a 0B46     		mov	r3, r1
 2597 003c 4CA1     		adr	r1, .L223
 2598 003e D1E90001 		ldrd	r0, [r1]
 2599 0042 FFF7FEFF 		bl	__aeabi_ddiv
 2600              	.LVL322:
 2601 0046 FFF7FEFF 		bl	__aeabi_d2f
 2602              	.LVL323:
ARM GAS  C:\Users\FRANKL~1\AppData\Local\Temp\ccjWonOy.s 			page 71


 2603 004a 0590     		str	r0, [sp, #20]	@ float
 2604              	.LVL324:
 429:main.c        **** 	
 2605              		.loc 2 429 0
 2606 004c 0322     		movs	r2, #3
 2607 004e 2146     		mov	r1, r4
 2608 0050 09A8     		add	r0, sp, #36
 2609              	.LVL325:
 2610 0052 FFF7FEFF 		bl	ADC_Measure_uV
 2611              	.LVL326:
 432:main.c        **** 		for (uint32 i = 1; i <= sampleCount; i++) {
 2612              		.loc 2 432 0
 2613 0056 002D     		cmp	r5, #0
 2614 0058 63D1     		bne	.L218
 2615 005a 69E0     		b	.L220
 2616              	.LVL327:
 2617              	.L217:
 2618              	.LBB36:
 434:main.c        **** 			
 2619              		.loc 2 434 0
 2620 005c 0122     		movs	r2, #1
 2621 005e 08A9     		add	r1, sp, #32
 2622 0060 09A8     		add	r0, sp, #36
 2623 0062 FFF7FEFF 		bl	ADC_Measure_uV
 2624              	.LVL328:
 436:main.c        **** 			
 2625              		.loc 2 436 0
 2626 0066 0998     		ldr	r0, [sp, #36]
 2627 0068 4844     		add	r0, r0, r9
 2628 006a FFF7FEFF 		bl	__aeabi_i2f
 2629              	.LVL329:
 2630 006e 0146     		mov	r1, r0
 2631 0070 0598     		ldr	r0, [sp, #20]	@ float
 2632 0072 FFF7FEFF 		bl	__aeabi_fmul
 2633              	.LVL330:
 2634 0076 0446     		mov	r4, r0
 2635              	.LVL331:
 438:main.c        **** 			currentAverage += (currentNow - currentAverage)/(float)i;
 2636              		.loc 2 438 0
 2637 0078 5846     		mov	r0, fp
 2638              	.LVL332:
 2639 007a FFF7FEFF 		bl	__aeabi_ui2f
 2640              	.LVL333:
 2641 007e 0190     		str	r0, [sp, #4]	@ float
 2642 0080 FFF7FEFF 		bl	__aeabi_f2d
 2643              	.LVL334:
 2644 0084 0646     		mov	r6, r0
 2645 0086 0F46     		mov	r7, r1
 2646 0088 0022     		movs	r2, #0
 2647 008a 404B     		ldr	r3, .L223+28
 2648 008c FFF7FEFF 		bl	__aeabi_dsub
 2649              	.LVL335:
 2650 0090 3246     		mov	r2, r6
 2651 0092 3B46     		mov	r3, r7
 2652 0094 FFF7FEFF 		bl	__aeabi_ddiv
 2653              	.LVL336:
 2654 0098 CDE90201 		strd	r0, [sp, #8]
ARM GAS  C:\Users\FRANKL~1\AppData\Local\Temp\ccjWonOy.s 			page 72


 2655 009c 4146     		mov	r1, r8
 2656 009e 2046     		mov	r0, r4
 2657 00a0 FFF7FEFF 		bl	__aeabi_fsub
 2658              	.LVL337:
 2659 00a4 0490     		str	r0, [sp, #16]	@ float
 2660 00a6 FFF7FEFF 		bl	__aeabi_f2d
 2661              	.LVL338:
 2662 00aa 0646     		mov	r6, r0
 2663 00ac 0F46     		mov	r7, r1
 2664 00ae 0246     		mov	r2, r0
 2665 00b0 0B46     		mov	r3, r1
 2666 00b2 DDE90201 		ldrd	r0, [sp, #8]
 2667 00b6 FFF7FEFF 		bl	__aeabi_dmul
 2668              	.LVL339:
 2669 00ba 0246     		mov	r2, r0
 2670 00bc 0B46     		mov	r3, r1
 2671 00be 3046     		mov	r0, r6
 2672 00c0 3946     		mov	r1, r7
 2673 00c2 FFF7FEFF 		bl	__aeabi_dmul
 2674              	.LVL340:
 2675 00c6 0646     		mov	r6, r0
 2676 00c8 0F46     		mov	r7, r1
 2677 00ca 2846     		mov	r0, r5
 2678 00cc FFF7FEFF 		bl	__aeabi_f2d
 2679              	.LVL341:
 2680 00d0 3246     		mov	r2, r6
 2681 00d2 3B46     		mov	r3, r7
 2682 00d4 FFF7FEFF 		bl	__aeabi_dadd
 2683              	.LVL342:
 2684 00d8 FFF7FEFF 		bl	__aeabi_d2f
 2685              	.LVL343:
 2686 00dc 0546     		mov	r5, r0
 2687              	.LVL344:
 439:main.c        **** 			
 2688              		.loc 2 439 0
 2689 00de 0199     		ldr	r1, [sp, #4]	@ float
 2690 00e0 0498     		ldr	r0, [sp, #16]	@ float
 2691              	.LVL345:
 2692 00e2 FFF7FEFF 		bl	__aeabi_fdiv
 2693              	.LVL346:
 2694 00e6 0146     		mov	r1, r0
 2695 00e8 4046     		mov	r0, r8
 2696 00ea FFF7FEFF 		bl	__aeabi_fadd
 2697              	.LVL347:
 2698 00ee 8046     		mov	r8, r0
 2699              	.LVL348:
 441:main.c        **** 				Compliance_Reached += 1;
 2700              		.loc 2 441 0
 2701 00f0 2046     		mov	r0, r4
 2702              	.LVL349:
 2703 00f2 FFF7FEFF 		bl	__aeabi_f2iz
 2704              	.LVL350:
 2705 00f6 0028     		cmp	r0, #0
 2706 00f8 B8BF     		it	lt
 2707 00fa 4042     		rsblt	r0, r0, #0
 2708 00fc FFF7FEFF 		bl	__aeabi_i2d
 2709              	.LVL351:
ARM GAS  C:\Users\FRANKL~1\AppData\Local\Temp\ccjWonOy.s 			page 73


 2710 0100 1DA3     		adr	r3, .L223+8
 2711 0102 D3E90023 		ldrd	r2, [r3]
 2712 0106 FFF7FEFF 		bl	__aeabi_dcmpgt
 2713              	.LVL352:
 2714 010a 20B1     		cbz	r0, .L221
 442:main.c        **** 				break;
 2715              		.loc 2 442 0
 2716 010c 1C4A     		ldr	r2, .L223+16
 2717 010e 1378     		ldrb	r3, [r2]	@ zero_extendqisi2
 2718 0110 0133     		adds	r3, r3, #1
 2719 0112 1370     		strb	r3, [r2]
 443:main.c        **** 			} else {
 2720              		.loc 2 443 0
 2721 0114 24E0     		b	.L216
 2722              	.L221:
 445:main.c        **** 			}
 2723              		.loc 2 445 0 discriminator 2
 2724 0116 0022     		movs	r2, #0
 2725 0118 194B     		ldr	r3, .L223+16
 2726 011a 1A70     		strb	r2, [r3]
 433:main.c        **** 			ADC_Measure_uV(&ADC_Voltage, &ADC_Voltage_SD, 1);
 2727              		.loc 2 433 0 discriminator 2
 2728 011c 0BF1010B 		add	fp, fp, #1
 2729              	.LVL353:
 2730 0120 03E0     		b	.L212
 2731              	.LVL354:
 2732              	.L218:
 2733              	.LBE36:
 2734 0122 4FF0010B 		mov	fp, #1
 2735 0126 0025     		movs	r5, #0
 2736 0128 A846     		mov	r8, r5
 2737              	.LVL355:
 2738              	.L212:
 2739              	.LBB37:
 433:main.c        **** 			ADC_Measure_uV(&ADC_Voltage, &ADC_Voltage_SD, 1);
 2740              		.loc 2 433 0 is_stmt 0 discriminator 1
 2741 012a D345     		cmp	fp, r10
 2742 012c 96D9     		bls	.L217
 2743 012e 17E0     		b	.L216
 2744              	.LVL356:
 2745              	.L220:
 2746              	.LBE37:
 449:main.c        **** 			
 2747              		.loc 2 449 0 is_stmt 1
 2748 0130 5246     		mov	r2, r10
 2749 0132 08A9     		add	r1, sp, #32
 2750 0134 09A8     		add	r0, sp, #36
 2751 0136 FFF7FEFF 		bl	ADC_Measure_uV
 2752              	.LVL357:
 451:main.c        **** 		currentStdDev = unitConversion * (ADC_Voltage_SD + TIA_Offset_uV);
 2753              		.loc 2 451 0
 2754 013a 0998     		ldr	r0, [sp, #36]
 2755 013c 4844     		add	r0, r0, r9
 2756 013e FFF7FEFF 		bl	__aeabi_i2f
 2757              	.LVL358:
 2758 0142 0146     		mov	r1, r0
 2759 0144 059C     		ldr	r4, [sp, #20]	@ float
ARM GAS  C:\Users\FRANKL~1\AppData\Local\Temp\ccjWonOy.s 			page 74


 2760 0146 2046     		mov	r0, r4
 2761 0148 FFF7FEFF 		bl	__aeabi_fmul
 2762              	.LVL359:
 2763 014c 8046     		mov	r8, r0
 2764              	.LVL360:
 452:main.c        **** 	}
 2765              		.loc 2 452 0
 2766 014e 0898     		ldr	r0, [sp, #32]
 2767              	.LVL361:
 2768 0150 4844     		add	r0, r0, r9
 2769 0152 FFF7FEFF 		bl	__aeabi_i2f
 2770              	.LVL362:
 2771 0156 0146     		mov	r1, r0
 2772 0158 2046     		mov	r0, r4
 2773 015a FFF7FEFF 		bl	__aeabi_fmul
 2774              	.LVL363:
 2775 015e 0546     		mov	r5, r0
 2776              	.LVL364:
 2777              	.L216:
 455:main.c        **** 	*currentStdDevIn = currentStdDev;
 2778              		.loc 2 455 0
 2779 0160 069B     		ldr	r3, [sp, #24]
 2780 0162 C3F80080 		str	r8, [r3]	@ float
 456:main.c        **** }
 2781              		.loc 2 456 0
 2782 0166 079B     		ldr	r3, [sp, #28]
 2783 0168 1D60     		str	r5, [r3]	@ float
 457:main.c        **** 
 2784              		.loc 2 457 0
 2785 016a 0BB0     		add	sp, sp, #44
 2786              		.cfi_def_cfa_offset 36
 2787              		@ sp needed
 2788 016c BDE8F08F 		pop	{r4, r5, r6, r7, r8, r9, r10, fp, pc}
 2789              	.LVL365:
 2790              	.L224:
 2791              		.align	3
 2792              	.L223:
 2793 0170 8DEDB5A0 		.word	-1598689907
 2794 0174 F7C6B0BE 		.word	-1095710985
 2795 0178 F168E388 		.word	-1998362383
 2796 017c B5F8E43E 		.word	1055193269
 2797 0180 00000000 		.word	Compliance_Reached
 2798 0184 00000000 		.word	.LANCHOR0
 2799 0188 00000000 		.word	.LANCHOR1
 2800 018c 0000F03F 		.word	1072693248
 2801              		.cfi_endproc
 2802              	.LFE94:
 2803              		.size	Measure_Current_Vss, .-Measure_Current_Vss
 2804              		.section	.text.At_Compliance,"ax",%progbits
 2805              		.align	2
 2806              		.global	At_Compliance
 2807              		.thumb
 2808              		.thumb_func
 2809              		.type	At_Compliance, %function
 2810              	At_Compliance:
 2811              	.LFB95:
 459:main.c        **** 	Compliance_Reached = 0;
ARM GAS  C:\Users\FRANKL~1\AppData\Local\Temp\ccjWonOy.s 			page 75


 2812              		.loc 2 459 0
 2813              		.cfi_startproc
 2814              		@ args = 0, pretend = 0, frame = 8
 2815              		@ frame_needed = 0, uses_anonymous_args = 0
 2816 0000 00B5     		push	{lr}
 2817              		.cfi_def_cfa_offset 4
 2818              		.cfi_offset 14, -4
 2819 0002 83B0     		sub	sp, sp, #12
 2820              		.cfi_def_cfa_offset 16
 460:main.c        **** 	
 2821              		.loc 2 460 0
 2822 0004 0022     		movs	r2, #0
 2823 0006 144B     		ldr	r3, .L232+8
 2824 0008 1A70     		strb	r2, [r3]
 462:main.c        **** 	float currentSD = 0;
 2825              		.loc 2 462 0
 2826 000a 0023     		movs	r3, #0
 2827 000c 0193     		str	r3, [sp, #4]	@ float
 463:main.c        **** 	
 2828              		.loc 2 463 0
 2829 000e 02A9     		add	r1, sp, #8
 2830 0010 41F8083D 		str	r3, [r1, #-8]!	@ float
 465:main.c        **** 	
 2831              		.loc 2 465 0
 2832 0014 0123     		movs	r3, #1
 2833 0016 0322     		movs	r2, #3
 2834 0018 01A8     		add	r0, sp, #4
 2835 001a FFF7FEFF 		bl	Measure_Current_Vss
 2836              	.LVL366:
 467:main.c        **** 		Compliance_Reached = 1;
 2837              		.loc 2 467 0
 2838 001e 0198     		ldr	r0, [sp, #4]	@ float
 2839 0020 FFF7FEFF 		bl	__aeabi_f2iz
 2840              	.LVL367:
 2841 0024 0028     		cmp	r0, #0
 2842 0026 B8BF     		it	lt
 2843 0028 4042     		rsblt	r0, r0, #0
 2844 002a FFF7FEFF 		bl	__aeabi_i2d
 2845              	.LVL368:
 2846 002e 08A3     		adr	r3, .L232
 2847 0030 D3E90023 		ldrd	r2, [r3]
 2848 0034 FFF7FEFF 		bl	__aeabi_dcmpgt
 2849              	.LVL369:
 2850 0038 18B1     		cbz	r0, .L230
 468:main.c        **** 		return 1;
 2851              		.loc 2 468 0
 2852 003a 0120     		movs	r0, #1
 2853 003c 064B     		ldr	r3, .L232+8
 2854 003e 1870     		strb	r0, [r3]
 469:main.c        **** 	}
 2855              		.loc 2 469 0
 2856 0040 00E0     		b	.L226
 2857              	.L230:
 472:main.c        **** }
 2858              		.loc 2 472 0
 2859 0042 0020     		movs	r0, #0
 2860              	.L226:
ARM GAS  C:\Users\FRANKL~1\AppData\Local\Temp\ccjWonOy.s 			page 76


 473:main.c        **** 
 2861              		.loc 2 473 0
 2862 0044 03B0     		add	sp, sp, #12
 2863              		.cfi_def_cfa_offset 4
 2864              		@ sp needed
 2865 0046 5DF804FB 		ldr	pc, [sp], #4
 2866              	.L233:
 2867 004a 00BFAFF3 		.align	3
 2867      0080
 2868              	.L232:
 2869 0050 F168E388 		.word	-1998362383
 2870 0054 B5F8E43E 		.word	1055193269
 2871 0058 00000000 		.word	Compliance_Reached
 2872              		.cfi_endproc
 2873              	.LFE95:
 2874              		.size	At_Compliance, .-At_Compliance
 2875              		.section	.text.Handle_Compliance_Breach,"ax",%progbits
 2876              		.align	2
 2877              		.global	Handle_Compliance_Breach
 2878              		.thumb
 2879              		.thumb_func
 2880              		.type	Handle_Compliance_Breach, %function
 2881              	Handle_Compliance_Breach:
 2882              	.LFB96:
 475:main.c        **** 	uint8 istart = VDAC_Vds_Data;
 2883              		.loc 2 475 0
 2884              		.cfi_startproc
 2885              		@ args = 0, pretend = 0, frame = 0
 2886              		@ frame_needed = 0, uses_anonymous_args = 0
 2887 0000 70B5     		push	{r4, r5, r6, lr}
 2888              		.cfi_def_cfa_offset 16
 2889              		.cfi_offset 4, -16
 2890              		.cfi_offset 5, -12
 2891              		.cfi_offset 6, -8
 2892              		.cfi_offset 14, -4
 476:main.c        **** 	uint8 istop = VDAC_Ref_Data;
 2893              		.loc 2 476 0
 2894 0002 174B     		ldr	r3, .L245
 2895 0004 1C78     		ldrb	r4, [r3]	@ zero_extendqisi2
 2896 0006 E4B2     		uxtb	r4, r4
 2897              	.LVL370:
 477:main.c        **** 	int8 increment = 1;
 2898              		.loc 2 477 0
 2899 0008 0233     		adds	r3, r3, #2
 2900 000a 1D78     		ldrb	r5, [r3]	@ zero_extendqisi2
 2901 000c EDB2     		uxtb	r5, r5
 2902              	.LVL371:
 479:main.c        **** 	
 2903              		.loc 2 479 0
 2904 000e AC42     		cmp	r4, r5
 2905 0010 01D3     		bcc	.L242
 478:main.c        **** 	if (istart < istop) increment = -1;
 2906              		.loc 2 478 0
 2907 0012 0126     		movs	r6, #1
 2908 0014 0AE0     		b	.L236
 2909              	.L242:
 479:main.c        **** 	
ARM GAS  C:\Users\FRANKL~1\AppData\Local\Temp\ccjWonOy.s 			page 77


 2910              		.loc 2 479 0
 2911 0016 4FF0FF36 		mov	r6, #-1
 2912              	.LVL372:
 2913              	.LBB38:
 481:main.c        **** 		VDAC_Vds_SetValue(i);
 2914              		.loc 2 481 0
 2915 001a 07E0     		b	.L236
 2916              	.LVL373:
 2917              	.L238:
 482:main.c        **** 		
 2918              		.loc 2 482 0
 2919 001c 2046     		mov	r0, r4
 2920 001e FFF7FEFF 		bl	VDAC_Vds_SetValue
 2921              	.LVL374:
 484:main.c        **** 	}
 2922              		.loc 2 484 0
 2923 0022 FFF7FEFF 		bl	At_Compliance
 2924              	.LVL375:
 2925 0026 D0B1     		cbz	r0, .L234
 481:main.c        **** 		VDAC_Vds_SetValue(i);
 2926              		.loc 2 481 0 discriminator 2
 2927 0028 3444     		add	r4, r4, r6
 2928              	.LVL376:
 2929 002a E4B2     		uxtb	r4, r4
 2930              	.LVL377:
 2931              	.L236:
 481:main.c        **** 		VDAC_Vds_SetValue(i);
 2932              		.loc 2 481 0 is_stmt 0 discriminator 1
 2933 002c AC42     		cmp	r4, r5
 2934 002e F5D1     		bne	.L238
 2935              	.LBE38:
 487:main.c        **** 	istop = VDAC_Ref_Data;
 2936              		.loc 2 487 0 is_stmt 1
 2937 0030 0C4B     		ldr	r3, .L245+4
 2938 0032 1C78     		ldrb	r4, [r3]	@ zero_extendqisi2
 2939              	.LVL378:
 2940 0034 E4B2     		uxtb	r4, r4
 2941              	.LVL379:
 488:main.c        **** 	increment = 1;
 2942              		.loc 2 488 0
 2943 0036 013B     		subs	r3, r3, #1
 2944 0038 1D78     		ldrb	r5, [r3]	@ zero_extendqisi2
 2945              	.LVL380:
 2946 003a EDB2     		uxtb	r5, r5
 2947              	.LVL381:
 490:main.c        **** 	
 2948              		.loc 2 490 0
 2949 003c AC42     		cmp	r4, r5
 2950 003e 01D3     		bcc	.L243
 489:main.c        **** 	if (istart < istop) increment = -1;
 2951              		.loc 2 489 0
 2952 0040 0126     		movs	r6, #1
 2953 0042 0AE0     		b	.L240
 2954              	.L243:
 490:main.c        **** 	
 2955              		.loc 2 490 0
 2956 0044 4FF0FF36 		mov	r6, #-1
ARM GAS  C:\Users\FRANKL~1\AppData\Local\Temp\ccjWonOy.s 			page 78


 2957              	.LVL382:
 2958              	.LBB39:
 492:main.c        **** 		VDAC_Vgs_SetValue(i);
 2959              		.loc 2 492 0
 2960 0048 07E0     		b	.L240
 2961              	.LVL383:
 2962              	.L241:
 493:main.c        **** 		
 2963              		.loc 2 493 0
 2964 004a 2046     		mov	r0, r4
 2965 004c FFF7FEFF 		bl	VDAC_Vgs_SetValue
 2966              	.LVL384:
 495:main.c        **** 	}
 2967              		.loc 2 495 0
 2968 0050 FFF7FEFF 		bl	At_Compliance
 2969              	.LVL385:
 2970 0054 18B1     		cbz	r0, .L234
 492:main.c        **** 		VDAC_Vgs_SetValue(i);
 2971              		.loc 2 492 0 discriminator 2
 2972 0056 3444     		add	r4, r4, r6
 2973              	.LVL386:
 2974 0058 E4B2     		uxtb	r4, r4
 2975              	.LVL387:
 2976              	.L240:
 492:main.c        **** 		VDAC_Vgs_SetValue(i);
 2977              		.loc 2 492 0 is_stmt 0 discriminator 1
 2978 005a AC42     		cmp	r4, r5
 2979 005c F5D1     		bne	.L241
 2980              	.LVL388:
 2981              	.L234:
 2982 005e 70BD     		pop	{r4, r5, r6, pc}
 2983              	.LVL389:
 2984              	.L246:
 2985              		.align	2
 2986              	.L245:
 2987 0060 805B0040 		.word	1073765248
 2988 0064 835B0040 		.word	1073765251
 2989              	.LBE39:
 2990              		.cfi_endproc
 2991              	.LFE96:
 2992              		.size	Handle_Compliance_Breach, .-Handle_Compliance_Breach
 2993              		.section	.text.Get_Ref,"ax",%progbits
 2994              		.align	2
 2995              		.global	Get_Ref
 2996              		.thumb
 2997              		.thumb_func
 2998              		.type	Get_Ref, %function
 2999              	Get_Ref:
 3000              	.LFB97:
 502:main.c        **** 	float result = 4.080/255.0*VDAC_Ref_Data;
 3001              		.loc 2 502 0 is_stmt 1
 3002              		.cfi_startproc
 3003              		@ args = 0, pretend = 0, frame = 0
 3004              		@ frame_needed = 0, uses_anonymous_args = 0
 3005 0000 08B5     		push	{r3, lr}
 3006              		.cfi_def_cfa_offset 8
 3007              		.cfi_offset 3, -8
ARM GAS  C:\Users\FRANKL~1\AppData\Local\Temp\ccjWonOy.s 			page 79


 3008              		.cfi_offset 14, -4
 503:main.c        **** 	if (VDAC_Ref_CR0 & (VDAC_Ref_RANGE_1V & VDAC_Ref_RANGE_MASK)) {
 3009              		.loc 2 503 0
 3010 0002 094B     		ldr	r3, .L249+8
 3011 0004 1878     		ldrb	r0, [r3]	@ zero_extendqisi2
 3012 0006 FFF7FEFF 		bl	__aeabi_i2d
 3013              	.LVL390:
 3014 000a 05A3     		adr	r3, .L249
 3015 000c D3E90023 		ldrd	r2, [r3]
 3016 0010 FFF7FEFF 		bl	__aeabi_dmul
 3017              	.LVL391:
 3018 0014 FFF7FEFF 		bl	__aeabi_d2f
 3019              	.LVL392:
 504:main.c        **** 		result = 1.020/255.0*VDAC_Ref_Data;
 3020              		.loc 2 504 0
 3021 0018 044B     		ldr	r3, .L249+12
 3022 001a 1B78     		ldrb	r3, [r3]	@ zero_extendqisi2
 508:main.c        **** 
 3023              		.loc 2 508 0
 3024 001c 08BD     		pop	{r3, pc}
 3025              	.L250:
 3026 001e 00BF     		.align	3
 3027              	.L249:
 3028 0020 FCA9F1D2 		.word	-755914244
 3029 0024 4D62903F 		.word	1066426957
 3030 0028 825B0040 		.word	1073765250
 3031 002c 28580040 		.word	1073764392
 3032              		.cfi_endproc
 3033              	.LFE97:
 3034              		.size	Get_Ref, .-Get_Ref
 3035              		.section	.text.Get_Vgs,"ax",%progbits
 3036              		.align	2
 3037              		.global	Get_Vgs
 3038              		.thumb
 3039              		.thumb_func
 3040              		.type	Get_Vgs, %function
 3041              	Get_Vgs:
 3042              	.LFB98:
 511:main.c        **** 	float result = 4.080/255.0*VDAC_Vgs_Data - Get_Ref();
 3043              		.loc 2 511 0
 3044              		.cfi_startproc
 3045              		@ args = 0, pretend = 0, frame = 0
 3046              		@ frame_needed = 0, uses_anonymous_args = 0
 3047 0000 38B5     		push	{r3, r4, r5, lr}
 3048              		.cfi_def_cfa_offset 16
 3049              		.cfi_offset 3, -16
 3050              		.cfi_offset 4, -12
 3051              		.cfi_offset 5, -8
 3052              		.cfi_offset 14, -4
 512:main.c        **** 	if (VDAC_Vgs_CR0 & (VDAC_Vgs_RANGE_1V & VDAC_Vgs_RANGE_MASK)) {
 3053              		.loc 2 512 0
 3054 0002 0F4B     		ldr	r3, .L253+8
 3055 0004 1878     		ldrb	r0, [r3]	@ zero_extendqisi2
 3056 0006 FFF7FEFF 		bl	__aeabi_i2d
 3057              	.LVL393:
 3058 000a 0BA3     		adr	r3, .L253
 3059 000c D3E90023 		ldrd	r2, [r3]
ARM GAS  C:\Users\FRANKL~1\AppData\Local\Temp\ccjWonOy.s 			page 80


 3060 0010 FFF7FEFF 		bl	__aeabi_dmul
 3061              	.LVL394:
 3062 0014 0446     		mov	r4, r0
 3063 0016 0D46     		mov	r5, r1
 3064 0018 FFF7FEFF 		bl	Get_Ref
 3065              	.LVL395:
 3066 001c FFF7FEFF 		bl	__aeabi_f2d
 3067              	.LVL396:
 3068 0020 0246     		mov	r2, r0
 3069 0022 0B46     		mov	r3, r1
 3070 0024 2046     		mov	r0, r4
 3071 0026 2946     		mov	r1, r5
 3072 0028 FFF7FEFF 		bl	__aeabi_dsub
 3073              	.LVL397:
 3074 002c FFF7FEFF 		bl	__aeabi_d2f
 3075              	.LVL398:
 513:main.c        **** 		result = 1.020/255.0*VDAC_Vgs_Data - Get_Ref();
 3076              		.loc 2 513 0
 3077 0030 044B     		ldr	r3, .L253+12
 3078 0032 1B78     		ldrb	r3, [r3]	@ zero_extendqisi2
 517:main.c        **** 
 3079              		.loc 2 517 0
 3080 0034 38BD     		pop	{r3, r4, r5, pc}
 3081              	.L254:
 3082 0036 00BF     		.align	3
 3083              	.L253:
 3084 0038 FCA9F1D2 		.word	-755914244
 3085 003c 4D62903F 		.word	1066426957
 3086 0040 835B0040 		.word	1073765251
 3087 0044 2C580040 		.word	1073764396
 3088              		.cfi_endproc
 3089              	.LFE98:
 3090              		.size	Get_Vgs, .-Get_Vgs
 3091              		.section	.text.Get_Vds,"ax",%progbits
 3092              		.align	2
 3093              		.global	Get_Vds
 3094              		.thumb
 3095              		.thumb_func
 3096              		.type	Get_Vds, %function
 3097              	Get_Vds:
 3098              	.LFB99:
 520:main.c        **** 	float result = 4.080/255.0*VDAC_Vds_Data - Get_Ref();
 3099              		.loc 2 520 0
 3100              		.cfi_startproc
 3101              		@ args = 0, pretend = 0, frame = 0
 3102              		@ frame_needed = 0, uses_anonymous_args = 0
 3103 0000 38B5     		push	{r3, r4, r5, lr}
 3104              		.cfi_def_cfa_offset 16
 3105              		.cfi_offset 3, -16
 3106              		.cfi_offset 4, -12
 3107              		.cfi_offset 5, -8
 3108              		.cfi_offset 14, -4
 521:main.c        **** 	if (VDAC_Vds_CR0 & (VDAC_Vds_RANGE_1V & VDAC_Vds_RANGE_MASK)) {
 3109              		.loc 2 521 0
 3110 0002 0F4B     		ldr	r3, .L257+8
 3111 0004 1878     		ldrb	r0, [r3]	@ zero_extendqisi2
 3112 0006 FFF7FEFF 		bl	__aeabi_i2d
ARM GAS  C:\Users\FRANKL~1\AppData\Local\Temp\ccjWonOy.s 			page 81


 3113              	.LVL399:
 3114 000a 0BA3     		adr	r3, .L257
 3115 000c D3E90023 		ldrd	r2, [r3]
 3116 0010 FFF7FEFF 		bl	__aeabi_dmul
 3117              	.LVL400:
 3118 0014 0446     		mov	r4, r0
 3119 0016 0D46     		mov	r5, r1
 3120 0018 FFF7FEFF 		bl	Get_Ref
 3121              	.LVL401:
 3122 001c FFF7FEFF 		bl	__aeabi_f2d
 3123              	.LVL402:
 3124 0020 0246     		mov	r2, r0
 3125 0022 0B46     		mov	r3, r1
 3126 0024 2046     		mov	r0, r4
 3127 0026 2946     		mov	r1, r5
 3128 0028 FFF7FEFF 		bl	__aeabi_dsub
 3129              	.LVL403:
 3130 002c FFF7FEFF 		bl	__aeabi_d2f
 3131              	.LVL404:
 522:main.c        **** 		result = 1.020/255.0*VDAC_Vds_Data - Get_Ref();
 3132              		.loc 2 522 0
 3133 0030 044B     		ldr	r3, .L257+12
 3134 0032 1B78     		ldrb	r3, [r3]	@ zero_extendqisi2
 526:main.c        **** 
 3135              		.loc 2 526 0
 3136 0034 38BD     		pop	{r3, r4, r5, pc}
 3137              	.L258:
 3138 0036 00BF     		.align	3
 3139              	.L257:
 3140 0038 FCA9F1D2 		.word	-755914244
 3141 003c 4D62903F 		.word	1066426957
 3142 0040 805B0040 		.word	1073765248
 3143 0044 20580040 		.word	1073764384
 3144              		.cfi_endproc
 3145              	.LFE99:
 3146              		.size	Get_Vds, .-Get_Vds
 3147              		.section	.text.Set_Vds_Raw,"ax",%progbits
 3148              		.align	2
 3149              		.global	Set_Vds_Raw
 3150              		.thumb
 3151              		.thumb_func
 3152              		.type	Set_Vds_Raw, %function
 3153              	Set_Vds_Raw:
 3154              	.LFB100:
 531:main.c        **** 	Vds_Index_Goal_Relative = (int16)value - (int16)VDAC_Ref_Data;
 3155              		.loc 2 531 0
 3156              		.cfi_startproc
 3157              		@ args = 0, pretend = 0, frame = 0
 3158              		@ frame_needed = 0, uses_anonymous_args = 0
 3159              	.LVL405:
 3160 0000 2DE9F041 		push	{r4, r5, r6, r7, r8, lr}
 3161              		.cfi_def_cfa_offset 24
 3162              		.cfi_offset 4, -24
 3163              		.cfi_offset 5, -20
 3164              		.cfi_offset 6, -16
 3165              		.cfi_offset 7, -12
 3166              		.cfi_offset 8, -8
ARM GAS  C:\Users\FRANKL~1\AppData\Local\Temp\ccjWonOy.s 			page 82


 3167              		.cfi_offset 14, -4
 3168 0004 8046     		mov	r8, r0
 532:main.c        **** 	
 3169              		.loc 2 532 0
 3170 0006 194B     		ldr	r3, .L270
 3171 0008 1B78     		ldrb	r3, [r3]	@ zero_extendqisi2
 3172 000a C31A     		subs	r3, r0, r3
 3173 000c 184A     		ldr	r2, .L270+4
 3174 000e 1380     		strh	r3, [r2]	@ movhi
 534:main.c        **** 	int8 increment = 1;
 3175              		.loc 2 534 0
 3176 0010 184B     		ldr	r3, .L270+8
 3177 0012 1D78     		ldrb	r5, [r3]	@ zero_extendqisi2
 3178 0014 EDB2     		uxtb	r5, r5
 3179              	.LVL406:
 536:main.c        **** 	
 3180              		.loc 2 536 0
 3181 0016 A842     		cmp	r0, r5
 3182 0018 01D3     		bcc	.L267
 535:main.c        **** 	if (istart > value) increment = -1;
 3183              		.loc 2 535 0
 3184 001a 0126     		movs	r6, #1
 3185 001c 01E0     		b	.L260
 3186              	.L267:
 536:main.c        **** 	
 3187              		.loc 2 536 0
 3188 001e 4FF0FF36 		mov	r6, #-1
 3189              	.L260:
 3190              	.LVL407:
 3191              	.LBB40:
 539:main.c        **** 		if (At_Compliance()) {
 3192              		.loc 2 539 0
 3193 0022 2F46     		mov	r7, r5
 3194 0024 1BE0     		b	.L261
 3195              	.LVL408:
 3196              	.L266:
 540:main.c        **** 			for (uint8 j = i; j != istart; j -= increment) {
 3197              		.loc 2 540 0
 3198 0026 FFF7FEFF 		bl	At_Compliance
 3199              	.LVL409:
 3200 002a 48B9     		cbnz	r0, .L268
 3201 002c 12E0     		b	.L263
 3202              	.LVL410:
 3203              	.L265:
 3204              	.LBB41:
 542:main.c        **** 				
 3205              		.loc 2 542 0
 3206 002e 2046     		mov	r0, r4
 3207 0030 FFF7FEFF 		bl	VDAC_Vds_SetValue
 3208              	.LVL411:
 544:main.c        **** 			}
 3209              		.loc 2 544 0
 3210 0034 FFF7FEFF 		bl	At_Compliance
 3211              	.LVL412:
 3212 0038 B0B1     		cbz	r0, .L259
 541:main.c        **** 				VDAC_Vds_SetValue(j);
 3213              		.loc 2 541 0 discriminator 2
ARM GAS  C:\Users\FRANKL~1\AppData\Local\Temp\ccjWonOy.s 			page 83


 3214 003a A41B     		subs	r4, r4, r6
 3215              	.LVL413:
 3216 003c E4B2     		uxtb	r4, r4
 3217              	.LVL414:
 3218 003e 00E0     		b	.L262
 3219              	.LVL415:
 3220              	.L268:
 3221              	.LBE41:
 3222 0040 3C46     		mov	r4, r7
 3223              	.L262:
 3224              	.LVL416:
 3225              	.LBB42:
 541:main.c        **** 				VDAC_Vds_SetValue(j);
 3226              		.loc 2 541 0 is_stmt 0 discriminator 1
 3227 0042 AC42     		cmp	r4, r5
 3228 0044 F3D1     		bne	.L265
 3229              	.LBE42:
 546:main.c        **** 				Handle_Compliance_Breach();
 3230              		.loc 2 546 0 is_stmt 1
 3231 0046 FFF7FEFF 		bl	At_Compliance
 3232              	.LVL417:
 3233 004a 18B1     		cbz	r0, .L263
 547:main.c        **** 				return;
 3234              		.loc 2 547 0
 3235 004c FFF7FEFF 		bl	Handle_Compliance_Breach
 3236              	.LVL418:
 548:main.c        **** 			}
 3237              		.loc 2 548 0
 3238 0050 BDE8F081 		pop	{r4, r5, r6, r7, r8, pc}
 3239              	.LVL419:
 3240              	.L263:
 552:main.c        **** 	}
 3241              		.loc 2 552 0 discriminator 2
 3242 0054 3846     		mov	r0, r7
 3243 0056 FFF7FEFF 		bl	VDAC_Vds_SetValue
 3244              	.LVL420:
 539:main.c        **** 		if (At_Compliance()) {
 3245              		.loc 2 539 0 discriminator 2
 3246 005a 3744     		add	r7, r7, r6
 3247              	.LVL421:
 3248 005c FFB2     		uxtb	r7, r7
 3249              	.LVL422:
 3250              	.L261:
 539:main.c        **** 		if (At_Compliance()) {
 3251              		.loc 2 539 0 is_stmt 0 discriminator 1
 3252 005e 4745     		cmp	r7, r8
 3253 0060 E1D1     		bne	.L266
 3254              	.LBE40:
 556:main.c        **** }
 3255              		.loc 2 556 0 is_stmt 1
 3256 0062 4046     		mov	r0, r8
 3257 0064 FFF7FEFF 		bl	VDAC_Vds_SetValue
 3258              	.LVL423:
 3259              	.L259:
 3260 0068 BDE8F081 		pop	{r4, r5, r6, r7, r8, pc}
 3261              	.LVL424:
 3262              	.L271:
ARM GAS  C:\Users\FRANKL~1\AppData\Local\Temp\ccjWonOy.s 			page 84


 3263              		.align	2
 3264              	.L270:
 3265 006c 825B0040 		.word	1073765250
 3266 0070 00000000 		.word	Vds_Index_Goal_Relative
 3267 0074 805B0040 		.word	1073765248
 3268              		.cfi_endproc
 3269              	.LFE100:
 3270              		.size	Set_Vds_Raw, .-Set_Vds_Raw
 3271              		.section	.text.Set_Vgs_Raw,"ax",%progbits
 3272              		.align	2
 3273              		.global	Set_Vgs_Raw
 3274              		.thumb
 3275              		.thumb_func
 3276              		.type	Set_Vgs_Raw, %function
 3277              	Set_Vgs_Raw:
 3278              	.LFB101:
 560:main.c        **** 	Vgs_Index_Goal_Relative = (int16)value - (int16)VDAC_Ref_Data;
 3279              		.loc 2 560 0
 3280              		.cfi_startproc
 3281              		@ args = 0, pretend = 0, frame = 0
 3282              		@ frame_needed = 0, uses_anonymous_args = 0
 3283              	.LVL425:
 3284 0000 2DE9F041 		push	{r4, r5, r6, r7, r8, lr}
 3285              		.cfi_def_cfa_offset 24
 3286              		.cfi_offset 4, -24
 3287              		.cfi_offset 5, -20
 3288              		.cfi_offset 6, -16
 3289              		.cfi_offset 7, -12
 3290              		.cfi_offset 8, -8
 3291              		.cfi_offset 14, -4
 3292 0004 8046     		mov	r8, r0
 561:main.c        **** 	
 3293              		.loc 2 561 0
 3294 0006 194B     		ldr	r3, .L283
 3295 0008 1B78     		ldrb	r3, [r3]	@ zero_extendqisi2
 3296 000a C31A     		subs	r3, r0, r3
 3297 000c 184A     		ldr	r2, .L283+4
 3298 000e 1380     		strh	r3, [r2]	@ movhi
 3299              	.LVL426:
 564:main.c        **** 	if (value < istart) increment = -1;
 3300              		.loc 2 564 0
 3301 0010 184B     		ldr	r3, .L283+8
 3302 0012 1D78     		ldrb	r5, [r3]	@ zero_extendqisi2
 3303 0014 EDB2     		uxtb	r5, r5
 3304              	.LVL427:
 565:main.c        **** 	
 3305              		.loc 2 565 0
 3306 0016 A842     		cmp	r0, r5
 3307 0018 01D3     		bcc	.L280
 563:main.c        **** 	uint8 istart = VDAC_Vgs_Data;
 3308              		.loc 2 563 0
 3309 001a 0126     		movs	r6, #1
 3310 001c 01E0     		b	.L273
 3311              	.L280:
 565:main.c        **** 	
 3312              		.loc 2 565 0
 3313 001e 4FF0FF36 		mov	r6, #-1
ARM GAS  C:\Users\FRANKL~1\AppData\Local\Temp\ccjWonOy.s 			page 85


 3314              	.L273:
 3315              	.LVL428:
 3316              	.LBB43:
 568:main.c        **** 		if (At_Compliance()) {
 3317              		.loc 2 568 0
 3318 0022 2F46     		mov	r7, r5
 3319 0024 1BE0     		b	.L274
 3320              	.LVL429:
 3321              	.L279:
 569:main.c        **** 			for (uint8 j = i; j != istart; j -= increment) {
 3322              		.loc 2 569 0
 3323 0026 FFF7FEFF 		bl	At_Compliance
 3324              	.LVL430:
 3325 002a 48B9     		cbnz	r0, .L281
 3326 002c 12E0     		b	.L276
 3327              	.LVL431:
 3328              	.L278:
 3329              	.LBB44:
 571:main.c        **** 				
 3330              		.loc 2 571 0
 3331 002e 2046     		mov	r0, r4
 3332 0030 FFF7FEFF 		bl	VDAC_Vgs_SetValue
 3333              	.LVL432:
 573:main.c        **** 			}
 3334              		.loc 2 573 0
 3335 0034 FFF7FEFF 		bl	At_Compliance
 3336              	.LVL433:
 3337 0038 B0B1     		cbz	r0, .L272
 570:main.c        **** 				VDAC_Vgs_SetValue(j);
 3338              		.loc 2 570 0 discriminator 2
 3339 003a A41B     		subs	r4, r4, r6
 3340              	.LVL434:
 3341 003c E4B2     		uxtb	r4, r4
 3342              	.LVL435:
 3343 003e 00E0     		b	.L275
 3344              	.LVL436:
 3345              	.L281:
 3346              	.LBE44:
 3347 0040 3C46     		mov	r4, r7
 3348              	.L275:
 3349              	.LVL437:
 3350              	.LBB45:
 570:main.c        **** 				VDAC_Vgs_SetValue(j);
 3351              		.loc 2 570 0 is_stmt 0 discriminator 1
 3352 0042 AC42     		cmp	r4, r5
 3353 0044 F3D1     		bne	.L278
 3354              	.LBE45:
 575:main.c        **** 				Handle_Compliance_Breach();
 3355              		.loc 2 575 0 is_stmt 1
 3356 0046 FFF7FEFF 		bl	At_Compliance
 3357              	.LVL438:
 3358 004a 18B1     		cbz	r0, .L276
 576:main.c        **** 				return;
 3359              		.loc 2 576 0
 3360 004c FFF7FEFF 		bl	Handle_Compliance_Breach
 3361              	.LVL439:
 577:main.c        **** 			}
ARM GAS  C:\Users\FRANKL~1\AppData\Local\Temp\ccjWonOy.s 			page 86


 3362              		.loc 2 577 0
 3363 0050 BDE8F081 		pop	{r4, r5, r6, r7, r8, pc}
 3364              	.LVL440:
 3365              	.L276:
 581:main.c        **** 	}
 3366              		.loc 2 581 0 discriminator 2
 3367 0054 3846     		mov	r0, r7
 3368 0056 FFF7FEFF 		bl	VDAC_Vgs_SetValue
 3369              	.LVL441:
 568:main.c        **** 		if (At_Compliance()) {
 3370              		.loc 2 568 0 discriminator 2
 3371 005a 3744     		add	r7, r7, r6
 3372              	.LVL442:
 3373 005c FFB2     		uxtb	r7, r7
 3374              	.LVL443:
 3375              	.L274:
 568:main.c        **** 		if (At_Compliance()) {
 3376              		.loc 2 568 0 is_stmt 0 discriminator 1
 3377 005e 4745     		cmp	r7, r8
 3378 0060 E1D1     		bne	.L279
 3379              	.LBE43:
 585:main.c        **** }
 3380              		.loc 2 585 0 is_stmt 1
 3381 0062 4046     		mov	r0, r8
 3382 0064 FFF7FEFF 		bl	VDAC_Vgs_SetValue
 3383              	.LVL444:
 3384              	.L272:
 3385 0068 BDE8F081 		pop	{r4, r5, r6, r7, r8, pc}
 3386              	.LVL445:
 3387              	.L284:
 3388              		.align	2
 3389              	.L283:
 3390 006c 825B0040 		.word	1073765250
 3391 0070 00000000 		.word	Vgs_Index_Goal_Relative
 3392 0074 835B0040 		.word	1073765251
 3393              		.cfi_endproc
 3394              	.LFE101:
 3395              		.size	Set_Vgs_Raw, .-Set_Vgs_Raw
 3396              		.section	.text.Set_Ref_Raw,"ax",%progbits
 3397              		.align	2
 3398              		.global	Set_Ref_Raw
 3399              		.thumb
 3400              		.thumb_func
 3401              		.type	Set_Ref_Raw, %function
 3402              	Set_Ref_Raw:
 3403              	.LFB102:
 589:main.c        **** 	if (value < 6) value = 6;
 3404              		.loc 2 589 0
 3405              		.cfi_startproc
 3406              		@ args = 0, pretend = 0, frame = 0
 3407              		@ frame_needed = 0, uses_anonymous_args = 0
 3408              	.LVL446:
 3409 0000 2DE9F041 		push	{r4, r5, r6, r7, r8, lr}
 3410              		.cfi_def_cfa_offset 24
 3411              		.cfi_offset 4, -24
 3412              		.cfi_offset 5, -20
 3413              		.cfi_offset 6, -16
ARM GAS  C:\Users\FRANKL~1\AppData\Local\Temp\ccjWonOy.s 			page 87


 3414              		.cfi_offset 7, -12
 3415              		.cfi_offset 8, -8
 3416              		.cfi_offset 14, -4
 3417 0004 0746     		mov	r7, r0
 590:main.c        **** 	
 3418              		.loc 2 590 0
 3419 0006 0528     		cmp	r0, #5
 3420 0008 00D8     		bhi	.L286
 3421 000a 0627     		movs	r7, #6
 3422              	.L286:
 3423              	.LVL447:
 593:main.c        **** 	
 3424              		.loc 2 593 0
 3425 000c 294B     		ldr	r3, .L310
 3426 000e 1B78     		ldrb	r3, [r3]	@ zero_extendqisi2
 3427 0010 DBB2     		uxtb	r3, r3
 3428 0012 9F42     		cmp	r7, r3
 3429 0014 02D3     		bcc	.L300
 592:main.c        **** 	if (value < VDAC_Ref_Data) increment = -1;
 3430              		.loc 2 592 0
 3431 0016 4FF00108 		mov	r8, #1
 3432 001a 01E0     		b	.L287
 3433              	.L300:
 593:main.c        **** 	
 3434              		.loc 2 593 0
 3435 001c 4FF0FF38 		mov	r8, #-1
 3436              	.L287:
 3437              	.LVL448:
 3438              	.LBB46:
 596:main.c        **** 		
 3439              		.loc 2 596 0
 3440 0020 244B     		ldr	r3, .L310
 3441 0022 1E78     		ldrb	r6, [r3]	@ zero_extendqisi2
 3442 0024 F6B2     		uxtb	r6, r6
 3443              	.LVL449:
 3444 0026 23E0     		b	.L288
 3445              	.L294:
 3446              	.LBB47:
 598:main.c        **** 		
 3447              		.loc 2 598 0
 3448 0028 FFF7FEFF 		bl	At_Compliance
 3449              	.LVL450:
 3450 002c 0028     		cmp	r0, #0
 3451 002e 3FD1     		bne	.L285
 600:main.c        **** 		int16 new_Vds = (int16)i + Vds_Index_Goal_Relative;
 3452              		.loc 2 600 0
 3453 0030 B4B2     		uxth	r4, r6
 3454 0032 214B     		ldr	r3, .L310+4
 3455 0034 1D88     		ldrh	r5, [r3]
 3456 0036 2544     		add	r5, r5, r4
 3457 0038 2DB2     		sxth	r5, r5
 3458              	.LVL451:
 601:main.c        **** 		
 3459              		.loc 2 601 0
 3460 003a 204B     		ldr	r3, .L310+8
 3461 003c 1B88     		ldrh	r3, [r3]
 3462 003e 1C44     		add	r4, r4, r3
ARM GAS  C:\Users\FRANKL~1\AppData\Local\Temp\ccjWonOy.s 			page 88


 3463 0040 24B2     		sxth	r4, r4
 3464              	.LVL452:
 603:main.c        **** 		if (new_Vds > 255) new_Vds = 255;
 3465              		.loc 2 603 0
 3466 0042 FF2D     		cmp	r5, #255
 3467 0044 00DD     		ble	.L290
 3468 0046 FF25     		movs	r5, #255
 3469              	.LVL453:
 3470              	.L290:
 604:main.c        **** 		
 3471              		.loc 2 604 0
 3472 0048 FF2C     		cmp	r4, #255
 3473 004a 00DD     		ble	.L291
 3474 004c FF24     		movs	r4, #255
 3475              	.LVL454:
 3476              	.L291:
 606:main.c        **** 		if (new_Vds < 0) new_Vds = 0;
 3477              		.loc 2 606 0
 3478 004e 002D     		cmp	r5, #0
 3479 0050 00DA     		bge	.L292
 3480 0052 0025     		movs	r5, #0
 3481              	.LVL455:
 3482              	.L292:
 607:main.c        **** 		
 3483              		.loc 2 607 0
 3484 0054 002C     		cmp	r4, #0
 3485 0056 00DA     		bge	.L293
 3486 0058 0024     		movs	r4, #0
 3487              	.LVL456:
 3488              	.L293:
 609:main.c        **** 		VDAC_Vgs_SetValue(new_Vgs);
 3489              		.loc 2 609 0 discriminator 2
 3490 005a 3046     		mov	r0, r6
 3491 005c FFF7FEFF 		bl	VDAC_Ref_SetValue
 3492              	.LVL457:
 610:main.c        **** 		VDAC_Vds_SetValue(new_Vds);
 3493              		.loc 2 610 0 discriminator 2
 3494 0060 E8B2     		uxtb	r0, r5
 3495 0062 FFF7FEFF 		bl	VDAC_Vgs_SetValue
 3496              	.LVL458:
 611:main.c        **** 	}
 3497              		.loc 2 611 0 discriminator 2
 3498 0066 E0B2     		uxtb	r0, r4
 3499 0068 FFF7FEFF 		bl	VDAC_Vds_SetValue
 3500              	.LVL459:
 3501              	.LBE47:
 596:main.c        **** 		
 3502              		.loc 2 596 0 discriminator 2
 3503 006c 4644     		add	r6, r6, r8
 3504              	.LVL460:
 3505 006e F6B2     		uxtb	r6, r6
 3506              	.LVL461:
 3507              	.L288:
 596:main.c        **** 		
 3508              		.loc 2 596 0 is_stmt 0 discriminator 1
 3509 0070 B742     		cmp	r7, r6
 3510 0072 D9D1     		bne	.L294
ARM GAS  C:\Users\FRANKL~1\AppData\Local\Temp\ccjWonOy.s 			page 89


 3511              	.LBE46:
 615:main.c        **** 	int16 new_Vds = (int16)value + Vds_Index_Goal_Relative;
 3512              		.loc 2 615 0 is_stmt 1
 3513 0074 BCB2     		uxth	r4, r7
 3514 0076 104B     		ldr	r3, .L310+4
 3515 0078 1D88     		ldrh	r5, [r3]
 3516 007a 2544     		add	r5, r5, r4
 3517 007c 2DB2     		sxth	r5, r5
 3518              	.LVL462:
 616:main.c        **** 	
 3519              		.loc 2 616 0
 3520 007e 0F4B     		ldr	r3, .L310+8
 3521 0080 1B88     		ldrh	r3, [r3]
 3522 0082 1C44     		add	r4, r4, r3
 3523 0084 24B2     		sxth	r4, r4
 3524              	.LVL463:
 618:main.c        **** 	if (new_Vds > 255) new_Vds = 255;
 3525              		.loc 2 618 0
 3526 0086 FF2D     		cmp	r5, #255
 3527 0088 00DD     		ble	.L295
 3528 008a FF25     		movs	r5, #255
 3529              	.LVL464:
 3530              	.L295:
 619:main.c        **** 	
 3531              		.loc 2 619 0
 3532 008c FF2C     		cmp	r4, #255
 3533 008e 00DD     		ble	.L296
 3534 0090 FF24     		movs	r4, #255
 3535              	.LVL465:
 3536              	.L296:
 621:main.c        **** 	if (new_Vds < 0) new_Vds = 0;
 3537              		.loc 2 621 0
 3538 0092 002D     		cmp	r5, #0
 3539 0094 00DA     		bge	.L297
 3540 0096 0025     		movs	r5, #0
 3541              	.LVL466:
 3542              	.L297:
 622:main.c        **** 	
 3543              		.loc 2 622 0
 3544 0098 002C     		cmp	r4, #0
 3545 009a 00DA     		bge	.L298
 3546 009c 0024     		movs	r4, #0
 3547              	.LVL467:
 3548              	.L298:
 624:main.c        **** 	VDAC_Vgs_SetValue(new_Vgs);
 3549              		.loc 2 624 0
 3550 009e 3846     		mov	r0, r7
 3551 00a0 FFF7FEFF 		bl	VDAC_Ref_SetValue
 3552              	.LVL468:
 625:main.c        **** 	VDAC_Vds_SetValue(new_Vds);
 3553              		.loc 2 625 0
 3554 00a4 E8B2     		uxtb	r0, r5
 3555 00a6 FFF7FEFF 		bl	VDAC_Vgs_SetValue
 3556              	.LVL469:
 626:main.c        **** }
 3557              		.loc 2 626 0
 3558 00aa E0B2     		uxtb	r0, r4
ARM GAS  C:\Users\FRANKL~1\AppData\Local\Temp\ccjWonOy.s 			page 90


 3559 00ac FFF7FEFF 		bl	VDAC_Vds_SetValue
 3560              	.LVL470:
 3561              	.L285:
 3562 00b0 BDE8F081 		pop	{r4, r5, r6, r7, r8, pc}
 3563              	.LVL471:
 3564              	.L311:
 3565              		.align	2
 3566              	.L310:
 3567 00b4 825B0040 		.word	1073765250
 3568 00b8 00000000 		.word	Vgs_Index_Goal_Relative
 3569 00bc 00000000 		.word	Vds_Index_Goal_Relative
 3570              		.cfi_endproc
 3571              	.LFE102:
 3572              		.size	Set_Ref_Raw, .-Set_Ref_Raw
 3573              		.section	.text.Set_Vds_Rel,"ax",%progbits
 3574              		.align	2
 3575              		.global	Set_Vds_Rel
 3576              		.thumb
 3577              		.thumb_func
 3578              		.type	Set_Vds_Rel, %function
 3579              	Set_Vds_Rel:
 3580              	.LFB103:
 631:main.c        **** 	if (value > 255) value = 255;
 3581              		.loc 2 631 0
 3582              		.cfi_startproc
 3583              		@ args = 0, pretend = 0, frame = 0
 3584              		@ frame_needed = 0, uses_anonymous_args = 0
 3585              	.LVL472:
 3586 0000 70B5     		push	{r4, r5, r6, lr}
 3587              		.cfi_def_cfa_offset 16
 3588              		.cfi_offset 4, -16
 3589              		.cfi_offset 5, -12
 3590              		.cfi_offset 6, -8
 3591              		.cfi_offset 14, -4
 3592 0002 0446     		mov	r4, r0
 632:main.c        **** 	if (value < -255) value = -255;
 3593              		.loc 2 632 0
 3594 0004 FF28     		cmp	r0, #255
 3595 0006 00DD     		ble	.L313
 3596 0008 FF24     		movs	r4, #255
 3597              	.L313:
 3598              	.LVL473:
 633:main.c        **** 	
 3599              		.loc 2 633 0
 3600 000a 14F1FF0F 		cmn	r4, #255
 3601 000e 01DA     		bge	.L314
 3602 0010 6FF0FE04 		mvn	r4, #254
 3603              	.LVL474:
 3604              	.L314:
 635:main.c        **** 	
 3605              		.loc 2 635 0
 3606 0014 294B     		ldr	r3, .L333
 3607 0016 1878     		ldrb	r0, [r3]	@ zero_extendqisi2
 3608 0018 A5B2     		uxth	r5, r4
 3609 001a 2844     		add	r0, r0, r5
 3610 001c 80B2     		uxth	r0, r0
 3611 001e 03B2     		sxth	r3, r0
ARM GAS  C:\Users\FRANKL~1\AppData\Local\Temp\ccjWonOy.s 			page 91


 3612              	.LVL475:
 637:main.c        **** 		Set_Ref_Raw(VDAC_Ref_Data - (absolute - 255));
 3613              		.loc 2 637 0
 3614 0020 FF2B     		cmp	r3, #255
 3615 0022 0ADD     		ble	.L315
 638:main.c        **** 		Set_Vds_Raw(255);
 3616              		.loc 2 638 0
 3617 0024 254B     		ldr	r3, .L333
 3618              	.LVL476:
 3619 0026 1B78     		ldrb	r3, [r3]	@ zero_extendqisi2
 3620 0028 181A     		subs	r0, r3, r0
 3621              	.LVL477:
 3622 002a 0138     		subs	r0, r0, #1
 3623 002c C0B2     		uxtb	r0, r0
 3624 002e FFF7FEFF 		bl	Set_Ref_Raw
 3625              	.LVL478:
 639:main.c        **** 	} else if (absolute < 0) {
 3626              		.loc 2 639 0
 3627 0032 FF20     		movs	r0, #255
 3628 0034 FFF7FEFF 		bl	Set_Vds_Raw
 3629              	.LVL479:
 3630 0038 0EE0     		b	.L316
 3631              	.LVL480:
 3632              	.L315:
 640:main.c        **** 		Set_Ref_Raw(VDAC_Ref_Data - absolute);
 3633              		.loc 2 640 0
 3634 003a 002B     		cmp	r3, #0
 3635 003c 09DA     		bge	.L317
 641:main.c        **** 		Set_Vds_Raw(0);
 3636              		.loc 2 641 0
 3637 003e 1F4B     		ldr	r3, .L333
 3638              	.LVL481:
 3639 0040 1B78     		ldrb	r3, [r3]	@ zero_extendqisi2
 3640 0042 181A     		subs	r0, r3, r0
 3641              	.LVL482:
 3642 0044 C0B2     		uxtb	r0, r0
 3643 0046 FFF7FEFF 		bl	Set_Ref_Raw
 3644              	.LVL483:
 642:main.c        **** 	} else {
 3645              		.loc 2 642 0
 3646 004a 0020     		movs	r0, #0
 3647 004c FFF7FEFF 		bl	Set_Vds_Raw
 3648              	.LVL484:
 3649 0050 02E0     		b	.L316
 3650              	.LVL485:
 3651              	.L317:
 644:main.c        **** 	}
 3652              		.loc 2 644 0
 3653 0052 C0B2     		uxtb	r0, r0
 3654 0054 FFF7FEFF 		bl	Set_Vds_Raw
 3655              	.LVL486:
 3656              	.L316:
 647:main.c        **** 	
 3657              		.loc 2 647 0
 3658 0058 194B     		ldr	r3, .L333+4
 3659 005a 1C80     		strh	r4, [r3]	@ movhi
 649:main.c        **** 	uint16 Vds_maxRefRaw = Vds_Index_Goal_Relative > 0? 255 - Vds_Index_Goal_Relative: 255;
ARM GAS  C:\Users\FRANKL~1\AppData\Local\Temp\ccjWonOy.s 			page 92


 3660              		.loc 2 649 0
 3661 005c 002C     		cmp	r4, #0
 3662 005e 02DC     		bgt	.L328
 649:main.c        **** 	uint16 Vds_maxRefRaw = Vds_Index_Goal_Relative > 0? 255 - Vds_Index_Goal_Relative: 255;
 3663              		.loc 2 649 0 is_stmt 0 discriminator 1
 3664 0060 6E42     		negs	r6, r5
 3665 0062 B6B2     		uxth	r6, r6
 3666 0064 00E0     		b	.L318
 3667              	.L328:
 649:main.c        **** 	uint16 Vds_maxRefRaw = Vds_Index_Goal_Relative > 0? 255 - Vds_Index_Goal_Relative: 255;
 3668              		.loc 2 649 0
 3669 0066 0026     		movs	r6, #0
 3670              	.L318:
 3671              	.LVL487:
 650:main.c        **** 	uint16 Vgs_minRefRaw = Vgs_Index_Goal_Relative > 0? 0: -Vgs_Index_Goal_Relative;
 3672              		.loc 2 650 0 is_stmt 1 discriminator 4
 3673 0068 002C     		cmp	r4, #0
 3674 006a 03DD     		ble	.L329
 650:main.c        **** 	uint16 Vgs_minRefRaw = Vgs_Index_Goal_Relative > 0? 0: -Vgs_Index_Goal_Relative;
 3675              		.loc 2 650 0 is_stmt 0 discriminator 1
 3676 006c C5F1FF00 		rsb	r0, r5, #255
 3677 0070 80B2     		uxth	r0, r0
 3678 0072 00E0     		b	.L319
 3679              	.L329:
 650:main.c        **** 	uint16 Vgs_minRefRaw = Vgs_Index_Goal_Relative > 0? 0: -Vgs_Index_Goal_Relative;
 3680              		.loc 2 650 0
 3681 0074 FF20     		movs	r0, #255
 3682              	.L319:
 3683              	.LVL488:
 651:main.c        **** 	uint16 Vgs_maxRefRaw = Vgs_Index_Goal_Relative > 0? 255 - Vgs_Index_Goal_Relative: 255;
 3684              		.loc 2 651 0 is_stmt 1 discriminator 4
 3685 0076 134B     		ldr	r3, .L333+8
 3686 0078 B3F90030 		ldrsh	r3, [r3]
 3687 007c 002B     		cmp	r3, #0
 3688 007e 02DC     		bgt	.L330
 651:main.c        **** 	uint16 Vgs_maxRefRaw = Vgs_Index_Goal_Relative > 0? 255 - Vgs_Index_Goal_Relative: 255;
 3689              		.loc 2 651 0 is_stmt 0 discriminator 1
 3690 0080 5A42     		negs	r2, r3
 3691 0082 92B2     		uxth	r2, r2
 3692 0084 00E0     		b	.L320
 3693              	.L330:
 651:main.c        **** 	uint16 Vgs_maxRefRaw = Vgs_Index_Goal_Relative > 0? 255 - Vgs_Index_Goal_Relative: 255;
 3694              		.loc 2 651 0
 3695 0086 0022     		movs	r2, #0
 3696              	.L320:
 3697              	.LVL489:
 652:main.c        **** 	
 3698              		.loc 2 652 0 is_stmt 1 discriminator 4
 3699 0088 002B     		cmp	r3, #0
 3700 008a 03DD     		ble	.L331
 652:main.c        **** 	
 3701              		.loc 2 652 0 is_stmt 0 discriminator 1
 3702 008c C3F1FF03 		rsb	r3, r3, #255
 3703 0090 9BB2     		uxth	r3, r3
 3704 0092 00E0     		b	.L321
 3705              	.L331:
 652:main.c        **** 	
ARM GAS  C:\Users\FRANKL~1\AppData\Local\Temp\ccjWonOy.s 			page 93


 3706              		.loc 2 652 0
 3707 0094 FF23     		movs	r3, #255
 3708              	.L321:
 3709              	.LVL490:
 654:main.c        **** 	
 3710              		.loc 2 654 0 is_stmt 1 discriminator 4
 3711 0096 0949     		ldr	r1, .L333
 3712 0098 0978     		ldrb	r1, [r1]	@ zero_extendqisi2
 3713              	.LVL491:
 656:main.c        **** 	if (newRefRaw > Vgs_maxRefRaw) newRefRaw = Vgs_maxRefRaw;
 3714              		.loc 2 656 0 discriminator 4
 3715 009a 8A42     		cmp	r2, r1
 3716 009c 00D8     		bhi	.L322
 654:main.c        **** 	
 3717              		.loc 2 654 0
 3718 009e 0A46     		mov	r2, r1
 3719              	.LVL492:
 3720              	.L322:
 657:main.c        **** 	if (newRefRaw < Vds_minRefRaw) newRefRaw = Vds_minRefRaw;
 3721              		.loc 2 657 0
 3722 00a0 9A42     		cmp	r2, r3
 3723 00a2 00D8     		bhi	.L323
 3724 00a4 1346     		mov	r3, r2
 3725              	.LVL493:
 3726              	.L323:
 658:main.c        **** 	if (newRefRaw > Vds_maxRefRaw) newRefRaw = Vds_maxRefRaw;
 3727              		.loc 2 658 0
 3728 00a6 B342     		cmp	r3, r6
 3729 00a8 00D3     		bcc	.L324
 3730 00aa 1E46     		mov	r6, r3
 3731              	.LVL494:
 3732              	.L324:
 659:main.c        **** 	
 3733              		.loc 2 659 0
 3734 00ac 8642     		cmp	r6, r0
 3735 00ae 00D8     		bhi	.L325
 3736 00b0 3046     		mov	r0, r6
 3737              	.LVL495:
 3738              	.L325:
 661:main.c        **** }
 3739              		.loc 2 661 0
 3740 00b2 C0B2     		uxtb	r0, r0
 3741              	.LVL496:
 3742 00b4 FFF7FEFF 		bl	Set_Ref_Raw
 3743              	.LVL497:
 3744 00b8 70BD     		pop	{r4, r5, r6, pc}
 3745              	.LVL498:
 3746              	.L334:
 3747 00ba 00BF     		.align	2
 3748              	.L333:
 3749 00bc 825B0040 		.word	1073765250
 3750 00c0 00000000 		.word	Vds_Index_Goal_Relative
 3751 00c4 00000000 		.word	Vgs_Index_Goal_Relative
 3752              		.cfi_endproc
 3753              	.LFE103:
 3754              		.size	Set_Vds_Rel, .-Set_Vds_Rel
 3755              		.section	.text.Set_Vgs_Rel,"ax",%progbits
ARM GAS  C:\Users\FRANKL~1\AppData\Local\Temp\ccjWonOy.s 			page 94


 3756              		.align	2
 3757              		.global	Set_Vgs_Rel
 3758              		.thumb
 3759              		.thumb_func
 3760              		.type	Set_Vgs_Rel, %function
 3761              	Set_Vgs_Rel:
 3762              	.LFB104:
 665:main.c        **** 	if (value > 255) value = 255;
 3763              		.loc 2 665 0
 3764              		.cfi_startproc
 3765              		@ args = 0, pretend = 0, frame = 0
 3766              		@ frame_needed = 0, uses_anonymous_args = 0
 3767              	.LVL499:
 3768 0000 70B5     		push	{r4, r5, r6, lr}
 3769              		.cfi_def_cfa_offset 16
 3770              		.cfi_offset 4, -16
 3771              		.cfi_offset 5, -12
 3772              		.cfi_offset 6, -8
 3773              		.cfi_offset 14, -4
 3774 0002 0446     		mov	r4, r0
 666:main.c        **** 	if (value < -255) value = -255;
 3775              		.loc 2 666 0
 3776 0004 FF28     		cmp	r0, #255
 3777 0006 00DD     		ble	.L336
 3778 0008 FF24     		movs	r4, #255
 3779              	.L336:
 3780              	.LVL500:
 667:main.c        **** 	
 3781              		.loc 2 667 0
 3782 000a 14F1FF0F 		cmn	r4, #255
 3783 000e 01DA     		bge	.L337
 3784 0010 6FF0FE04 		mvn	r4, #254
 3785              	.LVL501:
 3786              	.L337:
 669:main.c        **** 	
 3787              		.loc 2 669 0
 3788 0014 294B     		ldr	r3, .L356
 3789 0016 1878     		ldrb	r0, [r3]	@ zero_extendqisi2
 3790 0018 A5B2     		uxth	r5, r4
 3791 001a 2844     		add	r0, r0, r5
 3792 001c 80B2     		uxth	r0, r0
 3793 001e 03B2     		sxth	r3, r0
 3794              	.LVL502:
 671:main.c        **** 		Set_Ref_Raw(VDAC_Ref_Data - (absolute - 255));
 3795              		.loc 2 671 0
 3796 0020 FF2B     		cmp	r3, #255
 3797 0022 0ADD     		ble	.L338
 672:main.c        **** 		Set_Vgs_Raw(255);
 3798              		.loc 2 672 0
 3799 0024 254B     		ldr	r3, .L356
 3800              	.LVL503:
 3801 0026 1B78     		ldrb	r3, [r3]	@ zero_extendqisi2
 3802 0028 181A     		subs	r0, r3, r0
 3803              	.LVL504:
 3804 002a 0138     		subs	r0, r0, #1
 3805 002c C0B2     		uxtb	r0, r0
 3806 002e FFF7FEFF 		bl	Set_Ref_Raw
ARM GAS  C:\Users\FRANKL~1\AppData\Local\Temp\ccjWonOy.s 			page 95


 3807              	.LVL505:
 673:main.c        **** 	} else if (absolute < 0) {
 3808              		.loc 2 673 0
 3809 0032 FF20     		movs	r0, #255
 3810 0034 FFF7FEFF 		bl	Set_Vgs_Raw
 3811              	.LVL506:
 3812 0038 0EE0     		b	.L339
 3813              	.LVL507:
 3814              	.L338:
 674:main.c        **** 		Set_Ref_Raw(VDAC_Ref_Data - absolute);
 3815              		.loc 2 674 0
 3816 003a 002B     		cmp	r3, #0
 3817 003c 09DA     		bge	.L340
 675:main.c        **** 		Set_Vgs_Raw(0);
 3818              		.loc 2 675 0
 3819 003e 1F4B     		ldr	r3, .L356
 3820              	.LVL508:
 3821 0040 1B78     		ldrb	r3, [r3]	@ zero_extendqisi2
 3822 0042 181A     		subs	r0, r3, r0
 3823              	.LVL509:
 3824 0044 C0B2     		uxtb	r0, r0
 3825 0046 FFF7FEFF 		bl	Set_Ref_Raw
 3826              	.LVL510:
 676:main.c        **** 	} else {
 3827              		.loc 2 676 0
 3828 004a 0020     		movs	r0, #0
 3829 004c FFF7FEFF 		bl	Set_Vgs_Raw
 3830              	.LVL511:
 3831 0050 02E0     		b	.L339
 3832              	.LVL512:
 3833              	.L340:
 678:main.c        **** 	}
 3834              		.loc 2 678 0
 3835 0052 C0B2     		uxtb	r0, r0
 3836 0054 FFF7FEFF 		bl	Set_Vgs_Raw
 3837              	.LVL513:
 3838              	.L339:
 681:main.c        **** 	
 3839              		.loc 2 681 0
 3840 0058 194B     		ldr	r3, .L356+4
 3841 005a 1C80     		strh	r4, [r3]	@ movhi
 683:main.c        **** 	uint16 Vds_maxRefRaw = Vds_Index_Goal_Relative > 0? 255 - Vds_Index_Goal_Relative: 255;
 3842              		.loc 2 683 0
 3843 005c 194B     		ldr	r3, .L356+8
 3844 005e B3F90030 		ldrsh	r3, [r3]
 3845 0062 002B     		cmp	r3, #0
 3846 0064 02DC     		bgt	.L351
 683:main.c        **** 	uint16 Vds_maxRefRaw = Vds_Index_Goal_Relative > 0? 255 - Vds_Index_Goal_Relative: 255;
 3847              		.loc 2 683 0 is_stmt 0 discriminator 1
 3848 0066 5A42     		negs	r2, r3
 3849 0068 92B2     		uxth	r2, r2
 3850 006a 00E0     		b	.L341
 3851              	.L351:
 683:main.c        **** 	uint16 Vds_maxRefRaw = Vds_Index_Goal_Relative > 0? 255 - Vds_Index_Goal_Relative: 255;
 3852              		.loc 2 683 0
 3853 006c 0022     		movs	r2, #0
 3854              	.L341:
ARM GAS  C:\Users\FRANKL~1\AppData\Local\Temp\ccjWonOy.s 			page 96


 3855              	.LVL514:
 684:main.c        **** 	uint16 Vgs_minRefRaw = Vgs_Index_Goal_Relative > 0? 0: -Vgs_Index_Goal_Relative;
 3856              		.loc 2 684 0 is_stmt 1 discriminator 4
 3857 006e 002B     		cmp	r3, #0
 3858 0070 03DD     		ble	.L352
 684:main.c        **** 	uint16 Vgs_minRefRaw = Vgs_Index_Goal_Relative > 0? 0: -Vgs_Index_Goal_Relative;
 3859              		.loc 2 684 0 is_stmt 0 discriminator 1
 3860 0072 C3F1FF03 		rsb	r3, r3, #255
 3861 0076 9BB2     		uxth	r3, r3
 3862 0078 00E0     		b	.L342
 3863              	.L352:
 684:main.c        **** 	uint16 Vgs_minRefRaw = Vgs_Index_Goal_Relative > 0? 0: -Vgs_Index_Goal_Relative;
 3864              		.loc 2 684 0
 3865 007a FF23     		movs	r3, #255
 3866              	.L342:
 3867              	.LVL515:
 685:main.c        **** 	uint16 Vgs_maxRefRaw = Vgs_Index_Goal_Relative > 0? 255 - Vgs_Index_Goal_Relative: 255;
 3868              		.loc 2 685 0 is_stmt 1 discriminator 4
 3869 007c 002C     		cmp	r4, #0
 3870 007e 02DC     		bgt	.L353
 685:main.c        **** 	uint16 Vgs_maxRefRaw = Vgs_Index_Goal_Relative > 0? 255 - Vgs_Index_Goal_Relative: 255;
 3871              		.loc 2 685 0 is_stmt 0 discriminator 1
 3872 0080 6E42     		negs	r6, r5
 3873 0082 B6B2     		uxth	r6, r6
 3874 0084 00E0     		b	.L343
 3875              	.L353:
 685:main.c        **** 	uint16 Vgs_maxRefRaw = Vgs_Index_Goal_Relative > 0? 255 - Vgs_Index_Goal_Relative: 255;
 3876              		.loc 2 685 0
 3877 0086 0026     		movs	r6, #0
 3878              	.L343:
 3879              	.LVL516:
 686:main.c        **** 	
 3880              		.loc 2 686 0 is_stmt 1 discriminator 4
 3881 0088 002C     		cmp	r4, #0
 3882 008a 03DD     		ble	.L354
 686:main.c        **** 	
 3883              		.loc 2 686 0 is_stmt 0 discriminator 1
 3884 008c C5F1FF00 		rsb	r0, r5, #255
 3885 0090 80B2     		uxth	r0, r0
 3886 0092 00E0     		b	.L344
 3887              	.L354:
 686:main.c        **** 	
 3888              		.loc 2 686 0
 3889 0094 FF20     		movs	r0, #255
 3890              	.L344:
 3891              	.LVL517:
 688:main.c        **** 	
 3892              		.loc 2 688 0 is_stmt 1 discriminator 4
 3893 0096 0949     		ldr	r1, .L356
 3894 0098 0978     		ldrb	r1, [r1]	@ zero_extendqisi2
 3895              	.LVL518:
 690:main.c        **** 	if (newRefRaw > Vds_maxRefRaw) newRefRaw = Vds_maxRefRaw;
 3896              		.loc 2 690 0 discriminator 4
 3897 009a 8A42     		cmp	r2, r1
 3898 009c 00D8     		bhi	.L345
 688:main.c        **** 	
 3899              		.loc 2 688 0
ARM GAS  C:\Users\FRANKL~1\AppData\Local\Temp\ccjWonOy.s 			page 97


 3900 009e 0A46     		mov	r2, r1
 3901              	.LVL519:
 3902              	.L345:
 691:main.c        **** 	if (newRefRaw < Vgs_minRefRaw) newRefRaw = Vgs_minRefRaw;
 3903              		.loc 2 691 0
 3904 00a0 9A42     		cmp	r2, r3
 3905 00a2 00D8     		bhi	.L346
 3906 00a4 1346     		mov	r3, r2
 3907              	.LVL520:
 3908              	.L346:
 692:main.c        **** 	if (newRefRaw > Vgs_maxRefRaw) newRefRaw = Vgs_maxRefRaw;
 3909              		.loc 2 692 0
 3910 00a6 B342     		cmp	r3, r6
 3911 00a8 00D3     		bcc	.L347
 3912 00aa 1E46     		mov	r6, r3
 3913              	.LVL521:
 3914              	.L347:
 693:main.c        **** 	
 3915              		.loc 2 693 0
 3916 00ac 8642     		cmp	r6, r0
 3917 00ae 00D8     		bhi	.L348
 3918 00b0 3046     		mov	r0, r6
 3919              	.LVL522:
 3920              	.L348:
 695:main.c        **** }
 3921              		.loc 2 695 0
 3922 00b2 C0B2     		uxtb	r0, r0
 3923              	.LVL523:
 3924 00b4 FFF7FEFF 		bl	Set_Ref_Raw
 3925              	.LVL524:
 3926 00b8 70BD     		pop	{r4, r5, r6, pc}
 3927              	.LVL525:
 3928              	.L357:
 3929 00ba 00BF     		.align	2
 3930              	.L356:
 3931 00bc 825B0040 		.word	1073765250
 3932 00c0 00000000 		.word	Vgs_Index_Goal_Relative
 3933 00c4 00000000 		.word	Vds_Index_Goal_Relative
 3934              		.cfi_endproc
 3935              	.LFE104:
 3936              		.size	Set_Vgs_Rel, .-Set_Vgs_Rel
 3937              		.global	__aeabi_d2iz
 3938              		.section	.text.Set_Vgs,"ax",%progbits
 3939              		.align	2
 3940              		.global	Set_Vgs
 3941              		.thumb
 3942              		.thumb_func
 3943              		.type	Set_Vgs, %function
 3944              	Set_Vgs:
 3945              	.LFB105:
 700:main.c        **** 	Set_Vgs_Rel((voltage/4.080)*255.0);
 3946              		.loc 2 700 0
 3947              		.cfi_startproc
 3948              		@ args = 0, pretend = 0, frame = 0
 3949              		@ frame_needed = 0, uses_anonymous_args = 0
 3950              	.LVL526:
 3951 0000 08B5     		push	{r3, lr}
ARM GAS  C:\Users\FRANKL~1\AppData\Local\Temp\ccjWonOy.s 			page 98


 3952              		.cfi_def_cfa_offset 8
 3953              		.cfi_offset 3, -8
 3954              		.cfi_offset 14, -4
 701:main.c        **** }
 3955              		.loc 2 701 0
 3956 0002 FFF7FEFF 		bl	__aeabi_f2d
 3957              	.LVL527:
 3958 0006 08A3     		adr	r3, .L360
 3959 0008 D3E90023 		ldrd	r2, [r3]
 3960 000c FFF7FEFF 		bl	__aeabi_ddiv
 3961              	.LVL528:
 3962 0010 07A3     		adr	r3, .L360+8
 3963 0012 D3E90023 		ldrd	r2, [r3]
 3964 0016 FFF7FEFF 		bl	__aeabi_dmul
 3965              	.LVL529:
 3966 001a FFF7FEFF 		bl	__aeabi_d2iz
 3967              	.LVL530:
 3968 001e 00B2     		sxth	r0, r0
 3969 0020 FFF7FEFF 		bl	Set_Vgs_Rel
 3970              	.LVL531:
 3971 0024 08BD     		pop	{r3, pc}
 3972              	.L361:
 3973 0026 00BF     		.align	3
 3974              	.L360:
 3975 0028 52B81E85 		.word	-2061584302
 3976 002c EB511040 		.word	1074811371
 3977 0030 00000000 		.word	0
 3978 0034 00E06F40 		.word	1081073664
 3979              		.cfi_endproc
 3980              	.LFE105:
 3981              		.size	Set_Vgs, .-Set_Vgs
 3982              		.section	.text.Set_Vds,"ax",%progbits
 3983              		.align	2
 3984              		.global	Set_Vds
 3985              		.thumb
 3986              		.thumb_func
 3987              		.type	Set_Vds, %function
 3988              	Set_Vds:
 3989              	.LFB106:
 705:main.c        **** 	Set_Vds_Rel((voltage/4.080)*255.0);
 3990              		.loc 2 705 0
 3991              		.cfi_startproc
 3992              		@ args = 0, pretend = 0, frame = 0
 3993              		@ frame_needed = 0, uses_anonymous_args = 0
 3994              	.LVL532:
 3995 0000 08B5     		push	{r3, lr}
 3996              		.cfi_def_cfa_offset 8
 3997              		.cfi_offset 3, -8
 3998              		.cfi_offset 14, -4
 706:main.c        **** }
 3999              		.loc 2 706 0
 4000 0002 FFF7FEFF 		bl	__aeabi_f2d
 4001              	.LVL533:
 4002 0006 08A3     		adr	r3, .L364
 4003 0008 D3E90023 		ldrd	r2, [r3]
 4004 000c FFF7FEFF 		bl	__aeabi_ddiv
 4005              	.LVL534:
ARM GAS  C:\Users\FRANKL~1\AppData\Local\Temp\ccjWonOy.s 			page 99


 4006 0010 07A3     		adr	r3, .L364+8
 4007 0012 D3E90023 		ldrd	r2, [r3]
 4008 0016 FFF7FEFF 		bl	__aeabi_dmul
 4009              	.LVL535:
 4010 001a FFF7FEFF 		bl	__aeabi_d2iz
 4011              	.LVL536:
 4012 001e 00B2     		sxth	r0, r0
 4013 0020 FFF7FEFF 		bl	Set_Vds_Rel
 4014              	.LVL537:
 4015 0024 08BD     		pop	{r3, pc}
 4016              	.L365:
 4017 0026 00BF     		.align	3
 4018              	.L364:
 4019 0028 52B81E85 		.word	-2061584302
 4020 002c EB511040 		.word	1074811371
 4021 0030 00000000 		.word	0
 4022 0034 00E06F40 		.word	1081073664
 4023              		.cfi_endproc
 4024              	.LFE106:
 4025              		.size	Set_Vds, .-Set_Vds
 4026              		.section	.text.Set_Vgs_mV,"ax",%progbits
 4027              		.align	2
 4028              		.global	Set_Vgs_mV
 4029              		.thumb
 4030              		.thumb_func
 4031              		.type	Set_Vgs_mV, %function
 4032              	Set_Vgs_mV:
 4033              	.LFB107:
 711:main.c        **** 	Set_Vgs(mV/1000.0);
 4034              		.loc 2 711 0
 4035              		.cfi_startproc
 4036              		@ args = 0, pretend = 0, frame = 0
 4037              		@ frame_needed = 0, uses_anonymous_args = 0
 4038              	.LVL538:
 4039 0000 08B5     		push	{r3, lr}
 4040              		.cfi_def_cfa_offset 8
 4041              		.cfi_offset 3, -8
 4042              		.cfi_offset 14, -4
 712:main.c        **** }
 4043              		.loc 2 712 0
 4044 0002 0349     		ldr	r1, .L368
 4045 0004 FFF7FEFF 		bl	__aeabi_fdiv
 4046              	.LVL539:
 4047 0008 FFF7FEFF 		bl	Set_Vgs
 4048              	.LVL540:
 4049 000c 08BD     		pop	{r3, pc}
 4050              	.L369:
 4051 000e 00BF     		.align	2
 4052              	.L368:
 4053 0010 00007A44 		.word	1148846080
 4054              		.cfi_endproc
 4055              	.LFE107:
 4056              		.size	Set_Vgs_mV, .-Set_Vgs_mV
 4057              		.section	.text.Set_Vds_mV,"ax",%progbits
 4058              		.align	2
 4059              		.global	Set_Vds_mV
 4060              		.thumb
ARM GAS  C:\Users\FRANKL~1\AppData\Local\Temp\ccjWonOy.s 			page 100


 4061              		.thumb_func
 4062              		.type	Set_Vds_mV, %function
 4063              	Set_Vds_mV:
 4064              	.LFB108:
 716:main.c        **** 	Set_Vds(mV/1000.0);
 4065              		.loc 2 716 0
 4066              		.cfi_startproc
 4067              		@ args = 0, pretend = 0, frame = 0
 4068              		@ frame_needed = 0, uses_anonymous_args = 0
 4069              	.LVL541:
 4070 0000 08B5     		push	{r3, lr}
 4071              		.cfi_def_cfa_offset 8
 4072              		.cfi_offset 3, -8
 4073              		.cfi_offset 14, -4
 717:main.c        **** }
 4074              		.loc 2 717 0
 4075 0002 0349     		ldr	r1, .L372
 4076 0004 FFF7FEFF 		bl	__aeabi_fdiv
 4077              	.LVL542:
 4078 0008 FFF7FEFF 		bl	Set_Vds
 4079              	.LVL543:
 4080 000c 08BD     		pop	{r3, pc}
 4081              	.L373:
 4082 000e 00BF     		.align	2
 4083              	.L372:
 4084 0010 00007A44 		.word	1148846080
 4085              		.cfi_endproc
 4086              	.LFE108:
 4087              		.size	Set_Vds_mV, .-Set_Vds_mV
 4088              		.section	.text.Zero_All_DACs,"ax",%progbits
 4089              		.align	2
 4090              		.global	Zero_All_DACs
 4091              		.thumb
 4092              		.thumb_func
 4093              		.type	Zero_All_DACs, %function
 4094              	Zero_All_DACs:
 4095              	.LFB109:
 722:main.c        **** 	Set_Vds_Raw(0);
 4096              		.loc 2 722 0
 4097              		.cfi_startproc
 4098              		@ args = 0, pretend = 0, frame = 0
 4099              		@ frame_needed = 0, uses_anonymous_args = 0
 4100 0000 08B5     		push	{r3, lr}
 4101              		.cfi_def_cfa_offset 8
 4102              		.cfi_offset 3, -8
 4103              		.cfi_offset 14, -4
 723:main.c        **** 	Set_Vgs_Raw(0);
 4104              		.loc 2 723 0
 4105 0002 0020     		movs	r0, #0
 4106 0004 FFF7FEFF 		bl	Set_Vds_Raw
 4107              	.LVL544:
 724:main.c        **** 	
 4108              		.loc 2 724 0
 4109 0008 0020     		movs	r0, #0
 4110 000a FFF7FEFF 		bl	Set_Vgs_Raw
 4111              	.LVL545:
 726:main.c        **** 	VDAC_Vgs_SetValue(0);
ARM GAS  C:\Users\FRANKL~1\AppData\Local\Temp\ccjWonOy.s 			page 101


 4112              		.loc 2 726 0
 4113 000e 0020     		movs	r0, #0
 4114 0010 FFF7FEFF 		bl	VDAC_Vds_SetValue
 4115              	.LVL546:
 727:main.c        **** }
 4116              		.loc 2 727 0
 4117 0014 0020     		movs	r0, #0
 4118 0016 FFF7FEFF 		bl	VDAC_Vgs_SetValue
 4119              	.LVL547:
 4120 001a 08BD     		pop	{r3, pc}
 4121              		.cfi_endproc
 4122              	.LFE109:
 4123              		.size	Zero_All_DACs, .-Zero_All_DACs
 4124              		.section	.text.Calibrate_ADC_Offset,"ax",%progbits
 4125              		.align	2
 4126              		.global	Calibrate_ADC_Offset
 4127              		.thumb
 4128              		.thumb_func
 4129              		.type	Calibrate_ADC_Offset, %function
 4130              	Calibrate_ADC_Offset:
 4131              	.LFB110:
 730:main.c        **** 	uint8 current_range_resistor = TIA_Selected_Resistor;
 4132              		.loc 2 730 0
 4133              		.cfi_startproc
 4134              		@ args = 0, pretend = 0, frame = 8
 4135              		@ frame_needed = 0, uses_anonymous_args = 0
 4136              	.LVL548:
 4137 0000 F0B5     		push	{r4, r5, r6, r7, lr}
 4138              		.cfi_def_cfa_offset 20
 4139              		.cfi_offset 4, -20
 4140              		.cfi_offset 5, -16
 4141              		.cfi_offset 6, -12
 4142              		.cfi_offset 7, -8
 4143              		.cfi_offset 14, -4
 4144 0002 85B0     		sub	sp, sp, #20
 4145              		.cfi_def_cfa_offset 40
 4146 0004 0546     		mov	r5, r0
 731:main.c        **** 	
 4147              		.loc 2 731 0
 4148 0006 234B     		ldr	r3, .L380
 4149 0008 1E79     		ldrb	r6, [r3, #4]	@ zero_extendqisi2
 4150              	.LVL549:
 734:main.c        **** 	Set_Vgs(0);
 4151              		.loc 2 734 0
 4152 000a 0024     		movs	r4, #0
 4153 000c 2046     		mov	r0, r4
 4154              	.LVL550:
 4155 000e FFF7FEFF 		bl	Set_Vds
 4156              	.LVL551:
 735:main.c        **** 	
 4157              		.loc 2 735 0
 4158 0012 2046     		mov	r0, r4
 4159 0014 FFF7FEFF 		bl	Set_Vgs
 4160              	.LVL552:
 738:main.c        **** 	int32 voltageSD = 0;
 4161              		.loc 2 738 0
 4162 0018 0024     		movs	r4, #0
ARM GAS  C:\Users\FRANKL~1\AppData\Local\Temp\ccjWonOy.s 			page 102


 4163 001a 0394     		str	r4, [sp, #12]
 739:main.c        **** 	
 4164              		.loc 2 739 0
 4165 001c 0294     		str	r4, [sp, #8]
 4166              	.LVL553:
 4167              	.LBB48:
 742:main.c        **** 		TIA_Set_Resistor(i);
 4168              		.loc 2 742 0
 4169 001e 22E0     		b	.L377
 4170              	.LVL554:
 4171              	.L378:
 743:main.c        **** 		// Take a few measurements to discard any problems with the initial measurements
 4172              		.loc 2 743 0 discriminator 3
 4173 0020 2046     		mov	r0, r4
 4174 0022 FFF7FEFF 		bl	TIA_Set_Resistor
 4175              	.LVL555:
 745:main.c        **** 		ADC_Measure_uV(&voltage, &voltageSD, sampleCount);
 4176              		.loc 2 745 0 discriminator 3
 4177 0026 0322     		movs	r2, #3
 4178 0028 02A9     		add	r1, sp, #8
 4179 002a 03A8     		add	r0, sp, #12
 4180 002c FFF7FEFF 		bl	ADC_Measure_uV
 4181              	.LVL556:
 746:main.c        **** 		TIA_Offsets_uV[i] = -voltage;
 4182              		.loc 2 746 0 discriminator 3
 4183 0030 2A46     		mov	r2, r5
 4184 0032 02A9     		add	r1, sp, #8
 4185 0034 03A8     		add	r0, sp, #12
 4186 0036 FFF7FEFF 		bl	ADC_Measure_uV
 4187              	.LVL557:
 747:main.c        **** 		sprintf(TransmitBuffer, "# Offset %e Ohm: %li uV\r\n", TIA_Resistor_Values[i], -voltage);
 4188              		.loc 2 747 0 discriminator 3
 4189 003a 039F     		ldr	r7, [sp, #12]
 4190 003c 7F42     		negs	r7, r7
 4191 003e A300     		lsls	r3, r4, #2
 4192 0040 144A     		ldr	r2, .L380
 4193 0042 1A44     		add	r2, r2, r3
 4194 0044 9760     		str	r7, [r2, #8]
 748:main.c        **** 		sendTransmitBuffer();
 4195              		.loc 2 748 0 discriminator 3
 4196 0046 144A     		ldr	r2, .L380+4
 4197 0048 1344     		add	r3, r3, r2
 4198 004a D868     		ldr	r0, [r3, #12]	@ float
 4199 004c FFF7FEFF 		bl	__aeabi_f2d
 4200              	.LVL558:
 4201 0050 0097     		str	r7, [sp]
 4202 0052 0246     		mov	r2, r0
 4203 0054 0B46     		mov	r3, r1
 4204 0056 1149     		ldr	r1, .L380+8
 4205 0058 1148     		ldr	r0, .L380+12
 4206 005a FFF7FEFF 		bl	sprintf
 4207              	.LVL559:
 749:main.c        **** 	}
 4208              		.loc 2 749 0 discriminator 3
 4209 005e FFF7FEFF 		bl	sendTransmitBuffer
 4210              	.LVL560:
 742:main.c        **** 		TIA_Set_Resistor(i);
ARM GAS  C:\Users\FRANKL~1\AppData\Local\Temp\ccjWonOy.s 			page 103


 4211              		.loc 2 742 0 discriminator 3
 4212 0062 0134     		adds	r4, r4, #1
 4213              	.LVL561:
 4214 0064 E4B2     		uxtb	r4, r4
 4215              	.LVL562:
 4216              	.L377:
 742:main.c        **** 		TIA_Set_Resistor(i);
 4217              		.loc 2 742 0 is_stmt 0 discriminator 1
 4218 0066 072C     		cmp	r4, #7
 4219 0068 DAD9     		bls	.L378
 4220              	.LBE48:
 753:main.c        **** 	
 4221              		.loc 2 753 0 is_stmt 1
 4222 006a 3046     		mov	r0, r6
 4223 006c FFF7FEFF 		bl	TIA_Set_Resistor
 4224              	.LVL563:
 755:main.c        **** 	sendTransmitBuffer();
 4225              		.loc 2 755 0
 4226 0070 0B4D     		ldr	r5, .L380+12
 4227              	.LVL564:
 4228 0072 0C4C     		ldr	r4, .L380+16
 4229              	.LVL565:
 4230 0074 0FCC     		ldmia	r4!, {r0, r1, r2, r3}
 4231 0076 2860     		str	r0, [r5]	@ unaligned
 4232 0078 6960     		str	r1, [r5, #4]	@ unaligned
 4233 007a AA60     		str	r2, [r5, #8]	@ unaligned
 4234 007c EB60     		str	r3, [r5, #12]	@ unaligned
 4235 007e 03CC     		ldmia	r4!, {r0, r1}
 4236 0080 2861     		str	r0, [r5, #16]	@ unaligned
 4237 0082 6961     		str	r1, [r5, #20]	@ unaligned
 4238 0084 2288     		ldrh	r2, [r4]	@ unaligned
 4239 0086 A378     		ldrb	r3, [r4, #2]	@ zero_extendqisi2
 4240 0088 2A83     		strh	r2, [r5, #24]	@ unaligned
 4241 008a AB76     		strb	r3, [r5, #26]
 756:main.c        **** }
 4242              		.loc 2 756 0
 4243 008c FFF7FEFF 		bl	sendTransmitBuffer
 4244              	.LVL566:
 757:main.c        **** 
 4245              		.loc 2 757 0
 4246 0090 05B0     		add	sp, sp, #20
 4247              		.cfi_def_cfa_offset 20
 4248              		@ sp needed
 4249 0092 F0BD     		pop	{r4, r5, r6, r7, pc}
 4250              	.LVL567:
 4251              	.L381:
 4252              		.align	2
 4253              	.L380:
 4254 0094 00000000 		.word	.LANCHOR0
 4255 0098 00000000 		.word	.LANCHOR1
 4256 009c A8000000 		.word	.LC11
 4257 00a0 00000000 		.word	TransmitBuffer
 4258 00a4 C4000000 		.word	.LC12
 4259              		.cfi_endproc
 4260              	.LFE110:
 4261              		.size	Calibrate_ADC_Offset, .-Calibrate_ADC_Offset
 4262              		.section	.text.Measure,"ax",%progbits
ARM GAS  C:\Users\FRANKL~1\AppData\Local\Temp\ccjWonOy.s 			page 104


 4263              		.align	2
 4264              		.global	Measure
 4265              		.thumb
 4266              		.thumb_func
 4267              		.type	Measure, %function
 4268              	Measure:
 4269              	.LFB111:
 760:main.c        **** 	float IdsAverageAmps = 0;
 4270              		.loc 2 760 0
 4271              		.cfi_startproc
 4272              		@ args = 0, pretend = 0, frame = 8
 4273              		@ frame_needed = 0, uses_anonymous_args = 0
 4274              	.LVL568:
 4275 0000 70B5     		push	{r4, r5, r6, lr}
 4276              		.cfi_def_cfa_offset 16
 4277              		.cfi_offset 4, -16
 4278              		.cfi_offset 5, -12
 4279              		.cfi_offset 6, -8
 4280              		.cfi_offset 14, -4
 4281 0002 86B0     		sub	sp, sp, #24
 4282              		.cfi_def_cfa_offset 40
 761:main.c        **** 	float IdsSDAmps = 0;
 4283              		.loc 2 761 0
 4284 0004 0023     		movs	r3, #0
 4285 0006 0593     		str	r3, [sp, #20]	@ float
 762:main.c        **** 	
 4286              		.loc 2 762 0
 4287 0008 06A9     		add	r1, sp, #24
 4288              	.LVL569:
 4289 000a 41F8083D 		str	r3, [r1, #-8]!	@ float
 764:main.c        **** 	
 4290              		.loc 2 764 0
 4291 000e 0023     		movs	r3, #0
 4292 0010 0246     		mov	r2, r0
 4293              	.LVL570:
 4294 0012 05A8     		add	r0, sp, #20
 4295              	.LVL571:
 4296 0014 FFF7FEFF 		bl	Measure_Current_Vss
 4297              	.LVL572:
 777:main.c        **** 	sendTransmitBuffer();
 4298              		.loc 2 777 0
 4299 0018 0598     		ldr	r0, [sp, #20]	@ float
 4300 001a FFF7FEFF 		bl	__aeabi_f2d
 4301              	.LVL573:
 4302 001e 0446     		mov	r4, r0
 4303 0020 0D46     		mov	r5, r1
 4304 0022 FFF7FEFF 		bl	Get_Vgs
 4305              	.LVL574:
 4306 0026 0646     		mov	r6, r0
 4307 0028 FFF7FEFF 		bl	Get_Vds
 4308              	.LVL575:
 4309 002c FFF7FEFF 		bl	__aeabi_f2d
 4310              	.LVL576:
 4311 0030 CDE90201 		strd	r0, [sp, #8]
 4312 0034 3046     		mov	r0, r6
 4313 0036 FFF7FEFF 		bl	__aeabi_f2d
 4314              	.LVL577:
ARM GAS  C:\Users\FRANKL~1\AppData\Local\Temp\ccjWonOy.s 			page 105


 4315 003a CDE90001 		strd	r0, [sp]
 4316 003e 2246     		mov	r2, r4
 4317 0040 2B46     		mov	r3, r5
 4318 0042 0449     		ldr	r1, .L384
 4319 0044 0448     		ldr	r0, .L384+4
 4320 0046 FFF7FEFF 		bl	sprintf
 4321              	.LVL578:
 778:main.c        **** }
 4322              		.loc 2 778 0
 4323 004a FFF7FEFF 		bl	sendTransmitBuffer
 4324              	.LVL579:
 779:main.c        **** 
 4325              		.loc 2 779 0
 4326 004e 06B0     		add	sp, sp, #24
 4327              		.cfi_def_cfa_offset 16
 4328              		@ sp needed
 4329 0050 70BD     		pop	{r4, r5, r6, pc}
 4330              	.L385:
 4331 0052 00BF     		.align	2
 4332              	.L384:
 4333 0054 E0000000 		.word	.LC13
 4334 0058 00000000 		.word	TransmitBuffer
 4335              		.cfi_endproc
 4336              	.LFE111:
 4337              		.size	Measure, .-Measure
 4338              		.section	.text.Measure_Multiple,"ax",%progbits
 4339              		.align	2
 4340              		.global	Measure_Multiple
 4341              		.thumb
 4342              		.thumb_func
 4343              		.type	Measure_Multiple, %function
 4344              	Measure_Multiple:
 4345              	.LFB112:
 782:main.c        **** 	for (uint32 i = 0; i < n; i++) {
 4346              		.loc 2 782 0
 4347              		.cfi_startproc
 4348              		@ args = 0, pretend = 0, frame = 0
 4349              		@ frame_needed = 0, uses_anonymous_args = 0
 4350              	.LVL580:
 4351 0000 38B5     		push	{r3, r4, r5, lr}
 4352              		.cfi_def_cfa_offset 16
 4353              		.cfi_offset 3, -16
 4354              		.cfi_offset 4, -12
 4355              		.cfi_offset 5, -8
 4356              		.cfi_offset 14, -4
 4357 0002 0546     		mov	r5, r0
 4358              	.LVL581:
 4359              	.LBB49:
 783:main.c        **** 		Measure(100, 1, 10);
 4360              		.loc 2 783 0
 4361 0004 0024     		movs	r4, #0
 4362 0006 05E0     		b	.L387
 4363              	.LVL582:
 4364              	.L388:
 784:main.c        **** 	}
 4365              		.loc 2 784 0 discriminator 3
 4366 0008 0A22     		movs	r2, #10
ARM GAS  C:\Users\FRANKL~1\AppData\Local\Temp\ccjWonOy.s 			page 106


 4367 000a 0121     		movs	r1, #1
 4368 000c 6420     		movs	r0, #100
 4369 000e FFF7FEFF 		bl	Measure
 4370              	.LVL583:
 783:main.c        **** 		Measure(100, 1, 10);
 4371              		.loc 2 783 0 discriminator 3
 4372 0012 0134     		adds	r4, r4, #1
 4373              	.LVL584:
 4374              	.L387:
 783:main.c        **** 		Measure(100, 1, 10);
 4375              		.loc 2 783 0 is_stmt 0 discriminator 1
 4376 0014 AC42     		cmp	r4, r5
 4377 0016 F7D3     		bcc	.L388
 4378              	.LBE49:
 786:main.c        **** 
 4379              		.loc 2 786 0 is_stmt 1
 4380 0018 38BD     		pop	{r3, r4, r5, pc}
 4381              		.cfi_endproc
 4382              	.LFE112:
 4383              		.size	Measure_Multiple, .-Measure_Multiple
 4384 001a 00BF     		.section	.text.Measure_Sweep,"ax",%progbits
 4385              		.align	2
 4386              		.global	Measure_Sweep
 4387              		.thumb
 4388              		.thumb_func
 4389              		.type	Measure_Sweep, %function
 4390              	Measure_Sweep:
 4391              	.LFB113:
 789:main.c        **** 	VDAC_Vds_SetValue(90);
 4392              		.loc 2 789 0
 4393              		.cfi_startproc
 4394              		@ args = 0, pretend = 0, frame = 0
 4395              		@ frame_needed = 0, uses_anonymous_args = 0
 4396 0000 10B5     		push	{r4, lr}
 4397              		.cfi_def_cfa_offset 8
 4398              		.cfi_offset 4, -8
 4399              		.cfi_offset 14, -4
 790:main.c        **** 	VDAC_Vgs_SetValue(254);
 4400              		.loc 2 790 0
 4401 0002 5A20     		movs	r0, #90
 4402 0004 FFF7FEFF 		bl	VDAC_Vds_SetValue
 4403              	.LVL585:
 791:main.c        **** 	
 4404              		.loc 2 791 0
 4405 0008 FE20     		movs	r0, #254
 4406 000a FFF7FEFF 		bl	VDAC_Vgs_SetValue
 4407              	.LVL586:
 4408              	.LBB50:
 793:main.c        **** 		VDAC_Vgs_SetValue(Vgsi);
 4409              		.loc 2 793 0
 4410 000e 0024     		movs	r4, #0
 4411 0010 09E0     		b	.L391
 4412              	.LVL587:
 4413              	.L392:
 794:main.c        **** 		Measure(100, 1, 1);
 4414              		.loc 2 794 0 discriminator 3
 4415 0012 E0B2     		uxtb	r0, r4
ARM GAS  C:\Users\FRANKL~1\AppData\Local\Temp\ccjWonOy.s 			page 107


 4416 0014 FFF7FEFF 		bl	VDAC_Vgs_SetValue
 4417              	.LVL588:
 795:main.c        **** 	}
 4418              		.loc 2 795 0 discriminator 3
 4419 0018 0122     		movs	r2, #1
 4420 001a 1146     		mov	r1, r2
 4421 001c 6420     		movs	r0, #100
 4422 001e FFF7FEFF 		bl	Measure
 4423              	.LVL589:
 793:main.c        **** 		VDAC_Vgs_SetValue(Vgsi);
 4424              		.loc 2 793 0 discriminator 3
 4425 0022 0134     		adds	r4, r4, #1
 4426              	.LVL590:
 4427 0024 A4B2     		uxth	r4, r4
 4428              	.LVL591:
 4429              	.L391:
 793:main.c        **** 		VDAC_Vgs_SetValue(Vgsi);
 4430              		.loc 2 793 0 is_stmt 0 discriminator 1
 4431 0026 FF2C     		cmp	r4, #255
 4432 0028 F3D9     		bls	.L392
 4433              	.LBE50:
 797:main.c        **** 
 4434              		.loc 2 797 0 is_stmt 1
 4435 002a 10BD     		pop	{r4, pc}
 4436              		.cfi_endproc
 4437              	.LFE113:
 4438              		.size	Measure_Sweep, .-Measure_Sweep
 4439              		.section	.text.Measure_Gate_Sweep,"ax",%progbits
 4440              		.align	2
 4441              		.global	Measure_Gate_Sweep
 4442              		.thumb
 4443              		.thumb_func
 4444              		.type	Measure_Gate_Sweep, %function
 4445              	Measure_Gate_Sweep:
 4446              	.LFB114:
 799:main.c        **** 	
 4447              		.loc 2 799 0
 4448              		.cfi_startproc
 4449              		@ args = 0, pretend = 0, frame = 0
 4450              		@ frame_needed = 0, uses_anonymous_args = 0
 4451              	.LVL592:
 4452 0000 2DE9F843 		push	{r3, r4, r5, r6, r7, r8, r9, lr}
 4453              		.cfi_def_cfa_offset 32
 4454              		.cfi_offset 3, -32
 4455              		.cfi_offset 4, -28
 4456              		.cfi_offset 5, -24
 4457              		.cfi_offset 6, -20
 4458              		.cfi_offset 7, -16
 4459              		.cfi_offset 8, -12
 4460              		.cfi_offset 9, -8
 4461              		.cfi_offset 14, -4
 4462 0004 8146     		mov	r9, r0
 801:main.c        **** 		Set_Ref_Raw(254 - Vds_Index_Goal_Relative);
 4463              		.loc 2 801 0
 4464 0006 274B     		ldr	r3, .L411
 4465 0008 B3F90030 		ldrsh	r3, [r3]
 4466 000c 002B     		cmp	r3, #0
ARM GAS  C:\Users\FRANKL~1\AppData\Local\Temp\ccjWonOy.s 			page 108


 4467 000e 07DD     		ble	.L395
 802:main.c        **** 	} else {
 4468              		.loc 2 802 0
 4469 0010 C3F1FE00 		rsb	r0, r3, #254
 4470              	.LVL593:
 4471 0014 C0B2     		uxtb	r0, r0
 4472 0016 FFF7FEFF 		bl	Set_Ref_Raw
 4473              	.LVL594:
 4474              	.L397:
 4475              	.LBB51:
 4476              	.LBB52:
 4477              	.LBB53:
 4478 001a 4FF00008 		mov	r8, #0
 4479 001e 3DE0     		b	.L396
 4480              	.LVL595:
 4481              	.L395:
 4482              	.LBE53:
 4483              	.LBE52:
 4484              	.LBE51:
 804:main.c        **** 	}
 4485              		.loc 2 804 0
 4486 0020 FE20     		movs	r0, #254
 4487              	.LVL596:
 4488 0022 FFF7FEFF 		bl	Set_Ref_Raw
 4489              	.LVL597:
 4490 0026 F8E7     		b	.L397
 4491              	.LVL598:
 4492              	.L406:
 4493              	.LBB58:
 4494              	.LBB57:
 812:main.c        **** 			istart = -Vds_Index_Goal_Relative;
 4495              		.loc 2 812 0
 4496 0028 1E4B     		ldr	r3, .L411
 4497 002a B3F90030 		ldrsh	r3, [r3]
 4498 002e 002B     		cmp	r3, #0
 4499 0030 02DA     		bge	.L407
 813:main.c        **** 		}
 4500              		.loc 2 813 0
 4501 0032 5B42     		negs	r3, r3
 4502 0034 DDB2     		uxtb	r5, r3
 4503              	.LVL599:
 4504 0036 00E0     		b	.L398
 4505              	.LVL600:
 4506              	.L407:
 811:main.c        **** 		if (Vds_Index_Goal_Relative < 0) {
 4507              		.loc 2 811 0
 4508 0038 0025     		movs	r5, #0
 4509              	.LVL601:
 4510              	.L398:
 818:main.c        **** 			direction = -1*speed;
 4511              		.loc 2 818 0
 4512 003a 18F0010F 		tst	r8, #1
 4513 003e 02D1     		bne	.L408
 816:main.c        **** 		
 4514              		.loc 2 816 0
 4515 0040 F026     		movs	r6, #240
 810:main.c        **** 		uint8 istart = 0;
ARM GAS  C:\Users\FRANKL~1\AppData\Local\Temp\ccjWonOy.s 			page 109


 4516              		.loc 2 810 0
 4517 0042 1027     		movs	r7, #16
 4518 0044 24E0     		b	.L400
 4519              	.L408:
 821:main.c        **** 		}
 4520              		.loc 2 821 0
 4521 0046 0026     		movs	r6, #0
 820:main.c        **** 			istop = 0;
 4522              		.loc 2 820 0
 4523 0048 F025     		movs	r5, #240
 4524              	.LVL602:
 819:main.c        **** 			istart = 256-speed;
 4525              		.loc 2 819 0
 4526 004a 6FF00F07 		mvn	r7, #15
 4527              	.LVL603:
 4528              	.LBB56:
 824:main.c        **** 			for (uint8 j = 0; j <= 1; j++) {
 4529              		.loc 2 824 0
 4530 004e 1FE0     		b	.L400
 4531              	.LVL604:
 4532              	.L404:
 4533              	.LBB54:
 826:main.c        **** 				Set_Vgs_Raw(i);
 4534              		.loc 2 826 0
 4535 0050 012C     		cmp	r4, #1
 4536 0052 03D1     		bne	.L401
 826:main.c        **** 				Set_Vgs_Raw(i);
 4537              		.loc 2 826 0 is_stmt 0 discriminator 1
 4538 0054 E843     		mvns	r0, r5
 4539 0056 C0B2     		uxtb	r0, r0
 4540 0058 FFF7FEFF 		bl	Set_Ref_Raw
 4541              	.LVL605:
 4542              	.L401:
 827:main.c        **** 				
 4543              		.loc 2 827 0 is_stmt 1
 4544 005c 2846     		mov	r0, r5
 4545 005e FFF7FEFF 		bl	Set_Vgs_Raw
 4546              	.LVL606:
 829:main.c        **** 				
 4547              		.loc 2 829 0
 4548 0062 0122     		movs	r2, #1
 4549 0064 1146     		mov	r1, r2
 4550 0066 2120     		movs	r0, #33
 4551 0068 FFF7FEFF 		bl	Measure
 4552              	.LVL607:
 831:main.c        **** 				while (G_Pause);
 4553              		.loc 2 831 0
 4554 006c 0E4B     		ldr	r3, .L411+4
 4555 006e 5B78     		ldrb	r3, [r3, #1]	@ zero_extendqisi2
 4556 0070 13F0FF0F 		tst	r3, #255
 4557 0074 0AD1     		bne	.L402
 4558              	.L403:
 832:main.c        **** 			}
 4559              		.loc 2 832 0 discriminator 1
 4560 0076 0C4B     		ldr	r3, .L411+4
 4561 0078 DB78     		ldrb	r3, [r3, #3]	@ zero_extendqisi2
 4562 007a 13F0FF0F 		tst	r3, #255
ARM GAS  C:\Users\FRANKL~1\AppData\Local\Temp\ccjWonOy.s 			page 110


 4563 007e FAD1     		bne	.L403
 825:main.c        **** 				if (j == 1) Set_Ref_Raw(254 - i + 1);
 4564              		.loc 2 825 0 discriminator 2
 4565 0080 0134     		adds	r4, r4, #1
 4566              	.LVL608:
 4567 0082 E4B2     		uxtb	r4, r4
 4568              	.LVL609:
 4569 0084 00E0     		b	.L405
 4570              	.LVL610:
 4571              	.L409:
 4572              	.LBE54:
 4573 0086 0024     		movs	r4, #0
 4574              	.L405:
 4575              	.LVL611:
 4576              	.LBB55:
 825:main.c        **** 				if (j == 1) Set_Ref_Raw(254 - i + 1);
 4577              		.loc 2 825 0 is_stmt 0 discriminator 1
 4578 0088 012C     		cmp	r4, #1
 4579 008a E1D9     		bls	.L404
 4580              	.L402:
 4581              	.LBE55:
 824:main.c        **** 			for (uint8 j = 0; j <= 1; j++) {
 4582              		.loc 2 824 0 is_stmt 1 discriminator 2
 4583 008c 3D44     		add	r5, r5, r7
 4584              	.LVL612:
 4585 008e EDB2     		uxtb	r5, r5
 4586              	.LVL613:
 4587              	.L400:
 824:main.c        **** 			for (uint8 j = 0; j <= 1; j++) {
 4588              		.loc 2 824 0 is_stmt 0 discriminator 1
 4589 0090 AE42     		cmp	r6, r5
 4590 0092 F8D1     		bne	.L409
 4591              	.LBE56:
 4592              	.LBE57:
 809:main.c        **** 		int8 direction = 1*speed;
 4593              		.loc 2 809 0 is_stmt 1 discriminator 2
 4594 0094 08F10108 		add	r8, r8, #1
 4595              	.LVL614:
 4596 0098 5FFA88F8 		uxtb	r8, r8
 4597              	.LVL615:
 4598              	.L396:
 809:main.c        **** 		int8 direction = 1*speed;
 4599              		.loc 2 809 0 is_stmt 0 discriminator 1
 4600 009c C845     		cmp	r8, r9
 4601 009e C3D9     		bls	.L406
 4602              	.LBE58:
 836:main.c        **** 
 4603              		.loc 2 836 0 is_stmt 1
 4604 00a0 BDE8F883 		pop	{r3, r4, r5, r6, r7, r8, r9, pc}
 4605              	.LVL616:
 4606              	.L412:
 4607              		.align	2
 4608              	.L411:
 4609 00a4 00000000 		.word	Vds_Index_Goal_Relative
 4610 00a8 00000000 		.word	.LANCHOR0
 4611              		.cfi_endproc
 4612              	.LFE114:
ARM GAS  C:\Users\FRANKL~1\AppData\Local\Temp\ccjWonOy.s 			page 111


 4613              		.size	Measure_Gate_Sweep, .-Measure_Gate_Sweep
 4614              		.section	.text.Measure_Wide_Gate_Sweep,"ax",%progbits
 4615              		.align	2
 4616              		.global	Measure_Wide_Gate_Sweep
 4617              		.thumb
 4618              		.thumb_func
 4619              		.type	Measure_Wide_Gate_Sweep, %function
 4620              	Measure_Wide_Gate_Sweep:
 4621              	.LFB115:
 838:main.c        **** 	Set_Ref_Raw(254);
 4622              		.loc 2 838 0
 4623              		.cfi_startproc
 4624              		@ args = 0, pretend = 0, frame = 0
 4625              		@ frame_needed = 0, uses_anonymous_args = 0
 4626              	.LVL617:
 4627 0000 2DE9F843 		push	{r3, r4, r5, r6, r7, r8, r9, lr}
 4628              		.cfi_def_cfa_offset 32
 4629              		.cfi_offset 3, -32
 4630              		.cfi_offset 4, -28
 4631              		.cfi_offset 5, -24
 4632              		.cfi_offset 6, -20
 4633              		.cfi_offset 7, -16
 4634              		.cfi_offset 8, -12
 4635              		.cfi_offset 9, -8
 4636              		.cfi_offset 14, -4
 4637 0004 8146     		mov	r9, r0
 839:main.c        **** 	
 4638              		.loc 2 839 0
 4639 0006 FE20     		movs	r0, #254
 4640              	.LVL618:
 4641 0008 FFF7FEFF 		bl	Set_Ref_Raw
 4642              	.LVL619:
 4643              	.LBB59:
 843:main.c        **** 		int8 direction = 1*speed;
 4644              		.loc 2 843 0
 4645 000c 4FF00008 		mov	r8, #0
 4646 0010 31E0     		b	.L414
 4647              	.LVL620:
 4648              	.L422:
 4649              	.LBB60:
 848:main.c        **** 			direction = -1*speed;
 4650              		.loc 2 848 0
 4651 0012 18F0010F 		tst	r8, #1
 4652 0016 03D1     		bne	.L423
 846:main.c        **** 		
 4653              		.loc 2 846 0
 4654 0018 F026     		movs	r6, #240
 845:main.c        **** 		uint8 istop = 256-speed;
 4655              		.loc 2 845 0
 4656 001a 0025     		movs	r5, #0
 844:main.c        **** 		uint8 istart = 0;
 4657              		.loc 2 844 0
 4658 001c 1027     		movs	r7, #16
 4659 001e 24E0     		b	.L416
 4660              	.L423:
 851:main.c        **** 		}
 4661              		.loc 2 851 0
ARM GAS  C:\Users\FRANKL~1\AppData\Local\Temp\ccjWonOy.s 			page 112


 4662 0020 0026     		movs	r6, #0
 850:main.c        **** 			istop = 0;
 4663              		.loc 2 850 0
 4664 0022 F025     		movs	r5, #240
 849:main.c        **** 			istart = 256-speed;
 4665              		.loc 2 849 0
 4666 0024 6FF00F07 		mvn	r7, #15
 4667              	.LVL621:
 4668              	.LBB61:
 854:main.c        **** 			for (uint8 j = 0; j <= 1; j++) {
 4669              		.loc 2 854 0
 4670 0028 1FE0     		b	.L416
 4671              	.LVL622:
 4672              	.L420:
 4673              	.LBB62:
 857:main.c        **** 				Set_Vgs_Raw(i);
 4674              		.loc 2 857 0
 4675 002a 012C     		cmp	r4, #1
 4676 002c 03D1     		bne	.L417
 857:main.c        **** 				Set_Vgs_Raw(i);
 4677              		.loc 2 857 0 is_stmt 0 discriminator 1
 4678 002e E843     		mvns	r0, r5
 4679 0030 C0B2     		uxtb	r0, r0
 4680 0032 FFF7FEFF 		bl	Set_Ref_Raw
 4681              	.LVL623:
 4682              	.L417:
 858:main.c        **** 				
 4683              		.loc 2 858 0 is_stmt 1
 4684 0036 2846     		mov	r0, r5
 4685 0038 FFF7FEFF 		bl	Set_Vgs_Raw
 4686              	.LVL624:
 860:main.c        **** 				
 4687              		.loc 2 860 0
 4688 003c 0122     		movs	r2, #1
 4689 003e 1146     		mov	r1, r2
 4690 0040 2120     		movs	r0, #33
 4691 0042 FFF7FEFF 		bl	Measure
 4692              	.LVL625:
 862:main.c        **** 				while (G_Pause);
 4693              		.loc 2 862 0
 4694 0046 0E4B     		ldr	r3, .L426
 4695 0048 5B78     		ldrb	r3, [r3, #1]	@ zero_extendqisi2
 4696 004a 13F0FF0F 		tst	r3, #255
 4697 004e 0AD1     		bne	.L418
 4698              	.L419:
 863:main.c        **** 			}
 4699              		.loc 2 863 0 discriminator 1
 4700 0050 0B4B     		ldr	r3, .L426
 4701 0052 DB78     		ldrb	r3, [r3, #3]	@ zero_extendqisi2
 4702 0054 13F0FF0F 		tst	r3, #255
 4703 0058 FAD1     		bne	.L419
 855:main.c        **** 				
 4704              		.loc 2 855 0 discriminator 2
 4705 005a 0134     		adds	r4, r4, #1
 4706              	.LVL626:
 4707 005c E4B2     		uxtb	r4, r4
 4708              	.LVL627:
ARM GAS  C:\Users\FRANKL~1\AppData\Local\Temp\ccjWonOy.s 			page 113


 4709 005e 00E0     		b	.L421
 4710              	.LVL628:
 4711              	.L424:
 4712              	.LBE62:
 4713 0060 0024     		movs	r4, #0
 4714              	.L421:
 4715              	.LVL629:
 4716              	.LBB63:
 855:main.c        **** 				
 4717              		.loc 2 855 0 is_stmt 0 discriminator 1
 4718 0062 012C     		cmp	r4, #1
 4719 0064 E1D9     		bls	.L420
 4720              	.L418:
 4721              	.LBE63:
 854:main.c        **** 			for (uint8 j = 0; j <= 1; j++) {
 4722              		.loc 2 854 0 is_stmt 1 discriminator 2
 4723 0066 3D44     		add	r5, r5, r7
 4724              	.LVL630:
 4725 0068 EDB2     		uxtb	r5, r5
 4726              	.LVL631:
 4727              	.L416:
 854:main.c        **** 			for (uint8 j = 0; j <= 1; j++) {
 4728              		.loc 2 854 0 is_stmt 0 discriminator 1
 4729 006a AE42     		cmp	r6, r5
 4730 006c F8D1     		bne	.L424
 4731              	.LBE61:
 4732              	.LBE60:
 843:main.c        **** 		int8 direction = 1*speed;
 4733              		.loc 2 843 0 is_stmt 1 discriminator 2
 4734 006e 08F10108 		add	r8, r8, #1
 4735              	.LVL632:
 4736 0072 5FFA88F8 		uxtb	r8, r8
 4737              	.LVL633:
 4738              	.L414:
 843:main.c        **** 		int8 direction = 1*speed;
 4739              		.loc 2 843 0 is_stmt 0 discriminator 1
 4740 0076 C845     		cmp	r8, r9
 4741 0078 CBD9     		bls	.L422
 4742              	.LBE59:
 867:main.c        **** 
 4743              		.loc 2 867 0 is_stmt 1
 4744 007a BDE8F883 		pop	{r3, r4, r5, r6, r7, r8, r9, pc}
 4745              	.LVL634:
 4746              	.L427:
 4747 007e 00BF     		.align	2
 4748              	.L426:
 4749 0080 00000000 		.word	.LANCHOR0
 4750              		.cfi_endproc
 4751              	.LFE115:
 4752              		.size	Measure_Wide_Gate_Sweep, .-Measure_Wide_Gate_Sweep
 4753              		.section	.text.Measure_Gate_Sweep_New,"ax",%progbits
 4754              		.align	2
 4755              		.global	Measure_Gate_Sweep_New
 4756              		.thumb
 4757              		.thumb_func
 4758              		.type	Measure_Gate_Sweep_New, %function
 4759              	Measure_Gate_Sweep_New:
ARM GAS  C:\Users\FRANKL~1\AppData\Local\Temp\ccjWonOy.s 			page 114


 4760              	.LFB116:
 869:main.c        **** 	uint8 refTurn = 1;
 4761              		.loc 2 869 0
 4762              		.cfi_startproc
 4763              		@ args = 0, pretend = 0, frame = 0
 4764              		@ frame_needed = 0, uses_anonymous_args = 0
 4765 0000 2DE9F843 		push	{r3, r4, r5, r6, r7, r8, r9, lr}
 4766              		.cfi_def_cfa_offset 32
 4767              		.cfi_offset 3, -32
 4768              		.cfi_offset 4, -28
 4769              		.cfi_offset 5, -24
 4770              		.cfi_offset 6, -20
 4771              		.cfi_offset 7, -16
 4772              		.cfi_offset 8, -12
 4773              		.cfi_offset 9, -8
 4774              		.cfi_offset 14, -4
 4775              	.LVL635:
 881:main.c        **** 	
 4776              		.loc 2 881 0
 4777 0004 0027     		movs	r7, #0
 880:main.c        **** 	uint8 gateArrived = 0;
 4778              		.loc 2 880 0
 4779 0006 3E46     		mov	r6, r7
 875:main.c        **** 	
 4780              		.loc 2 875 0
 4781 0008 B946     		mov	r9, r7
 874:main.c        **** 	uint8 refArrived = 0;
 4782              		.loc 2 874 0
 4783 000a 3D46     		mov	r5, r7
 870:main.c        **** 	int8 refIncrement = 1;
 4784              		.loc 2 870 0
 4785 000c 0124     		movs	r4, #1
 884:main.c        **** 		gateArrived = abs(gateIndex-endGateIndex) < abs(gateIncrement);
 4786              		.loc 2 884 0
 4787 000e 39E0     		b	.L429
 4788              	.LVL636:
 4789              	.L437:
 885:main.c        **** 		refArrived = abs(refIndex-endRefIndex) < abs(refIncrement);
 4790              		.loc 2 885 0
 4791 0010 86EAE673 		eor	r3, r6, r6, asr #31
 4792 0014 A3EBE673 		sub	r3, r3, r6, asr #31
 4793 0018 002B     		cmp	r3, #0
 4794 001a CCBF     		ite	gt
 4795 001c 0027     		movgt	r7, #0
 4796              	.LVL637:
 4797 001e 0127     		movle	r7, #1
 4798              	.LVL638:
 886:main.c        **** 		
 4799              		.loc 2 886 0
 4800 0020 85EAE572 		eor	r2, r5, r5, asr #31
 4801 0024 A2EBE572 		sub	r2, r2, r5, asr #31
 4802 0028 002A     		cmp	r2, #0
 4803 002a CCBF     		ite	gt
 4804 002c 4FF00009 		movgt	r9, #0
 4805              	.LVL639:
 4806 0030 4FF00109 		movle	r9, #1
 4807              	.LVL640:
ARM GAS  C:\Users\FRANKL~1\AppData\Local\Temp\ccjWonOy.s 			page 115


 888:main.c        **** 		
 4808              		.loc 2 888 0
 4809 0034 002C     		cmp	r4, #0
 4810 0036 0CBF     		ite	eq
 4811 0038 4FF00108 		moveq	r8, #1
 4812 003c 4FF00008 		movne	r8, #0
 4813              	.LVL641:
 890:main.c        **** 		if (!refTurn && gateArrived) continue;
 4814              		.loc 2 890 0
 4815 0040 01D1     		bne	.L430
 890:main.c        **** 		if (!refTurn && gateArrived) continue;
 4816              		.loc 2 890 0 is_stmt 0 discriminator 1
 4817 0042 002A     		cmp	r2, #0
 4818 0044 1DDD     		ble	.L431
 4819              	.L430:
 891:main.c        **** 		
 4820              		.loc 2 891 0 is_stmt 1
 4821 0046 0CB1     		cbz	r4, .L432
 891:main.c        **** 		
 4822              		.loc 2 891 0 is_stmt 0 discriminator 1
 4823 0048 002B     		cmp	r3, #0
 4824 004a 1ADD     		ble	.L431
 4825              	.L432:
 893:main.c        **** 		Set_Vgs_Raw(gateIndex);
 4826              		.loc 2 893 0 is_stmt 1
 4827 004c 2846     		mov	r0, r5
 4828 004e FFF7FEFF 		bl	Set_Ref_Raw
 4829              	.LVL642:
 894:main.c        **** 		
 4830              		.loc 2 894 0
 4831 0052 3046     		mov	r0, r6
 4832 0054 FFF7FEFF 		bl	Set_Vgs_Raw
 4833              	.LVL643:
 896:main.c        **** 		
 4834              		.loc 2 896 0
 4835 0058 0122     		movs	r2, #1
 4836 005a 1146     		mov	r1, r2
 4837 005c 6420     		movs	r0, #100
 4838 005e FFF7FEFF 		bl	Measure
 4839              	.LVL644:
 898:main.c        **** 			refIndex += refIncrement;
 4840              		.loc 2 898 0
 4841 0062 14B9     		cbnz	r4, .L433
 899:main.c        **** 		} else {
 4842              		.loc 2 899 0
 4843 0064 0135     		adds	r5, r5, #1
 4844              	.LVL645:
 4845 0066 EDB2     		uxtb	r5, r5
 4846              	.LVL646:
 4847 0068 01E0     		b	.L434
 4848              	.L433:
 901:main.c        **** 		}
 4849              		.loc 2 901 0
 4850 006a 0136     		adds	r6, r6, #1
 4851              	.LVL647:
 4852 006c F6B2     		uxtb	r6, r6
 4853              	.LVL648:
ARM GAS  C:\Users\FRANKL~1\AppData\Local\Temp\ccjWonOy.s 			page 116


 4854              	.L434:
 904:main.c        **** 		while (G_Pause);
 4855              		.loc 2 904 0
 4856 006e 094B     		ldr	r3, .L439
 4857 0070 5B78     		ldrb	r3, [r3, #1]	@ zero_extendqisi2
 4858 0072 13F0FF0F 		tst	r3, #255
 4859 0076 0AD1     		bne	.L428
 4860              	.L436:
 905:main.c        **** 	}
 4861              		.loc 2 905 0 discriminator 1
 4862 0078 064B     		ldr	r3, .L439
 4863 007a DB78     		ldrb	r3, [r3, #3]	@ zero_extendqisi2
 4864 007c 13F0FF0F 		tst	r3, #255
 4865 0080 FAD1     		bne	.L436
 4866              	.L431:
 869:main.c        **** 	uint8 refTurn = 1;
 4867              		.loc 2 869 0
 4868 0082 4446     		mov	r4, r8
 4869              	.LVL649:
 4870              	.L429:
 884:main.c        **** 		gateArrived = abs(gateIndex-endGateIndex) < abs(gateIncrement);
 4871              		.loc 2 884 0
 4872 0084 002F     		cmp	r7, #0
 4873 0086 C3D0     		beq	.L437
 884:main.c        **** 		gateArrived = abs(gateIndex-endGateIndex) < abs(gateIncrement);
 4874              		.loc 2 884 0 is_stmt 0 discriminator 1
 4875 0088 B9F1000F 		cmp	r9, #0
 4876 008c C0D0     		beq	.L437
 4877              	.LVL650:
 4878              	.L428:
 4879 008e BDE8F883 		pop	{r3, r4, r5, r6, r7, r8, r9, pc}
 4880              	.LVL651:
 4881              	.L440:
 4882 0092 00BF     		.align	2
 4883              	.L439:
 4884 0094 00000000 		.word	.LANCHOR0
 4885              		.cfi_endproc
 4886              	.LFE116:
 4887              		.size	Measure_Gate_Sweep_New, .-Measure_Gate_Sweep_New
 4888              		.section	.text.Scan,"ax",%progbits
 4889              		.align	2
 4890              		.global	Scan
 4891              		.thumb
 4892              		.thumb_func
 4893              		.type	Scan, %function
 4894              	Scan:
 4895              	.LFB117:
 909:main.c        **** 	for (uint8 device = 1; device <= CONTACT_COUNT/**//2; device++) {
 4896              		.loc 2 909 0 is_stmt 1
 4897              		.cfi_startproc
 4898              		@ args = 0, pretend = 0, frame = 0
 4899              		@ frame_needed = 0, uses_anonymous_args = 0
 4900              	.LVL652:
 4901 0000 F8B5     		push	{r3, r4, r5, r6, r7, lr}
 4902              		.cfi_def_cfa_offset 24
 4903              		.cfi_offset 3, -24
 4904              		.cfi_offset 4, -20
ARM GAS  C:\Users\FRANKL~1\AppData\Local\Temp\ccjWonOy.s 			page 117


 4905              		.cfi_offset 5, -16
 4906              		.cfi_offset 6, -12
 4907              		.cfi_offset 7, -8
 4908              		.cfi_offset 14, -4
 4909 0002 0646     		mov	r6, r0
 4910 0004 0F46     		mov	r7, r1
 4911              	.LVL653:
 4912              	.LBB64:
 910:main.c        **** 		uint8 contact1 = device;
 4913              		.loc 2 910 0
 4914 0006 0124     		movs	r4, #1
 4915 0008 2EE0     		b	.L442
 4916              	.LVL654:
 4917              	.L447:
 4918              	.LBB65:
 912:main.c        **** 		uint8 intermediate1 = 1;
 4919              		.loc 2 912 0
 4920 000a 651C     		adds	r5, r4, #1
 4921 000c EDB2     		uxtb	r5, r5
 4922              	.LVL655:
 916:main.c        **** 		Zero_All_DACs();
 4923              		.loc 2 916 0
 4924 000e FFF7FEFF 		bl	Disconnect_All_Contacts_From_All_Intermediates
 4925              	.LVL656:
 917:main.c        **** 		Connect_Intermediates();
 4926              		.loc 2 917 0
 4927 0012 FFF7FEFF 		bl	Zero_All_DACs
 4928              	.LVL657:
 918:main.c        **** 		Connect_Contact_To_Intermediate(contact1, intermediate1);
 4929              		.loc 2 918 0
 4930 0016 FFF7FEFF 		bl	Connect_Intermediates
 4931              	.LVL658:
 919:main.c        **** 		Connect_Contact_To_Intermediate(contact2, intermediate2);
 4932              		.loc 2 919 0
 4933 001a 0121     		movs	r1, #1
 4934 001c 2046     		mov	r0, r4
 4935 001e FFF7FEFF 		bl	Connect_Contact_To_Intermediate
 4936              	.LVL659:
 920:main.c        **** 		
 4937              		.loc 2 920 0
 4938 0022 0221     		movs	r1, #2
 4939 0024 2846     		mov	r0, r5
 4940 0026 FFF7FEFF 		bl	Connect_Contact_To_Intermediate
 4941              	.LVL660:
 922:main.c        **** 		sendTransmitBuffer();
 4942              		.loc 2 922 0
 4943 002a 2246     		mov	r2, r4
 4944 002c 1049     		ldr	r1, .L449
 4945 002e 1148     		ldr	r0, .L449+4
 4946 0030 FFF7FEFF 		bl	sprintf
 4947              	.LVL661:
 923:main.c        **** 		
 4948              		.loc 2 923 0
 4949 0034 FFF7FEFF 		bl	sendTransmitBuffer
 4950              	.LVL662:
 925:main.c        **** 			Measure_Wide_Gate_Sweep(loop);
 4951              		.loc 2 925 0
ARM GAS  C:\Users\FRANKL~1\AppData\Local\Temp\ccjWonOy.s 			page 118


 4952 0038 1EB1     		cbz	r6, .L443
 926:main.c        **** 		} else {
 4953              		.loc 2 926 0
 4954 003a 3846     		mov	r0, r7
 4955 003c FFF7FEFF 		bl	Measure_Wide_Gate_Sweep
 4956              	.LVL663:
 4957 0040 02E0     		b	.L444
 4958              	.L443:
 928:main.c        **** 		}
 4959              		.loc 2 928 0
 4960 0042 3846     		mov	r0, r7
 4961 0044 FFF7FEFF 		bl	Measure_Gate_Sweep
 4962              	.LVL664:
 4963              	.L444:
 931:main.c        **** 		while (G_Pause);
 4964              		.loc 2 931 0
 4965 0048 0B4B     		ldr	r3, .L449+8
 4966 004a 9B78     		ldrb	r3, [r3, #2]	@ zero_extendqisi2
 4967 004c 13F0FF0F 		tst	r3, #255
 4968 0050 0CD1     		bne	.L441
 931:main.c        **** 		while (G_Pause);
 4969              		.loc 2 931 0 is_stmt 0 discriminator 1
 4970 0052 094B     		ldr	r3, .L449+8
 4971 0054 5B78     		ldrb	r3, [r3, #1]	@ zero_extendqisi2
 4972 0056 13F0FF0F 		tst	r3, #255
 4973 005a 07D1     		bne	.L441
 4974              	.L446:
 932:main.c        **** 	}
 4975              		.loc 2 932 0 is_stmt 1 discriminator 1
 4976 005c 064B     		ldr	r3, .L449+8
 4977 005e DB78     		ldrb	r3, [r3, #3]	@ zero_extendqisi2
 4978 0060 13F0FF0F 		tst	r3, #255
 4979 0064 FAD1     		bne	.L446
 4980              	.LBE65:
 910:main.c        **** 		uint8 contact1 = device;
 4981              		.loc 2 910 0
 4982 0066 2C46     		mov	r4, r5
 4983              	.LVL665:
 4984              	.L442:
 910:main.c        **** 		uint8 contact1 = device;
 4985              		.loc 2 910 0 is_stmt 0 discriminator 1
 4986 0068 202C     		cmp	r4, #32
 4987 006a CED9     		bls	.L447
 4988              	.L441:
 4989 006c F8BD     		pop	{r3, r4, r5, r6, r7, pc}
 4990              	.LVL666:
 4991              	.L450:
 4992 006e 00BF     		.align	2
 4993              	.L449:
 4994 0070 F0000000 		.word	.LC14
 4995 0074 00000000 		.word	TransmitBuffer
 4996 0078 00000000 		.word	.LANCHOR0
 4997              	.LBE64:
 4998              		.cfi_endproc
 4999              	.LFE117:
 5000              		.size	Scan, .-Scan
 5001              		.section	.text.Scan_Range,"ax",%progbits
ARM GAS  C:\Users\FRANKL~1\AppData\Local\Temp\ccjWonOy.s 			page 119


 5002              		.align	2
 5003              		.global	Scan_Range
 5004              		.thumb
 5005              		.thumb_func
 5006              		.type	Scan_Range, %function
 5007              	Scan_Range:
 5008              	.LFB118:
 936:main.c        **** 	if (startDevice >= CONTACT_COUNT) return;
 5009              		.loc 2 936 0 is_stmt 1
 5010              		.cfi_startproc
 5011              		@ args = 0, pretend = 0, frame = 0
 5012              		@ frame_needed = 0, uses_anonymous_args = 0
 5013              	.LVL667:
 937:main.c        **** 	if (stopDevice >= CONTACT_COUNT) return;
 5014              		.loc 2 937 0
 5015 0000 3F28     		cmp	r0, #63
 5016 0002 3CD8     		bhi	.L459
 936:main.c        **** 	if (startDevice >= CONTACT_COUNT) return;
 5017              		.loc 2 936 0
 5018 0004 2DE9F041 		push	{r4, r5, r6, r7, r8, lr}
 5019              		.cfi_def_cfa_offset 24
 5020              		.cfi_offset 4, -24
 5021              		.cfi_offset 5, -20
 5022              		.cfi_offset 6, -16
 5023              		.cfi_offset 7, -12
 5024              		.cfi_offset 8, -8
 5025              		.cfi_offset 14, -4
 5026 0008 0446     		mov	r4, r0
 5027 000a 0E46     		mov	r6, r1
 5028 000c 1746     		mov	r7, r2
 5029 000e 9846     		mov	r8, r3
 938:main.c        **** 	
 5030              		.loc 2 938 0
 5031 0010 3F29     		cmp	r1, #63
 5032 0012 30D9     		bls	.L453
 5033 0014 BDE8F081 		pop	{r4, r5, r6, r7, r8, pc}
 5034              	.LVL668:
 5035              	.L457:
 5036              	.LBB66:
 5037              	.LBB67:
 942:main.c        **** 		uint8 intermediate1 = 1;
 5038              		.loc 2 942 0
 5039 0018 651C     		adds	r5, r4, #1
 5040 001a EDB2     		uxtb	r5, r5
 5041              	.LVL669:
 946:main.c        **** 		Zero_All_DACs();
 5042              		.loc 2 946 0
 5043 001c FFF7FEFF 		bl	Disconnect_All_Contacts_From_All_Intermediates
 5044              	.LVL670:
 947:main.c        **** 		Connect_Intermediates();
 5045              		.loc 2 947 0
 5046 0020 FFF7FEFF 		bl	Zero_All_DACs
 5047              	.LVL671:
 948:main.c        **** 		Connect_Contact_To_Intermediate(contact1, intermediate1);
 5048              		.loc 2 948 0
 5049 0024 FFF7FEFF 		bl	Connect_Intermediates
 5050              	.LVL672:
ARM GAS  C:\Users\FRANKL~1\AppData\Local\Temp\ccjWonOy.s 			page 120


 949:main.c        **** 		Connect_Contact_To_Intermediate(contact2, intermediate2);
 5051              		.loc 2 949 0
 5052 0028 0121     		movs	r1, #1
 5053 002a 2046     		mov	r0, r4
 5054 002c FFF7FEFF 		bl	Connect_Contact_To_Intermediate
 5055              	.LVL673:
 950:main.c        **** 		
 5056              		.loc 2 950 0
 5057 0030 0221     		movs	r1, #2
 5058 0032 2846     		mov	r0, r5
 5059 0034 FFF7FEFF 		bl	Connect_Contact_To_Intermediate
 5060              	.LVL674:
 952:main.c        **** 		sendTransmitBuffer();
 5061              		.loc 2 952 0
 5062 0038 2246     		mov	r2, r4
 5063 003a 1149     		ldr	r1, .L460
 5064 003c 1148     		ldr	r0, .L460+4
 5065 003e FFF7FEFF 		bl	sprintf
 5066              	.LVL675:
 953:main.c        **** 		
 5067              		.loc 2 953 0
 5068 0042 FFF7FEFF 		bl	sendTransmitBuffer
 5069              	.LVL676:
 955:main.c        **** 			Measure_Wide_Gate_Sweep(loop);
 5070              		.loc 2 955 0
 5071 0046 1FB1     		cbz	r7, .L454
 956:main.c        **** 		} else {
 5072              		.loc 2 956 0
 5073 0048 4046     		mov	r0, r8
 5074 004a FFF7FEFF 		bl	Measure_Wide_Gate_Sweep
 5075              	.LVL677:
 5076 004e 02E0     		b	.L455
 5077              	.L454:
 958:main.c        **** 		}
 5078              		.loc 2 958 0
 5079 0050 4046     		mov	r0, r8
 5080 0052 FFF7FEFF 		bl	Measure_Gate_Sweep
 5081              	.LVL678:
 5082              	.L455:
 961:main.c        **** 		while (G_Pause);
 5083              		.loc 2 961 0
 5084 0056 0C4B     		ldr	r3, .L460+8
 5085 0058 9B78     		ldrb	r3, [r3, #2]	@ zero_extendqisi2
 5086 005a 13F0FF0F 		tst	r3, #255
 5087 005e 0CD1     		bne	.L451
 961:main.c        **** 		while (G_Pause);
 5088              		.loc 2 961 0 is_stmt 0 discriminator 1
 5089 0060 094B     		ldr	r3, .L460+8
 5090 0062 5B78     		ldrb	r3, [r3, #1]	@ zero_extendqisi2
 5091 0064 13F0FF0F 		tst	r3, #255
 5092 0068 07D1     		bne	.L451
 5093              	.L456:
 962:main.c        **** 	}
 5094              		.loc 2 962 0 is_stmt 1 discriminator 1
 5095 006a 074B     		ldr	r3, .L460+8
 5096 006c DB78     		ldrb	r3, [r3, #3]	@ zero_extendqisi2
 5097 006e 13F0FF0F 		tst	r3, #255
ARM GAS  C:\Users\FRANKL~1\AppData\Local\Temp\ccjWonOy.s 			page 121


 5098 0072 FAD1     		bne	.L456
 5099              	.LBE67:
 940:main.c        **** 		uint8 contact1 = device;
 5100              		.loc 2 940 0
 5101 0074 2C46     		mov	r4, r5
 5102              	.LVL679:
 5103              	.L453:
 940:main.c        **** 		uint8 contact1 = device;
 5104              		.loc 2 940 0 is_stmt 0 discriminator 1
 5105 0076 B442     		cmp	r4, r6
 5106 0078 CED9     		bls	.L457
 5107              	.L451:
 5108 007a BDE8F081 		pop	{r4, r5, r6, r7, r8, pc}
 5109              	.LVL680:
 5110              	.L459:
 5111              		.cfi_def_cfa_offset 0
 5112              		.cfi_restore 4
 5113              		.cfi_restore 5
 5114              		.cfi_restore 6
 5115              		.cfi_restore 7
 5116              		.cfi_restore 8
 5117              		.cfi_restore 14
 5118 007e 7047     		bx	lr
 5119              	.L461:
 5120              		.align	2
 5121              	.L460:
 5122 0080 F0000000 		.word	.LC14
 5123 0084 00000000 		.word	TransmitBuffer
 5124 0088 00000000 		.word	.LANCHOR0
 5125              	.LBE66:
 5126              		.cfi_endproc
 5127              	.LFE118:
 5128              		.size	Scan_Range, .-Scan_Range
 5129              		.section	.text.main,"ax",%progbits
 5130              		.align	2
 5131              		.global	main
 5132              		.thumb
 5133              		.thumb_func
 5134              		.type	main, %function
 5135              	main:
 5136              	.LFB120:
1035:main.c        **** 
1036:main.c        **** int main(void) {
 5137              		.loc 2 1036 0 is_stmt 1
 5138              		.cfi_startproc
 5139              		@ args = 0, pretend = 0, frame = 8
 5140              		@ frame_needed = 0, uses_anonymous_args = 0
 5141 0000 F0B5     		push	{r4, r5, r6, r7, lr}
 5142              		.cfi_def_cfa_offset 20
 5143              		.cfi_offset 4, -20
 5144              		.cfi_offset 5, -16
 5145              		.cfi_offset 6, -12
 5146              		.cfi_offset 7, -8
 5147              		.cfi_offset 14, -4
 5148 0002 83B0     		sub	sp, sp, #12
 5149              		.cfi_def_cfa_offset 32
1037:main.c        **** 	CyGlobalIntEnable;
ARM GAS  C:\Users\FRANKL~1\AppData\Local\Temp\ccjWonOy.s 			page 122


 5150              		.loc 2 1037 0
 5151              		.syntax unified
 5152              	@ 1037 "main.c" 1
 5153 0004 62B6     		CPSIE   i
 5154              	@ 0 "" 2
1038:main.c        **** 	
1039:main.c        **** 	Setup_Selectors();
 5155              		.loc 2 1039 0
 5156              		.thumb
 5157              		.syntax unified
 5158 0006 FFF7FEFF 		bl	Setup_Selectors
 5159              	.LVL681:
1040:main.c        **** 	
1041:main.c        **** 	USBUART_Start(0u, USBUART_5V_OPERATION);
 5160              		.loc 2 1041 0
 5161 000a 0121     		movs	r1, #1
 5162 000c 0020     		movs	r0, #0
 5163 000e FFF7FEFF 		bl	USBUART_Start
 5164              	.LVL682:
1042:main.c        **** 	UART_1_Start();
 5165              		.loc 2 1042 0
 5166 0012 FFF7FEFF 		bl	UART_1_Start
 5167              	.LVL683:
1043:main.c        **** 	VDAC_Vds_Start();
 5168              		.loc 2 1043 0
 5169 0016 FFF7FEFF 		bl	VDAC_Vds_Start
 5170              	.LVL684:
1044:main.c        **** 	VDAC_Vgs_Start();
 5171              		.loc 2 1044 0
 5172 001a FFF7FEFF 		bl	VDAC_Vgs_Start
 5173              	.LVL685:
1045:main.c        **** 	VDAC_Ref_Start();
 5174              		.loc 2 1045 0
 5175 001e FFF7FEFF 		bl	VDAC_Ref_Start
 5176              	.LVL686:
1046:main.c        **** 	ADC_DelSig_1_Start();
 5177              		.loc 2 1046 0
 5178 0022 FFF7FEFF 		bl	ADC_DelSig_1_Start
 5179              	.LVL687:
1047:main.c        **** 	TIA_1_Start();
 5180              		.loc 2 1047 0
 5181 0026 FFF7FEFF 		bl	TIA_1_Start
 5182              	.LVL688:
1048:main.c        **** 	I2C_1_Start();
 5183              		.loc 2 1048 0
 5184 002a FFF7FEFF 		bl	I2C_1_Start
 5185              	.LVL689:
1049:main.c        **** 	ADC_SAR_1_Start();
 5186              		.loc 2 1049 0
 5187 002e FFF7FEFF 		bl	ADC_SAR_1_Start
 5188              	.LVL690:
1050:main.c        **** 	ADC_SAR_2_Start();
 5189              		.loc 2 1050 0
 5190 0032 FFF7FEFF 		bl	ADC_SAR_2_Start
 5191              	.LVL691:
1051:main.c        **** 	
1052:main.c        **** 	Opamp_1_Start();
ARM GAS  C:\Users\FRANKL~1\AppData\Local\Temp\ccjWonOy.s 			page 123


 5192              		.loc 2 1052 0
 5193 0036 FFF7FEFF 		bl	Opamp_1_Start
 5194              	.LVL692:
1053:main.c        **** 	Opamp_2_Start();
 5195              		.loc 2 1053 0
 5196 003a FFF7FEFF 		bl	Opamp_2_Start
 5197              	.LVL693:
1054:main.c        **** 	
1055:main.c        **** 	ADC_DelSig_1_StartConvert();
 5198              		.loc 2 1055 0
 5199 003e FFF7FEFF 		bl	ADC_DelSig_1_StartConvert
 5200              	.LVL694:
1056:main.c        **** 	
1057:main.c        **** 	CyDelay(1000);
 5201              		.loc 2 1057 0
 5202 0042 4FF47A70 		mov	r0, #1000
 5203 0046 FFF7FEFF 		bl	CyDelay
 5204              	.LVL695:
1058:main.c        **** 	
1059:main.c        **** 	UART_1_PutString("\r\n# Starting\r\n");
 5205              		.loc 2 1059 0
 5206 004a C548     		ldr	r0, .L506
 5207 004c FFF7FEFF 		bl	UART_1_PutString
 5208              	.LVL696:
1060:main.c        **** 	
1061:main.c        **** 	Connect_Intermediates();
 5209              		.loc 2 1061 0
 5210 0050 FFF7FEFF 		bl	Connect_Intermediates
 5211              	.LVL697:
1062:main.c        **** 	
1063:main.c        **** 	newData = 0;
 5212              		.loc 2 1063 0
 5213 0054 C34C     		ldr	r4, .L506+4
 5214 0056 0023     		movs	r3, #0
 5215 0058 2370     		strb	r3, [r4]
1064:main.c        **** 	UART_Rx_Position = 0;
 5216              		.loc 2 1064 0
 5217 005a C34A     		ldr	r2, .L506+8
 5218 005c 1370     		strb	r3, [r2]
1065:main.c        **** 	USBUART_Rx_Position = 0;
 5219              		.loc 2 1065 0
 5220 005e C34A     		ldr	r2, .L506+12
 5221 0060 1370     		strb	r3, [r2]
1066:main.c        **** 	
1067:main.c        **** 	CommunicationTimer_Start();
 5222              		.loc 2 1067 0
 5223 0062 FFF7FEFF 		bl	CommunicationTimer_Start
 5224              	.LVL698:
1068:main.c        **** 	CommunicationInterrupt_StartEx(CommunicationHandlerISR);
 5225              		.loc 2 1068 0
 5226 0066 C248     		ldr	r0, .L506+16
 5227 0068 FFF7FEFF 		bl	CommunicationInterrupt_StartEx
 5228              	.LVL699:
1069:main.c        **** 	
1070:main.c        **** 	Current_Measurement_Sample_Count = 100;
 5229              		.loc 2 1070 0
 5230 006c 6422     		movs	r2, #100
ARM GAS  C:\Users\FRANKL~1\AppData\Local\Temp\ccjWonOy.s 			page 124


 5231 006e C14B     		ldr	r3, .L506+20
 5232 0070 1A60     		str	r2, [r3]
1071:main.c        **** 	
1072:main.c        **** 	Calibrate_ADC_Offset(300);
 5233              		.loc 2 1072 0
 5234 0072 4FF49670 		mov	r0, #300
 5235 0076 FFF7FEFF 		bl	Calibrate_ADC_Offset
 5236              	.LVL700:
1073:main.c        **** 	TIA_Set_Resistor(TIA_Selected_Resistor);
 5237              		.loc 2 1073 0
 5238 007a 2079     		ldrb	r0, [r4, #4]	@ zero_extendqisi2
 5239 007c FFF7FEFF 		bl	TIA_Set_Resistor
 5240              	.LVL701:
 5241              	.L464:
1074:main.c        **** 	
1075:main.c        **** 	while (1) {
1076:main.c        **** 		G_Stop = 0;
 5242              		.loc 2 1076 0
 5243 0080 B84B     		ldr	r3, .L506+4
 5244 0082 0022     		movs	r2, #0
 5245 0084 5A70     		strb	r2, [r3, #1]
1077:main.c        **** 		G_Break = 0;
 5246              		.loc 2 1077 0
 5247 0086 9A70     		strb	r2, [r3, #2]
1078:main.c        **** 		
1079:main.c        **** 		if (newData) {
 5248              		.loc 2 1079 0
 5249 0088 1B78     		ldrb	r3, [r3]	@ zero_extendqisi2
 5250 008a 13F0FF0F 		tst	r3, #255
 5251 008e F7D0     		beq	.L464
 5252              	.LVL702:
 5253              	.LBB68:
1080:main.c        **** 			char* ReceiveBuffer = &USBUART_Receive_Buffer[0];
1081:main.c        **** 			if (newData == 2) ReceiveBuffer = &UART_Receive_Buffer[0];
 5254              		.loc 2 1081 0
 5255 0090 B44B     		ldr	r3, .L506+4
 5256 0092 1B78     		ldrb	r3, [r3]	@ zero_extendqisi2
 5257 0094 DBB2     		uxtb	r3, r3
 5258 0096 022B     		cmp	r3, #2
 5259 0098 01D0     		beq	.L504
1080:main.c        **** 			char* ReceiveBuffer = &USBUART_Receive_Buffer[0];
 5260              		.loc 2 1080 0
 5261 009a B74C     		ldr	r4, .L506+24
 5262 009c 00E0     		b	.L465
 5263              	.L504:
 5264              		.loc 2 1081 0
 5265 009e B74C     		ldr	r4, .L506+28
 5266              	.L465:
 5267              	.LVL703:
1082:main.c        **** 			
1083:main.c        **** 			newData = 0;
 5268              		.loc 2 1083 0
 5269 00a0 0022     		movs	r2, #0
 5270 00a2 B04B     		ldr	r3, .L506+4
 5271 00a4 1A70     		strb	r2, [r3]
1084:main.c        **** 			
1085:main.c        **** 			if (strstr(ReceiveBuffer, "measure ") == &ReceiveBuffer[0]) {
ARM GAS  C:\Users\FRANKL~1\AppData\Local\Temp\ccjWonOy.s 			page 125


 5272              		.loc 2 1085 0
 5273 00a6 B649     		ldr	r1, .L506+32
 5274 00a8 2046     		mov	r0, r4
 5275 00aa FFF7FEFF 		bl	strstr
 5276              	.LVL704:
 5277 00ae 8442     		cmp	r4, r0
 5278 00b0 05D1     		bne	.L466
1086:main.c        **** 				Measure(100, 1, 10);
 5279              		.loc 2 1086 0
 5280 00b2 0A22     		movs	r2, #10
 5281 00b4 0121     		movs	r1, #1
 5282 00b6 6420     		movs	r0, #100
 5283 00b8 FFF7FEFF 		bl	Measure
 5284              	.LVL705:
 5285 00bc E0E7     		b	.L464
 5286              	.L466:
1087:main.c        **** 			} else 
1088:main.c        **** 			if (strstr(ReceiveBuffer, "measure-multiple ") == &ReceiveBuffer[0]) {
 5287              		.loc 2 1088 0
 5288 00be B149     		ldr	r1, .L506+36
 5289 00c0 2046     		mov	r0, r4
 5290 00c2 FFF7FEFF 		bl	strstr
 5291              	.LVL706:
 5292 00c6 8442     		cmp	r4, r0
 5293 00c8 0CD1     		bne	.L468
 5294              	.LBB69:
1089:main.c        **** 				char* location = strstr(ReceiveBuffer, " ");
 5295              		.loc 2 1089 0
 5296 00ca 2021     		movs	r1, #32
 5297 00cc 2046     		mov	r0, r4
 5298 00ce FFF7FEFF 		bl	strchr
 5299              	.LVL707:
 5300 00d2 02A9     		add	r1, sp, #8
 5301 00d4 41F8040D 		str	r0, [r1, #-4]!
1090:main.c        **** 				uint32 n = strtol(location, &location, 10);
 5302              		.loc 2 1090 0
 5303 00d8 0A22     		movs	r2, #10
 5304 00da FFF7FEFF 		bl	strtol
 5305              	.LVL708:
1091:main.c        **** 				
1092:main.c        **** 				Measure_Multiple(n);
 5306              		.loc 2 1092 0
 5307 00de FFF7FEFF 		bl	Measure_Multiple
 5308              	.LVL709:
 5309              	.LBE69:
 5310 00e2 CDE7     		b	.L464
 5311              	.L468:
1093:main.c        **** 			} else 
1094:main.c        **** 			if (strstr(ReceiveBuffer, "measure-sweep ") == &ReceiveBuffer[0]) {
 5312              		.loc 2 1094 0
 5313 00e4 A849     		ldr	r1, .L506+40
 5314 00e6 2046     		mov	r0, r4
 5315 00e8 FFF7FEFF 		bl	strstr
 5316              	.LVL710:
 5317 00ec 8442     		cmp	r4, r0
 5318 00ee 02D1     		bne	.L469
1095:main.c        **** 				Measure_Sweep();
ARM GAS  C:\Users\FRANKL~1\AppData\Local\Temp\ccjWonOy.s 			page 126


 5319              		.loc 2 1095 0
 5320 00f0 FFF7FEFF 		bl	Measure_Sweep
 5321              	.LVL711:
 5322 00f4 C4E7     		b	.L464
 5323              	.L469:
1096:main.c        **** 			} else 
1097:main.c        **** 			if (strstr(ReceiveBuffer, "measure-gate-sweep ") == &ReceiveBuffer[0]) {
 5324              		.loc 2 1097 0
 5325 00f6 A549     		ldr	r1, .L506+44
 5326 00f8 2046     		mov	r0, r4
 5327 00fa FFF7FEFF 		bl	strstr
 5328              	.LVL712:
 5329 00fe 8442     		cmp	r4, r0
 5330 0100 03D1     		bne	.L470
1098:main.c        **** 				Measure_Gate_Sweep(0);
 5331              		.loc 2 1098 0
 5332 0102 0020     		movs	r0, #0
 5333 0104 FFF7FEFF 		bl	Measure_Gate_Sweep
 5334              	.LVL713:
 5335 0108 BAE7     		b	.L464
 5336              	.L470:
1099:main.c        **** 			} else 
1100:main.c        **** 			if (strstr(ReceiveBuffer, "measure-gate-sweep-loop ") == &ReceiveBuffer[0]) {
 5337              		.loc 2 1100 0
 5338 010a A149     		ldr	r1, .L506+48
 5339 010c 2046     		mov	r0, r4
 5340 010e FFF7FEFF 		bl	strstr
 5341              	.LVL714:
 5342 0112 8442     		cmp	r4, r0
 5343 0114 03D1     		bne	.L471
1101:main.c        **** 				Measure_Gate_Sweep(1);
 5344              		.loc 2 1101 0
 5345 0116 0120     		movs	r0, #1
 5346 0118 FFF7FEFF 		bl	Measure_Gate_Sweep
 5347              	.LVL715:
 5348 011c B0E7     		b	.L464
 5349              	.L471:
1102:main.c        **** 			} else 
1103:main.c        **** 			if (strstr(ReceiveBuffer, "calibrate-offset ") == &ReceiveBuffer[0]) {
 5350              		.loc 2 1103 0
 5351 011e 9D49     		ldr	r1, .L506+52
 5352 0120 2046     		mov	r0, r4
 5353 0122 FFF7FEFF 		bl	strstr
 5354              	.LVL716:
 5355 0126 8442     		cmp	r4, r0
 5356 0128 04D1     		bne	.L472
1104:main.c        **** 				Calibrate_ADC_Offset(300);
 5357              		.loc 2 1104 0
 5358 012a 4FF49670 		mov	r0, #300
 5359 012e FFF7FEFF 		bl	Calibrate_ADC_Offset
 5360              	.LVL717:
 5361 0132 A5E7     		b	.L464
 5362              	.L472:
1105:main.c        **** 			} else
1106:main.c        **** 			if (strstr(ReceiveBuffer, "set-vgs-raw ") == &ReceiveBuffer[0]) {
 5363              		.loc 2 1106 0
 5364 0134 9849     		ldr	r1, .L506+56
ARM GAS  C:\Users\FRANKL~1\AppData\Local\Temp\ccjWonOy.s 			page 127


 5365 0136 2046     		mov	r0, r4
 5366 0138 FFF7FEFF 		bl	strstr
 5367              	.LVL718:
 5368 013c 8442     		cmp	r4, r0
 5369 013e 0DD1     		bne	.L473
 5370              	.LBB70:
1107:main.c        **** 				char* location = strstr(ReceiveBuffer, " ");
 5371              		.loc 2 1107 0 discriminator 2
 5372 0140 2021     		movs	r1, #32
 5373 0142 2046     		mov	r0, r4
 5374 0144 FFF7FEFF 		bl	strchr
 5375              	.LVL719:
 5376 0148 02A9     		add	r1, sp, #8
 5377 014a 41F8040D 		str	r0, [r1, #-4]!
1108:main.c        **** 				uint8 vgsi = strtol(location, &location, 10);
 5378              		.loc 2 1108 0 discriminator 2
 5379 014e 0A22     		movs	r2, #10
 5380 0150 FFF7FEFF 		bl	strtol
 5381              	.LVL720:
1109:main.c        **** 				
1110:main.c        **** 				Set_Vgs_Raw(vgsi);
 5382              		.loc 2 1110 0 discriminator 2
 5383 0154 C0B2     		uxtb	r0, r0
 5384 0156 FFF7FEFF 		bl	Set_Vgs_Raw
 5385              	.LVL721:
 5386              	.LBE70:
 5387 015a 91E7     		b	.L464
 5388              	.L473:
1111:main.c        **** 			} else 
1112:main.c        **** 			if (strstr(ReceiveBuffer, "set-vds-raw ") == &ReceiveBuffer[0]) {
 5389              		.loc 2 1112 0
 5390 015c 8F49     		ldr	r1, .L506+60
 5391 015e 2046     		mov	r0, r4
 5392 0160 FFF7FEFF 		bl	strstr
 5393              	.LVL722:
 5394 0164 8442     		cmp	r4, r0
 5395 0166 0DD1     		bne	.L474
 5396              	.LBB71:
1113:main.c        **** 				char* location = strstr(ReceiveBuffer, " ");
 5397              		.loc 2 1113 0 discriminator 3
 5398 0168 2021     		movs	r1, #32
 5399 016a 2046     		mov	r0, r4
 5400 016c FFF7FEFF 		bl	strchr
 5401              	.LVL723:
 5402 0170 02A9     		add	r1, sp, #8
 5403 0172 41F8040D 		str	r0, [r1, #-4]!
1114:main.c        **** 				uint8 vdsi = strtol(location, &location, 10);
 5404              		.loc 2 1114 0 discriminator 3
 5405 0176 0A22     		movs	r2, #10
 5406 0178 FFF7FEFF 		bl	strtol
 5407              	.LVL724:
1115:main.c        **** 				
1116:main.c        **** 				Set_Vds_Raw(vdsi);
 5408              		.loc 2 1116 0 discriminator 3
 5409 017c C0B2     		uxtb	r0, r0
 5410 017e FFF7FEFF 		bl	Set_Vds_Raw
 5411              	.LVL725:
ARM GAS  C:\Users\FRANKL~1\AppData\Local\Temp\ccjWonOy.s 			page 128


 5412              	.LBE71:
 5413 0182 7DE7     		b	.L464
 5414              	.L474:
1117:main.c        **** 			} else 
1118:main.c        **** 			if (strstr(ReceiveBuffer, "set-vgs-rel ") == &ReceiveBuffer[0]) {
 5415              		.loc 2 1118 0
 5416 0184 8649     		ldr	r1, .L506+64
 5417 0186 2046     		mov	r0, r4
 5418 0188 FFF7FEFF 		bl	strstr
 5419              	.LVL726:
 5420 018c 8442     		cmp	r4, r0
 5421 018e 0DD1     		bne	.L475
 5422              	.LBB72:
1119:main.c        **** 				char* location = strstr(ReceiveBuffer, " ");
 5423              		.loc 2 1119 0 discriminator 4
 5424 0190 2021     		movs	r1, #32
 5425 0192 2046     		mov	r0, r4
 5426 0194 FFF7FEFF 		bl	strchr
 5427              	.LVL727:
 5428 0198 02A9     		add	r1, sp, #8
 5429 019a 41F8040D 		str	r0, [r1, #-4]!
1120:main.c        **** 				int8 vgsi = strtol(location, &location, 10);
 5430              		.loc 2 1120 0 discriminator 4
 5431 019e 0A22     		movs	r2, #10
 5432 01a0 FFF7FEFF 		bl	strtol
 5433              	.LVL728:
1121:main.c        **** 				
1122:main.c        **** 				Set_Vgs_Rel(vgsi);
 5434              		.loc 2 1122 0 discriminator 4
 5435 01a4 40B2     		sxtb	r0, r0
 5436 01a6 FFF7FEFF 		bl	Set_Vgs_Rel
 5437              	.LVL729:
 5438              	.LBE72:
 5439 01aa 69E7     		b	.L464
 5440              	.L475:
1123:main.c        **** 			} else 
1124:main.c        **** 			if (strstr(ReceiveBuffer, "set-vds-rel ") == &ReceiveBuffer[0]) {
 5441              		.loc 2 1124 0
 5442 01ac 7D49     		ldr	r1, .L506+68
 5443 01ae 2046     		mov	r0, r4
 5444 01b0 FFF7FEFF 		bl	strstr
 5445              	.LVL730:
 5446 01b4 8442     		cmp	r4, r0
 5447 01b6 0DD1     		bne	.L476
 5448              	.LBB73:
1125:main.c        **** 				char* location = strstr(ReceiveBuffer, " ");
 5449              		.loc 2 1125 0 discriminator 5
 5450 01b8 2021     		movs	r1, #32
 5451 01ba 2046     		mov	r0, r4
 5452 01bc FFF7FEFF 		bl	strchr
 5453              	.LVL731:
 5454 01c0 02A9     		add	r1, sp, #8
 5455 01c2 41F8040D 		str	r0, [r1, #-4]!
1126:main.c        **** 				int8 vdsi = strtol(location, &location, 10);
 5456              		.loc 2 1126 0 discriminator 5
 5457 01c6 0A22     		movs	r2, #10
 5458 01c8 FFF7FEFF 		bl	strtol
ARM GAS  C:\Users\FRANKL~1\AppData\Local\Temp\ccjWonOy.s 			page 129


 5459              	.LVL732:
1127:main.c        **** 				
1128:main.c        **** 				Set_Vds_Rel(vdsi);
 5460              		.loc 2 1128 0 discriminator 5
 5461 01cc 40B2     		sxtb	r0, r0
 5462 01ce FFF7FEFF 		bl	Set_Vds_Rel
 5463              	.LVL733:
 5464              	.LBE73:
 5465 01d2 55E7     		b	.L464
 5466              	.L476:
1129:main.c        **** 			} else 
1130:main.c        **** 			if (strstr(ReceiveBuffer, "set-vgs ") == &ReceiveBuffer[0]) {
 5467              		.loc 2 1130 0
 5468 01d4 7449     		ldr	r1, .L506+72
 5469 01d6 2046     		mov	r0, r4
 5470 01d8 FFF7FEFF 		bl	strstr
 5471              	.LVL734:
 5472 01dc 8442     		cmp	r4, r0
 5473 01de 0ED1     		bne	.L477
 5474              	.LBB74:
1131:main.c        **** 				char* location = strstr(ReceiveBuffer, " ");
 5475              		.loc 2 1131 0 discriminator 6
 5476 01e0 2021     		movs	r1, #32
 5477 01e2 2046     		mov	r0, r4
 5478 01e4 FFF7FEFF 		bl	strchr
 5479              	.LVL735:
1132:main.c        **** 				float vgs = 0;
 5480              		.loc 2 1132 0 discriminator 6
 5481 01e8 02AA     		add	r2, sp, #8
 5482 01ea 0023     		movs	r3, #0
 5483 01ec 42F8043D 		str	r3, [r2, #-4]!	@ float
1133:main.c        **** 				int8 success = sscanf(location, "%f", &vgs);
 5484              		.loc 2 1133 0 discriminator 6
 5485 01f0 6E49     		ldr	r1, .L506+76
 5486 01f2 FFF7FEFF 		bl	sscanf
 5487              	.LVL736:
1134:main.c        **** 				
1135:main.c        **** 				Set_Vgs(vgs);
 5488              		.loc 2 1135 0 discriminator 6
 5489 01f6 0198     		ldr	r0, [sp, #4]	@ float
 5490 01f8 FFF7FEFF 		bl	Set_Vgs
 5491              	.LVL737:
 5492              	.LBE74:
 5493 01fc 40E7     		b	.L464
 5494              	.L477:
1136:main.c        **** 			} else 
1137:main.c        **** 			if (strstr(ReceiveBuffer, "set-vds ") == &ReceiveBuffer[0]) {
 5495              		.loc 2 1137 0
 5496 01fe 6C49     		ldr	r1, .L506+80
 5497 0200 2046     		mov	r0, r4
 5498 0202 FFF7FEFF 		bl	strstr
 5499              	.LVL738:
 5500 0206 8442     		cmp	r4, r0
 5501 0208 0ED1     		bne	.L478
 5502              	.LBB75:
1138:main.c        **** 				char* location = strstr(ReceiveBuffer, " ");
 5503              		.loc 2 1138 0 discriminator 7
ARM GAS  C:\Users\FRANKL~1\AppData\Local\Temp\ccjWonOy.s 			page 130


 5504 020a 2021     		movs	r1, #32
 5505 020c 2046     		mov	r0, r4
 5506 020e FFF7FEFF 		bl	strchr
 5507              	.LVL739:
1139:main.c        **** 				float vds = 0;
 5508              		.loc 2 1139 0 discriminator 7
 5509 0212 02AA     		add	r2, sp, #8
 5510 0214 0023     		movs	r3, #0
 5511 0216 42F8043D 		str	r3, [r2, #-4]!	@ float
1140:main.c        **** 				int8 success = sscanf(location, "%f", &vds);
 5512              		.loc 2 1140 0 discriminator 7
 5513 021a 6449     		ldr	r1, .L506+76
 5514 021c FFF7FEFF 		bl	sscanf
 5515              	.LVL740:
1141:main.c        **** 				
1142:main.c        **** 				Set_Vds(vds);
 5516              		.loc 2 1142 0 discriminator 7
 5517 0220 0198     		ldr	r0, [sp, #4]	@ float
 5518 0222 FFF7FEFF 		bl	Set_Vds
 5519              	.LVL741:
 5520              	.LBE75:
 5521 0226 2BE7     		b	.L464
 5522              	.L478:
1143:main.c        **** 			} else 
1144:main.c        **** 			if (strstr(ReceiveBuffer, "set-vgs-mv ") == &ReceiveBuffer[0]) {
 5523              		.loc 2 1144 0
 5524 0228 6249     		ldr	r1, .L506+84
 5525 022a 2046     		mov	r0, r4
 5526 022c FFF7FEFF 		bl	strstr
 5527              	.LVL742:
 5528 0230 8442     		cmp	r4, r0
 5529 0232 1AD1     		bne	.L479
 5530              	.LBB76:
1145:main.c        **** 				char* location = strstr(ReceiveBuffer, " ");
 5531              		.loc 2 1145 0 discriminator 8
 5532 0234 2021     		movs	r1, #32
 5533 0236 2046     		mov	r0, r4
 5534 0238 FFF7FEFF 		bl	strchr
 5535              	.LVL743:
 5536 023c 02A9     		add	r1, sp, #8
 5537 023e 41F8040D 		str	r0, [r1, #-4]!
1146:main.c        **** 				float Vgs_mV = (float)(strtol(location, &location, 10));
 5538              		.loc 2 1146 0 discriminator 8
 5539 0242 0A22     		movs	r2, #10
 5540 0244 FFF7FEFF 		bl	strtol
 5541              	.LVL744:
 5542 0248 FFF7FEFF 		bl	__aeabi_i2f
 5543              	.LVL745:
 5544 024c 0446     		mov	r4, r0
 5545              	.LVL746:
1147:main.c        **** 				
1148:main.c        **** 				Set_Vgs_mV(Vgs_mV);
 5546              		.loc 2 1148 0 discriminator 8
 5547 024e FFF7FEFF 		bl	Set_Vgs_mV
 5548              	.LVL747:
1149:main.c        **** 				
1150:main.c        **** 				sprintf(TransmitBuffer, "# Vgs set to %f mV\r\n", Vgs_mV);
ARM GAS  C:\Users\FRANKL~1\AppData\Local\Temp\ccjWonOy.s 			page 131


 5549              		.loc 2 1150 0 discriminator 8
 5550 0252 2046     		mov	r0, r4
 5551 0254 FFF7FEFF 		bl	__aeabi_f2d
 5552              	.LVL748:
 5553 0258 0246     		mov	r2, r0
 5554 025a 0B46     		mov	r3, r1
 5555 025c 5649     		ldr	r1, .L506+88
 5556 025e 5748     		ldr	r0, .L506+92
 5557 0260 FFF7FEFF 		bl	sprintf
 5558              	.LVL749:
1151:main.c        **** 				sendTransmitBuffer();
 5559              		.loc 2 1151 0 discriminator 8
 5560 0264 FFF7FEFF 		bl	sendTransmitBuffer
 5561              	.LVL750:
 5562              	.LBE76:
 5563 0268 0AE7     		b	.L464
 5564              	.LVL751:
 5565              	.L479:
1152:main.c        **** 			} else 
1153:main.c        **** 			if (strstr(ReceiveBuffer, "set-vds-mv ") == &ReceiveBuffer[0]) {
 5566              		.loc 2 1153 0
 5567 026a 5549     		ldr	r1, .L506+96
 5568 026c 2046     		mov	r0, r4
 5569 026e FFF7FEFF 		bl	strstr
 5570              	.LVL752:
 5571 0272 8442     		cmp	r4, r0
 5572 0274 1AD1     		bne	.L480
 5573              	.LBB77:
1154:main.c        **** 				char* location = strstr(ReceiveBuffer, " ");
 5574              		.loc 2 1154 0 discriminator 9
 5575 0276 2021     		movs	r1, #32
 5576 0278 2046     		mov	r0, r4
 5577 027a FFF7FEFF 		bl	strchr
 5578              	.LVL753:
 5579 027e 02A9     		add	r1, sp, #8
 5580 0280 41F8040D 		str	r0, [r1, #-4]!
1155:main.c        **** 				float Vds_mV = (float)(strtol(location, &location, 10));
 5581              		.loc 2 1155 0 discriminator 9
 5582 0284 0A22     		movs	r2, #10
 5583 0286 FFF7FEFF 		bl	strtol
 5584              	.LVL754:
 5585 028a FFF7FEFF 		bl	__aeabi_i2f
 5586              	.LVL755:
 5587 028e 0446     		mov	r4, r0
 5588              	.LVL756:
1156:main.c        **** 				
1157:main.c        **** 				Set_Vds_mV(Vds_mV);
 5589              		.loc 2 1157 0 discriminator 9
 5590 0290 FFF7FEFF 		bl	Set_Vds_mV
 5591              	.LVL757:
1158:main.c        **** 				
1159:main.c        **** 				sprintf(TransmitBuffer, "# Vds set to %f mV\r\n", Vds_mV);
 5592              		.loc 2 1159 0 discriminator 9
 5593 0294 2046     		mov	r0, r4
 5594 0296 FFF7FEFF 		bl	__aeabi_f2d
 5595              	.LVL758:
 5596 029a 0246     		mov	r2, r0
ARM GAS  C:\Users\FRANKL~1\AppData\Local\Temp\ccjWonOy.s 			page 132


 5597 029c 0B46     		mov	r3, r1
 5598 029e 4949     		ldr	r1, .L506+100
 5599 02a0 4648     		ldr	r0, .L506+92
 5600 02a2 FFF7FEFF 		bl	sprintf
 5601              	.LVL759:
1160:main.c        **** 				sendTransmitBuffer();
 5602              		.loc 2 1160 0 discriminator 9
 5603 02a6 FFF7FEFF 		bl	sendTransmitBuffer
 5604              	.LVL760:
 5605              	.LBE77:
 5606 02aa E9E6     		b	.L464
 5607              	.LVL761:
 5608              	.L480:
1161:main.c        **** 			} else 
1162:main.c        **** 			if (strstr(ReceiveBuffer, "scan ") == &ReceiveBuffer[0]) {
 5609              		.loc 2 1162 0
 5610 02ac 4649     		ldr	r1, .L506+104
 5611 02ae 2046     		mov	r0, r4
 5612 02b0 FFF7FEFF 		bl	strstr
 5613              	.LVL762:
 5614 02b4 8442     		cmp	r4, r0
 5615 02b6 19D1     		bne	.L481
1163:main.c        **** 				sprintf(TransmitBuffer, "\r\n# Scan Starting\r\n");
 5616              		.loc 2 1163 0
 5617 02b8 404C     		ldr	r4, .L506+92
 5618              	.LVL763:
 5619 02ba 444D     		ldr	r5, .L506+108
 5620 02bc 0FCD     		ldmia	r5!, {r0, r1, r2, r3}
 5621 02be 2060     		str	r0, [r4]	@ unaligned
 5622 02c0 6160     		str	r1, [r4, #4]	@ unaligned
 5623 02c2 A260     		str	r2, [r4, #8]	@ unaligned
 5624 02c4 E360     		str	r3, [r4, #12]	@ unaligned
 5625 02c6 2868     		ldr	r0, [r5]	@ unaligned
 5626 02c8 2061     		str	r0, [r4, #16]	@ unaligned
1164:main.c        **** 				sendTransmitBuffer();
 5627              		.loc 2 1164 0
 5628 02ca FFF7FEFF 		bl	sendTransmitBuffer
 5629              	.LVL764:
1165:main.c        **** 				
1166:main.c        **** 				Scan(0, 0);
 5630              		.loc 2 1166 0
 5631 02ce 0021     		movs	r1, #0
 5632 02d0 0846     		mov	r0, r1
 5633 02d2 FFF7FEFF 		bl	Scan
 5634              	.LVL765:
1167:main.c        **** 				
1168:main.c        **** 				sprintf(TransmitBuffer, "\r\n# Scan Complete\r\n");
 5635              		.loc 2 1168 0
 5636 02d6 3E4D     		ldr	r5, .L506+112
 5637 02d8 0FCD     		ldmia	r5!, {r0, r1, r2, r3}
 5638 02da 2060     		str	r0, [r4]	@ unaligned
 5639 02dc 6160     		str	r1, [r4, #4]	@ unaligned
 5640 02de A260     		str	r2, [r4, #8]	@ unaligned
 5641 02e0 E360     		str	r3, [r4, #12]	@ unaligned
 5642 02e2 2868     		ldr	r0, [r5]	@ unaligned
 5643 02e4 2061     		str	r0, [r4, #16]	@ unaligned
1169:main.c        **** 				sendTransmitBuffer();
ARM GAS  C:\Users\FRANKL~1\AppData\Local\Temp\ccjWonOy.s 			page 133


 5644              		.loc 2 1169 0
 5645 02e6 FFF7FEFF 		bl	sendTransmitBuffer
 5646              	.LVL766:
 5647 02ea C9E6     		b	.L464
 5648              	.LVL767:
 5649              	.L481:
1170:main.c        **** 			} else 
1171:main.c        **** 			if (strstr(ReceiveBuffer, "scan-range ") == &ReceiveBuffer[0]) {
 5650              		.loc 2 1171 0
 5651 02ec 3949     		ldr	r1, .L506+116
 5652 02ee 2046     		mov	r0, r4
 5653 02f0 FFF7FEFF 		bl	strstr
 5654              	.LVL768:
 5655 02f4 8442     		cmp	r4, r0
 5656 02f6 73D1     		bne	.L482
 5657              	.LBB78:
1172:main.c        **** 				sprintf(TransmitBuffer, "\r\n# Scan-Range Starting\r\n");
 5658              		.loc 2 1172 0 discriminator 10
 5659 02f8 304D     		ldr	r5, .L506+92
 5660 02fa 374E     		ldr	r6, .L506+120
 5661 02fc 0FCE     		ldmia	r6!, {r0, r1, r2, r3}
 5662 02fe 2860     		str	r0, [r5]	@ unaligned
 5663 0300 6960     		str	r1, [r5, #4]	@ unaligned
 5664 0302 AA60     		str	r2, [r5, #8]	@ unaligned
 5665 0304 EB60     		str	r3, [r5, #12]	@ unaligned
 5666 0306 03CE     		ldmia	r6!, {r0, r1}
 5667 0308 2861     		str	r0, [r5, #16]	@ unaligned
 5668 030a 6961     		str	r1, [r5, #20]	@ unaligned
 5669 030c 3388     		ldrh	r3, [r6]	@ unaligned
 5670 030e 2B83     		strh	r3, [r5, #24]	@ unaligned
1173:main.c        **** 				sendTransmitBuffer();
 5671              		.loc 2 1173 0 discriminator 10
 5672 0310 FFF7FEFF 		bl	sendTransmitBuffer
 5673              	.LVL769:
1174:main.c        **** 				
1175:main.c        **** 				char* location = strstr(ReceiveBuffer, " ");
 5674              		.loc 2 1175 0 discriminator 10
 5675 0314 2021     		movs	r1, #32
 5676 0316 2046     		mov	r0, r4
 5677 0318 FFF7FEFF 		bl	strchr
 5678              	.LVL770:
 5679 031c 02AC     		add	r4, sp, #8
 5680              	.LVL771:
 5681 031e 44F8040D 		str	r0, [r4, #-4]!
1176:main.c        **** 				uint8 startDevice = strtol(location, &location, 10);
 5682              		.loc 2 1176 0 discriminator 10
 5683 0322 0A22     		movs	r2, #10
 5684 0324 2146     		mov	r1, r4
 5685 0326 FFF7FEFF 		bl	strtol
 5686              	.LVL772:
 5687 032a C6B2     		uxtb	r6, r0
 5688              	.LVL773:
1177:main.c        **** 				uint8 stopDevice = strtol(location, &location, 10);
 5689              		.loc 2 1177 0 discriminator 10
 5690 032c 0A22     		movs	r2, #10
 5691 032e 2146     		mov	r1, r4
 5692 0330 0198     		ldr	r0, [sp, #4]
ARM GAS  C:\Users\FRANKL~1\AppData\Local\Temp\ccjWonOy.s 			page 134


 5693 0332 FFF7FEFF 		bl	strtol
 5694              	.LVL774:
1178:main.c        **** 				Scan_Range(startDevice, stopDevice, 0, 0);
 5695              		.loc 2 1178 0 discriminator 10
 5696 0336 0023     		movs	r3, #0
 5697 0338 1A46     		mov	r2, r3
 5698 033a C1B2     		uxtb	r1, r0
 5699 033c 3046     		mov	r0, r6
 5700              	.LVL775:
 5701 033e FFF7FEFF 		bl	Scan_Range
 5702              	.LVL776:
1179:main.c        **** 				
1180:main.c        **** 				sprintf(TransmitBuffer, "\r\n# Scan Range Complete\r\n");
 5703              		.loc 2 1180 0 discriminator 10
 5704 0342 264C     		ldr	r4, .L506+124
 5705 0344 0FCC     		ldmia	r4!, {r0, r1, r2, r3}
 5706 0346 2860     		str	r0, [r5]	@ unaligned
 5707 0348 6960     		str	r1, [r5, #4]	@ unaligned
 5708 034a AA60     		str	r2, [r5, #8]	@ unaligned
 5709 034c EB60     		str	r3, [r5, #12]	@ unaligned
 5710 034e 03CC     		ldmia	r4!, {r0, r1}
 5711 0350 2861     		str	r0, [r5, #16]	@ unaligned
 5712 0352 6961     		str	r1, [r5, #20]	@ unaligned
 5713 0354 2388     		ldrh	r3, [r4]	@ unaligned
 5714 0356 2B83     		strh	r3, [r5, #24]	@ unaligned
1181:main.c        **** 				sendTransmitBuffer();
 5715              		.loc 2 1181 0 discriminator 10
 5716 0358 FFF7FEFF 		bl	sendTransmitBuffer
 5717              	.LVL777:
 5718              	.LBE78:
 5719 035c 90E6     		b	.L464
 5720              	.L507:
 5721 035e 00BF     		.align	2
 5722              	.L506:
 5723 0360 F8000000 		.word	.LC15
 5724 0364 00000000 		.word	.LANCHOR0
 5725 0368 00000000 		.word	UART_Rx_Position
 5726 036c 00000000 		.word	USBUART_Rx_Position
 5727 0370 00000000 		.word	CommunicationHandlerISR
 5728 0374 00000000 		.word	Current_Measurement_Sample_Count
 5729 0378 00000000 		.word	USBUART_Receive_Buffer
 5730 037c 00000000 		.word	UART_Receive_Buffer
 5731 0380 08010000 		.word	.LC16
 5732 0384 14010000 		.word	.LC17
 5733 0388 28010000 		.word	.LC18
 5734 038c 38010000 		.word	.LC19
 5735 0390 4C010000 		.word	.LC20
 5736 0394 68010000 		.word	.LC21
 5737 0398 7C010000 		.word	.LC22
 5738 039c 8C010000 		.word	.LC23
 5739 03a0 9C010000 		.word	.LC24
 5740 03a4 AC010000 		.word	.LC25
 5741 03a8 BC010000 		.word	.LC26
 5742 03ac C8010000 		.word	.LC27
 5743 03b0 CC010000 		.word	.LC28
 5744 03b4 D8010000 		.word	.LC29
 5745 03b8 E4010000 		.word	.LC30
ARM GAS  C:\Users\FRANKL~1\AppData\Local\Temp\ccjWonOy.s 			page 135


 5746 03bc 00000000 		.word	TransmitBuffer
 5747 03c0 FC010000 		.word	.LC31
 5748 03c4 08020000 		.word	.LC32
 5749 03c8 20020000 		.word	.LC33
 5750 03cc 28020000 		.word	.LC34
 5751 03d0 3C020000 		.word	.LC35
 5752 03d4 50020000 		.word	.LC36
 5753 03d8 5C020000 		.word	.LC37
 5754 03dc 78020000 		.word	.LC38
 5755              	.LVL778:
 5756              	.L482:
1182:main.c        **** 			} else 
1183:main.c        **** 			if (strstr(ReceiveBuffer, "scan-range-loop ") == &ReceiveBuffer[0]) {
 5757              		.loc 2 1183 0
 5758 03e0 C049     		ldr	r1, .L508
 5759 03e2 2046     		mov	r0, r4
 5760 03e4 FFF7FEFF 		bl	strstr
 5761              	.LVL779:
 5762 03e8 8442     		cmp	r4, r0
 5763 03ea 38D1     		bne	.L483
 5764              	.LBB79:
1184:main.c        **** 				sprintf(TransmitBuffer, "\r\n# Scan-Range-Loop Starting\r\n");
 5765              		.loc 2 1184 0 discriminator 11
 5766 03ec BE4D     		ldr	r5, .L508+4
 5767 03ee BF4E     		ldr	r6, .L508+8
 5768 03f0 0FCE     		ldmia	r6!, {r0, r1, r2, r3}
 5769 03f2 2860     		str	r0, [r5]	@ unaligned
 5770 03f4 6960     		str	r1, [r5, #4]	@ unaligned
 5771 03f6 AA60     		str	r2, [r5, #8]	@ unaligned
 5772 03f8 EB60     		str	r3, [r5, #12]	@ unaligned
 5773 03fa 07CE     		ldmia	r6!, {r0, r1, r2}
 5774 03fc 2861     		str	r0, [r5, #16]	@ unaligned
 5775 03fe 6961     		str	r1, [r5, #20]	@ unaligned
 5776 0400 AA61     		str	r2, [r5, #24]	@ unaligned
 5777 0402 3288     		ldrh	r2, [r6]	@ unaligned
 5778 0404 B378     		ldrb	r3, [r6, #2]	@ zero_extendqisi2
 5779 0406 AA83     		strh	r2, [r5, #28]	@ unaligned
 5780 0408 AB77     		strb	r3, [r5, #30]
1185:main.c        **** 				sendTransmitBuffer();
 5781              		.loc 2 1185 0 discriminator 11
 5782 040a FFF7FEFF 		bl	sendTransmitBuffer
 5783              	.LVL780:
1186:main.c        **** 				
1187:main.c        **** 				char* location = strstr(ReceiveBuffer, " ");
 5784              		.loc 2 1187 0 discriminator 11
 5785 040e 2021     		movs	r1, #32
 5786 0410 2046     		mov	r0, r4
 5787 0412 FFF7FEFF 		bl	strchr
 5788              	.LVL781:
 5789 0416 02AC     		add	r4, sp, #8
 5790              	.LVL782:
 5791 0418 44F8040D 		str	r0, [r4, #-4]!
1188:main.c        **** 				uint8 startDevice = strtol(location, &location, 10);
 5792              		.loc 2 1188 0 discriminator 11
 5793 041c 0A22     		movs	r2, #10
 5794 041e 2146     		mov	r1, r4
 5795 0420 FFF7FEFF 		bl	strtol
ARM GAS  C:\Users\FRANKL~1\AppData\Local\Temp\ccjWonOy.s 			page 136


 5796              	.LVL783:
 5797 0424 C6B2     		uxtb	r6, r0
 5798              	.LVL784:
1189:main.c        **** 				uint8 stopDevice = strtol(location, &location, 10);
 5799              		.loc 2 1189 0 discriminator 11
 5800 0426 0A22     		movs	r2, #10
 5801 0428 2146     		mov	r1, r4
 5802 042a 0198     		ldr	r0, [sp, #4]
 5803 042c FFF7FEFF 		bl	strtol
 5804              	.LVL785:
1190:main.c        **** 				Scan_Range(startDevice, stopDevice, 0, 1);
 5805              		.loc 2 1190 0 discriminator 11
 5806 0430 0123     		movs	r3, #1
 5807 0432 0022     		movs	r2, #0
 5808 0434 C1B2     		uxtb	r1, r0
 5809 0436 3046     		mov	r0, r6
 5810              	.LVL786:
 5811 0438 FFF7FEFF 		bl	Scan_Range
 5812              	.LVL787:
1191:main.c        **** 				
1192:main.c        **** 				sprintf(TransmitBuffer, "\r\n# Scan Range Loop Complete\r\n");
 5813              		.loc 2 1192 0 discriminator 11
 5814 043c AC4C     		ldr	r4, .L508+12
 5815 043e 0FCC     		ldmia	r4!, {r0, r1, r2, r3}
 5816 0440 2860     		str	r0, [r5]	@ unaligned
 5817 0442 6960     		str	r1, [r5, #4]	@ unaligned
 5818 0444 AA60     		str	r2, [r5, #8]	@ unaligned
 5819 0446 EB60     		str	r3, [r5, #12]	@ unaligned
 5820 0448 07CC     		ldmia	r4!, {r0, r1, r2}
 5821 044a 2861     		str	r0, [r5, #16]	@ unaligned
 5822 044c 6961     		str	r1, [r5, #20]	@ unaligned
 5823 044e AA61     		str	r2, [r5, #24]	@ unaligned
 5824 0450 2288     		ldrh	r2, [r4]	@ unaligned
 5825 0452 A378     		ldrb	r3, [r4, #2]	@ zero_extendqisi2
 5826 0454 AA83     		strh	r2, [r5, #28]	@ unaligned
 5827 0456 AB77     		strb	r3, [r5, #30]
1193:main.c        **** 				sendTransmitBuffer();
 5828              		.loc 2 1193 0 discriminator 11
 5829 0458 FFF7FEFF 		bl	sendTransmitBuffer
 5830              	.LVL788:
 5831              	.LBE79:
 5832 045c 10E6     		b	.L464
 5833              	.LVL789:
 5834              	.L483:
1194:main.c        **** 			} else 
1195:main.c        **** 			if (strstr(ReceiveBuffer, "scan-range-wide-loop ") == &ReceiveBuffer[0]) {
 5835              		.loc 2 1195 0
 5836 045e A549     		ldr	r1, .L508+16
 5837 0460 2046     		mov	r0, r4
 5838 0462 FFF7FEFF 		bl	strstr
 5839              	.LVL790:
 5840 0466 8442     		cmp	r4, r0
 5841 0468 3BD1     		bne	.L484
 5842              	.LBB80:
1196:main.c        **** 				sprintf(TransmitBuffer, "\r\n# Scan-Range-Wide-Loop Starting\r\n");
 5843              		.loc 2 1196 0 discriminator 12
 5844 046a A34E     		ldr	r6, .L508+20
ARM GAS  C:\Users\FRANKL~1\AppData\Local\Temp\ccjWonOy.s 			page 137


 5845 046c 9E4D     		ldr	r5, .L508+4
 5846 046e 06F1200E 		add	lr, r6, #32
 5847              	.L485:
 5848 0472 3746     		mov	r7, r6
 5849 0474 0FCF     		ldmia	r7!, {r0, r1, r2, r3}
 5850 0476 2860     		str	r0, [r5]	@ unaligned
 5851 0478 6960     		str	r1, [r5, #4]	@ unaligned
 5852 047a AA60     		str	r2, [r5, #8]	@ unaligned
 5853 047c EB60     		str	r3, [r5, #12]	@ unaligned
 5854 047e 3E46     		mov	r6, r7
 5855 0480 1035     		adds	r5, r5, #16
 5856 0482 7745     		cmp	r7, lr
 5857 0484 F5D1     		bne	.L485
 5858 0486 3868     		ldr	r0, [r7]	@ unaligned
 5859 0488 2860     		str	r0, [r5]	@ unaligned
1197:main.c        **** 				sendTransmitBuffer();
 5860              		.loc 2 1197 0 discriminator 12
 5861 048a FFF7FEFF 		bl	sendTransmitBuffer
 5862              	.LVL791:
1198:main.c        **** 				
1199:main.c        **** 				char* location = strstr(ReceiveBuffer, " ");
 5863              		.loc 2 1199 0 discriminator 12
 5864 048e 2021     		movs	r1, #32
 5865 0490 2046     		mov	r0, r4
 5866 0492 FFF7FEFF 		bl	strchr
 5867              	.LVL792:
 5868 0496 02AC     		add	r4, sp, #8
 5869              	.LVL793:
 5870 0498 44F8040D 		str	r0, [r4, #-4]!
1200:main.c        **** 				uint8 startDevice = strtol(location, &location, 10);
 5871              		.loc 2 1200 0 discriminator 12
 5872 049c 0A22     		movs	r2, #10
 5873 049e 2146     		mov	r1, r4
 5874 04a0 FFF7FEFF 		bl	strtol
 5875              	.LVL794:
 5876 04a4 C5B2     		uxtb	r5, r0
 5877              	.LVL795:
1201:main.c        **** 				uint8 stopDevice = strtol(location, &location, 10);
 5878              		.loc 2 1201 0 discriminator 12
 5879 04a6 0A22     		movs	r2, #10
 5880 04a8 2146     		mov	r1, r4
 5881 04aa 0198     		ldr	r0, [sp, #4]
 5882 04ac FFF7FEFF 		bl	strtol
 5883              	.LVL796:
1202:main.c        **** 				Scan_Range(startDevice, stopDevice, 1, 1);
 5884              		.loc 2 1202 0 discriminator 12
 5885 04b0 0123     		movs	r3, #1
 5886 04b2 1A46     		mov	r2, r3
 5887 04b4 C1B2     		uxtb	r1, r0
 5888 04b6 2846     		mov	r0, r5
 5889              	.LVL797:
 5890 04b8 FFF7FEFF 		bl	Scan_Range
 5891              	.LVL798:
1203:main.c        **** 				
1204:main.c        **** 				sprintf(TransmitBuffer, "\r\n# Scan Range Wide Loop Complete\r\n");
 5892              		.loc 2 1204 0 discriminator 12
 5893 04bc 8F4D     		ldr	r5, .L508+24
ARM GAS  C:\Users\FRANKL~1\AppData\Local\Temp\ccjWonOy.s 			page 138


 5894              	.LVL799:
 5895 04be 8A4C     		ldr	r4, .L508+4
 5896 04c0 05F12007 		add	r7, r5, #32
 5897              	.L486:
 5898 04c4 2E46     		mov	r6, r5
 5899 04c6 0FCE     		ldmia	r6!, {r0, r1, r2, r3}
 5900 04c8 2060     		str	r0, [r4]	@ unaligned
 5901 04ca 6160     		str	r1, [r4, #4]	@ unaligned
 5902 04cc A260     		str	r2, [r4, #8]	@ unaligned
 5903 04ce E360     		str	r3, [r4, #12]	@ unaligned
 5904 04d0 3546     		mov	r5, r6
 5905 04d2 1034     		adds	r4, r4, #16
 5906 04d4 BE42     		cmp	r6, r7
 5907 04d6 F5D1     		bne	.L486
 5908 04d8 3068     		ldr	r0, [r6]	@ unaligned
 5909 04da 2060     		str	r0, [r4]	@ unaligned
1205:main.c        **** 				sendTransmitBuffer();
 5910              		.loc 2 1205 0 discriminator 12
 5911 04dc FFF7FEFF 		bl	sendTransmitBuffer
 5912              	.LVL800:
 5913              	.LBE80:
 5914 04e0 CEE5     		b	.L464
 5915              	.LVL801:
 5916              	.L484:
1206:main.c        **** 			} else 
1207:main.c        **** 			if (strstr(ReceiveBuffer, "connect ") == &ReceiveBuffer[0]) {
 5917              		.loc 2 1207 0
 5918 04e2 8749     		ldr	r1, .L508+28
 5919 04e4 2046     		mov	r0, r4
 5920 04e6 FFF7FEFF 		bl	strstr
 5921              	.LVL802:
 5922 04ea 8442     		cmp	r4, r0
 5923 04ec 1ED1     		bne	.L487
 5924              	.LBB81:
1208:main.c        **** 				char* location = strstr(ReceiveBuffer, " ");
 5925              		.loc 2 1208 0 discriminator 13
 5926 04ee 2021     		movs	r1, #32
 5927 04f0 2046     		mov	r0, r4
 5928 04f2 FFF7FEFF 		bl	strchr
 5929              	.LVL803:
 5930 04f6 02AC     		add	r4, sp, #8
 5931              	.LVL804:
 5932 04f8 44F8040D 		str	r0, [r4, #-4]!
1209:main.c        **** 				uint8 contact = strtol(location, &location, 10);
 5933              		.loc 2 1209 0 discriminator 13
 5934 04fc 0A22     		movs	r2, #10
 5935 04fe 2146     		mov	r1, r4
 5936 0500 FFF7FEFF 		bl	strtol
 5937              	.LVL805:
 5938 0504 C5B2     		uxtb	r5, r0
 5939              	.LVL806:
1210:main.c        **** 				uint8 intermediate = strtol(location, &location, 10);
 5940              		.loc 2 1210 0 discriminator 13
 5941 0506 0A22     		movs	r2, #10
 5942 0508 2146     		mov	r1, r4
 5943 050a 0198     		ldr	r0, [sp, #4]
 5944 050c FFF7FEFF 		bl	strtol
ARM GAS  C:\Users\FRANKL~1\AppData\Local\Temp\ccjWonOy.s 			page 139


 5945              	.LVL807:
 5946 0510 C4B2     		uxtb	r4, r0
 5947              	.LVL808:
1211:main.c        **** 				Connect_Contact_To_Intermediate(contact, intermediate);
 5948              		.loc 2 1211 0 discriminator 13
 5949 0512 2146     		mov	r1, r4
 5950 0514 2846     		mov	r0, r5
 5951 0516 FFF7FEFF 		bl	Connect_Contact_To_Intermediate
 5952              	.LVL809:
1212:main.c        **** 				
1213:main.c        **** 				sprintf(TransmitBuffer, "# Connected %u to %u\r\n", contact, intermediate);
 5953              		.loc 2 1213 0 discriminator 13
 5954 051a 2346     		mov	r3, r4
 5955 051c 2A46     		mov	r2, r5
 5956 051e 7949     		ldr	r1, .L508+32
 5957 0520 7148     		ldr	r0, .L508+4
 5958 0522 FFF7FEFF 		bl	sprintf
 5959              	.LVL810:
1214:main.c        **** 				sendTransmitBuffer();
 5960              		.loc 2 1214 0 discriminator 13
 5961 0526 FFF7FEFF 		bl	sendTransmitBuffer
 5962              	.LVL811:
 5963              	.LBE81:
 5964 052a A9E5     		b	.L464
 5965              	.LVL812:
 5966              	.L487:
1215:main.c        **** 			} else 
1216:main.c        **** 			if (strstr(ReceiveBuffer, "connect-c ") == &ReceiveBuffer[0]) {
 5967              		.loc 2 1216 0
 5968 052c 7649     		ldr	r1, .L508+36
 5969 052e 2046     		mov	r0, r4
 5970 0530 FFF7FEFF 		bl	strstr
 5971              	.LVL813:
 5972 0534 8442     		cmp	r4, r0
 5973 0536 1ED1     		bne	.L488
 5974              	.LBB82:
1217:main.c        **** 				char* location = strstr(ReceiveBuffer, " ");
 5975              		.loc 2 1217 0 discriminator 14
 5976 0538 2021     		movs	r1, #32
 5977 053a 2046     		mov	r0, r4
 5978 053c FFF7FEFF 		bl	strchr
 5979              	.LVL814:
 5980 0540 02AC     		add	r4, sp, #8
 5981              	.LVL815:
 5982 0542 44F8040D 		str	r0, [r4, #-4]!
1218:main.c        **** 				uint8 channel = strtol(location, &location, 10);
 5983              		.loc 2 1218 0 discriminator 14
 5984 0546 0A22     		movs	r2, #10
 5985 0548 2146     		mov	r1, r4
 5986 054a FFF7FEFF 		bl	strtol
 5987              	.LVL816:
 5988 054e C5B2     		uxtb	r5, r0
 5989              	.LVL817:
1219:main.c        **** 				uint8 intermediate = strtol(location, &location, 10);
 5990              		.loc 2 1219 0 discriminator 14
 5991 0550 0A22     		movs	r2, #10
 5992 0552 2146     		mov	r1, r4
ARM GAS  C:\Users\FRANKL~1\AppData\Local\Temp\ccjWonOy.s 			page 140


 5993 0554 0198     		ldr	r0, [sp, #4]
 5994 0556 FFF7FEFF 		bl	strtol
 5995              	.LVL818:
 5996 055a C4B2     		uxtb	r4, r0
 5997              	.LVL819:
1220:main.c        **** 				Connect_Channel_On_Intermediate(channel, intermediate);
 5998              		.loc 2 1220 0 discriminator 14
 5999 055c 2146     		mov	r1, r4
 6000 055e 2846     		mov	r0, r5
 6001 0560 FFF7FEFF 		bl	Connect_Channel_On_Intermediate
 6002              	.LVL820:
1221:main.c        **** 				
1222:main.c        **** 				sprintf(TransmitBuffer, "# Connected channel %u to %u\r\n", channel, intermediate);
 6003              		.loc 2 1222 0 discriminator 14
 6004 0564 2346     		mov	r3, r4
 6005 0566 2A46     		mov	r2, r5
 6006 0568 6849     		ldr	r1, .L508+40
 6007 056a 5F48     		ldr	r0, .L508+4
 6008 056c FFF7FEFF 		bl	sprintf
 6009              	.LVL821:
1223:main.c        **** 				sendTransmitBuffer();
 6010              		.loc 2 1223 0 discriminator 14
 6011 0570 FFF7FEFF 		bl	sendTransmitBuffer
 6012              	.LVL822:
 6013              	.LBE82:
 6014 0574 84E5     		b	.L464
 6015              	.LVL823:
 6016              	.L488:
1224:main.c        **** 			} else 
1225:main.c        **** 			if (strstr(ReceiveBuffer, "disconnect-c ") == &ReceiveBuffer[0]) {
 6017              		.loc 2 1225 0
 6018 0576 6649     		ldr	r1, .L508+44
 6019 0578 2046     		mov	r0, r4
 6020 057a FFF7FEFF 		bl	strstr
 6021              	.LVL824:
 6022 057e 8442     		cmp	r4, r0
 6023 0580 1ED1     		bne	.L489
 6024              	.LBB83:
1226:main.c        **** 				char* location = strstr(ReceiveBuffer, " ");
 6025              		.loc 2 1226 0 discriminator 15
 6026 0582 2021     		movs	r1, #32
 6027 0584 2046     		mov	r0, r4
 6028 0586 FFF7FEFF 		bl	strchr
 6029              	.LVL825:
 6030 058a 02AC     		add	r4, sp, #8
 6031              	.LVL826:
 6032 058c 44F8040D 		str	r0, [r4, #-4]!
1227:main.c        **** 				uint8 channel = strtol(location, &location, 10);
 6033              		.loc 2 1227 0 discriminator 15
 6034 0590 0A22     		movs	r2, #10
 6035 0592 2146     		mov	r1, r4
 6036 0594 FFF7FEFF 		bl	strtol
 6037              	.LVL827:
 6038 0598 C5B2     		uxtb	r5, r0
 6039              	.LVL828:
1228:main.c        **** 				uint8 intermediate = strtol(location, &location, 10);
 6040              		.loc 2 1228 0 discriminator 15
ARM GAS  C:\Users\FRANKL~1\AppData\Local\Temp\ccjWonOy.s 			page 141


 6041 059a 0A22     		movs	r2, #10
 6042 059c 2146     		mov	r1, r4
 6043 059e 0198     		ldr	r0, [sp, #4]
 6044 05a0 FFF7FEFF 		bl	strtol
 6045              	.LVL829:
 6046 05a4 C4B2     		uxtb	r4, r0
 6047              	.LVL830:
1229:main.c        **** 				Disconnect_Channel_On_Intermediate(channel, intermediate);
 6048              		.loc 2 1229 0 discriminator 15
 6049 05a6 2146     		mov	r1, r4
 6050 05a8 2846     		mov	r0, r5
 6051 05aa FFF7FEFF 		bl	Disconnect_Channel_On_Intermediate
 6052              	.LVL831:
1230:main.c        **** 				
1231:main.c        **** 				sprintf(TransmitBuffer, "# Disconnected channel %u from %u\r\n", channel, intermediate);
 6053              		.loc 2 1231 0 discriminator 15
 6054 05ae 2346     		mov	r3, r4
 6055 05b0 2A46     		mov	r2, r5
 6056 05b2 5849     		ldr	r1, .L508+48
 6057 05b4 4C48     		ldr	r0, .L508+4
 6058 05b6 FFF7FEFF 		bl	sprintf
 6059              	.LVL832:
1232:main.c        **** 				sendTransmitBuffer();
 6060              		.loc 2 1232 0 discriminator 15
 6061 05ba FFF7FEFF 		bl	sendTransmitBuffer
 6062              	.LVL833:
 6063              	.LBE83:
 6064 05be 5FE5     		b	.L464
 6065              	.LVL834:
 6066              	.L489:
1233:main.c        **** 			} else 
1234:main.c        **** 			if (strstr(ReceiveBuffer, "disconnect ") == &ReceiveBuffer[0]) {
 6067              		.loc 2 1234 0
 6068 05c0 5549     		ldr	r1, .L508+52
 6069 05c2 2046     		mov	r0, r4
 6070 05c4 FFF7FEFF 		bl	strstr
 6071              	.LVL835:
 6072 05c8 8442     		cmp	r4, r0
 6073 05ca 1ED1     		bne	.L490
 6074              	.LBB84:
1235:main.c        **** 				char* location = strstr(ReceiveBuffer, " ");
 6075              		.loc 2 1235 0 discriminator 16
 6076 05cc 2021     		movs	r1, #32
 6077 05ce 2046     		mov	r0, r4
 6078 05d0 FFF7FEFF 		bl	strchr
 6079              	.LVL836:
 6080 05d4 02AC     		add	r4, sp, #8
 6081              	.LVL837:
 6082 05d6 44F8040D 		str	r0, [r4, #-4]!
1236:main.c        **** 				uint8 contact = strtol(location, &location, 10);
 6083              		.loc 2 1236 0 discriminator 16
 6084 05da 0A22     		movs	r2, #10
 6085 05dc 2146     		mov	r1, r4
 6086 05de FFF7FEFF 		bl	strtol
 6087              	.LVL838:
 6088 05e2 C5B2     		uxtb	r5, r0
 6089              	.LVL839:
ARM GAS  C:\Users\FRANKL~1\AppData\Local\Temp\ccjWonOy.s 			page 142


1237:main.c        **** 				uint8 intermediate = strtol(location, &location, 10);
 6090              		.loc 2 1237 0 discriminator 16
 6091 05e4 0A22     		movs	r2, #10
 6092 05e6 2146     		mov	r1, r4
 6093 05e8 0198     		ldr	r0, [sp, #4]
 6094 05ea FFF7FEFF 		bl	strtol
 6095              	.LVL840:
 6096 05ee C4B2     		uxtb	r4, r0
 6097              	.LVL841:
1238:main.c        **** 				Disconnect_Contact_From_Intermediate(contact, intermediate);
 6098              		.loc 2 1238 0 discriminator 16
 6099 05f0 2146     		mov	r1, r4
 6100 05f2 2846     		mov	r0, r5
 6101 05f4 FFF7FEFF 		bl	Disconnect_Contact_From_Intermediate
 6102              	.LVL842:
1239:main.c        **** 				
1240:main.c        **** 				sprintf(TransmitBuffer, "# Disonnected %u from %u\r\n", contact, intermediate);
 6103              		.loc 2 1240 0 discriminator 16
 6104 05f8 2346     		mov	r3, r4
 6105 05fa 2A46     		mov	r2, r5
 6106 05fc 4749     		ldr	r1, .L508+56
 6107 05fe 3A48     		ldr	r0, .L508+4
 6108 0600 FFF7FEFF 		bl	sprintf
 6109              	.LVL843:
1241:main.c        **** 				sendTransmitBuffer();
 6110              		.loc 2 1241 0 discriminator 16
 6111 0604 FFF7FEFF 		bl	sendTransmitBuffer
 6112              	.LVL844:
 6113              	.LBE84:
 6114 0608 3AE5     		b	.L464
 6115              	.LVL845:
 6116              	.L490:
1242:main.c        **** 			} else 
1243:main.c        **** 			if (strstr(ReceiveBuffer, "disconnect-all-from ") == &ReceiveBuffer[0]) {
 6117              		.loc 2 1243 0
 6118 060a 4549     		ldr	r1, .L508+60
 6119 060c 2046     		mov	r0, r4
 6120 060e FFF7FEFF 		bl	strstr
 6121              	.LVL846:
 6122 0612 8442     		cmp	r4, r0
 6123 0614 15D1     		bne	.L491
 6124              	.LBB85:
1244:main.c        **** 				char* location = strstr(ReceiveBuffer, " ");
 6125              		.loc 2 1244 0 discriminator 17
 6126 0616 2021     		movs	r1, #32
 6127 0618 2046     		mov	r0, r4
 6128 061a FFF7FEFF 		bl	strchr
 6129              	.LVL847:
 6130 061e 02A9     		add	r1, sp, #8
 6131 0620 41F8040D 		str	r0, [r1, #-4]!
1245:main.c        **** 				uint8 intermediate = strtol(location, &location, 10);
 6132              		.loc 2 1245 0 discriminator 17
 6133 0624 0A22     		movs	r2, #10
 6134 0626 FFF7FEFF 		bl	strtol
 6135              	.LVL848:
 6136 062a C4B2     		uxtb	r4, r0
 6137              	.LVL849:
ARM GAS  C:\Users\FRANKL~1\AppData\Local\Temp\ccjWonOy.s 			page 143


1246:main.c        **** 				Disconnect_All_Contacts_From_Intermediate(intermediate);
 6138              		.loc 2 1246 0 discriminator 17
 6139 062c 2046     		mov	r0, r4
 6140 062e FFF7FEFF 		bl	Disconnect_All_Contacts_From_Intermediate
 6141              	.LVL850:
1247:main.c        **** 				
1248:main.c        **** 				sprintf(TransmitBuffer, "# Disconnected all from  %u\r\n", intermediate);
 6142              		.loc 2 1248 0 discriminator 17
 6143 0632 2246     		mov	r2, r4
 6144 0634 3B49     		ldr	r1, .L508+64
 6145 0636 2C48     		ldr	r0, .L508+4
 6146 0638 FFF7FEFF 		bl	sprintf
 6147              	.LVL851:
1249:main.c        **** 				sendTransmitBuffer();
 6148              		.loc 2 1249 0 discriminator 17
 6149 063c FFF7FEFF 		bl	sendTransmitBuffer
 6150              	.LVL852:
 6151              	.LBE85:
 6152 0640 1EE5     		b	.L464
 6153              	.LVL853:
 6154              	.L491:
1250:main.c        **** 			} else 
1251:main.c        **** 			if (strstr(ReceiveBuffer, "disconnect-all-from-all ") == &ReceiveBuffer[0]) {
 6155              		.loc 2 1251 0
 6156 0642 3949     		ldr	r1, .L508+68
 6157 0644 2046     		mov	r0, r4
 6158 0646 FFF7FEFF 		bl	strstr
 6159              	.LVL854:
 6160 064a 8442     		cmp	r4, r0
 6161 064c 11D1     		bne	.L492
1252:main.c        **** 				Disconnect_All_Contacts_From_All_Intermediates();
 6162              		.loc 2 1252 0
 6163 064e FFF7FEFF 		bl	Disconnect_All_Contacts_From_All_Intermediates
 6164              	.LVL855:
1253:main.c        **** 				
1254:main.c        **** 				sprintf(TransmitBuffer, "# Disconnected all from all\r\n");
 6165              		.loc 2 1254 0
 6166 0652 254D     		ldr	r5, .L508+4
 6167 0654 354C     		ldr	r4, .L508+72
 6168              	.LVL856:
 6169 0656 0FCC     		ldmia	r4!, {r0, r1, r2, r3}
 6170 0658 2860     		str	r0, [r5]	@ unaligned
 6171 065a 6960     		str	r1, [r5, #4]	@ unaligned
 6172 065c AA60     		str	r2, [r5, #8]	@ unaligned
 6173 065e EB60     		str	r3, [r5, #12]	@ unaligned
 6174 0660 07CC     		ldmia	r4!, {r0, r1, r2}
 6175 0662 2861     		str	r0, [r5, #16]	@ unaligned
 6176 0664 6961     		str	r1, [r5, #20]	@ unaligned
 6177 0666 AA61     		str	r2, [r5, #24]	@ unaligned
 6178 0668 2388     		ldrh	r3, [r4]	@ unaligned
 6179 066a AB83     		strh	r3, [r5, #28]	@ unaligned
1255:main.c        **** 				sendTransmitBuffer();
 6180              		.loc 2 1255 0
 6181 066c FFF7FEFF 		bl	sendTransmitBuffer
 6182              	.LVL857:
 6183 0670 06E5     		b	.L464
 6184              	.LVL858:
ARM GAS  C:\Users\FRANKL~1\AppData\Local\Temp\ccjWonOy.s 			page 144


 6185              	.L492:
1256:main.c        **** 			} else 
1257:main.c        **** 			if (strstr(ReceiveBuffer, "disconnect-from-all ") == &ReceiveBuffer[0]) {
 6186              		.loc 2 1257 0
 6187 0672 2F49     		ldr	r1, .L508+76
 6188 0674 2046     		mov	r0, r4
 6189 0676 FFF7FEFF 		bl	strstr
 6190              	.LVL859:
 6191 067a 8442     		cmp	r4, r0
 6192 067c 15D1     		bne	.L493
 6193              	.LBB86:
1258:main.c        **** 				char* location = strstr(ReceiveBuffer, " ");
 6194              		.loc 2 1258 0 discriminator 18
 6195 067e 2021     		movs	r1, #32
 6196 0680 2046     		mov	r0, r4
 6197 0682 FFF7FEFF 		bl	strchr
 6198              	.LVL860:
 6199 0686 02A9     		add	r1, sp, #8
 6200 0688 41F8040D 		str	r0, [r1, #-4]!
1259:main.c        **** 				uint8 contact = strtol(location, &location, 10);
 6201              		.loc 2 1259 0 discriminator 18
 6202 068c 0A22     		movs	r2, #10
 6203 068e FFF7FEFF 		bl	strtol
 6204              	.LVL861:
 6205 0692 C4B2     		uxtb	r4, r0
 6206              	.LVL862:
1260:main.c        **** 				Disconnect_Contact_From_All_Intermediates(contact);
 6207              		.loc 2 1260 0 discriminator 18
 6208 0694 2046     		mov	r0, r4
 6209 0696 FFF7FEFF 		bl	Disconnect_Contact_From_All_Intermediates
 6210              	.LVL863:
1261:main.c        **** 				
1262:main.c        **** 				sprintf(TransmitBuffer, "# Disconnected %u from all\r\n", contact);
 6211              		.loc 2 1262 0 discriminator 18
 6212 069a 2246     		mov	r2, r4
 6213 069c 2549     		ldr	r1, .L508+80
 6214 069e 1248     		ldr	r0, .L508+4
 6215 06a0 FFF7FEFF 		bl	sprintf
 6216              	.LVL864:
1263:main.c        **** 				sendTransmitBuffer();
 6217              		.loc 2 1263 0 discriminator 18
 6218 06a4 FFF7FEFF 		bl	sendTransmitBuffer
 6219              	.LVL865:
 6220              	.LBE86:
 6221 06a8 EAE4     		b	.L464
 6222              	.LVL866:
 6223              	.L493:
1264:main.c        **** 			} else 
1265:main.c        **** 			if (strstr(ReceiveBuffer, "connect-intermediate ") == &ReceiveBuffer[0]) {
 6224              		.loc 2 1265 0
 6225 06aa 2349     		ldr	r1, .L508+84
 6226 06ac 2046     		mov	r0, r4
 6227 06ae FFF7FEFF 		bl	strstr
 6228              	.LVL867:
 6229 06b2 8442     		cmp	r4, r0
 6230 06b4 44D1     		bne	.L494
 6231              	.LBB87:
ARM GAS  C:\Users\FRANKL~1\AppData\Local\Temp\ccjWonOy.s 			page 145


1266:main.c        **** 				char* location = strstr(ReceiveBuffer, " ");
 6232              		.loc 2 1266 0 discriminator 19
 6233 06b6 2021     		movs	r1, #32
 6234 06b8 2046     		mov	r0, r4
 6235 06ba FFF7FEFF 		bl	strchr
 6236              	.LVL868:
 6237 06be 02A9     		add	r1, sp, #8
 6238 06c0 41F8040D 		str	r0, [r1, #-4]!
1267:main.c        **** 				uint8 intermediate = strtol(location, &location, 10);
 6239              		.loc 2 1267 0 discriminator 19
 6240 06c4 0A22     		movs	r2, #10
 6241 06c6 FFF7FEFF 		bl	strtol
 6242              	.LVL869:
 6243 06ca C4B2     		uxtb	r4, r0
 6244              	.LVL870:
1268:main.c        **** 				Connect_Intermediate(intermediate);
 6245              		.loc 2 1268 0 discriminator 19
 6246 06cc 2046     		mov	r0, r4
 6247 06ce FFF7FEFF 		bl	Connect_Intermediate
 6248              	.LVL871:
1269:main.c        **** 				
1270:main.c        **** 				sprintf(TransmitBuffer, "# Connected intermediate %u\r\n", intermediate);
 6249              		.loc 2 1270 0 discriminator 19
 6250 06d2 2246     		mov	r2, r4
 6251 06d4 1949     		ldr	r1, .L508+88
 6252 06d6 0448     		ldr	r0, .L508+4
 6253 06d8 FFF7FEFF 		bl	sprintf
 6254              	.LVL872:
1271:main.c        **** 				sendTransmitBuffer();
 6255              		.loc 2 1271 0 discriminator 19
 6256 06dc FFF7FEFF 		bl	sendTransmitBuffer
 6257              	.LVL873:
 6258              	.LBE87:
 6259 06e0 CEE4     		b	.L464
 6260              	.L509:
 6261 06e2 00BF     		.align	2
 6262              	.L508:
 6263 06e4 94020000 		.word	.LC39
 6264 06e8 00000000 		.word	TransmitBuffer
 6265 06ec A8020000 		.word	.LC40
 6266 06f0 C8020000 		.word	.LC41
 6267 06f4 E8020000 		.word	.LC42
 6268 06f8 00030000 		.word	.LC43
 6269 06fc 24030000 		.word	.LC44
 6270 0700 48030000 		.word	.LC45
 6271 0704 54030000 		.word	.LC46
 6272 0708 6C030000 		.word	.LC47
 6273 070c 78030000 		.word	.LC48
 6274 0710 98030000 		.word	.LC49
 6275 0714 A8030000 		.word	.LC50
 6276 0718 CC030000 		.word	.LC51
 6277 071c D8030000 		.word	.LC52
 6278 0720 F4030000 		.word	.LC53
 6279 0724 0C040000 		.word	.LC54
 6280 0728 2C040000 		.word	.LC55
 6281 072c 48040000 		.word	.LC56
 6282 0730 68040000 		.word	.LC57
ARM GAS  C:\Users\FRANKL~1\AppData\Local\Temp\ccjWonOy.s 			page 146


 6283 0734 80040000 		.word	.LC58
 6284 0738 A0040000 		.word	.LC59
 6285 073c B8040000 		.word	.LC60
 6286              	.LVL874:
 6287              	.L494:
1272:main.c        **** 			} else 
1273:main.c        **** 			if (strstr(ReceiveBuffer, "disconnect-intermediate ") == &ReceiveBuffer[0]) {
 6288              		.loc 2 1273 0
 6289 0740 6F49     		ldr	r1, .L510
 6290 0742 2046     		mov	r0, r4
 6291 0744 FFF7FEFF 		bl	strstr
 6292              	.LVL875:
 6293 0748 8442     		cmp	r4, r0
 6294 074a 15D1     		bne	.L495
 6295              	.LBB88:
1274:main.c        **** 				char* location = strstr(ReceiveBuffer, " ");
 6296              		.loc 2 1274 0 discriminator 20
 6297 074c 2021     		movs	r1, #32
 6298 074e 2046     		mov	r0, r4
 6299 0750 FFF7FEFF 		bl	strchr
 6300              	.LVL876:
 6301 0754 02A9     		add	r1, sp, #8
 6302 0756 41F8040D 		str	r0, [r1, #-4]!
1275:main.c        **** 				uint8 intermediate = strtol(location, &location, 10);
 6303              		.loc 2 1275 0 discriminator 20
 6304 075a 0A22     		movs	r2, #10
 6305 075c FFF7FEFF 		bl	strtol
 6306              	.LVL877:
 6307 0760 C4B2     		uxtb	r4, r0
 6308              	.LVL878:
1276:main.c        **** 				Disconnect_Intermediate(intermediate);
 6309              		.loc 2 1276 0 discriminator 20
 6310 0762 2046     		mov	r0, r4
 6311 0764 FFF7FEFF 		bl	Disconnect_Intermediate
 6312              	.LVL879:
1277:main.c        **** 				
1278:main.c        **** 				sprintf(TransmitBuffer, "# Disconnected intermediate %u\r\n", intermediate);
 6313              		.loc 2 1278 0 discriminator 20
 6314 0768 2246     		mov	r2, r4
 6315 076a 6649     		ldr	r1, .L510+4
 6316 076c 6648     		ldr	r0, .L510+8
 6317 076e FFF7FEFF 		bl	sprintf
 6318              	.LVL880:
1279:main.c        **** 				sendTransmitBuffer();
 6319              		.loc 2 1279 0 discriminator 20
 6320 0772 FFF7FEFF 		bl	sendTransmitBuffer
 6321              	.LVL881:
 6322              	.LBE88:
 6323 0776 83E4     		b	.L464
 6324              	.LVL882:
 6325              	.L495:
1280:main.c        **** 			} else 
1281:main.c        **** 			if (strstr(ReceiveBuffer, "connect-intermediates ") == &ReceiveBuffer[0]) {
 6326              		.loc 2 1281 0
 6327 0778 6449     		ldr	r1, .L510+12
 6328 077a 2046     		mov	r0, r4
 6329 077c FFF7FEFF 		bl	strstr
ARM GAS  C:\Users\FRANKL~1\AppData\Local\Temp\ccjWonOy.s 			page 147


 6330              	.LVL883:
 6331 0780 8442     		cmp	r4, r0
 6332 0782 0FD1     		bne	.L496
1282:main.c        **** 				Connect_Intermediates();
 6333              		.loc 2 1282 0
 6334 0784 FFF7FEFF 		bl	Connect_Intermediates
 6335              	.LVL884:
1283:main.c        **** 				
1284:main.c        **** 				sprintf(TransmitBuffer, "# Connected intermediates\r\n");
 6336              		.loc 2 1284 0
 6337 0788 5F4D     		ldr	r5, .L510+8
 6338 078a 614C     		ldr	r4, .L510+16
 6339              	.LVL885:
 6340 078c 0FCC     		ldmia	r4!, {r0, r1, r2, r3}
 6341 078e 2860     		str	r0, [r5]	@ unaligned
 6342 0790 6960     		str	r1, [r5, #4]	@ unaligned
 6343 0792 AA60     		str	r2, [r5, #8]	@ unaligned
 6344 0794 EB60     		str	r3, [r5, #12]	@ unaligned
 6345 0796 07CC     		ldmia	r4!, {r0, r1, r2}
 6346 0798 2861     		str	r0, [r5, #16]	@ unaligned
 6347 079a 6961     		str	r1, [r5, #20]	@ unaligned
 6348 079c AA61     		str	r2, [r5, #24]	@ unaligned
1285:main.c        **** 				sendTransmitBuffer();
 6349              		.loc 2 1285 0
 6350 079e FFF7FEFF 		bl	sendTransmitBuffer
 6351              	.LVL886:
 6352 07a2 6DE4     		b	.L464
 6353              	.LVL887:
 6354              	.L496:
1286:main.c        **** 			} else 
1287:main.c        **** 			if (strstr(ReceiveBuffer, "disconnect-intermediates ") == &ReceiveBuffer[0]) {
 6355              		.loc 2 1287 0
 6356 07a4 5B49     		ldr	r1, .L510+20
 6357 07a6 2046     		mov	r0, r4
 6358 07a8 FFF7FEFF 		bl	strstr
 6359              	.LVL888:
 6360 07ac 8442     		cmp	r4, r0
 6361 07ae 13D1     		bne	.L497
1288:main.c        **** 				Disconnect_Intermediates();
 6362              		.loc 2 1288 0
 6363 07b0 FFF7FEFF 		bl	Disconnect_Intermediates
 6364              	.LVL889:
1289:main.c        **** 				
1290:main.c        **** 				sprintf(TransmitBuffer, "# Disconnected intermediates\r\n");
 6365              		.loc 2 1290 0
 6366 07b4 544D     		ldr	r5, .L510+8
 6367 07b6 584C     		ldr	r4, .L510+24
 6368              	.LVL890:
 6369 07b8 0FCC     		ldmia	r4!, {r0, r1, r2, r3}
 6370 07ba 2860     		str	r0, [r5]	@ unaligned
 6371 07bc 6960     		str	r1, [r5, #4]	@ unaligned
 6372 07be AA60     		str	r2, [r5, #8]	@ unaligned
 6373 07c0 EB60     		str	r3, [r5, #12]	@ unaligned
 6374 07c2 07CC     		ldmia	r4!, {r0, r1, r2}
 6375 07c4 2861     		str	r0, [r5, #16]	@ unaligned
 6376 07c6 6961     		str	r1, [r5, #20]	@ unaligned
 6377 07c8 AA61     		str	r2, [r5, #24]	@ unaligned
ARM GAS  C:\Users\FRANKL~1\AppData\Local\Temp\ccjWonOy.s 			page 148


 6378 07ca 2288     		ldrh	r2, [r4]	@ unaligned
 6379 07cc A378     		ldrb	r3, [r4, #2]	@ zero_extendqisi2
 6380 07ce AA83     		strh	r2, [r5, #28]	@ unaligned
 6381 07d0 AB77     		strb	r3, [r5, #30]
1291:main.c        **** 				sendTransmitBuffer();
 6382              		.loc 2 1291 0
 6383 07d2 FFF7FEFF 		bl	sendTransmitBuffer
 6384              	.LVL891:
 6385 07d6 53E4     		b	.L464
 6386              	.LVL892:
 6387              	.L497:
1292:main.c        **** 			} else 
1293:main.c        **** 			if (strstr(ReceiveBuffer, "Set_Current_Measurement_Sample_Count ") == &ReceiveBuffer[0]) {
 6388              		.loc 2 1293 0
 6389 07d8 5049     		ldr	r1, .L510+28
 6390 07da 2046     		mov	r0, r4
 6391 07dc FFF7FEFF 		bl	strstr
 6392              	.LVL893:
 6393 07e0 8442     		cmp	r4, r0
 6394 07e2 21D1     		bne	.L498
 6395              	.LBB89:
1294:main.c        **** 				char* location = strstr(ReceiveBuffer, " ");
 6396              		.loc 2 1294 0 discriminator 21
 6397 07e4 2021     		movs	r1, #32
 6398 07e6 2046     		mov	r0, r4
 6399 07e8 FFF7FEFF 		bl	strchr
 6400              	.LVL894:
 6401 07ec 02A9     		add	r1, sp, #8
 6402 07ee 41F8040D 		str	r0, [r1, #-4]!
1295:main.c        **** 				uint32 sampleCount = strtol(location, &location, 10);
 6403              		.loc 2 1295 0 discriminator 21
 6404 07f2 0A22     		movs	r2, #10
 6405 07f4 FFF7FEFF 		bl	strtol
 6406              	.LVL895:
1296:main.c        **** 				
1297:main.c        **** 				Current_Measurement_Sample_Count = sampleCount;
 6407              		.loc 2 1297 0 discriminator 21
 6408 07f8 494B     		ldr	r3, .L510+32
 6409 07fa 1860     		str	r0, [r3]
1298:main.c        **** 				
1299:main.c        **** 				sprintf(TransmitBuffer, "# Set Current Measurement Sample Count\r\n");
 6410              		.loc 2 1299 0 discriminator 21
 6411 07fc 494C     		ldr	r4, .L510+36
 6412              	.LVL896:
 6413 07fe 424D     		ldr	r5, .L510+8
 6414 0800 04F12007 		add	r7, r4, #32
 6415              	.LVL897:
 6416              	.L499:
 6417 0804 2646     		mov	r6, r4
 6418 0806 0FCE     		ldmia	r6!, {r0, r1, r2, r3}
 6419 0808 2860     		str	r0, [r5]	@ unaligned
 6420 080a 6960     		str	r1, [r5, #4]	@ unaligned
 6421 080c AA60     		str	r2, [r5, #8]	@ unaligned
 6422 080e EB60     		str	r3, [r5, #12]	@ unaligned
 6423 0810 3446     		mov	r4, r6
 6424 0812 1035     		adds	r5, r5, #16
 6425 0814 BE42     		cmp	r6, r7
ARM GAS  C:\Users\FRANKL~1\AppData\Local\Temp\ccjWonOy.s 			page 149


 6426 0816 F5D1     		bne	.L499
 6427 0818 03CC     		ldmia	r4!, {r0, r1}
 6428 081a 2860     		str	r0, [r5]	@ unaligned
 6429 081c 6960     		str	r1, [r5, #4]	@ unaligned
 6430 081e 2378     		ldrb	r3, [r4]	@ zero_extendqisi2
 6431 0820 2B72     		strb	r3, [r5, #8]
1300:main.c        **** 				sendTransmitBuffer();
 6432              		.loc 2 1300 0 discriminator 21
 6433 0822 FFF7FEFF 		bl	sendTransmitBuffer
 6434              	.LVL898:
 6435              	.LBE89:
 6436 0826 2BE4     		b	.L464
 6437              	.LVL899:
 6438              	.L498:
1301:main.c        **** 			} else 
1302:main.c        **** 			if (strstr(ReceiveBuffer, "enable-uart-sending ") == &ReceiveBuffer[0]) {
 6439              		.loc 2 1302 0
 6440 0828 3F49     		ldr	r1, .L510+40
 6441 082a 2046     		mov	r0, r4
 6442 082c FFF7FEFF 		bl	strstr
 6443              	.LVL900:
 6444 0830 8442     		cmp	r4, r0
 6445 0832 11D1     		bne	.L500
1303:main.c        **** 				sprintf(TransmitBuffer, "# Enabled UART Sending\r\n");
 6446              		.loc 2 1303 0
 6447 0834 344D     		ldr	r5, .L510+8
 6448 0836 3D4C     		ldr	r4, .L510+44
 6449              	.LVL901:
 6450 0838 0FCC     		ldmia	r4!, {r0, r1, r2, r3}
 6451 083a 2860     		str	r0, [r5]	@ unaligned
 6452 083c 6960     		str	r1, [r5, #4]	@ unaligned
 6453 083e AA60     		str	r2, [r5, #8]	@ unaligned
 6454 0840 EB60     		str	r3, [r5, #12]	@ unaligned
 6455 0842 03CC     		ldmia	r4!, {r0, r1}
 6456 0844 2861     		str	r0, [r5, #16]	@ unaligned
 6457 0846 6961     		str	r1, [r5, #20]	@ unaligned
 6458 0848 2378     		ldrb	r3, [r4]	@ zero_extendqisi2
 6459 084a 2B76     		strb	r3, [r5, #24]
1304:main.c        **** 				sendTransmitBuffer();
 6460              		.loc 2 1304 0
 6461 084c FFF7FEFF 		bl	sendTransmitBuffer
 6462              	.LVL902:
1305:main.c        **** 				
1306:main.c        **** 				uartSendingEnabled = true;
 6463              		.loc 2 1306 0
 6464 0850 0122     		movs	r2, #1
 6465 0852 374B     		ldr	r3, .L510+48
 6466 0854 5A70     		strb	r2, [r3, #1]
 6467 0856 13E4     		b	.L464
 6468              	.LVL903:
 6469              	.L500:
1307:main.c        **** 			} else 
1308:main.c        **** 			if (strstr(ReceiveBuffer, "enable-usbu-sending ") == &ReceiveBuffer[0]) {
 6470              		.loc 2 1308 0
 6471 0858 3649     		ldr	r1, .L510+52
 6472 085a 2046     		mov	r0, r4
 6473 085c FFF7FEFF 		bl	strstr
ARM GAS  C:\Users\FRANKL~1\AppData\Local\Temp\ccjWonOy.s 			page 150


 6474              	.LVL904:
 6475 0860 8442     		cmp	r4, r0
 6476 0862 12D1     		bne	.L501
1309:main.c        **** 				sprintf(TransmitBuffer, "# Enabled USBU Sending\r\n");
 6477              		.loc 2 1309 0
 6478 0864 284D     		ldr	r5, .L510+8
 6479 0866 344C     		ldr	r4, .L510+56
 6480              	.LVL905:
 6481 0868 0FCC     		ldmia	r4!, {r0, r1, r2, r3}
 6482 086a 2860     		str	r0, [r5]	@ unaligned
 6483 086c 6960     		str	r1, [r5, #4]	@ unaligned
 6484 086e AA60     		str	r2, [r5, #8]	@ unaligned
 6485 0870 EB60     		str	r3, [r5, #12]	@ unaligned
 6486 0872 03CC     		ldmia	r4!, {r0, r1}
 6487 0874 2861     		str	r0, [r5, #16]	@ unaligned
 6488 0876 6961     		str	r1, [r5, #20]	@ unaligned
 6489 0878 2378     		ldrb	r3, [r4]	@ zero_extendqisi2
 6490 087a 2B76     		strb	r3, [r5, #24]
1310:main.c        **** 				sendTransmitBuffer();
 6491              		.loc 2 1310 0
 6492 087c FFF7FEFF 		bl	sendTransmitBuffer
 6493              	.LVL906:
1311:main.c        **** 				
1312:main.c        **** 				usbuSendingEnabled = true;
 6494              		.loc 2 1312 0
 6495 0880 0122     		movs	r2, #1
 6496 0882 2B4B     		ldr	r3, .L510+48
 6497 0884 1A70     		strb	r2, [r3]
 6498 0886 FFF7FBBB 		b	.L464
 6499              	.LVL907:
 6500              	.L501:
1313:main.c        **** 			} else 
1314:main.c        **** 			if (strstr(ReceiveBuffer, "disable-uart-sending ") == &ReceiveBuffer[0]) {
 6501              		.loc 2 1314 0
 6502 088a 2C49     		ldr	r1, .L510+60
 6503 088c 2046     		mov	r0, r4
 6504 088e FFF7FEFF 		bl	strstr
 6505              	.LVL908:
 6506 0892 8442     		cmp	r4, r0
 6507 0894 12D1     		bne	.L502
1315:main.c        **** 				sprintf(TransmitBuffer, "# Disabled UART Sending\r\n");
 6508              		.loc 2 1315 0
 6509 0896 1C4D     		ldr	r5, .L510+8
 6510 0898 294C     		ldr	r4, .L510+64
 6511              	.LVL909:
 6512 089a 0FCC     		ldmia	r4!, {r0, r1, r2, r3}
 6513 089c 2860     		str	r0, [r5]	@ unaligned
 6514 089e 6960     		str	r1, [r5, #4]	@ unaligned
 6515 08a0 AA60     		str	r2, [r5, #8]	@ unaligned
 6516 08a2 EB60     		str	r3, [r5, #12]	@ unaligned
 6517 08a4 03CC     		ldmia	r4!, {r0, r1}
 6518 08a6 2861     		str	r0, [r5, #16]	@ unaligned
 6519 08a8 6961     		str	r1, [r5, #20]	@ unaligned
 6520 08aa 2388     		ldrh	r3, [r4]	@ unaligned
 6521 08ac 2B83     		strh	r3, [r5, #24]	@ unaligned
1316:main.c        **** 				sendTransmitBuffer();
 6522              		.loc 2 1316 0
ARM GAS  C:\Users\FRANKL~1\AppData\Local\Temp\ccjWonOy.s 			page 151


 6523 08ae FFF7FEFF 		bl	sendTransmitBuffer
 6524              	.LVL910:
1317:main.c        **** 				
1318:main.c        **** 				uartSendingEnabled = false;
 6525              		.loc 2 1318 0
 6526 08b2 0022     		movs	r2, #0
 6527 08b4 1E4B     		ldr	r3, .L510+48
 6528 08b6 5A70     		strb	r2, [r3, #1]
 6529 08b8 FFF7E2BB 		b	.L464
 6530              	.LVL911:
 6531              	.L502:
1319:main.c        **** 			} else 
1320:main.c        **** 			if (strstr(ReceiveBuffer, "disable-usbu-sending ") == &ReceiveBuffer[0]) {
 6532              		.loc 2 1320 0
 6533 08bc 2149     		ldr	r1, .L510+68
 6534 08be 2046     		mov	r0, r4
 6535 08c0 FFF7FEFF 		bl	strstr
 6536              	.LVL912:
 6537 08c4 8442     		cmp	r4, r0
 6538 08c6 12D1     		bne	.L503
1321:main.c        **** 				sprintf(TransmitBuffer, "# Disabled USBU Sending\r\n");
 6539              		.loc 2 1321 0
 6540 08c8 0F4D     		ldr	r5, .L510+8
 6541 08ca 1F4C     		ldr	r4, .L510+72
 6542              	.LVL913:
 6543 08cc 0FCC     		ldmia	r4!, {r0, r1, r2, r3}
 6544 08ce 2860     		str	r0, [r5]	@ unaligned
 6545 08d0 6960     		str	r1, [r5, #4]	@ unaligned
 6546 08d2 AA60     		str	r2, [r5, #8]	@ unaligned
 6547 08d4 EB60     		str	r3, [r5, #12]	@ unaligned
 6548 08d6 03CC     		ldmia	r4!, {r0, r1}
 6549 08d8 2861     		str	r0, [r5, #16]	@ unaligned
 6550 08da 6961     		str	r1, [r5, #20]	@ unaligned
 6551 08dc 2388     		ldrh	r3, [r4]	@ unaligned
 6552 08de 2B83     		strh	r3, [r5, #24]	@ unaligned
1322:main.c        **** 				sendTransmitBuffer();
 6553              		.loc 2 1322 0
 6554 08e0 FFF7FEFF 		bl	sendTransmitBuffer
 6555              	.LVL914:
1323:main.c        **** 				
1324:main.c        **** 				usbuSendingEnabled = false;
 6556              		.loc 2 1324 0
 6557 08e4 0022     		movs	r2, #0
 6558 08e6 124B     		ldr	r3, .L510+48
 6559 08e8 1A70     		strb	r2, [r3]
 6560 08ea FFF7C9BB 		b	.L464
 6561              	.LVL915:
 6562              	.L503:
1325:main.c        **** 			} else {
1326:main.c        **** 				sprintf(TransmitBuffer, "! Unidentified command: |%s|\r\n", ReceiveBuffer);
 6563              		.loc 2 1326 0
 6564 08ee 2246     		mov	r2, r4
 6565 08f0 1649     		ldr	r1, .L510+76
 6566 08f2 0548     		ldr	r0, .L510+8
 6567 08f4 FFF7FEFF 		bl	sprintf
 6568              	.LVL916:
1327:main.c        **** 				sendTransmitBuffer();
ARM GAS  C:\Users\FRANKL~1\AppData\Local\Temp\ccjWonOy.s 			page 152


 6569              		.loc 2 1327 0
 6570 08f8 FFF7FEFF 		bl	sendTransmitBuffer
 6571              	.LVL917:
 6572 08fc FFF7C0BB 		b	.L464
 6573              	.L511:
 6574              		.align	2
 6575              	.L510:
 6576 0900 D8040000 		.word	.LC61
 6577 0904 F4040000 		.word	.LC62
 6578 0908 00000000 		.word	TransmitBuffer
 6579 090c 18050000 		.word	.LC63
 6580 0910 30050000 		.word	.LC64
 6581 0914 4C050000 		.word	.LC65
 6582 0918 68050000 		.word	.LC66
 6583 091c 88050000 		.word	.LC67
 6584 0920 00000000 		.word	Current_Measurement_Sample_Count
 6585 0924 B0050000 		.word	.LC68
 6586 0928 DC050000 		.word	.LC69
 6587 092c F4050000 		.word	.LC70
 6588 0930 00000000 		.word	.LANCHOR1
 6589 0934 10060000 		.word	.LC71
 6590 0938 28060000 		.word	.LC72
 6591 093c 44060000 		.word	.LC73
 6592 0940 5C060000 		.word	.LC74
 6593 0944 78060000 		.word	.LC75
 6594 0948 90060000 		.word	.LC76
 6595 094c AC060000 		.word	.LC77
 6596              	.LBE68:
 6597              		.cfi_endproc
 6598              	.LFE120:
 6599              		.size	main, .-main
 6600              		.global	usbuSendingEnabled
 6601              		.global	uartSendingEnabled
 6602              		.comm	Current_Measurement_Sample_Count,4,4
 6603              		.comm	Vds_Index_Goal_Relative,2,2
 6604              		.comm	Vgs_Index_Goal_Relative,2,2
 6605              		.comm	Compliance_Reached,1,1
 6606              		.global	TIA_Offsets_uV
 6607              		.global	TIA_Resistor_Values
 6608              		.global	TIA_Resistor_Codes
 6609              		.global	TIA_Selected_Resistor
 6610              		.comm	USBUART_Rx_Position,1,1
 6611              		.comm	USBUART_Receive_Buffer,64,4
 6612              		.comm	UART_Rx_Position,1,1
 6613              		.comm	UART_Receive_Buffer,64,4
 6614              		.global	G_Pause
 6615              		.global	G_Break
 6616              		.global	G_Stop
 6617              		.global	newData
 6618              		.comm	TransmitBuffer,64,4
 6619              		.comm	selectors,1020,4
 6620              		.data
 6621              		.align	2
 6622              		.set	.LANCHOR1,. + 0
 6623              		.type	usbuSendingEnabled, %object
 6624              		.size	usbuSendingEnabled, 1
 6625              	usbuSendingEnabled:
ARM GAS  C:\Users\FRANKL~1\AppData\Local\Temp\ccjWonOy.s 			page 153


 6626 0000 01       		.byte	1
 6627              		.type	uartSendingEnabled, %object
 6628              		.size	uartSendingEnabled, 1
 6629              	uartSendingEnabled:
 6630 0001 01       		.byte	1
 6631 0002 0000     		.space	2
 6632              		.type	TIA_Resistor_Codes, %object
 6633              		.size	TIA_Resistor_Codes, 8
 6634              	TIA_Resistor_Codes:
 6635 0004 00       		.byte	0
 6636 0005 01       		.byte	1
 6637 0006 02       		.byte	2
 6638 0007 03       		.byte	3
 6639 0008 04       		.byte	4
 6640 0009 05       		.byte	5
 6641 000a 06       		.byte	6
 6642 000b 07       		.byte	7
 6643              		.type	TIA_Resistor_Values, %object
 6644              		.size	TIA_Resistor_Values, 32
 6645              	TIA_Resistor_Values:
 6646 000c 00409C46 		.word	1184645120
 6647 0010 0060EA46 		.word	1189765120
 6648 0014 00401C47 		.word	1193033728
 6649 0018 00409C47 		.word	1201422336
 6650 001c 0060EA47 		.word	1206542336
 6651 0020 00247448 		.word	1215570944
 6652 0024 0024F448 		.word	1223959552
 6653 0028 00247449 		.word	1232348160
 6654              		.section	.rodata.str1.4,"aMS",%progbits,1
 6655              		.align	2
 6656              	.LC0:
 6657 0000 73746F70 		.ascii	"stop \000"
 6657      2000
 6658 0006 0000     		.space	2
 6659              	.LC1:
 6660 0008 62726561 		.ascii	"break \000"
 6660      6B2000
 6661 000f 00       		.space	1
 6662              	.LC2:
 6663 0010 70617573 		.ascii	"pause \000"
 6663      652000
 6664 0017 00       		.space	1
 6665              	.LC3:
 6666 0018 72657375 		.ascii	"resume \000"
 6666      6D652000 
 6667              	.LC4:
 6668 0020 74726973 		.ascii	"tristate \000"
 6668      74617465 
 6668      2000
 6669 002a 0000     		.space	2
 6670              	.LC5:
 6671 002c 55706461 		.ascii	"Updating Selector %u\015\012\000"
 6671      74696E67 
 6671      2053656C 
 6671      6563746F 
 6671      72202575 
 6672 0043 00       		.space	1
ARM GAS  C:\Users\FRANKL~1\AppData\Local\Temp\ccjWonOy.s 			page 154


 6673              	.LC6:
 6674 0044 49324320 		.ascii	"I2C Transfer Error! Type: Timeout\015\012\000"
 6674      5472616E 
 6674      73666572 
 6674      20457272 
 6674      6F722120 
 6675              	.LC7:
 6676 0068 49324320 		.ascii	"I2C Transfer Error! \000"
 6676      5472616E 
 6676      73666572 
 6676      20457272 
 6676      6F722120 
 6677 007d 000000   		.space	3
 6678              	.LC8:
 6679 0080 54797065 		.ascii	"Type: NAK\000"
 6679      3A204E41 
 6679      4B00
 6680 008a 0000     		.space	2
 6681              	.LC9:
 6682 008c 0D0A00   		.ascii	"\015\012\000"
 6683 008f 00       		.space	1
 6684              	.LC10:
 6685 0090 55706461 		.ascii	"Updated Selector %u\015\012\000"
 6685      74656420 
 6685      53656C65 
 6685      63746F72 
 6685      2025750D 
 6686 00a6 0000     		.space	2
 6687              	.LC11:
 6688 00a8 23204F66 		.ascii	"# Offset %e Ohm: %li uV\015\012\000"
 6688      66736574 
 6688      20256520 
 6688      4F686D3A 
 6688      20256C69 
 6689 00c2 0000     		.space	2
 6690              	.LC12:
 6691 00c4 23204361 		.ascii	"# Calibrated ADC Offsets\015\012\000"
 6691      6C696272 
 6691      61746564 
 6691      20414443 
 6691      204F6666 
 6692 00df 00       		.space	1
 6693              	.LC13:
 6694 00e0 5B25652C 		.ascii	"[%e,%f,%f]\015\012\000"
 6694      25662C25 
 6694      665D0D0A 
 6694      00
 6695 00ed 000000   		.space	3
 6696              	.LC14:
 6697 00f0 0D0A2575 		.ascii	"\015\012%u\015\012\000"
 6697      0D0A00
 6698 00f7 00       		.space	1
 6699              	.LC15:
 6700 00f8 0D0A2320 		.ascii	"\015\012# Starting\015\012\000"
 6700      53746172 
 6700      74696E67 
 6700      0D0A00
ARM GAS  C:\Users\FRANKL~1\AppData\Local\Temp\ccjWonOy.s 			page 155


 6701 0107 00       		.space	1
 6702              	.LC16:
 6703 0108 6D656173 		.ascii	"measure \000"
 6703      75726520 
 6703      00
 6704 0111 000000   		.space	3
 6705              	.LC17:
 6706 0114 6D656173 		.ascii	"measure-multiple \000"
 6706      7572652D 
 6706      6D756C74 
 6706      69706C65 
 6706      2000
 6707 0126 0000     		.space	2
 6708              	.LC18:
 6709 0128 6D656173 		.ascii	"measure-sweep \000"
 6709      7572652D 
 6709      73776565 
 6709      702000
 6710 0137 00       		.space	1
 6711              	.LC19:
 6712 0138 6D656173 		.ascii	"measure-gate-sweep \000"
 6712      7572652D 
 6712      67617465 
 6712      2D737765 
 6712      65702000 
 6713              	.LC20:
 6714 014c 6D656173 		.ascii	"measure-gate-sweep-loop \000"
 6714      7572652D 
 6714      67617465 
 6714      2D737765 
 6714      65702D6C 
 6715 0165 000000   		.space	3
 6716              	.LC21:
 6717 0168 63616C69 		.ascii	"calibrate-offset \000"
 6717      62726174 
 6717      652D6F66 
 6717      66736574 
 6717      2000
 6718 017a 0000     		.space	2
 6719              	.LC22:
 6720 017c 7365742D 		.ascii	"set-vgs-raw \000"
 6720      7667732D 
 6720      72617720 
 6720      00
 6721 0189 000000   		.space	3
 6722              	.LC23:
 6723 018c 7365742D 		.ascii	"set-vds-raw \000"
 6723      7664732D 
 6723      72617720 
 6723      00
 6724 0199 000000   		.space	3
 6725              	.LC24:
 6726 019c 7365742D 		.ascii	"set-vgs-rel \000"
 6726      7667732D 
 6726      72656C20 
 6726      00
 6727 01a9 000000   		.space	3
ARM GAS  C:\Users\FRANKL~1\AppData\Local\Temp\ccjWonOy.s 			page 156


 6728              	.LC25:
 6729 01ac 7365742D 		.ascii	"set-vds-rel \000"
 6729      7664732D 
 6729      72656C20 
 6729      00
 6730 01b9 000000   		.space	3
 6731              	.LC26:
 6732 01bc 7365742D 		.ascii	"set-vgs \000"
 6732      76677320 
 6732      00
 6733 01c5 000000   		.space	3
 6734              	.LC27:
 6735 01c8 256600   		.ascii	"%f\000"
 6736 01cb 00       		.space	1
 6737              	.LC28:
 6738 01cc 7365742D 		.ascii	"set-vds \000"
 6738      76647320 
 6738      00
 6739 01d5 000000   		.space	3
 6740              	.LC29:
 6741 01d8 7365742D 		.ascii	"set-vgs-mv \000"
 6741      7667732D 
 6741      6D762000 
 6742              	.LC30:
 6743 01e4 23205667 		.ascii	"# Vgs set to %f mV\015\012\000"
 6743      73207365 
 6743      7420746F 
 6743      20256620 
 6743      6D560D0A 
 6744 01f9 000000   		.space	3
 6745              	.LC31:
 6746 01fc 7365742D 		.ascii	"set-vds-mv \000"
 6746      7664732D 
 6746      6D762000 
 6747              	.LC32:
 6748 0208 23205664 		.ascii	"# Vds set to %f mV\015\012\000"
 6748      73207365 
 6748      7420746F 
 6748      20256620 
 6748      6D560D0A 
 6749 021d 000000   		.space	3
 6750              	.LC33:
 6751 0220 7363616E 		.ascii	"scan \000"
 6751      2000
 6752 0226 0000     		.space	2
 6753              	.LC34:
 6754 0228 0D0A2320 		.ascii	"\015\012# Scan Starting\015\012\000"
 6754      5363616E 
 6754      20537461 
 6754      7274696E 
 6754      670D0A00 
 6755              	.LC35:
 6756 023c 0D0A2320 		.ascii	"\015\012# Scan Complete\015\012\000"
 6756      5363616E 
 6756      20436F6D 
 6756      706C6574 
 6756      650D0A00 
ARM GAS  C:\Users\FRANKL~1\AppData\Local\Temp\ccjWonOy.s 			page 157


 6757              	.LC36:
 6758 0250 7363616E 		.ascii	"scan-range \000"
 6758      2D72616E 
 6758      67652000 
 6759              	.LC37:
 6760 025c 0D0A2320 		.ascii	"\015\012# Scan-Range Starting\015\012\000"
 6760      5363616E 
 6760      2D52616E 
 6760      67652053 
 6760      74617274 
 6761 0276 0000     		.space	2
 6762              	.LC38:
 6763 0278 0D0A2320 		.ascii	"\015\012# Scan Range Complete\015\012\000"
 6763      5363616E 
 6763      2052616E 
 6763      67652043 
 6763      6F6D706C 
 6764 0292 0000     		.space	2
 6765              	.LC39:
 6766 0294 7363616E 		.ascii	"scan-range-loop \000"
 6766      2D72616E 
 6766      67652D6C 
 6766      6F6F7020 
 6766      00
 6767 02a5 000000   		.space	3
 6768              	.LC40:
 6769 02a8 0D0A2320 		.ascii	"\015\012# Scan-Range-Loop Starting\015\012\000"
 6769      5363616E 
 6769      2D52616E 
 6769      67652D4C 
 6769      6F6F7020 
 6770 02c7 00       		.space	1
 6771              	.LC41:
 6772 02c8 0D0A2320 		.ascii	"\015\012# Scan Range Loop Complete\015\012\000"
 6772      5363616E 
 6772      2052616E 
 6772      6765204C 
 6772      6F6F7020 
 6773 02e7 00       		.space	1
 6774              	.LC42:
 6775 02e8 7363616E 		.ascii	"scan-range-wide-loop \000"
 6775      2D72616E 
 6775      67652D77 
 6775      6964652D 
 6775      6C6F6F70 
 6776 02fe 0000     		.space	2
 6777              	.LC43:
 6778 0300 0D0A2320 		.ascii	"\015\012# Scan-Range-Wide-Loop Starting\015\012\000"
 6778      5363616E 
 6778      2D52616E 
 6778      67652D57 
 6778      6964652D 
 6779              	.LC44:
 6780 0324 0D0A2320 		.ascii	"\015\012# Scan Range Wide Loop Complete\015\012\000"
 6780      5363616E 
 6780      2052616E 
 6780      67652057 
ARM GAS  C:\Users\FRANKL~1\AppData\Local\Temp\ccjWonOy.s 			page 158


 6780      69646520 
 6781              	.LC45:
 6782 0348 636F6E6E 		.ascii	"connect \000"
 6782      65637420 
 6782      00
 6783 0351 000000   		.space	3
 6784              	.LC46:
 6785 0354 2320436F 		.ascii	"# Connected %u to %u\015\012\000"
 6785      6E6E6563 
 6785      74656420 
 6785      25752074 
 6785      6F202575 
 6786 036b 00       		.space	1
 6787              	.LC47:
 6788 036c 636F6E6E 		.ascii	"connect-c \000"
 6788      6563742D 
 6788      632000
 6789 0377 00       		.space	1
 6790              	.LC48:
 6791 0378 2320436F 		.ascii	"# Connected channel %u to %u\015\012\000"
 6791      6E6E6563 
 6791      74656420 
 6791      6368616E 
 6791      6E656C20 
 6792 0397 00       		.space	1
 6793              	.LC49:
 6794 0398 64697363 		.ascii	"disconnect-c \000"
 6794      6F6E6E65 
 6794      63742D63 
 6794      2000
 6795 03a6 0000     		.space	2
 6796              	.LC50:
 6797 03a8 23204469 		.ascii	"# Disconnected channel %u from %u\015\012\000"
 6797      73636F6E 
 6797      6E656374 
 6797      65642063 
 6797      68616E6E 
 6798              	.LC51:
 6799 03cc 64697363 		.ascii	"disconnect \000"
 6799      6F6E6E65 
 6799      63742000 
 6800              	.LC52:
 6801 03d8 23204469 		.ascii	"# Disonnected %u from %u\015\012\000"
 6801      736F6E6E 
 6801      65637465 
 6801      64202575 
 6801      2066726F 
 6802 03f3 00       		.space	1
 6803              	.LC53:
 6804 03f4 64697363 		.ascii	"disconnect-all-from \000"
 6804      6F6E6E65 
 6804      63742D61 
 6804      6C6C2D66 
 6804      726F6D20 
 6805 0409 000000   		.space	3
 6806              	.LC54:
 6807 040c 23204469 		.ascii	"# Disconnected all from  %u\015\012\000"
ARM GAS  C:\Users\FRANKL~1\AppData\Local\Temp\ccjWonOy.s 			page 159


 6807      73636F6E 
 6807      6E656374 
 6807      65642061 
 6807      6C6C2066 
 6808 042a 0000     		.space	2
 6809              	.LC55:
 6810 042c 64697363 		.ascii	"disconnect-all-from-all \000"
 6810      6F6E6E65 
 6810      63742D61 
 6810      6C6C2D66 
 6810      726F6D2D 
 6811 0445 000000   		.space	3
 6812              	.LC56:
 6813 0448 23204469 		.ascii	"# Disconnected all from all\015\012\000"
 6813      73636F6E 
 6813      6E656374 
 6813      65642061 
 6813      6C6C2066 
 6814 0466 0000     		.space	2
 6815              	.LC57:
 6816 0468 64697363 		.ascii	"disconnect-from-all \000"
 6816      6F6E6E65 
 6816      63742D66 
 6816      726F6D2D 
 6816      616C6C20 
 6817 047d 000000   		.space	3
 6818              	.LC58:
 6819 0480 23204469 		.ascii	"# Disconnected %u from all\015\012\000"
 6819      73636F6E 
 6819      6E656374 
 6819      65642025 
 6819      75206672 
 6820 049d 000000   		.space	3
 6821              	.LC59:
 6822 04a0 636F6E6E 		.ascii	"connect-intermediate \000"
 6822      6563742D 
 6822      696E7465 
 6822      726D6564 
 6822      69617465 
 6823 04b6 0000     		.space	2
 6824              	.LC60:
 6825 04b8 2320436F 		.ascii	"# Connected intermediate %u\015\012\000"
 6825      6E6E6563 
 6825      74656420 
 6825      696E7465 
 6825      726D6564 
 6826 04d6 0000     		.space	2
 6827              	.LC61:
 6828 04d8 64697363 		.ascii	"disconnect-intermediate \000"
 6828      6F6E6E65 
 6828      63742D69 
 6828      6E746572 
 6828      6D656469 
 6829 04f1 000000   		.space	3
 6830              	.LC62:
 6831 04f4 23204469 		.ascii	"# Disconnected intermediate %u\015\012\000"
 6831      73636F6E 
ARM GAS  C:\Users\FRANKL~1\AppData\Local\Temp\ccjWonOy.s 			page 160


 6831      6E656374 
 6831      65642069 
 6831      6E746572 
 6832 0515 000000   		.space	3
 6833              	.LC63:
 6834 0518 636F6E6E 		.ascii	"connect-intermediates \000"
 6834      6563742D 
 6834      696E7465 
 6834      726D6564 
 6834      69617465 
 6835 052f 00       		.space	1
 6836              	.LC64:
 6837 0530 2320436F 		.ascii	"# Connected intermediates\015\012\000"
 6837      6E6E6563 
 6837      74656420 
 6837      696E7465 
 6837      726D6564 
 6838              	.LC65:
 6839 054c 64697363 		.ascii	"disconnect-intermediates \000"
 6839      6F6E6E65 
 6839      63742D69 
 6839      6E746572 
 6839      6D656469 
 6840 0566 0000     		.space	2
 6841              	.LC66:
 6842 0568 23204469 		.ascii	"# Disconnected intermediates\015\012\000"
 6842      73636F6E 
 6842      6E656374 
 6842      65642069 
 6842      6E746572 
 6843 0587 00       		.space	1
 6844              	.LC67:
 6845 0588 5365745F 		.ascii	"Set_Current_Measurement_Sample_Count \000"
 6845      43757272 
 6845      656E745F 
 6845      4D656173 
 6845      7572656D 
 6846 05ae 0000     		.space	2
 6847              	.LC68:
 6848 05b0 23205365 		.ascii	"# Set Current Measurement Sample Count\015\012\000"
 6848      74204375 
 6848      7272656E 
 6848      74204D65 
 6848      61737572 
 6849 05d9 000000   		.space	3
 6850              	.LC69:
 6851 05dc 656E6162 		.ascii	"enable-uart-sending \000"
 6851      6C652D75 
 6851      6172742D 
 6851      73656E64 
 6851      696E6720 
 6852 05f1 000000   		.space	3
 6853              	.LC70:
 6854 05f4 2320456E 		.ascii	"# Enabled UART Sending\015\012\000"
 6854      61626C65 
 6854      64205541 
 6854      52542053 
ARM GAS  C:\Users\FRANKL~1\AppData\Local\Temp\ccjWonOy.s 			page 161


 6854      656E6469 
 6855 060d 000000   		.space	3
 6856              	.LC71:
 6857 0610 656E6162 		.ascii	"enable-usbu-sending \000"
 6857      6C652D75 
 6857      7362752D 
 6857      73656E64 
 6857      696E6720 
 6858 0625 000000   		.space	3
 6859              	.LC72:
 6860 0628 2320456E 		.ascii	"# Enabled USBU Sending\015\012\000"
 6860      61626C65 
 6860      64205553 
 6860      42552053 
 6860      656E6469 
 6861 0641 000000   		.space	3
 6862              	.LC73:
 6863 0644 64697361 		.ascii	"disable-uart-sending \000"
 6863      626C652D 
 6863      75617274 
 6863      2D73656E 
 6863      64696E67 
 6864 065a 0000     		.space	2
 6865              	.LC74:
 6866 065c 23204469 		.ascii	"# Disabled UART Sending\015\012\000"
 6866      7361626C 
 6866      65642055 
 6866      41525420 
 6866      53656E64 
 6867 0676 0000     		.space	2
 6868              	.LC75:
 6869 0678 64697361 		.ascii	"disable-usbu-sending \000"
 6869      626C652D 
 6869      75736275 
 6869      2D73656E 
 6869      64696E67 
 6870 068e 0000     		.space	2
 6871              	.LC76:
 6872 0690 23204469 		.ascii	"# Disabled USBU Sending\015\012\000"
 6872      7361626C 
 6872      65642055 
 6872      53425520 
 6872      53656E64 
 6873 06aa 0000     		.space	2
 6874              	.LC77:
 6875 06ac 2120556E 		.ascii	"! Unidentified command: |%s|\015\012\000"
 6875      6964656E 
 6875      74696669 
 6875      65642063 
 6875      6F6D6D61 
 6876              		.bss
 6877              		.align	2
 6878              		.set	.LANCHOR0,. + 0
 6879              		.type	newData, %object
 6880              		.size	newData, 1
 6881              	newData:
 6882 0000 00       		.space	1
ARM GAS  C:\Users\FRANKL~1\AppData\Local\Temp\ccjWonOy.s 			page 162


 6883              		.type	G_Stop, %object
 6884              		.size	G_Stop, 1
 6885              	G_Stop:
 6886 0001 00       		.space	1
 6887              		.type	G_Break, %object
 6888              		.size	G_Break, 1
 6889              	G_Break:
 6890 0002 00       		.space	1
 6891              		.type	G_Pause, %object
 6892              		.size	G_Pause, 1
 6893              	G_Pause:
 6894 0003 00       		.space	1
 6895              		.type	TIA_Selected_Resistor, %object
 6896              		.size	TIA_Selected_Resistor, 1
 6897              	TIA_Selected_Resistor:
 6898 0004 00       		.space	1
 6899 0005 000000   		.space	3
 6900              		.type	TIA_Offsets_uV, %object
 6901              		.size	TIA_Offsets_uV, 32
 6902              	TIA_Offsets_uV:
 6903 0008 00000000 		.space	32
 6903      00000000 
 6903      00000000 
 6903      00000000 
 6903      00000000 
 6904              		.text
 6905              	.Letext0:
 6906              		.file 3 "c:\\program files (x86)\\cypress\\psoc creator\\4.1\\psoc creator\\import\\gnu\\arm\\5.4.
 6907              		.file 4 "c:\\program files (x86)\\cypress\\psoc creator\\4.1\\psoc creator\\import\\gnu\\arm\\5.4.
 6908              		.file 5 "Generated_Source\\PSoC5/cytypes.h"
 6909              		.file 6 "Generated_Source\\PSoC5/core_cm3.h"
 6910              		.file 7 "Generated_Source\\PSoC5/USBUART.h"
 6911              		.file 8 "Generated_Source\\PSoC5/USBUART_cdc.h"
 6912              		.file 9 "c:\\program files (x86)\\cypress\\psoc creator\\4.1\\psoc creator\\import\\gnu\\arm\\5.4.
 6913              		.file 10 "Generated_Source\\PSoC5/UART_1.h"
 6914              		.file 11 "Generated_Source\\PSoC5/CommunicationInterrupt.h"
 6915              		.file 12 "Generated_Source\\PSoC5/CommunicationTimer.h"
 6916              		.file 13 "Generated_Source\\PSoC5/I2C_1.h"
 6917              		.file 14 "c:\\program files (x86)\\cypress\\psoc creator\\4.1\\psoc creator\\import\\gnu\\arm\\5.4
 6918              		.file 15 "Generated_Source\\PSoC5/TIA_1.h"
 6919              		.file 16 "Generated_Source\\PSoC5/ADC_DelSig_1.h"
 6920              		.file 17 "Generated_Source\\PSoC5/ADC_SAR_1.h"
 6921              		.file 18 "Generated_Source\\PSoC5/ADC_SAR_2.h"
 6922              		.file 19 "Generated_Source\\PSoC5/VDAC_Vds.h"
 6923              		.file 20 "Generated_Source\\PSoC5/VDAC_Vgs.h"
 6924              		.file 21 "Generated_Source\\PSoC5/VDAC_Ref.h"
 6925              		.file 22 "c:\\program files (x86)\\cypress\\psoc creator\\4.1\\psoc creator\\import\\gnu\\arm\\5.4
 6926              		.file 23 "Generated_Source\\PSoC5/Opamp_1.h"
 6927              		.file 24 "Generated_Source\\PSoC5/Opamp_2.h"
 6928              		.file 25 "Generated_Source\\PSoC5/CyLib.h"
 6929              		.file 26 "<built-in>"
 6930              		.section	.debug_info,"",%progbits
 6931              	.Ldebug_info0:
 6932 0000 D3370000 		.4byte	0x37d3
 6933 0004 0400     		.2byte	0x4
 6934 0006 00000000 		.4byte	.Ldebug_abbrev0
 6935 000a 04       		.byte	0x4
ARM GAS  C:\Users\FRANKL~1\AppData\Local\Temp\ccjWonOy.s 			page 163


 6936 000b 01       		.uleb128 0x1
 6937 000c A1020000 		.4byte	.LASF261
 6938 0010 0C       		.byte	0xc
 6939 0011 31070000 		.4byte	.LASF262
 6940 0015 7F0C0000 		.4byte	.LASF263
 6941 0019 68010000 		.4byte	.Ldebug_ranges0+0x168
 6942 001d 00000000 		.4byte	0
 6943 0021 00000000 		.4byte	.Ldebug_line0
 6944 0025 02       		.uleb128 0x2
 6945 0026 04       		.byte	0x4
 6946 0027 04       		.byte	0x4
 6947 0028 2E0F0000 		.4byte	.LASF0
 6948 002c 02       		.uleb128 0x2
 6949 002d 04       		.byte	0x4
 6950 002e 07       		.byte	0x7
 6951 002f 1A080000 		.4byte	.LASF1
 6952 0033 03       		.uleb128 0x3
 6953 0034 04       		.byte	0x4
 6954 0035 05       		.byte	0x5
 6955 0036 696E7400 		.ascii	"int\000"
 6956 003a 02       		.uleb128 0x2
 6957 003b 08       		.byte	0x8
 6958 003c 05       		.byte	0x5
 6959 003d 11070000 		.4byte	.LASF2
 6960 0041 02       		.uleb128 0x2
 6961 0042 08       		.byte	0x8
 6962 0043 04       		.byte	0x4
 6963 0044 0D0A0000 		.4byte	.LASF3
 6964 0048 02       		.uleb128 0x2
 6965 0049 01       		.byte	0x1
 6966 004a 06       		.byte	0x6
 6967 004b 76030000 		.4byte	.LASF4
 6968 004f 02       		.uleb128 0x2
 6969 0050 01       		.byte	0x1
 6970 0051 08       		.byte	0x8
 6971 0052 AD030000 		.4byte	.LASF5
 6972 0056 02       		.uleb128 0x2
 6973 0057 02       		.byte	0x2
 6974 0058 05       		.byte	0x5
 6975 0059 420D0000 		.4byte	.LASF6
 6976 005d 02       		.uleb128 0x2
 6977 005e 02       		.byte	0x2
 6978 005f 07       		.byte	0x7
 6979 0060 89020000 		.4byte	.LASF7
 6980 0064 04       		.uleb128 0x4
 6981 0065 560F0000 		.4byte	.LASF13
 6982 0069 03       		.byte	0x3
 6983 006a 3F       		.byte	0x3f
 6984 006b 6F000000 		.4byte	0x6f
 6985 006f 02       		.uleb128 0x2
 6986 0070 04       		.byte	0x4
 6987 0071 05       		.byte	0x5
 6988 0072 25020000 		.4byte	.LASF8
 6989 0076 02       		.uleb128 0x2
 6990 0077 04       		.byte	0x4
 6991 0078 07       		.byte	0x7
 6992 0079 D8050000 		.4byte	.LASF9
ARM GAS  C:\Users\FRANKL~1\AppData\Local\Temp\ccjWonOy.s 			page 164


 6993 007d 02       		.uleb128 0x2
 6994 007e 08       		.byte	0x8
 6995 007f 07       		.byte	0x7
 6996 0080 020B0000 		.4byte	.LASF10
 6997 0084 02       		.uleb128 0x2
 6998 0085 04       		.byte	0x4
 6999 0086 07       		.byte	0x7
 7000 0087 0D000000 		.4byte	.LASF11
 7001 008b 05       		.uleb128 0x5
 7002 008c 04       		.byte	0x4
 7003 008d 91000000 		.4byte	0x91
 7004 0091 02       		.uleb128 0x2
 7005 0092 01       		.byte	0x1
 7006 0093 08       		.byte	0x8
 7007 0094 0C040000 		.4byte	.LASF12
 7008 0098 05       		.uleb128 0x5
 7009 0099 04       		.byte	0x4
 7010 009a 9E000000 		.4byte	0x9e
 7011 009e 06       		.uleb128 0x6
 7012 009f 91000000 		.4byte	0x91
 7013 00a3 04       		.uleb128 0x4
 7014 00a4 61000000 		.4byte	.LASF14
 7015 00a8 04       		.byte	0x4
 7016 00a9 2C       		.byte	0x2c
 7017 00aa 64000000 		.4byte	0x64
 7018 00ae 07       		.uleb128 0x7
 7019 00af F80C0000 		.4byte	.LASF15
 7020 00b3 05       		.byte	0x5
 7021 00b4 9201     		.2byte	0x192
 7022 00b6 4F000000 		.4byte	0x4f
 7023 00ba 07       		.uleb128 0x7
 7024 00bb C90F0000 		.4byte	.LASF16
 7025 00bf 05       		.byte	0x5
 7026 00c0 9301     		.2byte	0x193
 7027 00c2 5D000000 		.4byte	0x5d
 7028 00c6 07       		.uleb128 0x7
 7029 00c7 8C000000 		.4byte	.LASF17
 7030 00cb 05       		.byte	0x5
 7031 00cc 9401     		.2byte	0x194
 7032 00ce 76000000 		.4byte	0x76
 7033 00d2 07       		.uleb128 0x7
 7034 00d3 5C010000 		.4byte	.LASF18
 7035 00d7 05       		.byte	0x5
 7036 00d8 9501     		.2byte	0x195
 7037 00da 48000000 		.4byte	0x48
 7038 00de 07       		.uleb128 0x7
 7039 00df 780E0000 		.4byte	.LASF19
 7040 00e3 05       		.byte	0x5
 7041 00e4 9601     		.2byte	0x196
 7042 00e6 56000000 		.4byte	0x56
 7043 00ea 07       		.uleb128 0x7
 7044 00eb 500F0000 		.4byte	.LASF20
 7045 00ef 05       		.byte	0x5
 7046 00f0 9701     		.2byte	0x197
 7047 00f2 6F000000 		.4byte	0x6f
 7048 00f6 02       		.uleb128 0x2
 7049 00f7 08       		.byte	0x8
ARM GAS  C:\Users\FRANKL~1\AppData\Local\Temp\ccjWonOy.s 			page 165


 7050 00f8 04       		.byte	0x4
 7051 00f9 2A070000 		.4byte	.LASF21
 7052 00fd 07       		.uleb128 0x7
 7053 00fe 7C0B0000 		.4byte	.LASF22
 7054 0102 05       		.byte	0x5
 7055 0103 3C02     		.2byte	0x23c
 7056 0105 09010000 		.4byte	0x109
 7057 0109 08       		.uleb128 0x8
 7058 010a AE000000 		.4byte	0xae
 7059 010e 09       		.uleb128 0x9
 7060 010f AE000000 		.4byte	0xae
 7061 0113 1E010000 		.4byte	0x11e
 7062 0117 0A       		.uleb128 0xa
 7063 0118 84000000 		.4byte	0x84
 7064 011c 07       		.byte	0x7
 7065 011d 00       		.byte	0
 7066 011e 0B       		.uleb128 0xb
 7067 011f 7F       		.byte	0x7f
 7068 0120 02       		.byte	0x2
 7069 0121 0A       		.byte	0xa
 7070 0122 3F010000 		.4byte	0x13f
 7071 0126 0C       		.uleb128 0xc
 7072 0127 1F070000 		.4byte	.LASF23
 7073 012b 02       		.byte	0x2
 7074 012c 0B       		.byte	0xb
 7075 012d AE000000 		.4byte	0xae
 7076 0131 00       		.byte	0
 7077 0132 0C       		.uleb128 0xc
 7078 0133 A20F0000 		.4byte	.LASF24
 7079 0137 02       		.byte	0x2
 7080 0138 0C       		.byte	0xc
 7081 0139 3F010000 		.4byte	0x13f
 7082 013d 01       		.byte	0x1
 7083 013e 00       		.byte	0
 7084 013f 09       		.uleb128 0x9
 7085 0140 AE000000 		.4byte	0xae
 7086 0144 4F010000 		.4byte	0x14f
 7087 0148 0A       		.uleb128 0xa
 7088 0149 84000000 		.4byte	0x84
 7089 014d 7D       		.byte	0x7d
 7090 014e 00       		.byte	0
 7091 014f 0B       		.uleb128 0xb
 7092 0150 7F       		.byte	0x7f
 7093 0151 02       		.byte	0x2
 7094 0152 0E       		.byte	0xe
 7095 0153 70010000 		.4byte	0x170
 7096 0157 0C       		.uleb128 0xc
 7097 0158 1F070000 		.4byte	.LASF23
 7098 015c 02       		.byte	0x2
 7099 015d 0F       		.byte	0xf
 7100 015e AE000000 		.4byte	0xae
 7101 0162 00       		.byte	0
 7102 0163 0C       		.uleb128 0xc
 7103 0164 A20F0000 		.4byte	.LASF24
 7104 0168 02       		.byte	0x2
 7105 0169 10       		.byte	0x10
 7106 016a 3F010000 		.4byte	0x13f
ARM GAS  C:\Users\FRANKL~1\AppData\Local\Temp\ccjWonOy.s 			page 166


 7107 016e 01       		.byte	0x1
 7108 016f 00       		.byte	0
 7109 0170 0D       		.uleb128 0xd
 7110 0171 82030000 		.4byte	.LASF264
 7111 0175 FF       		.byte	0xff
 7112 0176 02       		.byte	0x2
 7113 0177 09       		.byte	0x9
 7114 0178 A1010000 		.4byte	0x1a1
 7115 017c 0C       		.uleb128 0xc
 7116 017d 93000000 		.4byte	.LASF25
 7117 0181 02       		.byte	0x2
 7118 0182 0D       		.byte	0xd
 7119 0183 1E010000 		.4byte	0x11e
 7120 0187 00       		.byte	0
 7121 0188 0C       		.uleb128 0xc
 7122 0189 EC070000 		.4byte	.LASF26
 7123 018d 02       		.byte	0x2
 7124 018e 11       		.byte	0x11
 7125 018f 4F010000 		.4byte	0x14f
 7126 0193 7F       		.byte	0x7f
 7127 0194 0C       		.uleb128 0xc
 7128 0195 EB0D0000 		.4byte	.LASF27
 7129 0199 02       		.byte	0x2
 7130 019a 12       		.byte	0x12
 7131 019b AE000000 		.4byte	0xae
 7132 019f FE       		.byte	0xfe
 7133 01a0 00       		.byte	0
 7134 01a1 0E       		.uleb128 0xe
 7135 01a2 77000000 		.4byte	.LASF265
 7136 01a6 01       		.byte	0x1
 7137 01a7 4F000000 		.4byte	0x4f
 7138 01ab 02       		.byte	0x2
 7139 01ac 2D       		.byte	0x2d
 7140 01ad E2010000 		.4byte	0x1e2
 7141 01b1 0F       		.uleb128 0xf
 7142 01b2 61020000 		.4byte	.LASF28
 7143 01b6 00       		.byte	0
 7144 01b7 0F       		.uleb128 0xf
 7145 01b8 32050000 		.4byte	.LASF29
 7146 01bc 01       		.byte	0x1
 7147 01bd 0F       		.uleb128 0xf
 7148 01be 78080000 		.4byte	.LASF30
 7149 01c2 02       		.byte	0x2
 7150 01c3 0F       		.uleb128 0xf
 7151 01c4 6B050000 		.4byte	.LASF31
 7152 01c8 03       		.byte	0x3
 7153 01c9 0F       		.uleb128 0xf
 7154 01ca 78040000 		.4byte	.LASF32
 7155 01ce 04       		.byte	0x4
 7156 01cf 0F       		.uleb128 0xf
 7157 01d0 BC050000 		.4byte	.LASF33
 7158 01d4 05       		.byte	0x5
 7159 01d5 0F       		.uleb128 0xf
 7160 01d6 110F0000 		.4byte	.LASF34
 7161 01da 06       		.byte	0x6
 7162 01db 0F       		.uleb128 0xf
 7163 01dc 3F030000 		.4byte	.LASF35
ARM GAS  C:\Users\FRANKL~1\AppData\Local\Temp\ccjWonOy.s 			page 167


 7164 01e0 07       		.byte	0x7
 7165 01e1 00       		.byte	0
 7166 01e2 10       		.uleb128 0x10
 7167 01e3 58080000 		.4byte	.LASF50
 7168 01e7 01       		.byte	0x1
 7169 01e8 10       		.byte	0x10
 7170 01e9 00000000 		.4byte	.LFB64
 7171 01ed 18000000 		.4byte	.LFE64-.LFB64
 7172 01f1 01       		.uleb128 0x1
 7173 01f2 9C       		.byte	0x9c
 7174 01f3 2B020000 		.4byte	0x22b
 7175 01f7 11       		.uleb128 0x11
 7176 01f8 5B000000 		.4byte	.LASF38
 7177 01fc 01       		.byte	0x1
 7178 01fd 11       		.byte	0x11
 7179 01fe 76000000 		.4byte	0x76
 7180 0202 00000000 		.4byte	.LLST0
 7181 0206 12       		.uleb128 0x12
 7182 0207 06000000 		.4byte	.LVL1
 7183 020b 7D350000 		.4byte	0x357d
 7184 020f 12       		.uleb128 0x12
 7185 0210 0C000000 		.4byte	.LVL2
 7186 0214 89350000 		.4byte	0x3589
 7187 0218 12       		.uleb128 0x12
 7188 0219 12000000 		.4byte	.LVL3
 7189 021d 95350000 		.4byte	0x3595
 7190 0221 12       		.uleb128 0x12
 7191 0222 16000000 		.4byte	.LVL4
 7192 0226 89350000 		.4byte	0x3589
 7193 022a 00       		.byte	0
 7194 022b 13       		.uleb128 0x13
 7195 022c 5D070000 		.4byte	.LASF36
 7196 0230 01       		.byte	0x1
 7197 0231 22       		.byte	0x22
 7198 0232 AE000000 		.4byte	0xae
 7199 0236 00000000 		.4byte	.LFB65
 7200 023a 1E000000 		.4byte	.LFE65-.LFB65
 7201 023e 01       		.uleb128 0x1
 7202 023f 9C       		.byte	0x9c
 7203 0240 60020000 		.4byte	0x260
 7204 0244 12       		.uleb128 0x12
 7205 0245 06000000 		.4byte	.LVL5
 7206 0249 E2010000 		.4byte	0x1e2
 7207 024d 12       		.uleb128 0x12
 7208 024e 0A000000 		.4byte	.LVL6
 7209 0252 89350000 		.4byte	0x3589
 7210 0256 12       		.uleb128 0x12
 7211 0257 10000000 		.4byte	.LVL7
 7212 025b A0350000 		.4byte	0x35a0
 7213 025f 00       		.byte	0
 7214 0260 14       		.uleb128 0x14
 7215 0261 260C0000 		.4byte	.LASF37
 7216 0265 02       		.byte	0x2
 7217 0266 C603     		.2byte	0x3c6
 7218 0268 00000000 		.4byte	.LFB119
 7219 026c B0010000 		.4byte	.LFE119-.LFB119
 7220 0270 01       		.uleb128 0x1
ARM GAS  C:\Users\FRANKL~1\AppData\Local\Temp\ccjWonOy.s 			page 168


 7221 0271 9C       		.byte	0x9c
 7222 0272 C1030000 		.4byte	0x3c1
 7223 0276 15       		.uleb128 0x15
 7224 0277 0C000000 		.4byte	.LBB2
 7225 027b 70000000 		.4byte	.LBE2-.LBB2
 7226 027f E8020000 		.4byte	0x2e8
 7227 0283 16       		.uleb128 0x16
 7228 0284 26050000 		.4byte	.LASF39
 7229 0288 02       		.byte	0x2
 7230 0289 CA03     		.2byte	0x3ca
 7231 028b C1030000 		.4byte	0x3c1
 7232 028f 03       		.uleb128 0x3
 7233 0290 91       		.byte	0x91
 7234 0291 B07F     		.sleb128 -80
 7235 0293 17       		.uleb128 0x17
 7236 0294 990B0000 		.4byte	.LASF40
 7237 0298 02       		.byte	0x2
 7238 0299 CB03     		.2byte	0x3cb
 7239 029b AE000000 		.4byte	0xae
 7240 029f 20000000 		.4byte	.LLST1
 7241 02a3 15       		.uleb128 0x15
 7242 02a4 14000000 		.4byte	.LBB3
 7243 02a8 68000000 		.4byte	.LBE3-.LBB3
 7244 02ac D7020000 		.4byte	0x2d7
 7245 02b0 18       		.uleb128 0x18
 7246 02b1 6900     		.ascii	"i\000"
 7247 02b3 02       		.byte	0x2
 7248 02b4 CD03     		.2byte	0x3cd
 7249 02b6 AE000000 		.4byte	0xae
 7250 02ba 33000000 		.4byte	.LLST2
 7251 02be 19       		.uleb128 0x19
 7252 02bf 18000000 		.4byte	.LBB4
 7253 02c3 5A000000 		.4byte	.LBE4-.LBB4
 7254 02c7 18       		.uleb128 0x18
 7255 02c8 6300     		.ascii	"c\000"
 7256 02ca 02       		.byte	0x2
 7257 02cb CE03     		.2byte	0x3ce
 7258 02cd 91000000 		.4byte	0x91
 7259 02d1 5D000000 		.4byte	.LLST3
 7260 02d5 00       		.byte	0
 7261 02d6 00       		.byte	0
 7262 02d7 1A       		.uleb128 0x1a
 7263 02d8 12000000 		.4byte	.LVL9
 7264 02dc AB350000 		.4byte	0x35ab
 7265 02e0 1B       		.uleb128 0x1b
 7266 02e1 01       		.uleb128 0x1
 7267 02e2 50       		.byte	0x50
 7268 02e3 02       		.uleb128 0x2
 7269 02e4 7D       		.byte	0x7d
 7270 02e5 00       		.sleb128 0
 7271 02e6 00       		.byte	0
 7272 02e7 00       		.byte	0
 7273 02e8 15       		.uleb128 0x15
 7274 02e9 FC000000 		.4byte	.LBB5
 7275 02ed 80000000 		.4byte	.LBE5-.LBB5
 7276 02f1 93030000 		.4byte	0x393
 7277 02f5 17       		.uleb128 0x17
ARM GAS  C:\Users\FRANKL~1\AppData\Local\Temp\ccjWonOy.s 			page 169


 7278 02f6 360A0000 		.4byte	.LASF41
 7279 02fa 02       		.byte	0x2
 7280 02fb EF03     		.2byte	0x3ef
 7281 02fd 8B000000 		.4byte	0x8b
 7282 0301 B1000000 		.4byte	.LLST4
 7283 0305 1C       		.uleb128 0x1c
 7284 0306 14010000 		.4byte	.LVL23
 7285 030a B6350000 		.4byte	0x35b6
 7286 030e 22030000 		.4byte	0x322
 7287 0312 1B       		.uleb128 0x1b
 7288 0313 01       		.uleb128 0x1
 7289 0314 50       		.byte	0x50
 7290 0315 02       		.uleb128 0x2
 7291 0316 74       		.byte	0x74
 7292 0317 00       		.sleb128 0
 7293 0318 1B       		.uleb128 0x1b
 7294 0319 01       		.uleb128 0x1
 7295 031a 51       		.byte	0x51
 7296 031b 05       		.uleb128 0x5
 7297 031c 03       		.byte	0x3
 7298 031d 00000000 		.4byte	.LC0
 7299 0321 00       		.byte	0
 7300 0322 1C       		.uleb128 0x1c
 7301 0323 2C010000 		.4byte	.LVL24
 7302 0327 B6350000 		.4byte	0x35b6
 7303 032b 3F030000 		.4byte	0x33f
 7304 032f 1B       		.uleb128 0x1b
 7305 0330 01       		.uleb128 0x1
 7306 0331 50       		.byte	0x50
 7307 0332 02       		.uleb128 0x2
 7308 0333 74       		.byte	0x74
 7309 0334 00       		.sleb128 0
 7310 0335 1B       		.uleb128 0x1b
 7311 0336 01       		.uleb128 0x1
 7312 0337 51       		.byte	0x51
 7313 0338 05       		.uleb128 0x5
 7314 0339 03       		.byte	0x3
 7315 033a 08000000 		.4byte	.LC1
 7316 033e 00       		.byte	0
 7317 033f 1C       		.uleb128 0x1c
 7318 0340 44010000 		.4byte	.LVL25
 7319 0344 B6350000 		.4byte	0x35b6
 7320 0348 5C030000 		.4byte	0x35c
 7321 034c 1B       		.uleb128 0x1b
 7322 034d 01       		.uleb128 0x1
 7323 034e 50       		.byte	0x50
 7324 034f 02       		.uleb128 0x2
 7325 0350 74       		.byte	0x74
 7326 0351 00       		.sleb128 0
 7327 0352 1B       		.uleb128 0x1b
 7328 0353 01       		.uleb128 0x1
 7329 0354 51       		.byte	0x51
 7330 0355 05       		.uleb128 0x5
 7331 0356 03       		.byte	0x3
 7332 0357 10000000 		.4byte	.LC2
 7333 035b 00       		.byte	0
 7334 035c 1C       		.uleb128 0x1c
ARM GAS  C:\Users\FRANKL~1\AppData\Local\Temp\ccjWonOy.s 			page 170


 7335 035d 5C010000 		.4byte	.LVL26
 7336 0361 B6350000 		.4byte	0x35b6
 7337 0365 79030000 		.4byte	0x379
 7338 0369 1B       		.uleb128 0x1b
 7339 036a 01       		.uleb128 0x1
 7340 036b 50       		.byte	0x50
 7341 036c 02       		.uleb128 0x2
 7342 036d 74       		.byte	0x74
 7343 036e 00       		.sleb128 0
 7344 036f 1B       		.uleb128 0x1b
 7345 0370 01       		.uleb128 0x1
 7346 0371 51       		.byte	0x51
 7347 0372 05       		.uleb128 0x5
 7348 0373 03       		.byte	0x3
 7349 0374 18000000 		.4byte	.LC3
 7350 0378 00       		.byte	0
 7351 0379 1A       		.uleb128 0x1a
 7352 037a 72010000 		.4byte	.LVL27
 7353 037e B6350000 		.4byte	0x35b6
 7354 0382 1B       		.uleb128 0x1b
 7355 0383 01       		.uleb128 0x1
 7356 0384 50       		.byte	0x50
 7357 0385 02       		.uleb128 0x2
 7358 0386 74       		.byte	0x74
 7359 0387 00       		.sleb128 0
 7360 0388 1B       		.uleb128 0x1b
 7361 0389 01       		.uleb128 0x1
 7362 038a 51       		.byte	0x51
 7363 038b 05       		.uleb128 0x5
 7364 038c 03       		.byte	0x3
 7365 038d 20000000 		.4byte	.LC4
 7366 0391 00       		.byte	0
 7367 0392 00       		.byte	0
 7368 0393 12       		.uleb128 0x12
 7369 0394 08000000 		.4byte	.LVL8
 7370 0398 2B020000 		.4byte	0x22b
 7371 039c 12       		.uleb128 0x12
 7372 039d 80000000 		.4byte	.LVL19
 7373 03a1 C1350000 		.4byte	0x35c1
 7374 03a5 12       		.uleb128 0x12
 7375 03a6 8E000000 		.4byte	.LVL20
 7376 03aa CC350000 		.4byte	0x35cc
 7377 03ae 12       		.uleb128 0x12
 7378 03af 80010000 		.4byte	.LVL29
 7379 03b3 D7350000 		.4byte	0x35d7
 7380 03b7 12       		.uleb128 0x12
 7381 03b8 84010000 		.4byte	.LVL30
 7382 03bc E2350000 		.4byte	0x35e2
 7383 03c0 00       		.byte	0
 7384 03c1 09       		.uleb128 0x9
 7385 03c2 91000000 		.4byte	0x91
 7386 03c6 D1030000 		.4byte	0x3d1
 7387 03ca 0A       		.uleb128 0xa
 7388 03cb 84000000 		.4byte	0x84
 7389 03cf 3F       		.byte	0x3f
 7390 03d0 00       		.byte	0
 7391 03d1 1D       		.uleb128 0x1d
ARM GAS  C:\Users\FRANKL~1\AppData\Local\Temp\ccjWonOy.s 			page 171


 7392 03d2 EA000000 		.4byte	.LASF44
 7393 03d6 01       		.byte	0x1
 7394 03d7 29       		.byte	0x29
 7395 03d8 AE000000 		.4byte	0xae
 7396 03dc 00000000 		.4byte	.LFB66
 7397 03e0 50000000 		.4byte	.LFE66-.LFB66
 7398 03e4 01       		.uleb128 0x1
 7399 03e5 9C       		.byte	0x9c
 7400 03e6 74040000 		.4byte	0x474
 7401 03ea 1E       		.uleb128 0x1e
 7402 03eb 0E050000 		.4byte	.LASF42
 7403 03ef 01       		.byte	0x1
 7404 03f0 29       		.byte	0x29
 7405 03f1 8B000000 		.4byte	0x8b
 7406 03f5 D4000000 		.4byte	.LLST5
 7407 03f9 1E       		.uleb128 0x1e
 7408 03fa E6070000 		.4byte	.LASF43
 7409 03fe 01       		.byte	0x1
 7410 03ff 29       		.byte	0x29
 7411 0400 BA000000 		.4byte	0xba
 7412 0404 16010000 		.4byte	.LLST6
 7413 0408 1F       		.uleb128 0x1f
 7414 0409 00000000 		.4byte	.Ldebug_ranges0+0
 7415 040d 33040000 		.4byte	0x433
 7416 0411 11       		.uleb128 0x11
 7417 0412 5B000000 		.4byte	.LASF38
 7418 0416 01       		.byte	0x1
 7419 0417 2C       		.byte	0x2c
 7420 0418 C6000000 		.4byte	0xc6
 7421 041c 50010000 		.4byte	.LLST7
 7422 0420 12       		.uleb128 0x12
 7423 0421 0C000000 		.4byte	.LVL34
 7424 0425 E2010000 		.4byte	0x1e2
 7425 0429 12       		.uleb128 0x12
 7426 042a 10000000 		.4byte	.LVL35
 7427 042e ED350000 		.4byte	0x35ed
 7428 0432 00       		.byte	0
 7429 0433 12       		.uleb128 0x12
 7430 0434 26000000 		.4byte	.LVL39
 7431 0438 ED350000 		.4byte	0x35ed
 7432 043c 1C       		.uleb128 0x1c
 7433 043d 32000000 		.4byte	.LVL40
 7434 0441 F8350000 		.4byte	0x35f8
 7435 0445 56040000 		.4byte	0x456
 7436 0449 1B       		.uleb128 0x1b
 7437 044a 01       		.uleb128 0x1
 7438 044b 50       		.byte	0x50
 7439 044c 02       		.uleb128 0x2
 7440 044d 76       		.byte	0x76
 7441 044e 00       		.sleb128 0
 7442 044f 1B       		.uleb128 0x1b
 7443 0450 01       		.uleb128 0x1
 7444 0451 51       		.byte	0x51
 7445 0452 02       		.uleb128 0x2
 7446 0453 75       		.byte	0x75
 7447 0454 00       		.sleb128 0
 7448 0455 00       		.byte	0
ARM GAS  C:\Users\FRANKL~1\AppData\Local\Temp\ccjWonOy.s 			page 172


 7449 0456 12       		.uleb128 0x12
 7450 0457 3A000000 		.4byte	.LVL41
 7451 045b ED350000 		.4byte	0x35ed
 7452 045f 1A       		.uleb128 0x1a
 7453 0460 46000000 		.4byte	.LVL42
 7454 0464 F8350000 		.4byte	0x35f8
 7455 0468 1B       		.uleb128 0x1b
 7456 0469 01       		.uleb128 0x1
 7457 046a 50       		.byte	0x50
 7458 046b 01       		.uleb128 0x1
 7459 046c 30       		.byte	0x30
 7460 046d 1B       		.uleb128 0x1b
 7461 046e 01       		.uleb128 0x1
 7462 046f 51       		.byte	0x51
 7463 0470 01       		.uleb128 0x1
 7464 0471 30       		.byte	0x30
 7465 0472 00       		.byte	0
 7466 0473 00       		.byte	0
 7467 0474 1D       		.uleb128 0x1d
 7468 0475 310D0000 		.4byte	.LASF45
 7469 0479 01       		.byte	0x1
 7470 047a 47       		.byte	0x47
 7471 047b AE000000 		.4byte	0xae
 7472 047f 00000000 		.4byte	.LFB67
 7473 0483 24000000 		.4byte	.LFE67-.LFB67
 7474 0487 01       		.uleb128 0x1
 7475 0488 9C       		.byte	0x9c
 7476 0489 CE040000 		.4byte	0x4ce
 7477 048d 1E       		.uleb128 0x1e
 7478 048e 0E050000 		.4byte	.LASF42
 7479 0492 01       		.byte	0x1
 7480 0493 47       		.byte	0x47
 7481 0494 8B000000 		.4byte	0x8b
 7482 0498 6E010000 		.4byte	.LLST8
 7483 049c 1E       		.uleb128 0x1e
 7484 049d E6070000 		.4byte	.LASF43
 7485 04a1 01       		.byte	0x1
 7486 04a2 47       		.byte	0x47
 7487 04a3 CE040000 		.4byte	0x4ce
 7488 04a7 8C010000 		.4byte	.LLST9
 7489 04ab 12       		.uleb128 0x12
 7490 04ac 0C000000 		.4byte	.LVL45
 7491 04b0 E2010000 		.4byte	0x1e2
 7492 04b4 12       		.uleb128 0x12
 7493 04b5 10000000 		.4byte	.LVL46
 7494 04b9 A0350000 		.4byte	0x35a0
 7495 04bd 1A       		.uleb128 0x1a
 7496 04be 1A000000 		.4byte	.LVL47
 7497 04c2 AB350000 		.4byte	0x35ab
 7498 04c6 1B       		.uleb128 0x1b
 7499 04c7 01       		.uleb128 0x1
 7500 04c8 50       		.byte	0x50
 7501 04c9 02       		.uleb128 0x2
 7502 04ca 74       		.byte	0x74
 7503 04cb 00       		.sleb128 0
 7504 04cc 00       		.byte	0
 7505 04cd 00       		.byte	0
ARM GAS  C:\Users\FRANKL~1\AppData\Local\Temp\ccjWonOy.s 			page 173


 7506 04ce 05       		.uleb128 0x5
 7507 04cf 04       		.byte	0x4
 7508 04d0 BA000000 		.4byte	0xba
 7509 04d4 13       		.uleb128 0x13
 7510 04d5 DC030000 		.4byte	.LASF46
 7511 04d9 01       		.byte	0x1
 7512 04da 53       		.byte	0x53
 7513 04db 91000000 		.4byte	0x91
 7514 04df 00000000 		.4byte	.LFB68
 7515 04e3 16000000 		.4byte	.LFE68-.LFB68
 7516 04e7 01       		.uleb128 0x1
 7517 04e8 9C       		.byte	0x9c
 7518 04e9 09050000 		.4byte	0x509
 7519 04ed 12       		.uleb128 0x12
 7520 04ee 08000000 		.4byte	.LVL48
 7521 04f2 E2010000 		.4byte	0x1e2
 7522 04f6 12       		.uleb128 0x12
 7523 04f7 0C000000 		.4byte	.LVL49
 7524 04fb A0350000 		.4byte	0x35a0
 7525 04ff 12       		.uleb128 0x12
 7526 0500 14000000 		.4byte	.LVL50
 7527 0504 03360000 		.4byte	0x3603
 7528 0508 00       		.byte	0
 7529 0509 1D       		.uleb128 0x1d
 7530 050a 4D090000 		.4byte	.LASF47
 7531 050e 01       		.byte	0x1
 7532 050f 59       		.byte	0x59
 7533 0510 AE000000 		.4byte	0xae
 7534 0514 00000000 		.4byte	.LFB69
 7535 0518 58000000 		.4byte	.LFE69-.LFB69
 7536 051c 01       		.uleb128 0x1
 7537 051d 9C       		.byte	0x9c
 7538 051e B5050000 		.4byte	0x5b5
 7539 0522 1E       		.uleb128 0x1e
 7540 0523 0E050000 		.4byte	.LASF42
 7541 0527 01       		.byte	0x1
 7542 0528 59       		.byte	0x59
 7543 0529 8B000000 		.4byte	0x8b
 7544 052d AA010000 		.4byte	.LLST10
 7545 0531 1E       		.uleb128 0x1e
 7546 0532 95050000 		.4byte	.LASF48
 7547 0536 01       		.byte	0x1
 7548 0537 59       		.byte	0x59
 7549 0538 BA000000 		.4byte	0xba
 7550 053c C8010000 		.4byte	.LLST11
 7551 0540 1E       		.uleb128 0x1e
 7552 0541 72070000 		.4byte	.LASF49
 7553 0545 01       		.byte	0x1
 7554 0546 59       		.byte	0x59
 7555 0547 98000000 		.4byte	0x98
 7556 054b E9010000 		.4byte	.LLST12
 7557 054f 15       		.uleb128 0x15
 7558 0550 0A000000 		.4byte	.LBB8
 7559 0554 14000000 		.4byte	.LBE8-.LBB8
 7560 0558 6A050000 		.4byte	0x56a
 7561 055c 20       		.uleb128 0x20
 7562 055d 6900     		.ascii	"i\000"
ARM GAS  C:\Users\FRANKL~1\AppData\Local\Temp\ccjWonOy.s 			page 174


 7563 055f 01       		.byte	0x1
 7564 0560 5A       		.byte	0x5a
 7565 0561 BA000000 		.4byte	0xba
 7566 0565 07020000 		.4byte	.LLST13
 7567 0569 00       		.byte	0
 7568 056a 19       		.uleb128 0x19
 7569 056b 1E000000 		.4byte	.LBB9
 7570 056f 34000000 		.4byte	.LBE9-.LBB9
 7571 0573 20       		.uleb128 0x20
 7572 0574 6900     		.ascii	"i\000"
 7573 0576 01       		.byte	0x1
 7574 0577 5E       		.byte	0x5e
 7575 0578 BA000000 		.4byte	0xba
 7576 057c 31020000 		.4byte	.LLST14
 7577 0580 12       		.uleb128 0x12
 7578 0581 22000000 		.4byte	.LVL57
 7579 0585 D4040000 		.4byte	0x4d4
 7580 0589 1C       		.uleb128 0x1c
 7581 058a 32000000 		.4byte	.LVL58
 7582 058e B6350000 		.4byte	0x35b6
 7583 0592 A3050000 		.4byte	0x5a3
 7584 0596 1B       		.uleb128 0x1b
 7585 0597 01       		.uleb128 0x1
 7586 0598 50       		.byte	0x50
 7587 0599 02       		.uleb128 0x2
 7588 059a 75       		.byte	0x75
 7589 059b 00       		.sleb128 0
 7590 059c 1B       		.uleb128 0x1b
 7591 059d 01       		.uleb128 0x1
 7592 059e 51       		.byte	0x51
 7593 059f 02       		.uleb128 0x2
 7594 05a0 77       		.byte	0x77
 7595 05a1 00       		.sleb128 0
 7596 05a2 00       		.byte	0
 7597 05a3 1A       		.uleb128 0x1a
 7598 05a4 3A000000 		.4byte	.LVL59
 7599 05a8 0E360000 		.4byte	0x360e
 7600 05ac 1B       		.uleb128 0x1b
 7601 05ad 01       		.uleb128 0x1
 7602 05ae 50       		.byte	0x50
 7603 05af 02       		.uleb128 0x2
 7604 05b0 77       		.byte	0x77
 7605 05b1 00       		.sleb128 0
 7606 05b2 00       		.byte	0
 7607 05b3 00       		.byte	0
 7608 05b4 00       		.byte	0
 7609 05b5 10       		.uleb128 0x10
 7610 05b6 3C060000 		.4byte	.LASF51
 7611 05ba 02       		.byte	0x2
 7612 05bb 3D       		.byte	0x3d
 7613 05bc 00000000 		.4byte	.LFB70
 7614 05c0 30000000 		.4byte	.LFE70-.LFB70
 7615 05c4 01       		.uleb128 0x1
 7616 05c5 9C       		.byte	0x9c
 7617 05c6 06060000 		.4byte	0x606
 7618 05ca 1C       		.uleb128 0x1c
 7619 05cb 10000000 		.4byte	.LVL63
ARM GAS  C:\Users\FRANKL~1\AppData\Local\Temp\ccjWonOy.s 			page 175


 7620 05cf 0E360000 		.4byte	0x360e
 7621 05d3 DE050000 		.4byte	0x5de
 7622 05d7 1B       		.uleb128 0x1b
 7623 05d8 01       		.uleb128 0x1
 7624 05d9 50       		.byte	0x50
 7625 05da 02       		.uleb128 0x2
 7626 05db 74       		.byte	0x74
 7627 05dc 00       		.sleb128 0
 7628 05dd 00       		.byte	0
 7629 05de 1C       		.uleb128 0x1c
 7630 05df 18000000 		.4byte	.LVL64
 7631 05e3 D1030000 		.4byte	0x3d1
 7632 05e7 F2050000 		.4byte	0x5f2
 7633 05eb 1B       		.uleb128 0x1b
 7634 05ec 01       		.uleb128 0x1
 7635 05ed 50       		.byte	0x50
 7636 05ee 02       		.uleb128 0x2
 7637 05ef 74       		.byte	0x74
 7638 05f0 00       		.sleb128 0
 7639 05f1 00       		.byte	0
 7640 05f2 1A       		.uleb128 0x1a
 7641 05f3 24000000 		.4byte	.LVL65
 7642 05f7 19360000 		.4byte	0x3619
 7643 05fb 1B       		.uleb128 0x1b
 7644 05fc 01       		.uleb128 0x1
 7645 05fd 50       		.byte	0x50
 7646 05fe 05       		.uleb128 0x5
 7647 05ff 03       		.byte	0x3
 7648 0600 00000000 		.4byte	TransmitBuffer
 7649 0604 00       		.byte	0
 7650 0605 00       		.byte	0
 7651 0606 21       		.uleb128 0x21
 7652 0607 5C030000 		.4byte	.LASF52
 7653 060b 02       		.byte	0x2
 7654 060c 42       		.byte	0x42
 7655 060d 00000000 		.4byte	.LFB71
 7656 0611 32000000 		.4byte	.LFE71-.LFB71
 7657 0615 01       		.uleb128 0x1
 7658 0616 9C       		.byte	0x9c
 7659 0617 5B060000 		.4byte	0x65b
 7660 061b 22       		.uleb128 0x22
 7661 061c 600F0000 		.4byte	.LASF53
 7662 0620 02       		.byte	0x2
 7663 0621 42       		.byte	0x42
 7664 0622 5B060000 		.4byte	0x65b
 7665 0626 01       		.uleb128 0x1
 7666 0627 50       		.byte	0x50
 7667 0628 15       		.uleb128 0x15
 7668 0629 0A000000 		.4byte	.LBB10
 7669 062d 16000000 		.4byte	.LBE10-.LBB10
 7670 0631 43060000 		.4byte	0x643
 7671 0635 20       		.uleb128 0x20
 7672 0636 6900     		.ascii	"i\000"
 7673 0638 02       		.byte	0x2
 7674 0639 46       		.byte	0x46
 7675 063a BA000000 		.4byte	0xba
 7676 063e 4F020000 		.4byte	.LLST15
ARM GAS  C:\Users\FRANKL~1\AppData\Local\Temp\ccjWonOy.s 			page 176


 7677 0642 00       		.byte	0
 7678 0643 19       		.uleb128 0x19
 7679 0644 20000000 		.4byte	.LBB11
 7680 0648 10000000 		.4byte	.LBE11-.LBB11
 7681 064c 20       		.uleb128 0x20
 7682 064d 6900     		.ascii	"i\000"
 7683 064f 02       		.byte	0x2
 7684 0650 49       		.byte	0x49
 7685 0651 BA000000 		.4byte	0xba
 7686 0655 79020000 		.4byte	.LLST16
 7687 0659 00       		.byte	0
 7688 065a 00       		.byte	0
 7689 065b 05       		.uleb128 0x5
 7690 065c 04       		.byte	0x4
 7691 065d 70010000 		.4byte	0x170
 7692 0661 23       		.uleb128 0x23
 7693 0662 510C0000 		.4byte	.LASF54
 7694 0666 02       		.byte	0x2
 7695 0667 4E       		.byte	0x4e
 7696 0668 00000000 		.4byte	.LFB72
 7697 066c 28010000 		.4byte	.LFE72-.LFB72
 7698 0670 01       		.uleb128 0x1
 7699 0671 9C       		.byte	0x9c
 7700 0672 87070000 		.4byte	0x787
 7701 0676 1E       		.uleb128 0x1e
 7702 0677 B3070000 		.4byte	.LASF55
 7703 067b 02       		.byte	0x2
 7704 067c 4E       		.byte	0x4e
 7705 067d AE000000 		.4byte	0xae
 7706 0681 97020000 		.4byte	.LLST17
 7707 0685 11       		.uleb128 0x11
 7708 0686 600F0000 		.4byte	.LASF53
 7709 068a 02       		.byte	0x2
 7710 068b 52       		.byte	0x52
 7711 068c 5B060000 		.4byte	0x65b
 7712 0690 B8020000 		.4byte	.LLST18
 7713 0694 15       		.uleb128 0x15
 7714 0695 32000000 		.4byte	.LBB12
 7715 0699 64000000 		.4byte	.LBE12-.LBB12
 7716 069d D3060000 		.4byte	0x6d3
 7717 06a1 20       		.uleb128 0x20
 7718 06a2 6900     		.ascii	"i\000"
 7719 06a4 02       		.byte	0x2
 7720 06a5 56       		.byte	0x56
 7721 06a6 C6000000 		.4byte	0xc6
 7722 06aa EC020000 		.4byte	.LLST19
 7723 06ae 12       		.uleb128 0x12
 7724 06af 3A000000 		.4byte	.LVL83
 7725 06b3 24360000 		.4byte	0x3624
 7726 06b7 12       		.uleb128 0x12
 7727 06b8 74000000 		.4byte	.LVL85
 7728 06bc B5050000 		.4byte	0x5b5
 7729 06c0 12       		.uleb128 0x12
 7730 06c1 78000000 		.4byte	.LVL86
 7731 06c5 2F360000 		.4byte	0x362f
 7732 06c9 12       		.uleb128 0x12
 7733 06ca 7C000000 		.4byte	.LVL87
ARM GAS  C:\Users\FRANKL~1\AppData\Local\Temp\ccjWonOy.s 			page 177


 7734 06ce 3A360000 		.4byte	0x363a
 7735 06d2 00       		.byte	0
 7736 06d3 1C       		.uleb128 0x1c
 7737 06d4 14000000 		.4byte	.LVL77
 7738 06d8 45360000 		.4byte	0x3645
 7739 06dc F9060000 		.4byte	0x6f9
 7740 06e0 1B       		.uleb128 0x1b
 7741 06e1 01       		.uleb128 0x1
 7742 06e2 50       		.byte	0x50
 7743 06e3 05       		.uleb128 0x5
 7744 06e4 03       		.byte	0x3
 7745 06e5 00000000 		.4byte	TransmitBuffer
 7746 06e9 1B       		.uleb128 0x1b
 7747 06ea 01       		.uleb128 0x1
 7748 06eb 51       		.byte	0x51
 7749 06ec 05       		.uleb128 0x5
 7750 06ed 03       		.byte	0x3
 7751 06ee 2C000000 		.4byte	.LC5
 7752 06f2 1B       		.uleb128 0x1b
 7753 06f3 01       		.uleb128 0x1
 7754 06f4 52       		.byte	0x52
 7755 06f5 02       		.uleb128 0x2
 7756 06f6 78       		.byte	0x78
 7757 06f7 00       		.sleb128 0
 7758 06f8 00       		.byte	0
 7759 06f9 12       		.uleb128 0x12
 7760 06fa 18000000 		.4byte	.LVL78
 7761 06fe B5050000 		.4byte	0x5b5
 7762 0702 12       		.uleb128 0x12
 7763 0703 1C000000 		.4byte	.LVL79
 7764 0707 50360000 		.4byte	0x3650
 7765 070b 1C       		.uleb128 0x1c
 7766 070c 32000000 		.4byte	.LVL81
 7767 0710 5B360000 		.4byte	0x365b
 7768 0714 2A070000 		.4byte	0x72a
 7769 0718 1B       		.uleb128 0x1b
 7770 0719 01       		.uleb128 0x1
 7771 071a 51       		.byte	0x51
 7772 071b 02       		.uleb128 0x2
 7773 071c 74       		.byte	0x74
 7774 071d 00       		.sleb128 0
 7775 071e 1B       		.uleb128 0x1b
 7776 071f 01       		.uleb128 0x1
 7777 0720 52       		.byte	0x52
 7778 0721 02       		.uleb128 0x2
 7779 0722 08       		.byte	0x8
 7780 0723 7F       		.byte	0x7f
 7781 0724 1B       		.uleb128 0x1b
 7782 0725 01       		.uleb128 0x1
 7783 0726 53       		.byte	0x53
 7784 0727 01       		.uleb128 0x1
 7785 0728 30       		.byte	0x30
 7786 0729 00       		.byte	0
 7787 072a 12       		.uleb128 0x12
 7788 072b 9A000000 		.4byte	.LVL91
 7789 072f 24360000 		.4byte	0x3624
 7790 0733 12       		.uleb128 0x12
ARM GAS  C:\Users\FRANKL~1\AppData\Local\Temp\ccjWonOy.s 			page 178


 7791 0734 BA000000 		.4byte	.LVL93
 7792 0738 B5050000 		.4byte	0x5b5
 7793 073c 12       		.uleb128 0x12
 7794 073d BE000000 		.4byte	.LVL94
 7795 0741 24360000 		.4byte	0x3624
 7796 0745 12       		.uleb128 0x12
 7797 0746 D4000000 		.4byte	.LVL95
 7798 074a B5050000 		.4byte	0x5b5
 7799 074e 12       		.uleb128 0x12
 7800 074f E4000000 		.4byte	.LVL96
 7801 0753 B5050000 		.4byte	0x5b5
 7802 0757 1C       		.uleb128 0x1c
 7803 0758 EE000000 		.4byte	.LVL97
 7804 075c 45360000 		.4byte	0x3645
 7805 0760 7D070000 		.4byte	0x77d
 7806 0764 1B       		.uleb128 0x1b
 7807 0765 01       		.uleb128 0x1
 7808 0766 50       		.byte	0x50
 7809 0767 05       		.uleb128 0x5
 7810 0768 03       		.byte	0x3
 7811 0769 00000000 		.4byte	TransmitBuffer
 7812 076d 1B       		.uleb128 0x1b
 7813 076e 01       		.uleb128 0x1
 7814 076f 51       		.byte	0x51
 7815 0770 05       		.uleb128 0x5
 7816 0771 03       		.byte	0x3
 7817 0772 90000000 		.4byte	.LC10
 7818 0776 1B       		.uleb128 0x1b
 7819 0777 01       		.uleb128 0x1
 7820 0778 52       		.byte	0x52
 7821 0779 02       		.uleb128 0x2
 7822 077a 78       		.byte	0x78
 7823 077b 00       		.sleb128 0
 7824 077c 00       		.byte	0
 7825 077d 12       		.uleb128 0x12
 7826 077e F2000000 		.4byte	.LVL98
 7827 0782 B5050000 		.4byte	0x5b5
 7828 0786 00       		.byte	0
 7829 0787 10       		.uleb128 0x10
 7830 0788 2F030000 		.4byte	.LASF56
 7831 078c 02       		.byte	0x2
 7832 078d 7C       		.byte	0x7c
 7833 078e 00000000 		.4byte	.LFB73
 7834 0792 3C000000 		.4byte	.LFE73-.LFB73
 7835 0796 01       		.uleb128 0x1
 7836 0797 9C       		.byte	0x9c
 7837 0798 CF070000 		.4byte	0x7cf
 7838 079c 19       		.uleb128 0x19
 7839 079d 02000000 		.4byte	.LBB13
 7840 07a1 18000000 		.4byte	.LBE13-.LBB13
 7841 07a5 20       		.uleb128 0x20
 7842 07a6 6900     		.ascii	"i\000"
 7843 07a8 02       		.byte	0x2
 7844 07a9 7D       		.byte	0x7d
 7845 07aa AE000000 		.4byte	0xae
 7846 07ae 0B030000 		.4byte	.LLST20
 7847 07b2 1A       		.uleb128 0x1a
ARM GAS  C:\Users\FRANKL~1\AppData\Local\Temp\ccjWonOy.s 			page 179


 7848 07b3 12000000 		.4byte	.LVL102
 7849 07b7 06060000 		.4byte	0x606
 7850 07bb 1B       		.uleb128 0x1b
 7851 07bc 01       		.uleb128 0x1
 7852 07bd 50       		.byte	0x50
 7853 07be 0D       		.uleb128 0xd
 7854 07bf 74       		.byte	0x74
 7855 07c0 00       		.sleb128 0
 7856 07c1 38       		.byte	0x38
 7857 07c2 24       		.byte	0x24
 7858 07c3 74       		.byte	0x74
 7859 07c4 00       		.sleb128 0
 7860 07c5 1C       		.byte	0x1c
 7861 07c6 03       		.byte	0x3
 7862 07c7 00000000 		.4byte	selectors
 7863 07cb 22       		.byte	0x22
 7864 07cc 00       		.byte	0
 7865 07cd 00       		.byte	0
 7866 07ce 00       		.byte	0
 7867 07cf 21       		.uleb128 0x21
 7868 07d0 F10E0000 		.4byte	.LASF57
 7869 07d4 02       		.byte	0x2
 7870 07d5 85       		.byte	0x85
 7871 07d6 00000000 		.4byte	.LFB74
 7872 07da 2C000000 		.4byte	.LFE74-.LFB74
 7873 07de 01       		.uleb128 0x1
 7874 07df 9C       		.byte	0x9c
 7875 07e0 0C080000 		.4byte	0x80c
 7876 07e4 1E       		.uleb128 0x1e
 7877 07e5 18060000 		.4byte	.LASF58
 7878 07e9 02       		.byte	0x2
 7879 07ea 85       		.byte	0x85
 7880 07eb AE000000 		.4byte	0xae
 7881 07ef 35030000 		.4byte	.LLST21
 7882 07f3 1E       		.uleb128 0x1e
 7883 07f4 00000000 		.4byte	.LASF59
 7884 07f8 02       		.byte	0x2
 7885 07f9 85       		.byte	0x85
 7886 07fa AE000000 		.4byte	0xae
 7887 07fe 61030000 		.4byte	.LLST22
 7888 0802 12       		.uleb128 0x12
 7889 0803 24000000 		.4byte	.LVL111
 7890 0807 61060000 		.4byte	0x661
 7891 080b 00       		.byte	0
 7892 080c 21       		.uleb128 0x21
 7893 080d AF040000 		.4byte	.LASF60
 7894 0811 02       		.byte	0x2
 7895 0812 90       		.byte	0x90
 7896 0813 00000000 		.4byte	.LFB75
 7897 0817 2C000000 		.4byte	.LFE75-.LFB75
 7898 081b 01       		.uleb128 0x1
 7899 081c 9C       		.byte	0x9c
 7900 081d 49080000 		.4byte	0x849
 7901 0821 1E       		.uleb128 0x1e
 7902 0822 18060000 		.4byte	.LASF58
 7903 0826 02       		.byte	0x2
 7904 0827 90       		.byte	0x90
ARM GAS  C:\Users\FRANKL~1\AppData\Local\Temp\ccjWonOy.s 			page 180


 7905 0828 AE000000 		.4byte	0xae
 7906 082c 91030000 		.4byte	.LLST23
 7907 0830 1E       		.uleb128 0x1e
 7908 0831 00000000 		.4byte	.LASF59
 7909 0835 02       		.byte	0x2
 7910 0836 90       		.byte	0x90
 7911 0837 AE000000 		.4byte	0xae
 7912 083b BD030000 		.4byte	.LLST24
 7913 083f 12       		.uleb128 0x12
 7914 0840 24000000 		.4byte	.LVL117
 7915 0844 61060000 		.4byte	0x661
 7916 0848 00       		.byte	0
 7917 0849 21       		.uleb128 0x21
 7918 084a 740D0000 		.4byte	.LASF61
 7919 084e 02       		.byte	0x2
 7920 084f 9B       		.byte	0x9b
 7921 0850 00000000 		.4byte	.LFB76
 7922 0854 32000000 		.4byte	.LFE76-.LFB76
 7923 0858 01       		.uleb128 0x1
 7924 0859 9C       		.byte	0x9c
 7925 085a 95080000 		.4byte	0x895
 7926 085e 1E       		.uleb128 0x1e
 7927 085f 690B0000 		.4byte	.LASF62
 7928 0863 02       		.byte	0x2
 7929 0864 9B       		.byte	0x9b
 7930 0865 AE000000 		.4byte	0xae
 7931 0869 ED030000 		.4byte	.LLST25
 7932 086d 1E       		.uleb128 0x1e
 7933 086e 00000000 		.4byte	.LASF59
 7934 0872 02       		.byte	0x2
 7935 0873 9B       		.byte	0x9b
 7936 0874 AE000000 		.4byte	0xae
 7937 0878 24040000 		.4byte	.LLST26
 7938 087c 11       		.uleb128 0x11
 7939 087d 70090000 		.4byte	.LASF63
 7940 0881 02       		.byte	0x2
 7941 0882 A2       		.byte	0xa2
 7942 0883 AE000000 		.4byte	0xae
 7943 0887 61040000 		.4byte	.LLST27
 7944 088b 12       		.uleb128 0x12
 7945 088c 2E000000 		.4byte	.LVL126
 7946 0890 CF070000 		.4byte	0x7cf
 7947 0894 00       		.byte	0
 7948 0895 21       		.uleb128 0x21
 7949 0896 DD0A0000 		.4byte	.LASF64
 7950 089a 02       		.byte	0x2
 7951 089b AD       		.byte	0xad
 7952 089c 00000000 		.4byte	.LFB77
 7953 08a0 40000000 		.4byte	.LFE77-.LFB77
 7954 08a4 01       		.uleb128 0x1
 7955 08a5 9C       		.byte	0x9c
 7956 08a6 E1080000 		.4byte	0x8e1
 7957 08aa 1E       		.uleb128 0x1e
 7958 08ab 690B0000 		.4byte	.LASF62
 7959 08af 02       		.byte	0x2
 7960 08b0 AD       		.byte	0xad
 7961 08b1 AE000000 		.4byte	0xae
ARM GAS  C:\Users\FRANKL~1\AppData\Local\Temp\ccjWonOy.s 			page 181


 7962 08b5 99040000 		.4byte	.LLST28
 7963 08b9 1E       		.uleb128 0x1e
 7964 08ba 00000000 		.4byte	.LASF59
 7965 08be 02       		.byte	0x2
 7966 08bf AD       		.byte	0xad
 7967 08c0 AE000000 		.4byte	0xae
 7968 08c4 C5040000 		.4byte	.LLST29
 7969 08c8 11       		.uleb128 0x11
 7970 08c9 70090000 		.4byte	.LASF63
 7971 08cd 02       		.byte	0x2
 7972 08ce B4       		.byte	0xb4
 7973 08cf AE000000 		.4byte	0xae
 7974 08d3 F5040000 		.4byte	.LLST30
 7975 08d7 12       		.uleb128 0x12
 7976 08d8 38000000 		.4byte	.LVL138
 7977 08dc 61060000 		.4byte	0x661
 7978 08e0 00       		.byte	0
 7979 08e1 21       		.uleb128 0x21
 7980 08e2 7D080000 		.4byte	.LASF65
 7981 08e6 02       		.byte	0x2
 7982 08e7 C1       		.byte	0xc1
 7983 08e8 00000000 		.4byte	.LFB78
 7984 08ec 40000000 		.4byte	.LFE78-.LFB78
 7985 08f0 01       		.uleb128 0x1
 7986 08f1 9C       		.byte	0x9c
 7987 08f2 48090000 		.4byte	0x948
 7988 08f6 1E       		.uleb128 0x1e
 7989 08f7 690B0000 		.4byte	.LASF62
 7990 08fb 02       		.byte	0x2
 7991 08fc C1       		.byte	0xc1
 7992 08fd AE000000 		.4byte	0xae
 7993 0901 2D050000 		.4byte	.LLST31
 7994 0905 19       		.uleb128 0x19
 7995 0906 06000000 		.4byte	.LBB14
 7996 090a 34000000 		.4byte	.LBE14-.LBB14
 7997 090e 11       		.uleb128 0x11
 7998 090f 00000000 		.4byte	.LASF59
 7999 0913 02       		.byte	0x2
 8000 0914 C4       		.byte	0xc4
 8001 0915 AE000000 		.4byte	0xae
 8002 0919 59050000 		.4byte	.LLST32
 8003 091d 19       		.uleb128 0x19
 8004 091e 0A000000 		.4byte	.LBB15
 8005 0922 28000000 		.4byte	.LBE15-.LBB15
 8006 0926 11       		.uleb128 0x11
 8007 0927 70090000 		.4byte	.LASF63
 8008 092b 02       		.byte	0x2
 8009 092c C6       		.byte	0xc6
 8010 092d AE000000 		.4byte	0xae
 8011 0931 83050000 		.4byte	.LLST33
 8012 0935 1A       		.uleb128 0x1a
 8013 0936 32000000 		.4byte	.LVL147
 8014 093a 61060000 		.4byte	0x661
 8015 093e 1B       		.uleb128 0x1b
 8016 093f 01       		.uleb128 0x1
 8017 0940 50       		.byte	0x50
 8018 0941 02       		.uleb128 0x2
ARM GAS  C:\Users\FRANKL~1\AppData\Local\Temp\ccjWonOy.s 			page 182


 8019 0942 74       		.byte	0x74
 8020 0943 00       		.sleb128 0
 8021 0944 00       		.byte	0
 8022 0945 00       		.byte	0
 8023 0946 00       		.byte	0
 8024 0947 00       		.byte	0
 8025 0948 10       		.uleb128 0x10
 8026 0949 A1010000 		.4byte	.LASF66
 8027 094d 02       		.byte	0x2
 8028 094e D4       		.byte	0xd4
 8029 094f 00000000 		.4byte	.LFB79
 8030 0953 34000000 		.4byte	.LFE79-.LFB79
 8031 0957 01       		.uleb128 0x1
 8032 0958 9C       		.byte	0x9c
 8033 0959 A0090000 		.4byte	0x9a0
 8034 095d 19       		.uleb128 0x19
 8035 095e 02000000 		.4byte	.LBB16
 8036 0962 2C000000 		.4byte	.LBE16-.LBB16
 8037 0966 11       		.uleb128 0x11
 8038 0967 00000000 		.4byte	.LASF59
 8039 096b 02       		.byte	0x2
 8040 096c D5       		.byte	0xd5
 8041 096d AE000000 		.4byte	0xae
 8042 0971 BB050000 		.4byte	.LLST34
 8043 0975 1F       		.uleb128 0x1f
 8044 0976 18000000 		.4byte	.Ldebug_ranges0+0x18
 8045 097a 8E090000 		.4byte	0x98e
 8046 097e 11       		.uleb128 0x11
 8047 097f 690B0000 		.4byte	.LASF62
 8048 0983 02       		.byte	0x2
 8049 0984 D6       		.byte	0xd6
 8050 0985 AE000000 		.4byte	0xae
 8051 0989 E5050000 		.4byte	.LLST35
 8052 098d 00       		.byte	0
 8053 098e 1A       		.uleb128 0x1a
 8054 098f 26000000 		.4byte	.LVL157
 8055 0993 61060000 		.4byte	0x661
 8056 0997 1B       		.uleb128 0x1b
 8057 0998 01       		.uleb128 0x1
 8058 0999 50       		.byte	0x50
 8059 099a 02       		.uleb128 0x2
 8060 099b 74       		.byte	0x74
 8061 099c 00       		.sleb128 0
 8062 099d 00       		.byte	0
 8063 099e 00       		.byte	0
 8064 099f 00       		.byte	0
 8065 09a0 21       		.uleb128 0x21
 8066 09a1 93090000 		.4byte	.LASF67
 8067 09a5 02       		.byte	0x2
 8068 09a6 DE       		.byte	0xde
 8069 09a7 00000000 		.4byte	.LFB80
 8070 09ab 2C000000 		.4byte	.LFE80-.LFB80
 8071 09af 01       		.uleb128 0x1
 8072 09b0 9C       		.byte	0x9c
 8073 09b1 EB090000 		.4byte	0x9eb
 8074 09b5 1E       		.uleb128 0x1e
 8075 09b6 00000000 		.4byte	.LASF59
ARM GAS  C:\Users\FRANKL~1\AppData\Local\Temp\ccjWonOy.s 			page 183


 8076 09ba 02       		.byte	0x2
 8077 09bb DE       		.byte	0xde
 8078 09bc AE000000 		.4byte	0xae
 8079 09c0 0E060000 		.4byte	.LLST36
 8080 09c4 15       		.uleb128 0x15
 8081 09c5 06000000 		.4byte	.LBB19
 8082 09c9 1A000000 		.4byte	.LBE19-.LBB19
 8083 09cd E1090000 		.4byte	0x9e1
 8084 09d1 11       		.uleb128 0x11
 8085 09d2 690B0000 		.4byte	.LASF62
 8086 09d6 02       		.byte	0x2
 8087 09d7 E1       		.byte	0xe1
 8088 09d8 AE000000 		.4byte	0xae
 8089 09dc 3A060000 		.4byte	.LLST37
 8090 09e0 00       		.byte	0
 8091 09e1 12       		.uleb128 0x12
 8092 09e2 24000000 		.4byte	.LVL167
 8093 09e6 61060000 		.4byte	0x661
 8094 09ea 00       		.byte	0
 8095 09eb 21       		.uleb128 0x21
 8096 09ec A3000000 		.4byte	.LASF68
 8097 09f0 02       		.byte	0x2
 8098 09f1 E8       		.byte	0xe8
 8099 09f2 00000000 		.4byte	.LFB81
 8100 09f6 38000000 		.4byte	.LFE81-.LFB81
 8101 09fa 01       		.uleb128 0x1
 8102 09fb 9C       		.byte	0x9c
 8103 09fc 700A0000 		.4byte	0xa70
 8104 0a00 1E       		.uleb128 0x1e
 8105 0a01 00000000 		.4byte	.LASF59
 8106 0a05 02       		.byte	0x2
 8107 0a06 E8       		.byte	0xe8
 8108 0a07 AE000000 		.4byte	0xae
 8109 0a0b 64060000 		.4byte	.LLST38
 8110 0a0f 1C       		.uleb128 0x1c
 8111 0a10 18000000 		.4byte	.LVL170
 8112 0a14 CF070000 		.4byte	0x7cf
 8113 0a18 280A0000 		.4byte	0xa28
 8114 0a1c 1B       		.uleb128 0x1b
 8115 0a1d 01       		.uleb128 0x1
 8116 0a1e 50       		.byte	0x50
 8117 0a1f 02       		.uleb128 0x2
 8118 0a20 08       		.byte	0x8
 8119 0a21 21       		.byte	0x21
 8120 0a22 1B       		.uleb128 0x1b
 8121 0a23 01       		.uleb128 0x1
 8122 0a24 51       		.byte	0x51
 8123 0a25 01       		.uleb128 0x1
 8124 0a26 31       		.byte	0x31
 8125 0a27 00       		.byte	0
 8126 0a28 1C       		.uleb128 0x1c
 8127 0a29 22000000 		.4byte	.LVL171
 8128 0a2d CF070000 		.4byte	0x7cf
 8129 0a31 410A0000 		.4byte	0xa41
 8130 0a35 1B       		.uleb128 0x1b
 8131 0a36 01       		.uleb128 0x1
 8132 0a37 50       		.byte	0x50
ARM GAS  C:\Users\FRANKL~1\AppData\Local\Temp\ccjWonOy.s 			page 184


 8133 0a38 02       		.uleb128 0x2
 8134 0a39 08       		.byte	0x8
 8135 0a3a 21       		.byte	0x21
 8136 0a3b 1B       		.uleb128 0x1b
 8137 0a3c 01       		.uleb128 0x1
 8138 0a3d 51       		.byte	0x51
 8139 0a3e 01       		.uleb128 0x1
 8140 0a3f 32       		.byte	0x32
 8141 0a40 00       		.byte	0
 8142 0a41 1C       		.uleb128 0x1c
 8143 0a42 2C000000 		.4byte	.LVL172
 8144 0a46 CF070000 		.4byte	0x7cf
 8145 0a4a 5A0A0000 		.4byte	0xa5a
 8146 0a4e 1B       		.uleb128 0x1b
 8147 0a4f 01       		.uleb128 0x1
 8148 0a50 50       		.byte	0x50
 8149 0a51 02       		.uleb128 0x2
 8150 0a52 08       		.byte	0x8
 8151 0a53 21       		.byte	0x21
 8152 0a54 1B       		.uleb128 0x1b
 8153 0a55 01       		.uleb128 0x1
 8154 0a56 51       		.byte	0x51
 8155 0a57 01       		.uleb128 0x1
 8156 0a58 33       		.byte	0x33
 8157 0a59 00       		.byte	0
 8158 0a5a 1A       		.uleb128 0x1a
 8159 0a5b 36000000 		.4byte	.LVL173
 8160 0a5f CF070000 		.4byte	0x7cf
 8161 0a63 1B       		.uleb128 0x1b
 8162 0a64 01       		.uleb128 0x1
 8163 0a65 50       		.byte	0x50
 8164 0a66 02       		.uleb128 0x2
 8165 0a67 08       		.byte	0x8
 8166 0a68 21       		.byte	0x21
 8167 0a69 1B       		.uleb128 0x1b
 8168 0a6a 01       		.uleb128 0x1
 8169 0a6b 51       		.byte	0x51
 8170 0a6c 01       		.uleb128 0x1
 8171 0a6d 34       		.byte	0x34
 8172 0a6e 00       		.byte	0
 8173 0a6f 00       		.byte	0
 8174 0a70 21       		.uleb128 0x21
 8175 0a71 00060000 		.4byte	.LASF69
 8176 0a75 02       		.byte	0x2
 8177 0a76 F2       		.byte	0xf2
 8178 0a77 00000000 		.4byte	.LFB82
 8179 0a7b 38000000 		.4byte	.LFE82-.LFB82
 8180 0a7f 01       		.uleb128 0x1
 8181 0a80 9C       		.byte	0x9c
 8182 0a81 F50A0000 		.4byte	0xaf5
 8183 0a85 1E       		.uleb128 0x1e
 8184 0a86 00000000 		.4byte	.LASF59
 8185 0a8a 02       		.byte	0x2
 8186 0a8b F2       		.byte	0xf2
 8187 0a8c AE000000 		.4byte	0xae
 8188 0a90 85060000 		.4byte	.LLST39
 8189 0a94 1C       		.uleb128 0x1c
ARM GAS  C:\Users\FRANKL~1\AppData\Local\Temp\ccjWonOy.s 			page 185


 8190 0a95 18000000 		.4byte	.LVL176
 8191 0a99 0C080000 		.4byte	0x80c
 8192 0a9d AD0A0000 		.4byte	0xaad
 8193 0aa1 1B       		.uleb128 0x1b
 8194 0aa2 01       		.uleb128 0x1
 8195 0aa3 50       		.byte	0x50
 8196 0aa4 02       		.uleb128 0x2
 8197 0aa5 08       		.byte	0x8
 8198 0aa6 21       		.byte	0x21
 8199 0aa7 1B       		.uleb128 0x1b
 8200 0aa8 01       		.uleb128 0x1
 8201 0aa9 51       		.byte	0x51
 8202 0aaa 01       		.uleb128 0x1
 8203 0aab 31       		.byte	0x31
 8204 0aac 00       		.byte	0
 8205 0aad 1C       		.uleb128 0x1c
 8206 0aae 22000000 		.4byte	.LVL177
 8207 0ab2 0C080000 		.4byte	0x80c
 8208 0ab6 C60A0000 		.4byte	0xac6
 8209 0aba 1B       		.uleb128 0x1b
 8210 0abb 01       		.uleb128 0x1
 8211 0abc 50       		.byte	0x50
 8212 0abd 02       		.uleb128 0x2
 8213 0abe 08       		.byte	0x8
 8214 0abf 21       		.byte	0x21
 8215 0ac0 1B       		.uleb128 0x1b
 8216 0ac1 01       		.uleb128 0x1
 8217 0ac2 51       		.byte	0x51
 8218 0ac3 01       		.uleb128 0x1
 8219 0ac4 32       		.byte	0x32
 8220 0ac5 00       		.byte	0
 8221 0ac6 1C       		.uleb128 0x1c
 8222 0ac7 2C000000 		.4byte	.LVL178
 8223 0acb 0C080000 		.4byte	0x80c
 8224 0acf DF0A0000 		.4byte	0xadf
 8225 0ad3 1B       		.uleb128 0x1b
 8226 0ad4 01       		.uleb128 0x1
 8227 0ad5 50       		.byte	0x50
 8228 0ad6 02       		.uleb128 0x2
 8229 0ad7 08       		.byte	0x8
 8230 0ad8 21       		.byte	0x21
 8231 0ad9 1B       		.uleb128 0x1b
 8232 0ada 01       		.uleb128 0x1
 8233 0adb 51       		.byte	0x51
 8234 0adc 01       		.uleb128 0x1
 8235 0add 33       		.byte	0x33
 8236 0ade 00       		.byte	0
 8237 0adf 1A       		.uleb128 0x1a
 8238 0ae0 36000000 		.4byte	.LVL179
 8239 0ae4 0C080000 		.4byte	0x80c
 8240 0ae8 1B       		.uleb128 0x1b
 8241 0ae9 01       		.uleb128 0x1
 8242 0aea 50       		.byte	0x50
 8243 0aeb 02       		.uleb128 0x2
 8244 0aec 08       		.byte	0x8
 8245 0aed 21       		.byte	0x21
 8246 0aee 1B       		.uleb128 0x1b
ARM GAS  C:\Users\FRANKL~1\AppData\Local\Temp\ccjWonOy.s 			page 186


 8247 0aef 01       		.uleb128 0x1
 8248 0af0 51       		.byte	0x51
 8249 0af1 01       		.uleb128 0x1
 8250 0af2 34       		.byte	0x34
 8251 0af3 00       		.byte	0
 8252 0af4 00       		.byte	0
 8253 0af5 10       		.uleb128 0x10
 8254 0af6 ED060000 		.4byte	.LASF70
 8255 0afa 02       		.byte	0x2
 8256 0afb FC       		.byte	0xfc
 8257 0afc 00000000 		.4byte	.LFB83
 8258 0b00 16000000 		.4byte	.LFE83-.LFB83
 8259 0b04 01       		.uleb128 0x1
 8260 0b05 9C       		.byte	0x9c
 8261 0b06 320B0000 		.4byte	0xb32
 8262 0b0a 19       		.uleb128 0x19
 8263 0b0b 02000000 		.4byte	.LBB20
 8264 0b0f 12000000 		.4byte	.LBE20-.LBB20
 8265 0b13 20       		.uleb128 0x20
 8266 0b14 6900     		.ascii	"i\000"
 8267 0b16 02       		.byte	0x2
 8268 0b17 FD       		.byte	0xfd
 8269 0b18 AE000000 		.4byte	0xae
 8270 0b1c A6060000 		.4byte	.LLST40
 8271 0b20 1A       		.uleb128 0x1a
 8272 0b21 0C000000 		.4byte	.LVL182
 8273 0b25 EB090000 		.4byte	0x9eb
 8274 0b29 1B       		.uleb128 0x1b
 8275 0b2a 01       		.uleb128 0x1
 8276 0b2b 50       		.byte	0x50
 8277 0b2c 02       		.uleb128 0x2
 8278 0b2d 74       		.byte	0x74
 8279 0b2e 00       		.sleb128 0
 8280 0b2f 00       		.byte	0
 8281 0b30 00       		.byte	0
 8282 0b31 00       		.byte	0
 8283 0b32 24       		.uleb128 0x24
 8284 0b33 3F040000 		.4byte	.LASF71
 8285 0b37 02       		.byte	0x2
 8286 0b38 0201     		.2byte	0x102
 8287 0b3a 00000000 		.4byte	.LFB84
 8288 0b3e 16000000 		.4byte	.LFE84-.LFB84
 8289 0b42 01       		.uleb128 0x1
 8290 0b43 9C       		.byte	0x9c
 8291 0b44 710B0000 		.4byte	0xb71
 8292 0b48 19       		.uleb128 0x19
 8293 0b49 02000000 		.4byte	.LBB21
 8294 0b4d 12000000 		.4byte	.LBE21-.LBB21
 8295 0b51 18       		.uleb128 0x18
 8296 0b52 6900     		.ascii	"i\000"
 8297 0b54 02       		.byte	0x2
 8298 0b55 0301     		.2byte	0x103
 8299 0b57 AE000000 		.4byte	0xae
 8300 0b5b D0060000 		.4byte	.LLST41
 8301 0b5f 1A       		.uleb128 0x1a
 8302 0b60 0C000000 		.4byte	.LVL187
 8303 0b64 700A0000 		.4byte	0xa70
ARM GAS  C:\Users\FRANKL~1\AppData\Local\Temp\ccjWonOy.s 			page 187


 8304 0b68 1B       		.uleb128 0x1b
 8305 0b69 01       		.uleb128 0x1
 8306 0b6a 50       		.byte	0x50
 8307 0b6b 02       		.uleb128 0x2
 8308 0b6c 74       		.byte	0x74
 8309 0b6d 00       		.sleb128 0
 8310 0b6e 00       		.byte	0
 8311 0b6f 00       		.byte	0
 8312 0b70 00       		.byte	0
 8313 0b71 14       		.uleb128 0x14
 8314 0b72 1F000000 		.4byte	.LASF72
 8315 0b76 02       		.byte	0x2
 8316 0b77 0801     		.2byte	0x108
 8317 0b79 00000000 		.4byte	.LFB85
 8318 0b7d 1C000000 		.4byte	.LFE85-.LFB85
 8319 0b81 01       		.uleb128 0x1
 8320 0b82 9C       		.byte	0x9c
 8321 0b83 A10B0000 		.4byte	0xba1
 8322 0b87 25       		.uleb128 0x25
 8323 0b88 DB0B0000 		.4byte	.LASF73
 8324 0b8c 02       		.byte	0x2
 8325 0b8d 0801     		.2byte	0x108
 8326 0b8f AE000000 		.4byte	0xae
 8327 0b93 FA060000 		.4byte	.LLST42
 8328 0b97 12       		.uleb128 0x12
 8329 0b98 10000000 		.4byte	.LVL192
 8330 0b9c 66360000 		.4byte	0x3666
 8331 0ba0 00       		.byte	0
 8332 0ba1 24       		.uleb128 0x24
 8333 0ba2 3E0C0000 		.4byte	.LASF74
 8334 0ba6 02       		.byte	0x2
 8335 0ba7 0D01     		.2byte	0x10d
 8336 0ba9 00000000 		.4byte	.LFB86
 8337 0bad 18000000 		.4byte	.LFE86-.LFB86
 8338 0bb1 01       		.uleb128 0x1
 8339 0bb2 9C       		.byte	0x9c
 8340 0bb3 C70B0000 		.4byte	0xbc7
 8341 0bb7 1A       		.uleb128 0x1a
 8342 0bb8 10000000 		.4byte	.LVL193
 8343 0bbc 710B0000 		.4byte	0xb71
 8344 0bc0 1B       		.uleb128 0x1b
 8345 0bc1 01       		.uleb128 0x1
 8346 0bc2 50       		.byte	0x50
 8347 0bc3 01       		.uleb128 0x1
 8348 0bc4 30       		.byte	0x30
 8349 0bc5 00       		.byte	0
 8350 0bc6 00       		.byte	0
 8351 0bc7 24       		.uleb128 0x24
 8352 0bc8 C1060000 		.4byte	.LASF75
 8353 0bcc 02       		.byte	0x2
 8354 0bcd 1B01     		.2byte	0x11b
 8355 0bcf 00000000 		.4byte	.LFB87
 8356 0bd3 14000000 		.4byte	.LFE87-.LFB87
 8357 0bd7 01       		.uleb128 0x1
 8358 0bd8 9C       		.byte	0x9c
 8359 0bd9 ED0B0000 		.4byte	0xbed
 8360 0bdd 1A       		.uleb128 0x1a
ARM GAS  C:\Users\FRANKL~1\AppData\Local\Temp\ccjWonOy.s 			page 188


 8361 0bde 0E000000 		.4byte	.LVL194
 8362 0be2 710B0000 		.4byte	0xb71
 8363 0be6 1B       		.uleb128 0x1b
 8364 0be7 01       		.uleb128 0x1
 8365 0be8 50       		.byte	0x50
 8366 0be9 01       		.uleb128 0x1
 8367 0bea 37       		.byte	0x37
 8368 0beb 00       		.byte	0
 8369 0bec 00       		.byte	0
 8370 0bed 14       		.uleb128 0x14
 8371 0bee 2D0B0000 		.4byte	.LASF76
 8372 0bf2 02       		.byte	0x2
 8373 0bf3 2901     		.2byte	0x129
 8374 0bf5 00000000 		.4byte	.LFB88
 8375 0bf9 32000000 		.4byte	.LFE88-.LFB88
 8376 0bfd 01       		.uleb128 0x1
 8377 0bfe 9C       		.byte	0x9c
 8378 0bff 600C0000 		.4byte	0xc60
 8379 0c03 26       		.uleb128 0x26
 8380 0c04 D2040000 		.4byte	.LASF77
 8381 0c08 02       		.byte	0x2
 8382 0c09 2901     		.2byte	0x129
 8383 0c0b 600C0000 		.4byte	0xc60
 8384 0c0f 01       		.uleb128 0x1
 8385 0c10 50       		.byte	0x50
 8386 0c11 26       		.uleb128 0x26
 8387 0c12 D80A0000 		.4byte	.LASF78
 8388 0c16 02       		.byte	0x2
 8389 0c17 2901     		.2byte	0x129
 8390 0c19 C6000000 		.4byte	0xc6
 8391 0c1d 01       		.uleb128 0x1
 8392 0c1e 51       		.byte	0x51
 8393 0c1f 17       		.uleb128 0x17
 8394 0c20 750F0000 		.4byte	.LASF79
 8395 0c24 02       		.byte	0x2
 8396 0c25 2A01     		.2byte	0x12a
 8397 0c27 EA000000 		.4byte	0xea
 8398 0c2b 2A070000 		.4byte	.LLST43
 8399 0c2f 19       		.uleb128 0x19
 8400 0c30 02000000 		.4byte	.LBB22
 8401 0c34 2C000000 		.4byte	.LBE22-.LBB22
 8402 0c38 18       		.uleb128 0x18
 8403 0c39 6900     		.ascii	"i\000"
 8404 0c3b 02       		.byte	0x2
 8405 0c3c 2C01     		.2byte	0x12c
 8406 0c3e C6000000 		.4byte	0xc6
 8407 0c42 3D070000 		.4byte	.LLST44
 8408 0c46 19       		.uleb128 0x19
 8409 0c47 06000000 		.4byte	.LBB23
 8410 0c4b 20000000 		.4byte	.LBE23-.LBB23
 8411 0c4f 18       		.uleb128 0x18
 8412 0c50 6A00     		.ascii	"j\000"
 8413 0c52 02       		.byte	0x2
 8414 0c53 2D01     		.2byte	0x12d
 8415 0c55 C6000000 		.4byte	0xc6
 8416 0c59 5C070000 		.4byte	.LLST45
 8417 0c5d 00       		.byte	0
ARM GAS  C:\Users\FRANKL~1\AppData\Local\Temp\ccjWonOy.s 			page 189


 8418 0c5e 00       		.byte	0
 8419 0c5f 00       		.byte	0
 8420 0c60 05       		.uleb128 0x5
 8421 0c61 04       		.byte	0x4
 8422 0c62 EA000000 		.4byte	0xea
 8423 0c66 27       		.uleb128 0x27
 8424 0c67 190A0000 		.4byte	.LASF80
 8425 0c6b 02       		.byte	0x2
 8426 0c6c 3801     		.2byte	0x138
 8427 0c6e EA000000 		.4byte	0xea
 8428 0c72 00000000 		.4byte	.LFB89
 8429 0c76 32000000 		.4byte	.LFE89-.LFB89
 8430 0c7a 01       		.uleb128 0x1
 8431 0c7b 9C       		.byte	0x9c
 8432 0c7c B70C0000 		.4byte	0xcb7
 8433 0c80 25       		.uleb128 0x25
 8434 0c81 D2040000 		.4byte	.LASF77
 8435 0c85 02       		.byte	0x2
 8436 0c86 3801     		.2byte	0x138
 8437 0c88 600C0000 		.4byte	0xc60
 8438 0c8c 7A070000 		.4byte	.LLST46
 8439 0c90 25       		.uleb128 0x25
 8440 0c91 D80A0000 		.4byte	.LASF78
 8441 0c95 02       		.byte	0x2
 8442 0c96 3801     		.2byte	0x138
 8443 0c98 C6000000 		.4byte	0xc6
 8444 0c9c 98070000 		.4byte	.LLST47
 8445 0ca0 1A       		.uleb128 0x1a
 8446 0ca1 0A000000 		.4byte	.LVL206
 8447 0ca5 ED0B0000 		.4byte	0xbed
 8448 0ca9 1B       		.uleb128 0x1b
 8449 0caa 01       		.uleb128 0x1
 8450 0cab 50       		.byte	0x50
 8451 0cac 02       		.uleb128 0x2
 8452 0cad 75       		.byte	0x75
 8453 0cae 00       		.sleb128 0
 8454 0caf 1B       		.uleb128 0x1b
 8455 0cb0 01       		.uleb128 0x1
 8456 0cb1 51       		.byte	0x51
 8457 0cb2 02       		.uleb128 0x2
 8458 0cb3 74       		.byte	0x74
 8459 0cb4 00       		.sleb128 0
 8460 0cb5 00       		.byte	0
 8461 0cb6 00       		.byte	0
 8462 0cb7 28       		.uleb128 0x28
 8463 0cb8 D7010000 		.4byte	.LASF81
 8464 0cbc 02       		.byte	0x2
 8465 0cbd 4501     		.2byte	0x145
 8466 0cbf 00000000 		.4byte	.LFB90
 8467 0cc3 F0000000 		.4byte	.LFE90-.LFB90
 8468 0cc7 01       		.uleb128 0x1
 8469 0cc8 9C       		.byte	0x9c
 8470 0cc9 C80D0000 		.4byte	0xdc8
 8471 0ccd 25       		.uleb128 0x25
 8472 0cce E2000000 		.4byte	.LASF82
 8473 0cd2 02       		.byte	0x2
 8474 0cd3 4501     		.2byte	0x145
ARM GAS  C:\Users\FRANKL~1\AppData\Local\Temp\ccjWonOy.s 			page 190


 8475 0cd5 600C0000 		.4byte	0xc60
 8476 0cd9 DD070000 		.4byte	.LLST48
 8477 0cdd 25       		.uleb128 0x25
 8478 0cde 3B090000 		.4byte	.LASF83
 8479 0ce2 02       		.byte	0x2
 8480 0ce3 4501     		.2byte	0x145
 8481 0ce5 600C0000 		.4byte	0xc60
 8482 0ce9 09080000 		.4byte	.LLST49
 8483 0ced 25       		.uleb128 0x25
 8484 0cee D0070000 		.4byte	.LASF84
 8485 0cf2 02       		.byte	0x2
 8486 0cf3 4501     		.2byte	0x145
 8487 0cf5 C6000000 		.4byte	0xc6
 8488 0cf9 34080000 		.4byte	.LLST50
 8489 0cfd 17       		.uleb128 0x17
 8490 0cfe 1B0C0000 		.4byte	.LASF85
 8491 0d02 02       		.byte	0x2
 8492 0d03 4601     		.2byte	0x146
 8493 0d05 EA000000 		.4byte	0xea
 8494 0d09 55080000 		.4byte	.LLST51
 8495 0d0d 17       		.uleb128 0x17
 8496 0d0e 54050000 		.4byte	.LASF86
 8497 0d12 02       		.byte	0x2
 8498 0d13 4701     		.2byte	0x147
 8499 0d15 EA000000 		.4byte	0xea
 8500 0d19 8A080000 		.4byte	.LLST52
 8501 0d1d 17       		.uleb128 0x17
 8502 0d1e BC080000 		.4byte	.LASF87
 8503 0d22 02       		.byte	0x2
 8504 0d23 4901     		.2byte	0x149
 8505 0d25 C6000000 		.4byte	0xc6
 8506 0d29 CE080000 		.4byte	.LLST53
 8507 0d2d 16       		.uleb128 0x16
 8508 0d2e 6B020000 		.4byte	.LASF88
 8509 0d32 02       		.byte	0x2
 8510 0d33 4C01     		.2byte	0x14c
 8511 0d35 C6000000 		.4byte	0xc6
 8512 0d39 01       		.uleb128 0x1
 8513 0d3a 5A       		.byte	0x5a
 8514 0d3b 16       		.uleb128 0x16
 8515 0d3c 7A0F0000 		.4byte	.LASF89
 8516 0d40 02       		.byte	0x2
 8517 0d41 4D01     		.2byte	0x14d
 8518 0d43 C80D0000 		.4byte	0xdc8
 8519 0d47 02       		.uleb128 0x2
 8520 0d48 75       		.byte	0x75
 8521 0d49 00       		.sleb128 0
 8522 0d4a 29       		.uleb128 0x29
 8523 0d4b 30000000 		.4byte	.Ldebug_ranges0+0x30
 8524 0d4f 18       		.uleb128 0x18
 8525 0d50 6900     		.ascii	"i\000"
 8526 0d52 02       		.byte	0x2
 8527 0d53 4F01     		.2byte	0x14f
 8528 0d55 C6000000 		.4byte	0xc6
 8529 0d59 ED080000 		.4byte	.LLST54
 8530 0d5d 29       		.uleb128 0x29
 8531 0d5e 48000000 		.4byte	.Ldebug_ranges0+0x48
ARM GAS  C:\Users\FRANKL~1\AppData\Local\Temp\ccjWonOy.s 			page 191


 8532 0d62 17       		.uleb128 0x17
 8533 0d63 2C040000 		.4byte	.LASF90
 8534 0d67 02       		.byte	0x2
 8535 0d68 5601     		.2byte	0x156
 8536 0d6a EA000000 		.4byte	0xea
 8537 0d6e 0C090000 		.4byte	.LLST55
 8538 0d72 1F       		.uleb128 0x1f
 8539 0d73 60000000 		.4byte	.Ldebug_ranges0+0x60
 8540 0d77 AF0D0000 		.4byte	0xdaf
 8541 0d7b 18       		.uleb128 0x18
 8542 0d7c 6A00     		.ascii	"j\000"
 8543 0d7e 02       		.byte	0x2
 8544 0d7f 5001     		.2byte	0x150
 8545 0d81 C6000000 		.4byte	0xc6
 8546 0d85 2A090000 		.4byte	.LLST56
 8547 0d89 1C       		.uleb128 0x1c
 8548 0d8a 38000000 		.4byte	.LVL216
 8549 0d8e 71360000 		.4byte	0x3671
 8550 0d92 9C0D0000 		.4byte	0xd9c
 8551 0d96 1B       		.uleb128 0x1b
 8552 0d97 01       		.uleb128 0x1
 8553 0d98 50       		.byte	0x50
 8554 0d99 01       		.uleb128 0x1
 8555 0d9a 31       		.byte	0x31
 8556 0d9b 00       		.byte	0
 8557 0d9c 12       		.uleb128 0x12
 8558 0d9d 40000000 		.4byte	.LVL217
 8559 0da1 7C360000 		.4byte	0x367c
 8560 0da5 12       		.uleb128 0x12
 8561 0da6 44000000 		.4byte	.LVL218
 8562 0daa 87360000 		.4byte	0x3687
 8563 0dae 00       		.byte	0
 8564 0daf 1A       		.uleb128 0x1a
 8565 0db0 5E000000 		.4byte	.LVL222
 8566 0db4 660C0000 		.4byte	0xc66
 8567 0db8 1B       		.uleb128 0x1b
 8568 0db9 01       		.uleb128 0x1
 8569 0dba 50       		.byte	0x50
 8570 0dbb 02       		.uleb128 0x2
 8571 0dbc 75       		.byte	0x75
 8572 0dbd 00       		.sleb128 0
 8573 0dbe 1B       		.uleb128 0x1b
 8574 0dbf 01       		.uleb128 0x1
 8575 0dc0 51       		.byte	0x51
 8576 0dc1 02       		.uleb128 0x2
 8577 0dc2 74       		.byte	0x74
 8578 0dc3 00       		.sleb128 0
 8579 0dc4 00       		.byte	0
 8580 0dc5 00       		.byte	0
 8581 0dc6 00       		.byte	0
 8582 0dc7 00       		.byte	0
 8583 0dc8 09       		.uleb128 0x9
 8584 0dc9 EA000000 		.4byte	0xea
 8585 0dcd DA0D0000 		.4byte	0xdda
 8586 0dd1 2A       		.uleb128 0x2a
 8587 0dd2 84000000 		.4byte	0x84
 8588 0dd6 02       		.uleb128 0x2
ARM GAS  C:\Users\FRANKL~1\AppData\Local\Temp\ccjWonOy.s 			page 192


 8589 0dd7 74       		.byte	0x74
 8590 0dd8 7F       		.sleb128 -1
 8591 0dd9 00       		.byte	0
 8592 0dda 14       		.uleb128 0x14
 8593 0ddb 30000000 		.4byte	.LASF91
 8594 0ddf 02       		.byte	0x2
 8595 0de0 6001     		.2byte	0x160
 8596 0de2 00000000 		.4byte	.LFB91
 8597 0de6 54000000 		.4byte	.LFE91-.LFB91
 8598 0dea 01       		.uleb128 0x1
 8599 0deb 9C       		.byte	0x9c
 8600 0dec 6D0E0000 		.4byte	0xe6d
 8601 0df0 25       		.uleb128 0x25
 8602 0df1 D0070000 		.4byte	.LASF84
 8603 0df5 02       		.byte	0x2
 8604 0df6 6001     		.2byte	0x160
 8605 0df8 C6000000 		.4byte	0xc6
 8606 0dfc 48090000 		.4byte	.LLST57
 8607 0e00 16       		.uleb128 0x16
 8608 0e01 56060000 		.4byte	.LASF92
 8609 0e05 02       		.byte	0x2
 8610 0e06 6101     		.2byte	0x161
 8611 0e08 EA000000 		.4byte	0xea
 8612 0e0c 02       		.uleb128 0x2
 8613 0e0d 91       		.byte	0x91
 8614 0e0e 74       		.sleb128 -12
 8615 0e0f 16       		.uleb128 0x16
 8616 0e10 B8000000 		.4byte	.LASF93
 8617 0e14 02       		.byte	0x2
 8618 0e15 6201     		.2byte	0x162
 8619 0e17 EA000000 		.4byte	0xea
 8620 0e1b 02       		.uleb128 0x2
 8621 0e1c 91       		.byte	0x91
 8622 0e1d 70       		.sleb128 -16
 8623 0e1e 1C       		.uleb128 0x1c
 8624 0e1f 16000000 		.4byte	.LVL248
 8625 0e23 B70C0000 		.4byte	0xcb7
 8626 0e27 3F0E0000 		.4byte	0xe3f
 8627 0e2b 1B       		.uleb128 0x1b
 8628 0e2c 01       		.uleb128 0x1
 8629 0e2d 50       		.byte	0x50
 8630 0e2e 02       		.uleb128 0x2
 8631 0e2f 91       		.byte	0x91
 8632 0e30 74       		.sleb128 -12
 8633 0e31 1B       		.uleb128 0x1b
 8634 0e32 01       		.uleb128 0x1
 8635 0e33 51       		.byte	0x51
 8636 0e34 02       		.uleb128 0x2
 8637 0e35 91       		.byte	0x91
 8638 0e36 70       		.sleb128 -16
 8639 0e37 1B       		.uleb128 0x1b
 8640 0e38 01       		.uleb128 0x1
 8641 0e39 52       		.byte	0x52
 8642 0e3a 03       		.uleb128 0x3
 8643 0e3b F3       		.byte	0xf3
 8644 0e3c 01       		.uleb128 0x1
 8645 0e3d 50       		.byte	0x50
ARM GAS  C:\Users\FRANKL~1\AppData\Local\Temp\ccjWonOy.s 			page 193


 8646 0e3e 00       		.byte	0
 8647 0e3f 12       		.uleb128 0x12
 8648 0e40 2A000000 		.4byte	.LVL249
 8649 0e44 A10B0000 		.4byte	0xba1
 8650 0e48 12       		.uleb128 0x12
 8651 0e49 3E000000 		.4byte	.LVL250
 8652 0e4d C70B0000 		.4byte	0xbc7
 8653 0e51 1A       		.uleb128 0x1a
 8654 0e52 48000000 		.4byte	.LVL251
 8655 0e56 B70C0000 		.4byte	0xcb7
 8656 0e5a 1B       		.uleb128 0x1b
 8657 0e5b 01       		.uleb128 0x1
 8658 0e5c 50       		.byte	0x50
 8659 0e5d 02       		.uleb128 0x2
 8660 0e5e 91       		.byte	0x91
 8661 0e5f 74       		.sleb128 -12
 8662 0e60 1B       		.uleb128 0x1b
 8663 0e61 01       		.uleb128 0x1
 8664 0e62 51       		.byte	0x51
 8665 0e63 02       		.uleb128 0x2
 8666 0e64 7D       		.byte	0x7d
 8667 0e65 00       		.sleb128 0
 8668 0e66 1B       		.uleb128 0x1b
 8669 0e67 01       		.uleb128 0x1
 8670 0e68 52       		.byte	0x52
 8671 0e69 01       		.uleb128 0x1
 8672 0e6a 35       		.byte	0x35
 8673 0e6b 00       		.byte	0
 8674 0e6c 00       		.byte	0
 8675 0e6d 28       		.uleb128 0x28
 8676 0e6e AE0A0000 		.4byte	.LASF94
 8677 0e72 02       		.byte	0x2
 8678 0e73 7301     		.2byte	0x173
 8679 0e75 00000000 		.4byte	.LFB92
 8680 0e79 B6000000 		.4byte	.LFE92-.LFB92
 8681 0e7d 01       		.uleb128 0x1
 8682 0e7e 9C       		.byte	0x9c
 8683 0e7f 300F0000 		.4byte	0xf30
 8684 0e83 25       		.uleb128 0x25
 8685 0e84 E2000000 		.4byte	.LASF82
 8686 0e88 02       		.byte	0x2
 8687 0e89 7301     		.2byte	0x173
 8688 0e8b 600C0000 		.4byte	0xc60
 8689 0e8f 74090000 		.4byte	.LLST58
 8690 0e93 25       		.uleb128 0x25
 8691 0e94 3B090000 		.4byte	.LASF83
 8692 0e98 02       		.byte	0x2
 8693 0e99 7301     		.2byte	0x173
 8694 0e9b 600C0000 		.4byte	0xc60
 8695 0e9f 9F090000 		.4byte	.LLST59
 8696 0ea3 25       		.uleb128 0x25
 8697 0ea4 D0070000 		.4byte	.LASF84
 8698 0ea8 02       		.byte	0x2
 8699 0ea9 7301     		.2byte	0x173
 8700 0eab C6000000 		.4byte	0xc6
 8701 0eaf BE090000 		.4byte	.LLST60
 8702 0eb3 17       		.uleb128 0x17
ARM GAS  C:\Users\FRANKL~1\AppData\Local\Temp\ccjWonOy.s 			page 194


 8703 0eb4 7E050000 		.4byte	.LASF95
 8704 0eb8 02       		.byte	0x2
 8705 0eb9 7401     		.2byte	0x174
 8706 0ebb EA000000 		.4byte	0xea
 8707 0ebf DC090000 		.4byte	.LLST61
 8708 0ec3 17       		.uleb128 0x17
 8709 0ec4 4F060000 		.4byte	.LASF96
 8710 0ec8 02       		.byte	0x2
 8711 0ec9 7501     		.2byte	0x175
 8712 0ecb EA000000 		.4byte	0xea
 8713 0ecf 110A0000 		.4byte	.LLST62
 8714 0ed3 29       		.uleb128 0x29
 8715 0ed4 78000000 		.4byte	.Ldebug_ranges0+0x78
 8716 0ed8 18       		.uleb128 0x18
 8717 0ed9 6900     		.ascii	"i\000"
 8718 0edb 02       		.byte	0x2
 8719 0edc 7701     		.2byte	0x177
 8720 0ede C6000000 		.4byte	0xc6
 8721 0ee2 460A0000 		.4byte	.LLST63
 8722 0ee6 19       		.uleb128 0x19
 8723 0ee7 16000000 		.4byte	.LBB31
 8724 0eeb 8A000000 		.4byte	.LBE31-.LBB31
 8725 0eef 17       		.uleb128 0x17
 8726 0ef0 8D010000 		.4byte	.LASF97
 8727 0ef4 02       		.byte	0x2
 8728 0ef5 7B01     		.2byte	0x17b
 8729 0ef7 EA000000 		.4byte	0xea
 8730 0efb 650A0000 		.4byte	.LLST64
 8731 0eff 12       		.uleb128 0x12
 8732 0f00 1A000000 		.4byte	.LVL255
 8733 0f04 92360000 		.4byte	0x3692
 8734 0f08 1C       		.uleb128 0x1c
 8735 0f09 20000000 		.4byte	.LVL256
 8736 0f0d 9D360000 		.4byte	0x369d
 8737 0f11 1B0F0000 		.4byte	0xf1b
 8738 0f15 1B       		.uleb128 0x1b
 8739 0f16 01       		.uleb128 0x1
 8740 0f17 50       		.byte	0x50
 8741 0f18 01       		.uleb128 0x1
 8742 0f19 31       		.byte	0x31
 8743 0f1a 00       		.byte	0
 8744 0f1b 12       		.uleb128 0x12
 8745 0f1c 28000000 		.4byte	.LVL257
 8746 0f20 A8360000 		.4byte	0x36a8
 8747 0f24 12       		.uleb128 0x12
 8748 0f25 2C000000 		.4byte	.LVL258
 8749 0f29 B3360000 		.4byte	0x36b3
 8750 0f2d 00       		.byte	0
 8751 0f2e 00       		.byte	0
 8752 0f2f 00       		.byte	0
 8753 0f30 28       		.uleb128 0x28
 8754 0f31 38070000 		.4byte	.LASF98
 8755 0f35 02       		.byte	0x2
 8756 0f36 8601     		.2byte	0x186
 8757 0f38 00000000 		.4byte	.LFB93
 8758 0f3c B6000000 		.4byte	.LFE93-.LFB93
 8759 0f40 01       		.uleb128 0x1
ARM GAS  C:\Users\FRANKL~1\AppData\Local\Temp\ccjWonOy.s 			page 195


 8760 0f41 9C       		.byte	0x9c
 8761 0f42 F30F0000 		.4byte	0xff3
 8762 0f46 25       		.uleb128 0x25
 8763 0f47 E2000000 		.4byte	.LASF82
 8764 0f4b 02       		.byte	0x2
 8765 0f4c 8601     		.2byte	0x186
 8766 0f4e 600C0000 		.4byte	0xc60
 8767 0f52 830A0000 		.4byte	.LLST65
 8768 0f56 25       		.uleb128 0x25
 8769 0f57 3B090000 		.4byte	.LASF83
 8770 0f5b 02       		.byte	0x2
 8771 0f5c 8601     		.2byte	0x186
 8772 0f5e 600C0000 		.4byte	0xc60
 8773 0f62 AE0A0000 		.4byte	.LLST66
 8774 0f66 25       		.uleb128 0x25
 8775 0f67 D0070000 		.4byte	.LASF84
 8776 0f6b 02       		.byte	0x2
 8777 0f6c 8601     		.2byte	0x186
 8778 0f6e C6000000 		.4byte	0xc6
 8779 0f72 CD0A0000 		.4byte	.LLST67
 8780 0f76 17       		.uleb128 0x17
 8781 0f77 7E050000 		.4byte	.LASF95
 8782 0f7b 02       		.byte	0x2
 8783 0f7c 8701     		.2byte	0x187
 8784 0f7e EA000000 		.4byte	0xea
 8785 0f82 EB0A0000 		.4byte	.LLST68
 8786 0f86 17       		.uleb128 0x17
 8787 0f87 4F060000 		.4byte	.LASF96
 8788 0f8b 02       		.byte	0x2
 8789 0f8c 8801     		.2byte	0x188
 8790 0f8e EA000000 		.4byte	0xea
 8791 0f92 200B0000 		.4byte	.LLST69
 8792 0f96 29       		.uleb128 0x29
 8793 0f97 90000000 		.4byte	.Ldebug_ranges0+0x90
 8794 0f9b 18       		.uleb128 0x18
 8795 0f9c 6900     		.ascii	"i\000"
 8796 0f9e 02       		.byte	0x2
 8797 0f9f 8A01     		.2byte	0x18a
 8798 0fa1 C6000000 		.4byte	0xc6
 8799 0fa5 550B0000 		.4byte	.LLST70
 8800 0fa9 19       		.uleb128 0x19
 8801 0faa 16000000 		.4byte	.LBB34
 8802 0fae 8A000000 		.4byte	.LBE34-.LBB34
 8803 0fb2 17       		.uleb128 0x17
 8804 0fb3 2E0E0000 		.4byte	.LASF99
 8805 0fb7 02       		.byte	0x2
 8806 0fb8 8E01     		.2byte	0x18e
 8807 0fba EA000000 		.4byte	0xea
 8808 0fbe 740B0000 		.4byte	.LLST71
 8809 0fc2 12       		.uleb128 0x12
 8810 0fc3 1A000000 		.4byte	.LVL286
 8811 0fc7 BE360000 		.4byte	0x36be
 8812 0fcb 1C       		.uleb128 0x1c
 8813 0fcc 20000000 		.4byte	.LVL287
 8814 0fd0 C9360000 		.4byte	0x36c9
 8815 0fd4 DE0F0000 		.4byte	0xfde
 8816 0fd8 1B       		.uleb128 0x1b
ARM GAS  C:\Users\FRANKL~1\AppData\Local\Temp\ccjWonOy.s 			page 196


 8817 0fd9 01       		.uleb128 0x1
 8818 0fda 50       		.byte	0x50
 8819 0fdb 01       		.uleb128 0x1
 8820 0fdc 31       		.byte	0x31
 8821 0fdd 00       		.byte	0
 8822 0fde 12       		.uleb128 0x12
 8823 0fdf 28000000 		.4byte	.LVL288
 8824 0fe3 D4360000 		.4byte	0x36d4
 8825 0fe7 12       		.uleb128 0x12
 8826 0fe8 2C000000 		.4byte	.LVL289
 8827 0fec DF360000 		.4byte	0x36df
 8828 0ff0 00       		.byte	0
 8829 0ff1 00       		.byte	0
 8830 0ff2 00       		.byte	0
 8831 0ff3 28       		.uleb128 0x28
 8832 0ff4 46020000 		.4byte	.LASF100
 8833 0ff8 02       		.byte	0x2
 8834 0ff9 9901     		.2byte	0x199
 8835 0ffb 00000000 		.4byte	.LFB94
 8836 0fff 90010000 		.4byte	.LFE94-.LFB94
 8837 1003 01       		.uleb128 0x1
 8838 1004 9C       		.byte	0x9c
 8839 1005 49110000 		.4byte	0x1149
 8840 1009 25       		.uleb128 0x25
 8841 100a 15050000 		.4byte	.LASF101
 8842 100e 02       		.byte	0x2
 8843 100f 9901     		.2byte	0x199
 8844 1011 49110000 		.4byte	0x1149
 8845 1015 920B0000 		.4byte	.LLST72
 8846 1019 25       		.uleb128 0x25
 8847 101a AC080000 		.4byte	.LASF102
 8848 101e 02       		.byte	0x2
 8849 101f 9901     		.2byte	0x199
 8850 1021 49110000 		.4byte	0x1149
 8851 1025 BD0B0000 		.4byte	.LLST73
 8852 1029 25       		.uleb128 0x25
 8853 102a D0070000 		.4byte	.LASF84
 8854 102e 02       		.byte	0x2
 8855 102f 9901     		.2byte	0x199
 8856 1031 C6000000 		.4byte	0xc6
 8857 1035 E80B0000 		.4byte	.LLST74
 8858 1039 25       		.uleb128 0x25
 8859 103a 680C0000 		.4byte	.LASF103
 8860 103e 02       		.byte	0x2
 8861 103f 9901     		.2byte	0x199
 8862 1041 AE000000 		.4byte	0xae
 8863 1045 140C0000 		.4byte	.LLST75
 8864 1049 16       		.uleb128 0x16
 8865 104a 56060000 		.4byte	.LASF92
 8866 104e 02       		.byte	0x2
 8867 104f A001     		.2byte	0x1a0
 8868 1051 EA000000 		.4byte	0xea
 8869 1055 02       		.uleb128 0x2
 8870 1056 91       		.byte	0x91
 8871 1057 54       		.sleb128 -44
 8872 1058 16       		.uleb128 0x16
 8873 1059 B8000000 		.4byte	.LASF93
ARM GAS  C:\Users\FRANKL~1\AppData\Local\Temp\ccjWonOy.s 			page 197


 8874 105d 02       		.byte	0x2
 8875 105e A101     		.2byte	0x1a1
 8876 1060 EA000000 		.4byte	0xea
 8877 1064 02       		.uleb128 0x2
 8878 1065 91       		.byte	0x91
 8879 1066 50       		.sleb128 -48
 8880 1067 17       		.uleb128 0x17
 8881 1068 28090000 		.4byte	.LASF104
 8882 106c 02       		.byte	0x2
 8883 106d A401     		.2byte	0x1a4
 8884 106f 25000000 		.4byte	0x25
 8885 1073 350C0000 		.4byte	.LLST76
 8886 1077 17       		.uleb128 0x17
 8887 1078 96060000 		.4byte	.LASF105
 8888 107c 02       		.byte	0x2
 8889 107d A501     		.2byte	0x1a5
 8890 107f 25000000 		.4byte	0x25
 8891 1083 830C0000 		.4byte	.LLST77
 8892 1087 17       		.uleb128 0x17
 8893 1088 E6010000 		.4byte	.LASF106
 8894 108c 02       		.byte	0x2
 8895 108d A601     		.2byte	0x1a6
 8896 108f 25000000 		.4byte	0x25
 8897 1093 FD0C0000 		.4byte	.LLST78
 8898 1097 17       		.uleb128 0x17
 8899 1098 4D010000 		.4byte	.LASF107
 8900 109c 02       		.byte	0x2
 8901 109d A801     		.2byte	0x1a8
 8902 109f 25000000 		.4byte	0x25
 8903 10a3 780D0000 		.4byte	.LLST79
 8904 10a7 17       		.uleb128 0x17
 8905 10a8 D8040000 		.4byte	.LASF108
 8906 10ac 02       		.byte	0x2
 8907 10ad A901     		.2byte	0x1a9
 8908 10af EA000000 		.4byte	0xea
 8909 10b3 8C0D0000 		.4byte	.LLST80
 8910 10b7 17       		.uleb128 0x17
 8911 10b8 69040000 		.4byte	.LASF109
 8912 10bc 02       		.byte	0x2
 8913 10bd AA01     		.2byte	0x1aa
 8914 10bf 25000000 		.4byte	0x25
 8915 10c3 9F0D0000 		.4byte	.LLST81
 8916 10c7 1F       		.uleb128 0x1f
 8917 10c8 A8000000 		.4byte	.Ldebug_ranges0+0xa8
 8918 10cc FA100000 		.4byte	0x10fa
 8919 10d0 18       		.uleb128 0x18
 8920 10d1 6900     		.ascii	"i\000"
 8921 10d3 02       		.byte	0x2
 8922 10d4 B101     		.2byte	0x1b1
 8923 10d6 C6000000 		.4byte	0xc6
 8924 10da CA0D0000 		.4byte	.LLST82
 8925 10de 1A       		.uleb128 0x1a
 8926 10df 66000000 		.4byte	.LVL328
 8927 10e3 B70C0000 		.4byte	0xcb7
 8928 10e7 1B       		.uleb128 0x1b
 8929 10e8 01       		.uleb128 0x1
 8930 10e9 50       		.byte	0x50
ARM GAS  C:\Users\FRANKL~1\AppData\Local\Temp\ccjWonOy.s 			page 198


 8931 10ea 02       		.uleb128 0x2
 8932 10eb 91       		.byte	0x91
 8933 10ec 54       		.sleb128 -44
 8934 10ed 1B       		.uleb128 0x1b
 8935 10ee 01       		.uleb128 0x1
 8936 10ef 51       		.byte	0x51
 8937 10f0 02       		.uleb128 0x2
 8938 10f1 91       		.byte	0x91
 8939 10f2 50       		.sleb128 -48
 8940 10f3 1B       		.uleb128 0x1b
 8941 10f4 01       		.uleb128 0x1
 8942 10f5 52       		.byte	0x52
 8943 10f6 01       		.uleb128 0x1
 8944 10f7 31       		.byte	0x31
 8945 10f8 00       		.byte	0
 8946 10f9 00       		.byte	0
 8947 10fa 1C       		.uleb128 0x1c
 8948 10fb 1A000000 		.4byte	.LVL317
 8949 10ff DA0D0000 		.4byte	0xdda
 8950 1103 0D110000 		.4byte	0x110d
 8951 1107 1B       		.uleb128 0x1b
 8952 1108 01       		.uleb128 0x1
 8953 1109 50       		.byte	0x50
 8954 110a 01       		.uleb128 0x1
 8955 110b 33       		.byte	0x33
 8956 110c 00       		.byte	0
 8957 110d 1C       		.uleb128 0x1c
 8958 110e 56000000 		.4byte	.LVL326
 8959 1112 B70C0000 		.4byte	0xcb7
 8960 1116 2C110000 		.4byte	0x112c
 8961 111a 1B       		.uleb128 0x1b
 8962 111b 01       		.uleb128 0x1
 8963 111c 50       		.byte	0x50
 8964 111d 02       		.uleb128 0x2
 8965 111e 91       		.byte	0x91
 8966 111f 54       		.sleb128 -44
 8967 1120 1B       		.uleb128 0x1b
 8968 1121 01       		.uleb128 0x1
 8969 1122 51       		.byte	0x51
 8970 1123 02       		.uleb128 0x2
 8971 1124 74       		.byte	0x74
 8972 1125 00       		.sleb128 0
 8973 1126 1B       		.uleb128 0x1b
 8974 1127 01       		.uleb128 0x1
 8975 1128 52       		.byte	0x52
 8976 1129 01       		.uleb128 0x1
 8977 112a 33       		.byte	0x33
 8978 112b 00       		.byte	0
 8979 112c 1A       		.uleb128 0x1a
 8980 112d 3A010000 		.4byte	.LVL357
 8981 1131 B70C0000 		.4byte	0xcb7
 8982 1135 1B       		.uleb128 0x1b
 8983 1136 01       		.uleb128 0x1
 8984 1137 50       		.byte	0x50
 8985 1138 02       		.uleb128 0x2
 8986 1139 91       		.byte	0x91
 8987 113a 54       		.sleb128 -44
ARM GAS  C:\Users\FRANKL~1\AppData\Local\Temp\ccjWonOy.s 			page 199


 8988 113b 1B       		.uleb128 0x1b
 8989 113c 01       		.uleb128 0x1
 8990 113d 51       		.byte	0x51
 8991 113e 02       		.uleb128 0x2
 8992 113f 91       		.byte	0x91
 8993 1140 50       		.sleb128 -48
 8994 1141 1B       		.uleb128 0x1b
 8995 1142 01       		.uleb128 0x1
 8996 1143 52       		.byte	0x52
 8997 1144 02       		.uleb128 0x2
 8998 1145 7A       		.byte	0x7a
 8999 1146 00       		.sleb128 0
 9000 1147 00       		.byte	0
 9001 1148 00       		.byte	0
 9002 1149 05       		.uleb128 0x5
 9003 114a 04       		.byte	0x4
 9004 114b 25000000 		.4byte	0x25
 9005 114f 2B       		.uleb128 0x2b
 9006 1150 050C0000 		.4byte	.LASF110
 9007 1154 02       		.byte	0x2
 9008 1155 CB01     		.2byte	0x1cb
 9009 1157 AE000000 		.4byte	0xae
 9010 115b 00000000 		.4byte	.LFB95
 9011 115f 5C000000 		.4byte	.LFE95-.LFB95
 9012 1163 01       		.uleb128 0x1
 9013 1164 9C       		.byte	0x9c
 9014 1165 A8110000 		.4byte	0x11a8
 9015 1169 16       		.uleb128 0x16
 9016 116a 33090000 		.4byte	.LASF111
 9017 116e 02       		.byte	0x2
 9018 116f CE01     		.2byte	0x1ce
 9019 1171 25000000 		.4byte	0x25
 9020 1175 02       		.uleb128 0x2
 9021 1176 91       		.byte	0x91
 9022 1177 74       		.sleb128 -12
 9023 1178 16       		.uleb128 0x16
 9024 1179 99000000 		.4byte	.LASF112
 9025 117d 02       		.byte	0x2
 9026 117e CF01     		.2byte	0x1cf
 9027 1180 25000000 		.4byte	0x25
 9028 1184 02       		.uleb128 0x2
 9029 1185 91       		.byte	0x91
 9030 1186 70       		.sleb128 -16
 9031 1187 1A       		.uleb128 0x1a
 9032 1188 1E000000 		.4byte	.LVL366
 9033 118c F30F0000 		.4byte	0xff3
 9034 1190 1B       		.uleb128 0x1b
 9035 1191 01       		.uleb128 0x1
 9036 1192 50       		.byte	0x50
 9037 1193 02       		.uleb128 0x2
 9038 1194 91       		.byte	0x91
 9039 1195 74       		.sleb128 -12
 9040 1196 1B       		.uleb128 0x1b
 9041 1197 01       		.uleb128 0x1
 9042 1198 51       		.byte	0x51
 9043 1199 02       		.uleb128 0x2
 9044 119a 91       		.byte	0x91
ARM GAS  C:\Users\FRANKL~1\AppData\Local\Temp\ccjWonOy.s 			page 200


 9045 119b 70       		.sleb128 -16
 9046 119c 1B       		.uleb128 0x1b
 9047 119d 01       		.uleb128 0x1
 9048 119e 52       		.byte	0x52
 9049 119f 01       		.uleb128 0x1
 9050 11a0 33       		.byte	0x33
 9051 11a1 1B       		.uleb128 0x1b
 9052 11a2 01       		.uleb128 0x1
 9053 11a3 53       		.byte	0x53
 9054 11a4 01       		.uleb128 0x1
 9055 11a5 31       		.byte	0x31
 9056 11a6 00       		.byte	0
 9057 11a7 00       		.byte	0
 9058 11a8 24       		.uleb128 0x24
 9059 11a9 F1070000 		.4byte	.LASF113
 9060 11ad 02       		.byte	0x2
 9061 11ae DB01     		.2byte	0x1db
 9062 11b0 00000000 		.4byte	.LFB96
 9063 11b4 68000000 		.4byte	.LFE96-.LFB96
 9064 11b8 01       		.uleb128 0x1
 9065 11b9 9C       		.byte	0x9c
 9066 11ba 5D120000 		.4byte	0x125d
 9067 11be 17       		.uleb128 0x17
 9068 11bf D0010000 		.4byte	.LASF114
 9069 11c3 02       		.byte	0x2
 9070 11c4 DC01     		.2byte	0x1dc
 9071 11c6 AE000000 		.4byte	0xae
 9072 11ca E80D0000 		.4byte	.LLST83
 9073 11ce 17       		.uleb128 0x17
 9074 11cf 90060000 		.4byte	.LASF115
 9075 11d3 02       		.byte	0x2
 9076 11d4 DD01     		.2byte	0x1dd
 9077 11d6 AE000000 		.4byte	0xae
 9078 11da 060E0000 		.4byte	.LLST84
 9079 11de 17       		.uleb128 0x17
 9080 11df BB030000 		.4byte	.LASF116
 9081 11e3 02       		.byte	0x2
 9082 11e4 DE01     		.2byte	0x1de
 9083 11e6 D2000000 		.4byte	0xd2
 9084 11ea 240E0000 		.4byte	.LLST85
 9085 11ee 15       		.uleb128 0x15
 9086 11ef 1A000000 		.4byte	.LBB38
 9087 11f3 16000000 		.4byte	.LBE38-.LBB38
 9088 11f7 27120000 		.4byte	0x1227
 9089 11fb 18       		.uleb128 0x18
 9090 11fc 6900     		.ascii	"i\000"
 9091 11fe 02       		.byte	0x2
 9092 11ff E101     		.2byte	0x1e1
 9093 1201 AE000000 		.4byte	0xae
 9094 1205 5A0E0000 		.4byte	.LLST86
 9095 1209 1C       		.uleb128 0x1c
 9096 120a 22000000 		.4byte	.LVL374
 9097 120e EA360000 		.4byte	0x36ea
 9098 1212 1D120000 		.4byte	0x121d
 9099 1216 1B       		.uleb128 0x1b
 9100 1217 01       		.uleb128 0x1
 9101 1218 50       		.byte	0x50
ARM GAS  C:\Users\FRANKL~1\AppData\Local\Temp\ccjWonOy.s 			page 201


 9102 1219 02       		.uleb128 0x2
 9103 121a 74       		.byte	0x74
 9104 121b 00       		.sleb128 0
 9105 121c 00       		.byte	0
 9106 121d 12       		.uleb128 0x12
 9107 121e 26000000 		.4byte	.LVL375
 9108 1222 4F110000 		.4byte	0x114f
 9109 1226 00       		.byte	0
 9110 1227 19       		.uleb128 0x19
 9111 1228 48000000 		.4byte	.LBB39
 9112 122c 20000000 		.4byte	.LBE39-.LBB39
 9113 1230 18       		.uleb128 0x18
 9114 1231 6900     		.ascii	"i\000"
 9115 1233 02       		.byte	0x2
 9116 1234 EC01     		.2byte	0x1ec
 9117 1236 AE000000 		.4byte	0xae
 9118 123a 780E0000 		.4byte	.LLST87
 9119 123e 1C       		.uleb128 0x1c
 9120 123f 50000000 		.4byte	.LVL384
 9121 1243 F5360000 		.4byte	0x36f5
 9122 1247 52120000 		.4byte	0x1252
 9123 124b 1B       		.uleb128 0x1b
 9124 124c 01       		.uleb128 0x1
 9125 124d 50       		.byte	0x50
 9126 124e 02       		.uleb128 0x2
 9127 124f 74       		.byte	0x74
 9128 1250 00       		.sleb128 0
 9129 1251 00       		.byte	0
 9130 1252 12       		.uleb128 0x12
 9131 1253 54000000 		.4byte	.LVL385
 9132 1257 4F110000 		.4byte	0x114f
 9133 125b 00       		.byte	0
 9134 125c 00       		.byte	0
 9135 125d 2B       		.uleb128 0x2b
 9136 125e 84000000 		.4byte	.LASF117
 9137 1262 02       		.byte	0x2
 9138 1263 F601     		.2byte	0x1f6
 9139 1265 25000000 		.4byte	0x25
 9140 1269 00000000 		.4byte	.LFB97
 9141 126d 30000000 		.4byte	.LFE97-.LFB97
 9142 1271 01       		.uleb128 0x1
 9143 1272 9C       		.byte	0x9c
 9144 1273 86120000 		.4byte	0x1286
 9145 1277 16       		.uleb128 0x16
 9146 1278 FF010000 		.4byte	.LASF118
 9147 127c 02       		.byte	0x2
 9148 127d F701     		.2byte	0x1f7
 9149 127f 25000000 		.4byte	0x25
 9150 1283 01       		.uleb128 0x1
 9151 1284 50       		.byte	0x50
 9152 1285 00       		.byte	0
 9153 1286 2B       		.uleb128 0x2b
 9154 1287 170F0000 		.4byte	.LASF119
 9155 128b 02       		.byte	0x2
 9156 128c FF01     		.2byte	0x1ff
 9157 128e 25000000 		.4byte	0x25
 9158 1292 00000000 		.4byte	.LFB98
ARM GAS  C:\Users\FRANKL~1\AppData\Local\Temp\ccjWonOy.s 			page 202


 9159 1296 48000000 		.4byte	.LFE98-.LFB98
 9160 129a 01       		.uleb128 0x1
 9161 129b 9C       		.byte	0x9c
 9162 129c B8120000 		.4byte	0x12b8
 9163 12a0 16       		.uleb128 0x16
 9164 12a1 FF010000 		.4byte	.LASF118
 9165 12a5 02       		.byte	0x2
 9166 12a6 0002     		.2byte	0x200
 9167 12a8 25000000 		.4byte	0x25
 9168 12ac 01       		.uleb128 0x1
 9169 12ad 50       		.byte	0x50
 9170 12ae 12       		.uleb128 0x12
 9171 12af 1C000000 		.4byte	.LVL395
 9172 12b3 5D120000 		.4byte	0x125d
 9173 12b7 00       		.byte	0
 9174 12b8 2B       		.uleb128 0x2b
 9175 12b9 A20D0000 		.4byte	.LASF120
 9176 12bd 02       		.byte	0x2
 9177 12be 0802     		.2byte	0x208
 9178 12c0 25000000 		.4byte	0x25
 9179 12c4 00000000 		.4byte	.LFB99
 9180 12c8 48000000 		.4byte	.LFE99-.LFB99
 9181 12cc 01       		.uleb128 0x1
 9182 12cd 9C       		.byte	0x9c
 9183 12ce EA120000 		.4byte	0x12ea
 9184 12d2 16       		.uleb128 0x16
 9185 12d3 FF010000 		.4byte	.LASF118
 9186 12d7 02       		.byte	0x2
 9187 12d8 0902     		.2byte	0x209
 9188 12da 25000000 		.4byte	0x25
 9189 12de 01       		.uleb128 0x1
 9190 12df 50       		.byte	0x50
 9191 12e0 12       		.uleb128 0x12
 9192 12e1 1C000000 		.4byte	.LVL401
 9193 12e5 5D120000 		.4byte	0x125d
 9194 12e9 00       		.byte	0
 9195 12ea 14       		.uleb128 0x14
 9196 12eb 690F0000 		.4byte	.LASF121
 9197 12ef 02       		.byte	0x2
 9198 12f0 1302     		.2byte	0x213
 9199 12f2 00000000 		.4byte	.LFB100
 9200 12f6 78000000 		.4byte	.LFE100-.LFB100
 9201 12fa 01       		.uleb128 0x1
 9202 12fb 9C       		.byte	0x9c
 9203 12fc BD130000 		.4byte	0x13bd
 9204 1300 25       		.uleb128 0x25
 9205 1301 06040000 		.4byte	.LASF122
 9206 1305 02       		.byte	0x2
 9207 1306 1302     		.2byte	0x213
 9208 1308 AE000000 		.4byte	0xae
 9209 130c 960E0000 		.4byte	.LLST88
 9210 1310 17       		.uleb128 0x17
 9211 1311 D0010000 		.4byte	.LASF114
 9212 1315 02       		.byte	0x2
 9213 1316 1602     		.2byte	0x216
 9214 1318 AE000000 		.4byte	0xae
 9215 131c B70E0000 		.4byte	.LLST89
ARM GAS  C:\Users\FRANKL~1\AppData\Local\Temp\ccjWonOy.s 			page 203


 9216 1320 17       		.uleb128 0x17
 9217 1321 BB030000 		.4byte	.LASF116
 9218 1325 02       		.byte	0x2
 9219 1326 1702     		.2byte	0x217
 9220 1328 D2000000 		.4byte	0xd2
 9221 132c CA0E0000 		.4byte	.LLST90
 9222 1330 15       		.uleb128 0x15
 9223 1331 22000000 		.4byte	.LBB40
 9224 1335 40000000 		.4byte	.LBE40-.LBB40
 9225 1339 AC130000 		.4byte	0x13ac
 9226 133d 18       		.uleb128 0x18
 9227 133e 6900     		.ascii	"i\000"
 9228 1340 02       		.byte	0x2
 9229 1341 1B02     		.2byte	0x21b
 9230 1343 AE000000 		.4byte	0xae
 9231 1347 E90E0000 		.4byte	.LLST91
 9232 134b 1F       		.uleb128 0x1f
 9233 134c C0000000 		.4byte	.Ldebug_ranges0+0xc0
 9234 1350 80130000 		.4byte	0x1380
 9235 1354 18       		.uleb128 0x18
 9236 1355 6A00     		.ascii	"j\000"
 9237 1357 02       		.byte	0x2
 9238 1358 1D02     		.2byte	0x21d
 9239 135a AE000000 		.4byte	0xae
 9240 135e 120F0000 		.4byte	.LLST92
 9241 1362 1C       		.uleb128 0x1c
 9242 1363 34000000 		.4byte	.LVL411
 9243 1367 EA360000 		.4byte	0x36ea
 9244 136b 76130000 		.4byte	0x1376
 9245 136f 1B       		.uleb128 0x1b
 9246 1370 01       		.uleb128 0x1
 9247 1371 50       		.byte	0x50
 9248 1372 02       		.uleb128 0x2
 9249 1373 74       		.byte	0x74
 9250 1374 00       		.sleb128 0
 9251 1375 00       		.byte	0
 9252 1376 12       		.uleb128 0x12
 9253 1377 38000000 		.4byte	.LVL412
 9254 137b 4F110000 		.4byte	0x114f
 9255 137f 00       		.byte	0
 9256 1380 12       		.uleb128 0x12
 9257 1381 2A000000 		.4byte	.LVL409
 9258 1385 4F110000 		.4byte	0x114f
 9259 1389 12       		.uleb128 0x12
 9260 138a 4A000000 		.4byte	.LVL417
 9261 138e 4F110000 		.4byte	0x114f
 9262 1392 12       		.uleb128 0x12
 9263 1393 50000000 		.4byte	.LVL418
 9264 1397 A8110000 		.4byte	0x11a8
 9265 139b 1A       		.uleb128 0x1a
 9266 139c 5A000000 		.4byte	.LVL420
 9267 13a0 EA360000 		.4byte	0x36ea
 9268 13a4 1B       		.uleb128 0x1b
 9269 13a5 01       		.uleb128 0x1
 9270 13a6 50       		.byte	0x50
 9271 13a7 02       		.uleb128 0x2
 9272 13a8 77       		.byte	0x77
ARM GAS  C:\Users\FRANKL~1\AppData\Local\Temp\ccjWonOy.s 			page 204


 9273 13a9 00       		.sleb128 0
 9274 13aa 00       		.byte	0
 9275 13ab 00       		.byte	0
 9276 13ac 1A       		.uleb128 0x1a
 9277 13ad 68000000 		.4byte	.LVL423
 9278 13b1 EA360000 		.4byte	0x36ea
 9279 13b5 1B       		.uleb128 0x1b
 9280 13b6 01       		.uleb128 0x1
 9281 13b7 50       		.byte	0x50
 9282 13b8 02       		.uleb128 0x2
 9283 13b9 78       		.byte	0x78
 9284 13ba 00       		.sleb128 0
 9285 13bb 00       		.byte	0
 9286 13bc 00       		.byte	0
 9287 13bd 14       		.uleb128 0x14
 9288 13be 41010000 		.4byte	.LASF123
 9289 13c2 02       		.byte	0x2
 9290 13c3 3002     		.2byte	0x230
 9291 13c5 00000000 		.4byte	.LFB101
 9292 13c9 78000000 		.4byte	.LFE101-.LFB101
 9293 13cd 01       		.uleb128 0x1
 9294 13ce 9C       		.byte	0x9c
 9295 13cf 90140000 		.4byte	0x1490
 9296 13d3 25       		.uleb128 0x25
 9297 13d4 06040000 		.4byte	.LASF122
 9298 13d8 02       		.byte	0x2
 9299 13d9 3002     		.2byte	0x230
 9300 13db AE000000 		.4byte	0xae
 9301 13df 3B0F0000 		.4byte	.LLST93
 9302 13e3 17       		.uleb128 0x17
 9303 13e4 BB030000 		.4byte	.LASF116
 9304 13e8 02       		.byte	0x2
 9305 13e9 3302     		.2byte	0x233
 9306 13eb D2000000 		.4byte	0xd2
 9307 13ef 5C0F0000 		.4byte	.LLST94
 9308 13f3 17       		.uleb128 0x17
 9309 13f4 D0010000 		.4byte	.LASF114
 9310 13f8 02       		.byte	0x2
 9311 13f9 3402     		.2byte	0x234
 9312 13fb AE000000 		.4byte	0xae
 9313 13ff 7B0F0000 		.4byte	.LLST95
 9314 1403 15       		.uleb128 0x15
 9315 1404 22000000 		.4byte	.LBB43
 9316 1408 40000000 		.4byte	.LBE43-.LBB43
 9317 140c 7F140000 		.4byte	0x147f
 9318 1410 18       		.uleb128 0x18
 9319 1411 6900     		.ascii	"i\000"
 9320 1413 02       		.byte	0x2
 9321 1414 3802     		.2byte	0x238
 9322 1416 AE000000 		.4byte	0xae
 9323 141a 8E0F0000 		.4byte	.LLST96
 9324 141e 1F       		.uleb128 0x1f
 9325 141f D8000000 		.4byte	.Ldebug_ranges0+0xd8
 9326 1423 53140000 		.4byte	0x1453
 9327 1427 18       		.uleb128 0x18
 9328 1428 6A00     		.ascii	"j\000"
 9329 142a 02       		.byte	0x2
ARM GAS  C:\Users\FRANKL~1\AppData\Local\Temp\ccjWonOy.s 			page 205


 9330 142b 3A02     		.2byte	0x23a
 9331 142d AE000000 		.4byte	0xae
 9332 1431 B70F0000 		.4byte	.LLST97
 9333 1435 1C       		.uleb128 0x1c
 9334 1436 34000000 		.4byte	.LVL432
 9335 143a F5360000 		.4byte	0x36f5
 9336 143e 49140000 		.4byte	0x1449
 9337 1442 1B       		.uleb128 0x1b
 9338 1443 01       		.uleb128 0x1
 9339 1444 50       		.byte	0x50
 9340 1445 02       		.uleb128 0x2
 9341 1446 74       		.byte	0x74
 9342 1447 00       		.sleb128 0
 9343 1448 00       		.byte	0
 9344 1449 12       		.uleb128 0x12
 9345 144a 38000000 		.4byte	.LVL433
 9346 144e 4F110000 		.4byte	0x114f
 9347 1452 00       		.byte	0
 9348 1453 12       		.uleb128 0x12
 9349 1454 2A000000 		.4byte	.LVL430
 9350 1458 4F110000 		.4byte	0x114f
 9351 145c 12       		.uleb128 0x12
 9352 145d 4A000000 		.4byte	.LVL438
 9353 1461 4F110000 		.4byte	0x114f
 9354 1465 12       		.uleb128 0x12
 9355 1466 50000000 		.4byte	.LVL439
 9356 146a A8110000 		.4byte	0x11a8
 9357 146e 1A       		.uleb128 0x1a
 9358 146f 5A000000 		.4byte	.LVL441
 9359 1473 F5360000 		.4byte	0x36f5
 9360 1477 1B       		.uleb128 0x1b
 9361 1478 01       		.uleb128 0x1
 9362 1479 50       		.byte	0x50
 9363 147a 02       		.uleb128 0x2
 9364 147b 77       		.byte	0x77
 9365 147c 00       		.sleb128 0
 9366 147d 00       		.byte	0
 9367 147e 00       		.byte	0
 9368 147f 1A       		.uleb128 0x1a
 9369 1480 68000000 		.4byte	.LVL444
 9370 1484 F5360000 		.4byte	0x36f5
 9371 1488 1B       		.uleb128 0x1b
 9372 1489 01       		.uleb128 0x1
 9373 148a 50       		.byte	0x50
 9374 148b 02       		.uleb128 0x2
 9375 148c 78       		.byte	0x78
 9376 148d 00       		.sleb128 0
 9377 148e 00       		.byte	0
 9378 148f 00       		.byte	0
 9379 1490 14       		.uleb128 0x14
 9380 1491 89050000 		.4byte	.LASF124
 9381 1495 02       		.byte	0x2
 9382 1496 4D02     		.2byte	0x24d
 9383 1498 00000000 		.4byte	.LFB102
 9384 149c C0000000 		.4byte	.LFE102-.LFB102
 9385 14a0 01       		.uleb128 0x1
 9386 14a1 9C       		.byte	0x9c
ARM GAS  C:\Users\FRANKL~1\AppData\Local\Temp\ccjWonOy.s 			page 206


 9387 14a2 A6150000 		.4byte	0x15a6
 9388 14a6 25       		.uleb128 0x25
 9389 14a7 06040000 		.4byte	.LASF122
 9390 14ab 02       		.byte	0x2
 9391 14ac 4D02     		.2byte	0x24d
 9392 14ae AE000000 		.4byte	0xae
 9393 14b2 E00F0000 		.4byte	.LLST98
 9394 14b6 17       		.uleb128 0x17
 9395 14b7 BB030000 		.4byte	.LASF116
 9396 14bb 02       		.byte	0x2
 9397 14bc 5002     		.2byte	0x250
 9398 14be D2000000 		.4byte	0xd2
 9399 14c2 FE0F0000 		.4byte	.LLST99
 9400 14c6 17       		.uleb128 0x17
 9401 14c7 63050000 		.4byte	.LASF125
 9402 14cb 02       		.byte	0x2
 9403 14cc 6702     		.2byte	0x267
 9404 14ce DE000000 		.4byte	0xde
 9405 14d2 1D100000 		.4byte	.LLST100
 9406 14d6 17       		.uleb128 0x17
 9407 14d7 24040000 		.4byte	.LASF126
 9408 14db 02       		.byte	0x2
 9409 14dc 6802     		.2byte	0x268
 9410 14de DE000000 		.4byte	0xde
 9411 14e2 30100000 		.4byte	.LLST101
 9412 14e6 15       		.uleb128 0x15
 9413 14e7 20000000 		.4byte	.LBB46
 9414 14eb 54000000 		.4byte	.LBE46-.LBB46
 9415 14ef 6D150000 		.4byte	0x156d
 9416 14f3 18       		.uleb128 0x18
 9417 14f4 6900     		.ascii	"i\000"
 9418 14f6 02       		.byte	0x2
 9419 14f7 5402     		.2byte	0x254
 9420 14f9 AE000000 		.4byte	0xae
 9421 14fd 43100000 		.4byte	.LLST102
 9422 1501 19       		.uleb128 0x19
 9423 1502 28000000 		.4byte	.LBB47
 9424 1506 44000000 		.4byte	.LBE47-.LBB47
 9425 150a 17       		.uleb128 0x17
 9426 150b 63050000 		.4byte	.LASF125
 9427 150f 02       		.byte	0x2
 9428 1510 5802     		.2byte	0x258
 9429 1512 DE000000 		.4byte	0xde
 9430 1516 61100000 		.4byte	.LLST103
 9431 151a 17       		.uleb128 0x17
 9432 151b 24040000 		.4byte	.LASF126
 9433 151f 02       		.byte	0x2
 9434 1520 5902     		.2byte	0x259
 9435 1522 DE000000 		.4byte	0xde
 9436 1526 74100000 		.4byte	.LLST104
 9437 152a 12       		.uleb128 0x12
 9438 152b 2C000000 		.4byte	.LVL450
 9439 152f 4F110000 		.4byte	0x114f
 9440 1533 1C       		.uleb128 0x1c
 9441 1534 60000000 		.4byte	.LVL457
 9442 1538 00370000 		.4byte	0x3700
 9443 153c 47150000 		.4byte	0x1547
ARM GAS  C:\Users\FRANKL~1\AppData\Local\Temp\ccjWonOy.s 			page 207


 9444 1540 1B       		.uleb128 0x1b
 9445 1541 01       		.uleb128 0x1
 9446 1542 50       		.byte	0x50
 9447 1543 02       		.uleb128 0x2
 9448 1544 76       		.byte	0x76
 9449 1545 00       		.sleb128 0
 9450 1546 00       		.byte	0
 9451 1547 1C       		.uleb128 0x1c
 9452 1548 66000000 		.4byte	.LVL458
 9453 154c F5360000 		.4byte	0x36f5
 9454 1550 5B150000 		.4byte	0x155b
 9455 1554 1B       		.uleb128 0x1b
 9456 1555 01       		.uleb128 0x1
 9457 1556 50       		.byte	0x50
 9458 1557 02       		.uleb128 0x2
 9459 1558 75       		.byte	0x75
 9460 1559 00       		.sleb128 0
 9461 155a 00       		.byte	0
 9462 155b 1A       		.uleb128 0x1a
 9463 155c 6C000000 		.4byte	.LVL459
 9464 1560 EA360000 		.4byte	0x36ea
 9465 1564 1B       		.uleb128 0x1b
 9466 1565 01       		.uleb128 0x1
 9467 1566 50       		.byte	0x50
 9468 1567 02       		.uleb128 0x2
 9469 1568 74       		.byte	0x74
 9470 1569 00       		.sleb128 0
 9471 156a 00       		.byte	0
 9472 156b 00       		.byte	0
 9473 156c 00       		.byte	0
 9474 156d 1C       		.uleb128 0x1c
 9475 156e A4000000 		.4byte	.LVL468
 9476 1572 00370000 		.4byte	0x3700
 9477 1576 81150000 		.4byte	0x1581
 9478 157a 1B       		.uleb128 0x1b
 9479 157b 01       		.uleb128 0x1
 9480 157c 50       		.byte	0x50
 9481 157d 02       		.uleb128 0x2
 9482 157e 77       		.byte	0x77
 9483 157f 00       		.sleb128 0
 9484 1580 00       		.byte	0
 9485 1581 1C       		.uleb128 0x1c
 9486 1582 AA000000 		.4byte	.LVL469
 9487 1586 F5360000 		.4byte	0x36f5
 9488 158a 95150000 		.4byte	0x1595
 9489 158e 1B       		.uleb128 0x1b
 9490 158f 01       		.uleb128 0x1
 9491 1590 50       		.byte	0x50
 9492 1591 02       		.uleb128 0x2
 9493 1592 75       		.byte	0x75
 9494 1593 00       		.sleb128 0
 9495 1594 00       		.byte	0
 9496 1595 1A       		.uleb128 0x1a
 9497 1596 B0000000 		.4byte	.LVL470
 9498 159a EA360000 		.4byte	0x36ea
 9499 159e 1B       		.uleb128 0x1b
 9500 159f 01       		.uleb128 0x1
ARM GAS  C:\Users\FRANKL~1\AppData\Local\Temp\ccjWonOy.s 			page 208


 9501 15a0 50       		.byte	0x50
 9502 15a1 02       		.uleb128 0x2
 9503 15a2 74       		.byte	0x74
 9504 15a3 00       		.sleb128 0
 9505 15a4 00       		.byte	0
 9506 15a5 00       		.byte	0
 9507 15a6 14       		.uleb128 0x14
 9508 15a7 D1000000 		.4byte	.LASF127
 9509 15ab 02       		.byte	0x2
 9510 15ac 7702     		.2byte	0x277
 9511 15ae 00000000 		.4byte	.LFB103
 9512 15b2 C8000000 		.4byte	.LFE103-.LFB103
 9513 15b6 01       		.uleb128 0x1
 9514 15b7 9C       		.byte	0x9c
 9515 15b8 78160000 		.4byte	0x1678
 9516 15bc 25       		.uleb128 0x25
 9517 15bd 06040000 		.4byte	.LASF122
 9518 15c1 02       		.byte	0x2
 9519 15c2 7702     		.2byte	0x277
 9520 15c4 DE000000 		.4byte	0xde
 9521 15c8 87100000 		.4byte	.LLST105
 9522 15cc 17       		.uleb128 0x17
 9523 15cd 16000000 		.4byte	.LASF128
 9524 15d1 02       		.byte	0x2
 9525 15d2 7B02     		.2byte	0x27b
 9526 15d4 DE000000 		.4byte	0xde
 9527 15d8 A5100000 		.4byte	.LLST106
 9528 15dc 17       		.uleb128 0x17
 9529 15dd 62060000 		.4byte	.LASF129
 9530 15e1 02       		.byte	0x2
 9531 15e2 8902     		.2byte	0x289
 9532 15e4 BA000000 		.4byte	0xba
 9533 15e8 E4100000 		.4byte	.LLST107
 9534 15ec 17       		.uleb128 0x17
 9535 15ed 98070000 		.4byte	.LASF130
 9536 15f1 02       		.byte	0x2
 9537 15f2 8A02     		.2byte	0x28a
 9538 15f4 BA000000 		.4byte	0xba
 9539 15f8 F7100000 		.4byte	.LLST108
 9540 15fc 17       		.uleb128 0x17
 9541 15fd EA050000 		.4byte	.LASF131
 9542 1601 02       		.byte	0x2
 9543 1602 8B02     		.2byte	0x28b
 9544 1604 BA000000 		.4byte	0xba
 9545 1608 0A110000 		.4byte	.LLST109
 9546 160c 17       		.uleb128 0x17
 9547 160d 940D0000 		.4byte	.LASF132
 9548 1611 02       		.byte	0x2
 9549 1612 8C02     		.2byte	0x28c
 9550 1614 BA000000 		.4byte	0xba
 9551 1618 1D110000 		.4byte	.LLST110
 9552 161c 17       		.uleb128 0x17
 9553 161d A40E0000 		.4byte	.LASF133
 9554 1621 02       		.byte	0x2
 9555 1622 8E02     		.2byte	0x28e
 9556 1624 BA000000 		.4byte	0xba
 9557 1628 30110000 		.4byte	.LLST111
ARM GAS  C:\Users\FRANKL~1\AppData\Local\Temp\ccjWonOy.s 			page 209


 9558 162c 12       		.uleb128 0x12
 9559 162d 32000000 		.4byte	.LVL478
 9560 1631 90140000 		.4byte	0x1490
 9561 1635 1C       		.uleb128 0x1c
 9562 1636 38000000 		.4byte	.LVL479
 9563 163a EA120000 		.4byte	0x12ea
 9564 163e 49160000 		.4byte	0x1649
 9565 1642 1B       		.uleb128 0x1b
 9566 1643 01       		.uleb128 0x1
 9567 1644 50       		.byte	0x50
 9568 1645 02       		.uleb128 0x2
 9569 1646 09       		.byte	0x9
 9570 1647 FF       		.byte	0xff
 9571 1648 00       		.byte	0
 9572 1649 12       		.uleb128 0x12
 9573 164a 4A000000 		.4byte	.LVL483
 9574 164e 90140000 		.4byte	0x1490
 9575 1652 1C       		.uleb128 0x1c
 9576 1653 50000000 		.4byte	.LVL484
 9577 1657 EA120000 		.4byte	0x12ea
 9578 165b 65160000 		.4byte	0x1665
 9579 165f 1B       		.uleb128 0x1b
 9580 1660 01       		.uleb128 0x1
 9581 1661 50       		.byte	0x50
 9582 1662 01       		.uleb128 0x1
 9583 1663 30       		.byte	0x30
 9584 1664 00       		.byte	0
 9585 1665 12       		.uleb128 0x12
 9586 1666 58000000 		.4byte	.LVL486
 9587 166a EA120000 		.4byte	0x12ea
 9588 166e 12       		.uleb128 0x12
 9589 166f B8000000 		.4byte	.LVL497
 9590 1673 90140000 		.4byte	0x1490
 9591 1677 00       		.byte	0
 9592 1678 14       		.uleb128 0x14
 9593 1679 FA030000 		.4byte	.LASF134
 9594 167d 02       		.byte	0x2
 9595 167e 9902     		.2byte	0x299
 9596 1680 00000000 		.4byte	.LFB104
 9597 1684 C8000000 		.4byte	.LFE104-.LFB104
 9598 1688 01       		.uleb128 0x1
 9599 1689 9C       		.byte	0x9c
 9600 168a 4A170000 		.4byte	0x174a
 9601 168e 25       		.uleb128 0x25
 9602 168f 06040000 		.4byte	.LASF122
 9603 1693 02       		.byte	0x2
 9604 1694 9902     		.2byte	0x299
 9605 1696 DE000000 		.4byte	0xde
 9606 169a 6F110000 		.4byte	.LLST112
 9607 169e 17       		.uleb128 0x17
 9608 169f 16000000 		.4byte	.LASF128
 9609 16a3 02       		.byte	0x2
 9610 16a4 9D02     		.2byte	0x29d
 9611 16a6 DE000000 		.4byte	0xde
 9612 16aa 8D110000 		.4byte	.LLST113
 9613 16ae 17       		.uleb128 0x17
 9614 16af 62060000 		.4byte	.LASF129
ARM GAS  C:\Users\FRANKL~1\AppData\Local\Temp\ccjWonOy.s 			page 210


 9615 16b3 02       		.byte	0x2
 9616 16b4 AB02     		.2byte	0x2ab
 9617 16b6 BA000000 		.4byte	0xba
 9618 16ba CC110000 		.4byte	.LLST114
 9619 16be 17       		.uleb128 0x17
 9620 16bf 98070000 		.4byte	.LASF130
 9621 16c3 02       		.byte	0x2
 9622 16c4 AC02     		.2byte	0x2ac
 9623 16c6 BA000000 		.4byte	0xba
 9624 16ca DF110000 		.4byte	.LLST115
 9625 16ce 17       		.uleb128 0x17
 9626 16cf EA050000 		.4byte	.LASF131
 9627 16d3 02       		.byte	0x2
 9628 16d4 AD02     		.2byte	0x2ad
 9629 16d6 BA000000 		.4byte	0xba
 9630 16da F2110000 		.4byte	.LLST116
 9631 16de 17       		.uleb128 0x17
 9632 16df 940D0000 		.4byte	.LASF132
 9633 16e3 02       		.byte	0x2
 9634 16e4 AE02     		.2byte	0x2ae
 9635 16e6 BA000000 		.4byte	0xba
 9636 16ea 05120000 		.4byte	.LLST117
 9637 16ee 17       		.uleb128 0x17
 9638 16ef A40E0000 		.4byte	.LASF133
 9639 16f3 02       		.byte	0x2
 9640 16f4 B002     		.2byte	0x2b0
 9641 16f6 BA000000 		.4byte	0xba
 9642 16fa 18120000 		.4byte	.LLST118
 9643 16fe 12       		.uleb128 0x12
 9644 16ff 32000000 		.4byte	.LVL505
 9645 1703 90140000 		.4byte	0x1490
 9646 1707 1C       		.uleb128 0x1c
 9647 1708 38000000 		.4byte	.LVL506
 9648 170c BD130000 		.4byte	0x13bd
 9649 1710 1B170000 		.4byte	0x171b
 9650 1714 1B       		.uleb128 0x1b
 9651 1715 01       		.uleb128 0x1
 9652 1716 50       		.byte	0x50
 9653 1717 02       		.uleb128 0x2
 9654 1718 09       		.byte	0x9
 9655 1719 FF       		.byte	0xff
 9656 171a 00       		.byte	0
 9657 171b 12       		.uleb128 0x12
 9658 171c 4A000000 		.4byte	.LVL510
 9659 1720 90140000 		.4byte	0x1490
 9660 1724 1C       		.uleb128 0x1c
 9661 1725 50000000 		.4byte	.LVL511
 9662 1729 BD130000 		.4byte	0x13bd
 9663 172d 37170000 		.4byte	0x1737
 9664 1731 1B       		.uleb128 0x1b
 9665 1732 01       		.uleb128 0x1
 9666 1733 50       		.byte	0x50
 9667 1734 01       		.uleb128 0x1
 9668 1735 30       		.byte	0x30
 9669 1736 00       		.byte	0
 9670 1737 12       		.uleb128 0x12
 9671 1738 58000000 		.4byte	.LVL513
ARM GAS  C:\Users\FRANKL~1\AppData\Local\Temp\ccjWonOy.s 			page 211


 9672 173c BD130000 		.4byte	0x13bd
 9673 1740 12       		.uleb128 0x12
 9674 1741 B8000000 		.4byte	.LVL524
 9675 1745 90140000 		.4byte	0x1490
 9676 1749 00       		.byte	0
 9677 174a 28       		.uleb128 0x28
 9678 174b F60D0000 		.4byte	.LASF135
 9679 174f 02       		.byte	0x2
 9680 1750 BC02     		.2byte	0x2bc
 9681 1752 00000000 		.4byte	.LFB105
 9682 1756 38000000 		.4byte	.LFE105-.LFB105
 9683 175a 01       		.uleb128 0x1
 9684 175b 9C       		.byte	0x9c
 9685 175c 7A170000 		.4byte	0x177a
 9686 1760 25       		.uleb128 0x25
 9687 1761 F8050000 		.4byte	.LASF136
 9688 1765 02       		.byte	0x2
 9689 1766 BC02     		.2byte	0x2bc
 9690 1768 25000000 		.4byte	0x25
 9691 176c 57120000 		.4byte	.LLST119
 9692 1770 12       		.uleb128 0x12
 9693 1771 24000000 		.4byte	.LVL531
 9694 1775 78160000 		.4byte	0x1678
 9695 1779 00       		.byte	0
 9696 177a 28       		.uleb128 0x28
 9697 177b 130C0000 		.4byte	.LASF137
 9698 177f 02       		.byte	0x2
 9699 1780 C102     		.2byte	0x2c1
 9700 1782 00000000 		.4byte	.LFB106
 9701 1786 38000000 		.4byte	.LFE106-.LFB106
 9702 178a 01       		.uleb128 0x1
 9703 178b 9C       		.byte	0x9c
 9704 178c AA170000 		.4byte	0x17aa
 9705 1790 25       		.uleb128 0x25
 9706 1791 F8050000 		.4byte	.LASF136
 9707 1795 02       		.byte	0x2
 9708 1796 C102     		.2byte	0x2c1
 9709 1798 25000000 		.4byte	0x25
 9710 179c 7A120000 		.4byte	.LLST120
 9711 17a0 12       		.uleb128 0x12
 9712 17a1 24000000 		.4byte	.LVL537
 9713 17a5 A6150000 		.4byte	0x15a6
 9714 17a9 00       		.byte	0
 9715 17aa 28       		.uleb128 0x28
 9716 17ab 7A0A0000 		.4byte	.LASF138
 9717 17af 02       		.byte	0x2
 9718 17b0 C702     		.2byte	0x2c7
 9719 17b2 00000000 		.4byte	.LFB107
 9720 17b6 14000000 		.4byte	.LFE107-.LFB107
 9721 17ba 01       		.uleb128 0x1
 9722 17bb 9C       		.byte	0x9c
 9723 17bc D9170000 		.4byte	0x17d9
 9724 17c0 2C       		.uleb128 0x2c
 9725 17c1 6D5600   		.ascii	"mV\000"
 9726 17c4 02       		.byte	0x2
 9727 17c5 C702     		.2byte	0x2c7
 9728 17c7 25000000 		.4byte	0x25
ARM GAS  C:\Users\FRANKL~1\AppData\Local\Temp\ccjWonOy.s 			page 212


 9729 17cb 9D120000 		.4byte	.LLST121
 9730 17cf 12       		.uleb128 0x12
 9731 17d0 0C000000 		.4byte	.LVL540
 9732 17d4 4A170000 		.4byte	0x174a
 9733 17d8 00       		.byte	0
 9734 17d9 28       		.uleb128 0x28
 9735 17da F4010000 		.4byte	.LASF139
 9736 17de 02       		.byte	0x2
 9737 17df CC02     		.2byte	0x2cc
 9738 17e1 00000000 		.4byte	.LFB108
 9739 17e5 14000000 		.4byte	.LFE108-.LFB108
 9740 17e9 01       		.uleb128 0x1
 9741 17ea 9C       		.byte	0x9c
 9742 17eb 08180000 		.4byte	0x1808
 9743 17ef 2C       		.uleb128 0x2c
 9744 17f0 6D5600   		.ascii	"mV\000"
 9745 17f3 02       		.byte	0x2
 9746 17f4 CC02     		.2byte	0x2cc
 9747 17f6 25000000 		.4byte	0x25
 9748 17fa C0120000 		.4byte	.LLST122
 9749 17fe 12       		.uleb128 0x12
 9750 17ff 0C000000 		.4byte	.LVL543
 9751 1803 7A170000 		.4byte	0x177a
 9752 1807 00       		.byte	0
 9753 1808 24       		.uleb128 0x24
 9754 1809 E6040000 		.4byte	.LASF140
 9755 180d 02       		.byte	0x2
 9756 180e D202     		.2byte	0x2d2
 9757 1810 00000000 		.4byte	.LFB109
 9758 1814 1C000000 		.4byte	.LFE109-.LFB109
 9759 1818 01       		.uleb128 0x1
 9760 1819 9C       		.byte	0x9c
 9761 181a 67180000 		.4byte	0x1867
 9762 181e 1C       		.uleb128 0x1c
 9763 181f 08000000 		.4byte	.LVL544
 9764 1823 EA120000 		.4byte	0x12ea
 9765 1827 31180000 		.4byte	0x1831
 9766 182b 1B       		.uleb128 0x1b
 9767 182c 01       		.uleb128 0x1
 9768 182d 50       		.byte	0x50
 9769 182e 01       		.uleb128 0x1
 9770 182f 30       		.byte	0x30
 9771 1830 00       		.byte	0
 9772 1831 1C       		.uleb128 0x1c
 9773 1832 0E000000 		.4byte	.LVL545
 9774 1836 BD130000 		.4byte	0x13bd
 9775 183a 44180000 		.4byte	0x1844
 9776 183e 1B       		.uleb128 0x1b
 9777 183f 01       		.uleb128 0x1
 9778 1840 50       		.byte	0x50
 9779 1841 01       		.uleb128 0x1
 9780 1842 30       		.byte	0x30
 9781 1843 00       		.byte	0
 9782 1844 1C       		.uleb128 0x1c
 9783 1845 14000000 		.4byte	.LVL546
 9784 1849 EA360000 		.4byte	0x36ea
 9785 184d 57180000 		.4byte	0x1857
ARM GAS  C:\Users\FRANKL~1\AppData\Local\Temp\ccjWonOy.s 			page 213


 9786 1851 1B       		.uleb128 0x1b
 9787 1852 01       		.uleb128 0x1
 9788 1853 50       		.byte	0x50
 9789 1854 01       		.uleb128 0x1
 9790 1855 30       		.byte	0x30
 9791 1856 00       		.byte	0
 9792 1857 1A       		.uleb128 0x1a
 9793 1858 1A000000 		.4byte	.LVL547
 9794 185c F5360000 		.4byte	0x36f5
 9795 1860 1B       		.uleb128 0x1b
 9796 1861 01       		.uleb128 0x1
 9797 1862 50       		.byte	0x50
 9798 1863 01       		.uleb128 0x1
 9799 1864 30       		.byte	0x30
 9800 1865 00       		.byte	0
 9801 1866 00       		.byte	0
 9802 1867 28       		.uleb128 0x28
 9803 1868 8F0E0000 		.4byte	.LASF141
 9804 186c 02       		.byte	0x2
 9805 186d DA02     		.2byte	0x2da
 9806 186f 00000000 		.4byte	.LFB110
 9807 1873 A8000000 		.4byte	.LFE110-.LFB110
 9808 1877 01       		.uleb128 0x1
 9809 1878 9C       		.byte	0x9c
 9810 1879 A2190000 		.4byte	0x19a2
 9811 187d 25       		.uleb128 0x25
 9812 187e D0070000 		.4byte	.LASF84
 9813 1882 02       		.byte	0x2
 9814 1883 DA02     		.2byte	0x2da
 9815 1885 C6000000 		.4byte	0xc6
 9816 1889 E3120000 		.4byte	.LLST123
 9817 188d 17       		.uleb128 0x17
 9818 188e C5030000 		.4byte	.LASF142
 9819 1892 02       		.byte	0x2
 9820 1893 DB02     		.2byte	0x2db
 9821 1895 AE000000 		.4byte	0xae
 9822 1899 0F130000 		.4byte	.LLST124
 9823 189d 16       		.uleb128 0x16
 9824 189e F8050000 		.4byte	.LASF136
 9825 18a2 02       		.byte	0x2
 9826 18a3 E202     		.2byte	0x2e2
 9827 18a5 EA000000 		.4byte	0xea
 9828 18a9 02       		.uleb128 0x2
 9829 18aa 91       		.byte	0x91
 9830 18ab 64       		.sleb128 -28
 9831 18ac 16       		.uleb128 0x16
 9832 18ad 32060000 		.4byte	.LASF143
 9833 18b1 02       		.byte	0x2
 9834 18b2 E302     		.2byte	0x2e3
 9835 18b4 EA000000 		.4byte	0xea
 9836 18b8 02       		.uleb128 0x2
 9837 18b9 91       		.byte	0x91
 9838 18ba 60       		.sleb128 -32
 9839 18bb 15       		.uleb128 0x15
 9840 18bc 1E000000 		.4byte	.LBB48
 9841 18c0 4C000000 		.4byte	.LBE48-.LBB48
 9842 18c4 5A190000 		.4byte	0x195a
ARM GAS  C:\Users\FRANKL~1\AppData\Local\Temp\ccjWonOy.s 			page 214


 9843 18c8 18       		.uleb128 0x18
 9844 18c9 6900     		.ascii	"i\000"
 9845 18cb 02       		.byte	0x2
 9846 18cc E602     		.2byte	0x2e6
 9847 18ce AE000000 		.4byte	0xae
 9848 18d2 22130000 		.4byte	.LLST125
 9849 18d6 1C       		.uleb128 0x1c
 9850 18d7 26000000 		.4byte	.LVL555
 9851 18db 710B0000 		.4byte	0xb71
 9852 18df EA180000 		.4byte	0x18ea
 9853 18e3 1B       		.uleb128 0x1b
 9854 18e4 01       		.uleb128 0x1
 9855 18e5 50       		.byte	0x50
 9856 18e6 02       		.uleb128 0x2
 9857 18e7 74       		.byte	0x74
 9858 18e8 00       		.sleb128 0
 9859 18e9 00       		.byte	0
 9860 18ea 1C       		.uleb128 0x1c
 9861 18eb 30000000 		.4byte	.LVL556
 9862 18ef B70C0000 		.4byte	0xcb7
 9863 18f3 09190000 		.4byte	0x1909
 9864 18f7 1B       		.uleb128 0x1b
 9865 18f8 01       		.uleb128 0x1
 9866 18f9 50       		.byte	0x50
 9867 18fa 02       		.uleb128 0x2
 9868 18fb 91       		.byte	0x91
 9869 18fc 64       		.sleb128 -28
 9870 18fd 1B       		.uleb128 0x1b
 9871 18fe 01       		.uleb128 0x1
 9872 18ff 51       		.byte	0x51
 9873 1900 02       		.uleb128 0x2
 9874 1901 91       		.byte	0x91
 9875 1902 60       		.sleb128 -32
 9876 1903 1B       		.uleb128 0x1b
 9877 1904 01       		.uleb128 0x1
 9878 1905 52       		.byte	0x52
 9879 1906 01       		.uleb128 0x1
 9880 1907 33       		.byte	0x33
 9881 1908 00       		.byte	0
 9882 1909 1C       		.uleb128 0x1c
 9883 190a 3A000000 		.4byte	.LVL557
 9884 190e B70C0000 		.4byte	0xcb7
 9885 1912 29190000 		.4byte	0x1929
 9886 1916 1B       		.uleb128 0x1b
 9887 1917 01       		.uleb128 0x1
 9888 1918 50       		.byte	0x50
 9889 1919 02       		.uleb128 0x2
 9890 191a 91       		.byte	0x91
 9891 191b 64       		.sleb128 -28
 9892 191c 1B       		.uleb128 0x1b
 9893 191d 01       		.uleb128 0x1
 9894 191e 51       		.byte	0x51
 9895 191f 02       		.uleb128 0x2
 9896 1920 91       		.byte	0x91
 9897 1921 60       		.sleb128 -32
 9898 1922 1B       		.uleb128 0x1b
 9899 1923 01       		.uleb128 0x1
ARM GAS  C:\Users\FRANKL~1\AppData\Local\Temp\ccjWonOy.s 			page 215


 9900 1924 52       		.byte	0x52
 9901 1925 02       		.uleb128 0x2
 9902 1926 75       		.byte	0x75
 9903 1927 00       		.sleb128 0
 9904 1928 00       		.byte	0
 9905 1929 1C       		.uleb128 0x1c
 9906 192a 5E000000 		.4byte	.LVL559
 9907 192e 45360000 		.4byte	0x3645
 9908 1932 50190000 		.4byte	0x1950
 9909 1936 1B       		.uleb128 0x1b
 9910 1937 01       		.uleb128 0x1
 9911 1938 50       		.byte	0x50
 9912 1939 05       		.uleb128 0x5
 9913 193a 03       		.byte	0x3
 9914 193b 00000000 		.4byte	TransmitBuffer
 9915 193f 1B       		.uleb128 0x1b
 9916 1940 01       		.uleb128 0x1
 9917 1941 51       		.byte	0x51
 9918 1942 05       		.uleb128 0x5
 9919 1943 03       		.byte	0x3
 9920 1944 A8000000 		.4byte	.LC11
 9921 1948 1B       		.uleb128 0x1b
 9922 1949 02       		.uleb128 0x2
 9923 194a 7D       		.byte	0x7d
 9924 194b 00       		.sleb128 0
 9925 194c 02       		.uleb128 0x2
 9926 194d 77       		.byte	0x77
 9927 194e 00       		.sleb128 0
 9928 194f 00       		.byte	0
 9929 1950 12       		.uleb128 0x12
 9930 1951 62000000 		.4byte	.LVL560
 9931 1955 B5050000 		.4byte	0x5b5
 9932 1959 00       		.byte	0
 9933 195a 1C       		.uleb128 0x1c
 9934 195b 12000000 		.4byte	.LVL551
 9935 195f 7A170000 		.4byte	0x177a
 9936 1963 6F190000 		.4byte	0x196f
 9937 1967 1B       		.uleb128 0x1b
 9938 1968 01       		.uleb128 0x1
 9939 1969 50       		.byte	0x50
 9940 196a 03       		.uleb128 0x3
 9941 196b F5       		.byte	0xf5
 9942 196c 04       		.uleb128 0x4
 9943 196d 25       		.uleb128 0x25
 9944 196e 00       		.byte	0
 9945 196f 1C       		.uleb128 0x1c
 9946 1970 18000000 		.4byte	.LVL552
 9947 1974 4A170000 		.4byte	0x174a
 9948 1978 84190000 		.4byte	0x1984
 9949 197c 1B       		.uleb128 0x1b
 9950 197d 01       		.uleb128 0x1
 9951 197e 50       		.byte	0x50
 9952 197f 03       		.uleb128 0x3
 9953 1980 F5       		.byte	0xf5
 9954 1981 04       		.uleb128 0x4
 9955 1982 25       		.uleb128 0x25
 9956 1983 00       		.byte	0
ARM GAS  C:\Users\FRANKL~1\AppData\Local\Temp\ccjWonOy.s 			page 216


 9957 1984 1C       		.uleb128 0x1c
 9958 1985 70000000 		.4byte	.LVL563
 9959 1989 710B0000 		.4byte	0xb71
 9960 198d 98190000 		.4byte	0x1998
 9961 1991 1B       		.uleb128 0x1b
 9962 1992 01       		.uleb128 0x1
 9963 1993 50       		.byte	0x50
 9964 1994 02       		.uleb128 0x2
 9965 1995 76       		.byte	0x76
 9966 1996 00       		.sleb128 0
 9967 1997 00       		.byte	0
 9968 1998 12       		.uleb128 0x12
 9969 1999 90000000 		.4byte	.LVL566
 9970 199d B5050000 		.4byte	0x5b5
 9971 19a1 00       		.byte	0
 9972 19a2 28       		.uleb128 0x28
 9973 19a3 5A0B0000 		.4byte	.LASF144
 9974 19a7 02       		.byte	0x2
 9975 19a8 F802     		.2byte	0x2f8
 9976 19aa 00000000 		.4byte	.LFB111
 9977 19ae 5C000000 		.4byte	.LFE111-.LFB111
 9978 19b2 01       		.uleb128 0x1
 9979 19b3 9C       		.byte	0x9c
 9980 19b4 681A0000 		.4byte	0x1a68
 9981 19b8 25       		.uleb128 0x25
 9982 19b9 EF0B0000 		.4byte	.LASF145
 9983 19bd 02       		.byte	0x2
 9984 19be F802     		.2byte	0x2f8
 9985 19c0 C6000000 		.4byte	0xc6
 9986 19c4 4C130000 		.4byte	.LLST126
 9987 19c8 25       		.uleb128 0x25
 9988 19c9 7E0E0000 		.4byte	.LASF146
 9989 19cd 02       		.byte	0x2
 9990 19ce F802     		.2byte	0x2f8
 9991 19d0 C6000000 		.4byte	0xc6
 9992 19d4 78130000 		.4byte	.LLST127
 9993 19d8 25       		.uleb128 0x25
 9994 19d9 58040000 		.4byte	.LASF147
 9995 19dd 02       		.byte	0x2
 9996 19de F802     		.2byte	0x2f8
 9997 19e0 C6000000 		.4byte	0xc6
 9998 19e4 99130000 		.4byte	.LLST128
 9999 19e8 16       		.uleb128 0x16
 10000 19e9 1F0F0000 		.4byte	.LASF148
 10001 19ed 02       		.byte	0x2
 10002 19ee F902     		.2byte	0x2f9
 10003 19f0 25000000 		.4byte	0x25
 10004 19f4 02       		.uleb128 0x2
 10005 19f5 91       		.byte	0x91
 10006 19f6 6C       		.sleb128 -20
 10007 19f7 16       		.uleb128 0x16
 10008 19f8 DF0E0000 		.4byte	.LASF149
 10009 19fc 02       		.byte	0x2
 10010 19fd FA02     		.2byte	0x2fa
 10011 19ff 25000000 		.4byte	0x25
 10012 1a03 02       		.uleb128 0x2
 10013 1a04 91       		.byte	0x91
ARM GAS  C:\Users\FRANKL~1\AppData\Local\Temp\ccjWonOy.s 			page 217


 10014 1a05 68       		.sleb128 -24
 10015 1a06 1C       		.uleb128 0x1c
 10016 1a07 18000000 		.4byte	.LVL572
 10017 1a0b F30F0000 		.4byte	0xff3
 10018 1a0f 2C1A0000 		.4byte	0x1a2c
 10019 1a13 1B       		.uleb128 0x1b
 10020 1a14 01       		.uleb128 0x1
 10021 1a15 50       		.byte	0x50
 10022 1a16 02       		.uleb128 0x2
 10023 1a17 91       		.byte	0x91
 10024 1a18 6C       		.sleb128 -20
 10025 1a19 1B       		.uleb128 0x1b
 10026 1a1a 01       		.uleb128 0x1
 10027 1a1b 51       		.byte	0x51
 10028 1a1c 02       		.uleb128 0x2
 10029 1a1d 91       		.byte	0x91
 10030 1a1e 68       		.sleb128 -24
 10031 1a1f 1B       		.uleb128 0x1b
 10032 1a20 01       		.uleb128 0x1
 10033 1a21 52       		.byte	0x52
 10034 1a22 03       		.uleb128 0x3
 10035 1a23 F3       		.byte	0xf3
 10036 1a24 01       		.uleb128 0x1
 10037 1a25 50       		.byte	0x50
 10038 1a26 1B       		.uleb128 0x1b
 10039 1a27 01       		.uleb128 0x1
 10040 1a28 53       		.byte	0x53
 10041 1a29 01       		.uleb128 0x1
 10042 1a2a 30       		.byte	0x30
 10043 1a2b 00       		.byte	0
 10044 1a2c 12       		.uleb128 0x12
 10045 1a2d 26000000 		.4byte	.LVL574
 10046 1a31 86120000 		.4byte	0x1286
 10047 1a35 12       		.uleb128 0x12
 10048 1a36 2C000000 		.4byte	.LVL575
 10049 1a3a B8120000 		.4byte	0x12b8
 10050 1a3e 1C       		.uleb128 0x1c
 10051 1a3f 4A000000 		.4byte	.LVL578
 10052 1a43 45360000 		.4byte	0x3645
 10053 1a47 5E1A0000 		.4byte	0x1a5e
 10054 1a4b 1B       		.uleb128 0x1b
 10055 1a4c 01       		.uleb128 0x1
 10056 1a4d 50       		.byte	0x50
 10057 1a4e 05       		.uleb128 0x5
 10058 1a4f 03       		.byte	0x3
 10059 1a50 00000000 		.4byte	TransmitBuffer
 10060 1a54 1B       		.uleb128 0x1b
 10061 1a55 01       		.uleb128 0x1
 10062 1a56 51       		.byte	0x51
 10063 1a57 05       		.uleb128 0x5
 10064 1a58 03       		.byte	0x3
 10065 1a59 E0000000 		.4byte	.LC13
 10066 1a5d 00       		.byte	0
 10067 1a5e 12       		.uleb128 0x12
 10068 1a5f 4E000000 		.4byte	.LVL579
 10069 1a63 B5050000 		.4byte	0x5b5
 10070 1a67 00       		.byte	0
ARM GAS  C:\Users\FRANKL~1\AppData\Local\Temp\ccjWonOy.s 			page 218


 10071 1a68 14       		.uleb128 0x14
 10072 1a69 4C0D0000 		.4byte	.LASF150
 10073 1a6d 02       		.byte	0x2
 10074 1a6e 0E03     		.2byte	0x30e
 10075 1a70 00000000 		.4byte	.LFB112
 10076 1a74 1A000000 		.4byte	.LFE112-.LFB112
 10077 1a78 01       		.uleb128 0x1
 10078 1a79 9C       		.byte	0x9c
 10079 1a7a BF1A0000 		.4byte	0x1abf
 10080 1a7e 2C       		.uleb128 0x2c
 10081 1a7f 6E00     		.ascii	"n\000"
 10082 1a81 02       		.byte	0x2
 10083 1a82 0E03     		.2byte	0x30e
 10084 1a84 C6000000 		.4byte	0xc6
 10085 1a88 BA130000 		.4byte	.LLST129
 10086 1a8c 19       		.uleb128 0x19
 10087 1a8d 04000000 		.4byte	.LBB49
 10088 1a91 14000000 		.4byte	.LBE49-.LBB49
 10089 1a95 18       		.uleb128 0x18
 10090 1a96 6900     		.ascii	"i\000"
 10091 1a98 02       		.byte	0x2
 10092 1a99 0F03     		.2byte	0x30f
 10093 1a9b C6000000 		.4byte	0xc6
 10094 1a9f D8130000 		.4byte	.LLST130
 10095 1aa3 1A       		.uleb128 0x1a
 10096 1aa4 12000000 		.4byte	.LVL583
 10097 1aa8 A2190000 		.4byte	0x19a2
 10098 1aac 1B       		.uleb128 0x1b
 10099 1aad 01       		.uleb128 0x1
 10100 1aae 50       		.byte	0x50
 10101 1aaf 02       		.uleb128 0x2
 10102 1ab0 08       		.byte	0x8
 10103 1ab1 64       		.byte	0x64
 10104 1ab2 1B       		.uleb128 0x1b
 10105 1ab3 01       		.uleb128 0x1
 10106 1ab4 51       		.byte	0x51
 10107 1ab5 01       		.uleb128 0x1
 10108 1ab6 31       		.byte	0x31
 10109 1ab7 1B       		.uleb128 0x1b
 10110 1ab8 01       		.uleb128 0x1
 10111 1ab9 52       		.byte	0x52
 10112 1aba 01       		.uleb128 0x1
 10113 1abb 3A       		.byte	0x3a
 10114 1abc 00       		.byte	0
 10115 1abd 00       		.byte	0
 10116 1abe 00       		.byte	0
 10117 1abf 24       		.uleb128 0x24
 10118 1ac0 98040000 		.4byte	.LASF151
 10119 1ac4 02       		.byte	0x2
 10120 1ac5 1503     		.2byte	0x315
 10121 1ac7 00000000 		.4byte	.LFB113
 10122 1acb 2C000000 		.4byte	.LFE113-.LFB113
 10123 1acf 01       		.uleb128 0x1
 10124 1ad0 9C       		.byte	0x9c
 10125 1ad1 461B0000 		.4byte	0x1b46
 10126 1ad5 15       		.uleb128 0x15
 10127 1ad6 0E000000 		.4byte	.LBB50
ARM GAS  C:\Users\FRANKL~1\AppData\Local\Temp\ccjWonOy.s 			page 219


 10128 1ada 1C000000 		.4byte	.LBE50-.LBB50
 10129 1ade 211B0000 		.4byte	0x1b21
 10130 1ae2 17       		.uleb128 0x17
 10131 1ae3 DD000000 		.4byte	.LASF152
 10132 1ae7 02       		.byte	0x2
 10133 1ae8 1903     		.2byte	0x319
 10134 1aea BA000000 		.4byte	0xba
 10135 1aee F7130000 		.4byte	.LLST131
 10136 1af2 1C       		.uleb128 0x1c
 10137 1af3 18000000 		.4byte	.LVL588
 10138 1af7 F5360000 		.4byte	0x36f5
 10139 1afb 061B0000 		.4byte	0x1b06
 10140 1aff 1B       		.uleb128 0x1b
 10141 1b00 01       		.uleb128 0x1
 10142 1b01 50       		.byte	0x50
 10143 1b02 02       		.uleb128 0x2
 10144 1b03 74       		.byte	0x74
 10145 1b04 00       		.sleb128 0
 10146 1b05 00       		.byte	0
 10147 1b06 1A       		.uleb128 0x1a
 10148 1b07 22000000 		.4byte	.LVL589
 10149 1b0b A2190000 		.4byte	0x19a2
 10150 1b0f 1B       		.uleb128 0x1b
 10151 1b10 01       		.uleb128 0x1
 10152 1b11 50       		.byte	0x50
 10153 1b12 02       		.uleb128 0x2
 10154 1b13 08       		.byte	0x8
 10155 1b14 64       		.byte	0x64
 10156 1b15 1B       		.uleb128 0x1b
 10157 1b16 01       		.uleb128 0x1
 10158 1b17 51       		.byte	0x51
 10159 1b18 01       		.uleb128 0x1
 10160 1b19 31       		.byte	0x31
 10161 1b1a 1B       		.uleb128 0x1b
 10162 1b1b 01       		.uleb128 0x1
 10163 1b1c 52       		.byte	0x52
 10164 1b1d 01       		.uleb128 0x1
 10165 1b1e 31       		.byte	0x31
 10166 1b1f 00       		.byte	0
 10167 1b20 00       		.byte	0
 10168 1b21 1C       		.uleb128 0x1c
 10169 1b22 08000000 		.4byte	.LVL585
 10170 1b26 EA360000 		.4byte	0x36ea
 10171 1b2a 351B0000 		.4byte	0x1b35
 10172 1b2e 1B       		.uleb128 0x1b
 10173 1b2f 01       		.uleb128 0x1
 10174 1b30 50       		.byte	0x50
 10175 1b31 02       		.uleb128 0x2
 10176 1b32 08       		.byte	0x8
 10177 1b33 5A       		.byte	0x5a
 10178 1b34 00       		.byte	0
 10179 1b35 1A       		.uleb128 0x1a
 10180 1b36 0E000000 		.4byte	.LVL586
 10181 1b3a F5360000 		.4byte	0x36f5
 10182 1b3e 1B       		.uleb128 0x1b
 10183 1b3f 01       		.uleb128 0x1
 10184 1b40 50       		.byte	0x50
ARM GAS  C:\Users\FRANKL~1\AppData\Local\Temp\ccjWonOy.s 			page 220


 10185 1b41 02       		.uleb128 0x2
 10186 1b42 09       		.byte	0x9
 10187 1b43 FE       		.byte	0xfe
 10188 1b44 00       		.byte	0
 10189 1b45 00       		.byte	0
 10190 1b46 14       		.uleb128 0x14
 10191 1b47 A5060000 		.4byte	.LASF153
 10192 1b4b 02       		.byte	0x2
 10193 1b4c 1F03     		.2byte	0x31f
 10194 1b4e 00000000 		.4byte	.LFB114
 10195 1b52 AC000000 		.4byte	.LFE114-.LFB114
 10196 1b56 01       		.uleb128 0x1
 10197 1b57 9C       		.byte	0x9c
 10198 1b58 4B1C0000 		.4byte	0x1c4b
 10199 1b5c 25       		.uleb128 0x25
 10200 1b5d CC0A0000 		.4byte	.LASF154
 10201 1b61 02       		.byte	0x2
 10202 1b62 1F03     		.2byte	0x31f
 10203 1b64 AE000000 		.4byte	0xae
 10204 1b68 21140000 		.4byte	.LLST132
 10205 1b6c 2D       		.uleb128 0x2d
 10206 1b6d 860F0000 		.4byte	.LASF157
 10207 1b71 02       		.byte	0x2
 10208 1b72 2703     		.2byte	0x327
 10209 1b74 D2000000 		.4byte	0xd2
 10210 1b78 1F       		.uleb128 0x1f
 10211 1b79 F0000000 		.4byte	.Ldebug_ranges0+0xf0
 10212 1b7d 311C0000 		.4byte	0x1c31
 10213 1b81 18       		.uleb128 0x18
 10214 1b82 6C00     		.ascii	"l\000"
 10215 1b84 02       		.byte	0x2
 10216 1b85 2903     		.2byte	0x329
 10217 1b87 AE000000 		.4byte	0xae
 10218 1b8b 5B140000 		.4byte	.LLST133
 10219 1b8f 29       		.uleb128 0x29
 10220 1b90 08010000 		.4byte	.Ldebug_ranges0+0x108
 10221 1b94 17       		.uleb128 0x17
 10222 1b95 C7000000 		.4byte	.LASF155
 10223 1b99 02       		.byte	0x2
 10224 1b9a 2A03     		.2byte	0x32a
 10225 1b9c D2000000 		.4byte	0xd2
 10226 1ba0 79140000 		.4byte	.LLST134
 10227 1ba4 17       		.uleb128 0x17
 10228 1ba5 D0010000 		.4byte	.LASF114
 10229 1ba9 02       		.byte	0x2
 10230 1baa 2B03     		.2byte	0x32b
 10231 1bac AE000000 		.4byte	0xae
 10232 1bb0 98140000 		.4byte	.LLST135
 10233 1bb4 17       		.uleb128 0x17
 10234 1bb5 90060000 		.4byte	.LASF115
 10235 1bb9 02       		.byte	0x2
 10236 1bba 3003     		.2byte	0x330
 10237 1bbc AE000000 		.4byte	0xae
 10238 1bc0 D9140000 		.4byte	.LLST136
 10239 1bc4 29       		.uleb128 0x29
 10240 1bc5 20010000 		.4byte	.Ldebug_ranges0+0x120
 10241 1bc9 18       		.uleb128 0x18
ARM GAS  C:\Users\FRANKL~1\AppData\Local\Temp\ccjWonOy.s 			page 221


 10242 1bca 6900     		.ascii	"i\000"
 10243 1bcc 02       		.byte	0x2
 10244 1bcd 3803     		.2byte	0x338
 10245 1bcf AE000000 		.4byte	0xae
 10246 1bd3 F9140000 		.4byte	.LLST137
 10247 1bd7 29       		.uleb128 0x29
 10248 1bd8 38010000 		.4byte	.Ldebug_ranges0+0x138
 10249 1bdc 18       		.uleb128 0x18
 10250 1bdd 6A00     		.ascii	"j\000"
 10251 1bdf 02       		.byte	0x2
 10252 1be0 3903     		.2byte	0x339
 10253 1be2 AE000000 		.4byte	0xae
 10254 1be6 17150000 		.4byte	.LLST138
 10255 1bea 1C       		.uleb128 0x1c
 10256 1beb 5C000000 		.4byte	.LVL605
 10257 1bef 90140000 		.4byte	0x1490
 10258 1bf3 FF1B0000 		.4byte	0x1bff
 10259 1bf7 1B       		.uleb128 0x1b
 10260 1bf8 01       		.uleb128 0x1
 10261 1bf9 50       		.byte	0x50
 10262 1bfa 03       		.uleb128 0x3
 10263 1bfb 75       		.byte	0x75
 10264 1bfc 00       		.sleb128 0
 10265 1bfd 20       		.byte	0x20
 10266 1bfe 00       		.byte	0
 10267 1bff 1C       		.uleb128 0x1c
 10268 1c00 62000000 		.4byte	.LVL606
 10269 1c04 BD130000 		.4byte	0x13bd
 10270 1c08 131C0000 		.4byte	0x1c13
 10271 1c0c 1B       		.uleb128 0x1b
 10272 1c0d 01       		.uleb128 0x1
 10273 1c0e 50       		.byte	0x50
 10274 1c0f 02       		.uleb128 0x2
 10275 1c10 75       		.byte	0x75
 10276 1c11 00       		.sleb128 0
 10277 1c12 00       		.byte	0
 10278 1c13 1A       		.uleb128 0x1a
 10279 1c14 6C000000 		.4byte	.LVL607
 10280 1c18 A2190000 		.4byte	0x19a2
 10281 1c1c 1B       		.uleb128 0x1b
 10282 1c1d 01       		.uleb128 0x1
 10283 1c1e 50       		.byte	0x50
 10284 1c1f 02       		.uleb128 0x2
 10285 1c20 08       		.byte	0x8
 10286 1c21 21       		.byte	0x21
 10287 1c22 1B       		.uleb128 0x1b
 10288 1c23 01       		.uleb128 0x1
 10289 1c24 51       		.byte	0x51
 10290 1c25 01       		.uleb128 0x1
 10291 1c26 31       		.byte	0x31
 10292 1c27 1B       		.uleb128 0x1b
 10293 1c28 01       		.uleb128 0x1
 10294 1c29 52       		.byte	0x52
 10295 1c2a 01       		.uleb128 0x1
 10296 1c2b 31       		.byte	0x31
 10297 1c2c 00       		.byte	0
 10298 1c2d 00       		.byte	0
ARM GAS  C:\Users\FRANKL~1\AppData\Local\Temp\ccjWonOy.s 			page 222


 10299 1c2e 00       		.byte	0
 10300 1c2f 00       		.byte	0
 10301 1c30 00       		.byte	0
 10302 1c31 12       		.uleb128 0x12
 10303 1c32 1A000000 		.4byte	.LVL594
 10304 1c36 90140000 		.4byte	0x1490
 10305 1c3a 1A       		.uleb128 0x1a
 10306 1c3b 26000000 		.4byte	.LVL597
 10307 1c3f 90140000 		.4byte	0x1490
 10308 1c43 1B       		.uleb128 0x1b
 10309 1c44 01       		.uleb128 0x1
 10310 1c45 50       		.byte	0x50
 10311 1c46 02       		.uleb128 0x2
 10312 1c47 09       		.byte	0x9
 10313 1c48 FE       		.byte	0xfe
 10314 1c49 00       		.byte	0
 10315 1c4a 00       		.byte	0
 10316 1c4b 14       		.uleb128 0x14
 10317 1c4c 810B0000 		.4byte	.LASF156
 10318 1c50 02       		.byte	0x2
 10319 1c51 4603     		.2byte	0x346
 10320 1c53 00000000 		.4byte	.LFB115
 10321 1c57 84000000 		.4byte	.LFE115-.LFB115
 10322 1c5b 01       		.uleb128 0x1
 10323 1c5c 9C       		.byte	0x9c
 10324 1c5d 541D0000 		.4byte	0x1d54
 10325 1c61 25       		.uleb128 0x25
 10326 1c62 CC0A0000 		.4byte	.LASF154
 10327 1c66 02       		.byte	0x2
 10328 1c67 4603     		.2byte	0x346
 10329 1c69 AE000000 		.4byte	0xae
 10330 1c6d 40150000 		.4byte	.LLST139
 10331 1c71 2E       		.uleb128 0x2e
 10332 1c72 860F0000 		.4byte	.LASF157
 10333 1c76 02       		.byte	0x2
 10334 1c77 4903     		.2byte	0x349
 10335 1c79 D2000000 		.4byte	0xd2
 10336 1c7d 10       		.byte	0x10
 10337 1c7e 15       		.uleb128 0x15
 10338 1c7f 0C000000 		.4byte	.LBB59
 10339 1c83 6E000000 		.4byte	.LBE59-.LBB59
 10340 1c87 431D0000 		.4byte	0x1d43
 10341 1c8b 18       		.uleb128 0x18
 10342 1c8c 6C00     		.ascii	"l\000"
 10343 1c8e 02       		.byte	0x2
 10344 1c8f 4B03     		.2byte	0x34b
 10345 1c91 AE000000 		.4byte	0xae
 10346 1c95 61150000 		.4byte	.LLST140
 10347 1c99 19       		.uleb128 0x19
 10348 1c9a 12000000 		.4byte	.LBB60
 10349 1c9e 5C000000 		.4byte	.LBE60-.LBB60
 10350 1ca2 17       		.uleb128 0x17
 10351 1ca3 C7000000 		.4byte	.LASF155
 10352 1ca7 02       		.byte	0x2
 10353 1ca8 4C03     		.2byte	0x34c
 10354 1caa D2000000 		.4byte	0xd2
 10355 1cae 8B150000 		.4byte	.LLST141
ARM GAS  C:\Users\FRANKL~1\AppData\Local\Temp\ccjWonOy.s 			page 223


 10356 1cb2 17       		.uleb128 0x17
 10357 1cb3 D0010000 		.4byte	.LASF114
 10358 1cb7 02       		.byte	0x2
 10359 1cb8 4D03     		.2byte	0x34d
 10360 1cba AE000000 		.4byte	0xae
 10361 1cbe AA150000 		.4byte	.LLST142
 10362 1cc2 17       		.uleb128 0x17
 10363 1cc3 90060000 		.4byte	.LASF115
 10364 1cc7 02       		.byte	0x2
 10365 1cc8 4E03     		.2byte	0x34e
 10366 1cca AE000000 		.4byte	0xae
 10367 1cce C9150000 		.4byte	.LLST143
 10368 1cd2 19       		.uleb128 0x19
 10369 1cd3 28000000 		.4byte	.LBB61
 10370 1cd7 46000000 		.4byte	.LBE61-.LBB61
 10371 1cdb 18       		.uleb128 0x18
 10372 1cdc 6900     		.ascii	"i\000"
 10373 1cde 02       		.byte	0x2
 10374 1cdf 5603     		.2byte	0x356
 10375 1ce1 AE000000 		.4byte	0xae
 10376 1ce5 E9150000 		.4byte	.LLST144
 10377 1ce9 29       		.uleb128 0x29
 10378 1cea 50010000 		.4byte	.Ldebug_ranges0+0x150
 10379 1cee 18       		.uleb128 0x18
 10380 1cef 6A00     		.ascii	"j\000"
 10381 1cf1 02       		.byte	0x2
 10382 1cf2 5703     		.2byte	0x357
 10383 1cf4 AE000000 		.4byte	0xae
 10384 1cf8 07160000 		.4byte	.LLST145
 10385 1cfc 1C       		.uleb128 0x1c
 10386 1cfd 36000000 		.4byte	.LVL623
 10387 1d01 90140000 		.4byte	0x1490
 10388 1d05 111D0000 		.4byte	0x1d11
 10389 1d09 1B       		.uleb128 0x1b
 10390 1d0a 01       		.uleb128 0x1
 10391 1d0b 50       		.byte	0x50
 10392 1d0c 03       		.uleb128 0x3
 10393 1d0d 75       		.byte	0x75
 10394 1d0e 00       		.sleb128 0
 10395 1d0f 20       		.byte	0x20
 10396 1d10 00       		.byte	0
 10397 1d11 1C       		.uleb128 0x1c
 10398 1d12 3C000000 		.4byte	.LVL624
 10399 1d16 BD130000 		.4byte	0x13bd
 10400 1d1a 251D0000 		.4byte	0x1d25
 10401 1d1e 1B       		.uleb128 0x1b
 10402 1d1f 01       		.uleb128 0x1
 10403 1d20 50       		.byte	0x50
 10404 1d21 02       		.uleb128 0x2
 10405 1d22 75       		.byte	0x75
 10406 1d23 00       		.sleb128 0
 10407 1d24 00       		.byte	0
 10408 1d25 1A       		.uleb128 0x1a
 10409 1d26 46000000 		.4byte	.LVL625
 10410 1d2a A2190000 		.4byte	0x19a2
 10411 1d2e 1B       		.uleb128 0x1b
 10412 1d2f 01       		.uleb128 0x1
ARM GAS  C:\Users\FRANKL~1\AppData\Local\Temp\ccjWonOy.s 			page 224


 10413 1d30 50       		.byte	0x50
 10414 1d31 02       		.uleb128 0x2
 10415 1d32 08       		.byte	0x8
 10416 1d33 21       		.byte	0x21
 10417 1d34 1B       		.uleb128 0x1b
 10418 1d35 01       		.uleb128 0x1
 10419 1d36 51       		.byte	0x51
 10420 1d37 01       		.uleb128 0x1
 10421 1d38 31       		.byte	0x31
 10422 1d39 1B       		.uleb128 0x1b
 10423 1d3a 01       		.uleb128 0x1
 10424 1d3b 52       		.byte	0x52
 10425 1d3c 01       		.uleb128 0x1
 10426 1d3d 31       		.byte	0x31
 10427 1d3e 00       		.byte	0
 10428 1d3f 00       		.byte	0
 10429 1d40 00       		.byte	0
 10430 1d41 00       		.byte	0
 10431 1d42 00       		.byte	0
 10432 1d43 1A       		.uleb128 0x1a
 10433 1d44 0C000000 		.4byte	.LVL619
 10434 1d48 90140000 		.4byte	0x1490
 10435 1d4c 1B       		.uleb128 0x1b
 10436 1d4d 01       		.uleb128 0x1
 10437 1d4e 50       		.byte	0x50
 10438 1d4f 02       		.uleb128 0x2
 10439 1d50 09       		.byte	0x9
 10440 1d51 FE       		.byte	0xfe
 10441 1d52 00       		.byte	0
 10442 1d53 00       		.byte	0
 10443 1d54 24       		.uleb128 0x24
 10444 1d55 27080000 		.4byte	.LASF158
 10445 1d59 02       		.byte	0x2
 10446 1d5a 6503     		.2byte	0x365
 10447 1d5c 00000000 		.4byte	.LFB116
 10448 1d60 98000000 		.4byte	.LFE116-.LFB116
 10449 1d64 01       		.uleb128 0x1
 10450 1d65 9C       		.byte	0x9c
 10451 1d66 4B1E0000 		.4byte	0x1e4b
 10452 1d6a 17       		.uleb128 0x17
 10453 1d6b 570E0000 		.4byte	.LASF159
 10454 1d6f 02       		.byte	0x2
 10455 1d70 6603     		.2byte	0x366
 10456 1d72 AE000000 		.4byte	0xae
 10457 1d76 30160000 		.4byte	.LLST146
 10458 1d7a 2E       		.uleb128 0x2e
 10459 1d7b FE0D0000 		.4byte	.LASF160
 10460 1d7f 02       		.byte	0x2
 10461 1d80 6703     		.2byte	0x367
 10462 1d82 D2000000 		.4byte	0xd2
 10463 1d86 01       		.byte	0x1
 10464 1d87 2E       		.uleb128 0x2e
 10465 1d88 EC0F0000 		.4byte	.LASF161
 10466 1d8c 02       		.byte	0x2
 10467 1d8d 6803     		.2byte	0x368
 10468 1d8f AE000000 		.4byte	0xae
 10469 1d93 00       		.byte	0
ARM GAS  C:\Users\FRANKL~1\AppData\Local\Temp\ccjWonOy.s 			page 225


 10470 1d94 2E       		.uleb128 0x2e
 10471 1d95 64090000 		.4byte	.LASF162
 10472 1d99 02       		.byte	0x2
 10473 1d9a 6903     		.2byte	0x369
 10474 1d9c AE000000 		.4byte	0xae
 10475 1da0 00       		.byte	0
 10476 1da1 17       		.uleb128 0x17
 10477 1da2 A6040000 		.4byte	.LASF163
 10478 1da6 02       		.byte	0x2
 10479 1da7 6A03     		.2byte	0x36a
 10480 1da9 AE000000 		.4byte	0xae
 10481 1dad 65160000 		.4byte	.LLST147
 10482 1db1 17       		.uleb128 0x17
 10483 1db2 2E020000 		.4byte	.LASF164
 10484 1db6 02       		.byte	0x2
 10485 1db7 6B03     		.2byte	0x36b
 10486 1db9 AE000000 		.4byte	0xae
 10487 1dbd 8F160000 		.4byte	.LLST148
 10488 1dc1 2E       		.uleb128 0x2e
 10489 1dc2 03070000 		.4byte	.LASF165
 10490 1dc6 02       		.byte	0x2
 10491 1dc7 6D03     		.2byte	0x36d
 10492 1dc9 D2000000 		.4byte	0xd2
 10493 1dcd 01       		.byte	0x1
 10494 1dce 2E       		.uleb128 0x2e
 10495 1dcf FE090000 		.4byte	.LASF166
 10496 1dd3 02       		.byte	0x2
 10497 1dd4 6E03     		.2byte	0x36e
 10498 1dd6 AE000000 		.4byte	0xae
 10499 1dda 00       		.byte	0
 10500 1ddb 2E       		.uleb128 0x2e
 10501 1ddc AE0E0000 		.4byte	.LASF167
 10502 1de0 02       		.byte	0x2
 10503 1de1 6F03     		.2byte	0x36f
 10504 1de3 AE000000 		.4byte	0xae
 10505 1de7 00       		.byte	0
 10506 1de8 17       		.uleb128 0x17
 10507 1de9 37010000 		.4byte	.LASF168
 10508 1ded 02       		.byte	0x2
 10509 1dee 7003     		.2byte	0x370
 10510 1df0 AE000000 		.4byte	0xae
 10511 1df4 B9160000 		.4byte	.LLST149
 10512 1df8 17       		.uleb128 0x17
 10513 1df9 160D0000 		.4byte	.LASF169
 10514 1dfd 02       		.byte	0x2
 10515 1dfe 7103     		.2byte	0x371
 10516 1e00 AE000000 		.4byte	0xae
 10517 1e04 E3160000 		.4byte	.LLST150
 10518 1e08 1C       		.uleb128 0x1c
 10519 1e09 52000000 		.4byte	.LVL642
 10520 1e0d 90140000 		.4byte	0x1490
 10521 1e11 1C1E0000 		.4byte	0x1e1c
 10522 1e15 1B       		.uleb128 0x1b
 10523 1e16 01       		.uleb128 0x1
 10524 1e17 50       		.byte	0x50
 10525 1e18 02       		.uleb128 0x2
 10526 1e19 75       		.byte	0x75
ARM GAS  C:\Users\FRANKL~1\AppData\Local\Temp\ccjWonOy.s 			page 226


 10527 1e1a 00       		.sleb128 0
 10528 1e1b 00       		.byte	0
 10529 1e1c 1C       		.uleb128 0x1c
 10530 1e1d 58000000 		.4byte	.LVL643
 10531 1e21 BD130000 		.4byte	0x13bd
 10532 1e25 301E0000 		.4byte	0x1e30
 10533 1e29 1B       		.uleb128 0x1b
 10534 1e2a 01       		.uleb128 0x1
 10535 1e2b 50       		.byte	0x50
 10536 1e2c 02       		.uleb128 0x2
 10537 1e2d 76       		.byte	0x76
 10538 1e2e 00       		.sleb128 0
 10539 1e2f 00       		.byte	0
 10540 1e30 1A       		.uleb128 0x1a
 10541 1e31 62000000 		.4byte	.LVL644
 10542 1e35 A2190000 		.4byte	0x19a2
 10543 1e39 1B       		.uleb128 0x1b
 10544 1e3a 01       		.uleb128 0x1
 10545 1e3b 50       		.byte	0x50
 10546 1e3c 02       		.uleb128 0x2
 10547 1e3d 08       		.byte	0x8
 10548 1e3e 64       		.byte	0x64
 10549 1e3f 1B       		.uleb128 0x1b
 10550 1e40 01       		.uleb128 0x1
 10551 1e41 51       		.byte	0x51
 10552 1e42 01       		.uleb128 0x1
 10553 1e43 31       		.byte	0x31
 10554 1e44 1B       		.uleb128 0x1b
 10555 1e45 01       		.uleb128 0x1
 10556 1e46 52       		.byte	0x52
 10557 1e47 01       		.uleb128 0x1
 10558 1e48 31       		.byte	0x31
 10559 1e49 00       		.byte	0
 10560 1e4a 00       		.byte	0
 10561 1e4b 14       		.uleb128 0x14
 10562 1e4c 9C020000 		.4byte	.LASF170
 10563 1e50 02       		.byte	0x2
 10564 1e51 8D03     		.2byte	0x38d
 10565 1e53 00000000 		.4byte	.LFB117
 10566 1e57 7C000000 		.4byte	.LFE117-.LFB117
 10567 1e5b 01       		.uleb128 0x1
 10568 1e5c 9C       		.byte	0x9c
 10569 1e5d 861F0000 		.4byte	0x1f86
 10570 1e61 25       		.uleb128 0x25
 10571 1e62 D00F0000 		.4byte	.LASF171
 10572 1e66 02       		.byte	0x2
 10573 1e67 8D03     		.2byte	0x38d
 10574 1e69 AE000000 		.4byte	0xae
 10575 1e6d 0D170000 		.4byte	.LLST151
 10576 1e71 25       		.uleb128 0x25
 10577 1e72 CC0A0000 		.4byte	.LASF154
 10578 1e76 02       		.byte	0x2
 10579 1e77 8D03     		.2byte	0x38d
 10580 1e79 AE000000 		.4byte	0xae
 10581 1e7d 2E170000 		.4byte	.LLST152
 10582 1e81 19       		.uleb128 0x19
 10583 1e82 06000000 		.4byte	.LBB64
ARM GAS  C:\Users\FRANKL~1\AppData\Local\Temp\ccjWonOy.s 			page 227


 10584 1e86 76000000 		.4byte	.LBE64-.LBB64
 10585 1e8a 17       		.uleb128 0x17
 10586 1e8b D10A0000 		.4byte	.LASF172
 10587 1e8f 02       		.byte	0x2
 10588 1e90 8E03     		.2byte	0x38e
 10589 1e92 AE000000 		.4byte	0xae
 10590 1e96 4F170000 		.4byte	.LLST153
 10591 1e9a 19       		.uleb128 0x19
 10592 1e9b 0A000000 		.4byte	.LBB65
 10593 1e9f 5C000000 		.4byte	.LBE65-.LBB65
 10594 1ea3 17       		.uleb128 0x17
 10595 1ea4 660E0000 		.4byte	.LASF173
 10596 1ea8 02       		.byte	0x2
 10597 1ea9 8F03     		.2byte	0x38f
 10598 1eab AE000000 		.4byte	0xae
 10599 1eaf 6E170000 		.4byte	.LLST154
 10600 1eb3 17       		.uleb128 0x17
 10601 1eb4 6F0E0000 		.4byte	.LASF174
 10602 1eb8 02       		.byte	0x2
 10603 1eb9 9003     		.2byte	0x390
 10604 1ebb AE000000 		.4byte	0xae
 10605 1ebf 81170000 		.4byte	.LLST155
 10606 1ec3 17       		.uleb128 0x17
 10607 1ec4 340F0000 		.4byte	.LASF175
 10608 1ec8 02       		.byte	0x2
 10609 1ec9 9103     		.2byte	0x391
 10610 1ecb AE000000 		.4byte	0xae
 10611 1ecf 94170000 		.4byte	.LLST156
 10612 1ed3 17       		.uleb128 0x17
 10613 1ed4 420F0000 		.4byte	.LASF176
 10614 1ed8 02       		.byte	0x2
 10615 1ed9 9203     		.2byte	0x392
 10616 1edb AE000000 		.4byte	0xae
 10617 1edf A8170000 		.4byte	.LLST157
 10618 1ee3 12       		.uleb128 0x12
 10619 1ee4 12000000 		.4byte	.LVL656
 10620 1ee8 48090000 		.4byte	0x948
 10621 1eec 12       		.uleb128 0x12
 10622 1eed 16000000 		.4byte	.LVL657
 10623 1ef1 08180000 		.4byte	0x1808
 10624 1ef5 12       		.uleb128 0x12
 10625 1ef6 1A000000 		.4byte	.LVL658
 10626 1efa F50A0000 		.4byte	0xaf5
 10627 1efe 1C       		.uleb128 0x1c
 10628 1eff 22000000 		.4byte	.LVL659
 10629 1f03 49080000 		.4byte	0x849
 10630 1f07 171F0000 		.4byte	0x1f17
 10631 1f0b 1B       		.uleb128 0x1b
 10632 1f0c 01       		.uleb128 0x1
 10633 1f0d 50       		.byte	0x50
 10634 1f0e 02       		.uleb128 0x2
 10635 1f0f 74       		.byte	0x74
 10636 1f10 00       		.sleb128 0
 10637 1f11 1B       		.uleb128 0x1b
 10638 1f12 01       		.uleb128 0x1
 10639 1f13 51       		.byte	0x51
 10640 1f14 01       		.uleb128 0x1
ARM GAS  C:\Users\FRANKL~1\AppData\Local\Temp\ccjWonOy.s 			page 228


 10641 1f15 31       		.byte	0x31
 10642 1f16 00       		.byte	0
 10643 1f17 1C       		.uleb128 0x1c
 10644 1f18 2A000000 		.4byte	.LVL660
 10645 1f1c 49080000 		.4byte	0x849
 10646 1f20 301F0000 		.4byte	0x1f30
 10647 1f24 1B       		.uleb128 0x1b
 10648 1f25 01       		.uleb128 0x1
 10649 1f26 50       		.byte	0x50
 10650 1f27 02       		.uleb128 0x2
 10651 1f28 75       		.byte	0x75
 10652 1f29 00       		.sleb128 0
 10653 1f2a 1B       		.uleb128 0x1b
 10654 1f2b 01       		.uleb128 0x1
 10655 1f2c 51       		.byte	0x51
 10656 1f2d 01       		.uleb128 0x1
 10657 1f2e 32       		.byte	0x32
 10658 1f2f 00       		.byte	0
 10659 1f30 1C       		.uleb128 0x1c
 10660 1f31 34000000 		.4byte	.LVL661
 10661 1f35 45360000 		.4byte	0x3645
 10662 1f39 561F0000 		.4byte	0x1f56
 10663 1f3d 1B       		.uleb128 0x1b
 10664 1f3e 01       		.uleb128 0x1
 10665 1f3f 50       		.byte	0x50
 10666 1f40 05       		.uleb128 0x5
 10667 1f41 03       		.byte	0x3
 10668 1f42 00000000 		.4byte	TransmitBuffer
 10669 1f46 1B       		.uleb128 0x1b
 10670 1f47 01       		.uleb128 0x1
 10671 1f48 51       		.byte	0x51
 10672 1f49 05       		.uleb128 0x5
 10673 1f4a 03       		.byte	0x3
 10674 1f4b F0000000 		.4byte	.LC14
 10675 1f4f 1B       		.uleb128 0x1b
 10676 1f50 01       		.uleb128 0x1
 10677 1f51 52       		.byte	0x52
 10678 1f52 02       		.uleb128 0x2
 10679 1f53 74       		.byte	0x74
 10680 1f54 00       		.sleb128 0
 10681 1f55 00       		.byte	0
 10682 1f56 12       		.uleb128 0x12
 10683 1f57 38000000 		.4byte	.LVL662
 10684 1f5b B5050000 		.4byte	0x5b5
 10685 1f5f 1C       		.uleb128 0x1c
 10686 1f60 40000000 		.4byte	.LVL663
 10687 1f64 4B1C0000 		.4byte	0x1c4b
 10688 1f68 731F0000 		.4byte	0x1f73
 10689 1f6c 1B       		.uleb128 0x1b
 10690 1f6d 01       		.uleb128 0x1
 10691 1f6e 50       		.byte	0x50
 10692 1f6f 02       		.uleb128 0x2
 10693 1f70 77       		.byte	0x77
 10694 1f71 00       		.sleb128 0
 10695 1f72 00       		.byte	0
 10696 1f73 1A       		.uleb128 0x1a
 10697 1f74 48000000 		.4byte	.LVL664
ARM GAS  C:\Users\FRANKL~1\AppData\Local\Temp\ccjWonOy.s 			page 229


 10698 1f78 461B0000 		.4byte	0x1b46
 10699 1f7c 1B       		.uleb128 0x1b
 10700 1f7d 01       		.uleb128 0x1
 10701 1f7e 50       		.byte	0x50
 10702 1f7f 02       		.uleb128 0x2
 10703 1f80 77       		.byte	0x77
 10704 1f81 00       		.sleb128 0
 10705 1f82 00       		.byte	0
 10706 1f83 00       		.byte	0
 10707 1f84 00       		.byte	0
 10708 1f85 00       		.byte	0
 10709 1f86 14       		.uleb128 0x14
 10710 1f87 E40B0000 		.4byte	.LASF177
 10711 1f8b 02       		.byte	0x2
 10712 1f8c A803     		.2byte	0x3a8
 10713 1f8e 00000000 		.4byte	.LFB118
 10714 1f92 8C000000 		.4byte	.LFE118-.LFB118
 10715 1f96 01       		.uleb128 0x1
 10716 1f97 9C       		.byte	0x9c
 10717 1f98 E1200000 		.4byte	0x20e1
 10718 1f9c 25       		.uleb128 0x25
 10719 1f9d B60B0000 		.4byte	.LASF178
 10720 1fa1 02       		.byte	0x2
 10721 1fa2 A803     		.2byte	0x3a8
 10722 1fa4 AE000000 		.4byte	0xae
 10723 1fa8 BC170000 		.4byte	.LLST158
 10724 1fac 25       		.uleb128 0x25
 10725 1fad 710B0000 		.4byte	.LASF179
 10726 1fb1 02       		.byte	0x2
 10727 1fb2 A803     		.2byte	0x3a8
 10728 1fb4 AE000000 		.4byte	0xae
 10729 1fb8 E8170000 		.4byte	.LLST159
 10730 1fbc 25       		.uleb128 0x25
 10731 1fbd D00F0000 		.4byte	.LASF171
 10732 1fc1 02       		.byte	0x2
 10733 1fc2 A803     		.2byte	0x3a8
 10734 1fc4 AE000000 		.4byte	0xae
 10735 1fc8 14180000 		.4byte	.LLST160
 10736 1fcc 25       		.uleb128 0x25
 10737 1fcd CC0A0000 		.4byte	.LASF154
 10738 1fd1 02       		.byte	0x2
 10739 1fd2 A803     		.2byte	0x3a8
 10740 1fd4 AE000000 		.4byte	0xae
 10741 1fd8 40180000 		.4byte	.LLST161
 10742 1fdc 19       		.uleb128 0x19
 10743 1fdd 18000000 		.4byte	.LBB66
 10744 1fe1 74000000 		.4byte	.LBE66-.LBB66
 10745 1fe5 17       		.uleb128 0x17
 10746 1fe6 D10A0000 		.4byte	.LASF172
 10747 1fea 02       		.byte	0x2
 10748 1feb AC03     		.2byte	0x3ac
 10749 1fed AE000000 		.4byte	0xae
 10750 1ff1 6C180000 		.4byte	.LLST162
 10751 1ff5 19       		.uleb128 0x19
 10752 1ff6 18000000 		.4byte	.LBB67
 10753 1ffa 5C000000 		.4byte	.LBE67-.LBB67
 10754 1ffe 17       		.uleb128 0x17
ARM GAS  C:\Users\FRANKL~1\AppData\Local\Temp\ccjWonOy.s 			page 230


 10755 1fff 660E0000 		.4byte	.LASF173
 10756 2003 02       		.byte	0x2
 10757 2004 AD03     		.2byte	0x3ad
 10758 2006 AE000000 		.4byte	0xae
 10759 200a 7F180000 		.4byte	.LLST163
 10760 200e 17       		.uleb128 0x17
 10761 200f 6F0E0000 		.4byte	.LASF174
 10762 2013 02       		.byte	0x2
 10763 2014 AE03     		.2byte	0x3ae
 10764 2016 AE000000 		.4byte	0xae
 10765 201a 92180000 		.4byte	.LLST164
 10766 201e 17       		.uleb128 0x17
 10767 201f 340F0000 		.4byte	.LASF175
 10768 2023 02       		.byte	0x2
 10769 2024 AF03     		.2byte	0x3af
 10770 2026 AE000000 		.4byte	0xae
 10771 202a A5180000 		.4byte	.LLST165
 10772 202e 17       		.uleb128 0x17
 10773 202f 420F0000 		.4byte	.LASF176
 10774 2033 02       		.byte	0x2
 10775 2034 B003     		.2byte	0x3b0
 10776 2036 AE000000 		.4byte	0xae
 10777 203a B9180000 		.4byte	.LLST166
 10778 203e 12       		.uleb128 0x12
 10779 203f 20000000 		.4byte	.LVL670
 10780 2043 48090000 		.4byte	0x948
 10781 2047 12       		.uleb128 0x12
 10782 2048 24000000 		.4byte	.LVL671
 10783 204c 08180000 		.4byte	0x1808
 10784 2050 12       		.uleb128 0x12
 10785 2051 28000000 		.4byte	.LVL672
 10786 2055 F50A0000 		.4byte	0xaf5
 10787 2059 1C       		.uleb128 0x1c
 10788 205a 30000000 		.4byte	.LVL673
 10789 205e 49080000 		.4byte	0x849
 10790 2062 72200000 		.4byte	0x2072
 10791 2066 1B       		.uleb128 0x1b
 10792 2067 01       		.uleb128 0x1
 10793 2068 50       		.byte	0x50
 10794 2069 02       		.uleb128 0x2
 10795 206a 74       		.byte	0x74
 10796 206b 00       		.sleb128 0
 10797 206c 1B       		.uleb128 0x1b
 10798 206d 01       		.uleb128 0x1
 10799 206e 51       		.byte	0x51
 10800 206f 01       		.uleb128 0x1
 10801 2070 31       		.byte	0x31
 10802 2071 00       		.byte	0
 10803 2072 1C       		.uleb128 0x1c
 10804 2073 38000000 		.4byte	.LVL674
 10805 2077 49080000 		.4byte	0x849
 10806 207b 8B200000 		.4byte	0x208b
 10807 207f 1B       		.uleb128 0x1b
 10808 2080 01       		.uleb128 0x1
 10809 2081 50       		.byte	0x50
 10810 2082 02       		.uleb128 0x2
 10811 2083 75       		.byte	0x75
ARM GAS  C:\Users\FRANKL~1\AppData\Local\Temp\ccjWonOy.s 			page 231


 10812 2084 00       		.sleb128 0
 10813 2085 1B       		.uleb128 0x1b
 10814 2086 01       		.uleb128 0x1
 10815 2087 51       		.byte	0x51
 10816 2088 01       		.uleb128 0x1
 10817 2089 32       		.byte	0x32
 10818 208a 00       		.byte	0
 10819 208b 1C       		.uleb128 0x1c
 10820 208c 42000000 		.4byte	.LVL675
 10821 2090 45360000 		.4byte	0x3645
 10822 2094 B1200000 		.4byte	0x20b1
 10823 2098 1B       		.uleb128 0x1b
 10824 2099 01       		.uleb128 0x1
 10825 209a 50       		.byte	0x50
 10826 209b 05       		.uleb128 0x5
 10827 209c 03       		.byte	0x3
 10828 209d 00000000 		.4byte	TransmitBuffer
 10829 20a1 1B       		.uleb128 0x1b
 10830 20a2 01       		.uleb128 0x1
 10831 20a3 51       		.byte	0x51
 10832 20a4 05       		.uleb128 0x5
 10833 20a5 03       		.byte	0x3
 10834 20a6 F0000000 		.4byte	.LC14
 10835 20aa 1B       		.uleb128 0x1b
 10836 20ab 01       		.uleb128 0x1
 10837 20ac 52       		.byte	0x52
 10838 20ad 02       		.uleb128 0x2
 10839 20ae 74       		.byte	0x74
 10840 20af 00       		.sleb128 0
 10841 20b0 00       		.byte	0
 10842 20b1 12       		.uleb128 0x12
 10843 20b2 46000000 		.4byte	.LVL676
 10844 20b6 B5050000 		.4byte	0x5b5
 10845 20ba 1C       		.uleb128 0x1c
 10846 20bb 4E000000 		.4byte	.LVL677
 10847 20bf 4B1C0000 		.4byte	0x1c4b
 10848 20c3 CE200000 		.4byte	0x20ce
 10849 20c7 1B       		.uleb128 0x1b
 10850 20c8 01       		.uleb128 0x1
 10851 20c9 50       		.byte	0x50
 10852 20ca 02       		.uleb128 0x2
 10853 20cb 78       		.byte	0x78
 10854 20cc 00       		.sleb128 0
 10855 20cd 00       		.byte	0
 10856 20ce 1A       		.uleb128 0x1a
 10857 20cf 56000000 		.4byte	.LVL678
 10858 20d3 461B0000 		.4byte	0x1b46
 10859 20d7 1B       		.uleb128 0x1b
 10860 20d8 01       		.uleb128 0x1
 10861 20d9 50       		.byte	0x50
 10862 20da 02       		.uleb128 0x2
 10863 20db 78       		.byte	0x78
 10864 20dc 00       		.sleb128 0
 10865 20dd 00       		.byte	0
 10866 20de 00       		.byte	0
 10867 20df 00       		.byte	0
 10868 20e0 00       		.byte	0
ARM GAS  C:\Users\FRANKL~1\AppData\Local\Temp\ccjWonOy.s 			page 232


 10869 20e1 2F       		.uleb128 0x2f
 10870 20e2 66020000 		.4byte	.LASF266
 10871 20e6 02       		.byte	0x2
 10872 20e7 0C04     		.2byte	0x40c
 10873 20e9 33000000 		.4byte	0x33
 10874 20ed 00000000 		.4byte	.LFB120
 10875 20f1 50090000 		.4byte	.LFE120-.LFB120
 10876 20f5 01       		.uleb128 0x1
 10877 20f6 9C       		.byte	0x9c
 10878 20f7 C2330000 		.4byte	0x33c2
 10879 20fb 15       		.uleb128 0x15
 10880 20fc 90000000 		.4byte	.LBB68
 10881 2100 C0080000 		.4byte	.LBE68-.LBB68
 10882 2104 C1320000 		.4byte	0x32c1
 10883 2108 17       		.uleb128 0x17
 10884 2109 360A0000 		.4byte	.LASF41
 10885 210d 02       		.byte	0x2
 10886 210e 3804     		.2byte	0x438
 10887 2110 8B000000 		.4byte	0x8b
 10888 2114 CD180000 		.4byte	.LLST167
 10889 2118 15       		.uleb128 0x15
 10890 2119 CA000000 		.4byte	.LBB69
 10891 211d 18000000 		.4byte	.LBE69-.LBB69
 10892 2121 7F210000 		.4byte	0x217f
 10893 2125 16       		.uleb128 0x16
 10894 2126 B8060000 		.4byte	.LASF180
 10895 212a 02       		.byte	0x2
 10896 212b 4104     		.2byte	0x441
 10897 212d 8B000000 		.4byte	0x8b
 10898 2131 02       		.uleb128 0x2
 10899 2132 91       		.byte	0x91
 10900 2133 64       		.sleb128 -28
 10901 2134 18       		.uleb128 0x18
 10902 2135 6E00     		.ascii	"n\000"
 10903 2137 02       		.byte	0x2
 10904 2138 4204     		.2byte	0x442
 10905 213a C6000000 		.4byte	0xc6
 10906 213e E2190000 		.4byte	.LLST168
 10907 2142 1C       		.uleb128 0x1c
 10908 2143 D2000000 		.4byte	.LVL707
 10909 2147 0B370000 		.4byte	0x370b
 10910 214b 5C210000 		.4byte	0x215c
 10911 214f 1B       		.uleb128 0x1b
 10912 2150 01       		.uleb128 0x1
 10913 2151 50       		.byte	0x50
 10914 2152 02       		.uleb128 0x2
 10915 2153 74       		.byte	0x74
 10916 2154 00       		.sleb128 0
 10917 2155 1B       		.uleb128 0x1b
 10918 2156 01       		.uleb128 0x1
 10919 2157 51       		.byte	0x51
 10920 2158 02       		.uleb128 0x2
 10921 2159 08       		.byte	0x8
 10922 215a 20       		.byte	0x20
 10923 215b 00       		.byte	0
 10924 215c 1C       		.uleb128 0x1c
 10925 215d DE000000 		.4byte	.LVL708
ARM GAS  C:\Users\FRANKL~1\AppData\Local\Temp\ccjWonOy.s 			page 233


 10926 2161 1A370000 		.4byte	0x371a
 10927 2165 75210000 		.4byte	0x2175
 10928 2169 1B       		.uleb128 0x1b
 10929 216a 01       		.uleb128 0x1
 10930 216b 51       		.byte	0x51
 10931 216c 02       		.uleb128 0x2
 10932 216d 91       		.byte	0x91
 10933 216e 64       		.sleb128 -28
 10934 216f 1B       		.uleb128 0x1b
 10935 2170 01       		.uleb128 0x1
 10936 2171 52       		.byte	0x52
 10937 2172 01       		.uleb128 0x1
 10938 2173 3A       		.byte	0x3a
 10939 2174 00       		.byte	0
 10940 2175 12       		.uleb128 0x12
 10941 2176 E2000000 		.4byte	.LVL709
 10942 217a 681A0000 		.4byte	0x1a68
 10943 217e 00       		.byte	0
 10944 217f 15       		.uleb128 0x15
 10945 2180 40010000 		.4byte	.LBB70
 10946 2184 1A000000 		.4byte	.LBE70-.LBB70
 10947 2188 E8210000 		.4byte	0x21e8
 10948 218c 16       		.uleb128 0x16
 10949 218d B8060000 		.4byte	.LASF180
 10950 2191 02       		.byte	0x2
 10951 2192 5304     		.2byte	0x453
 10952 2194 8B000000 		.4byte	0x8b
 10953 2198 02       		.uleb128 0x2
 10954 2199 91       		.byte	0x91
 10955 219a 64       		.sleb128 -28
 10956 219b 17       		.uleb128 0x17
 10957 219c A7080000 		.4byte	.LASF181
 10958 21a0 02       		.byte	0x2
 10959 21a1 5404     		.2byte	0x454
 10960 21a3 AE000000 		.4byte	0xae
 10961 21a7 F5190000 		.4byte	.LLST169
 10962 21ab 1C       		.uleb128 0x1c
 10963 21ac 48010000 		.4byte	.LVL719
 10964 21b0 0B370000 		.4byte	0x370b
 10965 21b4 C5210000 		.4byte	0x21c5
 10966 21b8 1B       		.uleb128 0x1b
 10967 21b9 01       		.uleb128 0x1
 10968 21ba 50       		.byte	0x50
 10969 21bb 02       		.uleb128 0x2
 10970 21bc 74       		.byte	0x74
 10971 21bd 00       		.sleb128 0
 10972 21be 1B       		.uleb128 0x1b
 10973 21bf 01       		.uleb128 0x1
 10974 21c0 51       		.byte	0x51
 10975 21c1 02       		.uleb128 0x2
 10976 21c2 08       		.byte	0x8
 10977 21c3 20       		.byte	0x20
 10978 21c4 00       		.byte	0
 10979 21c5 1C       		.uleb128 0x1c
 10980 21c6 54010000 		.4byte	.LVL720
 10981 21ca 1A370000 		.4byte	0x371a
 10982 21ce DE210000 		.4byte	0x21de
ARM GAS  C:\Users\FRANKL~1\AppData\Local\Temp\ccjWonOy.s 			page 234


 10983 21d2 1B       		.uleb128 0x1b
 10984 21d3 01       		.uleb128 0x1
 10985 21d4 51       		.byte	0x51
 10986 21d5 02       		.uleb128 0x2
 10987 21d6 91       		.byte	0x91
 10988 21d7 64       		.sleb128 -28
 10989 21d8 1B       		.uleb128 0x1b
 10990 21d9 01       		.uleb128 0x1
 10991 21da 52       		.byte	0x52
 10992 21db 01       		.uleb128 0x1
 10993 21dc 3A       		.byte	0x3a
 10994 21dd 00       		.byte	0
 10995 21de 12       		.uleb128 0x12
 10996 21df 5A010000 		.4byte	.LVL721
 10997 21e3 BD130000 		.4byte	0x13bd
 10998 21e7 00       		.byte	0
 10999 21e8 15       		.uleb128 0x15
 11000 21e9 68010000 		.4byte	.LBB71
 11001 21ed 1A000000 		.4byte	.LBE71-.LBB71
 11002 21f1 51220000 		.4byte	0x2251
 11003 21f5 16       		.uleb128 0x16
 11004 21f6 B8060000 		.4byte	.LASF180
 11005 21fa 02       		.byte	0x2
 11006 21fb 5904     		.2byte	0x459
 11007 21fd 8B000000 		.4byte	0x8b
 11008 2201 02       		.uleb128 0x2
 11009 2202 91       		.byte	0x91
 11010 2203 64       		.sleb128 -28
 11011 2204 17       		.uleb128 0x17
 11012 2205 8C0F0000 		.4byte	.LASF182
 11013 2209 02       		.byte	0x2
 11014 220a 5A04     		.2byte	0x45a
 11015 220c AE000000 		.4byte	0xae
 11016 2210 081A0000 		.4byte	.LLST170
 11017 2214 1C       		.uleb128 0x1c
 11018 2215 70010000 		.4byte	.LVL723
 11019 2219 0B370000 		.4byte	0x370b
 11020 221d 2E220000 		.4byte	0x222e
 11021 2221 1B       		.uleb128 0x1b
 11022 2222 01       		.uleb128 0x1
 11023 2223 50       		.byte	0x50
 11024 2224 02       		.uleb128 0x2
 11025 2225 74       		.byte	0x74
 11026 2226 00       		.sleb128 0
 11027 2227 1B       		.uleb128 0x1b
 11028 2228 01       		.uleb128 0x1
 11029 2229 51       		.byte	0x51
 11030 222a 02       		.uleb128 0x2
 11031 222b 08       		.byte	0x8
 11032 222c 20       		.byte	0x20
 11033 222d 00       		.byte	0
 11034 222e 1C       		.uleb128 0x1c
 11035 222f 7C010000 		.4byte	.LVL724
 11036 2233 1A370000 		.4byte	0x371a
 11037 2237 47220000 		.4byte	0x2247
 11038 223b 1B       		.uleb128 0x1b
 11039 223c 01       		.uleb128 0x1
ARM GAS  C:\Users\FRANKL~1\AppData\Local\Temp\ccjWonOy.s 			page 235


 11040 223d 51       		.byte	0x51
 11041 223e 02       		.uleb128 0x2
 11042 223f 91       		.byte	0x91
 11043 2240 64       		.sleb128 -28
 11044 2241 1B       		.uleb128 0x1b
 11045 2242 01       		.uleb128 0x1
 11046 2243 52       		.byte	0x52
 11047 2244 01       		.uleb128 0x1
 11048 2245 3A       		.byte	0x3a
 11049 2246 00       		.byte	0
 11050 2247 12       		.uleb128 0x12
 11051 2248 82010000 		.4byte	.LVL725
 11052 224c EA120000 		.4byte	0x12ea
 11053 2250 00       		.byte	0
 11054 2251 15       		.uleb128 0x15
 11055 2252 90010000 		.4byte	.LBB72
 11056 2256 1A000000 		.4byte	.LBE72-.LBB72
 11057 225a BA220000 		.4byte	0x22ba
 11058 225e 16       		.uleb128 0x16
 11059 225f B8060000 		.4byte	.LASF180
 11060 2263 02       		.byte	0x2
 11061 2264 5F04     		.2byte	0x45f
 11062 2266 8B000000 		.4byte	0x8b
 11063 226a 02       		.uleb128 0x2
 11064 226b 91       		.byte	0x91
 11065 226c 64       		.sleb128 -28
 11066 226d 17       		.uleb128 0x17
 11067 226e A7080000 		.4byte	.LASF181
 11068 2272 02       		.byte	0x2
 11069 2273 6004     		.2byte	0x460
 11070 2275 D2000000 		.4byte	0xd2
 11071 2279 1B1A0000 		.4byte	.LLST171
 11072 227d 1C       		.uleb128 0x1c
 11073 227e 98010000 		.4byte	.LVL727
 11074 2282 0B370000 		.4byte	0x370b
 11075 2286 97220000 		.4byte	0x2297
 11076 228a 1B       		.uleb128 0x1b
 11077 228b 01       		.uleb128 0x1
 11078 228c 50       		.byte	0x50
 11079 228d 02       		.uleb128 0x2
 11080 228e 74       		.byte	0x74
 11081 228f 00       		.sleb128 0
 11082 2290 1B       		.uleb128 0x1b
 11083 2291 01       		.uleb128 0x1
 11084 2292 51       		.byte	0x51
 11085 2293 02       		.uleb128 0x2
 11086 2294 08       		.byte	0x8
 11087 2295 20       		.byte	0x20
 11088 2296 00       		.byte	0
 11089 2297 1C       		.uleb128 0x1c
 11090 2298 A4010000 		.4byte	.LVL728
 11091 229c 1A370000 		.4byte	0x371a
 11092 22a0 B0220000 		.4byte	0x22b0
 11093 22a4 1B       		.uleb128 0x1b
 11094 22a5 01       		.uleb128 0x1
 11095 22a6 51       		.byte	0x51
 11096 22a7 02       		.uleb128 0x2
ARM GAS  C:\Users\FRANKL~1\AppData\Local\Temp\ccjWonOy.s 			page 236


 11097 22a8 91       		.byte	0x91
 11098 22a9 64       		.sleb128 -28
 11099 22aa 1B       		.uleb128 0x1b
 11100 22ab 01       		.uleb128 0x1
 11101 22ac 52       		.byte	0x52
 11102 22ad 01       		.uleb128 0x1
 11103 22ae 3A       		.byte	0x3a
 11104 22af 00       		.byte	0
 11105 22b0 12       		.uleb128 0x12
 11106 22b1 AA010000 		.4byte	.LVL729
 11107 22b5 78160000 		.4byte	0x1678
 11108 22b9 00       		.byte	0
 11109 22ba 15       		.uleb128 0x15
 11110 22bb B8010000 		.4byte	.LBB73
 11111 22bf 1A000000 		.4byte	.LBE73-.LBB73
 11112 22c3 23230000 		.4byte	0x2323
 11113 22c7 16       		.uleb128 0x16
 11114 22c8 B8060000 		.4byte	.LASF180
 11115 22cc 02       		.byte	0x2
 11116 22cd 6504     		.2byte	0x465
 11117 22cf 8B000000 		.4byte	0x8b
 11118 22d3 02       		.uleb128 0x2
 11119 22d4 91       		.byte	0x91
 11120 22d5 64       		.sleb128 -28
 11121 22d6 17       		.uleb128 0x17
 11122 22d7 8C0F0000 		.4byte	.LASF182
 11123 22db 02       		.byte	0x2
 11124 22dc 6604     		.2byte	0x466
 11125 22de D2000000 		.4byte	0xd2
 11126 22e2 2E1A0000 		.4byte	.LLST172
 11127 22e6 1C       		.uleb128 0x1c
 11128 22e7 C0010000 		.4byte	.LVL731
 11129 22eb 0B370000 		.4byte	0x370b
 11130 22ef 00230000 		.4byte	0x2300
 11131 22f3 1B       		.uleb128 0x1b
 11132 22f4 01       		.uleb128 0x1
 11133 22f5 50       		.byte	0x50
 11134 22f6 02       		.uleb128 0x2
 11135 22f7 74       		.byte	0x74
 11136 22f8 00       		.sleb128 0
 11137 22f9 1B       		.uleb128 0x1b
 11138 22fa 01       		.uleb128 0x1
 11139 22fb 51       		.byte	0x51
 11140 22fc 02       		.uleb128 0x2
 11141 22fd 08       		.byte	0x8
 11142 22fe 20       		.byte	0x20
 11143 22ff 00       		.byte	0
 11144 2300 1C       		.uleb128 0x1c
 11145 2301 CC010000 		.4byte	.LVL732
 11146 2305 1A370000 		.4byte	0x371a
 11147 2309 19230000 		.4byte	0x2319
 11148 230d 1B       		.uleb128 0x1b
 11149 230e 01       		.uleb128 0x1
 11150 230f 51       		.byte	0x51
 11151 2310 02       		.uleb128 0x2
 11152 2311 91       		.byte	0x91
 11153 2312 64       		.sleb128 -28
ARM GAS  C:\Users\FRANKL~1\AppData\Local\Temp\ccjWonOy.s 			page 237


 11154 2313 1B       		.uleb128 0x1b
 11155 2314 01       		.uleb128 0x1
 11156 2315 52       		.byte	0x52
 11157 2316 01       		.uleb128 0x1
 11158 2317 3A       		.byte	0x3a
 11159 2318 00       		.byte	0
 11160 2319 12       		.uleb128 0x12
 11161 231a D2010000 		.4byte	.LVL733
 11162 231e A6150000 		.4byte	0x15a6
 11163 2322 00       		.byte	0
 11164 2323 15       		.uleb128 0x15
 11165 2324 E0010000 		.4byte	.LBB74
 11166 2328 1C000000 		.4byte	.LBE74-.LBB74
 11167 232c 9C230000 		.4byte	0x239c
 11168 2330 17       		.uleb128 0x17
 11169 2331 B8060000 		.4byte	.LASF180
 11170 2335 02       		.byte	0x2
 11171 2336 6B04     		.2byte	0x46b
 11172 2338 8B000000 		.4byte	0x8b
 11173 233c 411A0000 		.4byte	.LLST173
 11174 2340 30       		.uleb128 0x30
 11175 2341 76677300 		.ascii	"vgs\000"
 11176 2345 02       		.byte	0x2
 11177 2346 6C04     		.2byte	0x46c
 11178 2348 25000000 		.4byte	0x25
 11179 234c 02       		.uleb128 0x2
 11180 234d 91       		.byte	0x91
 11181 234e 64       		.sleb128 -28
 11182 234f 2D       		.uleb128 0x2d
 11183 2350 F6090000 		.4byte	.LASF183
 11184 2354 02       		.byte	0x2
 11185 2355 6D04     		.2byte	0x46d
 11186 2357 D2000000 		.4byte	0xd2
 11187 235b 1C       		.uleb128 0x1c
 11188 235c E8010000 		.4byte	.LVL735
 11189 2360 0B370000 		.4byte	0x370b
 11190 2364 75230000 		.4byte	0x2375
 11191 2368 1B       		.uleb128 0x1b
 11192 2369 01       		.uleb128 0x1
 11193 236a 50       		.byte	0x50
 11194 236b 02       		.uleb128 0x2
 11195 236c 74       		.byte	0x74
 11196 236d 00       		.sleb128 0
 11197 236e 1B       		.uleb128 0x1b
 11198 236f 01       		.uleb128 0x1
 11199 2370 51       		.byte	0x51
 11200 2371 02       		.uleb128 0x2
 11201 2372 08       		.byte	0x8
 11202 2373 20       		.byte	0x20
 11203 2374 00       		.byte	0
 11204 2375 1C       		.uleb128 0x1c
 11205 2376 F6010000 		.4byte	.LVL736
 11206 237a 25370000 		.4byte	0x3725
 11207 237e 92230000 		.4byte	0x2392
 11208 2382 1B       		.uleb128 0x1b
 11209 2383 01       		.uleb128 0x1
 11210 2384 51       		.byte	0x51
ARM GAS  C:\Users\FRANKL~1\AppData\Local\Temp\ccjWonOy.s 			page 238


 11211 2385 05       		.uleb128 0x5
 11212 2386 03       		.byte	0x3
 11213 2387 C8010000 		.4byte	.LC27
 11214 238b 1B       		.uleb128 0x1b
 11215 238c 01       		.uleb128 0x1
 11216 238d 52       		.byte	0x52
 11217 238e 02       		.uleb128 0x2
 11218 238f 91       		.byte	0x91
 11219 2390 64       		.sleb128 -28
 11220 2391 00       		.byte	0
 11221 2392 12       		.uleb128 0x12
 11222 2393 FC010000 		.4byte	.LVL737
 11223 2397 4A170000 		.4byte	0x174a
 11224 239b 00       		.byte	0
 11225 239c 15       		.uleb128 0x15
 11226 239d 0A020000 		.4byte	.LBB75
 11227 23a1 1C000000 		.4byte	.LBE75-.LBB75
 11228 23a5 15240000 		.4byte	0x2415
 11229 23a9 17       		.uleb128 0x17
 11230 23aa B8060000 		.4byte	.LASF180
 11231 23ae 02       		.byte	0x2
 11232 23af 7204     		.2byte	0x472
 11233 23b1 8B000000 		.4byte	0x8b
 11234 23b5 541A0000 		.4byte	.LLST174
 11235 23b9 30       		.uleb128 0x30
 11236 23ba 76647300 		.ascii	"vds\000"
 11237 23be 02       		.byte	0x2
 11238 23bf 7304     		.2byte	0x473
 11239 23c1 25000000 		.4byte	0x25
 11240 23c5 02       		.uleb128 0x2
 11241 23c6 91       		.byte	0x91
 11242 23c7 64       		.sleb128 -28
 11243 23c8 2D       		.uleb128 0x2d
 11244 23c9 F6090000 		.4byte	.LASF183
 11245 23cd 02       		.byte	0x2
 11246 23ce 7404     		.2byte	0x474
 11247 23d0 D2000000 		.4byte	0xd2
 11248 23d4 1C       		.uleb128 0x1c
 11249 23d5 12020000 		.4byte	.LVL739
 11250 23d9 0B370000 		.4byte	0x370b
 11251 23dd EE230000 		.4byte	0x23ee
 11252 23e1 1B       		.uleb128 0x1b
 11253 23e2 01       		.uleb128 0x1
 11254 23e3 50       		.byte	0x50
 11255 23e4 02       		.uleb128 0x2
 11256 23e5 74       		.byte	0x74
 11257 23e6 00       		.sleb128 0
 11258 23e7 1B       		.uleb128 0x1b
 11259 23e8 01       		.uleb128 0x1
 11260 23e9 51       		.byte	0x51
 11261 23ea 02       		.uleb128 0x2
 11262 23eb 08       		.byte	0x8
 11263 23ec 20       		.byte	0x20
 11264 23ed 00       		.byte	0
 11265 23ee 1C       		.uleb128 0x1c
 11266 23ef 20020000 		.4byte	.LVL740
 11267 23f3 25370000 		.4byte	0x3725
ARM GAS  C:\Users\FRANKL~1\AppData\Local\Temp\ccjWonOy.s 			page 239


 11268 23f7 0B240000 		.4byte	0x240b
 11269 23fb 1B       		.uleb128 0x1b
 11270 23fc 01       		.uleb128 0x1
 11271 23fd 51       		.byte	0x51
 11272 23fe 05       		.uleb128 0x5
 11273 23ff 03       		.byte	0x3
 11274 2400 C8010000 		.4byte	.LC27
 11275 2404 1B       		.uleb128 0x1b
 11276 2405 01       		.uleb128 0x1
 11277 2406 52       		.byte	0x52
 11278 2407 02       		.uleb128 0x2
 11279 2408 91       		.byte	0x91
 11280 2409 64       		.sleb128 -28
 11281 240a 00       		.byte	0
 11282 240b 12       		.uleb128 0x12
 11283 240c 26020000 		.4byte	.LVL741
 11284 2410 7A170000 		.4byte	0x177a
 11285 2414 00       		.byte	0
 11286 2415 15       		.uleb128 0x15
 11287 2416 34020000 		.4byte	.LBB76
 11288 241a 34000000 		.4byte	.LBE76-.LBB76
 11289 241e B3240000 		.4byte	0x24b3
 11290 2422 16       		.uleb128 0x16
 11291 2423 B8060000 		.4byte	.LASF180
 11292 2427 02       		.byte	0x2
 11293 2428 7904     		.2byte	0x479
 11294 242a 8B000000 		.4byte	0x8b
 11295 242e 02       		.uleb128 0x2
 11296 242f 91       		.byte	0x91
 11297 2430 64       		.sleb128 -28
 11298 2431 17       		.uleb128 0x17
 11299 2432 ED030000 		.4byte	.LASF184
 11300 2436 02       		.byte	0x2
 11301 2437 7A04     		.2byte	0x47a
 11302 2439 25000000 		.4byte	0x25
 11303 243d 671A0000 		.4byte	.LLST175
 11304 2441 1C       		.uleb128 0x1c
 11305 2442 3C020000 		.4byte	.LVL743
 11306 2446 0B370000 		.4byte	0x370b
 11307 244a 5B240000 		.4byte	0x245b
 11308 244e 1B       		.uleb128 0x1b
 11309 244f 01       		.uleb128 0x1
 11310 2450 50       		.byte	0x50
 11311 2451 02       		.uleb128 0x2
 11312 2452 74       		.byte	0x74
 11313 2453 00       		.sleb128 0
 11314 2454 1B       		.uleb128 0x1b
 11315 2455 01       		.uleb128 0x1
 11316 2456 51       		.byte	0x51
 11317 2457 02       		.uleb128 0x2
 11318 2458 08       		.byte	0x8
 11319 2459 20       		.byte	0x20
 11320 245a 00       		.byte	0
 11321 245b 1C       		.uleb128 0x1c
 11322 245c 48020000 		.4byte	.LVL744
 11323 2460 1A370000 		.4byte	0x371a
 11324 2464 74240000 		.4byte	0x2474
ARM GAS  C:\Users\FRANKL~1\AppData\Local\Temp\ccjWonOy.s 			page 240


 11325 2468 1B       		.uleb128 0x1b
 11326 2469 01       		.uleb128 0x1
 11327 246a 51       		.byte	0x51
 11328 246b 02       		.uleb128 0x2
 11329 246c 91       		.byte	0x91
 11330 246d 64       		.sleb128 -28
 11331 246e 1B       		.uleb128 0x1b
 11332 246f 01       		.uleb128 0x1
 11333 2470 52       		.byte	0x52
 11334 2471 01       		.uleb128 0x1
 11335 2472 3A       		.byte	0x3a
 11336 2473 00       		.byte	0
 11337 2474 1C       		.uleb128 0x1c
 11338 2475 52020000 		.4byte	.LVL747
 11339 2479 AA170000 		.4byte	0x17aa
 11340 247d 89240000 		.4byte	0x2489
 11341 2481 1B       		.uleb128 0x1b
 11342 2482 01       		.uleb128 0x1
 11343 2483 50       		.byte	0x50
 11344 2484 03       		.uleb128 0x3
 11345 2485 F5       		.byte	0xf5
 11346 2486 04       		.uleb128 0x4
 11347 2487 25       		.uleb128 0x25
 11348 2488 00       		.byte	0
 11349 2489 1C       		.uleb128 0x1c
 11350 248a 64020000 		.4byte	.LVL749
 11351 248e 45360000 		.4byte	0x3645
 11352 2492 A9240000 		.4byte	0x24a9
 11353 2496 1B       		.uleb128 0x1b
 11354 2497 01       		.uleb128 0x1
 11355 2498 50       		.byte	0x50
 11356 2499 05       		.uleb128 0x5
 11357 249a 03       		.byte	0x3
 11358 249b 00000000 		.4byte	TransmitBuffer
 11359 249f 1B       		.uleb128 0x1b
 11360 24a0 01       		.uleb128 0x1
 11361 24a1 51       		.byte	0x51
 11362 24a2 05       		.uleb128 0x5
 11363 24a3 03       		.byte	0x3
 11364 24a4 E4010000 		.4byte	.LC30
 11365 24a8 00       		.byte	0
 11366 24a9 12       		.uleb128 0x12
 11367 24aa 68020000 		.4byte	.LVL750
 11368 24ae B5050000 		.4byte	0x5b5
 11369 24b2 00       		.byte	0
 11370 24b3 15       		.uleb128 0x15
 11371 24b4 76020000 		.4byte	.LBB77
 11372 24b8 34000000 		.4byte	.LBE77-.LBB77
 11373 24bc 51250000 		.4byte	0x2551
 11374 24c0 16       		.uleb128 0x16
 11375 24c1 B8060000 		.4byte	.LASF180
 11376 24c5 02       		.byte	0x2
 11377 24c6 8204     		.2byte	0x482
 11378 24c8 8B000000 		.4byte	0x8b
 11379 24cc 02       		.uleb128 0x2
 11380 24cd 91       		.byte	0x91
 11381 24ce 64       		.sleb128 -28
ARM GAS  C:\Users\FRANKL~1\AppData\Local\Temp\ccjWonOy.s 			page 241


 11382 24cf 17       		.uleb128 0x17
 11383 24d0 620B0000 		.4byte	.LASF185
 11384 24d4 02       		.byte	0x2
 11385 24d5 8304     		.2byte	0x483
 11386 24d7 25000000 		.4byte	0x25
 11387 24db 851A0000 		.4byte	.LLST176
 11388 24df 1C       		.uleb128 0x1c
 11389 24e0 7E020000 		.4byte	.LVL753
 11390 24e4 0B370000 		.4byte	0x370b
 11391 24e8 F9240000 		.4byte	0x24f9
 11392 24ec 1B       		.uleb128 0x1b
 11393 24ed 01       		.uleb128 0x1
 11394 24ee 50       		.byte	0x50
 11395 24ef 02       		.uleb128 0x2
 11396 24f0 74       		.byte	0x74
 11397 24f1 00       		.sleb128 0
 11398 24f2 1B       		.uleb128 0x1b
 11399 24f3 01       		.uleb128 0x1
 11400 24f4 51       		.byte	0x51
 11401 24f5 02       		.uleb128 0x2
 11402 24f6 08       		.byte	0x8
 11403 24f7 20       		.byte	0x20
 11404 24f8 00       		.byte	0
 11405 24f9 1C       		.uleb128 0x1c
 11406 24fa 8A020000 		.4byte	.LVL754
 11407 24fe 1A370000 		.4byte	0x371a
 11408 2502 12250000 		.4byte	0x2512
 11409 2506 1B       		.uleb128 0x1b
 11410 2507 01       		.uleb128 0x1
 11411 2508 51       		.byte	0x51
 11412 2509 02       		.uleb128 0x2
 11413 250a 91       		.byte	0x91
 11414 250b 64       		.sleb128 -28
 11415 250c 1B       		.uleb128 0x1b
 11416 250d 01       		.uleb128 0x1
 11417 250e 52       		.byte	0x52
 11418 250f 01       		.uleb128 0x1
 11419 2510 3A       		.byte	0x3a
 11420 2511 00       		.byte	0
 11421 2512 1C       		.uleb128 0x1c
 11422 2513 94020000 		.4byte	.LVL757
 11423 2517 D9170000 		.4byte	0x17d9
 11424 251b 27250000 		.4byte	0x2527
 11425 251f 1B       		.uleb128 0x1b
 11426 2520 01       		.uleb128 0x1
 11427 2521 50       		.byte	0x50
 11428 2522 03       		.uleb128 0x3
 11429 2523 F5       		.byte	0xf5
 11430 2524 04       		.uleb128 0x4
 11431 2525 25       		.uleb128 0x25
 11432 2526 00       		.byte	0
 11433 2527 1C       		.uleb128 0x1c
 11434 2528 A6020000 		.4byte	.LVL759
 11435 252c 45360000 		.4byte	0x3645
 11436 2530 47250000 		.4byte	0x2547
 11437 2534 1B       		.uleb128 0x1b
 11438 2535 01       		.uleb128 0x1
ARM GAS  C:\Users\FRANKL~1\AppData\Local\Temp\ccjWonOy.s 			page 242


 11439 2536 50       		.byte	0x50
 11440 2537 05       		.uleb128 0x5
 11441 2538 03       		.byte	0x3
 11442 2539 00000000 		.4byte	TransmitBuffer
 11443 253d 1B       		.uleb128 0x1b
 11444 253e 01       		.uleb128 0x1
 11445 253f 51       		.byte	0x51
 11446 2540 05       		.uleb128 0x5
 11447 2541 03       		.byte	0x3
 11448 2542 08020000 		.4byte	.LC32
 11449 2546 00       		.byte	0
 11450 2547 12       		.uleb128 0x12
 11451 2548 AA020000 		.4byte	.LVL760
 11452 254c B5050000 		.4byte	0x5b5
 11453 2550 00       		.byte	0
 11454 2551 15       		.uleb128 0x15
 11455 2552 F8020000 		.4byte	.LBB78
 11456 2556 64000000 		.4byte	.LBE78-.LBB78
 11457 255a 0A260000 		.4byte	0x260a
 11458 255e 16       		.uleb128 0x16
 11459 255f B8060000 		.4byte	.LASF180
 11460 2563 02       		.byte	0x2
 11461 2564 9704     		.2byte	0x497
 11462 2566 8B000000 		.4byte	0x8b
 11463 256a 02       		.uleb128 0x2
 11464 256b 91       		.byte	0x91
 11465 256c 64       		.sleb128 -28
 11466 256d 17       		.uleb128 0x17
 11467 256e B60B0000 		.4byte	.LASF178
 11468 2572 02       		.byte	0x2
 11469 2573 9804     		.2byte	0x498
 11470 2575 AE000000 		.4byte	0xae
 11471 2579 A31A0000 		.4byte	.LLST177
 11472 257d 17       		.uleb128 0x17
 11473 257e 710B0000 		.4byte	.LASF179
 11474 2582 02       		.byte	0x2
 11475 2583 9904     		.2byte	0x499
 11476 2585 AE000000 		.4byte	0xae
 11477 2589 B61A0000 		.4byte	.LLST178
 11478 258d 12       		.uleb128 0x12
 11479 258e 14030000 		.4byte	.LVL769
 11480 2592 B5050000 		.4byte	0x5b5
 11481 2596 1C       		.uleb128 0x1c
 11482 2597 1C030000 		.4byte	.LVL770
 11483 259b 0B370000 		.4byte	0x370b
 11484 259f B0250000 		.4byte	0x25b0
 11485 25a3 1B       		.uleb128 0x1b
 11486 25a4 01       		.uleb128 0x1
 11487 25a5 50       		.byte	0x50
 11488 25a6 02       		.uleb128 0x2
 11489 25a7 74       		.byte	0x74
 11490 25a8 00       		.sleb128 0
 11491 25a9 1B       		.uleb128 0x1b
 11492 25aa 01       		.uleb128 0x1
 11493 25ab 51       		.byte	0x51
 11494 25ac 02       		.uleb128 0x2
 11495 25ad 08       		.byte	0x8
ARM GAS  C:\Users\FRANKL~1\AppData\Local\Temp\ccjWonOy.s 			page 243


 11496 25ae 20       		.byte	0x20
 11497 25af 00       		.byte	0
 11498 25b0 1C       		.uleb128 0x1c
 11499 25b1 2A030000 		.4byte	.LVL772
 11500 25b5 1A370000 		.4byte	0x371a
 11501 25b9 C9250000 		.4byte	0x25c9
 11502 25bd 1B       		.uleb128 0x1b
 11503 25be 01       		.uleb128 0x1
 11504 25bf 51       		.byte	0x51
 11505 25c0 02       		.uleb128 0x2
 11506 25c1 74       		.byte	0x74
 11507 25c2 00       		.sleb128 0
 11508 25c3 1B       		.uleb128 0x1b
 11509 25c4 01       		.uleb128 0x1
 11510 25c5 52       		.byte	0x52
 11511 25c6 01       		.uleb128 0x1
 11512 25c7 3A       		.byte	0x3a
 11513 25c8 00       		.byte	0
 11514 25c9 1C       		.uleb128 0x1c
 11515 25ca 36030000 		.4byte	.LVL774
 11516 25ce 1A370000 		.4byte	0x371a
 11517 25d2 E2250000 		.4byte	0x25e2
 11518 25d6 1B       		.uleb128 0x1b
 11519 25d7 01       		.uleb128 0x1
 11520 25d8 51       		.byte	0x51
 11521 25d9 02       		.uleb128 0x2
 11522 25da 74       		.byte	0x74
 11523 25db 00       		.sleb128 0
 11524 25dc 1B       		.uleb128 0x1b
 11525 25dd 01       		.uleb128 0x1
 11526 25de 52       		.byte	0x52
 11527 25df 01       		.uleb128 0x1
 11528 25e0 3A       		.byte	0x3a
 11529 25e1 00       		.byte	0
 11530 25e2 1C       		.uleb128 0x1c
 11531 25e3 42030000 		.4byte	.LVL776
 11532 25e7 861F0000 		.4byte	0x1f86
 11533 25eb 00260000 		.4byte	0x2600
 11534 25ef 1B       		.uleb128 0x1b
 11535 25f0 01       		.uleb128 0x1
 11536 25f1 50       		.byte	0x50
 11537 25f2 02       		.uleb128 0x2
 11538 25f3 76       		.byte	0x76
 11539 25f4 00       		.sleb128 0
 11540 25f5 1B       		.uleb128 0x1b
 11541 25f6 01       		.uleb128 0x1
 11542 25f7 52       		.byte	0x52
 11543 25f8 01       		.uleb128 0x1
 11544 25f9 30       		.byte	0x30
 11545 25fa 1B       		.uleb128 0x1b
 11546 25fb 01       		.uleb128 0x1
 11547 25fc 53       		.byte	0x53
 11548 25fd 01       		.uleb128 0x1
 11549 25fe 30       		.byte	0x30
 11550 25ff 00       		.byte	0
 11551 2600 12       		.uleb128 0x12
 11552 2601 5C030000 		.4byte	.LVL777
ARM GAS  C:\Users\FRANKL~1\AppData\Local\Temp\ccjWonOy.s 			page 244


 11553 2605 B5050000 		.4byte	0x5b5
 11554 2609 00       		.byte	0
 11555 260a 15       		.uleb128 0x15
 11556 260b EC030000 		.4byte	.LBB79
 11557 260f 70000000 		.4byte	.LBE79-.LBB79
 11558 2613 C3260000 		.4byte	0x26c3
 11559 2617 16       		.uleb128 0x16
 11560 2618 B8060000 		.4byte	.LASF180
 11561 261c 02       		.byte	0x2
 11562 261d A304     		.2byte	0x4a3
 11563 261f 8B000000 		.4byte	0x8b
 11564 2623 02       		.uleb128 0x2
 11565 2624 91       		.byte	0x91
 11566 2625 64       		.sleb128 -28
 11567 2626 17       		.uleb128 0x17
 11568 2627 B60B0000 		.4byte	.LASF178
 11569 262b 02       		.byte	0x2
 11570 262c A404     		.2byte	0x4a4
 11571 262e AE000000 		.4byte	0xae
 11572 2632 D41A0000 		.4byte	.LLST179
 11573 2636 17       		.uleb128 0x17
 11574 2637 710B0000 		.4byte	.LASF179
 11575 263b 02       		.byte	0x2
 11576 263c A504     		.2byte	0x4a5
 11577 263e AE000000 		.4byte	0xae
 11578 2642 E71A0000 		.4byte	.LLST180
 11579 2646 12       		.uleb128 0x12
 11580 2647 0E040000 		.4byte	.LVL780
 11581 264b B5050000 		.4byte	0x5b5
 11582 264f 1C       		.uleb128 0x1c
 11583 2650 16040000 		.4byte	.LVL781
 11584 2654 0B370000 		.4byte	0x370b
 11585 2658 69260000 		.4byte	0x2669
 11586 265c 1B       		.uleb128 0x1b
 11587 265d 01       		.uleb128 0x1
 11588 265e 50       		.byte	0x50
 11589 265f 02       		.uleb128 0x2
 11590 2660 74       		.byte	0x74
 11591 2661 00       		.sleb128 0
 11592 2662 1B       		.uleb128 0x1b
 11593 2663 01       		.uleb128 0x1
 11594 2664 51       		.byte	0x51
 11595 2665 02       		.uleb128 0x2
 11596 2666 08       		.byte	0x8
 11597 2667 20       		.byte	0x20
 11598 2668 00       		.byte	0
 11599 2669 1C       		.uleb128 0x1c
 11600 266a 24040000 		.4byte	.LVL783
 11601 266e 1A370000 		.4byte	0x371a
 11602 2672 82260000 		.4byte	0x2682
 11603 2676 1B       		.uleb128 0x1b
 11604 2677 01       		.uleb128 0x1
 11605 2678 51       		.byte	0x51
 11606 2679 02       		.uleb128 0x2
 11607 267a 74       		.byte	0x74
 11608 267b 00       		.sleb128 0
 11609 267c 1B       		.uleb128 0x1b
ARM GAS  C:\Users\FRANKL~1\AppData\Local\Temp\ccjWonOy.s 			page 245


 11610 267d 01       		.uleb128 0x1
 11611 267e 52       		.byte	0x52
 11612 267f 01       		.uleb128 0x1
 11613 2680 3A       		.byte	0x3a
 11614 2681 00       		.byte	0
 11615 2682 1C       		.uleb128 0x1c
 11616 2683 30040000 		.4byte	.LVL785
 11617 2687 1A370000 		.4byte	0x371a
 11618 268b 9B260000 		.4byte	0x269b
 11619 268f 1B       		.uleb128 0x1b
 11620 2690 01       		.uleb128 0x1
 11621 2691 51       		.byte	0x51
 11622 2692 02       		.uleb128 0x2
 11623 2693 74       		.byte	0x74
 11624 2694 00       		.sleb128 0
 11625 2695 1B       		.uleb128 0x1b
 11626 2696 01       		.uleb128 0x1
 11627 2697 52       		.byte	0x52
 11628 2698 01       		.uleb128 0x1
 11629 2699 3A       		.byte	0x3a
 11630 269a 00       		.byte	0
 11631 269b 1C       		.uleb128 0x1c
 11632 269c 3C040000 		.4byte	.LVL787
 11633 26a0 861F0000 		.4byte	0x1f86
 11634 26a4 B9260000 		.4byte	0x26b9
 11635 26a8 1B       		.uleb128 0x1b
 11636 26a9 01       		.uleb128 0x1
 11637 26aa 50       		.byte	0x50
 11638 26ab 02       		.uleb128 0x2
 11639 26ac 76       		.byte	0x76
 11640 26ad 00       		.sleb128 0
 11641 26ae 1B       		.uleb128 0x1b
 11642 26af 01       		.uleb128 0x1
 11643 26b0 52       		.byte	0x52
 11644 26b1 01       		.uleb128 0x1
 11645 26b2 30       		.byte	0x30
 11646 26b3 1B       		.uleb128 0x1b
 11647 26b4 01       		.uleb128 0x1
 11648 26b5 53       		.byte	0x53
 11649 26b6 01       		.uleb128 0x1
 11650 26b7 31       		.byte	0x31
 11651 26b8 00       		.byte	0
 11652 26b9 12       		.uleb128 0x12
 11653 26ba 5C040000 		.4byte	.LVL788
 11654 26be B5050000 		.4byte	0x5b5
 11655 26c2 00       		.byte	0
 11656 26c3 15       		.uleb128 0x15
 11657 26c4 6A040000 		.4byte	.LBB80
 11658 26c8 76000000 		.4byte	.LBE80-.LBB80
 11659 26cc 7C270000 		.4byte	0x277c
 11660 26d0 16       		.uleb128 0x16
 11661 26d1 B8060000 		.4byte	.LASF180
 11662 26d5 02       		.byte	0x2
 11663 26d6 AF04     		.2byte	0x4af
 11664 26d8 8B000000 		.4byte	0x8b
 11665 26dc 02       		.uleb128 0x2
 11666 26dd 91       		.byte	0x91
ARM GAS  C:\Users\FRANKL~1\AppData\Local\Temp\ccjWonOy.s 			page 246


 11667 26de 64       		.sleb128 -28
 11668 26df 17       		.uleb128 0x17
 11669 26e0 B60B0000 		.4byte	.LASF178
 11670 26e4 02       		.byte	0x2
 11671 26e5 B004     		.2byte	0x4b0
 11672 26e7 AE000000 		.4byte	0xae
 11673 26eb 051B0000 		.4byte	.LLST181
 11674 26ef 17       		.uleb128 0x17
 11675 26f0 710B0000 		.4byte	.LASF179
 11676 26f4 02       		.byte	0x2
 11677 26f5 B104     		.2byte	0x4b1
 11678 26f7 AE000000 		.4byte	0xae
 11679 26fb 181B0000 		.4byte	.LLST182
 11680 26ff 12       		.uleb128 0x12
 11681 2700 8E040000 		.4byte	.LVL791
 11682 2704 B5050000 		.4byte	0x5b5
 11683 2708 1C       		.uleb128 0x1c
 11684 2709 96040000 		.4byte	.LVL792
 11685 270d 0B370000 		.4byte	0x370b
 11686 2711 22270000 		.4byte	0x2722
 11687 2715 1B       		.uleb128 0x1b
 11688 2716 01       		.uleb128 0x1
 11689 2717 50       		.byte	0x50
 11690 2718 02       		.uleb128 0x2
 11691 2719 74       		.byte	0x74
 11692 271a 00       		.sleb128 0
 11693 271b 1B       		.uleb128 0x1b
 11694 271c 01       		.uleb128 0x1
 11695 271d 51       		.byte	0x51
 11696 271e 02       		.uleb128 0x2
 11697 271f 08       		.byte	0x8
 11698 2720 20       		.byte	0x20
 11699 2721 00       		.byte	0
 11700 2722 1C       		.uleb128 0x1c
 11701 2723 A4040000 		.4byte	.LVL794
 11702 2727 1A370000 		.4byte	0x371a
 11703 272b 3B270000 		.4byte	0x273b
 11704 272f 1B       		.uleb128 0x1b
 11705 2730 01       		.uleb128 0x1
 11706 2731 51       		.byte	0x51
 11707 2732 02       		.uleb128 0x2
 11708 2733 74       		.byte	0x74
 11709 2734 00       		.sleb128 0
 11710 2735 1B       		.uleb128 0x1b
 11711 2736 01       		.uleb128 0x1
 11712 2737 52       		.byte	0x52
 11713 2738 01       		.uleb128 0x1
 11714 2739 3A       		.byte	0x3a
 11715 273a 00       		.byte	0
 11716 273b 1C       		.uleb128 0x1c
 11717 273c B0040000 		.4byte	.LVL796
 11718 2740 1A370000 		.4byte	0x371a
 11719 2744 54270000 		.4byte	0x2754
 11720 2748 1B       		.uleb128 0x1b
 11721 2749 01       		.uleb128 0x1
 11722 274a 51       		.byte	0x51
 11723 274b 02       		.uleb128 0x2
ARM GAS  C:\Users\FRANKL~1\AppData\Local\Temp\ccjWonOy.s 			page 247


 11724 274c 74       		.byte	0x74
 11725 274d 00       		.sleb128 0
 11726 274e 1B       		.uleb128 0x1b
 11727 274f 01       		.uleb128 0x1
 11728 2750 52       		.byte	0x52
 11729 2751 01       		.uleb128 0x1
 11730 2752 3A       		.byte	0x3a
 11731 2753 00       		.byte	0
 11732 2754 1C       		.uleb128 0x1c
 11733 2755 BC040000 		.4byte	.LVL798
 11734 2759 861F0000 		.4byte	0x1f86
 11735 275d 72270000 		.4byte	0x2772
 11736 2761 1B       		.uleb128 0x1b
 11737 2762 01       		.uleb128 0x1
 11738 2763 50       		.byte	0x50
 11739 2764 02       		.uleb128 0x2
 11740 2765 75       		.byte	0x75
 11741 2766 00       		.sleb128 0
 11742 2767 1B       		.uleb128 0x1b
 11743 2768 01       		.uleb128 0x1
 11744 2769 52       		.byte	0x52
 11745 276a 01       		.uleb128 0x1
 11746 276b 31       		.byte	0x31
 11747 276c 1B       		.uleb128 0x1b
 11748 276d 01       		.uleb128 0x1
 11749 276e 53       		.byte	0x53
 11750 276f 01       		.uleb128 0x1
 11751 2770 31       		.byte	0x31
 11752 2771 00       		.byte	0
 11753 2772 12       		.uleb128 0x12
 11754 2773 E0040000 		.4byte	.LVL800
 11755 2777 B5050000 		.4byte	0x5b5
 11756 277b 00       		.byte	0
 11757 277c 15       		.uleb128 0x15
 11758 277d EE040000 		.4byte	.LBB81
 11759 2781 3C000000 		.4byte	.LBE81-.LBB81
 11760 2785 54280000 		.4byte	0x2854
 11761 2789 16       		.uleb128 0x16
 11762 278a B8060000 		.4byte	.LASF180
 11763 278e 02       		.byte	0x2
 11764 278f B804     		.2byte	0x4b8
 11765 2791 8B000000 		.4byte	0x8b
 11766 2795 02       		.uleb128 0x2
 11767 2796 91       		.byte	0x91
 11768 2797 64       		.sleb128 -28
 11769 2798 17       		.uleb128 0x17
 11770 2799 690B0000 		.4byte	.LASF62
 11771 279d 02       		.byte	0x2
 11772 279e B904     		.2byte	0x4b9
 11773 27a0 AE000000 		.4byte	0xae
 11774 27a4 361B0000 		.4byte	.LLST183
 11775 27a8 17       		.uleb128 0x17
 11776 27a9 00000000 		.4byte	.LASF59
 11777 27ad 02       		.byte	0x2
 11778 27ae BA04     		.2byte	0x4ba
 11779 27b0 AE000000 		.4byte	0xae
 11780 27b4 491B0000 		.4byte	.LLST184
ARM GAS  C:\Users\FRANKL~1\AppData\Local\Temp\ccjWonOy.s 			page 248


 11781 27b8 1C       		.uleb128 0x1c
 11782 27b9 F6040000 		.4byte	.LVL803
 11783 27bd 0B370000 		.4byte	0x370b
 11784 27c1 D2270000 		.4byte	0x27d2
 11785 27c5 1B       		.uleb128 0x1b
 11786 27c6 01       		.uleb128 0x1
 11787 27c7 50       		.byte	0x50
 11788 27c8 02       		.uleb128 0x2
 11789 27c9 74       		.byte	0x74
 11790 27ca 00       		.sleb128 0
 11791 27cb 1B       		.uleb128 0x1b
 11792 27cc 01       		.uleb128 0x1
 11793 27cd 51       		.byte	0x51
 11794 27ce 02       		.uleb128 0x2
 11795 27cf 08       		.byte	0x8
 11796 27d0 20       		.byte	0x20
 11797 27d1 00       		.byte	0
 11798 27d2 1C       		.uleb128 0x1c
 11799 27d3 04050000 		.4byte	.LVL805
 11800 27d7 1A370000 		.4byte	0x371a
 11801 27db EB270000 		.4byte	0x27eb
 11802 27df 1B       		.uleb128 0x1b
 11803 27e0 01       		.uleb128 0x1
 11804 27e1 51       		.byte	0x51
 11805 27e2 02       		.uleb128 0x2
 11806 27e3 74       		.byte	0x74
 11807 27e4 00       		.sleb128 0
 11808 27e5 1B       		.uleb128 0x1b
 11809 27e6 01       		.uleb128 0x1
 11810 27e7 52       		.byte	0x52
 11811 27e8 01       		.uleb128 0x1
 11812 27e9 3A       		.byte	0x3a
 11813 27ea 00       		.byte	0
 11814 27eb 1C       		.uleb128 0x1c
 11815 27ec 10050000 		.4byte	.LVL807
 11816 27f0 1A370000 		.4byte	0x371a
 11817 27f4 04280000 		.4byte	0x2804
 11818 27f8 1B       		.uleb128 0x1b
 11819 27f9 01       		.uleb128 0x1
 11820 27fa 51       		.byte	0x51
 11821 27fb 02       		.uleb128 0x2
 11822 27fc 74       		.byte	0x74
 11823 27fd 00       		.sleb128 0
 11824 27fe 1B       		.uleb128 0x1b
 11825 27ff 01       		.uleb128 0x1
 11826 2800 52       		.byte	0x52
 11827 2801 01       		.uleb128 0x1
 11828 2802 3A       		.byte	0x3a
 11829 2803 00       		.byte	0
 11830 2804 1C       		.uleb128 0x1c
 11831 2805 1A050000 		.4byte	.LVL809
 11832 2809 49080000 		.4byte	0x849
 11833 280d 1E280000 		.4byte	0x281e
 11834 2811 1B       		.uleb128 0x1b
 11835 2812 01       		.uleb128 0x1
 11836 2813 50       		.byte	0x50
 11837 2814 02       		.uleb128 0x2
ARM GAS  C:\Users\FRANKL~1\AppData\Local\Temp\ccjWonOy.s 			page 249


 11838 2815 75       		.byte	0x75
 11839 2816 00       		.sleb128 0
 11840 2817 1B       		.uleb128 0x1b
 11841 2818 01       		.uleb128 0x1
 11842 2819 51       		.byte	0x51
 11843 281a 02       		.uleb128 0x2
 11844 281b 74       		.byte	0x74
 11845 281c 00       		.sleb128 0
 11846 281d 00       		.byte	0
 11847 281e 1C       		.uleb128 0x1c
 11848 281f 26050000 		.4byte	.LVL810
 11849 2823 45360000 		.4byte	0x3645
 11850 2827 4A280000 		.4byte	0x284a
 11851 282b 1B       		.uleb128 0x1b
 11852 282c 01       		.uleb128 0x1
 11853 282d 50       		.byte	0x50
 11854 282e 05       		.uleb128 0x5
 11855 282f 03       		.byte	0x3
 11856 2830 00000000 		.4byte	TransmitBuffer
 11857 2834 1B       		.uleb128 0x1b
 11858 2835 01       		.uleb128 0x1
 11859 2836 51       		.byte	0x51
 11860 2837 05       		.uleb128 0x5
 11861 2838 03       		.byte	0x3
 11862 2839 54030000 		.4byte	.LC46
 11863 283d 1B       		.uleb128 0x1b
 11864 283e 01       		.uleb128 0x1
 11865 283f 52       		.byte	0x52
 11866 2840 02       		.uleb128 0x2
 11867 2841 75       		.byte	0x75
 11868 2842 00       		.sleb128 0
 11869 2843 1B       		.uleb128 0x1b
 11870 2844 01       		.uleb128 0x1
 11871 2845 53       		.byte	0x53
 11872 2846 02       		.uleb128 0x2
 11873 2847 74       		.byte	0x74
 11874 2848 00       		.sleb128 0
 11875 2849 00       		.byte	0
 11876 284a 12       		.uleb128 0x12
 11877 284b 2A050000 		.4byte	.LVL811
 11878 284f B5050000 		.4byte	0x5b5
 11879 2853 00       		.byte	0
 11880 2854 15       		.uleb128 0x15
 11881 2855 38050000 		.4byte	.LBB82
 11882 2859 3C000000 		.4byte	.LBE82-.LBB82
 11883 285d 2C290000 		.4byte	0x292c
 11884 2861 16       		.uleb128 0x16
 11885 2862 B8060000 		.4byte	.LASF180
 11886 2866 02       		.byte	0x2
 11887 2867 C104     		.2byte	0x4c1
 11888 2869 8B000000 		.4byte	0x8b
 11889 286d 02       		.uleb128 0x2
 11890 286e 91       		.byte	0x91
 11891 286f 64       		.sleb128 -28
 11892 2870 17       		.uleb128 0x17
 11893 2871 18060000 		.4byte	.LASF58
 11894 2875 02       		.byte	0x2
ARM GAS  C:\Users\FRANKL~1\AppData\Local\Temp\ccjWonOy.s 			page 250


 11895 2876 C204     		.2byte	0x4c2
 11896 2878 AE000000 		.4byte	0xae
 11897 287c 5C1B0000 		.4byte	.LLST185
 11898 2880 17       		.uleb128 0x17
 11899 2881 00000000 		.4byte	.LASF59
 11900 2885 02       		.byte	0x2
 11901 2886 C304     		.2byte	0x4c3
 11902 2888 AE000000 		.4byte	0xae
 11903 288c 6F1B0000 		.4byte	.LLST186
 11904 2890 1C       		.uleb128 0x1c
 11905 2891 40050000 		.4byte	.LVL814
 11906 2895 0B370000 		.4byte	0x370b
 11907 2899 AA280000 		.4byte	0x28aa
 11908 289d 1B       		.uleb128 0x1b
 11909 289e 01       		.uleb128 0x1
 11910 289f 50       		.byte	0x50
 11911 28a0 02       		.uleb128 0x2
 11912 28a1 74       		.byte	0x74
 11913 28a2 00       		.sleb128 0
 11914 28a3 1B       		.uleb128 0x1b
 11915 28a4 01       		.uleb128 0x1
 11916 28a5 51       		.byte	0x51
 11917 28a6 02       		.uleb128 0x2
 11918 28a7 08       		.byte	0x8
 11919 28a8 20       		.byte	0x20
 11920 28a9 00       		.byte	0
 11921 28aa 1C       		.uleb128 0x1c
 11922 28ab 4E050000 		.4byte	.LVL816
 11923 28af 1A370000 		.4byte	0x371a
 11924 28b3 C3280000 		.4byte	0x28c3
 11925 28b7 1B       		.uleb128 0x1b
 11926 28b8 01       		.uleb128 0x1
 11927 28b9 51       		.byte	0x51
 11928 28ba 02       		.uleb128 0x2
 11929 28bb 74       		.byte	0x74
 11930 28bc 00       		.sleb128 0
 11931 28bd 1B       		.uleb128 0x1b
 11932 28be 01       		.uleb128 0x1
 11933 28bf 52       		.byte	0x52
 11934 28c0 01       		.uleb128 0x1
 11935 28c1 3A       		.byte	0x3a
 11936 28c2 00       		.byte	0
 11937 28c3 1C       		.uleb128 0x1c
 11938 28c4 5A050000 		.4byte	.LVL818
 11939 28c8 1A370000 		.4byte	0x371a
 11940 28cc DC280000 		.4byte	0x28dc
 11941 28d0 1B       		.uleb128 0x1b
 11942 28d1 01       		.uleb128 0x1
 11943 28d2 51       		.byte	0x51
 11944 28d3 02       		.uleb128 0x2
 11945 28d4 74       		.byte	0x74
 11946 28d5 00       		.sleb128 0
 11947 28d6 1B       		.uleb128 0x1b
 11948 28d7 01       		.uleb128 0x1
 11949 28d8 52       		.byte	0x52
 11950 28d9 01       		.uleb128 0x1
 11951 28da 3A       		.byte	0x3a
ARM GAS  C:\Users\FRANKL~1\AppData\Local\Temp\ccjWonOy.s 			page 251


 11952 28db 00       		.byte	0
 11953 28dc 1C       		.uleb128 0x1c
 11954 28dd 64050000 		.4byte	.LVL820
 11955 28e1 CF070000 		.4byte	0x7cf
 11956 28e5 F6280000 		.4byte	0x28f6
 11957 28e9 1B       		.uleb128 0x1b
 11958 28ea 01       		.uleb128 0x1
 11959 28eb 50       		.byte	0x50
 11960 28ec 02       		.uleb128 0x2
 11961 28ed 75       		.byte	0x75
 11962 28ee 00       		.sleb128 0
 11963 28ef 1B       		.uleb128 0x1b
 11964 28f0 01       		.uleb128 0x1
 11965 28f1 51       		.byte	0x51
 11966 28f2 02       		.uleb128 0x2
 11967 28f3 74       		.byte	0x74
 11968 28f4 00       		.sleb128 0
 11969 28f5 00       		.byte	0
 11970 28f6 1C       		.uleb128 0x1c
 11971 28f7 70050000 		.4byte	.LVL821
 11972 28fb 45360000 		.4byte	0x3645
 11973 28ff 22290000 		.4byte	0x2922
 11974 2903 1B       		.uleb128 0x1b
 11975 2904 01       		.uleb128 0x1
 11976 2905 50       		.byte	0x50
 11977 2906 05       		.uleb128 0x5
 11978 2907 03       		.byte	0x3
 11979 2908 00000000 		.4byte	TransmitBuffer
 11980 290c 1B       		.uleb128 0x1b
 11981 290d 01       		.uleb128 0x1
 11982 290e 51       		.byte	0x51
 11983 290f 05       		.uleb128 0x5
 11984 2910 03       		.byte	0x3
 11985 2911 78030000 		.4byte	.LC48
 11986 2915 1B       		.uleb128 0x1b
 11987 2916 01       		.uleb128 0x1
 11988 2917 52       		.byte	0x52
 11989 2918 02       		.uleb128 0x2
 11990 2919 75       		.byte	0x75
 11991 291a 00       		.sleb128 0
 11992 291b 1B       		.uleb128 0x1b
 11993 291c 01       		.uleb128 0x1
 11994 291d 53       		.byte	0x53
 11995 291e 02       		.uleb128 0x2
 11996 291f 74       		.byte	0x74
 11997 2920 00       		.sleb128 0
 11998 2921 00       		.byte	0
 11999 2922 12       		.uleb128 0x12
 12000 2923 74050000 		.4byte	.LVL822
 12001 2927 B5050000 		.4byte	0x5b5
 12002 292b 00       		.byte	0
 12003 292c 15       		.uleb128 0x15
 12004 292d 82050000 		.4byte	.LBB83
 12005 2931 3C000000 		.4byte	.LBE83-.LBB83
 12006 2935 042A0000 		.4byte	0x2a04
 12007 2939 16       		.uleb128 0x16
 12008 293a B8060000 		.4byte	.LASF180
ARM GAS  C:\Users\FRANKL~1\AppData\Local\Temp\ccjWonOy.s 			page 252


 12009 293e 02       		.byte	0x2
 12010 293f CA04     		.2byte	0x4ca
 12011 2941 8B000000 		.4byte	0x8b
 12012 2945 02       		.uleb128 0x2
 12013 2946 91       		.byte	0x91
 12014 2947 64       		.sleb128 -28
 12015 2948 17       		.uleb128 0x17
 12016 2949 18060000 		.4byte	.LASF58
 12017 294d 02       		.byte	0x2
 12018 294e CB04     		.2byte	0x4cb
 12019 2950 AE000000 		.4byte	0xae
 12020 2954 821B0000 		.4byte	.LLST187
 12021 2958 17       		.uleb128 0x17
 12022 2959 00000000 		.4byte	.LASF59
 12023 295d 02       		.byte	0x2
 12024 295e CC04     		.2byte	0x4cc
 12025 2960 AE000000 		.4byte	0xae
 12026 2964 951B0000 		.4byte	.LLST188
 12027 2968 1C       		.uleb128 0x1c
 12028 2969 8A050000 		.4byte	.LVL825
 12029 296d 0B370000 		.4byte	0x370b
 12030 2971 82290000 		.4byte	0x2982
 12031 2975 1B       		.uleb128 0x1b
 12032 2976 01       		.uleb128 0x1
 12033 2977 50       		.byte	0x50
 12034 2978 02       		.uleb128 0x2
 12035 2979 74       		.byte	0x74
 12036 297a 00       		.sleb128 0
 12037 297b 1B       		.uleb128 0x1b
 12038 297c 01       		.uleb128 0x1
 12039 297d 51       		.byte	0x51
 12040 297e 02       		.uleb128 0x2
 12041 297f 08       		.byte	0x8
 12042 2980 20       		.byte	0x20
 12043 2981 00       		.byte	0
 12044 2982 1C       		.uleb128 0x1c
 12045 2983 98050000 		.4byte	.LVL827
 12046 2987 1A370000 		.4byte	0x371a
 12047 298b 9B290000 		.4byte	0x299b
 12048 298f 1B       		.uleb128 0x1b
 12049 2990 01       		.uleb128 0x1
 12050 2991 51       		.byte	0x51
 12051 2992 02       		.uleb128 0x2
 12052 2993 74       		.byte	0x74
 12053 2994 00       		.sleb128 0
 12054 2995 1B       		.uleb128 0x1b
 12055 2996 01       		.uleb128 0x1
 12056 2997 52       		.byte	0x52
 12057 2998 01       		.uleb128 0x1
 12058 2999 3A       		.byte	0x3a
 12059 299a 00       		.byte	0
 12060 299b 1C       		.uleb128 0x1c
 12061 299c A4050000 		.4byte	.LVL829
 12062 29a0 1A370000 		.4byte	0x371a
 12063 29a4 B4290000 		.4byte	0x29b4
 12064 29a8 1B       		.uleb128 0x1b
 12065 29a9 01       		.uleb128 0x1
ARM GAS  C:\Users\FRANKL~1\AppData\Local\Temp\ccjWonOy.s 			page 253


 12066 29aa 51       		.byte	0x51
 12067 29ab 02       		.uleb128 0x2
 12068 29ac 74       		.byte	0x74
 12069 29ad 00       		.sleb128 0
 12070 29ae 1B       		.uleb128 0x1b
 12071 29af 01       		.uleb128 0x1
 12072 29b0 52       		.byte	0x52
 12073 29b1 01       		.uleb128 0x1
 12074 29b2 3A       		.byte	0x3a
 12075 29b3 00       		.byte	0
 12076 29b4 1C       		.uleb128 0x1c
 12077 29b5 AE050000 		.4byte	.LVL831
 12078 29b9 0C080000 		.4byte	0x80c
 12079 29bd CE290000 		.4byte	0x29ce
 12080 29c1 1B       		.uleb128 0x1b
 12081 29c2 01       		.uleb128 0x1
 12082 29c3 50       		.byte	0x50
 12083 29c4 02       		.uleb128 0x2
 12084 29c5 75       		.byte	0x75
 12085 29c6 00       		.sleb128 0
 12086 29c7 1B       		.uleb128 0x1b
 12087 29c8 01       		.uleb128 0x1
 12088 29c9 51       		.byte	0x51
 12089 29ca 02       		.uleb128 0x2
 12090 29cb 74       		.byte	0x74
 12091 29cc 00       		.sleb128 0
 12092 29cd 00       		.byte	0
 12093 29ce 1C       		.uleb128 0x1c
 12094 29cf BA050000 		.4byte	.LVL832
 12095 29d3 45360000 		.4byte	0x3645
 12096 29d7 FA290000 		.4byte	0x29fa
 12097 29db 1B       		.uleb128 0x1b
 12098 29dc 01       		.uleb128 0x1
 12099 29dd 50       		.byte	0x50
 12100 29de 05       		.uleb128 0x5
 12101 29df 03       		.byte	0x3
 12102 29e0 00000000 		.4byte	TransmitBuffer
 12103 29e4 1B       		.uleb128 0x1b
 12104 29e5 01       		.uleb128 0x1
 12105 29e6 51       		.byte	0x51
 12106 29e7 05       		.uleb128 0x5
 12107 29e8 03       		.byte	0x3
 12108 29e9 A8030000 		.4byte	.LC50
 12109 29ed 1B       		.uleb128 0x1b
 12110 29ee 01       		.uleb128 0x1
 12111 29ef 52       		.byte	0x52
 12112 29f0 02       		.uleb128 0x2
 12113 29f1 75       		.byte	0x75
 12114 29f2 00       		.sleb128 0
 12115 29f3 1B       		.uleb128 0x1b
 12116 29f4 01       		.uleb128 0x1
 12117 29f5 53       		.byte	0x53
 12118 29f6 02       		.uleb128 0x2
 12119 29f7 74       		.byte	0x74
 12120 29f8 00       		.sleb128 0
 12121 29f9 00       		.byte	0
 12122 29fa 12       		.uleb128 0x12
ARM GAS  C:\Users\FRANKL~1\AppData\Local\Temp\ccjWonOy.s 			page 254


 12123 29fb BE050000 		.4byte	.LVL833
 12124 29ff B5050000 		.4byte	0x5b5
 12125 2a03 00       		.byte	0
 12126 2a04 15       		.uleb128 0x15
 12127 2a05 CC050000 		.4byte	.LBB84
 12128 2a09 3C000000 		.4byte	.LBE84-.LBB84
 12129 2a0d DC2A0000 		.4byte	0x2adc
 12130 2a11 16       		.uleb128 0x16
 12131 2a12 B8060000 		.4byte	.LASF180
 12132 2a16 02       		.byte	0x2
 12133 2a17 D304     		.2byte	0x4d3
 12134 2a19 8B000000 		.4byte	0x8b
 12135 2a1d 02       		.uleb128 0x2
 12136 2a1e 91       		.byte	0x91
 12137 2a1f 64       		.sleb128 -28
 12138 2a20 17       		.uleb128 0x17
 12139 2a21 690B0000 		.4byte	.LASF62
 12140 2a25 02       		.byte	0x2
 12141 2a26 D404     		.2byte	0x4d4
 12142 2a28 AE000000 		.4byte	0xae
 12143 2a2c A81B0000 		.4byte	.LLST189
 12144 2a30 17       		.uleb128 0x17
 12145 2a31 00000000 		.4byte	.LASF59
 12146 2a35 02       		.byte	0x2
 12147 2a36 D504     		.2byte	0x4d5
 12148 2a38 AE000000 		.4byte	0xae
 12149 2a3c BB1B0000 		.4byte	.LLST190
 12150 2a40 1C       		.uleb128 0x1c
 12151 2a41 D4050000 		.4byte	.LVL836
 12152 2a45 0B370000 		.4byte	0x370b
 12153 2a49 5A2A0000 		.4byte	0x2a5a
 12154 2a4d 1B       		.uleb128 0x1b
 12155 2a4e 01       		.uleb128 0x1
 12156 2a4f 50       		.byte	0x50
 12157 2a50 02       		.uleb128 0x2
 12158 2a51 74       		.byte	0x74
 12159 2a52 00       		.sleb128 0
 12160 2a53 1B       		.uleb128 0x1b
 12161 2a54 01       		.uleb128 0x1
 12162 2a55 51       		.byte	0x51
 12163 2a56 02       		.uleb128 0x2
 12164 2a57 08       		.byte	0x8
 12165 2a58 20       		.byte	0x20
 12166 2a59 00       		.byte	0
 12167 2a5a 1C       		.uleb128 0x1c
 12168 2a5b E2050000 		.4byte	.LVL838
 12169 2a5f 1A370000 		.4byte	0x371a
 12170 2a63 732A0000 		.4byte	0x2a73
 12171 2a67 1B       		.uleb128 0x1b
 12172 2a68 01       		.uleb128 0x1
 12173 2a69 51       		.byte	0x51
 12174 2a6a 02       		.uleb128 0x2
 12175 2a6b 74       		.byte	0x74
 12176 2a6c 00       		.sleb128 0
 12177 2a6d 1B       		.uleb128 0x1b
 12178 2a6e 01       		.uleb128 0x1
 12179 2a6f 52       		.byte	0x52
ARM GAS  C:\Users\FRANKL~1\AppData\Local\Temp\ccjWonOy.s 			page 255


 12180 2a70 01       		.uleb128 0x1
 12181 2a71 3A       		.byte	0x3a
 12182 2a72 00       		.byte	0
 12183 2a73 1C       		.uleb128 0x1c
 12184 2a74 EE050000 		.4byte	.LVL840
 12185 2a78 1A370000 		.4byte	0x371a
 12186 2a7c 8C2A0000 		.4byte	0x2a8c
 12187 2a80 1B       		.uleb128 0x1b
 12188 2a81 01       		.uleb128 0x1
 12189 2a82 51       		.byte	0x51
 12190 2a83 02       		.uleb128 0x2
 12191 2a84 74       		.byte	0x74
 12192 2a85 00       		.sleb128 0
 12193 2a86 1B       		.uleb128 0x1b
 12194 2a87 01       		.uleb128 0x1
 12195 2a88 52       		.byte	0x52
 12196 2a89 01       		.uleb128 0x1
 12197 2a8a 3A       		.byte	0x3a
 12198 2a8b 00       		.byte	0
 12199 2a8c 1C       		.uleb128 0x1c
 12200 2a8d F8050000 		.4byte	.LVL842
 12201 2a91 95080000 		.4byte	0x895
 12202 2a95 A62A0000 		.4byte	0x2aa6
 12203 2a99 1B       		.uleb128 0x1b
 12204 2a9a 01       		.uleb128 0x1
 12205 2a9b 50       		.byte	0x50
 12206 2a9c 02       		.uleb128 0x2
 12207 2a9d 75       		.byte	0x75
 12208 2a9e 00       		.sleb128 0
 12209 2a9f 1B       		.uleb128 0x1b
 12210 2aa0 01       		.uleb128 0x1
 12211 2aa1 51       		.byte	0x51
 12212 2aa2 02       		.uleb128 0x2
 12213 2aa3 74       		.byte	0x74
 12214 2aa4 00       		.sleb128 0
 12215 2aa5 00       		.byte	0
 12216 2aa6 1C       		.uleb128 0x1c
 12217 2aa7 04060000 		.4byte	.LVL843
 12218 2aab 45360000 		.4byte	0x3645
 12219 2aaf D22A0000 		.4byte	0x2ad2
 12220 2ab3 1B       		.uleb128 0x1b
 12221 2ab4 01       		.uleb128 0x1
 12222 2ab5 50       		.byte	0x50
 12223 2ab6 05       		.uleb128 0x5
 12224 2ab7 03       		.byte	0x3
 12225 2ab8 00000000 		.4byte	TransmitBuffer
 12226 2abc 1B       		.uleb128 0x1b
 12227 2abd 01       		.uleb128 0x1
 12228 2abe 51       		.byte	0x51
 12229 2abf 05       		.uleb128 0x5
 12230 2ac0 03       		.byte	0x3
 12231 2ac1 D8030000 		.4byte	.LC52
 12232 2ac5 1B       		.uleb128 0x1b
 12233 2ac6 01       		.uleb128 0x1
 12234 2ac7 52       		.byte	0x52
 12235 2ac8 02       		.uleb128 0x2
 12236 2ac9 75       		.byte	0x75
ARM GAS  C:\Users\FRANKL~1\AppData\Local\Temp\ccjWonOy.s 			page 256


 12237 2aca 00       		.sleb128 0
 12238 2acb 1B       		.uleb128 0x1b
 12239 2acc 01       		.uleb128 0x1
 12240 2acd 53       		.byte	0x53
 12241 2ace 02       		.uleb128 0x2
 12242 2acf 74       		.byte	0x74
 12243 2ad0 00       		.sleb128 0
 12244 2ad1 00       		.byte	0
 12245 2ad2 12       		.uleb128 0x12
 12246 2ad3 08060000 		.4byte	.LVL844
 12247 2ad7 B5050000 		.4byte	0x5b5
 12248 2adb 00       		.byte	0
 12249 2adc 15       		.uleb128 0x15
 12250 2add 16060000 		.4byte	.LBB85
 12251 2ae1 2A000000 		.4byte	.LBE85-.LBB85
 12252 2ae5 7F2B0000 		.4byte	0x2b7f
 12253 2ae9 16       		.uleb128 0x16
 12254 2aea B8060000 		.4byte	.LASF180
 12255 2aee 02       		.byte	0x2
 12256 2aef DC04     		.2byte	0x4dc
 12257 2af1 8B000000 		.4byte	0x8b
 12258 2af5 02       		.uleb128 0x2
 12259 2af6 91       		.byte	0x91
 12260 2af7 64       		.sleb128 -28
 12261 2af8 17       		.uleb128 0x17
 12262 2af9 00000000 		.4byte	.LASF59
 12263 2afd 02       		.byte	0x2
 12264 2afe DD04     		.2byte	0x4dd
 12265 2b00 AE000000 		.4byte	0xae
 12266 2b04 CE1B0000 		.4byte	.LLST191
 12267 2b08 1C       		.uleb128 0x1c
 12268 2b09 1E060000 		.4byte	.LVL847
 12269 2b0d 0B370000 		.4byte	0x370b
 12270 2b11 222B0000 		.4byte	0x2b22
 12271 2b15 1B       		.uleb128 0x1b
 12272 2b16 01       		.uleb128 0x1
 12273 2b17 50       		.byte	0x50
 12274 2b18 02       		.uleb128 0x2
 12275 2b19 74       		.byte	0x74
 12276 2b1a 00       		.sleb128 0
 12277 2b1b 1B       		.uleb128 0x1b
 12278 2b1c 01       		.uleb128 0x1
 12279 2b1d 51       		.byte	0x51
 12280 2b1e 02       		.uleb128 0x2
 12281 2b1f 08       		.byte	0x8
 12282 2b20 20       		.byte	0x20
 12283 2b21 00       		.byte	0
 12284 2b22 1C       		.uleb128 0x1c
 12285 2b23 2A060000 		.4byte	.LVL848
 12286 2b27 1A370000 		.4byte	0x371a
 12287 2b2b 3B2B0000 		.4byte	0x2b3b
 12288 2b2f 1B       		.uleb128 0x1b
 12289 2b30 01       		.uleb128 0x1
 12290 2b31 51       		.byte	0x51
 12291 2b32 02       		.uleb128 0x2
 12292 2b33 91       		.byte	0x91
 12293 2b34 64       		.sleb128 -28
ARM GAS  C:\Users\FRANKL~1\AppData\Local\Temp\ccjWonOy.s 			page 257


 12294 2b35 1B       		.uleb128 0x1b
 12295 2b36 01       		.uleb128 0x1
 12296 2b37 52       		.byte	0x52
 12297 2b38 01       		.uleb128 0x1
 12298 2b39 3A       		.byte	0x3a
 12299 2b3a 00       		.byte	0
 12300 2b3b 1C       		.uleb128 0x1c
 12301 2b3c 32060000 		.4byte	.LVL850
 12302 2b40 A0090000 		.4byte	0x9a0
 12303 2b44 4F2B0000 		.4byte	0x2b4f
 12304 2b48 1B       		.uleb128 0x1b
 12305 2b49 01       		.uleb128 0x1
 12306 2b4a 50       		.byte	0x50
 12307 2b4b 02       		.uleb128 0x2
 12308 2b4c 74       		.byte	0x74
 12309 2b4d 00       		.sleb128 0
 12310 2b4e 00       		.byte	0
 12311 2b4f 1C       		.uleb128 0x1c
 12312 2b50 3C060000 		.4byte	.LVL851
 12313 2b54 45360000 		.4byte	0x3645
 12314 2b58 752B0000 		.4byte	0x2b75
 12315 2b5c 1B       		.uleb128 0x1b
 12316 2b5d 01       		.uleb128 0x1
 12317 2b5e 50       		.byte	0x50
 12318 2b5f 05       		.uleb128 0x5
 12319 2b60 03       		.byte	0x3
 12320 2b61 00000000 		.4byte	TransmitBuffer
 12321 2b65 1B       		.uleb128 0x1b
 12322 2b66 01       		.uleb128 0x1
 12323 2b67 51       		.byte	0x51
 12324 2b68 05       		.uleb128 0x5
 12325 2b69 03       		.byte	0x3
 12326 2b6a 0C040000 		.4byte	.LC54
 12327 2b6e 1B       		.uleb128 0x1b
 12328 2b6f 01       		.uleb128 0x1
 12329 2b70 52       		.byte	0x52
 12330 2b71 02       		.uleb128 0x2
 12331 2b72 74       		.byte	0x74
 12332 2b73 00       		.sleb128 0
 12333 2b74 00       		.byte	0
 12334 2b75 12       		.uleb128 0x12
 12335 2b76 40060000 		.4byte	.LVL852
 12336 2b7a B5050000 		.4byte	0x5b5
 12337 2b7e 00       		.byte	0
 12338 2b7f 15       		.uleb128 0x15
 12339 2b80 7E060000 		.4byte	.LBB86
 12340 2b84 2A000000 		.4byte	.LBE86-.LBB86
 12341 2b88 222C0000 		.4byte	0x2c22
 12342 2b8c 16       		.uleb128 0x16
 12343 2b8d B8060000 		.4byte	.LASF180
 12344 2b91 02       		.byte	0x2
 12345 2b92 EA04     		.2byte	0x4ea
 12346 2b94 8B000000 		.4byte	0x8b
 12347 2b98 02       		.uleb128 0x2
 12348 2b99 91       		.byte	0x91
 12349 2b9a 64       		.sleb128 -28
 12350 2b9b 17       		.uleb128 0x17
ARM GAS  C:\Users\FRANKL~1\AppData\Local\Temp\ccjWonOy.s 			page 258


 12351 2b9c 690B0000 		.4byte	.LASF62
 12352 2ba0 02       		.byte	0x2
 12353 2ba1 EB04     		.2byte	0x4eb
 12354 2ba3 AE000000 		.4byte	0xae
 12355 2ba7 E11B0000 		.4byte	.LLST192
 12356 2bab 1C       		.uleb128 0x1c
 12357 2bac 86060000 		.4byte	.LVL860
 12358 2bb0 0B370000 		.4byte	0x370b
 12359 2bb4 C52B0000 		.4byte	0x2bc5
 12360 2bb8 1B       		.uleb128 0x1b
 12361 2bb9 01       		.uleb128 0x1
 12362 2bba 50       		.byte	0x50
 12363 2bbb 02       		.uleb128 0x2
 12364 2bbc 74       		.byte	0x74
 12365 2bbd 00       		.sleb128 0
 12366 2bbe 1B       		.uleb128 0x1b
 12367 2bbf 01       		.uleb128 0x1
 12368 2bc0 51       		.byte	0x51
 12369 2bc1 02       		.uleb128 0x2
 12370 2bc2 08       		.byte	0x8
 12371 2bc3 20       		.byte	0x20
 12372 2bc4 00       		.byte	0
 12373 2bc5 1C       		.uleb128 0x1c
 12374 2bc6 92060000 		.4byte	.LVL861
 12375 2bca 1A370000 		.4byte	0x371a
 12376 2bce DE2B0000 		.4byte	0x2bde
 12377 2bd2 1B       		.uleb128 0x1b
 12378 2bd3 01       		.uleb128 0x1
 12379 2bd4 51       		.byte	0x51
 12380 2bd5 02       		.uleb128 0x2
 12381 2bd6 91       		.byte	0x91
 12382 2bd7 64       		.sleb128 -28
 12383 2bd8 1B       		.uleb128 0x1b
 12384 2bd9 01       		.uleb128 0x1
 12385 2bda 52       		.byte	0x52
 12386 2bdb 01       		.uleb128 0x1
 12387 2bdc 3A       		.byte	0x3a
 12388 2bdd 00       		.byte	0
 12389 2bde 1C       		.uleb128 0x1c
 12390 2bdf 9A060000 		.4byte	.LVL863
 12391 2be3 E1080000 		.4byte	0x8e1
 12392 2be7 F22B0000 		.4byte	0x2bf2
 12393 2beb 1B       		.uleb128 0x1b
 12394 2bec 01       		.uleb128 0x1
 12395 2bed 50       		.byte	0x50
 12396 2bee 02       		.uleb128 0x2
 12397 2bef 74       		.byte	0x74
 12398 2bf0 00       		.sleb128 0
 12399 2bf1 00       		.byte	0
 12400 2bf2 1C       		.uleb128 0x1c
 12401 2bf3 A4060000 		.4byte	.LVL864
 12402 2bf7 45360000 		.4byte	0x3645
 12403 2bfb 182C0000 		.4byte	0x2c18
 12404 2bff 1B       		.uleb128 0x1b
 12405 2c00 01       		.uleb128 0x1
 12406 2c01 50       		.byte	0x50
 12407 2c02 05       		.uleb128 0x5
ARM GAS  C:\Users\FRANKL~1\AppData\Local\Temp\ccjWonOy.s 			page 259


 12408 2c03 03       		.byte	0x3
 12409 2c04 00000000 		.4byte	TransmitBuffer
 12410 2c08 1B       		.uleb128 0x1b
 12411 2c09 01       		.uleb128 0x1
 12412 2c0a 51       		.byte	0x51
 12413 2c0b 05       		.uleb128 0x5
 12414 2c0c 03       		.byte	0x3
 12415 2c0d 80040000 		.4byte	.LC58
 12416 2c11 1B       		.uleb128 0x1b
 12417 2c12 01       		.uleb128 0x1
 12418 2c13 52       		.byte	0x52
 12419 2c14 02       		.uleb128 0x2
 12420 2c15 74       		.byte	0x74
 12421 2c16 00       		.sleb128 0
 12422 2c17 00       		.byte	0
 12423 2c18 12       		.uleb128 0x12
 12424 2c19 A8060000 		.4byte	.LVL865
 12425 2c1d B5050000 		.4byte	0x5b5
 12426 2c21 00       		.byte	0
 12427 2c22 15       		.uleb128 0x15
 12428 2c23 B6060000 		.4byte	.LBB87
 12429 2c27 2A000000 		.4byte	.LBE87-.LBB87
 12430 2c2b C52C0000 		.4byte	0x2cc5
 12431 2c2f 16       		.uleb128 0x16
 12432 2c30 B8060000 		.4byte	.LASF180
 12433 2c34 02       		.byte	0x2
 12434 2c35 F204     		.2byte	0x4f2
 12435 2c37 8B000000 		.4byte	0x8b
 12436 2c3b 02       		.uleb128 0x2
 12437 2c3c 91       		.byte	0x91
 12438 2c3d 64       		.sleb128 -28
 12439 2c3e 17       		.uleb128 0x17
 12440 2c3f 00000000 		.4byte	.LASF59
 12441 2c43 02       		.byte	0x2
 12442 2c44 F304     		.2byte	0x4f3
 12443 2c46 AE000000 		.4byte	0xae
 12444 2c4a F41B0000 		.4byte	.LLST193
 12445 2c4e 1C       		.uleb128 0x1c
 12446 2c4f BE060000 		.4byte	.LVL868
 12447 2c53 0B370000 		.4byte	0x370b
 12448 2c57 682C0000 		.4byte	0x2c68
 12449 2c5b 1B       		.uleb128 0x1b
 12450 2c5c 01       		.uleb128 0x1
 12451 2c5d 50       		.byte	0x50
 12452 2c5e 02       		.uleb128 0x2
 12453 2c5f 74       		.byte	0x74
 12454 2c60 00       		.sleb128 0
 12455 2c61 1B       		.uleb128 0x1b
 12456 2c62 01       		.uleb128 0x1
 12457 2c63 51       		.byte	0x51
 12458 2c64 02       		.uleb128 0x2
 12459 2c65 08       		.byte	0x8
 12460 2c66 20       		.byte	0x20
 12461 2c67 00       		.byte	0
 12462 2c68 1C       		.uleb128 0x1c
 12463 2c69 CA060000 		.4byte	.LVL869
 12464 2c6d 1A370000 		.4byte	0x371a
ARM GAS  C:\Users\FRANKL~1\AppData\Local\Temp\ccjWonOy.s 			page 260


 12465 2c71 812C0000 		.4byte	0x2c81
 12466 2c75 1B       		.uleb128 0x1b
 12467 2c76 01       		.uleb128 0x1
 12468 2c77 51       		.byte	0x51
 12469 2c78 02       		.uleb128 0x2
 12470 2c79 91       		.byte	0x91
 12471 2c7a 64       		.sleb128 -28
 12472 2c7b 1B       		.uleb128 0x1b
 12473 2c7c 01       		.uleb128 0x1
 12474 2c7d 52       		.byte	0x52
 12475 2c7e 01       		.uleb128 0x1
 12476 2c7f 3A       		.byte	0x3a
 12477 2c80 00       		.byte	0
 12478 2c81 1C       		.uleb128 0x1c
 12479 2c82 D2060000 		.4byte	.LVL871
 12480 2c86 EB090000 		.4byte	0x9eb
 12481 2c8a 952C0000 		.4byte	0x2c95
 12482 2c8e 1B       		.uleb128 0x1b
 12483 2c8f 01       		.uleb128 0x1
 12484 2c90 50       		.byte	0x50
 12485 2c91 02       		.uleb128 0x2
 12486 2c92 74       		.byte	0x74
 12487 2c93 00       		.sleb128 0
 12488 2c94 00       		.byte	0
 12489 2c95 1C       		.uleb128 0x1c
 12490 2c96 DC060000 		.4byte	.LVL872
 12491 2c9a 45360000 		.4byte	0x3645
 12492 2c9e BB2C0000 		.4byte	0x2cbb
 12493 2ca2 1B       		.uleb128 0x1b
 12494 2ca3 01       		.uleb128 0x1
 12495 2ca4 50       		.byte	0x50
 12496 2ca5 05       		.uleb128 0x5
 12497 2ca6 03       		.byte	0x3
 12498 2ca7 00000000 		.4byte	TransmitBuffer
 12499 2cab 1B       		.uleb128 0x1b
 12500 2cac 01       		.uleb128 0x1
 12501 2cad 51       		.byte	0x51
 12502 2cae 05       		.uleb128 0x5
 12503 2caf 03       		.byte	0x3
 12504 2cb0 B8040000 		.4byte	.LC60
 12505 2cb4 1B       		.uleb128 0x1b
 12506 2cb5 01       		.uleb128 0x1
 12507 2cb6 52       		.byte	0x52
 12508 2cb7 02       		.uleb128 0x2
 12509 2cb8 74       		.byte	0x74
 12510 2cb9 00       		.sleb128 0
 12511 2cba 00       		.byte	0
 12512 2cbb 12       		.uleb128 0x12
 12513 2cbc E0060000 		.4byte	.LVL873
 12514 2cc0 B5050000 		.4byte	0x5b5
 12515 2cc4 00       		.byte	0
 12516 2cc5 15       		.uleb128 0x15
 12517 2cc6 4C070000 		.4byte	.LBB88
 12518 2cca 2A000000 		.4byte	.LBE88-.LBB88
 12519 2cce 682D0000 		.4byte	0x2d68
 12520 2cd2 16       		.uleb128 0x16
 12521 2cd3 B8060000 		.4byte	.LASF180
ARM GAS  C:\Users\FRANKL~1\AppData\Local\Temp\ccjWonOy.s 			page 261


 12522 2cd7 02       		.byte	0x2
 12523 2cd8 FA04     		.2byte	0x4fa
 12524 2cda 8B000000 		.4byte	0x8b
 12525 2cde 02       		.uleb128 0x2
 12526 2cdf 91       		.byte	0x91
 12527 2ce0 64       		.sleb128 -28
 12528 2ce1 17       		.uleb128 0x17
 12529 2ce2 00000000 		.4byte	.LASF59
 12530 2ce6 02       		.byte	0x2
 12531 2ce7 FB04     		.2byte	0x4fb
 12532 2ce9 AE000000 		.4byte	0xae
 12533 2ced 071C0000 		.4byte	.LLST194
 12534 2cf1 1C       		.uleb128 0x1c
 12535 2cf2 54070000 		.4byte	.LVL876
 12536 2cf6 0B370000 		.4byte	0x370b
 12537 2cfa 0B2D0000 		.4byte	0x2d0b
 12538 2cfe 1B       		.uleb128 0x1b
 12539 2cff 01       		.uleb128 0x1
 12540 2d00 50       		.byte	0x50
 12541 2d01 02       		.uleb128 0x2
 12542 2d02 74       		.byte	0x74
 12543 2d03 00       		.sleb128 0
 12544 2d04 1B       		.uleb128 0x1b
 12545 2d05 01       		.uleb128 0x1
 12546 2d06 51       		.byte	0x51
 12547 2d07 02       		.uleb128 0x2
 12548 2d08 08       		.byte	0x8
 12549 2d09 20       		.byte	0x20
 12550 2d0a 00       		.byte	0
 12551 2d0b 1C       		.uleb128 0x1c
 12552 2d0c 60070000 		.4byte	.LVL877
 12553 2d10 1A370000 		.4byte	0x371a
 12554 2d14 242D0000 		.4byte	0x2d24
 12555 2d18 1B       		.uleb128 0x1b
 12556 2d19 01       		.uleb128 0x1
 12557 2d1a 51       		.byte	0x51
 12558 2d1b 02       		.uleb128 0x2
 12559 2d1c 91       		.byte	0x91
 12560 2d1d 64       		.sleb128 -28
 12561 2d1e 1B       		.uleb128 0x1b
 12562 2d1f 01       		.uleb128 0x1
 12563 2d20 52       		.byte	0x52
 12564 2d21 01       		.uleb128 0x1
 12565 2d22 3A       		.byte	0x3a
 12566 2d23 00       		.byte	0
 12567 2d24 1C       		.uleb128 0x1c
 12568 2d25 68070000 		.4byte	.LVL879
 12569 2d29 700A0000 		.4byte	0xa70
 12570 2d2d 382D0000 		.4byte	0x2d38
 12571 2d31 1B       		.uleb128 0x1b
 12572 2d32 01       		.uleb128 0x1
 12573 2d33 50       		.byte	0x50
 12574 2d34 02       		.uleb128 0x2
 12575 2d35 74       		.byte	0x74
 12576 2d36 00       		.sleb128 0
 12577 2d37 00       		.byte	0
 12578 2d38 1C       		.uleb128 0x1c
ARM GAS  C:\Users\FRANKL~1\AppData\Local\Temp\ccjWonOy.s 			page 262


 12579 2d39 72070000 		.4byte	.LVL880
 12580 2d3d 45360000 		.4byte	0x3645
 12581 2d41 5E2D0000 		.4byte	0x2d5e
 12582 2d45 1B       		.uleb128 0x1b
 12583 2d46 01       		.uleb128 0x1
 12584 2d47 50       		.byte	0x50
 12585 2d48 05       		.uleb128 0x5
 12586 2d49 03       		.byte	0x3
 12587 2d4a 00000000 		.4byte	TransmitBuffer
 12588 2d4e 1B       		.uleb128 0x1b
 12589 2d4f 01       		.uleb128 0x1
 12590 2d50 51       		.byte	0x51
 12591 2d51 05       		.uleb128 0x5
 12592 2d52 03       		.byte	0x3
 12593 2d53 F4040000 		.4byte	.LC62
 12594 2d57 1B       		.uleb128 0x1b
 12595 2d58 01       		.uleb128 0x1
 12596 2d59 52       		.byte	0x52
 12597 2d5a 02       		.uleb128 0x2
 12598 2d5b 74       		.byte	0x74
 12599 2d5c 00       		.sleb128 0
 12600 2d5d 00       		.byte	0
 12601 2d5e 12       		.uleb128 0x12
 12602 2d5f 76070000 		.4byte	.LVL881
 12603 2d63 B5050000 		.4byte	0x5b5
 12604 2d67 00       		.byte	0
 12605 2d68 15       		.uleb128 0x15
 12606 2d69 E4070000 		.4byte	.LBB89
 12607 2d6d 42000000 		.4byte	.LBE89-.LBB89
 12608 2d71 D12D0000 		.4byte	0x2dd1
 12609 2d75 16       		.uleb128 0x16
 12610 2d76 B8060000 		.4byte	.LASF180
 12611 2d7a 02       		.byte	0x2
 12612 2d7b 0E05     		.2byte	0x50e
 12613 2d7d 8B000000 		.4byte	0x8b
 12614 2d81 02       		.uleb128 0x2
 12615 2d82 91       		.byte	0x91
 12616 2d83 64       		.sleb128 -28
 12617 2d84 17       		.uleb128 0x17
 12618 2d85 D0070000 		.4byte	.LASF84
 12619 2d89 02       		.byte	0x2
 12620 2d8a 0F05     		.2byte	0x50f
 12621 2d8c C6000000 		.4byte	0xc6
 12622 2d90 1A1C0000 		.4byte	.LLST195
 12623 2d94 1C       		.uleb128 0x1c
 12624 2d95 EC070000 		.4byte	.LVL894
 12625 2d99 0B370000 		.4byte	0x370b
 12626 2d9d AE2D0000 		.4byte	0x2dae
 12627 2da1 1B       		.uleb128 0x1b
 12628 2da2 01       		.uleb128 0x1
 12629 2da3 50       		.byte	0x50
 12630 2da4 02       		.uleb128 0x2
 12631 2da5 74       		.byte	0x74
 12632 2da6 00       		.sleb128 0
 12633 2da7 1B       		.uleb128 0x1b
 12634 2da8 01       		.uleb128 0x1
 12635 2da9 51       		.byte	0x51
ARM GAS  C:\Users\FRANKL~1\AppData\Local\Temp\ccjWonOy.s 			page 263


 12636 2daa 02       		.uleb128 0x2
 12637 2dab 08       		.byte	0x8
 12638 2dac 20       		.byte	0x20
 12639 2dad 00       		.byte	0
 12640 2dae 1C       		.uleb128 0x1c
 12641 2daf F8070000 		.4byte	.LVL895
 12642 2db3 1A370000 		.4byte	0x371a
 12643 2db7 C72D0000 		.4byte	0x2dc7
 12644 2dbb 1B       		.uleb128 0x1b
 12645 2dbc 01       		.uleb128 0x1
 12646 2dbd 51       		.byte	0x51
 12647 2dbe 02       		.uleb128 0x2
 12648 2dbf 91       		.byte	0x91
 12649 2dc0 64       		.sleb128 -28
 12650 2dc1 1B       		.uleb128 0x1b
 12651 2dc2 01       		.uleb128 0x1
 12652 2dc3 52       		.byte	0x52
 12653 2dc4 01       		.uleb128 0x1
 12654 2dc5 3A       		.byte	0x3a
 12655 2dc6 00       		.byte	0
 12656 2dc7 12       		.uleb128 0x12
 12657 2dc8 26080000 		.4byte	.LVL898
 12658 2dcc B5050000 		.4byte	0x5b5
 12659 2dd0 00       		.byte	0
 12660 2dd1 1C       		.uleb128 0x1c
 12661 2dd2 AE000000 		.4byte	.LVL704
 12662 2dd6 B6350000 		.4byte	0x35b6
 12663 2dda EE2D0000 		.4byte	0x2dee
 12664 2dde 1B       		.uleb128 0x1b
 12665 2ddf 01       		.uleb128 0x1
 12666 2de0 50       		.byte	0x50
 12667 2de1 02       		.uleb128 0x2
 12668 2de2 74       		.byte	0x74
 12669 2de3 00       		.sleb128 0
 12670 2de4 1B       		.uleb128 0x1b
 12671 2de5 01       		.uleb128 0x1
 12672 2de6 51       		.byte	0x51
 12673 2de7 05       		.uleb128 0x5
 12674 2de8 03       		.byte	0x3
 12675 2de9 08010000 		.4byte	.LC16
 12676 2ded 00       		.byte	0
 12677 2dee 1C       		.uleb128 0x1c
 12678 2def BC000000 		.4byte	.LVL705
 12679 2df3 A2190000 		.4byte	0x19a2
 12680 2df7 0C2E0000 		.4byte	0x2e0c
 12681 2dfb 1B       		.uleb128 0x1b
 12682 2dfc 01       		.uleb128 0x1
 12683 2dfd 50       		.byte	0x50
 12684 2dfe 02       		.uleb128 0x2
 12685 2dff 08       		.byte	0x8
 12686 2e00 64       		.byte	0x64
 12687 2e01 1B       		.uleb128 0x1b
 12688 2e02 01       		.uleb128 0x1
 12689 2e03 51       		.byte	0x51
 12690 2e04 01       		.uleb128 0x1
 12691 2e05 31       		.byte	0x31
 12692 2e06 1B       		.uleb128 0x1b
ARM GAS  C:\Users\FRANKL~1\AppData\Local\Temp\ccjWonOy.s 			page 264


 12693 2e07 01       		.uleb128 0x1
 12694 2e08 52       		.byte	0x52
 12695 2e09 01       		.uleb128 0x1
 12696 2e0a 3A       		.byte	0x3a
 12697 2e0b 00       		.byte	0
 12698 2e0c 1C       		.uleb128 0x1c
 12699 2e0d C6000000 		.4byte	.LVL706
 12700 2e11 B6350000 		.4byte	0x35b6
 12701 2e15 292E0000 		.4byte	0x2e29
 12702 2e19 1B       		.uleb128 0x1b
 12703 2e1a 01       		.uleb128 0x1
 12704 2e1b 50       		.byte	0x50
 12705 2e1c 02       		.uleb128 0x2
 12706 2e1d 74       		.byte	0x74
 12707 2e1e 00       		.sleb128 0
 12708 2e1f 1B       		.uleb128 0x1b
 12709 2e20 01       		.uleb128 0x1
 12710 2e21 51       		.byte	0x51
 12711 2e22 05       		.uleb128 0x5
 12712 2e23 03       		.byte	0x3
 12713 2e24 14010000 		.4byte	.LC17
 12714 2e28 00       		.byte	0
 12715 2e29 1C       		.uleb128 0x1c
 12716 2e2a EC000000 		.4byte	.LVL710
 12717 2e2e B6350000 		.4byte	0x35b6
 12718 2e32 462E0000 		.4byte	0x2e46
 12719 2e36 1B       		.uleb128 0x1b
 12720 2e37 01       		.uleb128 0x1
 12721 2e38 50       		.byte	0x50
 12722 2e39 02       		.uleb128 0x2
 12723 2e3a 74       		.byte	0x74
 12724 2e3b 00       		.sleb128 0
 12725 2e3c 1B       		.uleb128 0x1b
 12726 2e3d 01       		.uleb128 0x1
 12727 2e3e 51       		.byte	0x51
 12728 2e3f 05       		.uleb128 0x5
 12729 2e40 03       		.byte	0x3
 12730 2e41 28010000 		.4byte	.LC18
 12731 2e45 00       		.byte	0
 12732 2e46 12       		.uleb128 0x12
 12733 2e47 F4000000 		.4byte	.LVL711
 12734 2e4b BF1A0000 		.4byte	0x1abf
 12735 2e4f 1C       		.uleb128 0x1c
 12736 2e50 FE000000 		.4byte	.LVL712
 12737 2e54 B6350000 		.4byte	0x35b6
 12738 2e58 6C2E0000 		.4byte	0x2e6c
 12739 2e5c 1B       		.uleb128 0x1b
 12740 2e5d 01       		.uleb128 0x1
 12741 2e5e 50       		.byte	0x50
 12742 2e5f 02       		.uleb128 0x2
 12743 2e60 74       		.byte	0x74
 12744 2e61 00       		.sleb128 0
 12745 2e62 1B       		.uleb128 0x1b
 12746 2e63 01       		.uleb128 0x1
 12747 2e64 51       		.byte	0x51
 12748 2e65 05       		.uleb128 0x5
 12749 2e66 03       		.byte	0x3
ARM GAS  C:\Users\FRANKL~1\AppData\Local\Temp\ccjWonOy.s 			page 265


 12750 2e67 38010000 		.4byte	.LC19
 12751 2e6b 00       		.byte	0
 12752 2e6c 1C       		.uleb128 0x1c
 12753 2e6d 08010000 		.4byte	.LVL713
 12754 2e71 461B0000 		.4byte	0x1b46
 12755 2e75 7F2E0000 		.4byte	0x2e7f
 12756 2e79 1B       		.uleb128 0x1b
 12757 2e7a 01       		.uleb128 0x1
 12758 2e7b 50       		.byte	0x50
 12759 2e7c 01       		.uleb128 0x1
 12760 2e7d 30       		.byte	0x30
 12761 2e7e 00       		.byte	0
 12762 2e7f 1C       		.uleb128 0x1c
 12763 2e80 12010000 		.4byte	.LVL714
 12764 2e84 B6350000 		.4byte	0x35b6
 12765 2e88 9C2E0000 		.4byte	0x2e9c
 12766 2e8c 1B       		.uleb128 0x1b
 12767 2e8d 01       		.uleb128 0x1
 12768 2e8e 50       		.byte	0x50
 12769 2e8f 02       		.uleb128 0x2
 12770 2e90 74       		.byte	0x74
 12771 2e91 00       		.sleb128 0
 12772 2e92 1B       		.uleb128 0x1b
 12773 2e93 01       		.uleb128 0x1
 12774 2e94 51       		.byte	0x51
 12775 2e95 05       		.uleb128 0x5
 12776 2e96 03       		.byte	0x3
 12777 2e97 4C010000 		.4byte	.LC20
 12778 2e9b 00       		.byte	0
 12779 2e9c 1C       		.uleb128 0x1c
 12780 2e9d 1C010000 		.4byte	.LVL715
 12781 2ea1 461B0000 		.4byte	0x1b46
 12782 2ea5 AF2E0000 		.4byte	0x2eaf
 12783 2ea9 1B       		.uleb128 0x1b
 12784 2eaa 01       		.uleb128 0x1
 12785 2eab 50       		.byte	0x50
 12786 2eac 01       		.uleb128 0x1
 12787 2ead 31       		.byte	0x31
 12788 2eae 00       		.byte	0
 12789 2eaf 1C       		.uleb128 0x1c
 12790 2eb0 26010000 		.4byte	.LVL716
 12791 2eb4 B6350000 		.4byte	0x35b6
 12792 2eb8 CC2E0000 		.4byte	0x2ecc
 12793 2ebc 1B       		.uleb128 0x1b
 12794 2ebd 01       		.uleb128 0x1
 12795 2ebe 50       		.byte	0x50
 12796 2ebf 02       		.uleb128 0x2
 12797 2ec0 74       		.byte	0x74
 12798 2ec1 00       		.sleb128 0
 12799 2ec2 1B       		.uleb128 0x1b
 12800 2ec3 01       		.uleb128 0x1
 12801 2ec4 51       		.byte	0x51
 12802 2ec5 05       		.uleb128 0x5
 12803 2ec6 03       		.byte	0x3
 12804 2ec7 68010000 		.4byte	.LC21
 12805 2ecb 00       		.byte	0
 12806 2ecc 1C       		.uleb128 0x1c
ARM GAS  C:\Users\FRANKL~1\AppData\Local\Temp\ccjWonOy.s 			page 266


 12807 2ecd 32010000 		.4byte	.LVL717
 12808 2ed1 67180000 		.4byte	0x1867
 12809 2ed5 E12E0000 		.4byte	0x2ee1
 12810 2ed9 1B       		.uleb128 0x1b
 12811 2eda 01       		.uleb128 0x1
 12812 2edb 50       		.byte	0x50
 12813 2edc 03       		.uleb128 0x3
 12814 2edd 0A       		.byte	0xa
 12815 2ede 2C01     		.2byte	0x12c
 12816 2ee0 00       		.byte	0
 12817 2ee1 1C       		.uleb128 0x1c
 12818 2ee2 3C010000 		.4byte	.LVL718
 12819 2ee6 B6350000 		.4byte	0x35b6
 12820 2eea FE2E0000 		.4byte	0x2efe
 12821 2eee 1B       		.uleb128 0x1b
 12822 2eef 01       		.uleb128 0x1
 12823 2ef0 50       		.byte	0x50
 12824 2ef1 02       		.uleb128 0x2
 12825 2ef2 74       		.byte	0x74
 12826 2ef3 00       		.sleb128 0
 12827 2ef4 1B       		.uleb128 0x1b
 12828 2ef5 01       		.uleb128 0x1
 12829 2ef6 51       		.byte	0x51
 12830 2ef7 05       		.uleb128 0x5
 12831 2ef8 03       		.byte	0x3
 12832 2ef9 7C010000 		.4byte	.LC22
 12833 2efd 00       		.byte	0
 12834 2efe 1C       		.uleb128 0x1c
 12835 2eff 64010000 		.4byte	.LVL722
 12836 2f03 B6350000 		.4byte	0x35b6
 12837 2f07 1B2F0000 		.4byte	0x2f1b
 12838 2f0b 1B       		.uleb128 0x1b
 12839 2f0c 01       		.uleb128 0x1
 12840 2f0d 50       		.byte	0x50
 12841 2f0e 02       		.uleb128 0x2
 12842 2f0f 74       		.byte	0x74
 12843 2f10 00       		.sleb128 0
 12844 2f11 1B       		.uleb128 0x1b
 12845 2f12 01       		.uleb128 0x1
 12846 2f13 51       		.byte	0x51
 12847 2f14 05       		.uleb128 0x5
 12848 2f15 03       		.byte	0x3
 12849 2f16 8C010000 		.4byte	.LC23
 12850 2f1a 00       		.byte	0
 12851 2f1b 1C       		.uleb128 0x1c
 12852 2f1c 8C010000 		.4byte	.LVL726
 12853 2f20 B6350000 		.4byte	0x35b6
 12854 2f24 382F0000 		.4byte	0x2f38
 12855 2f28 1B       		.uleb128 0x1b
 12856 2f29 01       		.uleb128 0x1
 12857 2f2a 50       		.byte	0x50
 12858 2f2b 02       		.uleb128 0x2
 12859 2f2c 74       		.byte	0x74
 12860 2f2d 00       		.sleb128 0
 12861 2f2e 1B       		.uleb128 0x1b
 12862 2f2f 01       		.uleb128 0x1
 12863 2f30 51       		.byte	0x51
ARM GAS  C:\Users\FRANKL~1\AppData\Local\Temp\ccjWonOy.s 			page 267


 12864 2f31 05       		.uleb128 0x5
 12865 2f32 03       		.byte	0x3
 12866 2f33 9C010000 		.4byte	.LC24
 12867 2f37 00       		.byte	0
 12868 2f38 1C       		.uleb128 0x1c
 12869 2f39 B4010000 		.4byte	.LVL730
 12870 2f3d B6350000 		.4byte	0x35b6
 12871 2f41 552F0000 		.4byte	0x2f55
 12872 2f45 1B       		.uleb128 0x1b
 12873 2f46 01       		.uleb128 0x1
 12874 2f47 50       		.byte	0x50
 12875 2f48 02       		.uleb128 0x2
 12876 2f49 74       		.byte	0x74
 12877 2f4a 00       		.sleb128 0
 12878 2f4b 1B       		.uleb128 0x1b
 12879 2f4c 01       		.uleb128 0x1
 12880 2f4d 51       		.byte	0x51
 12881 2f4e 05       		.uleb128 0x5
 12882 2f4f 03       		.byte	0x3
 12883 2f50 AC010000 		.4byte	.LC25
 12884 2f54 00       		.byte	0
 12885 2f55 1C       		.uleb128 0x1c
 12886 2f56 DC010000 		.4byte	.LVL734
 12887 2f5a B6350000 		.4byte	0x35b6
 12888 2f5e 722F0000 		.4byte	0x2f72
 12889 2f62 1B       		.uleb128 0x1b
 12890 2f63 01       		.uleb128 0x1
 12891 2f64 50       		.byte	0x50
 12892 2f65 02       		.uleb128 0x2
 12893 2f66 74       		.byte	0x74
 12894 2f67 00       		.sleb128 0
 12895 2f68 1B       		.uleb128 0x1b
 12896 2f69 01       		.uleb128 0x1
 12897 2f6a 51       		.byte	0x51
 12898 2f6b 05       		.uleb128 0x5
 12899 2f6c 03       		.byte	0x3
 12900 2f6d BC010000 		.4byte	.LC26
 12901 2f71 00       		.byte	0
 12902 2f72 1C       		.uleb128 0x1c
 12903 2f73 06020000 		.4byte	.LVL738
 12904 2f77 B6350000 		.4byte	0x35b6
 12905 2f7b 8F2F0000 		.4byte	0x2f8f
 12906 2f7f 1B       		.uleb128 0x1b
 12907 2f80 01       		.uleb128 0x1
 12908 2f81 50       		.byte	0x50
 12909 2f82 02       		.uleb128 0x2
 12910 2f83 74       		.byte	0x74
 12911 2f84 00       		.sleb128 0
 12912 2f85 1B       		.uleb128 0x1b
 12913 2f86 01       		.uleb128 0x1
 12914 2f87 51       		.byte	0x51
 12915 2f88 05       		.uleb128 0x5
 12916 2f89 03       		.byte	0x3
 12917 2f8a CC010000 		.4byte	.LC28
 12918 2f8e 00       		.byte	0
 12919 2f8f 1C       		.uleb128 0x1c
 12920 2f90 30020000 		.4byte	.LVL742
ARM GAS  C:\Users\FRANKL~1\AppData\Local\Temp\ccjWonOy.s 			page 268


 12921 2f94 B6350000 		.4byte	0x35b6
 12922 2f98 AC2F0000 		.4byte	0x2fac
 12923 2f9c 1B       		.uleb128 0x1b
 12924 2f9d 01       		.uleb128 0x1
 12925 2f9e 50       		.byte	0x50
 12926 2f9f 02       		.uleb128 0x2
 12927 2fa0 74       		.byte	0x74
 12928 2fa1 00       		.sleb128 0
 12929 2fa2 1B       		.uleb128 0x1b
 12930 2fa3 01       		.uleb128 0x1
 12931 2fa4 51       		.byte	0x51
 12932 2fa5 05       		.uleb128 0x5
 12933 2fa6 03       		.byte	0x3
 12934 2fa7 D8010000 		.4byte	.LC29
 12935 2fab 00       		.byte	0
 12936 2fac 1C       		.uleb128 0x1c
 12937 2fad 72020000 		.4byte	.LVL752
 12938 2fb1 B6350000 		.4byte	0x35b6
 12939 2fb5 C92F0000 		.4byte	0x2fc9
 12940 2fb9 1B       		.uleb128 0x1b
 12941 2fba 01       		.uleb128 0x1
 12942 2fbb 50       		.byte	0x50
 12943 2fbc 02       		.uleb128 0x2
 12944 2fbd 74       		.byte	0x74
 12945 2fbe 00       		.sleb128 0
 12946 2fbf 1B       		.uleb128 0x1b
 12947 2fc0 01       		.uleb128 0x1
 12948 2fc1 51       		.byte	0x51
 12949 2fc2 05       		.uleb128 0x5
 12950 2fc3 03       		.byte	0x3
 12951 2fc4 FC010000 		.4byte	.LC31
 12952 2fc8 00       		.byte	0
 12953 2fc9 1C       		.uleb128 0x1c
 12954 2fca B4020000 		.4byte	.LVL762
 12955 2fce B6350000 		.4byte	0x35b6
 12956 2fd2 E62F0000 		.4byte	0x2fe6
 12957 2fd6 1B       		.uleb128 0x1b
 12958 2fd7 01       		.uleb128 0x1
 12959 2fd8 50       		.byte	0x50
 12960 2fd9 02       		.uleb128 0x2
 12961 2fda 74       		.byte	0x74
 12962 2fdb 00       		.sleb128 0
 12963 2fdc 1B       		.uleb128 0x1b
 12964 2fdd 01       		.uleb128 0x1
 12965 2fde 51       		.byte	0x51
 12966 2fdf 05       		.uleb128 0x5
 12967 2fe0 03       		.byte	0x3
 12968 2fe1 20020000 		.4byte	.LC33
 12969 2fe5 00       		.byte	0
 12970 2fe6 12       		.uleb128 0x12
 12971 2fe7 CE020000 		.4byte	.LVL764
 12972 2feb B5050000 		.4byte	0x5b5
 12973 2fef 1C       		.uleb128 0x1c
 12974 2ff0 D6020000 		.4byte	.LVL765
 12975 2ff4 4B1E0000 		.4byte	0x1e4b
 12976 2ff8 07300000 		.4byte	0x3007
 12977 2ffc 1B       		.uleb128 0x1b
ARM GAS  C:\Users\FRANKL~1\AppData\Local\Temp\ccjWonOy.s 			page 269


 12978 2ffd 01       		.uleb128 0x1
 12979 2ffe 50       		.byte	0x50
 12980 2fff 01       		.uleb128 0x1
 12981 3000 30       		.byte	0x30
 12982 3001 1B       		.uleb128 0x1b
 12983 3002 01       		.uleb128 0x1
 12984 3003 51       		.byte	0x51
 12985 3004 01       		.uleb128 0x1
 12986 3005 30       		.byte	0x30
 12987 3006 00       		.byte	0
 12988 3007 12       		.uleb128 0x12
 12989 3008 EA020000 		.4byte	.LVL766
 12990 300c B5050000 		.4byte	0x5b5
 12991 3010 1C       		.uleb128 0x1c
 12992 3011 F4020000 		.4byte	.LVL768
 12993 3015 B6350000 		.4byte	0x35b6
 12994 3019 2D300000 		.4byte	0x302d
 12995 301d 1B       		.uleb128 0x1b
 12996 301e 01       		.uleb128 0x1
 12997 301f 50       		.byte	0x50
 12998 3020 02       		.uleb128 0x2
 12999 3021 74       		.byte	0x74
 13000 3022 00       		.sleb128 0
 13001 3023 1B       		.uleb128 0x1b
 13002 3024 01       		.uleb128 0x1
 13003 3025 51       		.byte	0x51
 13004 3026 05       		.uleb128 0x5
 13005 3027 03       		.byte	0x3
 13006 3028 50020000 		.4byte	.LC36
 13007 302c 00       		.byte	0
 13008 302d 1C       		.uleb128 0x1c
 13009 302e E8030000 		.4byte	.LVL779
 13010 3032 B6350000 		.4byte	0x35b6
 13011 3036 4A300000 		.4byte	0x304a
 13012 303a 1B       		.uleb128 0x1b
 13013 303b 01       		.uleb128 0x1
 13014 303c 50       		.byte	0x50
 13015 303d 02       		.uleb128 0x2
 13016 303e 74       		.byte	0x74
 13017 303f 00       		.sleb128 0
 13018 3040 1B       		.uleb128 0x1b
 13019 3041 01       		.uleb128 0x1
 13020 3042 51       		.byte	0x51
 13021 3043 05       		.uleb128 0x5
 13022 3044 03       		.byte	0x3
 13023 3045 94020000 		.4byte	.LC39
 13024 3049 00       		.byte	0
 13025 304a 1C       		.uleb128 0x1c
 13026 304b 66040000 		.4byte	.LVL790
 13027 304f B6350000 		.4byte	0x35b6
 13028 3053 67300000 		.4byte	0x3067
 13029 3057 1B       		.uleb128 0x1b
 13030 3058 01       		.uleb128 0x1
 13031 3059 50       		.byte	0x50
 13032 305a 02       		.uleb128 0x2
 13033 305b 74       		.byte	0x74
 13034 305c 00       		.sleb128 0
ARM GAS  C:\Users\FRANKL~1\AppData\Local\Temp\ccjWonOy.s 			page 270


 13035 305d 1B       		.uleb128 0x1b
 13036 305e 01       		.uleb128 0x1
 13037 305f 51       		.byte	0x51
 13038 3060 05       		.uleb128 0x5
 13039 3061 03       		.byte	0x3
 13040 3062 E8020000 		.4byte	.LC42
 13041 3066 00       		.byte	0
 13042 3067 1C       		.uleb128 0x1c
 13043 3068 EA040000 		.4byte	.LVL802
 13044 306c B6350000 		.4byte	0x35b6
 13045 3070 84300000 		.4byte	0x3084
 13046 3074 1B       		.uleb128 0x1b
 13047 3075 01       		.uleb128 0x1
 13048 3076 50       		.byte	0x50
 13049 3077 02       		.uleb128 0x2
 13050 3078 74       		.byte	0x74
 13051 3079 00       		.sleb128 0
 13052 307a 1B       		.uleb128 0x1b
 13053 307b 01       		.uleb128 0x1
 13054 307c 51       		.byte	0x51
 13055 307d 05       		.uleb128 0x5
 13056 307e 03       		.byte	0x3
 13057 307f 48030000 		.4byte	.LC45
 13058 3083 00       		.byte	0
 13059 3084 1C       		.uleb128 0x1c
 13060 3085 34050000 		.4byte	.LVL813
 13061 3089 B6350000 		.4byte	0x35b6
 13062 308d A1300000 		.4byte	0x30a1
 13063 3091 1B       		.uleb128 0x1b
 13064 3092 01       		.uleb128 0x1
 13065 3093 50       		.byte	0x50
 13066 3094 02       		.uleb128 0x2
 13067 3095 74       		.byte	0x74
 13068 3096 00       		.sleb128 0
 13069 3097 1B       		.uleb128 0x1b
 13070 3098 01       		.uleb128 0x1
 13071 3099 51       		.byte	0x51
 13072 309a 05       		.uleb128 0x5
 13073 309b 03       		.byte	0x3
 13074 309c 6C030000 		.4byte	.LC47
 13075 30a0 00       		.byte	0
 13076 30a1 1C       		.uleb128 0x1c
 13077 30a2 7E050000 		.4byte	.LVL824
 13078 30a6 B6350000 		.4byte	0x35b6
 13079 30aa BE300000 		.4byte	0x30be
 13080 30ae 1B       		.uleb128 0x1b
 13081 30af 01       		.uleb128 0x1
 13082 30b0 50       		.byte	0x50
 13083 30b1 02       		.uleb128 0x2
 13084 30b2 74       		.byte	0x74
 13085 30b3 00       		.sleb128 0
 13086 30b4 1B       		.uleb128 0x1b
 13087 30b5 01       		.uleb128 0x1
 13088 30b6 51       		.byte	0x51
 13089 30b7 05       		.uleb128 0x5
 13090 30b8 03       		.byte	0x3
 13091 30b9 98030000 		.4byte	.LC49
ARM GAS  C:\Users\FRANKL~1\AppData\Local\Temp\ccjWonOy.s 			page 271


 13092 30bd 00       		.byte	0
 13093 30be 1C       		.uleb128 0x1c
 13094 30bf C8050000 		.4byte	.LVL835
 13095 30c3 B6350000 		.4byte	0x35b6
 13096 30c7 DB300000 		.4byte	0x30db
 13097 30cb 1B       		.uleb128 0x1b
 13098 30cc 01       		.uleb128 0x1
 13099 30cd 50       		.byte	0x50
 13100 30ce 02       		.uleb128 0x2
 13101 30cf 74       		.byte	0x74
 13102 30d0 00       		.sleb128 0
 13103 30d1 1B       		.uleb128 0x1b
 13104 30d2 01       		.uleb128 0x1
 13105 30d3 51       		.byte	0x51
 13106 30d4 05       		.uleb128 0x5
 13107 30d5 03       		.byte	0x3
 13108 30d6 CC030000 		.4byte	.LC51
 13109 30da 00       		.byte	0
 13110 30db 1C       		.uleb128 0x1c
 13111 30dc 12060000 		.4byte	.LVL846
 13112 30e0 B6350000 		.4byte	0x35b6
 13113 30e4 F8300000 		.4byte	0x30f8
 13114 30e8 1B       		.uleb128 0x1b
 13115 30e9 01       		.uleb128 0x1
 13116 30ea 50       		.byte	0x50
 13117 30eb 02       		.uleb128 0x2
 13118 30ec 74       		.byte	0x74
 13119 30ed 00       		.sleb128 0
 13120 30ee 1B       		.uleb128 0x1b
 13121 30ef 01       		.uleb128 0x1
 13122 30f0 51       		.byte	0x51
 13123 30f1 05       		.uleb128 0x5
 13124 30f2 03       		.byte	0x3
 13125 30f3 F4030000 		.4byte	.LC53
 13126 30f7 00       		.byte	0
 13127 30f8 1C       		.uleb128 0x1c
 13128 30f9 4A060000 		.4byte	.LVL854
 13129 30fd B6350000 		.4byte	0x35b6
 13130 3101 15310000 		.4byte	0x3115
 13131 3105 1B       		.uleb128 0x1b
 13132 3106 01       		.uleb128 0x1
 13133 3107 50       		.byte	0x50
 13134 3108 02       		.uleb128 0x2
 13135 3109 74       		.byte	0x74
 13136 310a 00       		.sleb128 0
 13137 310b 1B       		.uleb128 0x1b
 13138 310c 01       		.uleb128 0x1
 13139 310d 51       		.byte	0x51
 13140 310e 05       		.uleb128 0x5
 13141 310f 03       		.byte	0x3
 13142 3110 2C040000 		.4byte	.LC55
 13143 3114 00       		.byte	0
 13144 3115 12       		.uleb128 0x12
 13145 3116 52060000 		.4byte	.LVL855
 13146 311a 48090000 		.4byte	0x948
 13147 311e 12       		.uleb128 0x12
 13148 311f 70060000 		.4byte	.LVL857
ARM GAS  C:\Users\FRANKL~1\AppData\Local\Temp\ccjWonOy.s 			page 272


 13149 3123 B5050000 		.4byte	0x5b5
 13150 3127 1C       		.uleb128 0x1c
 13151 3128 7A060000 		.4byte	.LVL859
 13152 312c B6350000 		.4byte	0x35b6
 13153 3130 44310000 		.4byte	0x3144
 13154 3134 1B       		.uleb128 0x1b
 13155 3135 01       		.uleb128 0x1
 13156 3136 50       		.byte	0x50
 13157 3137 02       		.uleb128 0x2
 13158 3138 74       		.byte	0x74
 13159 3139 00       		.sleb128 0
 13160 313a 1B       		.uleb128 0x1b
 13161 313b 01       		.uleb128 0x1
 13162 313c 51       		.byte	0x51
 13163 313d 05       		.uleb128 0x5
 13164 313e 03       		.byte	0x3
 13165 313f 68040000 		.4byte	.LC57
 13166 3143 00       		.byte	0
 13167 3144 1C       		.uleb128 0x1c
 13168 3145 B2060000 		.4byte	.LVL867
 13169 3149 B6350000 		.4byte	0x35b6
 13170 314d 61310000 		.4byte	0x3161
 13171 3151 1B       		.uleb128 0x1b
 13172 3152 01       		.uleb128 0x1
 13173 3153 50       		.byte	0x50
 13174 3154 02       		.uleb128 0x2
 13175 3155 74       		.byte	0x74
 13176 3156 00       		.sleb128 0
 13177 3157 1B       		.uleb128 0x1b
 13178 3158 01       		.uleb128 0x1
 13179 3159 51       		.byte	0x51
 13180 315a 05       		.uleb128 0x5
 13181 315b 03       		.byte	0x3
 13182 315c A0040000 		.4byte	.LC59
 13183 3160 00       		.byte	0
 13184 3161 1C       		.uleb128 0x1c
 13185 3162 48070000 		.4byte	.LVL875
 13186 3166 B6350000 		.4byte	0x35b6
 13187 316a 7E310000 		.4byte	0x317e
 13188 316e 1B       		.uleb128 0x1b
 13189 316f 01       		.uleb128 0x1
 13190 3170 50       		.byte	0x50
 13191 3171 02       		.uleb128 0x2
 13192 3172 74       		.byte	0x74
 13193 3173 00       		.sleb128 0
 13194 3174 1B       		.uleb128 0x1b
 13195 3175 01       		.uleb128 0x1
 13196 3176 51       		.byte	0x51
 13197 3177 05       		.uleb128 0x5
 13198 3178 03       		.byte	0x3
 13199 3179 D8040000 		.4byte	.LC61
 13200 317d 00       		.byte	0
 13201 317e 1C       		.uleb128 0x1c
 13202 317f 80070000 		.4byte	.LVL883
 13203 3183 B6350000 		.4byte	0x35b6
 13204 3187 9B310000 		.4byte	0x319b
 13205 318b 1B       		.uleb128 0x1b
ARM GAS  C:\Users\FRANKL~1\AppData\Local\Temp\ccjWonOy.s 			page 273


 13206 318c 01       		.uleb128 0x1
 13207 318d 50       		.byte	0x50
 13208 318e 02       		.uleb128 0x2
 13209 318f 74       		.byte	0x74
 13210 3190 00       		.sleb128 0
 13211 3191 1B       		.uleb128 0x1b
 13212 3192 01       		.uleb128 0x1
 13213 3193 51       		.byte	0x51
 13214 3194 05       		.uleb128 0x5
 13215 3195 03       		.byte	0x3
 13216 3196 18050000 		.4byte	.LC63
 13217 319a 00       		.byte	0
 13218 319b 12       		.uleb128 0x12
 13219 319c 88070000 		.4byte	.LVL884
 13220 31a0 F50A0000 		.4byte	0xaf5
 13221 31a4 12       		.uleb128 0x12
 13222 31a5 A2070000 		.4byte	.LVL886
 13223 31a9 B5050000 		.4byte	0x5b5
 13224 31ad 1C       		.uleb128 0x1c
 13225 31ae AC070000 		.4byte	.LVL888
 13226 31b2 B6350000 		.4byte	0x35b6
 13227 31b6 CA310000 		.4byte	0x31ca
 13228 31ba 1B       		.uleb128 0x1b
 13229 31bb 01       		.uleb128 0x1
 13230 31bc 50       		.byte	0x50
 13231 31bd 02       		.uleb128 0x2
 13232 31be 74       		.byte	0x74
 13233 31bf 00       		.sleb128 0
 13234 31c0 1B       		.uleb128 0x1b
 13235 31c1 01       		.uleb128 0x1
 13236 31c2 51       		.byte	0x51
 13237 31c3 05       		.uleb128 0x5
 13238 31c4 03       		.byte	0x3
 13239 31c5 4C050000 		.4byte	.LC65
 13240 31c9 00       		.byte	0
 13241 31ca 12       		.uleb128 0x12
 13242 31cb B4070000 		.4byte	.LVL889
 13243 31cf 320B0000 		.4byte	0xb32
 13244 31d3 12       		.uleb128 0x12
 13245 31d4 D6070000 		.4byte	.LVL891
 13246 31d8 B5050000 		.4byte	0x5b5
 13247 31dc 1C       		.uleb128 0x1c
 13248 31dd E0070000 		.4byte	.LVL893
 13249 31e1 B6350000 		.4byte	0x35b6
 13250 31e5 F9310000 		.4byte	0x31f9
 13251 31e9 1B       		.uleb128 0x1b
 13252 31ea 01       		.uleb128 0x1
 13253 31eb 50       		.byte	0x50
 13254 31ec 02       		.uleb128 0x2
 13255 31ed 74       		.byte	0x74
 13256 31ee 00       		.sleb128 0
 13257 31ef 1B       		.uleb128 0x1b
 13258 31f0 01       		.uleb128 0x1
 13259 31f1 51       		.byte	0x51
 13260 31f2 05       		.uleb128 0x5
 13261 31f3 03       		.byte	0x3
 13262 31f4 88050000 		.4byte	.LC67
ARM GAS  C:\Users\FRANKL~1\AppData\Local\Temp\ccjWonOy.s 			page 274


 13263 31f8 00       		.byte	0
 13264 31f9 1C       		.uleb128 0x1c
 13265 31fa 30080000 		.4byte	.LVL900
 13266 31fe B6350000 		.4byte	0x35b6
 13267 3202 16320000 		.4byte	0x3216
 13268 3206 1B       		.uleb128 0x1b
 13269 3207 01       		.uleb128 0x1
 13270 3208 50       		.byte	0x50
 13271 3209 02       		.uleb128 0x2
 13272 320a 74       		.byte	0x74
 13273 320b 00       		.sleb128 0
 13274 320c 1B       		.uleb128 0x1b
 13275 320d 01       		.uleb128 0x1
 13276 320e 51       		.byte	0x51
 13277 320f 05       		.uleb128 0x5
 13278 3210 03       		.byte	0x3
 13279 3211 DC050000 		.4byte	.LC69
 13280 3215 00       		.byte	0
 13281 3216 12       		.uleb128 0x12
 13282 3217 50080000 		.4byte	.LVL902
 13283 321b B5050000 		.4byte	0x5b5
 13284 321f 1C       		.uleb128 0x1c
 13285 3220 60080000 		.4byte	.LVL904
 13286 3224 B6350000 		.4byte	0x35b6
 13287 3228 3C320000 		.4byte	0x323c
 13288 322c 1B       		.uleb128 0x1b
 13289 322d 01       		.uleb128 0x1
 13290 322e 50       		.byte	0x50
 13291 322f 02       		.uleb128 0x2
 13292 3230 74       		.byte	0x74
 13293 3231 00       		.sleb128 0
 13294 3232 1B       		.uleb128 0x1b
 13295 3233 01       		.uleb128 0x1
 13296 3234 51       		.byte	0x51
 13297 3235 05       		.uleb128 0x5
 13298 3236 03       		.byte	0x3
 13299 3237 10060000 		.4byte	.LC71
 13300 323b 00       		.byte	0
 13301 323c 12       		.uleb128 0x12
 13302 323d 80080000 		.4byte	.LVL906
 13303 3241 B5050000 		.4byte	0x5b5
 13304 3245 1C       		.uleb128 0x1c
 13305 3246 92080000 		.4byte	.LVL908
 13306 324a B6350000 		.4byte	0x35b6
 13307 324e 62320000 		.4byte	0x3262
 13308 3252 1B       		.uleb128 0x1b
 13309 3253 01       		.uleb128 0x1
 13310 3254 50       		.byte	0x50
 13311 3255 02       		.uleb128 0x2
 13312 3256 74       		.byte	0x74
 13313 3257 00       		.sleb128 0
 13314 3258 1B       		.uleb128 0x1b
 13315 3259 01       		.uleb128 0x1
 13316 325a 51       		.byte	0x51
 13317 325b 05       		.uleb128 0x5
 13318 325c 03       		.byte	0x3
 13319 325d 44060000 		.4byte	.LC73
ARM GAS  C:\Users\FRANKL~1\AppData\Local\Temp\ccjWonOy.s 			page 275


 13320 3261 00       		.byte	0
 13321 3262 12       		.uleb128 0x12
 13322 3263 B2080000 		.4byte	.LVL910
 13323 3267 B5050000 		.4byte	0x5b5
 13324 326b 1C       		.uleb128 0x1c
 13325 326c C4080000 		.4byte	.LVL912
 13326 3270 B6350000 		.4byte	0x35b6
 13327 3274 88320000 		.4byte	0x3288
 13328 3278 1B       		.uleb128 0x1b
 13329 3279 01       		.uleb128 0x1
 13330 327a 50       		.byte	0x50
 13331 327b 02       		.uleb128 0x2
 13332 327c 74       		.byte	0x74
 13333 327d 00       		.sleb128 0
 13334 327e 1B       		.uleb128 0x1b
 13335 327f 01       		.uleb128 0x1
 13336 3280 51       		.byte	0x51
 13337 3281 05       		.uleb128 0x5
 13338 3282 03       		.byte	0x3
 13339 3283 78060000 		.4byte	.LC75
 13340 3287 00       		.byte	0
 13341 3288 12       		.uleb128 0x12
 13342 3289 E4080000 		.4byte	.LVL914
 13343 328d B5050000 		.4byte	0x5b5
 13344 3291 1C       		.uleb128 0x1c
 13345 3292 F8080000 		.4byte	.LVL916
 13346 3296 45360000 		.4byte	0x3645
 13347 329a B7320000 		.4byte	0x32b7
 13348 329e 1B       		.uleb128 0x1b
 13349 329f 01       		.uleb128 0x1
 13350 32a0 50       		.byte	0x50
 13351 32a1 05       		.uleb128 0x5
 13352 32a2 03       		.byte	0x3
 13353 32a3 00000000 		.4byte	TransmitBuffer
 13354 32a7 1B       		.uleb128 0x1b
 13355 32a8 01       		.uleb128 0x1
 13356 32a9 51       		.byte	0x51
 13357 32aa 05       		.uleb128 0x5
 13358 32ab 03       		.byte	0x3
 13359 32ac AC060000 		.4byte	.LC77
 13360 32b0 1B       		.uleb128 0x1b
 13361 32b1 01       		.uleb128 0x1
 13362 32b2 52       		.byte	0x52
 13363 32b3 02       		.uleb128 0x2
 13364 32b4 74       		.byte	0x74
 13365 32b5 00       		.sleb128 0
 13366 32b6 00       		.byte	0
 13367 32b7 12       		.uleb128 0x12
 13368 32b8 FC080000 		.4byte	.LVL917
 13369 32bc B5050000 		.4byte	0x5b5
 13370 32c0 00       		.byte	0
 13371 32c1 12       		.uleb128 0x12
 13372 32c2 0A000000 		.4byte	.LVL681
 13373 32c6 87070000 		.4byte	0x787
 13374 32ca 1C       		.uleb128 0x1c
 13375 32cb 12000000 		.4byte	.LVL682
 13376 32cf 30370000 		.4byte	0x3730
ARM GAS  C:\Users\FRANKL~1\AppData\Local\Temp\ccjWonOy.s 			page 276


 13377 32d3 E2320000 		.4byte	0x32e2
 13378 32d7 1B       		.uleb128 0x1b
 13379 32d8 01       		.uleb128 0x1
 13380 32d9 50       		.byte	0x50
 13381 32da 01       		.uleb128 0x1
 13382 32db 30       		.byte	0x30
 13383 32dc 1B       		.uleb128 0x1b
 13384 32dd 01       		.uleb128 0x1
 13385 32de 51       		.byte	0x51
 13386 32df 01       		.uleb128 0x1
 13387 32e0 31       		.byte	0x31
 13388 32e1 00       		.byte	0
 13389 32e2 12       		.uleb128 0x12
 13390 32e3 16000000 		.4byte	.LVL683
 13391 32e7 3C370000 		.4byte	0x373c
 13392 32eb 12       		.uleb128 0x12
 13393 32ec 1A000000 		.4byte	.LVL684
 13394 32f0 47370000 		.4byte	0x3747
 13395 32f4 12       		.uleb128 0x12
 13396 32f5 1E000000 		.4byte	.LVL685
 13397 32f9 52370000 		.4byte	0x3752
 13398 32fd 12       		.uleb128 0x12
 13399 32fe 22000000 		.4byte	.LVL686
 13400 3302 5D370000 		.4byte	0x375d
 13401 3306 12       		.uleb128 0x12
 13402 3307 26000000 		.4byte	.LVL687
 13403 330b 68370000 		.4byte	0x3768
 13404 330f 12       		.uleb128 0x12
 13405 3310 2A000000 		.4byte	.LVL688
 13406 3314 73370000 		.4byte	0x3773
 13407 3318 12       		.uleb128 0x12
 13408 3319 2E000000 		.4byte	.LVL689
 13409 331d 3A360000 		.4byte	0x363a
 13410 3321 12       		.uleb128 0x12
 13411 3322 32000000 		.4byte	.LVL690
 13412 3326 7E370000 		.4byte	0x377e
 13413 332a 12       		.uleb128 0x12
 13414 332b 36000000 		.4byte	.LVL691
 13415 332f 89370000 		.4byte	0x3789
 13416 3333 12       		.uleb128 0x12
 13417 3334 3A000000 		.4byte	.LVL692
 13418 3338 94370000 		.4byte	0x3794
 13419 333c 12       		.uleb128 0x12
 13420 333d 3E000000 		.4byte	.LVL693
 13421 3341 9F370000 		.4byte	0x379f
 13422 3345 12       		.uleb128 0x12
 13423 3346 42000000 		.4byte	.LVL694
 13424 334a AA370000 		.4byte	0x37aa
 13425 334e 1C       		.uleb128 0x1c
 13426 334f 4A000000 		.4byte	.LVL695
 13427 3353 B5370000 		.4byte	0x37b5
 13428 3357 63330000 		.4byte	0x3363
 13429 335b 1B       		.uleb128 0x1b
 13430 335c 01       		.uleb128 0x1
 13431 335d 50       		.byte	0x50
 13432 335e 03       		.uleb128 0x3
 13433 335f 0A       		.byte	0xa
ARM GAS  C:\Users\FRANKL~1\AppData\Local\Temp\ccjWonOy.s 			page 277


 13434 3360 E803     		.2byte	0x3e8
 13435 3362 00       		.byte	0
 13436 3363 1C       		.uleb128 0x1c
 13437 3364 50000000 		.4byte	.LVL696
 13438 3368 19360000 		.4byte	0x3619
 13439 336c 7A330000 		.4byte	0x337a
 13440 3370 1B       		.uleb128 0x1b
 13441 3371 01       		.uleb128 0x1
 13442 3372 50       		.byte	0x50
 13443 3373 05       		.uleb128 0x5
 13444 3374 03       		.byte	0x3
 13445 3375 F8000000 		.4byte	.LC15
 13446 3379 00       		.byte	0
 13447 337a 12       		.uleb128 0x12
 13448 337b 54000000 		.4byte	.LVL697
 13449 337f F50A0000 		.4byte	0xaf5
 13450 3383 12       		.uleb128 0x12
 13451 3384 66000000 		.4byte	.LVL698
 13452 3388 C0370000 		.4byte	0x37c0
 13453 338c 1C       		.uleb128 0x1c
 13454 338d 6C000000 		.4byte	.LVL699
 13455 3391 CB370000 		.4byte	0x37cb
 13456 3395 A3330000 		.4byte	0x33a3
 13457 3399 1B       		.uleb128 0x1b
 13458 339a 01       		.uleb128 0x1
 13459 339b 50       		.byte	0x50
 13460 339c 05       		.uleb128 0x5
 13461 339d 03       		.byte	0x3
 13462 339e 00000000 		.4byte	CommunicationHandlerISR
 13463 33a2 00       		.byte	0
 13464 33a3 1C       		.uleb128 0x1c
 13465 33a4 7A000000 		.4byte	.LVL700
 13466 33a8 67180000 		.4byte	0x1867
 13467 33ac B8330000 		.4byte	0x33b8
 13468 33b0 1B       		.uleb128 0x1b
 13469 33b1 01       		.uleb128 0x1
 13470 33b2 50       		.byte	0x50
 13471 33b3 03       		.uleb128 0x3
 13472 33b4 0A       		.byte	0xa
 13473 33b5 2C01     		.2byte	0x12c
 13474 33b7 00       		.byte	0
 13475 33b8 12       		.uleb128 0x12
 13476 33b9 80000000 		.4byte	.LVL701
 13477 33bd 710B0000 		.4byte	0xb71
 13478 33c1 00       		.byte	0
 13479 33c2 31       		.uleb128 0x31
 13480 33c3 A6070000 		.4byte	.LASF186
 13481 33c7 06       		.byte	0x6
 13482 33c8 1207     		.2byte	0x712
 13483 33ca CE330000 		.4byte	0x33ce
 13484 33ce 08       		.uleb128 0x8
 13485 33cf A3000000 		.4byte	0xa3
 13486 33d3 09       		.uleb128 0x9
 13487 33d4 70010000 		.4byte	0x170
 13488 33d8 E3330000 		.4byte	0x33e3
 13489 33dc 0A       		.uleb128 0xa
 13490 33dd 84000000 		.4byte	0x84
ARM GAS  C:\Users\FRANKL~1\AppData\Local\Temp\ccjWonOy.s 			page 278


 13491 33e1 03       		.byte	0x3
 13492 33e2 00       		.byte	0
 13493 33e3 32       		.uleb128 0x32
 13494 33e4 DC070000 		.4byte	.LASF187
 13495 33e8 02       		.byte	0x2
 13496 33e9 1F       		.byte	0x1f
 13497 33ea D3330000 		.4byte	0x33d3
 13498 33ee 05       		.uleb128 0x5
 13499 33ef 03       		.byte	0x3
 13500 33f0 00000000 		.4byte	selectors
 13501 33f4 32       		.uleb128 0x32
 13502 33f5 BD0A0000 		.4byte	.LASF188
 13503 33f9 02       		.byte	0x2
 13504 33fa 20       		.byte	0x20
 13505 33fb C1030000 		.4byte	0x3c1
 13506 33ff 05       		.uleb128 0x5
 13507 3400 03       		.byte	0x3
 13508 3401 00000000 		.4byte	TransmitBuffer
 13509 3405 32       		.uleb128 0x32
 13510 3406 5B050000 		.4byte	.LASF189
 13511 340a 02       		.byte	0x2
 13512 340b 22       		.byte	0x22
 13513 340c 09010000 		.4byte	0x109
 13514 3410 05       		.uleb128 0x5
 13515 3411 03       		.byte	0x3
 13516 3412 00000000 		.4byte	newData
 13517 3416 32       		.uleb128 0x32
 13518 3417 780C0000 		.4byte	.LASF190
 13519 341b 02       		.byte	0x2
 13520 341c 23       		.byte	0x23
 13521 341d 09010000 		.4byte	0x109
 13522 3421 05       		.uleb128 0x5
 13523 3422 03       		.byte	0x3
 13524 3423 00000000 		.4byte	G_Stop
 13525 3427 32       		.uleb128 0x32
 13526 3428 2F010000 		.4byte	.LASF191
 13527 342c 02       		.byte	0x2
 13528 342d 24       		.byte	0x24
 13529 342e 09010000 		.4byte	0x109
 13530 3432 05       		.uleb128 0x5
 13531 3433 03       		.byte	0x3
 13532 3434 00000000 		.4byte	G_Break
 13533 3438 32       		.uleb128 0x32
 13534 3439 220D0000 		.4byte	.LASF192
 13535 343d 02       		.byte	0x2
 13536 343e 25       		.byte	0x25
 13537 343f 09010000 		.4byte	0x109
 13538 3443 05       		.uleb128 0x5
 13539 3444 03       		.byte	0x3
 13540 3445 00000000 		.4byte	G_Pause
 13541 3449 09       		.uleb128 0x9
 13542 344a 59340000 		.4byte	0x3459
 13543 344e 59340000 		.4byte	0x3459
 13544 3452 0A       		.uleb128 0xa
 13545 3453 84000000 		.4byte	0x84
 13546 3457 3F       		.byte	0x3f
 13547 3458 00       		.byte	0
ARM GAS  C:\Users\FRANKL~1\AppData\Local\Temp\ccjWonOy.s 			page 279


 13548 3459 08       		.uleb128 0x8
 13549 345a 91000000 		.4byte	0x91
 13550 345e 32       		.uleb128 0x32
 13551 345f 190B0000 		.4byte	.LASF193
 13552 3463 02       		.byte	0x2
 13553 3464 27       		.byte	0x27
 13554 3465 6F340000 		.4byte	0x346f
 13555 3469 05       		.uleb128 0x5
 13556 346a 03       		.byte	0x3
 13557 346b 00000000 		.4byte	UART_Receive_Buffer
 13558 346f 08       		.uleb128 0x8
 13559 3470 49340000 		.4byte	0x3449
 13560 3474 32       		.uleb128 0x32
 13561 3475 850A0000 		.4byte	.LASF194
 13562 3479 02       		.byte	0x2
 13563 347a 28       		.byte	0x28
 13564 347b 09010000 		.4byte	0x109
 13565 347f 05       		.uleb128 0x5
 13566 3480 03       		.byte	0x3
 13567 3481 00000000 		.4byte	UART_Rx_Position
 13568 3485 32       		.uleb128 0x32
 13569 3486 18010000 		.4byte	.LASF195
 13570 348a 02       		.byte	0x2
 13571 348b 2A       		.byte	0x2a
 13572 348c 96340000 		.4byte	0x3496
 13573 3490 05       		.uleb128 0x5
 13574 3491 03       		.byte	0x3
 13575 3492 00000000 		.4byte	USBUART_Receive_Buffer
 13576 3496 08       		.uleb128 0x8
 13577 3497 49340000 		.4byte	0x3449
 13578 349b 32       		.uleb128 0x32
 13579 349c 550A0000 		.4byte	.LASF196
 13580 34a0 02       		.byte	0x2
 13581 34a1 2B       		.byte	0x2b
 13582 34a2 09010000 		.4byte	0x109
 13583 34a6 05       		.uleb128 0x5
 13584 34a7 03       		.byte	0x3
 13585 34a8 00000000 		.4byte	USBUART_Rx_Position
 13586 34ac 32       		.uleb128 0x32
 13587 34ad C2050000 		.4byte	.LASF197
 13588 34b1 02       		.byte	0x2
 13589 34b2 2E       		.byte	0x2e
 13590 34b3 AE000000 		.4byte	0xae
 13591 34b7 05       		.uleb128 0x5
 13592 34b8 03       		.byte	0x3
 13593 34b9 00000000 		.4byte	TIA_Selected_Resistor
 13594 34bd 32       		.uleb128 0x32
 13595 34be D3090000 		.4byte	.LASF198
 13596 34c2 02       		.byte	0x2
 13597 34c3 30       		.byte	0x30
 13598 34c4 0E010000 		.4byte	0x10e
 13599 34c8 05       		.uleb128 0x5
 13600 34c9 03       		.byte	0x3
 13601 34ca 00000000 		.4byte	TIA_Resistor_Codes
 13602 34ce 09       		.uleb128 0x9
 13603 34cf 25000000 		.4byte	0x25
 13604 34d3 DE340000 		.4byte	0x34de
ARM GAS  C:\Users\FRANKL~1\AppData\Local\Temp\ccjWonOy.s 			page 280


 13605 34d7 0A       		.uleb128 0xa
 13606 34d8 84000000 		.4byte	0x84
 13607 34dc 07       		.byte	0x7
 13608 34dd 00       		.byte	0
 13609 34de 32       		.uleb128 0x32
 13610 34df F8000000 		.4byte	.LASF199
 13611 34e3 02       		.byte	0x2
 13612 34e4 31       		.byte	0x31
 13613 34e5 CE340000 		.4byte	0x34ce
 13614 34e9 05       		.uleb128 0x5
 13615 34ea 03       		.byte	0x3
 13616 34eb 00000000 		.4byte	TIA_Resistor_Values
 13617 34ef 09       		.uleb128 0x9
 13618 34f0 EA000000 		.4byte	0xea
 13619 34f4 FF340000 		.4byte	0x34ff
 13620 34f8 0A       		.uleb128 0xa
 13621 34f9 84000000 		.4byte	0x84
 13622 34fd 07       		.byte	0x7
 13623 34fe 00       		.byte	0
 13624 34ff 32       		.uleb128 0x32
 13625 3500 370B0000 		.4byte	.LASF200
 13626 3504 02       		.byte	0x2
 13627 3505 32       		.byte	0x32
 13628 3506 EF340000 		.4byte	0x34ef
 13629 350a 05       		.uleb128 0x5
 13630 350b 03       		.byte	0x3
 13631 350c 00000000 		.4byte	TIA_Offsets_uV
 13632 3510 32       		.uleb128 0x32
 13633 3511 BD070000 		.4byte	.LASF201
 13634 3515 02       		.byte	0x2
 13635 3516 34       		.byte	0x34
 13636 3517 AE000000 		.4byte	0xae
 13637 351b 05       		.uleb128 0x5
 13638 351c 03       		.byte	0x3
 13639 351d 00000000 		.4byte	Compliance_Reached
 13640 3521 32       		.uleb128 0x32
 13641 3522 960A0000 		.4byte	.LASF202
 13642 3526 02       		.byte	0x2
 13643 3527 35       		.byte	0x35
 13644 3528 DE000000 		.4byte	0xde
 13645 352c 05       		.uleb128 0x5
 13646 352d 03       		.byte	0x3
 13647 352e 00000000 		.4byte	Vgs_Index_Goal_Relative
 13648 3532 32       		.uleb128 0x32
 13649 3533 70060000 		.4byte	.LASF203
 13650 3537 02       		.byte	0x2
 13651 3538 36       		.byte	0x36
 13652 3539 DE000000 		.4byte	0xde
 13653 353d 05       		.uleb128 0x5
 13654 353e 03       		.byte	0x3
 13655 353f 00000000 		.4byte	Vds_Index_Goal_Relative
 13656 3543 32       		.uleb128 0x32
 13657 3544 61010000 		.4byte	.LASF204
 13658 3548 02       		.byte	0x2
 13659 3549 38       		.byte	0x38
 13660 354a C6000000 		.4byte	0xc6
 13661 354e 05       		.uleb128 0x5
ARM GAS  C:\Users\FRANKL~1\AppData\Local\Temp\ccjWonOy.s 			page 281


 13662 354f 03       		.byte	0x3
 13663 3550 00000000 		.4byte	Current_Measurement_Sample_Count
 13664 3554 32       		.uleb128 0x32
 13665 3555 C90D0000 		.4byte	.LASF205
 13666 3559 02       		.byte	0x2
 13667 355a 3A       		.byte	0x3a
 13668 355b 65350000 		.4byte	0x3565
 13669 355f 05       		.uleb128 0x5
 13670 3560 03       		.byte	0x3
 13671 3561 00000000 		.4byte	uartSendingEnabled
 13672 3565 02       		.uleb128 0x2
 13673 3566 01       		.byte	0x1
 13674 3567 02       		.byte	0x2
 13675 3568 F4030000 		.4byte	.LASF206
 13676 356c 32       		.uleb128 0x32
 13677 356d 0B0E0000 		.4byte	.LASF207
 13678 3571 02       		.byte	0x2
 13679 3572 3B       		.byte	0x3b
 13680 3573 65350000 		.4byte	0x3565
 13681 3577 05       		.uleb128 0x5
 13682 3578 03       		.byte	0x3
 13683 3579 00000000 		.4byte	usbuSendingEnabled
 13684 357d 33       		.uleb128 0x33
 13685 357e AA0D0000 		.4byte	.LASF208
 13686 3582 AA0D0000 		.4byte	.LASF208
 13687 3586 07       		.byte	0x7
 13688 3587 2E01     		.2byte	0x12e
 13689 3589 33       		.uleb128 0x33
 13690 358a C20B0000 		.4byte	.LASF209
 13691 358e C20B0000 		.4byte	.LASF209
 13692 3592 07       		.byte	0x7
 13693 3593 2D01     		.2byte	0x12d
 13694 3595 34       		.uleb128 0x34
 13695 3596 690A0000 		.4byte	.LASF210
 13696 359a 690A0000 		.4byte	.LASF210
 13697 359e 08       		.byte	0x8
 13698 359f 22       		.byte	0x22
 13699 35a0 34       		.uleb128 0x34
 13700 35a1 460B0000 		.4byte	.LASF211
 13701 35a5 460B0000 		.4byte	.LASF211
 13702 35a9 08       		.byte	0x8
 13703 35aa 29       		.byte	0x29
 13704 35ab 34       		.uleb128 0x34
 13705 35ac AD050000 		.4byte	.LASF212
 13706 35b0 AD050000 		.4byte	.LASF212
 13707 35b4 08       		.byte	0x8
 13708 35b5 2B       		.byte	0x2b
 13709 35b6 34       		.uleb128 0x34
 13710 35b7 610C0000 		.4byte	.LASF213
 13711 35bb 610C0000 		.4byte	.LASF213
 13712 35bf 09       		.byte	0x9
 13713 35c0 28       		.byte	0x28
 13714 35c1 34       		.uleb128 0x34
 13715 35c2 5D0D0000 		.4byte	.LASF214
 13716 35c6 5D0D0000 		.4byte	.LASF214
 13717 35ca 0A       		.byte	0xa
 13718 35cb 73       		.byte	0x73
ARM GAS  C:\Users\FRANKL~1\AppData\Local\Temp\ccjWonOy.s 			page 282


 13719 35cc 34       		.uleb128 0x34
 13720 35cd DC0D0000 		.4byte	.LASF215
 13721 35d1 DC0D0000 		.4byte	.LASF215
 13722 35d5 0A       		.byte	0xa
 13723 35d6 71       		.byte	0x71
 13724 35d7 34       		.uleb128 0x34
 13725 35d8 BB0E0000 		.4byte	.LASF216
 13726 35dc BB0E0000 		.4byte	.LASF216
 13727 35e0 0B       		.byte	0xb
 13728 35e1 28       		.byte	0x28
 13729 35e2 34       		.uleb128 0x34
 13730 35e3 02090000 		.4byte	.LASF217
 13731 35e7 02090000 		.4byte	.LASF217
 13732 35eb 0C       		.byte	0xc
 13733 35ec 5E       		.byte	0x5e
 13734 35ed 34       		.uleb128 0x34
 13735 35ee 09100000 		.4byte	.LASF218
 13736 35f2 09100000 		.4byte	.LASF218
 13737 35f6 08       		.byte	0x8
 13738 35f7 28       		.byte	0x28
 13739 35f8 34       		.uleb128 0x34
 13740 35f9 E6090000 		.4byte	.LASF219
 13741 35fd E6090000 		.4byte	.LASF219
 13742 3601 08       		.byte	0x8
 13743 3602 23       		.byte	0x23
 13744 3603 34       		.uleb128 0x34
 13745 3604 1E0E0000 		.4byte	.LASF220
 13746 3608 1E0E0000 		.4byte	.LASF220
 13747 360c 08       		.byte	0x8
 13748 360d 2C       		.byte	0x2c
 13749 360e 34       		.uleb128 0x34
 13750 360f 5F0E0000 		.4byte	.LASF221
 13751 3613 5F0E0000 		.4byte	.LASF221
 13752 3617 09       		.byte	0x9
 13753 3618 21       		.byte	0x21
 13754 3619 34       		.uleb128 0x34
 13755 361a 440A0000 		.4byte	.LASF222
 13756 361e 440A0000 		.4byte	.LASF222
 13757 3622 0A       		.byte	0xa
 13758 3623 8B       		.byte	0x8b
 13759 3624 34       		.uleb128 0x34
 13760 3625 11040000 		.4byte	.LASF223
 13761 3629 11040000 		.4byte	.LASF223
 13762 362d 0D       		.byte	0xd
 13763 362e A3       		.byte	0xa3
 13764 362f 34       		.uleb128 0x34
 13765 3630 82010000 		.4byte	.LASF224
 13766 3634 82010000 		.4byte	.LASF224
 13767 3638 0D       		.byte	0xd
 13768 3639 94       		.byte	0x94
 13769 363a 34       		.uleb128 0x34
 13770 363b 0C010000 		.4byte	.LASF225
 13771 363f 0C010000 		.4byte	.LASF225
 13772 3643 0D       		.byte	0xd
 13773 3644 93       		.byte	0x93
 13774 3645 34       		.uleb128 0x34
 13775 3646 88060000 		.4byte	.LASF226
ARM GAS  C:\Users\FRANKL~1\AppData\Local\Temp\ccjWonOy.s 			page 283


 13776 364a 88060000 		.4byte	.LASF226
 13777 364e 0E       		.byte	0xe
 13778 364f E7       		.byte	0xe7
 13779 3650 34       		.uleb128 0x34
 13780 3651 FE0C0000 		.4byte	.LASF227
 13781 3655 FE0C0000 		.4byte	.LASF227
 13782 3659 0D       		.byte	0xd
 13783 365a A4       		.byte	0xa4
 13784 365b 34       		.uleb128 0x34
 13785 365c 420E0000 		.4byte	.LASF228
 13786 3660 420E0000 		.4byte	.LASF228
 13787 3664 0D       		.byte	0xd
 13788 3665 A7       		.byte	0xa7
 13789 3666 34       		.uleb128 0x34
 13790 3667 A70F0000 		.4byte	.LASF229
 13791 366b A70F0000 		.4byte	.LASF229
 13792 366f 0F       		.byte	0xf
 13793 3670 40       		.byte	0x40
 13794 3671 34       		.uleb128 0x34
 13795 3672 CC080000 		.4byte	.LASF230
 13796 3676 CC080000 		.4byte	.LASF230
 13797 367a 10       		.byte	0x10
 13798 367b 3F       		.byte	0x3f
 13799 367c 34       		.uleb128 0x34
 13800 367d D4060000 		.4byte	.LASF231
 13801 3681 D4060000 		.4byte	.LASF231
 13802 3685 10       		.byte	0x10
 13803 3686 42       		.byte	0x42
 13804 3687 34       		.uleb128 0x34
 13805 3688 37050000 		.4byte	.LASF232
 13806 368c 37050000 		.4byte	.LASF232
 13807 3690 10       		.byte	0x10
 13808 3691 48       		.byte	0x48
 13809 3692 34       		.uleb128 0x34
 13810 3693 96030000 		.4byte	.LASF233
 13811 3697 96030000 		.4byte	.LASF233
 13812 369b 11       		.byte	0x11
 13813 369c D1       		.byte	0xd1
 13814 369d 34       		.uleb128 0x34
 13815 369e 3E080000 		.4byte	.LASF234
 13816 36a2 3E080000 		.4byte	.LASF234
 13817 36a6 11       		.byte	0x11
 13818 36a7 39       		.byte	0x39
 13819 36a8 34       		.uleb128 0x34
 13820 36a9 46030000 		.4byte	.LASF235
 13821 36ad 46030000 		.4byte	.LASF235
 13822 36b1 11       		.byte	0x11
 13823 36b2 3B       		.byte	0x3b
 13824 36b3 34       		.uleb128 0x34
 13825 36b4 F4040000 		.4byte	.LASF236
 13826 36b8 F4040000 		.4byte	.LASF236
 13827 36bc 11       		.byte	0x11
 13828 36bd 40       		.byte	0x40
 13829 36be 34       		.uleb128 0x34
 13830 36bf D50F0000 		.4byte	.LASF237
 13831 36c3 D50F0000 		.4byte	.LASF237
 13832 36c7 12       		.byte	0x12
ARM GAS  C:\Users\FRANKL~1\AppData\Local\Temp\ccjWonOy.s 			page 284


 13833 36c8 D1       		.byte	0xd1
 13834 36c9 34       		.uleb128 0x34
 13835 36ca 7E070000 		.4byte	.LASF238
 13836 36ce 7E070000 		.4byte	.LASF238
 13837 36d2 12       		.byte	0x12
 13838 36d3 39       		.byte	0x39
 13839 36d4 34       		.uleb128 0x34
 13840 36d5 BD090000 		.4byte	.LASF239
 13841 36d9 BD090000 		.4byte	.LASF239
 13842 36dd 12       		.byte	0x12
 13843 36de 3B       		.byte	0x3b
 13844 36df 34       		.uleb128 0x34
 13845 36e0 7E040000 		.4byte	.LASF240
 13846 36e4 7E040000 		.4byte	.LASF240
 13847 36e8 12       		.byte	0x12
 13848 36e9 40       		.byte	0x40
 13849 36ea 34       		.uleb128 0x34
 13850 36eb 77020000 		.4byte	.LASF241
 13851 36ef 77020000 		.4byte	.LASF241
 13852 36f3 13       		.byte	0x13
 13853 36f4 37       		.byte	0x37
 13854 36f5 34       		.uleb128 0x34
 13855 36f6 20060000 		.4byte	.LASF242
 13856 36fa 20060000 		.4byte	.LASF242
 13857 36fe 14       		.byte	0x14
 13858 36ff 37       		.byte	0x37
 13859 3700 34       		.uleb128 0x34
 13860 3701 A40B0000 		.4byte	.LASF243
 13861 3705 A40B0000 		.4byte	.LASF243
 13862 3709 15       		.byte	0x15
 13863 370a 37       		.byte	0x37
 13864 370b 35       		.uleb128 0x35
 13865 370c 5A020000 		.4byte	.LASF267
 13866 3710 910F0000 		.4byte	.LASF268
 13867 3714 1A       		.byte	0x1a
 13868 3715 00       		.byte	0
 13869 3716 5A020000 		.4byte	.LASF267
 13870 371a 34       		.uleb128 0x34
 13871 371b 2A0D0000 		.4byte	.LASF244
 13872 371f 2A0D0000 		.4byte	.LASF244
 13873 3723 16       		.byte	0x16
 13874 3724 A2       		.byte	0xa2
 13875 3725 34       		.uleb128 0x34
 13876 3726 47070000 		.4byte	.LASF245
 13877 372a 47070000 		.4byte	.LASF245
 13878 372e 0E       		.byte	0xe
 13879 372f BF       		.byte	0xbf
 13880 3730 33       		.uleb128 0x33
 13881 3731 70050000 		.4byte	.LASF246
 13882 3735 70050000 		.4byte	.LASF246
 13883 3739 07       		.byte	0x7
 13884 373a 2A01     		.2byte	0x12a
 13885 373c 34       		.uleb128 0x34
 13886 373d 39020000 		.4byte	.LASF247
 13887 3741 39020000 		.4byte	.LASF247
 13888 3745 0A       		.byte	0xa
 13889 3746 54       		.byte	0x54
ARM GAS  C:\Users\FRANKL~1\AppData\Local\Temp\ccjWonOy.s 			page 285


 13890 3747 34       		.uleb128 0x34
 13891 3748 FA0F0000 		.4byte	.LASF248
 13892 374c FA0F0000 		.4byte	.LASF248
 13893 3750 13       		.byte	0x13
 13894 3751 33       		.byte	0x33
 13895 3752 34       		.uleb128 0x34
 13896 3753 270A0000 		.4byte	.LASF249
 13897 3757 270A0000 		.4byte	.LASF249
 13898 375b 14       		.byte	0x14
 13899 375c 33       		.byte	0x33
 13900 375d 34       		.uleb128 0x34
 13901 375e 4E070000 		.4byte	.LASF250
 13902 3762 4E070000 		.4byte	.LASF250
 13903 3766 15       		.byte	0x15
 13904 3767 33       		.byte	0x33
 13905 3768 34       		.uleb128 0x34
 13906 3769 B60F0000 		.4byte	.LASF251
 13907 376d B60F0000 		.4byte	.LASF251
 13908 3771 10       		.byte	0x10
 13909 3772 3A       		.byte	0x3a
 13910 3773 34       		.uleb128 0x34
 13911 3774 77090000 		.4byte	.LASF252
 13912 3778 77090000 		.4byte	.LASF252
 13913 377c 0F       		.byte	0xf
 13914 377d 3D       		.byte	0x3d
 13915 377e 34       		.uleb128 0x34
 13916 377f 0A080000 		.4byte	.LASF253
 13917 3783 0A080000 		.4byte	.LASF253
 13918 3787 11       		.byte	0x11
 13919 3788 34       		.byte	0x34
 13920 3789 34       		.uleb128 0x34
 13921 378a 83090000 		.4byte	.LASF254
 13922 378e 83090000 		.4byte	.LASF254
 13923 3792 12       		.byte	0x12
 13924 3793 34       		.byte	0x34
 13925 3794 34       		.uleb128 0x34
 13926 3795 69000000 		.4byte	.LASF255
 13927 3799 69000000 		.4byte	.LASF255
 13928 379d 17       		.byte	0x17
 13929 379e 33       		.byte	0x33
 13930 379f 34       		.uleb128 0x34
 13931 37a0 9F050000 		.4byte	.LASF256
 13932 37a4 9F050000 		.4byte	.LASF256
 13933 37a8 18       		.byte	0x18
 13934 37a9 33       		.byte	0x33
 13935 37aa 34       		.uleb128 0x34
 13936 37ab 41000000 		.4byte	.LASF257
 13937 37af 41000000 		.4byte	.LASF257
 13938 37b3 10       		.byte	0x10
 13939 37b4 3D       		.byte	0x3d
 13940 37b5 34       		.uleb128 0x34
 13941 37b6 E90E0000 		.4byte	.LASF258
 13942 37ba E90E0000 		.4byte	.LASF258
 13943 37be 19       		.byte	0x19
 13944 37bf 76       		.byte	0x76
 13945 37c0 34       		.uleb128 0x34
 13946 37c1 E9080000 		.4byte	.LASF259
ARM GAS  C:\Users\FRANKL~1\AppData\Local\Temp\ccjWonOy.s 			page 286


 13947 37c5 E9080000 		.4byte	.LASF259
 13948 37c9 0C       		.byte	0xc
 13949 37ca 5A       		.byte	0x5a
 13950 37cb 34       		.uleb128 0x34
 13951 37cc 06020000 		.4byte	.LASF260
 13952 37d0 06020000 		.4byte	.LASF260
 13953 37d4 0B       		.byte	0xb
 13954 37d5 18       		.byte	0x18
 13955 37d6 00       		.byte	0
 13956              		.section	.debug_abbrev,"",%progbits
 13957              	.Ldebug_abbrev0:
 13958 0000 01       		.uleb128 0x1
 13959 0001 11       		.uleb128 0x11
 13960 0002 01       		.byte	0x1
 13961 0003 25       		.uleb128 0x25
 13962 0004 0E       		.uleb128 0xe
 13963 0005 13       		.uleb128 0x13
 13964 0006 0B       		.uleb128 0xb
 13965 0007 03       		.uleb128 0x3
 13966 0008 0E       		.uleb128 0xe
 13967 0009 1B       		.uleb128 0x1b
 13968 000a 0E       		.uleb128 0xe
 13969 000b 55       		.uleb128 0x55
 13970 000c 17       		.uleb128 0x17
 13971 000d 11       		.uleb128 0x11
 13972 000e 01       		.uleb128 0x1
 13973 000f 10       		.uleb128 0x10
 13974 0010 17       		.uleb128 0x17
 13975 0011 00       		.byte	0
 13976 0012 00       		.byte	0
 13977 0013 02       		.uleb128 0x2
 13978 0014 24       		.uleb128 0x24
 13979 0015 00       		.byte	0
 13980 0016 0B       		.uleb128 0xb
 13981 0017 0B       		.uleb128 0xb
 13982 0018 3E       		.uleb128 0x3e
 13983 0019 0B       		.uleb128 0xb
 13984 001a 03       		.uleb128 0x3
 13985 001b 0E       		.uleb128 0xe
 13986 001c 00       		.byte	0
 13987 001d 00       		.byte	0
 13988 001e 03       		.uleb128 0x3
 13989 001f 24       		.uleb128 0x24
 13990 0020 00       		.byte	0
 13991 0021 0B       		.uleb128 0xb
 13992 0022 0B       		.uleb128 0xb
 13993 0023 3E       		.uleb128 0x3e
 13994 0024 0B       		.uleb128 0xb
 13995 0025 03       		.uleb128 0x3
 13996 0026 08       		.uleb128 0x8
 13997 0027 00       		.byte	0
 13998 0028 00       		.byte	0
 13999 0029 04       		.uleb128 0x4
 14000 002a 16       		.uleb128 0x16
 14001 002b 00       		.byte	0
 14002 002c 03       		.uleb128 0x3
 14003 002d 0E       		.uleb128 0xe
ARM GAS  C:\Users\FRANKL~1\AppData\Local\Temp\ccjWonOy.s 			page 287


 14004 002e 3A       		.uleb128 0x3a
 14005 002f 0B       		.uleb128 0xb
 14006 0030 3B       		.uleb128 0x3b
 14007 0031 0B       		.uleb128 0xb
 14008 0032 49       		.uleb128 0x49
 14009 0033 13       		.uleb128 0x13
 14010 0034 00       		.byte	0
 14011 0035 00       		.byte	0
 14012 0036 05       		.uleb128 0x5
 14013 0037 0F       		.uleb128 0xf
 14014 0038 00       		.byte	0
 14015 0039 0B       		.uleb128 0xb
 14016 003a 0B       		.uleb128 0xb
 14017 003b 49       		.uleb128 0x49
 14018 003c 13       		.uleb128 0x13
 14019 003d 00       		.byte	0
 14020 003e 00       		.byte	0
 14021 003f 06       		.uleb128 0x6
 14022 0040 26       		.uleb128 0x26
 14023 0041 00       		.byte	0
 14024 0042 49       		.uleb128 0x49
 14025 0043 13       		.uleb128 0x13
 14026 0044 00       		.byte	0
 14027 0045 00       		.byte	0
 14028 0046 07       		.uleb128 0x7
 14029 0047 16       		.uleb128 0x16
 14030 0048 00       		.byte	0
 14031 0049 03       		.uleb128 0x3
 14032 004a 0E       		.uleb128 0xe
 14033 004b 3A       		.uleb128 0x3a
 14034 004c 0B       		.uleb128 0xb
 14035 004d 3B       		.uleb128 0x3b
 14036 004e 05       		.uleb128 0x5
 14037 004f 49       		.uleb128 0x49
 14038 0050 13       		.uleb128 0x13
 14039 0051 00       		.byte	0
 14040 0052 00       		.byte	0
 14041 0053 08       		.uleb128 0x8
 14042 0054 35       		.uleb128 0x35
 14043 0055 00       		.byte	0
 14044 0056 49       		.uleb128 0x49
 14045 0057 13       		.uleb128 0x13
 14046 0058 00       		.byte	0
 14047 0059 00       		.byte	0
 14048 005a 09       		.uleb128 0x9
 14049 005b 01       		.uleb128 0x1
 14050 005c 01       		.byte	0x1
 14051 005d 49       		.uleb128 0x49
 14052 005e 13       		.uleb128 0x13
 14053 005f 01       		.uleb128 0x1
 14054 0060 13       		.uleb128 0x13
 14055 0061 00       		.byte	0
 14056 0062 00       		.byte	0
 14057 0063 0A       		.uleb128 0xa
 14058 0064 21       		.uleb128 0x21
 14059 0065 00       		.byte	0
 14060 0066 49       		.uleb128 0x49
ARM GAS  C:\Users\FRANKL~1\AppData\Local\Temp\ccjWonOy.s 			page 288


 14061 0067 13       		.uleb128 0x13
 14062 0068 2F       		.uleb128 0x2f
 14063 0069 0B       		.uleb128 0xb
 14064 006a 00       		.byte	0
 14065 006b 00       		.byte	0
 14066 006c 0B       		.uleb128 0xb
 14067 006d 13       		.uleb128 0x13
 14068 006e 01       		.byte	0x1
 14069 006f 0B       		.uleb128 0xb
 14070 0070 0B       		.uleb128 0xb
 14071 0071 3A       		.uleb128 0x3a
 14072 0072 0B       		.uleb128 0xb
 14073 0073 3B       		.uleb128 0x3b
 14074 0074 0B       		.uleb128 0xb
 14075 0075 01       		.uleb128 0x1
 14076 0076 13       		.uleb128 0x13
 14077 0077 00       		.byte	0
 14078 0078 00       		.byte	0
 14079 0079 0C       		.uleb128 0xc
 14080 007a 0D       		.uleb128 0xd
 14081 007b 00       		.byte	0
 14082 007c 03       		.uleb128 0x3
 14083 007d 0E       		.uleb128 0xe
 14084 007e 3A       		.uleb128 0x3a
 14085 007f 0B       		.uleb128 0xb
 14086 0080 3B       		.uleb128 0x3b
 14087 0081 0B       		.uleb128 0xb
 14088 0082 49       		.uleb128 0x49
 14089 0083 13       		.uleb128 0x13
 14090 0084 38       		.uleb128 0x38
 14091 0085 0B       		.uleb128 0xb
 14092 0086 00       		.byte	0
 14093 0087 00       		.byte	0
 14094 0088 0D       		.uleb128 0xd
 14095 0089 13       		.uleb128 0x13
 14096 008a 01       		.byte	0x1
 14097 008b 03       		.uleb128 0x3
 14098 008c 0E       		.uleb128 0xe
 14099 008d 0B       		.uleb128 0xb
 14100 008e 0B       		.uleb128 0xb
 14101 008f 3A       		.uleb128 0x3a
 14102 0090 0B       		.uleb128 0xb
 14103 0091 3B       		.uleb128 0x3b
 14104 0092 0B       		.uleb128 0xb
 14105 0093 01       		.uleb128 0x1
 14106 0094 13       		.uleb128 0x13
 14107 0095 00       		.byte	0
 14108 0096 00       		.byte	0
 14109 0097 0E       		.uleb128 0xe
 14110 0098 04       		.uleb128 0x4
 14111 0099 01       		.byte	0x1
 14112 009a 03       		.uleb128 0x3
 14113 009b 0E       		.uleb128 0xe
 14114 009c 0B       		.uleb128 0xb
 14115 009d 0B       		.uleb128 0xb
 14116 009e 49       		.uleb128 0x49
 14117 009f 13       		.uleb128 0x13
ARM GAS  C:\Users\FRANKL~1\AppData\Local\Temp\ccjWonOy.s 			page 289


 14118 00a0 3A       		.uleb128 0x3a
 14119 00a1 0B       		.uleb128 0xb
 14120 00a2 3B       		.uleb128 0x3b
 14121 00a3 0B       		.uleb128 0xb
 14122 00a4 01       		.uleb128 0x1
 14123 00a5 13       		.uleb128 0x13
 14124 00a6 00       		.byte	0
 14125 00a7 00       		.byte	0
 14126 00a8 0F       		.uleb128 0xf
 14127 00a9 28       		.uleb128 0x28
 14128 00aa 00       		.byte	0
 14129 00ab 03       		.uleb128 0x3
 14130 00ac 0E       		.uleb128 0xe
 14131 00ad 1C       		.uleb128 0x1c
 14132 00ae 0B       		.uleb128 0xb
 14133 00af 00       		.byte	0
 14134 00b0 00       		.byte	0
 14135 00b1 10       		.uleb128 0x10
 14136 00b2 2E       		.uleb128 0x2e
 14137 00b3 01       		.byte	0x1
 14138 00b4 3F       		.uleb128 0x3f
 14139 00b5 19       		.uleb128 0x19
 14140 00b6 03       		.uleb128 0x3
 14141 00b7 0E       		.uleb128 0xe
 14142 00b8 3A       		.uleb128 0x3a
 14143 00b9 0B       		.uleb128 0xb
 14144 00ba 3B       		.uleb128 0x3b
 14145 00bb 0B       		.uleb128 0xb
 14146 00bc 11       		.uleb128 0x11
 14147 00bd 01       		.uleb128 0x1
 14148 00be 12       		.uleb128 0x12
 14149 00bf 06       		.uleb128 0x6
 14150 00c0 40       		.uleb128 0x40
 14151 00c1 18       		.uleb128 0x18
 14152 00c2 9742     		.uleb128 0x2117
 14153 00c4 19       		.uleb128 0x19
 14154 00c5 01       		.uleb128 0x1
 14155 00c6 13       		.uleb128 0x13
 14156 00c7 00       		.byte	0
 14157 00c8 00       		.byte	0
 14158 00c9 11       		.uleb128 0x11
 14159 00ca 34       		.uleb128 0x34
 14160 00cb 00       		.byte	0
 14161 00cc 03       		.uleb128 0x3
 14162 00cd 0E       		.uleb128 0xe
 14163 00ce 3A       		.uleb128 0x3a
 14164 00cf 0B       		.uleb128 0xb
 14165 00d0 3B       		.uleb128 0x3b
 14166 00d1 0B       		.uleb128 0xb
 14167 00d2 49       		.uleb128 0x49
 14168 00d3 13       		.uleb128 0x13
 14169 00d4 02       		.uleb128 0x2
 14170 00d5 17       		.uleb128 0x17
 14171 00d6 00       		.byte	0
 14172 00d7 00       		.byte	0
 14173 00d8 12       		.uleb128 0x12
 14174 00d9 898201   		.uleb128 0x4109
ARM GAS  C:\Users\FRANKL~1\AppData\Local\Temp\ccjWonOy.s 			page 290


 14175 00dc 00       		.byte	0
 14176 00dd 11       		.uleb128 0x11
 14177 00de 01       		.uleb128 0x1
 14178 00df 31       		.uleb128 0x31
 14179 00e0 13       		.uleb128 0x13
 14180 00e1 00       		.byte	0
 14181 00e2 00       		.byte	0
 14182 00e3 13       		.uleb128 0x13
 14183 00e4 2E       		.uleb128 0x2e
 14184 00e5 01       		.byte	0x1
 14185 00e6 3F       		.uleb128 0x3f
 14186 00e7 19       		.uleb128 0x19
 14187 00e8 03       		.uleb128 0x3
 14188 00e9 0E       		.uleb128 0xe
 14189 00ea 3A       		.uleb128 0x3a
 14190 00eb 0B       		.uleb128 0xb
 14191 00ec 3B       		.uleb128 0x3b
 14192 00ed 0B       		.uleb128 0xb
 14193 00ee 49       		.uleb128 0x49
 14194 00ef 13       		.uleb128 0x13
 14195 00f0 11       		.uleb128 0x11
 14196 00f1 01       		.uleb128 0x1
 14197 00f2 12       		.uleb128 0x12
 14198 00f3 06       		.uleb128 0x6
 14199 00f4 40       		.uleb128 0x40
 14200 00f5 18       		.uleb128 0x18
 14201 00f6 9742     		.uleb128 0x2117
 14202 00f8 19       		.uleb128 0x19
 14203 00f9 01       		.uleb128 0x1
 14204 00fa 13       		.uleb128 0x13
 14205 00fb 00       		.byte	0
 14206 00fc 00       		.byte	0
 14207 00fd 14       		.uleb128 0x14
 14208 00fe 2E       		.uleb128 0x2e
 14209 00ff 01       		.byte	0x1
 14210 0100 3F       		.uleb128 0x3f
 14211 0101 19       		.uleb128 0x19
 14212 0102 03       		.uleb128 0x3
 14213 0103 0E       		.uleb128 0xe
 14214 0104 3A       		.uleb128 0x3a
 14215 0105 0B       		.uleb128 0xb
 14216 0106 3B       		.uleb128 0x3b
 14217 0107 05       		.uleb128 0x5
 14218 0108 27       		.uleb128 0x27
 14219 0109 19       		.uleb128 0x19
 14220 010a 11       		.uleb128 0x11
 14221 010b 01       		.uleb128 0x1
 14222 010c 12       		.uleb128 0x12
 14223 010d 06       		.uleb128 0x6
 14224 010e 40       		.uleb128 0x40
 14225 010f 18       		.uleb128 0x18
 14226 0110 9742     		.uleb128 0x2117
 14227 0112 19       		.uleb128 0x19
 14228 0113 01       		.uleb128 0x1
 14229 0114 13       		.uleb128 0x13
 14230 0115 00       		.byte	0
 14231 0116 00       		.byte	0
ARM GAS  C:\Users\FRANKL~1\AppData\Local\Temp\ccjWonOy.s 			page 291


 14232 0117 15       		.uleb128 0x15
 14233 0118 0B       		.uleb128 0xb
 14234 0119 01       		.byte	0x1
 14235 011a 11       		.uleb128 0x11
 14236 011b 01       		.uleb128 0x1
 14237 011c 12       		.uleb128 0x12
 14238 011d 06       		.uleb128 0x6
 14239 011e 01       		.uleb128 0x1
 14240 011f 13       		.uleb128 0x13
 14241 0120 00       		.byte	0
 14242 0121 00       		.byte	0
 14243 0122 16       		.uleb128 0x16
 14244 0123 34       		.uleb128 0x34
 14245 0124 00       		.byte	0
 14246 0125 03       		.uleb128 0x3
 14247 0126 0E       		.uleb128 0xe
 14248 0127 3A       		.uleb128 0x3a
 14249 0128 0B       		.uleb128 0xb
 14250 0129 3B       		.uleb128 0x3b
 14251 012a 05       		.uleb128 0x5
 14252 012b 49       		.uleb128 0x49
 14253 012c 13       		.uleb128 0x13
 14254 012d 02       		.uleb128 0x2
 14255 012e 18       		.uleb128 0x18
 14256 012f 00       		.byte	0
 14257 0130 00       		.byte	0
 14258 0131 17       		.uleb128 0x17
 14259 0132 34       		.uleb128 0x34
 14260 0133 00       		.byte	0
 14261 0134 03       		.uleb128 0x3
 14262 0135 0E       		.uleb128 0xe
 14263 0136 3A       		.uleb128 0x3a
 14264 0137 0B       		.uleb128 0xb
 14265 0138 3B       		.uleb128 0x3b
 14266 0139 05       		.uleb128 0x5
 14267 013a 49       		.uleb128 0x49
 14268 013b 13       		.uleb128 0x13
 14269 013c 02       		.uleb128 0x2
 14270 013d 17       		.uleb128 0x17
 14271 013e 00       		.byte	0
 14272 013f 00       		.byte	0
 14273 0140 18       		.uleb128 0x18
 14274 0141 34       		.uleb128 0x34
 14275 0142 00       		.byte	0
 14276 0143 03       		.uleb128 0x3
 14277 0144 08       		.uleb128 0x8
 14278 0145 3A       		.uleb128 0x3a
 14279 0146 0B       		.uleb128 0xb
 14280 0147 3B       		.uleb128 0x3b
 14281 0148 05       		.uleb128 0x5
 14282 0149 49       		.uleb128 0x49
 14283 014a 13       		.uleb128 0x13
 14284 014b 02       		.uleb128 0x2
 14285 014c 17       		.uleb128 0x17
 14286 014d 00       		.byte	0
 14287 014e 00       		.byte	0
 14288 014f 19       		.uleb128 0x19
ARM GAS  C:\Users\FRANKL~1\AppData\Local\Temp\ccjWonOy.s 			page 292


 14289 0150 0B       		.uleb128 0xb
 14290 0151 01       		.byte	0x1
 14291 0152 11       		.uleb128 0x11
 14292 0153 01       		.uleb128 0x1
 14293 0154 12       		.uleb128 0x12
 14294 0155 06       		.uleb128 0x6
 14295 0156 00       		.byte	0
 14296 0157 00       		.byte	0
 14297 0158 1A       		.uleb128 0x1a
 14298 0159 898201   		.uleb128 0x4109
 14299 015c 01       		.byte	0x1
 14300 015d 11       		.uleb128 0x11
 14301 015e 01       		.uleb128 0x1
 14302 015f 31       		.uleb128 0x31
 14303 0160 13       		.uleb128 0x13
 14304 0161 00       		.byte	0
 14305 0162 00       		.byte	0
 14306 0163 1B       		.uleb128 0x1b
 14307 0164 8A8201   		.uleb128 0x410a
 14308 0167 00       		.byte	0
 14309 0168 02       		.uleb128 0x2
 14310 0169 18       		.uleb128 0x18
 14311 016a 9142     		.uleb128 0x2111
 14312 016c 18       		.uleb128 0x18
 14313 016d 00       		.byte	0
 14314 016e 00       		.byte	0
 14315 016f 1C       		.uleb128 0x1c
 14316 0170 898201   		.uleb128 0x4109
 14317 0173 01       		.byte	0x1
 14318 0174 11       		.uleb128 0x11
 14319 0175 01       		.uleb128 0x1
 14320 0176 31       		.uleb128 0x31
 14321 0177 13       		.uleb128 0x13
 14322 0178 01       		.uleb128 0x1
 14323 0179 13       		.uleb128 0x13
 14324 017a 00       		.byte	0
 14325 017b 00       		.byte	0
 14326 017c 1D       		.uleb128 0x1d
 14327 017d 2E       		.uleb128 0x2e
 14328 017e 01       		.byte	0x1
 14329 017f 3F       		.uleb128 0x3f
 14330 0180 19       		.uleb128 0x19
 14331 0181 03       		.uleb128 0x3
 14332 0182 0E       		.uleb128 0xe
 14333 0183 3A       		.uleb128 0x3a
 14334 0184 0B       		.uleb128 0xb
 14335 0185 3B       		.uleb128 0x3b
 14336 0186 0B       		.uleb128 0xb
 14337 0187 27       		.uleb128 0x27
 14338 0188 19       		.uleb128 0x19
 14339 0189 49       		.uleb128 0x49
 14340 018a 13       		.uleb128 0x13
 14341 018b 11       		.uleb128 0x11
 14342 018c 01       		.uleb128 0x1
 14343 018d 12       		.uleb128 0x12
 14344 018e 06       		.uleb128 0x6
 14345 018f 40       		.uleb128 0x40
ARM GAS  C:\Users\FRANKL~1\AppData\Local\Temp\ccjWonOy.s 			page 293


 14346 0190 18       		.uleb128 0x18
 14347 0191 9742     		.uleb128 0x2117
 14348 0193 19       		.uleb128 0x19
 14349 0194 01       		.uleb128 0x1
 14350 0195 13       		.uleb128 0x13
 14351 0196 00       		.byte	0
 14352 0197 00       		.byte	0
 14353 0198 1E       		.uleb128 0x1e
 14354 0199 05       		.uleb128 0x5
 14355 019a 00       		.byte	0
 14356 019b 03       		.uleb128 0x3
 14357 019c 0E       		.uleb128 0xe
 14358 019d 3A       		.uleb128 0x3a
 14359 019e 0B       		.uleb128 0xb
 14360 019f 3B       		.uleb128 0x3b
 14361 01a0 0B       		.uleb128 0xb
 14362 01a1 49       		.uleb128 0x49
 14363 01a2 13       		.uleb128 0x13
 14364 01a3 02       		.uleb128 0x2
 14365 01a4 17       		.uleb128 0x17
 14366 01a5 00       		.byte	0
 14367 01a6 00       		.byte	0
 14368 01a7 1F       		.uleb128 0x1f
 14369 01a8 0B       		.uleb128 0xb
 14370 01a9 01       		.byte	0x1
 14371 01aa 55       		.uleb128 0x55
 14372 01ab 17       		.uleb128 0x17
 14373 01ac 01       		.uleb128 0x1
 14374 01ad 13       		.uleb128 0x13
 14375 01ae 00       		.byte	0
 14376 01af 00       		.byte	0
 14377 01b0 20       		.uleb128 0x20
 14378 01b1 34       		.uleb128 0x34
 14379 01b2 00       		.byte	0
 14380 01b3 03       		.uleb128 0x3
 14381 01b4 08       		.uleb128 0x8
 14382 01b5 3A       		.uleb128 0x3a
 14383 01b6 0B       		.uleb128 0xb
 14384 01b7 3B       		.uleb128 0x3b
 14385 01b8 0B       		.uleb128 0xb
 14386 01b9 49       		.uleb128 0x49
 14387 01ba 13       		.uleb128 0x13
 14388 01bb 02       		.uleb128 0x2
 14389 01bc 17       		.uleb128 0x17
 14390 01bd 00       		.byte	0
 14391 01be 00       		.byte	0
 14392 01bf 21       		.uleb128 0x21
 14393 01c0 2E       		.uleb128 0x2e
 14394 01c1 01       		.byte	0x1
 14395 01c2 3F       		.uleb128 0x3f
 14396 01c3 19       		.uleb128 0x19
 14397 01c4 03       		.uleb128 0x3
 14398 01c5 0E       		.uleb128 0xe
 14399 01c6 3A       		.uleb128 0x3a
 14400 01c7 0B       		.uleb128 0xb
 14401 01c8 3B       		.uleb128 0x3b
 14402 01c9 0B       		.uleb128 0xb
ARM GAS  C:\Users\FRANKL~1\AppData\Local\Temp\ccjWonOy.s 			page 294


 14403 01ca 27       		.uleb128 0x27
 14404 01cb 19       		.uleb128 0x19
 14405 01cc 11       		.uleb128 0x11
 14406 01cd 01       		.uleb128 0x1
 14407 01ce 12       		.uleb128 0x12
 14408 01cf 06       		.uleb128 0x6
 14409 01d0 40       		.uleb128 0x40
 14410 01d1 18       		.uleb128 0x18
 14411 01d2 9742     		.uleb128 0x2117
 14412 01d4 19       		.uleb128 0x19
 14413 01d5 01       		.uleb128 0x1
 14414 01d6 13       		.uleb128 0x13
 14415 01d7 00       		.byte	0
 14416 01d8 00       		.byte	0
 14417 01d9 22       		.uleb128 0x22
 14418 01da 05       		.uleb128 0x5
 14419 01db 00       		.byte	0
 14420 01dc 03       		.uleb128 0x3
 14421 01dd 0E       		.uleb128 0xe
 14422 01de 3A       		.uleb128 0x3a
 14423 01df 0B       		.uleb128 0xb
 14424 01e0 3B       		.uleb128 0x3b
 14425 01e1 0B       		.uleb128 0xb
 14426 01e2 49       		.uleb128 0x49
 14427 01e3 13       		.uleb128 0x13
 14428 01e4 02       		.uleb128 0x2
 14429 01e5 18       		.uleb128 0x18
 14430 01e6 00       		.byte	0
 14431 01e7 00       		.byte	0
 14432 01e8 23       		.uleb128 0x23
 14433 01e9 2E       		.uleb128 0x2e
 14434 01ea 01       		.byte	0x1
 14435 01eb 3F       		.uleb128 0x3f
 14436 01ec 19       		.uleb128 0x19
 14437 01ed 03       		.uleb128 0x3
 14438 01ee 0E       		.uleb128 0xe
 14439 01ef 3A       		.uleb128 0x3a
 14440 01f0 0B       		.uleb128 0xb
 14441 01f1 3B       		.uleb128 0x3b
 14442 01f2 0B       		.uleb128 0xb
 14443 01f3 27       		.uleb128 0x27
 14444 01f4 19       		.uleb128 0x19
 14445 01f5 11       		.uleb128 0x11
 14446 01f6 01       		.uleb128 0x1
 14447 01f7 12       		.uleb128 0x12
 14448 01f8 06       		.uleb128 0x6
 14449 01f9 40       		.uleb128 0x40
 14450 01fa 18       		.uleb128 0x18
 14451 01fb 9642     		.uleb128 0x2116
 14452 01fd 19       		.uleb128 0x19
 14453 01fe 01       		.uleb128 0x1
 14454 01ff 13       		.uleb128 0x13
 14455 0200 00       		.byte	0
 14456 0201 00       		.byte	0
 14457 0202 24       		.uleb128 0x24
 14458 0203 2E       		.uleb128 0x2e
 14459 0204 01       		.byte	0x1
ARM GAS  C:\Users\FRANKL~1\AppData\Local\Temp\ccjWonOy.s 			page 295


 14460 0205 3F       		.uleb128 0x3f
 14461 0206 19       		.uleb128 0x19
 14462 0207 03       		.uleb128 0x3
 14463 0208 0E       		.uleb128 0xe
 14464 0209 3A       		.uleb128 0x3a
 14465 020a 0B       		.uleb128 0xb
 14466 020b 3B       		.uleb128 0x3b
 14467 020c 05       		.uleb128 0x5
 14468 020d 11       		.uleb128 0x11
 14469 020e 01       		.uleb128 0x1
 14470 020f 12       		.uleb128 0x12
 14471 0210 06       		.uleb128 0x6
 14472 0211 40       		.uleb128 0x40
 14473 0212 18       		.uleb128 0x18
 14474 0213 9742     		.uleb128 0x2117
 14475 0215 19       		.uleb128 0x19
 14476 0216 01       		.uleb128 0x1
 14477 0217 13       		.uleb128 0x13
 14478 0218 00       		.byte	0
 14479 0219 00       		.byte	0
 14480 021a 25       		.uleb128 0x25
 14481 021b 05       		.uleb128 0x5
 14482 021c 00       		.byte	0
 14483 021d 03       		.uleb128 0x3
 14484 021e 0E       		.uleb128 0xe
 14485 021f 3A       		.uleb128 0x3a
 14486 0220 0B       		.uleb128 0xb
 14487 0221 3B       		.uleb128 0x3b
 14488 0222 05       		.uleb128 0x5
 14489 0223 49       		.uleb128 0x49
 14490 0224 13       		.uleb128 0x13
 14491 0225 02       		.uleb128 0x2
 14492 0226 17       		.uleb128 0x17
 14493 0227 00       		.byte	0
 14494 0228 00       		.byte	0
 14495 0229 26       		.uleb128 0x26
 14496 022a 05       		.uleb128 0x5
 14497 022b 00       		.byte	0
 14498 022c 03       		.uleb128 0x3
 14499 022d 0E       		.uleb128 0xe
 14500 022e 3A       		.uleb128 0x3a
 14501 022f 0B       		.uleb128 0xb
 14502 0230 3B       		.uleb128 0x3b
 14503 0231 05       		.uleb128 0x5
 14504 0232 49       		.uleb128 0x49
 14505 0233 13       		.uleb128 0x13
 14506 0234 02       		.uleb128 0x2
 14507 0235 18       		.uleb128 0x18
 14508 0236 00       		.byte	0
 14509 0237 00       		.byte	0
 14510 0238 27       		.uleb128 0x27
 14511 0239 2E       		.uleb128 0x2e
 14512 023a 01       		.byte	0x1
 14513 023b 3F       		.uleb128 0x3f
 14514 023c 19       		.uleb128 0x19
 14515 023d 03       		.uleb128 0x3
 14516 023e 0E       		.uleb128 0xe
ARM GAS  C:\Users\FRANKL~1\AppData\Local\Temp\ccjWonOy.s 			page 296


 14517 023f 3A       		.uleb128 0x3a
 14518 0240 0B       		.uleb128 0xb
 14519 0241 3B       		.uleb128 0x3b
 14520 0242 05       		.uleb128 0x5
 14521 0243 27       		.uleb128 0x27
 14522 0244 19       		.uleb128 0x19
 14523 0245 49       		.uleb128 0x49
 14524 0246 13       		.uleb128 0x13
 14525 0247 11       		.uleb128 0x11
 14526 0248 01       		.uleb128 0x1
 14527 0249 12       		.uleb128 0x12
 14528 024a 06       		.uleb128 0x6
 14529 024b 40       		.uleb128 0x40
 14530 024c 18       		.uleb128 0x18
 14531 024d 9742     		.uleb128 0x2117
 14532 024f 19       		.uleb128 0x19
 14533 0250 01       		.uleb128 0x1
 14534 0251 13       		.uleb128 0x13
 14535 0252 00       		.byte	0
 14536 0253 00       		.byte	0
 14537 0254 28       		.uleb128 0x28
 14538 0255 2E       		.uleb128 0x2e
 14539 0256 01       		.byte	0x1
 14540 0257 3F       		.uleb128 0x3f
 14541 0258 19       		.uleb128 0x19
 14542 0259 03       		.uleb128 0x3
 14543 025a 0E       		.uleb128 0xe
 14544 025b 3A       		.uleb128 0x3a
 14545 025c 0B       		.uleb128 0xb
 14546 025d 3B       		.uleb128 0x3b
 14547 025e 05       		.uleb128 0x5
 14548 025f 27       		.uleb128 0x27
 14549 0260 19       		.uleb128 0x19
 14550 0261 11       		.uleb128 0x11
 14551 0262 01       		.uleb128 0x1
 14552 0263 12       		.uleb128 0x12
 14553 0264 06       		.uleb128 0x6
 14554 0265 40       		.uleb128 0x40
 14555 0266 18       		.uleb128 0x18
 14556 0267 9642     		.uleb128 0x2116
 14557 0269 19       		.uleb128 0x19
 14558 026a 01       		.uleb128 0x1
 14559 026b 13       		.uleb128 0x13
 14560 026c 00       		.byte	0
 14561 026d 00       		.byte	0
 14562 026e 29       		.uleb128 0x29
 14563 026f 0B       		.uleb128 0xb
 14564 0270 01       		.byte	0x1
 14565 0271 55       		.uleb128 0x55
 14566 0272 17       		.uleb128 0x17
 14567 0273 00       		.byte	0
 14568 0274 00       		.byte	0
 14569 0275 2A       		.uleb128 0x2a
 14570 0276 21       		.uleb128 0x21
 14571 0277 00       		.byte	0
 14572 0278 49       		.uleb128 0x49
 14573 0279 13       		.uleb128 0x13
ARM GAS  C:\Users\FRANKL~1\AppData\Local\Temp\ccjWonOy.s 			page 297


 14574 027a 2F       		.uleb128 0x2f
 14575 027b 18       		.uleb128 0x18
 14576 027c 00       		.byte	0
 14577 027d 00       		.byte	0
 14578 027e 2B       		.uleb128 0x2b
 14579 027f 2E       		.uleb128 0x2e
 14580 0280 01       		.byte	0x1
 14581 0281 3F       		.uleb128 0x3f
 14582 0282 19       		.uleb128 0x19
 14583 0283 03       		.uleb128 0x3
 14584 0284 0E       		.uleb128 0xe
 14585 0285 3A       		.uleb128 0x3a
 14586 0286 0B       		.uleb128 0xb
 14587 0287 3B       		.uleb128 0x3b
 14588 0288 05       		.uleb128 0x5
 14589 0289 49       		.uleb128 0x49
 14590 028a 13       		.uleb128 0x13
 14591 028b 11       		.uleb128 0x11
 14592 028c 01       		.uleb128 0x1
 14593 028d 12       		.uleb128 0x12
 14594 028e 06       		.uleb128 0x6
 14595 028f 40       		.uleb128 0x40
 14596 0290 18       		.uleb128 0x18
 14597 0291 9642     		.uleb128 0x2116
 14598 0293 19       		.uleb128 0x19
 14599 0294 01       		.uleb128 0x1
 14600 0295 13       		.uleb128 0x13
 14601 0296 00       		.byte	0
 14602 0297 00       		.byte	0
 14603 0298 2C       		.uleb128 0x2c
 14604 0299 05       		.uleb128 0x5
 14605 029a 00       		.byte	0
 14606 029b 03       		.uleb128 0x3
 14607 029c 08       		.uleb128 0x8
 14608 029d 3A       		.uleb128 0x3a
 14609 029e 0B       		.uleb128 0xb
 14610 029f 3B       		.uleb128 0x3b
 14611 02a0 05       		.uleb128 0x5
 14612 02a1 49       		.uleb128 0x49
 14613 02a2 13       		.uleb128 0x13
 14614 02a3 02       		.uleb128 0x2
 14615 02a4 17       		.uleb128 0x17
 14616 02a5 00       		.byte	0
 14617 02a6 00       		.byte	0
 14618 02a7 2D       		.uleb128 0x2d
 14619 02a8 34       		.uleb128 0x34
 14620 02a9 00       		.byte	0
 14621 02aa 03       		.uleb128 0x3
 14622 02ab 0E       		.uleb128 0xe
 14623 02ac 3A       		.uleb128 0x3a
 14624 02ad 0B       		.uleb128 0xb
 14625 02ae 3B       		.uleb128 0x3b
 14626 02af 05       		.uleb128 0x5
 14627 02b0 49       		.uleb128 0x49
 14628 02b1 13       		.uleb128 0x13
 14629 02b2 00       		.byte	0
 14630 02b3 00       		.byte	0
ARM GAS  C:\Users\FRANKL~1\AppData\Local\Temp\ccjWonOy.s 			page 298


 14631 02b4 2E       		.uleb128 0x2e
 14632 02b5 34       		.uleb128 0x34
 14633 02b6 00       		.byte	0
 14634 02b7 03       		.uleb128 0x3
 14635 02b8 0E       		.uleb128 0xe
 14636 02b9 3A       		.uleb128 0x3a
 14637 02ba 0B       		.uleb128 0xb
 14638 02bb 3B       		.uleb128 0x3b
 14639 02bc 05       		.uleb128 0x5
 14640 02bd 49       		.uleb128 0x49
 14641 02be 13       		.uleb128 0x13
 14642 02bf 1C       		.uleb128 0x1c
 14643 02c0 0B       		.uleb128 0xb
 14644 02c1 00       		.byte	0
 14645 02c2 00       		.byte	0
 14646 02c3 2F       		.uleb128 0x2f
 14647 02c4 2E       		.uleb128 0x2e
 14648 02c5 01       		.byte	0x1
 14649 02c6 3F       		.uleb128 0x3f
 14650 02c7 19       		.uleb128 0x19
 14651 02c8 03       		.uleb128 0x3
 14652 02c9 0E       		.uleb128 0xe
 14653 02ca 3A       		.uleb128 0x3a
 14654 02cb 0B       		.uleb128 0xb
 14655 02cc 3B       		.uleb128 0x3b
 14656 02cd 05       		.uleb128 0x5
 14657 02ce 27       		.uleb128 0x27
 14658 02cf 19       		.uleb128 0x19
 14659 02d0 49       		.uleb128 0x49
 14660 02d1 13       		.uleb128 0x13
 14661 02d2 8701     		.uleb128 0x87
 14662 02d4 19       		.uleb128 0x19
 14663 02d5 11       		.uleb128 0x11
 14664 02d6 01       		.uleb128 0x1
 14665 02d7 12       		.uleb128 0x12
 14666 02d8 06       		.uleb128 0x6
 14667 02d9 40       		.uleb128 0x40
 14668 02da 18       		.uleb128 0x18
 14669 02db 9642     		.uleb128 0x2116
 14670 02dd 19       		.uleb128 0x19
 14671 02de 01       		.uleb128 0x1
 14672 02df 13       		.uleb128 0x13
 14673 02e0 00       		.byte	0
 14674 02e1 00       		.byte	0
 14675 02e2 30       		.uleb128 0x30
 14676 02e3 34       		.uleb128 0x34
 14677 02e4 00       		.byte	0
 14678 02e5 03       		.uleb128 0x3
 14679 02e6 08       		.uleb128 0x8
 14680 02e7 3A       		.uleb128 0x3a
 14681 02e8 0B       		.uleb128 0xb
 14682 02e9 3B       		.uleb128 0x3b
 14683 02ea 05       		.uleb128 0x5
 14684 02eb 49       		.uleb128 0x49
 14685 02ec 13       		.uleb128 0x13
 14686 02ed 02       		.uleb128 0x2
 14687 02ee 18       		.uleb128 0x18
ARM GAS  C:\Users\FRANKL~1\AppData\Local\Temp\ccjWonOy.s 			page 299


 14688 02ef 00       		.byte	0
 14689 02f0 00       		.byte	0
 14690 02f1 31       		.uleb128 0x31
 14691 02f2 34       		.uleb128 0x34
 14692 02f3 00       		.byte	0
 14693 02f4 03       		.uleb128 0x3
 14694 02f5 0E       		.uleb128 0xe
 14695 02f6 3A       		.uleb128 0x3a
 14696 02f7 0B       		.uleb128 0xb
 14697 02f8 3B       		.uleb128 0x3b
 14698 02f9 05       		.uleb128 0x5
 14699 02fa 49       		.uleb128 0x49
 14700 02fb 13       		.uleb128 0x13
 14701 02fc 3F       		.uleb128 0x3f
 14702 02fd 19       		.uleb128 0x19
 14703 02fe 3C       		.uleb128 0x3c
 14704 02ff 19       		.uleb128 0x19
 14705 0300 00       		.byte	0
 14706 0301 00       		.byte	0
 14707 0302 32       		.uleb128 0x32
 14708 0303 34       		.uleb128 0x34
 14709 0304 00       		.byte	0
 14710 0305 03       		.uleb128 0x3
 14711 0306 0E       		.uleb128 0xe
 14712 0307 3A       		.uleb128 0x3a
 14713 0308 0B       		.uleb128 0xb
 14714 0309 3B       		.uleb128 0x3b
 14715 030a 0B       		.uleb128 0xb
 14716 030b 49       		.uleb128 0x49
 14717 030c 13       		.uleb128 0x13
 14718 030d 3F       		.uleb128 0x3f
 14719 030e 19       		.uleb128 0x19
 14720 030f 02       		.uleb128 0x2
 14721 0310 18       		.uleb128 0x18
 14722 0311 00       		.byte	0
 14723 0312 00       		.byte	0
 14724 0313 33       		.uleb128 0x33
 14725 0314 2E       		.uleb128 0x2e
 14726 0315 00       		.byte	0
 14727 0316 3F       		.uleb128 0x3f
 14728 0317 19       		.uleb128 0x19
 14729 0318 3C       		.uleb128 0x3c
 14730 0319 19       		.uleb128 0x19
 14731 031a 6E       		.uleb128 0x6e
 14732 031b 0E       		.uleb128 0xe
 14733 031c 03       		.uleb128 0x3
 14734 031d 0E       		.uleb128 0xe
 14735 031e 3A       		.uleb128 0x3a
 14736 031f 0B       		.uleb128 0xb
 14737 0320 3B       		.uleb128 0x3b
 14738 0321 05       		.uleb128 0x5
 14739 0322 00       		.byte	0
 14740 0323 00       		.byte	0
 14741 0324 34       		.uleb128 0x34
 14742 0325 2E       		.uleb128 0x2e
 14743 0326 00       		.byte	0
 14744 0327 3F       		.uleb128 0x3f
ARM GAS  C:\Users\FRANKL~1\AppData\Local\Temp\ccjWonOy.s 			page 300


 14745 0328 19       		.uleb128 0x19
 14746 0329 3C       		.uleb128 0x3c
 14747 032a 19       		.uleb128 0x19
 14748 032b 6E       		.uleb128 0x6e
 14749 032c 0E       		.uleb128 0xe
 14750 032d 03       		.uleb128 0x3
 14751 032e 0E       		.uleb128 0xe
 14752 032f 3A       		.uleb128 0x3a
 14753 0330 0B       		.uleb128 0xb
 14754 0331 3B       		.uleb128 0x3b
 14755 0332 0B       		.uleb128 0xb
 14756 0333 00       		.byte	0
 14757 0334 00       		.byte	0
 14758 0335 35       		.uleb128 0x35
 14759 0336 2E       		.uleb128 0x2e
 14760 0337 00       		.byte	0
 14761 0338 3F       		.uleb128 0x3f
 14762 0339 19       		.uleb128 0x19
 14763 033a 3C       		.uleb128 0x3c
 14764 033b 19       		.uleb128 0x19
 14765 033c 6E       		.uleb128 0x6e
 14766 033d 0E       		.uleb128 0xe
 14767 033e 03       		.uleb128 0x3
 14768 033f 0E       		.uleb128 0xe
 14769 0340 3A       		.uleb128 0x3a
 14770 0341 0B       		.uleb128 0xb
 14771 0342 3B       		.uleb128 0x3b
 14772 0343 0B       		.uleb128 0xb
 14773 0344 6E       		.uleb128 0x6e
 14774 0345 0E       		.uleb128 0xe
 14775 0346 00       		.byte	0
 14776 0347 00       		.byte	0
 14777 0348 00       		.byte	0
 14778              		.section	.debug_loc,"",%progbits
 14779              	.Ldebug_loc0:
 14780              	.LLST0:
 14781 0000 02000000 		.4byte	.LVL0
 14782 0004 12000000 		.4byte	.LVL3
 14783 0008 0200     		.2byte	0x2
 14784 000a 30       		.byte	0x30
 14785 000b 9F       		.byte	0x9f
 14786 000c 12000000 		.4byte	.LVL3
 14787 0010 18000000 		.4byte	.LFE64
 14788 0014 0200     		.2byte	0x2
 14789 0016 31       		.byte	0x31
 14790 0017 9F       		.byte	0x9f
 14791 0018 00000000 		.4byte	0
 14792 001c 00000000 		.4byte	0
 14793              	.LLST1:
 14794 0020 14000000 		.4byte	.LVL10
 14795 0024 7C000000 		.4byte	.LVL18
 14796 0028 0100     		.2byte	0x1
 14797 002a 50       		.byte	0x50
 14798 002b 00000000 		.4byte	0
 14799 002f 00000000 		.4byte	0
 14800              	.LLST2:
 14801 0033 14000000 		.4byte	.LVL10
ARM GAS  C:\Users\FRANKL~1\AppData\Local\Temp\ccjWonOy.s 			page 301


 14802 0037 18000000 		.4byte	.LVL11
 14803 003b 0200     		.2byte	0x2
 14804 003d 30       		.byte	0x30
 14805 003e 9F       		.byte	0x9f
 14806 003f 18000000 		.4byte	.LVL11
 14807 0043 74000000 		.4byte	.LVL16
 14808 0047 0100     		.2byte	0x1
 14809 0049 53       		.byte	0x53
 14810 004a 76000000 		.4byte	.LVL17
 14811 004e 7C000000 		.4byte	.LVL18
 14812 0052 0100     		.2byte	0x1
 14813 0054 53       		.byte	0x53
 14814 0055 00000000 		.4byte	0
 14815 0059 00000000 		.4byte	0
 14816              	.LLST3:
 14817 005d 20000000 		.4byte	.LVL12
 14818 0061 3A000000 		.4byte	.LVL13
 14819 0065 0100     		.2byte	0x1
 14820 0067 52       		.byte	0x52
 14821 0068 3A000000 		.4byte	.LVL13
 14822 006c 58000000 		.4byte	.LVL14
 14823 0070 0800     		.2byte	0x8
 14824 0072 91       		.byte	0x91
 14825 0073 00       		.sleb128 0
 14826 0074 73       		.byte	0x73
 14827 0075 00       		.sleb128 0
 14828 0076 22       		.byte	0x22
 14829 0077 08       		.byte	0x8
 14830 0078 50       		.byte	0x50
 14831 0079 1C       		.byte	0x1c
 14832 007a 58000000 		.4byte	.LVL14
 14833 007e 5C000000 		.4byte	.LVL15
 14834 0082 0100     		.2byte	0x1
 14835 0084 52       		.byte	0x52
 14836 0085 5C000000 		.4byte	.LVL15
 14837 0089 74000000 		.4byte	.LVL16
 14838 008d 0800     		.2byte	0x8
 14839 008f 91       		.byte	0x91
 14840 0090 00       		.sleb128 0
 14841 0091 73       		.byte	0x73
 14842 0092 00       		.sleb128 0
 14843 0093 22       		.byte	0x22
 14844 0094 08       		.byte	0x8
 14845 0095 50       		.byte	0x50
 14846 0096 1C       		.byte	0x1c
 14847 0097 74000000 		.4byte	.LVL16
 14848 009b 76000000 		.4byte	.LVL17
 14849 009f 0800     		.2byte	0x8
 14850 00a1 91       		.byte	0x91
 14851 00a2 00       		.sleb128 0
 14852 00a3 73       		.byte	0x73
 14853 00a4 00       		.sleb128 0
 14854 00a5 22       		.byte	0x22
 14855 00a6 08       		.byte	0x8
 14856 00a7 51       		.byte	0x51
 14857 00a8 1C       		.byte	0x1c
 14858 00a9 00000000 		.4byte	0
ARM GAS  C:\Users\FRANKL~1\AppData\Local\Temp\ccjWonOy.s 			page 302


 14859 00ad 00000000 		.4byte	0
 14860              	.LLST4:
 14861 00b1 FC000000 		.4byte	.LVL21
 14862 00b5 0C010000 		.4byte	.LVL22
 14863 00b9 0600     		.2byte	0x6
 14864 00bb 03       		.byte	0x3
 14865 00bc 00000000 		.4byte	USBUART_Receive_Buffer
 14866 00c0 9F       		.byte	0x9f
 14867 00c1 0C010000 		.4byte	.LVL22
 14868 00c5 7C010000 		.4byte	.LVL28
 14869 00c9 0100     		.2byte	0x1
 14870 00cb 54       		.byte	0x54
 14871 00cc 00000000 		.4byte	0
 14872 00d0 00000000 		.4byte	0
 14873              	.LLST5:
 14874 00d4 00000000 		.4byte	.LVL31
 14875 00d8 06000000 		.4byte	.LVL32
 14876 00dc 0100     		.2byte	0x1
 14877 00de 50       		.byte	0x50
 14878 00df 06000000 		.4byte	.LVL32
 14879 00e3 08000000 		.4byte	.LVL33
 14880 00e7 0400     		.2byte	0x4
 14881 00e9 F3       		.byte	0xf3
 14882 00ea 01       		.uleb128 0x1
 14883 00eb 50       		.byte	0x50
 14884 00ec 9F       		.byte	0x9f
 14885 00ed 08000000 		.4byte	.LVL33
 14886 00f1 16000000 		.4byte	.LVL37
 14887 00f5 0100     		.2byte	0x1
 14888 00f7 56       		.byte	0x56
 14889 00f8 16000000 		.4byte	.LVL37
 14890 00fc 1E000000 		.4byte	.LVL38
 14891 0100 0100     		.2byte	0x1
 14892 0102 50       		.byte	0x50
 14893 0103 1E000000 		.4byte	.LVL38
 14894 0107 50000000 		.4byte	.LFE66
 14895 010b 0100     		.2byte	0x1
 14896 010d 56       		.byte	0x56
 14897 010e 00000000 		.4byte	0
 14898 0112 00000000 		.4byte	0
 14899              	.LLST6:
 14900 0116 00000000 		.4byte	.LVL31
 14901 011a 08000000 		.4byte	.LVL33
 14902 011e 0100     		.2byte	0x1
 14903 0120 51       		.byte	0x51
 14904 0121 08000000 		.4byte	.LVL33
 14905 0125 16000000 		.4byte	.LVL37
 14906 0129 0400     		.2byte	0x4
 14907 012b F3       		.byte	0xf3
 14908 012c 01       		.uleb128 0x1
 14909 012d 51       		.byte	0x51
 14910 012e 9F       		.byte	0x9f
 14911 012f 16000000 		.4byte	.LVL37
 14912 0133 1E000000 		.4byte	.LVL38
 14913 0137 0100     		.2byte	0x1
 14914 0139 51       		.byte	0x51
 14915 013a 1E000000 		.4byte	.LVL38
ARM GAS  C:\Users\FRANKL~1\AppData\Local\Temp\ccjWonOy.s 			page 303


 14916 013e 50000000 		.4byte	.LFE66
 14917 0142 0400     		.2byte	0x4
 14918 0144 F3       		.byte	0xf3
 14919 0145 01       		.uleb128 0x1
 14920 0146 51       		.byte	0x51
 14921 0147 9F       		.byte	0x9f
 14922 0148 00000000 		.4byte	0
 14923 014c 00000000 		.4byte	0
 14924              	.LLST7:
 14925 0150 08000000 		.4byte	.LVL33
 14926 0154 16000000 		.4byte	.LVL37
 14927 0158 0100     		.2byte	0x1
 14928 015a 54       		.byte	0x54
 14929 015b 1E000000 		.4byte	.LVL38
 14930 015f 50000000 		.4byte	.LFE66
 14931 0163 0100     		.2byte	0x1
 14932 0165 54       		.byte	0x54
 14933 0166 00000000 		.4byte	0
 14934 016a 00000000 		.4byte	0
 14935              	.LLST8:
 14936 016e 00000000 		.4byte	.LVL43
 14937 0172 08000000 		.4byte	.LVL44
 14938 0176 0100     		.2byte	0x1
 14939 0178 50       		.byte	0x50
 14940 0179 08000000 		.4byte	.LVL44
 14941 017d 24000000 		.4byte	.LFE67
 14942 0181 0100     		.2byte	0x1
 14943 0183 54       		.byte	0x54
 14944 0184 00000000 		.4byte	0
 14945 0188 00000000 		.4byte	0
 14946              	.LLST9:
 14947 018c 00000000 		.4byte	.LVL43
 14948 0190 08000000 		.4byte	.LVL44
 14949 0194 0100     		.2byte	0x1
 14950 0196 51       		.byte	0x51
 14951 0197 08000000 		.4byte	.LVL44
 14952 019b 24000000 		.4byte	.LFE67
 14953 019f 0100     		.2byte	0x1
 14954 01a1 55       		.byte	0x55
 14955 01a2 00000000 		.4byte	0
 14956 01a6 00000000 		.4byte	0
 14957              	.LLST10:
 14958 01aa 00000000 		.4byte	.LVL51
 14959 01ae 1E000000 		.4byte	.LVL56
 14960 01b2 0100     		.2byte	0x1
 14961 01b4 50       		.byte	0x50
 14962 01b5 1E000000 		.4byte	.LVL56
 14963 01b9 58000000 		.4byte	.LFE69
 14964 01bd 0100     		.2byte	0x1
 14965 01bf 55       		.byte	0x55
 14966 01c0 00000000 		.4byte	0
 14967 01c4 00000000 		.4byte	0
 14968              	.LLST11:
 14969 01c8 00000000 		.4byte	.LVL51
 14970 01cc 1E000000 		.4byte	.LVL56
 14971 01d0 0100     		.2byte	0x1
 14972 01d2 51       		.byte	0x51
ARM GAS  C:\Users\FRANKL~1\AppData\Local\Temp\ccjWonOy.s 			page 304


 14973 01d3 1E000000 		.4byte	.LVL56
 14974 01d7 58000000 		.4byte	.LFE69
 14975 01db 0400     		.2byte	0x4
 14976 01dd F3       		.byte	0xf3
 14977 01de 01       		.uleb128 0x1
 14978 01df 51       		.byte	0x51
 14979 01e0 9F       		.byte	0x9f
 14980 01e1 00000000 		.4byte	0
 14981 01e5 00000000 		.4byte	0
 14982              	.LLST12:
 14983 01e9 00000000 		.4byte	.LVL51
 14984 01ed 0E000000 		.4byte	.LVL53
 14985 01f1 0100     		.2byte	0x1
 14986 01f3 52       		.byte	0x52
 14987 01f4 0E000000 		.4byte	.LVL53
 14988 01f8 58000000 		.4byte	.LFE69
 14989 01fc 0100     		.2byte	0x1
 14990 01fe 57       		.byte	0x57
 14991 01ff 00000000 		.4byte	0
 14992 0203 00000000 		.4byte	0
 14993              	.LLST13:
 14994 0207 0A000000 		.4byte	.LVL52
 14995 020b 0E000000 		.4byte	.LVL53
 14996 020f 0200     		.2byte	0x2
 14997 0211 30       		.byte	0x30
 14998 0212 9F       		.byte	0x9f
 14999 0213 0E000000 		.4byte	.LVL53
 15000 0217 14000000 		.4byte	.LVL54
 15001 021b 0100     		.2byte	0x1
 15002 021d 53       		.byte	0x53
 15003 021e 16000000 		.4byte	.LVL55
 15004 0222 1E000000 		.4byte	.LVL56
 15005 0226 0100     		.2byte	0x1
 15006 0228 53       		.byte	0x53
 15007 0229 00000000 		.4byte	0
 15008 022d 00000000 		.4byte	0
 15009              	.LLST14:
 15010 0231 1E000000 		.4byte	.LVL56
 15011 0235 4A000000 		.4byte	.LVL61
 15012 0239 0100     		.2byte	0x1
 15013 023b 54       		.byte	0x54
 15014 023c 4C000000 		.4byte	.LVL62
 15015 0240 58000000 		.4byte	.LFE69
 15016 0244 0100     		.2byte	0x1
 15017 0246 54       		.byte	0x54
 15018 0247 00000000 		.4byte	0
 15019 024b 00000000 		.4byte	0
 15020              	.LLST15:
 15021 024f 0A000000 		.4byte	.LVL67
 15022 0253 0E000000 		.4byte	.LVL68
 15023 0257 0200     		.2byte	0x2
 15024 0259 30       		.byte	0x30
 15025 025a 9F       		.byte	0x9f
 15026 025b 0E000000 		.4byte	.LVL68
 15027 025f 16000000 		.4byte	.LVL69
 15028 0263 0100     		.2byte	0x1
 15029 0265 53       		.byte	0x53
ARM GAS  C:\Users\FRANKL~1\AppData\Local\Temp\ccjWonOy.s 			page 305


 15030 0266 18000000 		.4byte	.LVL70
 15031 026a 1E000000 		.4byte	.LVL71
 15032 026e 0100     		.2byte	0x1
 15033 0270 53       		.byte	0x53
 15034 0271 00000000 		.4byte	0
 15035 0275 00000000 		.4byte	0
 15036              	.LLST16:
 15037 0279 20000000 		.4byte	.LVL72
 15038 027d 2A000000 		.4byte	.LVL73
 15039 0281 0100     		.2byte	0x1
 15040 0283 53       		.byte	0x53
 15041 0284 2C000000 		.4byte	.LVL74
 15042 0288 32000000 		.4byte	.LFE71
 15043 028c 0100     		.2byte	0x1
 15044 028e 53       		.byte	0x53
 15045 028f 00000000 		.4byte	0
 15046 0293 00000000 		.4byte	0
 15047              	.LLST17:
 15048 0297 00000000 		.4byte	.LVL75
 15049 029b 10000000 		.4byte	.LVL76
 15050 029f 0100     		.2byte	0x1
 15051 02a1 50       		.byte	0x50
 15052 02a2 10000000 		.4byte	.LVL76
 15053 02a6 28010000 		.4byte	.LFE72
 15054 02aa 0400     		.2byte	0x4
 15055 02ac F3       		.byte	0xf3
 15056 02ad 01       		.uleb128 0x1
 15057 02ae 50       		.byte	0x50
 15058 02af 9F       		.byte	0x9f
 15059 02b0 00000000 		.4byte	0
 15060 02b4 00000000 		.4byte	0
 15061              	.LLST18:
 15062 02b8 18000000 		.4byte	.LVL78
 15063 02bc 20000000 		.4byte	.LVL80
 15064 02c0 0C00     		.2byte	0xc
 15065 02c2 74       		.byte	0x74
 15066 02c3 00       		.sleb128 0
 15067 02c4 08       		.byte	0x8
 15068 02c5 FF       		.byte	0xff
 15069 02c6 1E       		.byte	0x1e
 15070 02c7 03       		.byte	0x3
 15071 02c8 00000000 		.4byte	selectors
 15072 02cc 22       		.byte	0x22
 15073 02cd 9F       		.byte	0x9f
 15074 02ce 20000000 		.4byte	.LVL80
 15075 02d2 F6000000 		.4byte	.LVL99
 15076 02d6 0C00     		.2byte	0xc
 15077 02d8 78       		.byte	0x78
 15078 02d9 7F       		.sleb128 -1
 15079 02da 08       		.byte	0x8
 15080 02db FF       		.byte	0xff
 15081 02dc 1E       		.byte	0x1e
 15082 02dd 03       		.byte	0x3
 15083 02de 00000000 		.4byte	selectors
 15084 02e2 22       		.byte	0x22
 15085 02e3 9F       		.byte	0x9f
 15086 02e4 00000000 		.4byte	0
ARM GAS  C:\Users\FRANKL~1\AppData\Local\Temp\ccjWonOy.s 			page 306


 15087 02e8 00000000 		.4byte	0
 15088              	.LLST19:
 15089 02ec 32000000 		.4byte	.LVL81
 15090 02f0 36000000 		.4byte	.LVL82
 15091 02f4 0200     		.2byte	0x2
 15092 02f6 30       		.byte	0x30
 15093 02f7 9F       		.byte	0x9f
 15094 02f8 36000000 		.4byte	.LVL82
 15095 02fc A4000000 		.4byte	.LVL92
 15096 0300 0100     		.2byte	0x1
 15097 0302 54       		.byte	0x54
 15098 0303 00000000 		.4byte	0
 15099 0307 00000000 		.4byte	0
 15100              	.LLST20:
 15101 030b 02000000 		.4byte	.LVL100
 15102 030f 06000000 		.4byte	.LVL101
 15103 0313 0200     		.2byte	0x2
 15104 0315 30       		.byte	0x30
 15105 0316 9F       		.byte	0x9f
 15106 0317 06000000 		.4byte	.LVL101
 15107 031b 14000000 		.4byte	.LVL103
 15108 031f 0100     		.2byte	0x1
 15109 0321 54       		.byte	0x54
 15110 0322 16000000 		.4byte	.LVL104
 15111 0326 36000000 		.4byte	.LVL105
 15112 032a 0100     		.2byte	0x1
 15113 032c 54       		.byte	0x54
 15114 032d 00000000 		.4byte	0
 15115 0331 00000000 		.4byte	0
 15116              	.LLST21:
 15117 0335 00000000 		.4byte	.LVL106
 15118 0339 04000000 		.4byte	.LVL107
 15119 033d 0100     		.2byte	0x1
 15120 033f 50       		.byte	0x50
 15121 0340 04000000 		.4byte	.LVL107
 15122 0344 06000000 		.4byte	.LVL108
 15123 0348 0400     		.2byte	0x4
 15124 034a F3       		.byte	0xf3
 15125 034b 01       		.uleb128 0x1
 15126 034c 50       		.byte	0x50
 15127 034d 9F       		.byte	0x9f
 15128 034e 06000000 		.4byte	.LVL108
 15129 0352 1C000000 		.4byte	.LVL110
 15130 0356 0100     		.2byte	0x1
 15131 0358 53       		.byte	0x53
 15132 0359 00000000 		.4byte	0
 15133 035d 00000000 		.4byte	0
 15134              	.LLST22:
 15135 0361 00000000 		.4byte	.LVL106
 15136 0365 06000000 		.4byte	.LVL108
 15137 0369 0100     		.2byte	0x1
 15138 036b 51       		.byte	0x51
 15139 036c 06000000 		.4byte	.LVL108
 15140 0370 0C000000 		.4byte	.LVL109
 15141 0374 0300     		.2byte	0x3
 15142 0376 71       		.byte	0x71
 15143 0377 7F       		.sleb128 -1
ARM GAS  C:\Users\FRANKL~1\AppData\Local\Temp\ccjWonOy.s 			page 307


 15144 0378 9F       		.byte	0x9f
 15145 0379 0C000000 		.4byte	.LVL109
 15146 037d 2C000000 		.4byte	.LFE74
 15147 0381 0600     		.2byte	0x6
 15148 0383 F3       		.byte	0xf3
 15149 0384 01       		.uleb128 0x1
 15150 0385 51       		.byte	0x51
 15151 0386 31       		.byte	0x31
 15152 0387 1C       		.byte	0x1c
 15153 0388 9F       		.byte	0x9f
 15154 0389 00000000 		.4byte	0
 15155 038d 00000000 		.4byte	0
 15156              	.LLST23:
 15157 0391 00000000 		.4byte	.LVL112
 15158 0395 04000000 		.4byte	.LVL113
 15159 0399 0100     		.2byte	0x1
 15160 039b 50       		.byte	0x50
 15161 039c 04000000 		.4byte	.LVL113
 15162 03a0 06000000 		.4byte	.LVL114
 15163 03a4 0400     		.2byte	0x4
 15164 03a6 F3       		.byte	0xf3
 15165 03a7 01       		.uleb128 0x1
 15166 03a8 50       		.byte	0x50
 15167 03a9 9F       		.byte	0x9f
 15168 03aa 06000000 		.4byte	.LVL114
 15169 03ae 1C000000 		.4byte	.LVL116
 15170 03b2 0100     		.2byte	0x1
 15171 03b4 53       		.byte	0x53
 15172 03b5 00000000 		.4byte	0
 15173 03b9 00000000 		.4byte	0
 15174              	.LLST24:
 15175 03bd 00000000 		.4byte	.LVL112
 15176 03c1 06000000 		.4byte	.LVL114
 15177 03c5 0100     		.2byte	0x1
 15178 03c7 51       		.byte	0x51
 15179 03c8 06000000 		.4byte	.LVL114
 15180 03cc 0C000000 		.4byte	.LVL115
 15181 03d0 0300     		.2byte	0x3
 15182 03d2 71       		.byte	0x71
 15183 03d3 7F       		.sleb128 -1
 15184 03d4 9F       		.byte	0x9f
 15185 03d5 0C000000 		.4byte	.LVL115
 15186 03d9 2C000000 		.4byte	.LFE75
 15187 03dd 0600     		.2byte	0x6
 15188 03df F3       		.byte	0xf3
 15189 03e0 01       		.uleb128 0x1
 15190 03e1 51       		.byte	0x51
 15191 03e2 31       		.byte	0x31
 15192 03e3 1C       		.byte	0x1c
 15193 03e4 9F       		.byte	0x9f
 15194 03e5 00000000 		.4byte	0
 15195 03e9 00000000 		.4byte	0
 15196              	.LLST25:
 15197 03ed 00000000 		.4byte	.LVL118
 15198 03f1 02000000 		.4byte	.LVL119
 15199 03f5 0100     		.2byte	0x1
 15200 03f7 50       		.byte	0x50
ARM GAS  C:\Users\FRANKL~1\AppData\Local\Temp\ccjWonOy.s 			page 308


 15201 03f8 02000000 		.4byte	.LVL119
 15202 03fc 04000000 		.4byte	.LVL120
 15203 0400 0400     		.2byte	0x4
 15204 0402 F3       		.byte	0xf3
 15205 0403 01       		.uleb128 0x1
 15206 0404 50       		.byte	0x50
 15207 0405 9F       		.byte	0x9f
 15208 0406 04000000 		.4byte	.LVL120
 15209 040a 26000000 		.4byte	.LVL125
 15210 040e 0100     		.2byte	0x1
 15211 0410 50       		.byte	0x50
 15212 0411 30000000 		.4byte	.LVL127
 15213 0415 32000000 		.4byte	.LFE76
 15214 0419 0100     		.2byte	0x1
 15215 041b 50       		.byte	0x50
 15216 041c 00000000 		.4byte	0
 15217 0420 00000000 		.4byte	0
 15218              	.LLST26:
 15219 0424 00000000 		.4byte	.LVL118
 15220 0428 04000000 		.4byte	.LVL120
 15221 042c 0100     		.2byte	0x1
 15222 042e 51       		.byte	0x51
 15223 042f 04000000 		.4byte	.LVL120
 15224 0433 2D000000 		.4byte	.LVL126-1
 15225 0437 0300     		.2byte	0x3
 15226 0439 71       		.byte	0x71
 15227 043a 7F       		.sleb128 -1
 15228 043b 9F       		.byte	0x9f
 15229 043c 2D000000 		.4byte	.LVL126-1
 15230 0440 30000000 		.4byte	.LVL127
 15231 0444 0600     		.2byte	0x6
 15232 0446 F3       		.byte	0xf3
 15233 0447 01       		.uleb128 0x1
 15234 0448 51       		.byte	0x51
 15235 0449 31       		.byte	0x31
 15236 044a 1C       		.byte	0x1c
 15237 044b 9F       		.byte	0x9f
 15238 044c 30000000 		.4byte	.LVL127
 15239 0450 32000000 		.4byte	.LFE76
 15240 0454 0300     		.2byte	0x3
 15241 0456 71       		.byte	0x71
 15242 0457 7F       		.sleb128 -1
 15243 0458 9F       		.byte	0x9f
 15244 0459 00000000 		.4byte	0
 15245 045d 00000000 		.4byte	0
 15246              	.LLST27:
 15247 0461 12000000 		.4byte	.LVL121
 15248 0465 16000000 		.4byte	.LVL122
 15249 0469 0200     		.2byte	0x2
 15250 046b 30       		.byte	0x30
 15251 046c 9F       		.byte	0x9f
 15252 046d 16000000 		.4byte	.LVL122
 15253 0471 1E000000 		.4byte	.LVL123
 15254 0475 0300     		.2byte	0x3
 15255 0477 08       		.byte	0x8
 15256 0478 20       		.byte	0x20
 15257 0479 9F       		.byte	0x9f
ARM GAS  C:\Users\FRANKL~1\AppData\Local\Temp\ccjWonOy.s 			page 309


 15258 047a 1E000000 		.4byte	.LVL123
 15259 047e 24000000 		.4byte	.LVL124
 15260 0482 0200     		.2byte	0x2
 15261 0484 30       		.byte	0x30
 15262 0485 9F       		.byte	0x9f
 15263 0486 24000000 		.4byte	.LVL124
 15264 048a 2D000000 		.4byte	.LVL126-1
 15265 048e 0100     		.2byte	0x1
 15266 0490 53       		.byte	0x53
 15267 0491 00000000 		.4byte	0
 15268 0495 00000000 		.4byte	0
 15269              	.LLST28:
 15270 0499 00000000 		.4byte	.LVL128
 15271 049d 04000000 		.4byte	.LVL129
 15272 04a1 0100     		.2byte	0x1
 15273 04a3 50       		.byte	0x50
 15274 04a4 04000000 		.4byte	.LVL129
 15275 04a8 06000000 		.4byte	.LVL130
 15276 04ac 0400     		.2byte	0x4
 15277 04ae F3       		.byte	0xf3
 15278 04af 01       		.uleb128 0x1
 15279 04b0 50       		.byte	0x50
 15280 04b1 9F       		.byte	0x9f
 15281 04b2 06000000 		.4byte	.LVL130
 15282 04b6 26000000 		.4byte	.LVL136
 15283 04ba 0100     		.2byte	0x1
 15284 04bc 53       		.byte	0x53
 15285 04bd 00000000 		.4byte	0
 15286 04c1 00000000 		.4byte	0
 15287              	.LLST29:
 15288 04c5 00000000 		.4byte	.LVL128
 15289 04c9 06000000 		.4byte	.LVL130
 15290 04cd 0100     		.2byte	0x1
 15291 04cf 51       		.byte	0x51
 15292 04d0 06000000 		.4byte	.LVL130
 15293 04d4 0C000000 		.4byte	.LVL131
 15294 04d8 0300     		.2byte	0x3
 15295 04da 71       		.byte	0x71
 15296 04db 7F       		.sleb128 -1
 15297 04dc 9F       		.byte	0x9f
 15298 04dd 0C000000 		.4byte	.LVL131
 15299 04e1 40000000 		.4byte	.LFE77
 15300 04e5 0600     		.2byte	0x6
 15301 04e7 F3       		.byte	0xf3
 15302 04e8 01       		.uleb128 0x1
 15303 04e9 51       		.byte	0x51
 15304 04ea 31       		.byte	0x31
 15305 04eb 1C       		.byte	0x1c
 15306 04ec 9F       		.byte	0x9f
 15307 04ed 00000000 		.4byte	0
 15308 04f1 00000000 		.4byte	0
 15309              	.LLST30:
 15310 04f5 12000000 		.4byte	.LVL132
 15311 04f9 16000000 		.4byte	.LVL133
 15312 04fd 0200     		.2byte	0x2
 15313 04ff 30       		.byte	0x30
 15314 0500 9F       		.byte	0x9f
ARM GAS  C:\Users\FRANKL~1\AppData\Local\Temp\ccjWonOy.s 			page 310


 15315 0501 16000000 		.4byte	.LVL133
 15316 0505 1E000000 		.4byte	.LVL134
 15317 0509 0300     		.2byte	0x3
 15318 050b 08       		.byte	0x8
 15319 050c 20       		.byte	0x20
 15320 050d 9F       		.byte	0x9f
 15321 050e 1E000000 		.4byte	.LVL134
 15322 0512 24000000 		.4byte	.LVL135
 15323 0516 0200     		.2byte	0x2
 15324 0518 30       		.byte	0x30
 15325 0519 9F       		.byte	0x9f
 15326 051a 24000000 		.4byte	.LVL135
 15327 051e 2A000000 		.4byte	.LVL137
 15328 0522 0100     		.2byte	0x1
 15329 0524 52       		.byte	0x52
 15330 0525 00000000 		.4byte	0
 15331 0529 00000000 		.4byte	0
 15332              	.LLST31:
 15333 052d 00000000 		.4byte	.LVL139
 15334 0531 04000000 		.4byte	.LVL140
 15335 0535 0100     		.2byte	0x1
 15336 0537 50       		.byte	0x50
 15337 0538 04000000 		.4byte	.LVL140
 15338 053c 06000000 		.4byte	.LVL141
 15339 0540 0400     		.2byte	0x4
 15340 0542 F3       		.byte	0xf3
 15341 0543 01       		.uleb128 0x1
 15342 0544 50       		.byte	0x50
 15343 0545 9F       		.byte	0x9f
 15344 0546 06000000 		.4byte	.LVL141
 15345 054a 3C000000 		.4byte	.LVL150
 15346 054e 0100     		.2byte	0x1
 15347 0550 55       		.byte	0x55
 15348 0551 00000000 		.4byte	0
 15349 0555 00000000 		.4byte	0
 15350              	.LLST32:
 15351 0559 06000000 		.4byte	.LVL141
 15352 055d 0A000000 		.4byte	.LVL142
 15353 0561 0200     		.2byte	0x2
 15354 0563 30       		.byte	0x30
 15355 0564 9F       		.byte	0x9f
 15356 0565 0A000000 		.4byte	.LVL142
 15357 0569 34000000 		.4byte	.LVL148
 15358 056d 0100     		.2byte	0x1
 15359 056f 54       		.byte	0x54
 15360 0570 36000000 		.4byte	.LVL149
 15361 0574 3C000000 		.4byte	.LVL150
 15362 0578 0100     		.2byte	0x1
 15363 057a 54       		.byte	0x54
 15364 057b 00000000 		.4byte	0
 15365 057f 00000000 		.4byte	0
 15366              	.LLST33:
 15367 0583 0A000000 		.4byte	.LVL142
 15368 0587 0E000000 		.4byte	.LVL143
 15369 058b 0200     		.2byte	0x2
 15370 058d 30       		.byte	0x30
 15371 058e 9F       		.byte	0x9f
ARM GAS  C:\Users\FRANKL~1\AppData\Local\Temp\ccjWonOy.s 			page 311


 15372 058f 0E000000 		.4byte	.LVL143
 15373 0593 16000000 		.4byte	.LVL144
 15374 0597 0300     		.2byte	0x3
 15375 0599 08       		.byte	0x8
 15376 059a 20       		.byte	0x20
 15377 059b 9F       		.byte	0x9f
 15378 059c 16000000 		.4byte	.LVL144
 15379 05a0 1C000000 		.4byte	.LVL145
 15380 05a4 0200     		.2byte	0x2
 15381 05a6 30       		.byte	0x30
 15382 05a7 9F       		.byte	0x9f
 15383 05a8 1C000000 		.4byte	.LVL145
 15384 05ac 22000000 		.4byte	.LVL146
 15385 05b0 0100     		.2byte	0x1
 15386 05b2 53       		.byte	0x53
 15387 05b3 00000000 		.4byte	0
 15388 05b7 00000000 		.4byte	0
 15389              	.LLST34:
 15390 05bb 02000000 		.4byte	.LVL151
 15391 05bf 06000000 		.4byte	.LVL152
 15392 05c3 0200     		.2byte	0x2
 15393 05c5 30       		.byte	0x30
 15394 05c6 9F       		.byte	0x9f
 15395 05c7 06000000 		.4byte	.LVL152
 15396 05cb 28000000 		.4byte	.LVL158
 15397 05cf 0100     		.2byte	0x1
 15398 05d1 54       		.byte	0x54
 15399 05d2 2A000000 		.4byte	.LVL159
 15400 05d6 30000000 		.4byte	.LVL160
 15401 05da 0100     		.2byte	0x1
 15402 05dc 54       		.byte	0x54
 15403 05dd 00000000 		.4byte	0
 15404 05e1 00000000 		.4byte	0
 15405              	.LLST35:
 15406 05e5 06000000 		.4byte	.LVL152
 15407 05e9 16000000 		.4byte	.LVL153
 15408 05ed 0100     		.2byte	0x1
 15409 05ef 53       		.byte	0x53
 15410 05f0 18000000 		.4byte	.LVL154
 15411 05f4 1A000000 		.4byte	.LVL155
 15412 05f8 0100     		.2byte	0x1
 15413 05fa 53       		.byte	0x53
 15414 05fb 1C000000 		.4byte	.LVL156
 15415 05ff 25000000 		.4byte	.LVL157-1
 15416 0603 0100     		.2byte	0x1
 15417 0605 53       		.byte	0x53
 15418 0606 00000000 		.4byte	0
 15419 060a 00000000 		.4byte	0
 15420              	.LLST36:
 15421 060e 00000000 		.4byte	.LVL161
 15422 0612 04000000 		.4byte	.LVL162
 15423 0616 0100     		.2byte	0x1
 15424 0618 50       		.byte	0x50
 15425 0619 04000000 		.4byte	.LVL162
 15426 061d 06000000 		.4byte	.LVL163
 15427 0621 0400     		.2byte	0x4
 15428 0623 F3       		.byte	0xf3
ARM GAS  C:\Users\FRANKL~1\AppData\Local\Temp\ccjWonOy.s 			page 312


 15429 0624 01       		.uleb128 0x1
 15430 0625 50       		.byte	0x50
 15431 0626 9F       		.byte	0x9f
 15432 0627 06000000 		.4byte	.LVL163
 15433 062b 23000000 		.4byte	.LVL167-1
 15434 062f 0100     		.2byte	0x1
 15435 0631 50       		.byte	0x50
 15436 0632 00000000 		.4byte	0
 15437 0636 00000000 		.4byte	0
 15438              	.LLST37:
 15439 063a 06000000 		.4byte	.LVL163
 15440 063e 0A000000 		.4byte	.LVL164
 15441 0642 0200     		.2byte	0x2
 15442 0644 30       		.byte	0x30
 15443 0645 9F       		.byte	0x9f
 15444 0646 0A000000 		.4byte	.LVL164
 15445 064a 1A000000 		.4byte	.LVL165
 15446 064e 0100     		.2byte	0x1
 15447 0650 53       		.byte	0x53
 15448 0651 1C000000 		.4byte	.LVL166
 15449 0655 23000000 		.4byte	.LVL167-1
 15450 0659 0100     		.2byte	0x1
 15451 065b 53       		.byte	0x53
 15452 065c 00000000 		.4byte	0
 15453 0660 00000000 		.4byte	0
 15454              	.LLST38:
 15455 0664 00000000 		.4byte	.LVL168
 15456 0668 04000000 		.4byte	.LVL169
 15457 066c 0100     		.2byte	0x1
 15458 066e 50       		.byte	0x50
 15459 066f 04000000 		.4byte	.LVL169
 15460 0673 38000000 		.4byte	.LFE81
 15461 0677 0400     		.2byte	0x4
 15462 0679 F3       		.byte	0xf3
 15463 067a 01       		.uleb128 0x1
 15464 067b 50       		.byte	0x50
 15465 067c 9F       		.byte	0x9f
 15466 067d 00000000 		.4byte	0
 15467 0681 00000000 		.4byte	0
 15468              	.LLST39:
 15469 0685 00000000 		.4byte	.LVL174
 15470 0689 04000000 		.4byte	.LVL175
 15471 068d 0100     		.2byte	0x1
 15472 068f 50       		.byte	0x50
 15473 0690 04000000 		.4byte	.LVL175
 15474 0694 38000000 		.4byte	.LFE82
 15475 0698 0400     		.2byte	0x4
 15476 069a F3       		.byte	0xf3
 15477 069b 01       		.uleb128 0x1
 15478 069c 50       		.byte	0x50
 15479 069d 9F       		.byte	0x9f
 15480 069e 00000000 		.4byte	0
 15481 06a2 00000000 		.4byte	0
 15482              	.LLST40:
 15483 06a6 02000000 		.4byte	.LVL180
 15484 06aa 06000000 		.4byte	.LVL181
 15485 06ae 0200     		.2byte	0x2
ARM GAS  C:\Users\FRANKL~1\AppData\Local\Temp\ccjWonOy.s 			page 313


 15486 06b0 31       		.byte	0x31
 15487 06b1 9F       		.byte	0x9f
 15488 06b2 06000000 		.4byte	.LVL181
 15489 06b6 0E000000 		.4byte	.LVL183
 15490 06ba 0100     		.2byte	0x1
 15491 06bc 54       		.byte	0x54
 15492 06bd 10000000 		.4byte	.LVL184
 15493 06c1 16000000 		.4byte	.LFE83
 15494 06c5 0100     		.2byte	0x1
 15495 06c7 54       		.byte	0x54
 15496 06c8 00000000 		.4byte	0
 15497 06cc 00000000 		.4byte	0
 15498              	.LLST41:
 15499 06d0 02000000 		.4byte	.LVL185
 15500 06d4 06000000 		.4byte	.LVL186
 15501 06d8 0200     		.2byte	0x2
 15502 06da 31       		.byte	0x31
 15503 06db 9F       		.byte	0x9f
 15504 06dc 06000000 		.4byte	.LVL186
 15505 06e0 0E000000 		.4byte	.LVL188
 15506 06e4 0100     		.2byte	0x1
 15507 06e6 54       		.byte	0x54
 15508 06e7 10000000 		.4byte	.LVL189
 15509 06eb 16000000 		.4byte	.LFE84
 15510 06ef 0100     		.2byte	0x1
 15511 06f1 54       		.byte	0x54
 15512 06f2 00000000 		.4byte	0
 15513 06f6 00000000 		.4byte	0
 15514              	.LLST42:
 15515 06fa 00000000 		.4byte	.LVL190
 15516 06fe 0A000000 		.4byte	.LVL191
 15517 0702 0100     		.2byte	0x1
 15518 0704 50       		.byte	0x50
 15519 0705 0A000000 		.4byte	.LVL191
 15520 0709 0F000000 		.4byte	.LVL192-1
 15521 070d 0500     		.2byte	0x5
 15522 070f 03       		.byte	0x3
 15523 0710 00000000 		.4byte	TIA_Selected_Resistor
 15524 0714 0F000000 		.4byte	.LVL192-1
 15525 0718 1C000000 		.4byte	.LFE85
 15526 071c 0400     		.2byte	0x4
 15527 071e F3       		.byte	0xf3
 15528 071f 01       		.uleb128 0x1
 15529 0720 50       		.byte	0x50
 15530 0721 9F       		.byte	0x9f
 15531 0722 00000000 		.4byte	0
 15532 0726 00000000 		.4byte	0
 15533              	.LLST43:
 15534 072a 18000000 		.4byte	.LVL200
 15535 072e 20000000 		.4byte	.LVL201
 15536 0732 0100     		.2byte	0x1
 15537 0734 52       		.byte	0x52
 15538 0735 00000000 		.4byte	0
 15539 0739 00000000 		.4byte	0
 15540              	.LLST44:
 15541 073d 02000000 		.4byte	.LVL196
 15542 0741 06000000 		.4byte	.LVL197
ARM GAS  C:\Users\FRANKL~1\AppData\Local\Temp\ccjWonOy.s 			page 314


 15543 0745 0200     		.2byte	0x2
 15544 0747 30       		.byte	0x30
 15545 0748 9F       		.byte	0x9f
 15546 0749 06000000 		.4byte	.LVL197
 15547 074d 30000000 		.4byte	.LVL204
 15548 0751 0100     		.2byte	0x1
 15549 0753 55       		.byte	0x55
 15550 0754 00000000 		.4byte	0
 15551 0758 00000000 		.4byte	0
 15552              	.LLST45:
 15553 075c 08000000 		.4byte	.LVL198
 15554 0760 0C000000 		.4byte	.LVL199
 15555 0764 0100     		.2byte	0x1
 15556 0766 56       		.byte	0x56
 15557 0767 0C000000 		.4byte	.LVL199
 15558 076b 28000000 		.4byte	.LVL203
 15559 076f 0100     		.2byte	0x1
 15560 0771 53       		.byte	0x53
 15561 0772 00000000 		.4byte	0
 15562 0776 00000000 		.4byte	0
 15563              	.LLST46:
 15564 077a 00000000 		.4byte	.LVL205
 15565 077e 09000000 		.4byte	.LVL206-1
 15566 0782 0100     		.2byte	0x1
 15567 0784 50       		.byte	0x50
 15568 0785 09000000 		.4byte	.LVL206-1
 15569 0789 32000000 		.4byte	.LFE89
 15570 078d 0100     		.2byte	0x1
 15571 078f 55       		.byte	0x55
 15572 0790 00000000 		.4byte	0
 15573 0794 00000000 		.4byte	0
 15574              	.LLST47:
 15575 0798 00000000 		.4byte	.LVL205
 15576 079c 09000000 		.4byte	.LVL206-1
 15577 07a0 0100     		.2byte	0x1
 15578 07a2 51       		.byte	0x51
 15579 07a3 09000000 		.4byte	.LVL206-1
 15580 07a7 12000000 		.4byte	.LVL207
 15581 07ab 0100     		.2byte	0x1
 15582 07ad 54       		.byte	0x54
 15583 07ae 12000000 		.4byte	.LVL207
 15584 07b2 2A000000 		.4byte	.LVL208
 15585 07b6 0400     		.2byte	0x4
 15586 07b8 F3       		.byte	0xf3
 15587 07b9 01       		.uleb128 0x1
 15588 07ba 51       		.byte	0x51
 15589 07bb 9F       		.byte	0x9f
 15590 07bc 2A000000 		.4byte	.LVL208
 15591 07c0 2C000000 		.4byte	.LVL209
 15592 07c4 0100     		.2byte	0x1
 15593 07c6 54       		.byte	0x54
 15594 07c7 2C000000 		.4byte	.LVL209
 15595 07cb 32000000 		.4byte	.LFE89
 15596 07cf 0400     		.2byte	0x4
 15597 07d1 F3       		.byte	0xf3
 15598 07d2 01       		.uleb128 0x1
 15599 07d3 51       		.byte	0x51
ARM GAS  C:\Users\FRANKL~1\AppData\Local\Temp\ccjWonOy.s 			page 315


 15600 07d4 9F       		.byte	0x9f
 15601 07d5 00000000 		.4byte	0
 15602 07d9 00000000 		.4byte	0
 15603              	.LLST48:
 15604 07dd 00000000 		.4byte	.LVL210
 15605 07e1 32000000 		.4byte	.LVL215
 15606 07e5 0100     		.2byte	0x1
 15607 07e7 50       		.byte	0x50
 15608 07e8 32000000 		.4byte	.LVL215
 15609 07ec EA000000 		.4byte	.LVL245
 15610 07f0 0300     		.2byte	0x3
 15611 07f2 77       		.byte	0x77
 15612 07f3 C000     		.sleb128 64
 15613 07f5 EA000000 		.4byte	.LVL245
 15614 07f9 F0000000 		.4byte	.LFE90
 15615 07fd 0200     		.2byte	0x2
 15616 07ff 91       		.byte	0x91
 15617 0800 00       		.sleb128 0
 15618 0801 00000000 		.4byte	0
 15619 0805 00000000 		.4byte	0
 15620              	.LLST49:
 15621 0809 00000000 		.4byte	.LVL210
 15622 080d 32000000 		.4byte	.LVL215
 15623 0811 0100     		.2byte	0x1
 15624 0813 51       		.byte	0x51
 15625 0814 32000000 		.4byte	.LVL215
 15626 0818 EA000000 		.4byte	.LVL245
 15627 081c 0200     		.2byte	0x2
 15628 081e 77       		.byte	0x77
 15629 081f 3C       		.sleb128 60
 15630 0820 EA000000 		.4byte	.LVL245
 15631 0824 F0000000 		.4byte	.LFE90
 15632 0828 0200     		.2byte	0x2
 15633 082a 91       		.byte	0x91
 15634 082b 7C       		.sleb128 -4
 15635 082c 00000000 		.4byte	0
 15636 0830 00000000 		.4byte	0
 15637              	.LLST50:
 15638 0834 00000000 		.4byte	.LVL210
 15639 0838 32000000 		.4byte	.LVL215
 15640 083c 0100     		.2byte	0x1
 15641 083e 52       		.byte	0x52
 15642 083f 32000000 		.4byte	.LVL215
 15643 0843 F0000000 		.4byte	.LFE90
 15644 0847 0400     		.2byte	0x4
 15645 0849 F3       		.byte	0xf3
 15646 084a 01       		.uleb128 0x1
 15647 084b 52       		.byte	0x52
 15648 084c 9F       		.byte	0x9f
 15649 084d 00000000 		.4byte	0
 15650 0851 00000000 		.4byte	0
 15651              	.LLST51:
 15652 0855 0C000000 		.4byte	.LVL211
 15653 0859 32000000 		.4byte	.LVL215
 15654 085d 0200     		.2byte	0x2
 15655 085f 30       		.byte	0x30
 15656 0860 9F       		.byte	0x9f
ARM GAS  C:\Users\FRANKL~1\AppData\Local\Temp\ccjWonOy.s 			page 316


 15657 0861 32000000 		.4byte	.LVL215
 15658 0865 D4000000 		.4byte	.LVL243
 15659 0869 0100     		.2byte	0x1
 15660 086b 5B       		.byte	0x5b
 15661 086c D4000000 		.4byte	.LVL243
 15662 0870 D6000000 		.4byte	.LVL244
 15663 0874 0100     		.2byte	0x1
 15664 0876 50       		.byte	0x50
 15665 0877 D6000000 		.4byte	.LVL244
 15666 087b F0000000 		.4byte	.LFE90
 15667 087f 0100     		.2byte	0x1
 15668 0881 5B       		.byte	0x5b
 15669 0882 00000000 		.4byte	0
 15670 0886 00000000 		.4byte	0
 15671              	.LLST52:
 15672 088a 0C000000 		.4byte	.LVL211
 15673 088e 32000000 		.4byte	.LVL215
 15674 0892 0200     		.2byte	0x2
 15675 0894 30       		.byte	0x30
 15676 0895 9F       		.byte	0x9f
 15677 0896 32000000 		.4byte	.LVL215
 15678 089a A8000000 		.4byte	.LVL234
 15679 089e 0300     		.2byte	0x3
 15680 08a0 77       		.byte	0x77
 15681 08a1 CC00     		.sleb128 76
 15682 08a3 A8000000 		.4byte	.LVL234
 15683 08a7 AA000000 		.4byte	.LVL235
 15684 08ab 0100     		.2byte	0x1
 15685 08ad 50       		.byte	0x50
 15686 08ae AA000000 		.4byte	.LVL235
 15687 08b2 EA000000 		.4byte	.LVL245
 15688 08b6 0300     		.2byte	0x3
 15689 08b8 77       		.byte	0x77
 15690 08b9 CC00     		.sleb128 76
 15691 08bb EA000000 		.4byte	.LVL245
 15692 08bf F0000000 		.4byte	.LFE90
 15693 08c3 0100     		.2byte	0x1
 15694 08c5 53       		.byte	0x53
 15695 08c6 00000000 		.4byte	0
 15696 08ca 00000000 		.4byte	0
 15697              	.LLST53:
 15698 08ce 0C000000 		.4byte	.LVL211
 15699 08d2 16000000 		.4byte	.LVL212
 15700 08d6 0200     		.2byte	0x2
 15701 08d8 43       		.byte	0x43
 15702 08d9 9F       		.byte	0x9f
 15703 08da 16000000 		.4byte	.LVL212
 15704 08de F0000000 		.4byte	.LFE90
 15705 08e2 0100     		.2byte	0x1
 15706 08e4 54       		.byte	0x54
 15707 08e5 00000000 		.4byte	0
 15708 08e9 00000000 		.4byte	0
 15709              	.LLST54:
 15710 08ed 28000000 		.4byte	.LVL214
 15711 08f1 32000000 		.4byte	.LVL215
 15712 08f5 0200     		.2byte	0x2
 15713 08f7 31       		.byte	0x31
ARM GAS  C:\Users\FRANKL~1\AppData\Local\Temp\ccjWonOy.s 			page 317


 15714 08f8 9F       		.byte	0x9f
 15715 08f9 32000000 		.4byte	.LVL215
 15716 08fd F0000000 		.4byte	.LFE90
 15717 0901 0100     		.2byte	0x1
 15718 0903 56       		.byte	0x56
 15719 0904 00000000 		.4byte	0
 15720 0908 00000000 		.4byte	0
 15721              	.LLST55:
 15722 090c 60000000 		.4byte	.LVL223
 15723 0910 62000000 		.4byte	.LVL224
 15724 0914 0100     		.2byte	0x1
 15725 0916 50       		.byte	0x50
 15726 0917 62000000 		.4byte	.LVL224
 15727 091b B0000000 		.4byte	.LVL237
 15728 091f 0100     		.2byte	0x1
 15729 0921 58       		.byte	0x58
 15730 0922 00000000 		.4byte	0
 15731 0926 00000000 		.4byte	0
 15732              	.LLST56:
 15733 092a 32000000 		.4byte	.LVL215
 15734 092e 4E000000 		.4byte	.LVL220
 15735 0932 0100     		.2byte	0x1
 15736 0934 58       		.byte	0x58
 15737 0935 52000000 		.4byte	.LVL221
 15738 0939 60000000 		.4byte	.LVL223
 15739 093d 0100     		.2byte	0x1
 15740 093f 58       		.byte	0x58
 15741 0940 00000000 		.4byte	0
 15742 0944 00000000 		.4byte	0
 15743              	.LLST57:
 15744 0948 00000000 		.4byte	.LVL246
 15745 094c 12000000 		.4byte	.LVL247
 15746 0950 0100     		.2byte	0x1
 15747 0952 50       		.byte	0x50
 15748 0953 12000000 		.4byte	.LVL247
 15749 0957 15000000 		.4byte	.LVL248-1
 15750 095b 0100     		.2byte	0x1
 15751 095d 52       		.byte	0x52
 15752 095e 15000000 		.4byte	.LVL248-1
 15753 0962 54000000 		.4byte	.LFE91
 15754 0966 0400     		.2byte	0x4
 15755 0968 F3       		.byte	0xf3
 15756 0969 01       		.uleb128 0x1
 15757 096a 50       		.byte	0x50
 15758 096b 9F       		.byte	0x9f
 15759 096c 00000000 		.4byte	0
 15760 0970 00000000 		.4byte	0
 15761              	.LLST58:
 15762 0974 00000000 		.4byte	.LVL252
 15763 0978 16000000 		.4byte	.LVL254
 15764 097c 0100     		.2byte	0x1
 15765 097e 50       		.byte	0x50
 15766 097f 16000000 		.4byte	.LVL254
 15767 0983 B2000000 		.4byte	.LVL282
 15768 0987 0200     		.2byte	0x2
 15769 0989 7D       		.byte	0x7d
 15770 098a 00       		.sleb128 0
ARM GAS  C:\Users\FRANKL~1\AppData\Local\Temp\ccjWonOy.s 			page 318


 15771 098b B2000000 		.4byte	.LVL282
 15772 098f B6000000 		.4byte	.LFE92
 15773 0993 0200     		.2byte	0x2
 15774 0995 91       		.byte	0x91
 15775 0996 50       		.sleb128 -48
 15776 0997 00000000 		.4byte	0
 15777 099b 00000000 		.4byte	0
 15778              	.LLST59:
 15779 099f 00000000 		.4byte	.LVL252
 15780 09a3 16000000 		.4byte	.LVL254
 15781 09a7 0100     		.2byte	0x1
 15782 09a9 51       		.byte	0x51
 15783 09aa 16000000 		.4byte	.LVL254
 15784 09ae B6000000 		.4byte	.LFE92
 15785 09b2 0200     		.2byte	0x2
 15786 09b4 91       		.byte	0x91
 15787 09b5 54       		.sleb128 -44
 15788 09b6 00000000 		.4byte	0
 15789 09ba 00000000 		.4byte	0
 15790              	.LLST60:
 15791 09be 00000000 		.4byte	.LVL252
 15792 09c2 16000000 		.4byte	.LVL254
 15793 09c6 0100     		.2byte	0x1
 15794 09c8 52       		.byte	0x52
 15795 09c9 16000000 		.4byte	.LVL254
 15796 09cd B6000000 		.4byte	.LFE92
 15797 09d1 0100     		.2byte	0x1
 15798 09d3 5B       		.byte	0x5b
 15799 09d4 00000000 		.4byte	0
 15800 09d8 00000000 		.4byte	0
 15801              	.LLST61:
 15802 09dc 0C000000 		.4byte	.LVL253
 15803 09e0 16000000 		.4byte	.LVL254
 15804 09e4 0200     		.2byte	0x2
 15805 09e6 30       		.byte	0x30
 15806 09e7 9F       		.byte	0x9f
 15807 09e8 16000000 		.4byte	.LVL254
 15808 09ec 84000000 		.4byte	.LVL275
 15809 09f0 0100     		.2byte	0x1
 15810 09f2 55       		.byte	0x55
 15811 09f3 A0000000 		.4byte	.LVL280
 15812 09f7 A2000000 		.4byte	.LVL281
 15813 09fb 0100     		.2byte	0x1
 15814 09fd 50       		.byte	0x50
 15815 09fe A2000000 		.4byte	.LVL281
 15816 0a02 B6000000 		.4byte	.LFE92
 15817 0a06 0100     		.2byte	0x1
 15818 0a08 55       		.byte	0x55
 15819 0a09 00000000 		.4byte	0
 15820 0a0d 00000000 		.4byte	0
 15821              	.LLST62:
 15822 0a11 0C000000 		.4byte	.LVL253
 15823 0a15 16000000 		.4byte	.LVL254
 15824 0a19 0200     		.2byte	0x2
 15825 0a1b 30       		.byte	0x30
 15826 0a1c 9F       		.byte	0x9f
 15827 0a1d 16000000 		.4byte	.LVL254
ARM GAS  C:\Users\FRANKL~1\AppData\Local\Temp\ccjWonOy.s 			page 319


 15828 0a21 74000000 		.4byte	.LVL270
 15829 0a25 0100     		.2byte	0x1
 15830 0a27 59       		.byte	0x59
 15831 0a28 74000000 		.4byte	.LVL270
 15832 0a2c 76000000 		.4byte	.LVL271
 15833 0a30 0100     		.2byte	0x1
 15834 0a32 50       		.byte	0x50
 15835 0a33 76000000 		.4byte	.LVL271
 15836 0a37 B6000000 		.4byte	.LFE92
 15837 0a3b 0100     		.2byte	0x1
 15838 0a3d 59       		.byte	0x59
 15839 0a3e 00000000 		.4byte	0
 15840 0a42 00000000 		.4byte	0
 15841              	.LLST63:
 15842 0a46 0C000000 		.4byte	.LVL253
 15843 0a4a 16000000 		.4byte	.LVL254
 15844 0a4e 0200     		.2byte	0x2
 15845 0a50 31       		.byte	0x31
 15846 0a51 9F       		.byte	0x9f
 15847 0a52 16000000 		.4byte	.LVL254
 15848 0a56 B6000000 		.4byte	.LFE92
 15849 0a5a 0100     		.2byte	0x1
 15850 0a5c 54       		.byte	0x54
 15851 0a5d 00000000 		.4byte	0
 15852 0a61 00000000 		.4byte	0
 15853              	.LLST64:
 15854 0a65 2E000000 		.4byte	.LVL259
 15855 0a69 30000000 		.4byte	.LVL260
 15856 0a6d 0100     		.2byte	0x1
 15857 0a6f 50       		.byte	0x50
 15858 0a70 30000000 		.4byte	.LVL260
 15859 0a74 7C000000 		.4byte	.LVL273
 15860 0a78 0100     		.2byte	0x1
 15861 0a7a 57       		.byte	0x57
 15862 0a7b 00000000 		.4byte	0
 15863 0a7f 00000000 		.4byte	0
 15864              	.LLST65:
 15865 0a83 00000000 		.4byte	.LVL283
 15866 0a87 16000000 		.4byte	.LVL285
 15867 0a8b 0100     		.2byte	0x1
 15868 0a8d 50       		.byte	0x50
 15869 0a8e 16000000 		.4byte	.LVL285
 15870 0a92 B2000000 		.4byte	.LVL313
 15871 0a96 0200     		.2byte	0x2
 15872 0a98 7D       		.byte	0x7d
 15873 0a99 00       		.sleb128 0
 15874 0a9a B2000000 		.4byte	.LVL313
 15875 0a9e B6000000 		.4byte	.LFE93
 15876 0aa2 0200     		.2byte	0x2
 15877 0aa4 91       		.byte	0x91
 15878 0aa5 50       		.sleb128 -48
 15879 0aa6 00000000 		.4byte	0
 15880 0aaa 00000000 		.4byte	0
 15881              	.LLST66:
 15882 0aae 00000000 		.4byte	.LVL283
 15883 0ab2 16000000 		.4byte	.LVL285
 15884 0ab6 0100     		.2byte	0x1
ARM GAS  C:\Users\FRANKL~1\AppData\Local\Temp\ccjWonOy.s 			page 320


 15885 0ab8 51       		.byte	0x51
 15886 0ab9 16000000 		.4byte	.LVL285
 15887 0abd B6000000 		.4byte	.LFE93
 15888 0ac1 0200     		.2byte	0x2
 15889 0ac3 91       		.byte	0x91
 15890 0ac4 54       		.sleb128 -44
 15891 0ac5 00000000 		.4byte	0
 15892 0ac9 00000000 		.4byte	0
 15893              	.LLST67:
 15894 0acd 00000000 		.4byte	.LVL283
 15895 0ad1 16000000 		.4byte	.LVL285
 15896 0ad5 0100     		.2byte	0x1
 15897 0ad7 52       		.byte	0x52
 15898 0ad8 16000000 		.4byte	.LVL285
 15899 0adc B6000000 		.4byte	.LFE93
 15900 0ae0 0100     		.2byte	0x1
 15901 0ae2 5B       		.byte	0x5b
 15902 0ae3 00000000 		.4byte	0
 15903 0ae7 00000000 		.4byte	0
 15904              	.LLST68:
 15905 0aeb 0C000000 		.4byte	.LVL284
 15906 0aef 16000000 		.4byte	.LVL285
 15907 0af3 0200     		.2byte	0x2
 15908 0af5 30       		.byte	0x30
 15909 0af6 9F       		.byte	0x9f
 15910 0af7 16000000 		.4byte	.LVL285
 15911 0afb 84000000 		.4byte	.LVL306
 15912 0aff 0100     		.2byte	0x1
 15913 0b01 55       		.byte	0x55
 15914 0b02 A0000000 		.4byte	.LVL311
 15915 0b06 A2000000 		.4byte	.LVL312
 15916 0b0a 0100     		.2byte	0x1
 15917 0b0c 50       		.byte	0x50
 15918 0b0d A2000000 		.4byte	.LVL312
 15919 0b11 B6000000 		.4byte	.LFE93
 15920 0b15 0100     		.2byte	0x1
 15921 0b17 55       		.byte	0x55
 15922 0b18 00000000 		.4byte	0
 15923 0b1c 00000000 		.4byte	0
 15924              	.LLST69:
 15925 0b20 0C000000 		.4byte	.LVL284
 15926 0b24 16000000 		.4byte	.LVL285
 15927 0b28 0200     		.2byte	0x2
 15928 0b2a 30       		.byte	0x30
 15929 0b2b 9F       		.byte	0x9f
 15930 0b2c 16000000 		.4byte	.LVL285
 15931 0b30 74000000 		.4byte	.LVL301
 15932 0b34 0100     		.2byte	0x1
 15933 0b36 59       		.byte	0x59
 15934 0b37 74000000 		.4byte	.LVL301
 15935 0b3b 76000000 		.4byte	.LVL302
 15936 0b3f 0100     		.2byte	0x1
 15937 0b41 50       		.byte	0x50
 15938 0b42 76000000 		.4byte	.LVL302
 15939 0b46 B6000000 		.4byte	.LFE93
 15940 0b4a 0100     		.2byte	0x1
 15941 0b4c 59       		.byte	0x59
ARM GAS  C:\Users\FRANKL~1\AppData\Local\Temp\ccjWonOy.s 			page 321


 15942 0b4d 00000000 		.4byte	0
 15943 0b51 00000000 		.4byte	0
 15944              	.LLST70:
 15945 0b55 0C000000 		.4byte	.LVL284
 15946 0b59 16000000 		.4byte	.LVL285
 15947 0b5d 0200     		.2byte	0x2
 15948 0b5f 31       		.byte	0x31
 15949 0b60 9F       		.byte	0x9f
 15950 0b61 16000000 		.4byte	.LVL285
 15951 0b65 B6000000 		.4byte	.LFE93
 15952 0b69 0100     		.2byte	0x1
 15953 0b6b 54       		.byte	0x54
 15954 0b6c 00000000 		.4byte	0
 15955 0b70 00000000 		.4byte	0
 15956              	.LLST71:
 15957 0b74 2E000000 		.4byte	.LVL290
 15958 0b78 30000000 		.4byte	.LVL291
 15959 0b7c 0100     		.2byte	0x1
 15960 0b7e 50       		.byte	0x50
 15961 0b7f 30000000 		.4byte	.LVL291
 15962 0b83 7C000000 		.4byte	.LVL304
 15963 0b87 0100     		.2byte	0x1
 15964 0b89 57       		.byte	0x57
 15965 0b8a 00000000 		.4byte	0
 15966 0b8e 00000000 		.4byte	0
 15967              	.LLST72:
 15968 0b92 00000000 		.4byte	.LVL314
 15969 0b96 16000000 		.4byte	.LVL316
 15970 0b9a 0100     		.2byte	0x1
 15971 0b9c 50       		.byte	0x50
 15972 0b9d 16000000 		.4byte	.LVL316
 15973 0ba1 70010000 		.4byte	.LVL365
 15974 0ba5 0200     		.2byte	0x2
 15975 0ba7 91       		.byte	0x91
 15976 0ba8 48       		.sleb128 -56
 15977 0ba9 70010000 		.4byte	.LVL365
 15978 0bad 90010000 		.4byte	.LFE94
 15979 0bb1 0200     		.2byte	0x2
 15980 0bb3 7D       		.byte	0x7d
 15981 0bb4 48       		.sleb128 -56
 15982 0bb5 00000000 		.4byte	0
 15983 0bb9 00000000 		.4byte	0
 15984              	.LLST73:
 15985 0bbd 00000000 		.4byte	.LVL314
 15986 0bc1 19000000 		.4byte	.LVL317-1
 15987 0bc5 0100     		.2byte	0x1
 15988 0bc7 51       		.byte	0x51
 15989 0bc8 19000000 		.4byte	.LVL317-1
 15990 0bcc 70010000 		.4byte	.LVL365
 15991 0bd0 0200     		.2byte	0x2
 15992 0bd2 91       		.byte	0x91
 15993 0bd3 4C       		.sleb128 -52
 15994 0bd4 70010000 		.4byte	.LVL365
 15995 0bd8 90010000 		.4byte	.LFE94
 15996 0bdc 0200     		.2byte	0x2
 15997 0bde 7D       		.byte	0x7d
 15998 0bdf 4C       		.sleb128 -52
ARM GAS  C:\Users\FRANKL~1\AppData\Local\Temp\ccjWonOy.s 			page 322


 15999 0be0 00000000 		.4byte	0
 16000 0be4 00000000 		.4byte	0
 16001              	.LLST74:
 16002 0be8 00000000 		.4byte	.LVL314
 16003 0bec 19000000 		.4byte	.LVL317-1
 16004 0bf0 0100     		.2byte	0x1
 16005 0bf2 52       		.byte	0x52
 16006 0bf3 19000000 		.4byte	.LVL317-1
 16007 0bf7 70010000 		.4byte	.LVL365
 16008 0bfb 0100     		.2byte	0x1
 16009 0bfd 5A       		.byte	0x5a
 16010 0bfe 70010000 		.4byte	.LVL365
 16011 0c02 90010000 		.4byte	.LFE94
 16012 0c06 0400     		.2byte	0x4
 16013 0c08 F3       		.byte	0xf3
 16014 0c09 01       		.uleb128 0x1
 16015 0c0a 52       		.byte	0x52
 16016 0c0b 9F       		.byte	0x9f
 16017 0c0c 00000000 		.4byte	0
 16018 0c10 00000000 		.4byte	0
 16019              	.LLST75:
 16020 0c14 00000000 		.4byte	.LVL314
 16021 0c18 12000000 		.4byte	.LVL315
 16022 0c1c 0100     		.2byte	0x1
 16023 0c1e 53       		.byte	0x53
 16024 0c1f 12000000 		.4byte	.LVL315
 16025 0c23 90010000 		.4byte	.LFE94
 16026 0c27 0400     		.2byte	0x4
 16027 0c29 F3       		.byte	0xf3
 16028 0c2a 01       		.uleb128 0x1
 16029 0c2b 53       		.byte	0x53
 16030 0c2c 9F       		.byte	0x9f
 16031 0c2d 00000000 		.4byte	0
 16032 0c31 00000000 		.4byte	0
 16033              	.LLST76:
 16034 0c35 22000000 		.4byte	.LVL318
 16035 0c39 5C000000 		.4byte	.LVL327
 16036 0c3d 0600     		.2byte	0x6
 16037 0c3f 9E       		.byte	0x9e
 16038 0c40 04       		.uleb128 0x4
 16039 0c41 00000000 		.4byte	0
 16040 0c45 78000000 		.4byte	.LVL331
 16041 0c49 7A000000 		.4byte	.LVL332
 16042 0c4d 0100     		.2byte	0x1
 16043 0c4f 50       		.byte	0x50
 16044 0c50 7A000000 		.4byte	.LVL332
 16045 0c54 22010000 		.4byte	.LVL354
 16046 0c58 0100     		.2byte	0x1
 16047 0c5a 54       		.byte	0x54
 16048 0c5b 22010000 		.4byte	.LVL354
 16049 0c5f 2A010000 		.4byte	.LVL355
 16050 0c63 0600     		.2byte	0x6
 16051 0c65 9E       		.byte	0x9e
 16052 0c66 04       		.uleb128 0x4
 16053 0c67 00000000 		.4byte	0
 16054 0c6b 30010000 		.4byte	.LVL356
 16055 0c6f 60010000 		.4byte	.LVL364
ARM GAS  C:\Users\FRANKL~1\AppData\Local\Temp\ccjWonOy.s 			page 323


 16056 0c73 0600     		.2byte	0x6
 16057 0c75 9E       		.byte	0x9e
 16058 0c76 04       		.uleb128 0x4
 16059 0c77 00000000 		.4byte	0
 16060 0c7b 00000000 		.4byte	0
 16061 0c7f 00000000 		.4byte	0
 16062              	.LLST77:
 16063 0c83 22000000 		.4byte	.LVL318
 16064 0c87 5C000000 		.4byte	.LVL327
 16065 0c8b 0600     		.2byte	0x6
 16066 0c8d 9E       		.byte	0x9e
 16067 0c8e 04       		.uleb128 0x4
 16068 0c8f 00000000 		.4byte	0
 16069 0c93 5C000000 		.4byte	.LVL327
 16070 0c97 F0000000 		.4byte	.LVL348
 16071 0c9b 0100     		.2byte	0x1
 16072 0c9d 58       		.byte	0x58
 16073 0c9e F0000000 		.4byte	.LVL348
 16074 0ca2 F2000000 		.4byte	.LVL349
 16075 0ca6 0100     		.2byte	0x1
 16076 0ca8 50       		.byte	0x50
 16077 0ca9 F2000000 		.4byte	.LVL349
 16078 0cad 22010000 		.4byte	.LVL354
 16079 0cb1 0100     		.2byte	0x1
 16080 0cb3 58       		.byte	0x58
 16081 0cb4 22010000 		.4byte	.LVL354
 16082 0cb8 2A010000 		.4byte	.LVL355
 16083 0cbc 0600     		.2byte	0x6
 16084 0cbe 9E       		.byte	0x9e
 16085 0cbf 04       		.uleb128 0x4
 16086 0cc0 00000000 		.4byte	0
 16087 0cc4 2A010000 		.4byte	.LVL355
 16088 0cc8 30010000 		.4byte	.LVL356
 16089 0ccc 0100     		.2byte	0x1
 16090 0cce 58       		.byte	0x58
 16091 0ccf 30010000 		.4byte	.LVL356
 16092 0cd3 4E010000 		.4byte	.LVL360
 16093 0cd7 0600     		.2byte	0x6
 16094 0cd9 9E       		.byte	0x9e
 16095 0cda 04       		.uleb128 0x4
 16096 0cdb 00000000 		.4byte	0
 16097 0cdf 4E010000 		.4byte	.LVL360
 16098 0ce3 50010000 		.4byte	.LVL361
 16099 0ce7 0100     		.2byte	0x1
 16100 0ce9 50       		.byte	0x50
 16101 0cea 50010000 		.4byte	.LVL361
 16102 0cee 70010000 		.4byte	.LVL365
 16103 0cf2 0100     		.2byte	0x1
 16104 0cf4 58       		.byte	0x58
 16105 0cf5 00000000 		.4byte	0
 16106 0cf9 00000000 		.4byte	0
 16107              	.LLST78:
 16108 0cfd 22000000 		.4byte	.LVL318
 16109 0d01 5C000000 		.4byte	.LVL327
 16110 0d05 0600     		.2byte	0x6
 16111 0d07 9E       		.byte	0x9e
 16112 0d08 04       		.uleb128 0x4
ARM GAS  C:\Users\FRANKL~1\AppData\Local\Temp\ccjWonOy.s 			page 324


 16113 0d09 00000000 		.4byte	0
 16114 0d0d 5C000000 		.4byte	.LVL327
 16115 0d11 DE000000 		.4byte	.LVL344
 16116 0d15 0100     		.2byte	0x1
 16117 0d17 55       		.byte	0x55
 16118 0d18 DE000000 		.4byte	.LVL344
 16119 0d1c E2000000 		.4byte	.LVL345
 16120 0d20 0100     		.2byte	0x1
 16121 0d22 50       		.byte	0x50
 16122 0d23 E2000000 		.4byte	.LVL345
 16123 0d27 22010000 		.4byte	.LVL354
 16124 0d2b 0100     		.2byte	0x1
 16125 0d2d 55       		.byte	0x55
 16126 0d2e 22010000 		.4byte	.LVL354
 16127 0d32 2A010000 		.4byte	.LVL355
 16128 0d36 0600     		.2byte	0x6
 16129 0d38 9E       		.byte	0x9e
 16130 0d39 04       		.uleb128 0x4
 16131 0d3a 00000000 		.4byte	0
 16132 0d3e 2A010000 		.4byte	.LVL355
 16133 0d42 30010000 		.4byte	.LVL356
 16134 0d46 0100     		.2byte	0x1
 16135 0d48 55       		.byte	0x55
 16136 0d49 30010000 		.4byte	.LVL356
 16137 0d4d 60010000 		.4byte	.LVL364
 16138 0d51 0600     		.2byte	0x6
 16139 0d53 9E       		.byte	0x9e
 16140 0d54 04       		.uleb128 0x4
 16141 0d55 00000000 		.4byte	0
 16142 0d59 60010000 		.4byte	.LVL364
 16143 0d5d 70010000 		.4byte	.LVL365
 16144 0d61 0100     		.2byte	0x1
 16145 0d63 55       		.byte	0x55
 16146 0d64 70010000 		.4byte	.LVL365
 16147 0d68 90010000 		.4byte	.LFE94
 16148 0d6c 0200     		.2byte	0x2
 16149 0d6e 73       		.byte	0x73
 16150 0d6f 00       		.sleb128 0
 16151 0d70 00000000 		.4byte	0
 16152 0d74 00000000 		.4byte	0
 16153              	.LLST79:
 16154 0d78 2C000000 		.4byte	.LVL319
 16155 0d7c 37000000 		.4byte	.LVL321-1
 16156 0d80 0200     		.2byte	0x2
 16157 0d82 72       		.byte	0x72
 16158 0d83 0C       		.sleb128 12
 16159 0d84 00000000 		.4byte	0
 16160 0d88 00000000 		.4byte	0
 16161              	.LLST80:
 16162 0d8c 32000000 		.4byte	.LVL320
 16163 0d90 70010000 		.4byte	.LVL365
 16164 0d94 0100     		.2byte	0x1
 16165 0d96 59       		.byte	0x59
 16166 0d97 00000000 		.4byte	0
 16167 0d9b 00000000 		.4byte	0
 16168              	.LLST81:
 16169 0d9f 4C000000 		.4byte	.LVL324
ARM GAS  C:\Users\FRANKL~1\AppData\Local\Temp\ccjWonOy.s 			page 325


 16170 0da3 52000000 		.4byte	.LVL325
 16171 0da7 0100     		.2byte	0x1
 16172 0da9 50       		.byte	0x50
 16173 0daa 52000000 		.4byte	.LVL325
 16174 0dae 70010000 		.4byte	.LVL365
 16175 0db2 0200     		.2byte	0x2
 16176 0db4 91       		.byte	0x91
 16177 0db5 44       		.sleb128 -60
 16178 0db6 70010000 		.4byte	.LVL365
 16179 0dba 90010000 		.4byte	.LFE94
 16180 0dbe 0200     		.2byte	0x2
 16181 0dc0 7D       		.byte	0x7d
 16182 0dc1 44       		.sleb128 -60
 16183 0dc2 00000000 		.4byte	0
 16184 0dc6 00000000 		.4byte	0
 16185              	.LLST82:
 16186 0dca 5C000000 		.4byte	.LVL327
 16187 0dce 22010000 		.4byte	.LVL354
 16188 0dd2 0100     		.2byte	0x1
 16189 0dd4 5B       		.byte	0x5b
 16190 0dd5 2A010000 		.4byte	.LVL355
 16191 0dd9 30010000 		.4byte	.LVL356
 16192 0ddd 0100     		.2byte	0x1
 16193 0ddf 5B       		.byte	0x5b
 16194 0de0 00000000 		.4byte	0
 16195 0de4 00000000 		.4byte	0
 16196              	.LLST83:
 16197 0de8 08000000 		.4byte	.LVL370
 16198 0dec 1C000000 		.4byte	.LVL373
 16199 0df0 0100     		.2byte	0x1
 16200 0df2 54       		.byte	0x54
 16201 0df3 36000000 		.4byte	.LVL379
 16202 0df7 4A000000 		.4byte	.LVL383
 16203 0dfb 0100     		.2byte	0x1
 16204 0dfd 54       		.byte	0x54
 16205 0dfe 00000000 		.4byte	0
 16206 0e02 00000000 		.4byte	0
 16207              	.LLST84:
 16208 0e06 0E000000 		.4byte	.LVL371
 16209 0e0a 3A000000 		.4byte	.LVL380
 16210 0e0e 0100     		.2byte	0x1
 16211 0e10 55       		.byte	0x55
 16212 0e11 3C000000 		.4byte	.LVL381
 16213 0e15 60000000 		.4byte	.LVL389
 16214 0e19 0100     		.2byte	0x1
 16215 0e1b 55       		.byte	0x55
 16216 0e1c 00000000 		.4byte	0
 16217 0e20 00000000 		.4byte	0
 16218              	.LLST85:
 16219 0e24 0E000000 		.4byte	.LVL371
 16220 0e28 1A000000 		.4byte	.LVL372
 16221 0e2c 0200     		.2byte	0x2
 16222 0e2e 31       		.byte	0x31
 16223 0e2f 9F       		.byte	0x9f
 16224 0e30 1A000000 		.4byte	.LVL372
 16225 0e34 1C000000 		.4byte	.LVL373
 16226 0e38 0100     		.2byte	0x1
ARM GAS  C:\Users\FRANKL~1\AppData\Local\Temp\ccjWonOy.s 			page 326


 16227 0e3a 56       		.byte	0x56
 16228 0e3b 3C000000 		.4byte	.LVL381
 16229 0e3f 48000000 		.4byte	.LVL382
 16230 0e43 0200     		.2byte	0x2
 16231 0e45 31       		.byte	0x31
 16232 0e46 9F       		.byte	0x9f
 16233 0e47 48000000 		.4byte	.LVL382
 16234 0e4b 4A000000 		.4byte	.LVL383
 16235 0e4f 0100     		.2byte	0x1
 16236 0e51 56       		.byte	0x56
 16237 0e52 00000000 		.4byte	0
 16238 0e56 00000000 		.4byte	0
 16239              	.LLST86:
 16240 0e5a 1A000000 		.4byte	.LVL372
 16241 0e5e 2A000000 		.4byte	.LVL376
 16242 0e62 0100     		.2byte	0x1
 16243 0e64 54       		.byte	0x54
 16244 0e65 2C000000 		.4byte	.LVL377
 16245 0e69 34000000 		.4byte	.LVL378
 16246 0e6d 0100     		.2byte	0x1
 16247 0e6f 54       		.byte	0x54
 16248 0e70 00000000 		.4byte	0
 16249 0e74 00000000 		.4byte	0
 16250              	.LLST87:
 16251 0e78 48000000 		.4byte	.LVL382
 16252 0e7c 58000000 		.4byte	.LVL386
 16253 0e80 0100     		.2byte	0x1
 16254 0e82 54       		.byte	0x54
 16255 0e83 5A000000 		.4byte	.LVL387
 16256 0e87 5E000000 		.4byte	.LVL388
 16257 0e8b 0100     		.2byte	0x1
 16258 0e8d 54       		.byte	0x54
 16259 0e8e 00000000 		.4byte	0
 16260 0e92 00000000 		.4byte	0
 16261              	.LLST88:
 16262 0e96 00000000 		.4byte	.LVL405
 16263 0e9a 26000000 		.4byte	.LVL408
 16264 0e9e 0100     		.2byte	0x1
 16265 0ea0 50       		.byte	0x50
 16266 0ea1 26000000 		.4byte	.LVL408
 16267 0ea5 78000000 		.4byte	.LFE100
 16268 0ea9 0400     		.2byte	0x4
 16269 0eab F3       		.byte	0xf3
 16270 0eac 01       		.uleb128 0x1
 16271 0ead 50       		.byte	0x50
 16272 0eae 9F       		.byte	0x9f
 16273 0eaf 00000000 		.4byte	0
 16274 0eb3 00000000 		.4byte	0
 16275              	.LLST89:
 16276 0eb7 16000000 		.4byte	.LVL406
 16277 0ebb 6C000000 		.4byte	.LVL424
 16278 0ebf 0100     		.2byte	0x1
 16279 0ec1 55       		.byte	0x55
 16280 0ec2 00000000 		.4byte	0
 16281 0ec6 00000000 		.4byte	0
 16282              	.LLST90:
 16283 0eca 16000000 		.4byte	.LVL406
ARM GAS  C:\Users\FRANKL~1\AppData\Local\Temp\ccjWonOy.s 			page 327


 16284 0ece 22000000 		.4byte	.LVL407
 16285 0ed2 0200     		.2byte	0x2
 16286 0ed4 31       		.byte	0x31
 16287 0ed5 9F       		.byte	0x9f
 16288 0ed6 22000000 		.4byte	.LVL407
 16289 0eda 6C000000 		.4byte	.LVL424
 16290 0ede 0100     		.2byte	0x1
 16291 0ee0 56       		.byte	0x56
 16292 0ee1 00000000 		.4byte	0
 16293 0ee5 00000000 		.4byte	0
 16294              	.LLST91:
 16295 0ee9 22000000 		.4byte	.LVL407
 16296 0eed 26000000 		.4byte	.LVL408
 16297 0ef1 0100     		.2byte	0x1
 16298 0ef3 55       		.byte	0x55
 16299 0ef4 26000000 		.4byte	.LVL408
 16300 0ef8 5C000000 		.4byte	.LVL421
 16301 0efc 0100     		.2byte	0x1
 16302 0efe 57       		.byte	0x57
 16303 0eff 5E000000 		.4byte	.LVL422
 16304 0f03 6C000000 		.4byte	.LVL424
 16305 0f07 0100     		.2byte	0x1
 16306 0f09 57       		.byte	0x57
 16307 0f0a 00000000 		.4byte	0
 16308 0f0e 00000000 		.4byte	0
 16309              	.LLST92:
 16310 0f12 2E000000 		.4byte	.LVL410
 16311 0f16 3C000000 		.4byte	.LVL413
 16312 0f1a 0100     		.2byte	0x1
 16313 0f1c 54       		.byte	0x54
 16314 0f1d 3E000000 		.4byte	.LVL414
 16315 0f21 40000000 		.4byte	.LVL415
 16316 0f25 0100     		.2byte	0x1
 16317 0f27 54       		.byte	0x54
 16318 0f28 42000000 		.4byte	.LVL416
 16319 0f2c 54000000 		.4byte	.LVL419
 16320 0f30 0100     		.2byte	0x1
 16321 0f32 54       		.byte	0x54
 16322 0f33 00000000 		.4byte	0
 16323 0f37 00000000 		.4byte	0
 16324              	.LLST93:
 16325 0f3b 00000000 		.4byte	.LVL425
 16326 0f3f 26000000 		.4byte	.LVL429
 16327 0f43 0100     		.2byte	0x1
 16328 0f45 50       		.byte	0x50
 16329 0f46 26000000 		.4byte	.LVL429
 16330 0f4a 78000000 		.4byte	.LFE101
 16331 0f4e 0400     		.2byte	0x4
 16332 0f50 F3       		.byte	0xf3
 16333 0f51 01       		.uleb128 0x1
 16334 0f52 50       		.byte	0x50
 16335 0f53 9F       		.byte	0x9f
 16336 0f54 00000000 		.4byte	0
 16337 0f58 00000000 		.4byte	0
 16338              	.LLST94:
 16339 0f5c 10000000 		.4byte	.LVL426
 16340 0f60 22000000 		.4byte	.LVL428
ARM GAS  C:\Users\FRANKL~1\AppData\Local\Temp\ccjWonOy.s 			page 328


 16341 0f64 0200     		.2byte	0x2
 16342 0f66 31       		.byte	0x31
 16343 0f67 9F       		.byte	0x9f
 16344 0f68 22000000 		.4byte	.LVL428
 16345 0f6c 6C000000 		.4byte	.LVL445
 16346 0f70 0100     		.2byte	0x1
 16347 0f72 56       		.byte	0x56
 16348 0f73 00000000 		.4byte	0
 16349 0f77 00000000 		.4byte	0
 16350              	.LLST95:
 16351 0f7b 16000000 		.4byte	.LVL427
 16352 0f7f 6C000000 		.4byte	.LVL445
 16353 0f83 0100     		.2byte	0x1
 16354 0f85 55       		.byte	0x55
 16355 0f86 00000000 		.4byte	0
 16356 0f8a 00000000 		.4byte	0
 16357              	.LLST96:
 16358 0f8e 22000000 		.4byte	.LVL428
 16359 0f92 26000000 		.4byte	.LVL429
 16360 0f96 0100     		.2byte	0x1
 16361 0f98 55       		.byte	0x55
 16362 0f99 26000000 		.4byte	.LVL429
 16363 0f9d 5C000000 		.4byte	.LVL442
 16364 0fa1 0100     		.2byte	0x1
 16365 0fa3 57       		.byte	0x57
 16366 0fa4 5E000000 		.4byte	.LVL443
 16367 0fa8 6C000000 		.4byte	.LVL445
 16368 0fac 0100     		.2byte	0x1
 16369 0fae 57       		.byte	0x57
 16370 0faf 00000000 		.4byte	0
 16371 0fb3 00000000 		.4byte	0
 16372              	.LLST97:
 16373 0fb7 2E000000 		.4byte	.LVL431
 16374 0fbb 3C000000 		.4byte	.LVL434
 16375 0fbf 0100     		.2byte	0x1
 16376 0fc1 54       		.byte	0x54
 16377 0fc2 3E000000 		.4byte	.LVL435
 16378 0fc6 40000000 		.4byte	.LVL436
 16379 0fca 0100     		.2byte	0x1
 16380 0fcc 54       		.byte	0x54
 16381 0fcd 42000000 		.4byte	.LVL437
 16382 0fd1 54000000 		.4byte	.LVL440
 16383 0fd5 0100     		.2byte	0x1
 16384 0fd7 54       		.byte	0x54
 16385 0fd8 00000000 		.4byte	0
 16386 0fdc 00000000 		.4byte	0
 16387              	.LLST98:
 16388 0fe0 00000000 		.4byte	.LVL446
 16389 0fe4 0C000000 		.4byte	.LVL447
 16390 0fe8 0100     		.2byte	0x1
 16391 0fea 50       		.byte	0x50
 16392 0feb 0C000000 		.4byte	.LVL447
 16393 0fef B4000000 		.4byte	.LVL471
 16394 0ff3 0100     		.2byte	0x1
 16395 0ff5 57       		.byte	0x57
 16396 0ff6 00000000 		.4byte	0
 16397 0ffa 00000000 		.4byte	0
ARM GAS  C:\Users\FRANKL~1\AppData\Local\Temp\ccjWonOy.s 			page 329


 16398              	.LLST99:
 16399 0ffe 0C000000 		.4byte	.LVL447
 16400 1002 20000000 		.4byte	.LVL448
 16401 1006 0200     		.2byte	0x2
 16402 1008 31       		.byte	0x31
 16403 1009 9F       		.byte	0x9f
 16404 100a 20000000 		.4byte	.LVL448
 16405 100e B4000000 		.4byte	.LVL471
 16406 1012 0100     		.2byte	0x1
 16407 1014 58       		.byte	0x58
 16408 1015 00000000 		.4byte	0
 16409 1019 00000000 		.4byte	0
 16410              	.LLST100:
 16411 101d 7E000000 		.4byte	.LVL462
 16412 1021 B0000000 		.4byte	.LVL470
 16413 1025 0100     		.2byte	0x1
 16414 1027 55       		.byte	0x55
 16415 1028 00000000 		.4byte	0
 16416 102c 00000000 		.4byte	0
 16417              	.LLST101:
 16418 1030 86000000 		.4byte	.LVL463
 16419 1034 B0000000 		.4byte	.LVL470
 16420 1038 0100     		.2byte	0x1
 16421 103a 54       		.byte	0x54
 16422 103b 00000000 		.4byte	0
 16423 103f 00000000 		.4byte	0
 16424              	.LLST102:
 16425 1043 26000000 		.4byte	.LVL449
 16426 1047 6E000000 		.4byte	.LVL460
 16427 104b 0100     		.2byte	0x1
 16428 104d 56       		.byte	0x56
 16429 104e 70000000 		.4byte	.LVL461
 16430 1052 B4000000 		.4byte	.LVL471
 16431 1056 0100     		.2byte	0x1
 16432 1058 56       		.byte	0x56
 16433 1059 00000000 		.4byte	0
 16434 105d 00000000 		.4byte	0
 16435              	.LLST103:
 16436 1061 3A000000 		.4byte	.LVL451
 16437 1065 70000000 		.4byte	.LVL461
 16438 1069 0100     		.2byte	0x1
 16439 106b 55       		.byte	0x55
 16440 106c 00000000 		.4byte	0
 16441 1070 00000000 		.4byte	0
 16442              	.LLST104:
 16443 1074 42000000 		.4byte	.LVL452
 16444 1078 70000000 		.4byte	.LVL461
 16445 107c 0100     		.2byte	0x1
 16446 107e 54       		.byte	0x54
 16447 107f 00000000 		.4byte	0
 16448 1083 00000000 		.4byte	0
 16449              	.LLST105:
 16450 1087 00000000 		.4byte	.LVL472
 16451 108b 0A000000 		.4byte	.LVL473
 16452 108f 0100     		.2byte	0x1
 16453 1091 50       		.byte	0x50
 16454 1092 0A000000 		.4byte	.LVL473
ARM GAS  C:\Users\FRANKL~1\AppData\Local\Temp\ccjWonOy.s 			page 330


 16455 1096 BA000000 		.4byte	.LVL498
 16456 109a 0100     		.2byte	0x1
 16457 109c 54       		.byte	0x54
 16458 109d 00000000 		.4byte	0
 16459 10a1 00000000 		.4byte	0
 16460              	.LLST106:
 16461 10a5 20000000 		.4byte	.LVL475
 16462 10a9 26000000 		.4byte	.LVL476
 16463 10ad 0100     		.2byte	0x1
 16464 10af 53       		.byte	0x53
 16465 10b0 26000000 		.4byte	.LVL476
 16466 10b4 2A000000 		.4byte	.LVL477
 16467 10b8 0100     		.2byte	0x1
 16468 10ba 50       		.byte	0x50
 16469 10bb 3A000000 		.4byte	.LVL480
 16470 10bf 40000000 		.4byte	.LVL481
 16471 10c3 0100     		.2byte	0x1
 16472 10c5 53       		.byte	0x53
 16473 10c6 40000000 		.4byte	.LVL481
 16474 10ca 44000000 		.4byte	.LVL482
 16475 10ce 0100     		.2byte	0x1
 16476 10d0 50       		.byte	0x50
 16477 10d1 52000000 		.4byte	.LVL485
 16478 10d5 57000000 		.4byte	.LVL486-1
 16479 10d9 0100     		.2byte	0x1
 16480 10db 53       		.byte	0x53
 16481 10dc 00000000 		.4byte	0
 16482 10e0 00000000 		.4byte	0
 16483              	.LLST107:
 16484 10e4 68000000 		.4byte	.LVL487
 16485 10e8 AC000000 		.4byte	.LVL494
 16486 10ec 0100     		.2byte	0x1
 16487 10ee 56       		.byte	0x56
 16488 10ef 00000000 		.4byte	0
 16489 10f3 00000000 		.4byte	0
 16490              	.LLST108:
 16491 10f7 76000000 		.4byte	.LVL488
 16492 10fb B2000000 		.4byte	.LVL495
 16493 10ff 0100     		.2byte	0x1
 16494 1101 50       		.byte	0x50
 16495 1102 00000000 		.4byte	0
 16496 1106 00000000 		.4byte	0
 16497              	.LLST109:
 16498 110a 88000000 		.4byte	.LVL489
 16499 110e A0000000 		.4byte	.LVL492
 16500 1112 0100     		.2byte	0x1
 16501 1114 52       		.byte	0x52
 16502 1115 00000000 		.4byte	0
 16503 1119 00000000 		.4byte	0
 16504              	.LLST110:
 16505 111d 96000000 		.4byte	.LVL490
 16506 1121 A6000000 		.4byte	.LVL493
 16507 1125 0100     		.2byte	0x1
 16508 1127 53       		.byte	0x53
 16509 1128 00000000 		.4byte	0
 16510 112c 00000000 		.4byte	0
 16511              	.LLST111:
ARM GAS  C:\Users\FRANKL~1\AppData\Local\Temp\ccjWonOy.s 			page 331


 16512 1130 9A000000 		.4byte	.LVL491
 16513 1134 A0000000 		.4byte	.LVL492
 16514 1138 0100     		.2byte	0x1
 16515 113a 51       		.byte	0x51
 16516 113b A0000000 		.4byte	.LVL492
 16517 113f A6000000 		.4byte	.LVL493
 16518 1143 0100     		.2byte	0x1
 16519 1145 52       		.byte	0x52
 16520 1146 A6000000 		.4byte	.LVL493
 16521 114a AC000000 		.4byte	.LVL494
 16522 114e 0100     		.2byte	0x1
 16523 1150 53       		.byte	0x53
 16524 1151 AC000000 		.4byte	.LVL494
 16525 1155 B2000000 		.4byte	.LVL495
 16526 1159 0100     		.2byte	0x1
 16527 115b 56       		.byte	0x56
 16528 115c B2000000 		.4byte	.LVL495
 16529 1160 B4000000 		.4byte	.LVL496
 16530 1164 0100     		.2byte	0x1
 16531 1166 50       		.byte	0x50
 16532 1167 00000000 		.4byte	0
 16533 116b 00000000 		.4byte	0
 16534              	.LLST112:
 16535 116f 00000000 		.4byte	.LVL499
 16536 1173 0A000000 		.4byte	.LVL500
 16537 1177 0100     		.2byte	0x1
 16538 1179 50       		.byte	0x50
 16539 117a 0A000000 		.4byte	.LVL500
 16540 117e BA000000 		.4byte	.LVL525
 16541 1182 0100     		.2byte	0x1
 16542 1184 54       		.byte	0x54
 16543 1185 00000000 		.4byte	0
 16544 1189 00000000 		.4byte	0
 16545              	.LLST113:
 16546 118d 20000000 		.4byte	.LVL502
 16547 1191 26000000 		.4byte	.LVL503
 16548 1195 0100     		.2byte	0x1
 16549 1197 53       		.byte	0x53
 16550 1198 26000000 		.4byte	.LVL503
 16551 119c 2A000000 		.4byte	.LVL504
 16552 11a0 0100     		.2byte	0x1
 16553 11a2 50       		.byte	0x50
 16554 11a3 3A000000 		.4byte	.LVL507
 16555 11a7 40000000 		.4byte	.LVL508
 16556 11ab 0100     		.2byte	0x1
 16557 11ad 53       		.byte	0x53
 16558 11ae 40000000 		.4byte	.LVL508
 16559 11b2 44000000 		.4byte	.LVL509
 16560 11b6 0100     		.2byte	0x1
 16561 11b8 50       		.byte	0x50
 16562 11b9 52000000 		.4byte	.LVL512
 16563 11bd 57000000 		.4byte	.LVL513-1
 16564 11c1 0100     		.2byte	0x1
 16565 11c3 53       		.byte	0x53
 16566 11c4 00000000 		.4byte	0
 16567 11c8 00000000 		.4byte	0
 16568              	.LLST114:
ARM GAS  C:\Users\FRANKL~1\AppData\Local\Temp\ccjWonOy.s 			page 332


 16569 11cc 6E000000 		.4byte	.LVL514
 16570 11d0 A0000000 		.4byte	.LVL519
 16571 11d4 0100     		.2byte	0x1
 16572 11d6 52       		.byte	0x52
 16573 11d7 00000000 		.4byte	0
 16574 11db 00000000 		.4byte	0
 16575              	.LLST115:
 16576 11df 7C000000 		.4byte	.LVL515
 16577 11e3 A6000000 		.4byte	.LVL520
 16578 11e7 0100     		.2byte	0x1
 16579 11e9 53       		.byte	0x53
 16580 11ea 00000000 		.4byte	0
 16581 11ee 00000000 		.4byte	0
 16582              	.LLST116:
 16583 11f2 88000000 		.4byte	.LVL516
 16584 11f6 AC000000 		.4byte	.LVL521
 16585 11fa 0100     		.2byte	0x1
 16586 11fc 56       		.byte	0x56
 16587 11fd 00000000 		.4byte	0
 16588 1201 00000000 		.4byte	0
 16589              	.LLST117:
 16590 1205 96000000 		.4byte	.LVL517
 16591 1209 B2000000 		.4byte	.LVL522
 16592 120d 0100     		.2byte	0x1
 16593 120f 50       		.byte	0x50
 16594 1210 00000000 		.4byte	0
 16595 1214 00000000 		.4byte	0
 16596              	.LLST118:
 16597 1218 9A000000 		.4byte	.LVL518
 16598 121c A0000000 		.4byte	.LVL519
 16599 1220 0100     		.2byte	0x1
 16600 1222 51       		.byte	0x51
 16601 1223 A0000000 		.4byte	.LVL519
 16602 1227 A6000000 		.4byte	.LVL520
 16603 122b 0100     		.2byte	0x1
 16604 122d 52       		.byte	0x52
 16605 122e A6000000 		.4byte	.LVL520
 16606 1232 AC000000 		.4byte	.LVL521
 16607 1236 0100     		.2byte	0x1
 16608 1238 53       		.byte	0x53
 16609 1239 AC000000 		.4byte	.LVL521
 16610 123d B2000000 		.4byte	.LVL522
 16611 1241 0100     		.2byte	0x1
 16612 1243 56       		.byte	0x56
 16613 1244 B2000000 		.4byte	.LVL522
 16614 1248 B4000000 		.4byte	.LVL523
 16615 124c 0100     		.2byte	0x1
 16616 124e 50       		.byte	0x50
 16617 124f 00000000 		.4byte	0
 16618 1253 00000000 		.4byte	0
 16619              	.LLST119:
 16620 1257 00000000 		.4byte	.LVL526
 16621 125b 05000000 		.4byte	.LVL527-1
 16622 125f 0100     		.2byte	0x1
 16623 1261 50       		.byte	0x50
 16624 1262 05000000 		.4byte	.LVL527-1
 16625 1266 38000000 		.4byte	.LFE105
ARM GAS  C:\Users\FRANKL~1\AppData\Local\Temp\ccjWonOy.s 			page 333


 16626 126a 0600     		.2byte	0x6
 16627 126c F3       		.byte	0xf3
 16628 126d 03       		.uleb128 0x3
 16629 126e F5       		.byte	0xf5
 16630 126f 00       		.uleb128 0
 16631 1270 25       		.uleb128 0x25
 16632 1271 9F       		.byte	0x9f
 16633 1272 00000000 		.4byte	0
 16634 1276 00000000 		.4byte	0
 16635              	.LLST120:
 16636 127a 00000000 		.4byte	.LVL532
 16637 127e 05000000 		.4byte	.LVL533-1
 16638 1282 0100     		.2byte	0x1
 16639 1284 50       		.byte	0x50
 16640 1285 05000000 		.4byte	.LVL533-1
 16641 1289 38000000 		.4byte	.LFE106
 16642 128d 0600     		.2byte	0x6
 16643 128f F3       		.byte	0xf3
 16644 1290 03       		.uleb128 0x3
 16645 1291 F5       		.byte	0xf5
 16646 1292 00       		.uleb128 0
 16647 1293 25       		.uleb128 0x25
 16648 1294 9F       		.byte	0x9f
 16649 1295 00000000 		.4byte	0
 16650 1299 00000000 		.4byte	0
 16651              	.LLST121:
 16652 129d 00000000 		.4byte	.LVL538
 16653 12a1 07000000 		.4byte	.LVL539-1
 16654 12a5 0100     		.2byte	0x1
 16655 12a7 50       		.byte	0x50
 16656 12a8 07000000 		.4byte	.LVL539-1
 16657 12ac 14000000 		.4byte	.LFE107
 16658 12b0 0600     		.2byte	0x6
 16659 12b2 F3       		.byte	0xf3
 16660 12b3 03       		.uleb128 0x3
 16661 12b4 F5       		.byte	0xf5
 16662 12b5 00       		.uleb128 0
 16663 12b6 25       		.uleb128 0x25
 16664 12b7 9F       		.byte	0x9f
 16665 12b8 00000000 		.4byte	0
 16666 12bc 00000000 		.4byte	0
 16667              	.LLST122:
 16668 12c0 00000000 		.4byte	.LVL541
 16669 12c4 07000000 		.4byte	.LVL542-1
 16670 12c8 0100     		.2byte	0x1
 16671 12ca 50       		.byte	0x50
 16672 12cb 07000000 		.4byte	.LVL542-1
 16673 12cf 14000000 		.4byte	.LFE108
 16674 12d3 0600     		.2byte	0x6
 16675 12d5 F3       		.byte	0xf3
 16676 12d6 03       		.uleb128 0x3
 16677 12d7 F5       		.byte	0xf5
 16678 12d8 00       		.uleb128 0
 16679 12d9 25       		.uleb128 0x25
 16680 12da 9F       		.byte	0x9f
 16681 12db 00000000 		.4byte	0
 16682 12df 00000000 		.4byte	0
ARM GAS  C:\Users\FRANKL~1\AppData\Local\Temp\ccjWonOy.s 			page 334


 16683              	.LLST123:
 16684 12e3 00000000 		.4byte	.LVL548
 16685 12e7 0E000000 		.4byte	.LVL550
 16686 12eb 0100     		.2byte	0x1
 16687 12ed 50       		.byte	0x50
 16688 12ee 0E000000 		.4byte	.LVL550
 16689 12f2 72000000 		.4byte	.LVL564
 16690 12f6 0100     		.2byte	0x1
 16691 12f8 55       		.byte	0x55
 16692 12f9 72000000 		.4byte	.LVL564
 16693 12fd A8000000 		.4byte	.LFE110
 16694 1301 0400     		.2byte	0x4
 16695 1303 F3       		.byte	0xf3
 16696 1304 01       		.uleb128 0x1
 16697 1305 50       		.byte	0x50
 16698 1306 9F       		.byte	0x9f
 16699 1307 00000000 		.4byte	0
 16700 130b 00000000 		.4byte	0
 16701              	.LLST124:
 16702 130f 0A000000 		.4byte	.LVL549
 16703 1313 94000000 		.4byte	.LVL567
 16704 1317 0100     		.2byte	0x1
 16705 1319 56       		.byte	0x56
 16706 131a 00000000 		.4byte	0
 16707 131e 00000000 		.4byte	0
 16708              	.LLST125:
 16709 1322 1E000000 		.4byte	.LVL553
 16710 1326 20000000 		.4byte	.LVL554
 16711 132a 0200     		.2byte	0x2
 16712 132c 30       		.byte	0x30
 16713 132d 9F       		.byte	0x9f
 16714 132e 20000000 		.4byte	.LVL554
 16715 1332 64000000 		.4byte	.LVL561
 16716 1336 0100     		.2byte	0x1
 16717 1338 54       		.byte	0x54
 16718 1339 66000000 		.4byte	.LVL562
 16719 133d 74000000 		.4byte	.LVL565
 16720 1341 0100     		.2byte	0x1
 16721 1343 54       		.byte	0x54
 16722 1344 00000000 		.4byte	0
 16723 1348 00000000 		.4byte	0
 16724              	.LLST126:
 16725 134c 00000000 		.4byte	.LVL568
 16726 1350 14000000 		.4byte	.LVL571
 16727 1354 0100     		.2byte	0x1
 16728 1356 50       		.byte	0x50
 16729 1357 14000000 		.4byte	.LVL571
 16730 135b 17000000 		.4byte	.LVL572-1
 16731 135f 0100     		.2byte	0x1
 16732 1361 52       		.byte	0x52
 16733 1362 17000000 		.4byte	.LVL572-1
 16734 1366 5C000000 		.4byte	.LFE111
 16735 136a 0400     		.2byte	0x4
 16736 136c F3       		.byte	0xf3
 16737 136d 01       		.uleb128 0x1
 16738 136e 50       		.byte	0x50
 16739 136f 9F       		.byte	0x9f
ARM GAS  C:\Users\FRANKL~1\AppData\Local\Temp\ccjWonOy.s 			page 335


 16740 1370 00000000 		.4byte	0
 16741 1374 00000000 		.4byte	0
 16742              	.LLST127:
 16743 1378 00000000 		.4byte	.LVL568
 16744 137c 0A000000 		.4byte	.LVL569
 16745 1380 0100     		.2byte	0x1
 16746 1382 51       		.byte	0x51
 16747 1383 0A000000 		.4byte	.LVL569
 16748 1387 5C000000 		.4byte	.LFE111
 16749 138b 0400     		.2byte	0x4
 16750 138d F3       		.byte	0xf3
 16751 138e 01       		.uleb128 0x1
 16752 138f 51       		.byte	0x51
 16753 1390 9F       		.byte	0x9f
 16754 1391 00000000 		.4byte	0
 16755 1395 00000000 		.4byte	0
 16756              	.LLST128:
 16757 1399 00000000 		.4byte	.LVL568
 16758 139d 12000000 		.4byte	.LVL570
 16759 13a1 0100     		.2byte	0x1
 16760 13a3 52       		.byte	0x52
 16761 13a4 12000000 		.4byte	.LVL570
 16762 13a8 5C000000 		.4byte	.LFE111
 16763 13ac 0400     		.2byte	0x4
 16764 13ae F3       		.byte	0xf3
 16765 13af 01       		.uleb128 0x1
 16766 13b0 52       		.byte	0x52
 16767 13b1 9F       		.byte	0x9f
 16768 13b2 00000000 		.4byte	0
 16769 13b6 00000000 		.4byte	0
 16770              	.LLST129:
 16771 13ba 00000000 		.4byte	.LVL580
 16772 13be 08000000 		.4byte	.LVL582
 16773 13c2 0100     		.2byte	0x1
 16774 13c4 50       		.byte	0x50
 16775 13c5 08000000 		.4byte	.LVL582
 16776 13c9 1A000000 		.4byte	.LFE112
 16777 13cd 0100     		.2byte	0x1
 16778 13cf 55       		.byte	0x55
 16779 13d0 00000000 		.4byte	0
 16780 13d4 00000000 		.4byte	0
 16781              	.LLST130:
 16782 13d8 04000000 		.4byte	.LVL581
 16783 13dc 08000000 		.4byte	.LVL582
 16784 13e0 0200     		.2byte	0x2
 16785 13e2 30       		.byte	0x30
 16786 13e3 9F       		.byte	0x9f
 16787 13e4 08000000 		.4byte	.LVL582
 16788 13e8 1A000000 		.4byte	.LFE112
 16789 13ec 0100     		.2byte	0x1
 16790 13ee 54       		.byte	0x54
 16791 13ef 00000000 		.4byte	0
 16792 13f3 00000000 		.4byte	0
 16793              	.LLST131:
 16794 13f7 0E000000 		.4byte	.LVL586
 16795 13fb 12000000 		.4byte	.LVL587
 16796 13ff 0200     		.2byte	0x2
ARM GAS  C:\Users\FRANKL~1\AppData\Local\Temp\ccjWonOy.s 			page 336


 16797 1401 30       		.byte	0x30
 16798 1402 9F       		.byte	0x9f
 16799 1403 12000000 		.4byte	.LVL587
 16800 1407 24000000 		.4byte	.LVL590
 16801 140b 0100     		.2byte	0x1
 16802 140d 54       		.byte	0x54
 16803 140e 26000000 		.4byte	.LVL591
 16804 1412 2C000000 		.4byte	.LFE113
 16805 1416 0100     		.2byte	0x1
 16806 1418 54       		.byte	0x54
 16807 1419 00000000 		.4byte	0
 16808 141d 00000000 		.4byte	0
 16809              	.LLST132:
 16810 1421 00000000 		.4byte	.LVL592
 16811 1425 14000000 		.4byte	.LVL593
 16812 1429 0100     		.2byte	0x1
 16813 142b 50       		.byte	0x50
 16814 142c 14000000 		.4byte	.LVL593
 16815 1430 20000000 		.4byte	.LVL595
 16816 1434 0400     		.2byte	0x4
 16817 1436 F3       		.byte	0xf3
 16818 1437 01       		.uleb128 0x1
 16819 1438 50       		.byte	0x50
 16820 1439 9F       		.byte	0x9f
 16821 143a 20000000 		.4byte	.LVL595
 16822 143e 22000000 		.4byte	.LVL596
 16823 1442 0100     		.2byte	0x1
 16824 1444 50       		.byte	0x50
 16825 1445 22000000 		.4byte	.LVL596
 16826 1449 AC000000 		.4byte	.LFE114
 16827 144d 0400     		.2byte	0x4
 16828 144f F3       		.byte	0xf3
 16829 1450 01       		.uleb128 0x1
 16830 1451 50       		.byte	0x50
 16831 1452 9F       		.byte	0x9f
 16832 1453 00000000 		.4byte	0
 16833 1457 00000000 		.4byte	0
 16834              	.LLST133:
 16835 145b 28000000 		.4byte	.LVL598
 16836 145f 98000000 		.4byte	.LVL614
 16837 1463 0100     		.2byte	0x1
 16838 1465 58       		.byte	0x58
 16839 1466 9C000000 		.4byte	.LVL615
 16840 146a A4000000 		.4byte	.LVL616
 16841 146e 0100     		.2byte	0x1
 16842 1470 58       		.byte	0x58
 16843 1471 00000000 		.4byte	0
 16844 1475 00000000 		.4byte	0
 16845              	.LLST134:
 16846 1479 28000000 		.4byte	.LVL598
 16847 147d 4E000000 		.4byte	.LVL603
 16848 1481 0200     		.2byte	0x2
 16849 1483 40       		.byte	0x40
 16850 1484 9F       		.byte	0x9f
 16851 1485 4E000000 		.4byte	.LVL603
 16852 1489 50000000 		.4byte	.LVL604
 16853 148d 0100     		.2byte	0x1
ARM GAS  C:\Users\FRANKL~1\AppData\Local\Temp\ccjWonOy.s 			page 337


 16854 148f 57       		.byte	0x57
 16855 1490 00000000 		.4byte	0
 16856 1494 00000000 		.4byte	0
 16857              	.LLST135:
 16858 1498 28000000 		.4byte	.LVL598
 16859 149c 36000000 		.4byte	.LVL599
 16860 14a0 0200     		.2byte	0x2
 16861 14a2 30       		.byte	0x30
 16862 14a3 9F       		.byte	0x9f
 16863 14a4 36000000 		.4byte	.LVL599
 16864 14a8 38000000 		.4byte	.LVL600
 16865 14ac 0100     		.2byte	0x1
 16866 14ae 55       		.byte	0x55
 16867 14af 38000000 		.4byte	.LVL600
 16868 14b3 3A000000 		.4byte	.LVL601
 16869 14b7 0200     		.2byte	0x2
 16870 14b9 30       		.byte	0x30
 16871 14ba 9F       		.byte	0x9f
 16872 14bb 3A000000 		.4byte	.LVL601
 16873 14bf 4A000000 		.4byte	.LVL602
 16874 14c3 0100     		.2byte	0x1
 16875 14c5 55       		.byte	0x55
 16876 14c6 4E000000 		.4byte	.LVL603
 16877 14ca 50000000 		.4byte	.LVL604
 16878 14ce 0100     		.2byte	0x1
 16879 14d0 55       		.byte	0x55
 16880 14d1 00000000 		.4byte	0
 16881 14d5 00000000 		.4byte	0
 16882              	.LLST136:
 16883 14d9 3A000000 		.4byte	.LVL601
 16884 14dd 4E000000 		.4byte	.LVL603
 16885 14e1 0300     		.2byte	0x3
 16886 14e3 09       		.byte	0x9
 16887 14e4 F0       		.byte	0xf0
 16888 14e5 9F       		.byte	0x9f
 16889 14e6 4E000000 		.4byte	.LVL603
 16890 14ea 50000000 		.4byte	.LVL604
 16891 14ee 0100     		.2byte	0x1
 16892 14f0 56       		.byte	0x56
 16893 14f1 00000000 		.4byte	0
 16894 14f5 00000000 		.4byte	0
 16895              	.LLST137:
 16896 14f9 4E000000 		.4byte	.LVL603
 16897 14fd 8E000000 		.4byte	.LVL612
 16898 1501 0100     		.2byte	0x1
 16899 1503 55       		.byte	0x55
 16900 1504 90000000 		.4byte	.LVL613
 16901 1508 9C000000 		.4byte	.LVL615
 16902 150c 0100     		.2byte	0x1
 16903 150e 55       		.byte	0x55
 16904 150f 00000000 		.4byte	0
 16905 1513 00000000 		.4byte	0
 16906              	.LLST138:
 16907 1517 50000000 		.4byte	.LVL604
 16908 151b 82000000 		.4byte	.LVL608
 16909 151f 0100     		.2byte	0x1
 16910 1521 54       		.byte	0x54
ARM GAS  C:\Users\FRANKL~1\AppData\Local\Temp\ccjWonOy.s 			page 338


 16911 1522 84000000 		.4byte	.LVL609
 16912 1526 86000000 		.4byte	.LVL610
 16913 152a 0100     		.2byte	0x1
 16914 152c 54       		.byte	0x54
 16915 152d 88000000 		.4byte	.LVL611
 16916 1531 90000000 		.4byte	.LVL613
 16917 1535 0100     		.2byte	0x1
 16918 1537 54       		.byte	0x54
 16919 1538 00000000 		.4byte	0
 16920 153c 00000000 		.4byte	0
 16921              	.LLST139:
 16922 1540 00000000 		.4byte	.LVL617
 16923 1544 08000000 		.4byte	.LVL618
 16924 1548 0100     		.2byte	0x1
 16925 154a 50       		.byte	0x50
 16926 154b 08000000 		.4byte	.LVL618
 16927 154f 84000000 		.4byte	.LFE115
 16928 1553 0400     		.2byte	0x4
 16929 1555 F3       		.byte	0xf3
 16930 1556 01       		.uleb128 0x1
 16931 1557 50       		.byte	0x50
 16932 1558 9F       		.byte	0x9f
 16933 1559 00000000 		.4byte	0
 16934 155d 00000000 		.4byte	0
 16935              	.LLST140:
 16936 1561 0C000000 		.4byte	.LVL619
 16937 1565 12000000 		.4byte	.LVL620
 16938 1569 0200     		.2byte	0x2
 16939 156b 30       		.byte	0x30
 16940 156c 9F       		.byte	0x9f
 16941 156d 12000000 		.4byte	.LVL620
 16942 1571 72000000 		.4byte	.LVL632
 16943 1575 0100     		.2byte	0x1
 16944 1577 58       		.byte	0x58
 16945 1578 76000000 		.4byte	.LVL633
 16946 157c 7E000000 		.4byte	.LVL634
 16947 1580 0100     		.2byte	0x1
 16948 1582 58       		.byte	0x58
 16949 1583 00000000 		.4byte	0
 16950 1587 00000000 		.4byte	0
 16951              	.LLST141:
 16952 158b 12000000 		.4byte	.LVL620
 16953 158f 28000000 		.4byte	.LVL621
 16954 1593 0200     		.2byte	0x2
 16955 1595 40       		.byte	0x40
 16956 1596 9F       		.byte	0x9f
 16957 1597 28000000 		.4byte	.LVL621
 16958 159b 2A000000 		.4byte	.LVL622
 16959 159f 0100     		.2byte	0x1
 16960 15a1 57       		.byte	0x57
 16961 15a2 00000000 		.4byte	0
 16962 15a6 00000000 		.4byte	0
 16963              	.LLST142:
 16964 15aa 12000000 		.4byte	.LVL620
 16965 15ae 28000000 		.4byte	.LVL621
 16966 15b2 0200     		.2byte	0x2
 16967 15b4 30       		.byte	0x30
ARM GAS  C:\Users\FRANKL~1\AppData\Local\Temp\ccjWonOy.s 			page 339


 16968 15b5 9F       		.byte	0x9f
 16969 15b6 28000000 		.4byte	.LVL621
 16970 15ba 2A000000 		.4byte	.LVL622
 16971 15be 0100     		.2byte	0x1
 16972 15c0 55       		.byte	0x55
 16973 15c1 00000000 		.4byte	0
 16974 15c5 00000000 		.4byte	0
 16975              	.LLST143:
 16976 15c9 12000000 		.4byte	.LVL620
 16977 15cd 28000000 		.4byte	.LVL621
 16978 15d1 0300     		.2byte	0x3
 16979 15d3 09       		.byte	0x9
 16980 15d4 F0       		.byte	0xf0
 16981 15d5 9F       		.byte	0x9f
 16982 15d6 28000000 		.4byte	.LVL621
 16983 15da 2A000000 		.4byte	.LVL622
 16984 15de 0100     		.2byte	0x1
 16985 15e0 56       		.byte	0x56
 16986 15e1 00000000 		.4byte	0
 16987 15e5 00000000 		.4byte	0
 16988              	.LLST144:
 16989 15e9 28000000 		.4byte	.LVL621
 16990 15ed 68000000 		.4byte	.LVL630
 16991 15f1 0100     		.2byte	0x1
 16992 15f3 55       		.byte	0x55
 16993 15f4 6A000000 		.4byte	.LVL631
 16994 15f8 76000000 		.4byte	.LVL633
 16995 15fc 0100     		.2byte	0x1
 16996 15fe 55       		.byte	0x55
 16997 15ff 00000000 		.4byte	0
 16998 1603 00000000 		.4byte	0
 16999              	.LLST145:
 17000 1607 2A000000 		.4byte	.LVL622
 17001 160b 5C000000 		.4byte	.LVL626
 17002 160f 0100     		.2byte	0x1
 17003 1611 54       		.byte	0x54
 17004 1612 5E000000 		.4byte	.LVL627
 17005 1616 60000000 		.4byte	.LVL628
 17006 161a 0100     		.2byte	0x1
 17007 161c 54       		.byte	0x54
 17008 161d 62000000 		.4byte	.LVL629
 17009 1621 6A000000 		.4byte	.LVL631
 17010 1625 0100     		.2byte	0x1
 17011 1627 54       		.byte	0x54
 17012 1628 00000000 		.4byte	0
 17013 162c 00000000 		.4byte	0
 17014              	.LLST146:
 17015 1630 04000000 		.4byte	.LVL635
 17016 1634 10000000 		.4byte	.LVL636
 17017 1638 0200     		.2byte	0x2
 17018 163a 31       		.byte	0x31
 17019 163b 9F       		.byte	0x9f
 17020 163c 10000000 		.4byte	.LVL636
 17021 1640 40000000 		.4byte	.LVL641
 17022 1644 0100     		.2byte	0x1
 17023 1646 54       		.byte	0x54
 17024 1647 40000000 		.4byte	.LVL641
ARM GAS  C:\Users\FRANKL~1\AppData\Local\Temp\ccjWonOy.s 			page 340


 17025 164b 84000000 		.4byte	.LVL649
 17026 164f 0100     		.2byte	0x1
 17027 1651 58       		.byte	0x58
 17028 1652 84000000 		.4byte	.LVL649
 17029 1656 8E000000 		.4byte	.LVL650
 17030 165a 0100     		.2byte	0x1
 17031 165c 54       		.byte	0x54
 17032 165d 00000000 		.4byte	0
 17033 1661 00000000 		.4byte	0
 17034              	.LLST147:
 17035 1665 04000000 		.4byte	.LVL635
 17036 1669 10000000 		.4byte	.LVL636
 17037 166d 0200     		.2byte	0x2
 17038 166f 30       		.byte	0x30
 17039 1670 9F       		.byte	0x9f
 17040 1671 10000000 		.4byte	.LVL636
 17041 1675 66000000 		.4byte	.LVL645
 17042 1679 0100     		.2byte	0x1
 17043 167b 55       		.byte	0x55
 17044 167c 68000000 		.4byte	.LVL646
 17045 1680 92000000 		.4byte	.LVL651
 17046 1684 0100     		.2byte	0x1
 17047 1686 55       		.byte	0x55
 17048 1687 00000000 		.4byte	0
 17049 168b 00000000 		.4byte	0
 17050              	.LLST148:
 17051 168f 04000000 		.4byte	.LVL635
 17052 1693 10000000 		.4byte	.LVL636
 17053 1697 0200     		.2byte	0x2
 17054 1699 30       		.byte	0x30
 17055 169a 9F       		.byte	0x9f
 17056 169b 10000000 		.4byte	.LVL636
 17057 169f 30000000 		.4byte	.LVL639
 17058 16a3 0100     		.2byte	0x1
 17059 16a5 59       		.byte	0x59
 17060 16a6 34000000 		.4byte	.LVL640
 17061 16aa 92000000 		.4byte	.LVL651
 17062 16ae 0100     		.2byte	0x1
 17063 16b0 59       		.byte	0x59
 17064 16b1 00000000 		.4byte	0
 17065 16b5 00000000 		.4byte	0
 17066              	.LLST149:
 17067 16b9 04000000 		.4byte	.LVL635
 17068 16bd 10000000 		.4byte	.LVL636
 17069 16c1 0200     		.2byte	0x2
 17070 16c3 30       		.byte	0x30
 17071 16c4 9F       		.byte	0x9f
 17072 16c5 10000000 		.4byte	.LVL636
 17073 16c9 6C000000 		.4byte	.LVL647
 17074 16cd 0100     		.2byte	0x1
 17075 16cf 56       		.byte	0x56
 17076 16d0 6E000000 		.4byte	.LVL648
 17077 16d4 92000000 		.4byte	.LVL651
 17078 16d8 0100     		.2byte	0x1
 17079 16da 56       		.byte	0x56
 17080 16db 00000000 		.4byte	0
 17081 16df 00000000 		.4byte	0
ARM GAS  C:\Users\FRANKL~1\AppData\Local\Temp\ccjWonOy.s 			page 341


 17082              	.LLST150:
 17083 16e3 04000000 		.4byte	.LVL635
 17084 16e7 10000000 		.4byte	.LVL636
 17085 16eb 0200     		.2byte	0x2
 17086 16ed 30       		.byte	0x30
 17087 16ee 9F       		.byte	0x9f
 17088 16ef 10000000 		.4byte	.LVL636
 17089 16f3 1E000000 		.4byte	.LVL637
 17090 16f7 0100     		.2byte	0x1
 17091 16f9 57       		.byte	0x57
 17092 16fa 20000000 		.4byte	.LVL638
 17093 16fe 92000000 		.4byte	.LVL651
 17094 1702 0100     		.2byte	0x1
 17095 1704 57       		.byte	0x57
 17096 1705 00000000 		.4byte	0
 17097 1709 00000000 		.4byte	0
 17098              	.LLST151:
 17099 170d 00000000 		.4byte	.LVL652
 17100 1711 0A000000 		.4byte	.LVL654
 17101 1715 0100     		.2byte	0x1
 17102 1717 50       		.byte	0x50
 17103 1718 0A000000 		.4byte	.LVL654
 17104 171c 7C000000 		.4byte	.LFE117
 17105 1720 0400     		.2byte	0x4
 17106 1722 F3       		.byte	0xf3
 17107 1723 01       		.uleb128 0x1
 17108 1724 50       		.byte	0x50
 17109 1725 9F       		.byte	0x9f
 17110 1726 00000000 		.4byte	0
 17111 172a 00000000 		.4byte	0
 17112              	.LLST152:
 17113 172e 00000000 		.4byte	.LVL652
 17114 1732 0A000000 		.4byte	.LVL654
 17115 1736 0100     		.2byte	0x1
 17116 1738 51       		.byte	0x51
 17117 1739 0A000000 		.4byte	.LVL654
 17118 173d 7C000000 		.4byte	.LFE117
 17119 1741 0400     		.2byte	0x4
 17120 1743 F3       		.byte	0xf3
 17121 1744 01       		.uleb128 0x1
 17122 1745 51       		.byte	0x51
 17123 1746 9F       		.byte	0x9f
 17124 1747 00000000 		.4byte	0
 17125 174b 00000000 		.4byte	0
 17126              	.LLST153:
 17127 174f 06000000 		.4byte	.LVL653
 17128 1753 0A000000 		.4byte	.LVL654
 17129 1757 0200     		.2byte	0x2
 17130 1759 31       		.byte	0x31
 17131 175a 9F       		.byte	0x9f
 17132 175b 0A000000 		.4byte	.LVL654
 17133 175f 6E000000 		.4byte	.LVL666
 17134 1763 0100     		.2byte	0x1
 17135 1765 54       		.byte	0x54
 17136 1766 00000000 		.4byte	0
 17137 176a 00000000 		.4byte	0
 17138              	.LLST154:
ARM GAS  C:\Users\FRANKL~1\AppData\Local\Temp\ccjWonOy.s 			page 342


 17139 176e 0A000000 		.4byte	.LVL654
 17140 1772 68000000 		.4byte	.LVL665
 17141 1776 0100     		.2byte	0x1
 17142 1778 54       		.byte	0x54
 17143 1779 00000000 		.4byte	0
 17144 177d 00000000 		.4byte	0
 17145              	.LLST155:
 17146 1781 0E000000 		.4byte	.LVL655
 17147 1785 68000000 		.4byte	.LVL665
 17148 1789 0100     		.2byte	0x1
 17149 178b 55       		.byte	0x55
 17150 178c 00000000 		.4byte	0
 17151 1790 00000000 		.4byte	0
 17152              	.LLST156:
 17153 1794 0E000000 		.4byte	.LVL655
 17154 1798 68000000 		.4byte	.LVL665
 17155 179c 0200     		.2byte	0x2
 17156 179e 31       		.byte	0x31
 17157 179f 9F       		.byte	0x9f
 17158 17a0 00000000 		.4byte	0
 17159 17a4 00000000 		.4byte	0
 17160              	.LLST157:
 17161 17a8 0E000000 		.4byte	.LVL655
 17162 17ac 68000000 		.4byte	.LVL665
 17163 17b0 0200     		.2byte	0x2
 17164 17b2 32       		.byte	0x32
 17165 17b3 9F       		.byte	0x9f
 17166 17b4 00000000 		.4byte	0
 17167 17b8 00000000 		.4byte	0
 17168              	.LLST158:
 17169 17bc 00000000 		.4byte	.LVL667
 17170 17c0 18000000 		.4byte	.LVL668
 17171 17c4 0100     		.2byte	0x1
 17172 17c6 50       		.byte	0x50
 17173 17c7 18000000 		.4byte	.LVL668
 17174 17cb 7E000000 		.4byte	.LVL680
 17175 17cf 0400     		.2byte	0x4
 17176 17d1 F3       		.byte	0xf3
 17177 17d2 01       		.uleb128 0x1
 17178 17d3 50       		.byte	0x50
 17179 17d4 9F       		.byte	0x9f
 17180 17d5 7E000000 		.4byte	.LVL680
 17181 17d9 8C000000 		.4byte	.LFE118
 17182 17dd 0100     		.2byte	0x1
 17183 17df 50       		.byte	0x50
 17184 17e0 00000000 		.4byte	0
 17185 17e4 00000000 		.4byte	0
 17186              	.LLST159:
 17187 17e8 00000000 		.4byte	.LVL667
 17188 17ec 18000000 		.4byte	.LVL668
 17189 17f0 0100     		.2byte	0x1
 17190 17f2 51       		.byte	0x51
 17191 17f3 18000000 		.4byte	.LVL668
 17192 17f7 7E000000 		.4byte	.LVL680
 17193 17fb 0400     		.2byte	0x4
 17194 17fd F3       		.byte	0xf3
 17195 17fe 01       		.uleb128 0x1
ARM GAS  C:\Users\FRANKL~1\AppData\Local\Temp\ccjWonOy.s 			page 343


 17196 17ff 51       		.byte	0x51
 17197 1800 9F       		.byte	0x9f
 17198 1801 7E000000 		.4byte	.LVL680
 17199 1805 8C000000 		.4byte	.LFE118
 17200 1809 0100     		.2byte	0x1
 17201 180b 51       		.byte	0x51
 17202 180c 00000000 		.4byte	0
 17203 1810 00000000 		.4byte	0
 17204              	.LLST160:
 17205 1814 00000000 		.4byte	.LVL667
 17206 1818 18000000 		.4byte	.LVL668
 17207 181c 0100     		.2byte	0x1
 17208 181e 52       		.byte	0x52
 17209 181f 18000000 		.4byte	.LVL668
 17210 1823 7E000000 		.4byte	.LVL680
 17211 1827 0400     		.2byte	0x4
 17212 1829 F3       		.byte	0xf3
 17213 182a 01       		.uleb128 0x1
 17214 182b 52       		.byte	0x52
 17215 182c 9F       		.byte	0x9f
 17216 182d 7E000000 		.4byte	.LVL680
 17217 1831 8C000000 		.4byte	.LFE118
 17218 1835 0100     		.2byte	0x1
 17219 1837 52       		.byte	0x52
 17220 1838 00000000 		.4byte	0
 17221 183c 00000000 		.4byte	0
 17222              	.LLST161:
 17223 1840 00000000 		.4byte	.LVL667
 17224 1844 18000000 		.4byte	.LVL668
 17225 1848 0100     		.2byte	0x1
 17226 184a 53       		.byte	0x53
 17227 184b 18000000 		.4byte	.LVL668
 17228 184f 7E000000 		.4byte	.LVL680
 17229 1853 0400     		.2byte	0x4
 17230 1855 F3       		.byte	0xf3
 17231 1856 01       		.uleb128 0x1
 17232 1857 53       		.byte	0x53
 17233 1858 9F       		.byte	0x9f
 17234 1859 7E000000 		.4byte	.LVL680
 17235 185d 8C000000 		.4byte	.LFE118
 17236 1861 0100     		.2byte	0x1
 17237 1863 53       		.byte	0x53
 17238 1864 00000000 		.4byte	0
 17239 1868 00000000 		.4byte	0
 17240              	.LLST162:
 17241 186c 18000000 		.4byte	.LVL668
 17242 1870 7E000000 		.4byte	.LVL680
 17243 1874 0100     		.2byte	0x1
 17244 1876 54       		.byte	0x54
 17245 1877 00000000 		.4byte	0
 17246 187b 00000000 		.4byte	0
 17247              	.LLST163:
 17248 187f 18000000 		.4byte	.LVL668
 17249 1883 76000000 		.4byte	.LVL679
 17250 1887 0100     		.2byte	0x1
 17251 1889 54       		.byte	0x54
 17252 188a 00000000 		.4byte	0
ARM GAS  C:\Users\FRANKL~1\AppData\Local\Temp\ccjWonOy.s 			page 344


 17253 188e 00000000 		.4byte	0
 17254              	.LLST164:
 17255 1892 1C000000 		.4byte	.LVL669
 17256 1896 76000000 		.4byte	.LVL679
 17257 189a 0100     		.2byte	0x1
 17258 189c 55       		.byte	0x55
 17259 189d 00000000 		.4byte	0
 17260 18a1 00000000 		.4byte	0
 17261              	.LLST165:
 17262 18a5 1C000000 		.4byte	.LVL669
 17263 18a9 76000000 		.4byte	.LVL679
 17264 18ad 0200     		.2byte	0x2
 17265 18af 31       		.byte	0x31
 17266 18b0 9F       		.byte	0x9f
 17267 18b1 00000000 		.4byte	0
 17268 18b5 00000000 		.4byte	0
 17269              	.LLST166:
 17270 18b9 1C000000 		.4byte	.LVL669
 17271 18bd 76000000 		.4byte	.LVL679
 17272 18c1 0200     		.2byte	0x2
 17273 18c3 32       		.byte	0x32
 17274 18c4 9F       		.byte	0x9f
 17275 18c5 00000000 		.4byte	0
 17276 18c9 00000000 		.4byte	0
 17277              	.LLST167:
 17278 18cd 90000000 		.4byte	.LVL702
 17279 18d1 A0000000 		.4byte	.LVL703
 17280 18d5 0600     		.2byte	0x6
 17281 18d7 03       		.byte	0x3
 17282 18d8 00000000 		.4byte	USBUART_Receive_Buffer
 17283 18dc 9F       		.byte	0x9f
 17284 18dd A0000000 		.4byte	.LVL703
 17285 18e1 4E020000 		.4byte	.LVL746
 17286 18e5 0100     		.2byte	0x1
 17287 18e7 54       		.byte	0x54
 17288 18e8 6A020000 		.4byte	.LVL751
 17289 18ec 90020000 		.4byte	.LVL756
 17290 18f0 0100     		.2byte	0x1
 17291 18f2 54       		.byte	0x54
 17292 18f3 AC020000 		.4byte	.LVL761
 17293 18f7 BA020000 		.4byte	.LVL763
 17294 18fb 0100     		.2byte	0x1
 17295 18fd 54       		.byte	0x54
 17296 18fe EC020000 		.4byte	.LVL767
 17297 1902 1E030000 		.4byte	.LVL771
 17298 1906 0100     		.2byte	0x1
 17299 1908 54       		.byte	0x54
 17300 1909 E0030000 		.4byte	.LVL778
 17301 190d 18040000 		.4byte	.LVL782
 17302 1911 0100     		.2byte	0x1
 17303 1913 54       		.byte	0x54
 17304 1914 5E040000 		.4byte	.LVL789
 17305 1918 98040000 		.4byte	.LVL793
 17306 191c 0100     		.2byte	0x1
 17307 191e 54       		.byte	0x54
 17308 191f E2040000 		.4byte	.LVL801
 17309 1923 F8040000 		.4byte	.LVL804
ARM GAS  C:\Users\FRANKL~1\AppData\Local\Temp\ccjWonOy.s 			page 345


 17310 1927 0100     		.2byte	0x1
 17311 1929 54       		.byte	0x54
 17312 192a 2C050000 		.4byte	.LVL812
 17313 192e 42050000 		.4byte	.LVL815
 17314 1932 0100     		.2byte	0x1
 17315 1934 54       		.byte	0x54
 17316 1935 76050000 		.4byte	.LVL823
 17317 1939 8C050000 		.4byte	.LVL826
 17318 193d 0100     		.2byte	0x1
 17319 193f 54       		.byte	0x54
 17320 1940 C0050000 		.4byte	.LVL834
 17321 1944 D6050000 		.4byte	.LVL837
 17322 1948 0100     		.2byte	0x1
 17323 194a 54       		.byte	0x54
 17324 194b 0A060000 		.4byte	.LVL845
 17325 194f 2C060000 		.4byte	.LVL849
 17326 1953 0100     		.2byte	0x1
 17327 1955 54       		.byte	0x54
 17328 1956 42060000 		.4byte	.LVL853
 17329 195a 56060000 		.4byte	.LVL856
 17330 195e 0100     		.2byte	0x1
 17331 1960 54       		.byte	0x54
 17332 1961 72060000 		.4byte	.LVL858
 17333 1965 94060000 		.4byte	.LVL862
 17334 1969 0100     		.2byte	0x1
 17335 196b 54       		.byte	0x54
 17336 196c AA060000 		.4byte	.LVL866
 17337 1970 CC060000 		.4byte	.LVL870
 17338 1974 0100     		.2byte	0x1
 17339 1976 54       		.byte	0x54
 17340 1977 40070000 		.4byte	.LVL874
 17341 197b 62070000 		.4byte	.LVL878
 17342 197f 0100     		.2byte	0x1
 17343 1981 54       		.byte	0x54
 17344 1982 78070000 		.4byte	.LVL882
 17345 1986 8C070000 		.4byte	.LVL885
 17346 198a 0100     		.2byte	0x1
 17347 198c 54       		.byte	0x54
 17348 198d A4070000 		.4byte	.LVL887
 17349 1991 B8070000 		.4byte	.LVL890
 17350 1995 0100     		.2byte	0x1
 17351 1997 54       		.byte	0x54
 17352 1998 D8070000 		.4byte	.LVL892
 17353 199c FE070000 		.4byte	.LVL896
 17354 19a0 0100     		.2byte	0x1
 17355 19a2 54       		.byte	0x54
 17356 19a3 28080000 		.4byte	.LVL899
 17357 19a7 38080000 		.4byte	.LVL901
 17358 19ab 0100     		.2byte	0x1
 17359 19ad 54       		.byte	0x54
 17360 19ae 58080000 		.4byte	.LVL903
 17361 19b2 68080000 		.4byte	.LVL905
 17362 19b6 0100     		.2byte	0x1
 17363 19b8 54       		.byte	0x54
 17364 19b9 8A080000 		.4byte	.LVL907
 17365 19bd 9A080000 		.4byte	.LVL909
 17366 19c1 0100     		.2byte	0x1
ARM GAS  C:\Users\FRANKL~1\AppData\Local\Temp\ccjWonOy.s 			page 346


 17367 19c3 54       		.byte	0x54
 17368 19c4 BC080000 		.4byte	.LVL911
 17369 19c8 CC080000 		.4byte	.LVL913
 17370 19cc 0100     		.2byte	0x1
 17371 19ce 54       		.byte	0x54
 17372 19cf EE080000 		.4byte	.LVL915
 17373 19d3 50090000 		.4byte	.LFE120
 17374 19d7 0100     		.2byte	0x1
 17375 19d9 54       		.byte	0x54
 17376 19da 00000000 		.4byte	0
 17377 19de 00000000 		.4byte	0
 17378              	.LLST168:
 17379 19e2 DE000000 		.4byte	.LVL708
 17380 19e6 E1000000 		.4byte	.LVL709-1
 17381 19ea 0100     		.2byte	0x1
 17382 19ec 50       		.byte	0x50
 17383 19ed 00000000 		.4byte	0
 17384 19f1 00000000 		.4byte	0
 17385              	.LLST169:
 17386 19f5 54010000 		.4byte	.LVL720
 17387 19f9 59010000 		.4byte	.LVL721-1
 17388 19fd 0100     		.2byte	0x1
 17389 19ff 50       		.byte	0x50
 17390 1a00 00000000 		.4byte	0
 17391 1a04 00000000 		.4byte	0
 17392              	.LLST170:
 17393 1a08 7C010000 		.4byte	.LVL724
 17394 1a0c 81010000 		.4byte	.LVL725-1
 17395 1a10 0100     		.2byte	0x1
 17396 1a12 50       		.byte	0x50
 17397 1a13 00000000 		.4byte	0
 17398 1a17 00000000 		.4byte	0
 17399              	.LLST171:
 17400 1a1b A4010000 		.4byte	.LVL728
 17401 1a1f A9010000 		.4byte	.LVL729-1
 17402 1a23 0100     		.2byte	0x1
 17403 1a25 50       		.byte	0x50
 17404 1a26 00000000 		.4byte	0
 17405 1a2a 00000000 		.4byte	0
 17406              	.LLST172:
 17407 1a2e CC010000 		.4byte	.LVL732
 17408 1a32 D1010000 		.4byte	.LVL733-1
 17409 1a36 0100     		.2byte	0x1
 17410 1a38 50       		.byte	0x50
 17411 1a39 00000000 		.4byte	0
 17412 1a3d 00000000 		.4byte	0
 17413              	.LLST173:
 17414 1a41 E8010000 		.4byte	.LVL735
 17415 1a45 F5010000 		.4byte	.LVL736-1
 17416 1a49 0100     		.2byte	0x1
 17417 1a4b 50       		.byte	0x50
 17418 1a4c 00000000 		.4byte	0
 17419 1a50 00000000 		.4byte	0
 17420              	.LLST174:
 17421 1a54 12020000 		.4byte	.LVL739
 17422 1a58 1F020000 		.4byte	.LVL740-1
 17423 1a5c 0100     		.2byte	0x1
ARM GAS  C:\Users\FRANKL~1\AppData\Local\Temp\ccjWonOy.s 			page 347


 17424 1a5e 50       		.byte	0x50
 17425 1a5f 00000000 		.4byte	0
 17426 1a63 00000000 		.4byte	0
 17427              	.LLST175:
 17428 1a67 4E020000 		.4byte	.LVL746
 17429 1a6b 51020000 		.4byte	.LVL747-1
 17430 1a6f 0100     		.2byte	0x1
 17431 1a71 50       		.byte	0x50
 17432 1a72 51020000 		.4byte	.LVL747-1
 17433 1a76 6A020000 		.4byte	.LVL751
 17434 1a7a 0100     		.2byte	0x1
 17435 1a7c 54       		.byte	0x54
 17436 1a7d 00000000 		.4byte	0
 17437 1a81 00000000 		.4byte	0
 17438              	.LLST176:
 17439 1a85 90020000 		.4byte	.LVL756
 17440 1a89 93020000 		.4byte	.LVL757-1
 17441 1a8d 0100     		.2byte	0x1
 17442 1a8f 50       		.byte	0x50
 17443 1a90 93020000 		.4byte	.LVL757-1
 17444 1a94 AC020000 		.4byte	.LVL761
 17445 1a98 0100     		.2byte	0x1
 17446 1a9a 54       		.byte	0x54
 17447 1a9b 00000000 		.4byte	0
 17448 1a9f 00000000 		.4byte	0
 17449              	.LLST177:
 17450 1aa3 2C030000 		.4byte	.LVL773
 17451 1aa7 E0030000 		.4byte	.LVL778
 17452 1aab 0100     		.2byte	0x1
 17453 1aad 56       		.byte	0x56
 17454 1aae 00000000 		.4byte	0
 17455 1ab2 00000000 		.4byte	0
 17456              	.LLST178:
 17457 1ab6 36030000 		.4byte	.LVL774
 17458 1aba 3E030000 		.4byte	.LVL775
 17459 1abe 0100     		.2byte	0x1
 17460 1ac0 50       		.byte	0x50
 17461 1ac1 3E030000 		.4byte	.LVL775
 17462 1ac5 41030000 		.4byte	.LVL776-1
 17463 1ac9 0100     		.2byte	0x1
 17464 1acb 51       		.byte	0x51
 17465 1acc 00000000 		.4byte	0
 17466 1ad0 00000000 		.4byte	0
 17467              	.LLST179:
 17468 1ad4 26040000 		.4byte	.LVL784
 17469 1ad8 5E040000 		.4byte	.LVL789
 17470 1adc 0100     		.2byte	0x1
 17471 1ade 56       		.byte	0x56
 17472 1adf 00000000 		.4byte	0
 17473 1ae3 00000000 		.4byte	0
 17474              	.LLST180:
 17475 1ae7 30040000 		.4byte	.LVL785
 17476 1aeb 38040000 		.4byte	.LVL786
 17477 1aef 0100     		.2byte	0x1
 17478 1af1 50       		.byte	0x50
 17479 1af2 38040000 		.4byte	.LVL786
 17480 1af6 3B040000 		.4byte	.LVL787-1
ARM GAS  C:\Users\FRANKL~1\AppData\Local\Temp\ccjWonOy.s 			page 348


 17481 1afa 0100     		.2byte	0x1
 17482 1afc 51       		.byte	0x51
 17483 1afd 00000000 		.4byte	0
 17484 1b01 00000000 		.4byte	0
 17485              	.LLST181:
 17486 1b05 A6040000 		.4byte	.LVL795
 17487 1b09 BE040000 		.4byte	.LVL799
 17488 1b0d 0100     		.2byte	0x1
 17489 1b0f 55       		.byte	0x55
 17490 1b10 00000000 		.4byte	0
 17491 1b14 00000000 		.4byte	0
 17492              	.LLST182:
 17493 1b18 B0040000 		.4byte	.LVL796
 17494 1b1c B8040000 		.4byte	.LVL797
 17495 1b20 0100     		.2byte	0x1
 17496 1b22 50       		.byte	0x50
 17497 1b23 B8040000 		.4byte	.LVL797
 17498 1b27 BB040000 		.4byte	.LVL798-1
 17499 1b2b 0100     		.2byte	0x1
 17500 1b2d 51       		.byte	0x51
 17501 1b2e 00000000 		.4byte	0
 17502 1b32 00000000 		.4byte	0
 17503              	.LLST183:
 17504 1b36 06050000 		.4byte	.LVL806
 17505 1b3a 2C050000 		.4byte	.LVL812
 17506 1b3e 0100     		.2byte	0x1
 17507 1b40 55       		.byte	0x55
 17508 1b41 00000000 		.4byte	0
 17509 1b45 00000000 		.4byte	0
 17510              	.LLST184:
 17511 1b49 12050000 		.4byte	.LVL808
 17512 1b4d 2C050000 		.4byte	.LVL812
 17513 1b51 0100     		.2byte	0x1
 17514 1b53 54       		.byte	0x54
 17515 1b54 00000000 		.4byte	0
 17516 1b58 00000000 		.4byte	0
 17517              	.LLST185:
 17518 1b5c 50050000 		.4byte	.LVL817
 17519 1b60 76050000 		.4byte	.LVL823
 17520 1b64 0100     		.2byte	0x1
 17521 1b66 55       		.byte	0x55
 17522 1b67 00000000 		.4byte	0
 17523 1b6b 00000000 		.4byte	0
 17524              	.LLST186:
 17525 1b6f 5C050000 		.4byte	.LVL819
 17526 1b73 76050000 		.4byte	.LVL823
 17527 1b77 0100     		.2byte	0x1
 17528 1b79 54       		.byte	0x54
 17529 1b7a 00000000 		.4byte	0
 17530 1b7e 00000000 		.4byte	0
 17531              	.LLST187:
 17532 1b82 9A050000 		.4byte	.LVL828
 17533 1b86 C0050000 		.4byte	.LVL834
 17534 1b8a 0100     		.2byte	0x1
 17535 1b8c 55       		.byte	0x55
 17536 1b8d 00000000 		.4byte	0
 17537 1b91 00000000 		.4byte	0
ARM GAS  C:\Users\FRANKL~1\AppData\Local\Temp\ccjWonOy.s 			page 349


 17538              	.LLST188:
 17539 1b95 A6050000 		.4byte	.LVL830
 17540 1b99 C0050000 		.4byte	.LVL834
 17541 1b9d 0100     		.2byte	0x1
 17542 1b9f 54       		.byte	0x54
 17543 1ba0 00000000 		.4byte	0
 17544 1ba4 00000000 		.4byte	0
 17545              	.LLST189:
 17546 1ba8 E4050000 		.4byte	.LVL839
 17547 1bac 0A060000 		.4byte	.LVL845
 17548 1bb0 0100     		.2byte	0x1
 17549 1bb2 55       		.byte	0x55
 17550 1bb3 00000000 		.4byte	0
 17551 1bb7 00000000 		.4byte	0
 17552              	.LLST190:
 17553 1bbb F0050000 		.4byte	.LVL841
 17554 1bbf 0A060000 		.4byte	.LVL845
 17555 1bc3 0100     		.2byte	0x1
 17556 1bc5 54       		.byte	0x54
 17557 1bc6 00000000 		.4byte	0
 17558 1bca 00000000 		.4byte	0
 17559              	.LLST191:
 17560 1bce 2C060000 		.4byte	.LVL849
 17561 1bd2 42060000 		.4byte	.LVL853
 17562 1bd6 0100     		.2byte	0x1
 17563 1bd8 54       		.byte	0x54
 17564 1bd9 00000000 		.4byte	0
 17565 1bdd 00000000 		.4byte	0
 17566              	.LLST192:
 17567 1be1 94060000 		.4byte	.LVL862
 17568 1be5 AA060000 		.4byte	.LVL866
 17569 1be9 0100     		.2byte	0x1
 17570 1beb 54       		.byte	0x54
 17571 1bec 00000000 		.4byte	0
 17572 1bf0 00000000 		.4byte	0
 17573              	.LLST193:
 17574 1bf4 CC060000 		.4byte	.LVL870
 17575 1bf8 40070000 		.4byte	.LVL874
 17576 1bfc 0100     		.2byte	0x1
 17577 1bfe 54       		.byte	0x54
 17578 1bff 00000000 		.4byte	0
 17579 1c03 00000000 		.4byte	0
 17580              	.LLST194:
 17581 1c07 62070000 		.4byte	.LVL878
 17582 1c0b 78070000 		.4byte	.LVL882
 17583 1c0f 0100     		.2byte	0x1
 17584 1c11 54       		.byte	0x54
 17585 1c12 00000000 		.4byte	0
 17586 1c16 00000000 		.4byte	0
 17587              	.LLST195:
 17588 1c1a F8070000 		.4byte	.LVL895
 17589 1c1e 04080000 		.4byte	.LVL897
 17590 1c22 0100     		.2byte	0x1
 17591 1c24 50       		.byte	0x50
 17592 1c25 00000000 		.4byte	0
 17593 1c29 00000000 		.4byte	0
 17594              		.section	.debug_aranges,"",%progbits
ARM GAS  C:\Users\FRANKL~1\AppData\Local\Temp\ccjWonOy.s 			page 350


 17595 0000 DC010000 		.4byte	0x1dc
 17596 0004 0200     		.2byte	0x2
 17597 0006 00000000 		.4byte	.Ldebug_info0
 17598 000a 04       		.byte	0x4
 17599 000b 00       		.byte	0
 17600 000c 0000     		.2byte	0
 17601 000e 0000     		.2byte	0
 17602 0010 00000000 		.4byte	.LFB64
 17603 0014 18000000 		.4byte	.LFE64-.LFB64
 17604 0018 00000000 		.4byte	.LFB65
 17605 001c 1E000000 		.4byte	.LFE65-.LFB65
 17606 0020 00000000 		.4byte	.LFB119
 17607 0024 B0010000 		.4byte	.LFE119-.LFB119
 17608 0028 00000000 		.4byte	.LFB66
 17609 002c 50000000 		.4byte	.LFE66-.LFB66
 17610 0030 00000000 		.4byte	.LFB67
 17611 0034 24000000 		.4byte	.LFE67-.LFB67
 17612 0038 00000000 		.4byte	.LFB68
 17613 003c 16000000 		.4byte	.LFE68-.LFB68
 17614 0040 00000000 		.4byte	.LFB69
 17615 0044 58000000 		.4byte	.LFE69-.LFB69
 17616 0048 00000000 		.4byte	.LFB70
 17617 004c 30000000 		.4byte	.LFE70-.LFB70
 17618 0050 00000000 		.4byte	.LFB71
 17619 0054 32000000 		.4byte	.LFE71-.LFB71
 17620 0058 00000000 		.4byte	.LFB72
 17621 005c 28010000 		.4byte	.LFE72-.LFB72
 17622 0060 00000000 		.4byte	.LFB73
 17623 0064 3C000000 		.4byte	.LFE73-.LFB73
 17624 0068 00000000 		.4byte	.LFB74
 17625 006c 2C000000 		.4byte	.LFE74-.LFB74
 17626 0070 00000000 		.4byte	.LFB75
 17627 0074 2C000000 		.4byte	.LFE75-.LFB75
 17628 0078 00000000 		.4byte	.LFB76
 17629 007c 32000000 		.4byte	.LFE76-.LFB76
 17630 0080 00000000 		.4byte	.LFB77
 17631 0084 40000000 		.4byte	.LFE77-.LFB77
 17632 0088 00000000 		.4byte	.LFB78
 17633 008c 40000000 		.4byte	.LFE78-.LFB78
 17634 0090 00000000 		.4byte	.LFB79
 17635 0094 34000000 		.4byte	.LFE79-.LFB79
 17636 0098 00000000 		.4byte	.LFB80
 17637 009c 2C000000 		.4byte	.LFE80-.LFB80
 17638 00a0 00000000 		.4byte	.LFB81
 17639 00a4 38000000 		.4byte	.LFE81-.LFB81
 17640 00a8 00000000 		.4byte	.LFB82
 17641 00ac 38000000 		.4byte	.LFE82-.LFB82
 17642 00b0 00000000 		.4byte	.LFB83
 17643 00b4 16000000 		.4byte	.LFE83-.LFB83
 17644 00b8 00000000 		.4byte	.LFB84
 17645 00bc 16000000 		.4byte	.LFE84-.LFB84
 17646 00c0 00000000 		.4byte	.LFB85
 17647 00c4 1C000000 		.4byte	.LFE85-.LFB85
 17648 00c8 00000000 		.4byte	.LFB86
 17649 00cc 18000000 		.4byte	.LFE86-.LFB86
 17650 00d0 00000000 		.4byte	.LFB87
 17651 00d4 14000000 		.4byte	.LFE87-.LFB87
ARM GAS  C:\Users\FRANKL~1\AppData\Local\Temp\ccjWonOy.s 			page 351


 17652 00d8 00000000 		.4byte	.LFB88
 17653 00dc 32000000 		.4byte	.LFE88-.LFB88
 17654 00e0 00000000 		.4byte	.LFB89
 17655 00e4 32000000 		.4byte	.LFE89-.LFB89
 17656 00e8 00000000 		.4byte	.LFB90
 17657 00ec F0000000 		.4byte	.LFE90-.LFB90
 17658 00f0 00000000 		.4byte	.LFB91
 17659 00f4 54000000 		.4byte	.LFE91-.LFB91
 17660 00f8 00000000 		.4byte	.LFB92
 17661 00fc B6000000 		.4byte	.LFE92-.LFB92
 17662 0100 00000000 		.4byte	.LFB93
 17663 0104 B6000000 		.4byte	.LFE93-.LFB93
 17664 0108 00000000 		.4byte	.LFB94
 17665 010c 90010000 		.4byte	.LFE94-.LFB94
 17666 0110 00000000 		.4byte	.LFB95
 17667 0114 5C000000 		.4byte	.LFE95-.LFB95
 17668 0118 00000000 		.4byte	.LFB96
 17669 011c 68000000 		.4byte	.LFE96-.LFB96
 17670 0120 00000000 		.4byte	.LFB97
 17671 0124 30000000 		.4byte	.LFE97-.LFB97
 17672 0128 00000000 		.4byte	.LFB98
 17673 012c 48000000 		.4byte	.LFE98-.LFB98
 17674 0130 00000000 		.4byte	.LFB99
 17675 0134 48000000 		.4byte	.LFE99-.LFB99
 17676 0138 00000000 		.4byte	.LFB100
 17677 013c 78000000 		.4byte	.LFE100-.LFB100
 17678 0140 00000000 		.4byte	.LFB101
 17679 0144 78000000 		.4byte	.LFE101-.LFB101
 17680 0148 00000000 		.4byte	.LFB102
 17681 014c C0000000 		.4byte	.LFE102-.LFB102
 17682 0150 00000000 		.4byte	.LFB103
 17683 0154 C8000000 		.4byte	.LFE103-.LFB103
 17684 0158 00000000 		.4byte	.LFB104
 17685 015c C8000000 		.4byte	.LFE104-.LFB104
 17686 0160 00000000 		.4byte	.LFB105
 17687 0164 38000000 		.4byte	.LFE105-.LFB105
 17688 0168 00000000 		.4byte	.LFB106
 17689 016c 38000000 		.4byte	.LFE106-.LFB106
 17690 0170 00000000 		.4byte	.LFB107
 17691 0174 14000000 		.4byte	.LFE107-.LFB107
 17692 0178 00000000 		.4byte	.LFB108
 17693 017c 14000000 		.4byte	.LFE108-.LFB108
 17694 0180 00000000 		.4byte	.LFB109
 17695 0184 1C000000 		.4byte	.LFE109-.LFB109
 17696 0188 00000000 		.4byte	.LFB110
 17697 018c A8000000 		.4byte	.LFE110-.LFB110
 17698 0190 00000000 		.4byte	.LFB111
 17699 0194 5C000000 		.4byte	.LFE111-.LFB111
 17700 0198 00000000 		.4byte	.LFB112
 17701 019c 1A000000 		.4byte	.LFE112-.LFB112
 17702 01a0 00000000 		.4byte	.LFB113
 17703 01a4 2C000000 		.4byte	.LFE113-.LFB113
 17704 01a8 00000000 		.4byte	.LFB114
 17705 01ac AC000000 		.4byte	.LFE114-.LFB114
 17706 01b0 00000000 		.4byte	.LFB115
 17707 01b4 84000000 		.4byte	.LFE115-.LFB115
 17708 01b8 00000000 		.4byte	.LFB116
ARM GAS  C:\Users\FRANKL~1\AppData\Local\Temp\ccjWonOy.s 			page 352


 17709 01bc 98000000 		.4byte	.LFE116-.LFB116
 17710 01c0 00000000 		.4byte	.LFB117
 17711 01c4 7C000000 		.4byte	.LFE117-.LFB117
 17712 01c8 00000000 		.4byte	.LFB118
 17713 01cc 8C000000 		.4byte	.LFE118-.LFB118
 17714 01d0 00000000 		.4byte	.LFB120
 17715 01d4 50090000 		.4byte	.LFE120-.LFB120
 17716 01d8 00000000 		.4byte	0
 17717 01dc 00000000 		.4byte	0
 17718              		.section	.debug_ranges,"",%progbits
 17719              	.Ldebug_ranges0:
 17720 0000 08000000 		.4byte	.LBB6
 17721 0004 16000000 		.4byte	.LBE6
 17722 0008 1E000000 		.4byte	.LBB7
 17723 000c 22000000 		.4byte	.LBE7
 17724 0010 00000000 		.4byte	0
 17725 0014 00000000 		.4byte	0
 17726 0018 06000000 		.4byte	.LBB17
 17727 001c 1A000000 		.4byte	.LBE17
 17728 0020 1C000000 		.4byte	.LBB18
 17729 0024 20000000 		.4byte	.LBE18
 17730 0028 00000000 		.4byte	0
 17731 002c 00000000 		.4byte	0
 17732 0030 28000000 		.4byte	.LBB24
 17733 0034 2A000000 		.4byte	.LBE24
 17734 0038 30000000 		.4byte	.LBB29
 17735 003c DA000000 		.4byte	.LBE29
 17736 0040 00000000 		.4byte	0
 17737 0044 00000000 		.4byte	0
 17738 0048 32000000 		.4byte	.LBB25
 17739 004c 4E000000 		.4byte	.LBE25
 17740 0050 52000000 		.4byte	.LBB28
 17741 0054 D4000000 		.4byte	.LBE28
 17742 0058 00000000 		.4byte	0
 17743 005c 00000000 		.4byte	0
 17744 0060 32000000 		.4byte	.LBB26
 17745 0064 4E000000 		.4byte	.LBE26
 17746 0068 52000000 		.4byte	.LBB27
 17747 006c 56000000 		.4byte	.LBE27
 17748 0070 00000000 		.4byte	0
 17749 0074 00000000 		.4byte	0
 17750 0078 0C000000 		.4byte	.LBB30
 17751 007c 0E000000 		.4byte	.LBE30
 17752 0080 14000000 		.4byte	.LBB32
 17753 0084 A6000000 		.4byte	.LBE32
 17754 0088 00000000 		.4byte	0
 17755 008c 00000000 		.4byte	0
 17756 0090 0C000000 		.4byte	.LBB33
 17757 0094 0E000000 		.4byte	.LBE33
 17758 0098 14000000 		.4byte	.LBB35
 17759 009c A6000000 		.4byte	.LBE35
 17760 00a0 00000000 		.4byte	0
 17761 00a4 00000000 		.4byte	0
 17762 00a8 5C000000 		.4byte	.LBB36
 17763 00ac 22010000 		.4byte	.LBE36
 17764 00b0 2A010000 		.4byte	.LBB37
 17765 00b4 30010000 		.4byte	.LBE37
ARM GAS  C:\Users\FRANKL~1\AppData\Local\Temp\ccjWonOy.s 			page 353


 17766 00b8 00000000 		.4byte	0
 17767 00bc 00000000 		.4byte	0
 17768 00c0 2E000000 		.4byte	.LBB41
 17769 00c4 40000000 		.4byte	.LBE41
 17770 00c8 42000000 		.4byte	.LBB42
 17771 00cc 46000000 		.4byte	.LBE42
 17772 00d0 00000000 		.4byte	0
 17773 00d4 00000000 		.4byte	0
 17774 00d8 2E000000 		.4byte	.LBB44
 17775 00dc 40000000 		.4byte	.LBE44
 17776 00e0 42000000 		.4byte	.LBB45
 17777 00e4 46000000 		.4byte	.LBE45
 17778 00e8 00000000 		.4byte	0
 17779 00ec 00000000 		.4byte	0
 17780 00f0 1A000000 		.4byte	.LBB51
 17781 00f4 20000000 		.4byte	.LBE51
 17782 00f8 28000000 		.4byte	.LBB58
 17783 00fc A0000000 		.4byte	.LBE58
 17784 0100 00000000 		.4byte	0
 17785 0104 00000000 		.4byte	0
 17786 0108 1A000000 		.4byte	.LBB52
 17787 010c 20000000 		.4byte	.LBE52
 17788 0110 28000000 		.4byte	.LBB57
 17789 0114 94000000 		.4byte	.LBE57
 17790 0118 00000000 		.4byte	0
 17791 011c 00000000 		.4byte	0
 17792 0120 1A000000 		.4byte	.LBB53
 17793 0124 20000000 		.4byte	.LBE53
 17794 0128 4E000000 		.4byte	.LBB56
 17795 012c 94000000 		.4byte	.LBE56
 17796 0130 00000000 		.4byte	0
 17797 0134 00000000 		.4byte	0
 17798 0138 50000000 		.4byte	.LBB54
 17799 013c 86000000 		.4byte	.LBE54
 17800 0140 88000000 		.4byte	.LBB55
 17801 0144 8C000000 		.4byte	.LBE55
 17802 0148 00000000 		.4byte	0
 17803 014c 00000000 		.4byte	0
 17804 0150 2A000000 		.4byte	.LBB62
 17805 0154 60000000 		.4byte	.LBE62
 17806 0158 62000000 		.4byte	.LBB63
 17807 015c 66000000 		.4byte	.LBE63
 17808 0160 00000000 		.4byte	0
 17809 0164 00000000 		.4byte	0
 17810 0168 00000000 		.4byte	.LFB64
 17811 016c 18000000 		.4byte	.LFE64
 17812 0170 00000000 		.4byte	.LFB65
 17813 0174 1E000000 		.4byte	.LFE65
 17814 0178 00000000 		.4byte	.LFB119
 17815 017c B0010000 		.4byte	.LFE119
 17816 0180 00000000 		.4byte	.LFB66
 17817 0184 50000000 		.4byte	.LFE66
 17818 0188 00000000 		.4byte	.LFB67
 17819 018c 24000000 		.4byte	.LFE67
 17820 0190 00000000 		.4byte	.LFB68
 17821 0194 16000000 		.4byte	.LFE68
 17822 0198 00000000 		.4byte	.LFB69
ARM GAS  C:\Users\FRANKL~1\AppData\Local\Temp\ccjWonOy.s 			page 354


 17823 019c 58000000 		.4byte	.LFE69
 17824 01a0 00000000 		.4byte	.LFB70
 17825 01a4 30000000 		.4byte	.LFE70
 17826 01a8 00000000 		.4byte	.LFB71
 17827 01ac 32000000 		.4byte	.LFE71
 17828 01b0 00000000 		.4byte	.LFB72
 17829 01b4 28010000 		.4byte	.LFE72
 17830 01b8 00000000 		.4byte	.LFB73
 17831 01bc 3C000000 		.4byte	.LFE73
 17832 01c0 00000000 		.4byte	.LFB74
 17833 01c4 2C000000 		.4byte	.LFE74
 17834 01c8 00000000 		.4byte	.LFB75
 17835 01cc 2C000000 		.4byte	.LFE75
 17836 01d0 00000000 		.4byte	.LFB76
 17837 01d4 32000000 		.4byte	.LFE76
 17838 01d8 00000000 		.4byte	.LFB77
 17839 01dc 40000000 		.4byte	.LFE77
 17840 01e0 00000000 		.4byte	.LFB78
 17841 01e4 40000000 		.4byte	.LFE78
 17842 01e8 00000000 		.4byte	.LFB79
 17843 01ec 34000000 		.4byte	.LFE79
 17844 01f0 00000000 		.4byte	.LFB80
 17845 01f4 2C000000 		.4byte	.LFE80
 17846 01f8 00000000 		.4byte	.LFB81
 17847 01fc 38000000 		.4byte	.LFE81
 17848 0200 00000000 		.4byte	.LFB82
 17849 0204 38000000 		.4byte	.LFE82
 17850 0208 00000000 		.4byte	.LFB83
 17851 020c 16000000 		.4byte	.LFE83
 17852 0210 00000000 		.4byte	.LFB84
 17853 0214 16000000 		.4byte	.LFE84
 17854 0218 00000000 		.4byte	.LFB85
 17855 021c 1C000000 		.4byte	.LFE85
 17856 0220 00000000 		.4byte	.LFB86
 17857 0224 18000000 		.4byte	.LFE86
 17858 0228 00000000 		.4byte	.LFB87
 17859 022c 14000000 		.4byte	.LFE87
 17860 0230 00000000 		.4byte	.LFB88
 17861 0234 32000000 		.4byte	.LFE88
 17862 0238 00000000 		.4byte	.LFB89
 17863 023c 32000000 		.4byte	.LFE89
 17864 0240 00000000 		.4byte	.LFB90
 17865 0244 F0000000 		.4byte	.LFE90
 17866 0248 00000000 		.4byte	.LFB91
 17867 024c 54000000 		.4byte	.LFE91
 17868 0250 00000000 		.4byte	.LFB92
 17869 0254 B6000000 		.4byte	.LFE92
 17870 0258 00000000 		.4byte	.LFB93
 17871 025c B6000000 		.4byte	.LFE93
 17872 0260 00000000 		.4byte	.LFB94
 17873 0264 90010000 		.4byte	.LFE94
 17874 0268 00000000 		.4byte	.LFB95
 17875 026c 5C000000 		.4byte	.LFE95
 17876 0270 00000000 		.4byte	.LFB96
 17877 0274 68000000 		.4byte	.LFE96
 17878 0278 00000000 		.4byte	.LFB97
 17879 027c 30000000 		.4byte	.LFE97
ARM GAS  C:\Users\FRANKL~1\AppData\Local\Temp\ccjWonOy.s 			page 355


 17880 0280 00000000 		.4byte	.LFB98
 17881 0284 48000000 		.4byte	.LFE98
 17882 0288 00000000 		.4byte	.LFB99
 17883 028c 48000000 		.4byte	.LFE99
 17884 0290 00000000 		.4byte	.LFB100
 17885 0294 78000000 		.4byte	.LFE100
 17886 0298 00000000 		.4byte	.LFB101
 17887 029c 78000000 		.4byte	.LFE101
 17888 02a0 00000000 		.4byte	.LFB102
 17889 02a4 C0000000 		.4byte	.LFE102
 17890 02a8 00000000 		.4byte	.LFB103
 17891 02ac C8000000 		.4byte	.LFE103
 17892 02b0 00000000 		.4byte	.LFB104
 17893 02b4 C8000000 		.4byte	.LFE104
 17894 02b8 00000000 		.4byte	.LFB105
 17895 02bc 38000000 		.4byte	.LFE105
 17896 02c0 00000000 		.4byte	.LFB106
 17897 02c4 38000000 		.4byte	.LFE106
 17898 02c8 00000000 		.4byte	.LFB107
 17899 02cc 14000000 		.4byte	.LFE107
 17900 02d0 00000000 		.4byte	.LFB108
 17901 02d4 14000000 		.4byte	.LFE108
 17902 02d8 00000000 		.4byte	.LFB109
 17903 02dc 1C000000 		.4byte	.LFE109
 17904 02e0 00000000 		.4byte	.LFB110
 17905 02e4 A8000000 		.4byte	.LFE110
 17906 02e8 00000000 		.4byte	.LFB111
 17907 02ec 5C000000 		.4byte	.LFE111
 17908 02f0 00000000 		.4byte	.LFB112
 17909 02f4 1A000000 		.4byte	.LFE112
 17910 02f8 00000000 		.4byte	.LFB113
 17911 02fc 2C000000 		.4byte	.LFE113
 17912 0300 00000000 		.4byte	.LFB114
 17913 0304 AC000000 		.4byte	.LFE114
 17914 0308 00000000 		.4byte	.LFB115
 17915 030c 84000000 		.4byte	.LFE115
 17916 0310 00000000 		.4byte	.LFB116
 17917 0314 98000000 		.4byte	.LFE116
 17918 0318 00000000 		.4byte	.LFB117
 17919 031c 7C000000 		.4byte	.LFE117
 17920 0320 00000000 		.4byte	.LFB118
 17921 0324 8C000000 		.4byte	.LFE118
 17922 0328 00000000 		.4byte	.LFB120
 17923 032c 50090000 		.4byte	.LFE120
 17924 0330 00000000 		.4byte	0
 17925 0334 00000000 		.4byte	0
 17926              		.section	.debug_line,"",%progbits
 17927              	.Ldebug_line0:
 17928 0000 250F0000 		.section	.debug_str,"MS",%progbits,1
 17928      0200ED02 
 17928      00000201 
 17928      FB0E0D00 
 17928      01010101 
 17929              	.LASF59:
 17930 0000 696E7465 		.ascii	"intermediate\000"
 17930      726D6564 
 17930      69617465 
ARM GAS  C:\Users\FRANKL~1\AppData\Local\Temp\ccjWonOy.s 			page 356


 17930      00
 17931              	.LASF11:
 17932 000d 73697A65 		.ascii	"sizetype\000"
 17932      74797065 
 17932      00
 17933              	.LASF128:
 17934 0016 6162736F 		.ascii	"absolute\000"
 17934      6C757465 
 17934      00
 17935              	.LASF72:
 17936 001f 5449415F 		.ascii	"TIA_Set_Resistor\000"
 17936      5365745F 
 17936      52657369 
 17936      73746F72 
 17936      00
 17937              	.LASF91:
 17938 0030 4144435F 		.ascii	"ADC_Adjust_Range\000"
 17938      41646A75 
 17938      73745F52 
 17938      616E6765 
 17938      00
 17939              	.LASF257:
 17940 0041 4144435F 		.ascii	"ADC_DelSig_1_StartConvert\000"
 17940      44656C53 
 17940      69675F31 
 17940      5F537461 
 17940      7274436F 
 17941              	.LASF38:
 17942 005b 74726965 		.ascii	"tries\000"
 17942      7300
 17943              	.LASF14:
 17944 0061 696E7433 		.ascii	"int32_t\000"
 17944      325F7400 
 17945              	.LASF255:
 17946 0069 4F70616D 		.ascii	"Opamp_1_Start\000"
 17946      705F315F 
 17946      53746172 
 17946      7400
 17947              	.LASF265:
 17948 0077 5449415F 		.ascii	"TIA_resistor\000"
 17948      72657369 
 17948      73746F72 
 17948      00
 17949              	.LASF117:
 17950 0084 4765745F 		.ascii	"Get_Ref\000"
 17950      52656600 
 17951              	.LASF17:
 17952 008c 75696E74 		.ascii	"uint32\000"
 17952      333200
 17953              	.LASF25:
 17954 0093 77726974 		.ascii	"write\000"
 17954      6500
 17955              	.LASF112:
 17956 0099 63757272 		.ascii	"currentSD\000"
 17956      656E7453 
 17956      4400
 17957              	.LASF68:
ARM GAS  C:\Users\FRANKL~1\AppData\Local\Temp\ccjWonOy.s 			page 357


 17958 00a3 436F6E6E 		.ascii	"Connect_Intermediate\000"
 17958      6563745F 
 17958      496E7465 
 17958      726D6564 
 17958      69617465 
 17959              	.LASF93:
 17960 00b8 4144435F 		.ascii	"ADC_Voltage_SD\000"
 17960      566F6C74 
 17960      6167655F 
 17960      534400
 17961              	.LASF155:
 17962 00c7 64697265 		.ascii	"direction\000"
 17962      6374696F 
 17962      6E00
 17963              	.LASF127:
 17964 00d1 5365745F 		.ascii	"Set_Vds_Rel\000"
 17964      5664735F 
 17964      52656C00 
 17965              	.LASF152:
 17966 00dd 56677369 		.ascii	"Vgsi\000"
 17966      00
 17967              	.LASF82:
 17968 00e2 61766572 		.ascii	"average\000"
 17968      61676500 
 17969              	.LASF44:
 17970 00ea 55534255 		.ascii	"USBUARTH_Send\000"
 17970      41525448 
 17970      5F53656E 
 17970      6400
 17971              	.LASF199:
 17972 00f8 5449415F 		.ascii	"TIA_Resistor_Values\000"
 17972      52657369 
 17972      73746F72 
 17972      5F56616C 
 17972      75657300 
 17973              	.LASF225:
 17974 010c 4932435F 		.ascii	"I2C_1_Start\000"
 17974      315F5374 
 17974      61727400 
 17975              	.LASF195:
 17976 0118 55534255 		.ascii	"USBUART_Receive_Buffer\000"
 17976      4152545F 
 17976      52656365 
 17976      6976655F 
 17976      42756666 
 17977              	.LASF191:
 17978 012f 475F4272 		.ascii	"G_Break\000"
 17978      65616B00 
 17979              	.LASF168:
 17980 0137 67617465 		.ascii	"gateIndex\000"
 17980      496E6465 
 17980      7800
 17981              	.LASF123:
 17982 0141 5365745F 		.ascii	"Set_Vgs_Raw\000"
 17982      5667735F 
 17982      52617700 
 17983              	.LASF107:
ARM GAS  C:\Users\FRANKL~1\AppData\Local\Temp\ccjWonOy.s 			page 358


 17984 014d 5449415F 		.ascii	"TIA_Feedback_R\000"
 17984      46656564 
 17984      6261636B 
 17984      5F5200
 17985              	.LASF18:
 17986 015c 696E7438 		.ascii	"int8\000"
 17986      00
 17987              	.LASF204:
 17988 0161 43757272 		.ascii	"Current_Measurement_Sample_Count\000"
 17988      656E745F 
 17988      4D656173 
 17988      7572656D 
 17988      656E745F 
 17989              	.LASF224:
 17990 0182 4932435F 		.ascii	"I2C_1_Stop\000"
 17990      315F5374 
 17990      6F7000
 17991              	.LASF97:
 17992 018d 53415231 		.ascii	"SAR1_Result_Current\000"
 17992      5F526573 
 17992      756C745F 
 17992      43757272 
 17992      656E7400 
 17993              	.LASF66:
 17994 01a1 44697363 		.ascii	"Disconnect_All_Contacts_From_All_Intermediates\000"
 17994      6F6E6E65 
 17994      63745F41 
 17994      6C6C5F43 
 17994      6F6E7461 
 17995              	.LASF114:
 17996 01d0 69737461 		.ascii	"istart\000"
 17996      727400
 17997              	.LASF81:
 17998 01d7 4144435F 		.ascii	"ADC_Measure_uV\000"
 17998      4D656173 
 17998      7572655F 
 17998      755600
 17999              	.LASF106:
 18000 01e6 63757272 		.ascii	"currentStdDev\000"
 18000      656E7453 
 18000      74644465 
 18000      7600
 18001              	.LASF139:
 18002 01f4 5365745F 		.ascii	"Set_Vds_mV\000"
 18002      5664735F 
 18002      6D5600
 18003              	.LASF118:
 18004 01ff 72657375 		.ascii	"result\000"
 18004      6C7400
 18005              	.LASF260:
 18006 0206 436F6D6D 		.ascii	"CommunicationInterrupt_StartEx\000"
 18006      756E6963 
 18006      6174696F 
 18006      6E496E74 
 18006      65727275 
 18007              	.LASF8:
 18008 0225 6C6F6E67 		.ascii	"long int\000"
ARM GAS  C:\Users\FRANKL~1\AppData\Local\Temp\ccjWonOy.s 			page 359


 18008      20696E74 
 18008      00
 18009              	.LASF164:
 18010 022e 72656641 		.ascii	"refArrived\000"
 18010      72726976 
 18010      656400
 18011              	.LASF247:
 18012 0239 55415254 		.ascii	"UART_1_Start\000"
 18012      5F315F53 
 18012      74617274 
 18012      00
 18013              	.LASF100:
 18014 0246 4D656173 		.ascii	"Measure_Current_Vss\000"
 18014      7572655F 
 18014      43757272 
 18014      656E745F 
 18014      56737300 
 18015              	.LASF267:
 18016 025a 73747263 		.ascii	"strchr\000"
 18016      687200
 18017              	.LASF28:
 18018 0261 5232304B 		.ascii	"R20K\000"
 18018      00
 18019              	.LASF266:
 18020 0266 6D61696E 		.ascii	"main\000"
 18020      00
 18021              	.LASF88:
 18022 026b 6D656469 		.ascii	"medianCount\000"
 18022      616E436F 
 18022      756E7400 
 18023              	.LASF241:
 18024 0277 56444143 		.ascii	"VDAC_Vds_SetValue\000"
 18024      5F566473 
 18024      5F536574 
 18024      56616C75 
 18024      6500
 18025              	.LASF7:
 18026 0289 73686F72 		.ascii	"short unsigned int\000"
 18026      7420756E 
 18026      7369676E 
 18026      65642069 
 18026      6E7400
 18027              	.LASF170:
 18028 029c 5363616E 		.ascii	"Scan\000"
 18028      00
 18029              	.LASF261:
 18030 02a1 474E5520 		.ascii	"GNU C11 5.4.1 20160609 (release) [ARM/embedded-5-br"
 18030      43313120 
 18030      352E342E 
 18030      31203230 
 18030      31363036 
 18031 02d4 616E6368 		.ascii	"anch revision 237715] -mcpu=cortex-m3 -mthumb -g -O"
 18031      20726576 
 18031      6973696F 
 18031      6E203233 
 18031      37373135 
 18032 0307 67202D66 		.ascii	"g -ffunction-sections -ffat-lto-objects\000"
ARM GAS  C:\Users\FRANKL~1\AppData\Local\Temp\ccjWonOy.s 			page 360


 18032      66756E63 
 18032      74696F6E 
 18032      2D736563 
 18032      74696F6E 
 18033              	.LASF56:
 18034 032f 53657475 		.ascii	"Setup_Selectors\000"
 18034      705F5365 
 18034      6C656374 
 18034      6F727300 
 18035              	.LASF35:
 18036 033f 52313030 		.ascii	"R1000K\000"
 18036      304B00
 18037              	.LASF235:
 18038 0346 4144435F 		.ascii	"ADC_SAR_1_GetResult16\000"
 18038      5341525F 
 18038      315F4765 
 18038      74526573 
 18038      756C7431 
 18039              	.LASF52:
 18040 035c 53657475 		.ascii	"Setup_Selector_I2C_Struct\000"
 18040      705F5365 
 18040      6C656374 
 18040      6F725F49 
 18040      32435F53 
 18041              	.LASF4:
 18042 0376 7369676E 		.ascii	"signed char\000"
 18042      65642063 
 18042      68617200 
 18043              	.LASF264:
 18044 0382 53656C65 		.ascii	"Selector_I2C_Struct\000"
 18044      63746F72 
 18044      5F493243 
 18044      5F537472 
 18044      75637400 
 18045              	.LASF233:
 18046 0396 4144435F 		.ascii	"ADC_SAR_1_StartConvert\000"
 18046      5341525F 
 18046      315F5374 
 18046      61727443 
 18046      6F6E7665 
 18047              	.LASF5:
 18048 03ad 756E7369 		.ascii	"unsigned char\000"
 18048      676E6564 
 18048      20636861 
 18048      7200
 18049              	.LASF116:
 18050 03bb 696E6372 		.ascii	"increment\000"
 18050      656D656E 
 18050      7400
 18051              	.LASF142:
 18052 03c5 63757272 		.ascii	"current_range_resistor\000"
 18052      656E745F 
 18052      72616E67 
 18052      655F7265 
 18052      73697374 
 18053              	.LASF46:
 18054 03dc 55534255 		.ascii	"USBUARTH_GetChar\000"
ARM GAS  C:\Users\FRANKL~1\AppData\Local\Temp\ccjWonOy.s 			page 361


 18054      41525448 
 18054      5F476574 
 18054      43686172 
 18054      00
 18055              	.LASF184:
 18056 03ed 5667735F 		.ascii	"Vgs_mV\000"
 18056      6D5600
 18057              	.LASF206:
 18058 03f4 5F426F6F 		.ascii	"_Bool\000"
 18058      6C00
 18059              	.LASF134:
 18060 03fa 5365745F 		.ascii	"Set_Vgs_Rel\000"
 18060      5667735F 
 18060      52656C00 
 18061              	.LASF122:
 18062 0406 76616C75 		.ascii	"value\000"
 18062      6500
 18063              	.LASF12:
 18064 040c 63686172 		.ascii	"char\000"
 18064      00
 18065              	.LASF223:
 18066 0411 4932435F 		.ascii	"I2C_1_MasterStatus\000"
 18066      315F4D61 
 18066      73746572 
 18066      53746174 
 18066      757300
 18067              	.LASF126:
 18068 0424 6E65775F 		.ascii	"new_Vds\000"
 18068      56647300 
 18069              	.LASF90:
 18070 042c 4144435F 		.ascii	"ADC_Result_Current\000"
 18070      52657375 
 18070      6C745F43 
 18070      75727265 
 18070      6E7400
 18071              	.LASF71:
 18072 043f 44697363 		.ascii	"Disconnect_Intermediates\000"
 18072      6F6E6E65 
 18072      63745F49 
 18072      6E746572 
 18072      6D656469 
 18073              	.LASF147:
 18074 0458 53415232 		.ascii	"SAR2_SampleCount\000"
 18074      5F53616D 
 18074      706C6543 
 18074      6F756E74 
 18074      00
 18075              	.LASF109:
 18076 0469 756E6974 		.ascii	"unitConversion\000"
 18076      436F6E76 
 18076      65727369 
 18076      6F6E00
 18077              	.LASF32:
 18078 0478 52313230 		.ascii	"R120K\000"
 18078      4B00
 18079              	.LASF240:
 18080 047e 4144435F 		.ascii	"ADC_SAR_2_CountsTo_uVolts\000"
ARM GAS  C:\Users\FRANKL~1\AppData\Local\Temp\ccjWonOy.s 			page 362


 18080      5341525F 
 18080      325F436F 
 18080      756E7473 
 18080      546F5F75 
 18081              	.LASF151:
 18082 0498 4D656173 		.ascii	"Measure_Sweep\000"
 18082      7572655F 
 18082      53776565 
 18082      7000
 18083              	.LASF163:
 18084 04a6 72656649 		.ascii	"refIndex\000"
 18084      6E646578 
 18084      00
 18085              	.LASF60:
 18086 04af 44697363 		.ascii	"Disconnect_Channel_On_Intermediate\000"
 18086      6F6E6E65 
 18086      63745F43 
 18086      68616E6E 
 18086      656C5F4F 
 18087              	.LASF77:
 18088 04d2 61727261 		.ascii	"array\000"
 18088      7900
 18089              	.LASF108:
 18090 04d8 5449415F 		.ascii	"TIA_Offset_uV\000"
 18090      4F666673 
 18090      65745F75 
 18090      5600
 18091              	.LASF140:
 18092 04e6 5A65726F 		.ascii	"Zero_All_DACs\000"
 18092      5F416C6C 
 18092      5F444143 
 18092      7300
 18093              	.LASF236:
 18094 04f4 4144435F 		.ascii	"ADC_SAR_1_CountsTo_uVolts\000"
 18094      5341525F 
 18094      315F436F 
 18094      756E7473 
 18094      546F5F75 
 18095              	.LASF42:
 18096 050e 62756666 		.ascii	"buffer\000"
 18096      657200
 18097              	.LASF101:
 18098 0515 63757272 		.ascii	"currentAverageIn\000"
 18098      656E7441 
 18098      76657261 
 18098      6765496E 
 18098      00
 18099              	.LASF39:
 18100 0526 74656D70 		.ascii	"temp_buffer\000"
 18100      5F627566 
 18100      66657200 
 18101              	.LASF29:
 18102 0532 5233304B 		.ascii	"R30K\000"
 18102      00
 18103              	.LASF232:
 18104 0537 4144435F 		.ascii	"ADC_DelSig_1_CountsTo_uVolts\000"
 18104      44656C53 
ARM GAS  C:\Users\FRANKL~1\AppData\Local\Temp\ccjWonOy.s 			page 363


 18104      69675F31 
 18104      5F436F75 
 18104      6E747354 
 18105              	.LASF86:
 18106 0554 4144435F 		.ascii	"ADC_SD\000"
 18106      534400
 18107              	.LASF189:
 18108 055b 6E657744 		.ascii	"newData\000"
 18108      61746100 
 18109              	.LASF125:
 18110 0563 6E65775F 		.ascii	"new_Vgs\000"
 18110      56677300 
 18111              	.LASF31:
 18112 056b 5238304B 		.ascii	"R80K\000"
 18112      00
 18113              	.LASF246:
 18114 0570 55534255 		.ascii	"USBUART_Start\000"
 18114      4152545F 
 18114      53746172 
 18114      7400
 18115              	.LASF95:
 18116 057e 5341525F 		.ascii	"SAR_Result\000"
 18116      52657375 
 18116      6C7400
 18117              	.LASF124:
 18118 0589 5365745F 		.ascii	"Set_Ref_Raw\000"
 18118      5265665F 
 18118      52617700 
 18119              	.LASF48:
 18120 0595 6D61784C 		.ascii	"maxLength\000"
 18120      656E6774 
 18120      6800
 18121              	.LASF256:
 18122 059f 4F70616D 		.ascii	"Opamp_2_Start\000"
 18122      705F325F 
 18122      53746172 
 18122      7400
 18123              	.LASF212:
 18124 05ad 55534255 		.ascii	"USBUART_GetAll\000"
 18124      4152545F 
 18124      47657441 
 18124      6C6C00
 18125              	.LASF33:
 18126 05bc 52323530 		.ascii	"R250K\000"
 18126      4B00
 18127              	.LASF197:
 18128 05c2 5449415F 		.ascii	"TIA_Selected_Resistor\000"
 18128      53656C65 
 18128      63746564 
 18128      5F526573 
 18128      6973746F 
 18129              	.LASF9:
 18130 05d8 6C6F6E67 		.ascii	"long unsigned int\000"
 18130      20756E73 
 18130      69676E65 
 18130      6420696E 
 18130      7400
ARM GAS  C:\Users\FRANKL~1\AppData\Local\Temp\ccjWonOy.s 			page 364


 18131              	.LASF131:
 18132 05ea 5667735F 		.ascii	"Vgs_minRefRaw\000"
 18132      6D696E52 
 18132      65665261 
 18132      7700
 18133              	.LASF136:
 18134 05f8 766F6C74 		.ascii	"voltage\000"
 18134      61676500 
 18135              	.LASF69:
 18136 0600 44697363 		.ascii	"Disconnect_Intermediate\000"
 18136      6F6E6E65 
 18136      63745F49 
 18136      6E746572 
 18136      6D656469 
 18137              	.LASF58:
 18138 0618 6368616E 		.ascii	"channel\000"
 18138      6E656C00 
 18139              	.LASF242:
 18140 0620 56444143 		.ascii	"VDAC_Vgs_SetValue\000"
 18140      5F566773 
 18140      5F536574 
 18140      56616C75 
 18140      6500
 18141              	.LASF143:
 18142 0632 766F6C74 		.ascii	"voltageSD\000"
 18142      61676553 
 18142      4400
 18143              	.LASF51:
 18144 063c 73656E64 		.ascii	"sendTransmitBuffer\000"
 18144      5472616E 
 18144      736D6974 
 18144      42756666 
 18144      657200
 18145              	.LASF96:
 18146 064f 5341525F 		.ascii	"SAR_SD\000"
 18146      534400
 18147              	.LASF92:
 18148 0656 4144435F 		.ascii	"ADC_Voltage\000"
 18148      566F6C74 
 18148      61676500 
 18149              	.LASF129:
 18150 0662 5664735F 		.ascii	"Vds_minRefRaw\000"
 18150      6D696E52 
 18150      65665261 
 18150      7700
 18151              	.LASF203:
 18152 0670 5664735F 		.ascii	"Vds_Index_Goal_Relative\000"
 18152      496E6465 
 18152      785F476F 
 18152      616C5F52 
 18152      656C6174 
 18153              	.LASF226:
 18154 0688 73707269 		.ascii	"sprintf\000"
 18154      6E746600 
 18155              	.LASF115:
 18156 0690 6973746F 		.ascii	"istop\000"
 18156      7000
ARM GAS  C:\Users\FRANKL~1\AppData\Local\Temp\ccjWonOy.s 			page 365


 18157              	.LASF105:
 18158 0696 63757272 		.ascii	"currentAverage\000"
 18158      656E7441 
 18158      76657261 
 18158      676500
 18159              	.LASF153:
 18160 06a5 4D656173 		.ascii	"Measure_Gate_Sweep\000"
 18160      7572655F 
 18160      47617465 
 18160      5F537765 
 18160      657000
 18161              	.LASF180:
 18162 06b8 6C6F6361 		.ascii	"location\000"
 18162      74696F6E 
 18162      00
 18163              	.LASF75:
 18164 06c1 4144435F 		.ascii	"ADC_Decrease_Range\000"
 18164      44656372 
 18164      65617365 
 18164      5F52616E 
 18164      676500
 18165              	.LASF231:
 18166 06d4 4144435F 		.ascii	"ADC_DelSig_1_GetResult32\000"
 18166      44656C53 
 18166      69675F31 
 18166      5F476574 
 18166      52657375 
 18167              	.LASF70:
 18168 06ed 436F6E6E 		.ascii	"Connect_Intermediates\000"
 18168      6563745F 
 18168      496E7465 
 18168      726D6564 
 18168      69617465 
 18169              	.LASF165:
 18170 0703 67617465 		.ascii	"gateIncrement\000"
 18170      496E6372 
 18170      656D656E 
 18170      7400
 18171              	.LASF2:
 18172 0711 6C6F6E67 		.ascii	"long long int\000"
 18172      206C6F6E 
 18172      6720696E 
 18172      7400
 18173              	.LASF23:
 18174 071f 73756241 		.ascii	"subAddress\000"
 18174      64647265 
 18174      737300
 18175              	.LASF21:
 18176 072a 646F7562 		.ascii	"double\000"
 18176      6C6500
 18177              	.LASF262:
 18178 0731 6D61696E 		.ascii	"main.c\000"
 18178      2E6300
 18179              	.LASF98:
 18180 0738 53415232 		.ascii	"SAR2_Measure_V\000"
 18180      5F4D6561 
 18180      73757265 
ARM GAS  C:\Users\FRANKL~1\AppData\Local\Temp\ccjWonOy.s 			page 366


 18180      5F5600
 18181              	.LASF245:
 18182 0747 73736361 		.ascii	"sscanf\000"
 18182      6E6600
 18183              	.LASF250:
 18184 074e 56444143 		.ascii	"VDAC_Ref_Start\000"
 18184      5F526566 
 18184      5F537461 
 18184      727400
 18185              	.LASF36:
 18186 075d 55534255 		.ascii	"USBUARTH_DataIsReady\000"
 18186      41525448 
 18186      5F446174 
 18186      61497352 
 18186      65616479 
 18187              	.LASF49:
 18188 0772 7465726D 		.ascii	"termination\000"
 18188      696E6174 
 18188      696F6E00 
 18189              	.LASF238:
 18190 077e 4144435F 		.ascii	"ADC_SAR_2_IsEndConversion\000"
 18190      5341525F 
 18190      325F4973 
 18190      456E6443 
 18190      6F6E7665 
 18191              	.LASF130:
 18192 0798 5664735F 		.ascii	"Vds_maxRefRaw\000"
 18192      6D617852 
 18192      65665261 
 18192      7700
 18193              	.LASF186:
 18194 07a6 49544D5F 		.ascii	"ITM_RxBuffer\000"
 18194      52784275 
 18194      66666572 
 18194      00
 18195              	.LASF55:
 18196 07b3 73656C65 		.ascii	"selectori\000"
 18196      63746F72 
 18196      6900
 18197              	.LASF201:
 18198 07bd 436F6D70 		.ascii	"Compliance_Reached\000"
 18198      6C69616E 
 18198      63655F52 
 18198      65616368 
 18198      656400
 18199              	.LASF84:
 18200 07d0 73616D70 		.ascii	"sampleCount\000"
 18200      6C65436F 
 18200      756E7400 
 18201              	.LASF187:
 18202 07dc 73656C65 		.ascii	"selectors\000"
 18202      63746F72 
 18202      7300
 18203              	.LASF43:
 18204 07e6 636F756E 		.ascii	"count\000"
 18204      7400
 18205              	.LASF26:
ARM GAS  C:\Users\FRANKL~1\AppData\Local\Temp\ccjWonOy.s 			page 367


 18206 07ec 72656164 		.ascii	"read\000"
 18206      00
 18207              	.LASF113:
 18208 07f1 48616E64 		.ascii	"Handle_Compliance_Breach\000"
 18208      6C655F43 
 18208      6F6D706C 
 18208      69616E63 
 18208      655F4272 
 18209              	.LASF253:
 18210 080a 4144435F 		.ascii	"ADC_SAR_1_Start\000"
 18210      5341525F 
 18210      315F5374 
 18210      61727400 
 18211              	.LASF1:
 18212 081a 756E7369 		.ascii	"unsigned int\000"
 18212      676E6564 
 18212      20696E74 
 18212      00
 18213              	.LASF158:
 18214 0827 4D656173 		.ascii	"Measure_Gate_Sweep_New\000"
 18214      7572655F 
 18214      47617465 
 18214      5F537765 
 18214      65705F4E 
 18215              	.LASF234:
 18216 083e 4144435F 		.ascii	"ADC_SAR_1_IsEndConversion\000"
 18216      5341525F 
 18216      315F4973 
 18216      456E6443 
 18216      6F6E7665 
 18217              	.LASF50:
 18218 0858 55534255 		.ascii	"USBUARTH_Maintain_Configuration\000"
 18218      41525448 
 18218      5F4D6169 
 18218      6E746169 
 18218      6E5F436F 
 18219              	.LASF30:
 18220 0878 5234304B 		.ascii	"R40K\000"
 18220      00
 18221              	.LASF65:
 18222 087d 44697363 		.ascii	"Disconnect_Contact_From_All_Intermediates\000"
 18222      6F6E6E65 
 18222      63745F43 
 18222      6F6E7461 
 18222      63745F46 
 18223              	.LASF181:
 18224 08a7 76677369 		.ascii	"vgsi\000"
 18224      00
 18225              	.LASF102:
 18226 08ac 63757272 		.ascii	"currentStdDevIn\000"
 18226      656E7453 
 18226      74644465 
 18226      76496E00 
 18227              	.LASF87:
 18228 08bc 6D656469 		.ascii	"medianArraySize\000"
 18228      616E4172 
 18228      72617953 
ARM GAS  C:\Users\FRANKL~1\AppData\Local\Temp\ccjWonOy.s 			page 368


 18228      697A6500 
 18229              	.LASF230:
 18230 08cc 4144435F 		.ascii	"ADC_DelSig_1_IsEndConversion\000"
 18230      44656C53 
 18230      69675F31 
 18230      5F497345 
 18230      6E64436F 
 18231              	.LASF259:
 18232 08e9 436F6D6D 		.ascii	"CommunicationTimer_Start\000"
 18232      756E6963 
 18232      6174696F 
 18232      6E54696D 
 18232      65725F53 
 18233              	.LASF217:
 18234 0902 436F6D6D 		.ascii	"CommunicationTimer_ReadStatusRegister\000"
 18234      756E6963 
 18234      6174696F 
 18234      6E54696D 
 18234      65725F52 
 18235              	.LASF104:
 18236 0928 63757272 		.ascii	"currentNow\000"
 18236      656E744E 
 18236      6F7700
 18237              	.LASF111:
 18238 0933 63757272 		.ascii	"current\000"
 18238      656E7400 
 18239              	.LASF83:
 18240 093b 7374616E 		.ascii	"standardDeviation\000"
 18240      64617264 
 18240      44657669 
 18240      6174696F 
 18240      6E00
 18241              	.LASF47:
 18242 094d 55534255 		.ascii	"USBUARTH_Receive_Until\000"
 18242      41525448 
 18242      5F526563 
 18242      65697665 
 18242      5F556E74 
 18243              	.LASF162:
 18244 0964 656E6452 		.ascii	"endRefIndex\000"
 18244      6566496E 
 18244      64657800 
 18245              	.LASF63:
 18246 0970 6F666673 		.ascii	"offset\000"
 18246      657400
 18247              	.LASF252:
 18248 0977 5449415F 		.ascii	"TIA_1_Start\000"
 18248      315F5374 
 18248      61727400 
 18249              	.LASF254:
 18250 0983 4144435F 		.ascii	"ADC_SAR_2_Start\000"
 18250      5341525F 
 18250      325F5374 
 18250      61727400 
 18251              	.LASF67:
 18252 0993 44697363 		.ascii	"Disconnect_All_Contacts_From_Intermediate\000"
 18252      6F6E6E65 
ARM GAS  C:\Users\FRANKL~1\AppData\Local\Temp\ccjWonOy.s 			page 369


 18252      63745F41 
 18252      6C6C5F43 
 18252      6F6E7461 
 18253              	.LASF239:
 18254 09bd 4144435F 		.ascii	"ADC_SAR_2_GetResult16\000"
 18254      5341525F 
 18254      325F4765 
 18254      74526573 
 18254      756C7431 
 18255              	.LASF198:
 18256 09d3 5449415F 		.ascii	"TIA_Resistor_Codes\000"
 18256      52657369 
 18256      73746F72 
 18256      5F436F64 
 18256      657300
 18257              	.LASF219:
 18258 09e6 55534255 		.ascii	"USBUART_PutData\000"
 18258      4152545F 
 18258      50757444 
 18258      61746100 
 18259              	.LASF183:
 18260 09f6 73756363 		.ascii	"success\000"
 18260      65737300 
 18261              	.LASF166:
 18262 09fe 73746172 		.ascii	"startGateIndex\000"
 18262      74476174 
 18262      65496E64 
 18262      657800
 18263              	.LASF3:
 18264 0a0d 6C6F6E67 		.ascii	"long double\000"
 18264      20646F75 
 18264      626C6500 
 18265              	.LASF80:
 18266 0a19 6D656469 		.ascii	"medianOfArray\000"
 18266      616E4F66 
 18266      41727261 
 18266      7900
 18267              	.LASF249:
 18268 0a27 56444143 		.ascii	"VDAC_Vgs_Start\000"
 18268      5F566773 
 18268      5F537461 
 18268      727400
 18269              	.LASF41:
 18270 0a36 52656365 		.ascii	"ReceiveBuffer\000"
 18270      69766542 
 18270      75666665 
 18270      7200
 18271              	.LASF222:
 18272 0a44 55415254 		.ascii	"UART_1_PutString\000"
 18272      5F315F50 
 18272      75745374 
 18272      72696E67 
 18272      00
 18273              	.LASF196:
 18274 0a55 55534255 		.ascii	"USBUART_Rx_Position\000"
 18274      4152545F 
 18274      52785F50 
ARM GAS  C:\Users\FRANKL~1\AppData\Local\Temp\ccjWonOy.s 			page 370


 18274      6F736974 
 18274      696F6E00 
 18275              	.LASF210:
 18276 0a69 55534255 		.ascii	"USBUART_CDC_Init\000"
 18276      4152545F 
 18276      4344435F 
 18276      496E6974 
 18276      00
 18277              	.LASF138:
 18278 0a7a 5365745F 		.ascii	"Set_Vgs_mV\000"
 18278      5667735F 
 18278      6D5600
 18279              	.LASF194:
 18280 0a85 55415254 		.ascii	"UART_Rx_Position\000"
 18280      5F52785F 
 18280      506F7369 
 18280      74696F6E 
 18280      00
 18281              	.LASF202:
 18282 0a96 5667735F 		.ascii	"Vgs_Index_Goal_Relative\000"
 18282      496E6465 
 18282      785F476F 
 18282      616C5F52 
 18282      656C6174 
 18283              	.LASF94:
 18284 0aae 53415231 		.ascii	"SAR1_Measure_V\000"
 18284      5F4D6561 
 18284      73757265 
 18284      5F5600
 18285              	.LASF188:
 18286 0abd 5472616E 		.ascii	"TransmitBuffer\000"
 18286      736D6974 
 18286      42756666 
 18286      657200
 18287              	.LASF154:
 18288 0acc 6C6F6F70 		.ascii	"loop\000"
 18288      00
 18289              	.LASF172:
 18290 0ad1 64657669 		.ascii	"device\000"
 18290      636500
 18291              	.LASF78:
 18292 0ad8 73697A65 		.ascii	"size\000"
 18292      00
 18293              	.LASF64:
 18294 0add 44697363 		.ascii	"Disconnect_Contact_From_Intermediate\000"
 18294      6F6E6E65 
 18294      63745F43 
 18294      6F6E7461 
 18294      63745F46 
 18295              	.LASF10:
 18296 0b02 6C6F6E67 		.ascii	"long long unsigned int\000"
 18296      206C6F6E 
 18296      6720756E 
 18296      7369676E 
 18296      65642069 
 18297              	.LASF193:
 18298 0b19 55415254 		.ascii	"UART_Receive_Buffer\000"
ARM GAS  C:\Users\FRANKL~1\AppData\Local\Temp\ccjWonOy.s 			page 371


 18298      5F526563 
 18298      65697665 
 18298      5F427566 
 18298      66657200 
 18299              	.LASF76:
 18300 0b2d 736F7274 		.ascii	"sortArray\000"
 18300      41727261 
 18300      7900
 18301              	.LASF200:
 18302 0b37 5449415F 		.ascii	"TIA_Offsets_uV\000"
 18302      4F666673 
 18302      6574735F 
 18302      755600
 18303              	.LASF211:
 18304 0b46 55534255 		.ascii	"USBUART_DataIsReady\000"
 18304      4152545F 
 18304      44617461 
 18304      49735265 
 18304      61647900 
 18305              	.LASF144:
 18306 0b5a 4D656173 		.ascii	"Measure\000"
 18306      75726500 
 18307              	.LASF185:
 18308 0b62 5664735F 		.ascii	"Vds_mV\000"
 18308      6D5600
 18309              	.LASF62:
 18310 0b69 636F6E74 		.ascii	"contact\000"
 18310      61637400 
 18311              	.LASF179:
 18312 0b71 73746F70 		.ascii	"stopDevice\000"
 18312      44657669 
 18312      636500
 18313              	.LASF22:
 18314 0b7c 72656738 		.ascii	"reg8\000"
 18314      00
 18315              	.LASF156:
 18316 0b81 4D656173 		.ascii	"Measure_Wide_Gate_Sweep\000"
 18316      7572655F 
 18316      57696465 
 18316      5F476174 
 18316      655F5377 
 18317              	.LASF40:
 18318 0b99 74656D70 		.ascii	"temp_count\000"
 18318      5F636F75 
 18318      6E7400
 18319              	.LASF243:
 18320 0ba4 56444143 		.ascii	"VDAC_Ref_SetValue\000"
 18320      5F526566 
 18320      5F536574 
 18320      56616C75 
 18320      6500
 18321              	.LASF178:
 18322 0bb6 73746172 		.ascii	"startDevice\000"
 18322      74446576 
 18322      69636500 
 18323              	.LASF209:
 18324 0bc2 55534255 		.ascii	"USBUART_GetConfiguration\000"
ARM GAS  C:\Users\FRANKL~1\AppData\Local\Temp\ccjWonOy.s 			page 372


 18324      4152545F 
 18324      47657443 
 18324      6F6E6669 
 18324      67757261 
 18325              	.LASF73:
 18326 0bdb 72657369 		.ascii	"resistor\000"
 18326      73746F72 
 18326      00
 18327              	.LASF177:
 18328 0be4 5363616E 		.ascii	"Scan_Range\000"
 18328      5F52616E 
 18328      676500
 18329              	.LASF145:
 18330 0bef 64656C74 		.ascii	"deltaSigmaSampleCount\000"
 18330      61536967 
 18330      6D615361 
 18330      6D706C65 
 18330      436F756E 
 18331              	.LASF110:
 18332 0c05 41745F43 		.ascii	"At_Compliance\000"
 18332      6F6D706C 
 18332      69616E63 
 18332      6500
 18333              	.LASF137:
 18334 0c13 5365745F 		.ascii	"Set_Vds\000"
 18334      56647300 
 18335              	.LASF85:
 18336 0c1b 4144435F 		.ascii	"ADC_Result\000"
 18336      52657375 
 18336      6C7400
 18337              	.LASF37:
 18338 0c26 436F6D6D 		.ascii	"CommunicationHandlerISR\000"
 18338      756E6963 
 18338      6174696F 
 18338      6E48616E 
 18338      646C6572 
 18339              	.LASF74:
 18340 0c3e 4144435F 		.ascii	"ADC_Increase_Range\000"
 18340      496E6372 
 18340      65617365 
 18340      5F52616E 
 18340      676500
 18341              	.LASF54:
 18342 0c51 55706461 		.ascii	"Update_Selector\000"
 18342      74655F53 
 18342      656C6563 
 18342      746F7200 
 18343              	.LASF213:
 18344 0c61 73747273 		.ascii	"strstr\000"
 18344      747200
 18345              	.LASF103:
 18346 0c68 63686563 		.ascii	"checkCompliance\000"
 18346      6B436F6D 
 18346      706C6961 
 18346      6E636500 
 18347              	.LASF190:
 18348 0c78 475F5374 		.ascii	"G_Stop\000"
ARM GAS  C:\Users\FRANKL~1\AppData\Local\Temp\ccjWonOy.s 			page 373


 18348      6F7000
 18349              	.LASF263:
 18350 0c7f 433A5C55 		.ascii	"C:\\Users\\FranklinLab_PC_1\\Documents\\Python Scri"
 18350      73657273 
 18350      5C467261 
 18350      6E6B6C69 
 18350      6E4C6162 
 18351 0cae 7074735C 		.ascii	"pts\\CNT_IV\\PSoC\\Layout 2_14\\Version 4_Full\\Mas"
 18351      434E545F 
 18351      49565C50 
 18351      536F435C 
 18351      4C61796F 
 18352 0cdc 7465725C 		.ascii	"ter\\Master 1\\Design01.cydsn\000"
 18352      4D617374 
 18352      65722031 
 18352      5C446573 
 18352      69676E30 
 18353              	.LASF15:
 18354 0cf8 75696E74 		.ascii	"uint8\000"
 18354      3800
 18355              	.LASF227:
 18356 0cfe 4932435F 		.ascii	"I2C_1_MasterClearStatus\000"
 18356      315F4D61 
 18356      73746572 
 18356      436C6561 
 18356      72537461 
 18357              	.LASF169:
 18358 0d16 67617465 		.ascii	"gateArrived\000"
 18358      41727269 
 18358      76656400 
 18359              	.LASF192:
 18360 0d22 475F5061 		.ascii	"G_Pause\000"
 18360      75736500 
 18361              	.LASF244:
 18362 0d2a 73747274 		.ascii	"strtol\000"
 18362      6F6C00
 18363              	.LASF45:
 18364 0d31 55534255 		.ascii	"USBUARTH_Receive\000"
 18364      41525448 
 18364      5F526563 
 18364      65697665 
 18364      00
 18365              	.LASF6:
 18366 0d42 73686F72 		.ascii	"short int\000"
 18366      7420696E 
 18366      7400
 18367              	.LASF150:
 18368 0d4c 4D656173 		.ascii	"Measure_Multiple\000"
 18368      7572655F 
 18368      4D756C74 
 18368      69706C65 
 18368      00
 18369              	.LASF214:
 18370 0d5d 55415254 		.ascii	"UART_1_GetRxBufferSize\000"
 18370      5F315F47 
 18370      65745278 
 18370      42756666 
ARM GAS  C:\Users\FRANKL~1\AppData\Local\Temp\ccjWonOy.s 			page 374


 18370      65725369 
 18371              	.LASF61:
 18372 0d74 436F6E6E 		.ascii	"Connect_Contact_To_Intermediate\000"
 18372      6563745F 
 18372      436F6E74 
 18372      6163745F 
 18372      546F5F49 
 18373              	.LASF132:
 18374 0d94 5667735F 		.ascii	"Vgs_maxRefRaw\000"
 18374      6D617852 
 18374      65665261 
 18374      7700
 18375              	.LASF120:
 18376 0da2 4765745F 		.ascii	"Get_Vds\000"
 18376      56647300 
 18377              	.LASF208:
 18378 0daa 55534255 		.ascii	"USBUART_IsConfigurationChanged\000"
 18378      4152545F 
 18378      4973436F 
 18378      6E666967 
 18378      75726174 
 18379              	.LASF205:
 18380 0dc9 75617274 		.ascii	"uartSendingEnabled\000"
 18380      53656E64 
 18380      696E6745 
 18380      6E61626C 
 18380      656400
 18381              	.LASF215:
 18382 0ddc 55415254 		.ascii	"UART_1_GetChar\000"
 18382      5F315F47 
 18382      65744368 
 18382      617200
 18383              	.LASF27:
 18384 0deb 62757341 		.ascii	"busAddress\000"
 18384      64647265 
 18384      737300
 18385              	.LASF135:
 18386 0df6 5365745F 		.ascii	"Set_Vgs\000"
 18386      56677300 
 18387              	.LASF160:
 18388 0dfe 72656649 		.ascii	"refIncrement\000"
 18388      6E637265 
 18388      6D656E74 
 18388      00
 18389              	.LASF207:
 18390 0e0b 75736275 		.ascii	"usbuSendingEnabled\000"
 18390      53656E64 
 18390      696E6745 
 18390      6E61626C 
 18390      656400
 18391              	.LASF220:
 18392 0e1e 55534255 		.ascii	"USBUART_GetChar\000"
 18392      4152545F 
 18392      47657443 
 18392      68617200 
 18393              	.LASF99:
 18394 0e2e 53415232 		.ascii	"SAR2_Result_Current\000"
ARM GAS  C:\Users\FRANKL~1\AppData\Local\Temp\ccjWonOy.s 			page 375


 18394      5F526573 
 18394      756C745F 
 18394      43757272 
 18394      656E7400 
 18395              	.LASF228:
 18396 0e42 4932435F 		.ascii	"I2C_1_MasterWriteBuf\000"
 18396      315F4D61 
 18396      73746572 
 18396      57726974 
 18396      65427566 
 18397              	.LASF159:
 18398 0e57 72656654 		.ascii	"refTurn\000"
 18398      75726E00 
 18399              	.LASF221:
 18400 0e5f 7374726C 		.ascii	"strlen\000"
 18400      656E00
 18401              	.LASF173:
 18402 0e66 636F6E74 		.ascii	"contact1\000"
 18402      61637431 
 18402      00
 18403              	.LASF174:
 18404 0e6f 636F6E74 		.ascii	"contact2\000"
 18404      61637432 
 18404      00
 18405              	.LASF19:
 18406 0e78 696E7431 		.ascii	"int16\000"
 18406      3600
 18407              	.LASF146:
 18408 0e7e 53415231 		.ascii	"SAR1_SampleCount\000"
 18408      5F53616D 
 18408      706C6543 
 18408      6F756E74 
 18408      00
 18409              	.LASF141:
 18410 0e8f 43616C69 		.ascii	"Calibrate_ADC_Offset\000"
 18410      62726174 
 18410      655F4144 
 18410      435F4F66 
 18410      66736574 
 18411              	.LASF133:
 18412 0ea4 6E657752 		.ascii	"newRefRaw\000"
 18412      65665261 
 18412      7700
 18413              	.LASF167:
 18414 0eae 656E6447 		.ascii	"endGateIndex\000"
 18414      61746549 
 18414      6E646578 
 18414      00
 18415              	.LASF216:
 18416 0ebb 436F6D6D 		.ascii	"CommunicationInterrupt_ClearPending\000"
 18416      756E6963 
 18416      6174696F 
 18416      6E496E74 
 18416      65727275 
 18417              	.LASF149:
 18418 0edf 49647353 		.ascii	"IdsSDAmps\000"
 18418      44416D70 
ARM GAS  C:\Users\FRANKL~1\AppData\Local\Temp\ccjWonOy.s 			page 376


 18418      7300
 18419              	.LASF258:
 18420 0ee9 43794465 		.ascii	"CyDelay\000"
 18420      6C617900 
 18421              	.LASF57:
 18422 0ef1 436F6E6E 		.ascii	"Connect_Channel_On_Intermediate\000"
 18422      6563745F 
 18422      4368616E 
 18422      6E656C5F 
 18422      4F6E5F49 
 18423              	.LASF34:
 18424 0f11 52353030 		.ascii	"R500K\000"
 18424      4B00
 18425              	.LASF119:
 18426 0f17 4765745F 		.ascii	"Get_Vgs\000"
 18426      56677300 
 18427              	.LASF148:
 18428 0f1f 49647341 		.ascii	"IdsAverageAmps\000"
 18428      76657261 
 18428      6765416D 
 18428      707300
 18429              	.LASF0:
 18430 0f2e 666C6F61 		.ascii	"float\000"
 18430      7400
 18431              	.LASF175:
 18432 0f34 696E7465 		.ascii	"intermediate1\000"
 18432      726D6564 
 18432      69617465 
 18432      3100
 18433              	.LASF176:
 18434 0f42 696E7465 		.ascii	"intermediate2\000"
 18434      726D6564 
 18434      69617465 
 18434      3200
 18435              	.LASF20:
 18436 0f50 696E7433 		.ascii	"int32\000"
 18436      3200
 18437              	.LASF13:
 18438 0f56 5F5F696E 		.ascii	"__int32_t\000"
 18438      7433325F 
 18438      7400
 18439              	.LASF53:
 18440 0f60 73656C65 		.ascii	"selector\000"
 18440      63746F72 
 18440      00
 18441              	.LASF121:
 18442 0f69 5365745F 		.ascii	"Set_Vds_Raw\000"
 18442      5664735F 
 18442      52617700 
 18443              	.LASF79:
 18444 0f75 74656D70 		.ascii	"temp\000"
 18444      00
 18445              	.LASF89:
 18446 0f7a 6D656469 		.ascii	"medianArray\000"
 18446      616E4172 
 18446      72617900 
 18447              	.LASF157:
ARM GAS  C:\Users\FRANKL~1\AppData\Local\Temp\ccjWonOy.s 			page 377


 18448 0f86 73706565 		.ascii	"speed\000"
 18448      6400
 18449              	.LASF182:
 18450 0f8c 76647369 		.ascii	"vdsi\000"
 18450      00
 18451              	.LASF268:
 18452 0f91 5F5F6275 		.ascii	"__builtin_strchr\000"
 18452      696C7469 
 18452      6E5F7374 
 18452      72636872 
 18452      00
 18453              	.LASF24:
 18454 0fa2 64617461 		.ascii	"data\000"
 18454      00
 18455              	.LASF229:
 18456 0fa7 5449415F 		.ascii	"TIA_1_SetResFB\000"
 18456      315F5365 
 18456      74526573 
 18456      464200
 18457              	.LASF251:
 18458 0fb6 4144435F 		.ascii	"ADC_DelSig_1_Start\000"
 18458      44656C53 
 18458      69675F31 
 18458      5F537461 
 18458      727400
 18459              	.LASF16:
 18460 0fc9 75696E74 		.ascii	"uint16\000"
 18460      313600
 18461              	.LASF171:
 18462 0fd0 77696465 		.ascii	"wide\000"
 18462      00
 18463              	.LASF237:
 18464 0fd5 4144435F 		.ascii	"ADC_SAR_2_StartConvert\000"
 18464      5341525F 
 18464      325F5374 
 18464      61727443 
 18464      6F6E7665 
 18465              	.LASF161:
 18466 0fec 73746172 		.ascii	"startRefIndex\000"
 18466      74526566 
 18466      496E6465 
 18466      7800
 18467              	.LASF248:
 18468 0ffa 56444143 		.ascii	"VDAC_Vds_Start\000"
 18468      5F566473 
 18468      5F537461 
 18468      727400
 18469              	.LASF218:
 18470 1009 55534255 		.ascii	"USBUART_CDCIsReady\000"
 18470      4152545F 
 18470      43444349 
 18470      73526561 
 18470      647900
 18471              		.ident	"GCC: (GNU Tools for ARM Embedded Processors) 5.4.1 20160609 (release) [ARM/embedded-5-bran
