ARM GAS  C:\Users\FRANKL~1\AppData\Local\Temp\ccebBo1q.s 			page 1


   1              		.syntax unified
   2              		.cpu cortex-m3
   3              		.fpu softvfp
   4              		.eabi_attribute 20, 1
   5              		.eabi_attribute 21, 1
   6              		.eabi_attribute 23, 3
   7              		.eabi_attribute 24, 1
   8              		.eabi_attribute 25, 1
   9              		.eabi_attribute 26, 1
  10              		.eabi_attribute 30, 1
  11              		.eabi_attribute 34, 1
  12              		.eabi_attribute 18, 4
  13              		.thumb
  14              		.syntax unified
  15              		.file	"main.c"
  16              		.text
  17              	.Ltext0:
  18              		.cfi_sections	.debug_frame
  19              		.syntax unified
  20              		.global _printf_float
  21              		.thumb
  22              		.syntax unified
  23              		.section	.text.USBUARTH_Maintain_Configuration,"ax",%progbits
  24              		.align	2
  25              		.global	USBUARTH_Maintain_Configuration
  26              		.thumb
  27              		.thumb_func
  28              		.type	USBUARTH_Maintain_Configuration, %function
  29              	USBUARTH_Maintain_Configuration:
  30              	.LFB64:
  31              		.file 1 "USBUART_Helpers.h"
   1:USBUART_Helpers.h **** #include "project.h"
   2:USBUART_Helpers.h **** #include "stdio.h"
   3:USBUART_Helpers.h **** 
   4:USBUART_Helpers.h **** #if defined (__GNUC__)
   5:USBUART_Helpers.h **** 	/* Add an explicit reference to the floating point printf library */
   6:USBUART_Helpers.h **** 	/* to allow usage of the floating point conversion specifiers. */
   7:USBUART_Helpers.h **** 	/* This is not linked in by default with the newlib-nano library. */
   8:USBUART_Helpers.h **** 	asm (".global _printf_float");
   9:USBUART_Helpers.h **** #endif
  10:USBUART_Helpers.h **** 
  11:USBUART_Helpers.h **** // The buffer size is equal to the maximum packet size of the IN and OUT bulk endpoints.
  12:USBUART_Helpers.h **** #define USBUART_BUFFER_SIZE	(64u)
  13:USBUART_Helpers.h **** #define LINE_STR_LENGTH		(20u)
  14:USBUART_Helpers.h **** 
  15:USBUART_Helpers.h **** 
  16:USBUART_Helpers.h **** void USBUARTH_Maintain_Configuration() {
  32              		.loc 1 16 0
  33              		.cfi_startproc
  34              		@ args = 0, pretend = 0, frame = 0
  35              		@ frame_needed = 0, uses_anonymous_args = 0
  36 0000 08B5     		push	{r3, lr}
  37              		.cfi_def_cfa_offset 8
  38              		.cfi_offset 3, -8
  39              		.cfi_offset 14, -4
  40              	.LVL0:
  17:USBUART_Helpers.h **** 	unsigned long tries = 0;
ARM GAS  C:\Users\FRANKL~1\AppData\Local\Temp\ccebBo1q.s 			page 2


  18:USBUART_Helpers.h **** 	
  19:USBUART_Helpers.h **** 	do {
  20:USBUART_Helpers.h **** 		// Host can send double SET_INTERFACE request.
  21:USBUART_Helpers.h **** 		if (USBUART_IsConfigurationChanged()) {
  41              		.loc 1 21 0
  42 0002 FFF7FEFF 		bl	USBUART_IsConfigurationChanged
  43              	.LVL1:
  44 0006 20B1     		cbz	r0, .L2
  22:USBUART_Helpers.h **** 			// Initialize IN endpoints when device is configured.
  23:USBUART_Helpers.h **** 			if (USBUART_GetConfiguration()) {
  45              		.loc 1 23 0
  46 0008 FFF7FEFF 		bl	USBUART_GetConfiguration
  47              	.LVL2:
  48 000c 08B1     		cbz	r0, .L2
  24:USBUART_Helpers.h **** 				// Enumeration is done, enable OUT endpoint to receive data from host.
  25:USBUART_Helpers.h **** 				USBUART_CDC_Init();
  49              		.loc 1 25 0
  50 000e FFF7FEFF 		bl	USBUART_CDC_Init
  51              	.LVL3:
  52              	.L2:
  26:USBUART_Helpers.h **** 			}
  27:USBUART_Helpers.h **** 		}
  28:USBUART_Helpers.h **** 		
  29:USBUART_Helpers.h **** 		tries++;
  30:USBUART_Helpers.h **** 	// Keep trying until USB CDC device is configured
  31:USBUART_Helpers.h **** 	} while (!USBUART_GetConfiguration() && tries < 1);
  53              		.loc 1 31 0
  54 0012 FFF7FEFF 		bl	USBUART_GetConfiguration
  55              	.LVL4:
  56 0016 08BD     		pop	{r3, pc}
  57              		.cfi_endproc
  58              	.LFE64:
  59              		.size	USBUARTH_Maintain_Configuration, .-USBUARTH_Maintain_Configuration
  60              		.section	.text.USBUARTH_DataIsReady,"ax",%progbits
  61              		.align	2
  62              		.global	USBUARTH_DataIsReady
  63              		.thumb
  64              		.thumb_func
  65              		.type	USBUARTH_DataIsReady, %function
  66              	USBUARTH_DataIsReady:
  67              	.LFB65:
  32:USBUART_Helpers.h **** }
  33:USBUART_Helpers.h **** 
  34:USBUART_Helpers.h **** uint8 USBUARTH_DataIsReady() {
  68              		.loc 1 34 0
  69              		.cfi_startproc
  70              		@ args = 0, pretend = 0, frame = 0
  71              		@ frame_needed = 0, uses_anonymous_args = 0
  72 0000 08B5     		push	{r3, lr}
  73              		.cfi_def_cfa_offset 8
  74              		.cfi_offset 3, -8
  75              		.cfi_offset 14, -4
  35:USBUART_Helpers.h **** 	USBUARTH_Maintain_Configuration();
  76              		.loc 1 35 0
  77 0002 FFF7FEFF 		bl	USBUARTH_Maintain_Configuration
  78              	.LVL5:
  36:USBUART_Helpers.h **** 	
ARM GAS  C:\Users\FRANKL~1\AppData\Local\Temp\ccebBo1q.s 			page 3


  37:USBUART_Helpers.h **** 	return USBUART_GetConfiguration() && USBUART_DataIsReady();
  79              		.loc 1 37 0
  80 0006 FFF7FEFF 		bl	USBUART_GetConfiguration
  81              	.LVL6:
  82 000a 20B1     		cbz	r0, .L6
  83              		.loc 1 37 0 is_stmt 0 discriminator 1
  84 000c FFF7FEFF 		bl	USBUART_DataIsReady
  85              	.LVL7:
  86 0010 18B1     		cbz	r0, .L7
  87              		.loc 1 37 0
  88 0012 0120     		movs	r0, #1
  89 0014 08BD     		pop	{r3, pc}
  90              	.L6:
  91 0016 0020     		movs	r0, #0
  92 0018 08BD     		pop	{r3, pc}
  93              	.L7:
  94 001a 0020     		movs	r0, #0
  38:USBUART_Helpers.h **** }
  95              		.loc 1 38 0 is_stmt 1
  96 001c 08BD     		pop	{r3, pc}
  97              		.cfi_endproc
  98              	.LFE65:
  99              		.size	USBUARTH_DataIsReady, .-USBUARTH_DataIsReady
 100 001e 00BF     		.section	.text.CommunicationHandlerISR,"ax",%progbits
 101              		.align	2
 102              		.global	CommunicationHandlerISR
 103              		.thumb
 104              		.thumb_func
 105              		.type	CommunicationHandlerISR, %function
 106              	CommunicationHandlerISR:
 107              	.LFB115:
 108              		.file 2 "main.c"
   1:main.c        **** #include <stdlib.h>
   2:main.c        **** #include <stdio.h>
   3:main.c        **** #include "project.h"
   4:main.c        **** #include "USBUART_Helpers.h"
   5:main.c        **** 
   6:main.c        **** 
   7:main.c        **** struct Selector_I2C_Struct {
   8:main.c        **** 	struct {
   9:main.c        **** 		uint8 subAddress;
  10:main.c        **** 		uint8 data[126];
  11:main.c        **** 	} write;
  12:main.c        **** 	struct {
  13:main.c        **** 		uint8 subAddress;
  14:main.c        **** 		uint8 data[126];
  15:main.c        **** 	} read;
  16:main.c        **** 	uint8 busAddress;
  17:main.c        **** };
  18:main.c        **** 
  19:main.c        **** 
  20:main.c        **** // Globals ----------------------------------------------
  21:main.c        **** #define SELECTOR_COUNT (4u)
  22:main.c        **** #define INTERMEDIATE_COUNT (4u)
  23:main.c        **** #define CONTACT_COUNT (64u)
  24:main.c        **** #define CHANNEL_COUNT (34u)
  25:main.c        **** #define CONTACT_CONNECT_CODE (0xC0u)
ARM GAS  C:\Users\FRANKL~1\AppData\Local\Temp\ccebBo1q.s 			page 4


  26:main.c        **** #define CONTACT_DISCONNECT_CODE (0xD1u)
  27:main.c        **** #define COMPLIANCE_CURRENT_LIMIT (10e-6)
  28:main.c        **** 
  29:main.c        **** struct Selector_I2C_Struct selectors[SELECTOR_COUNT];
  30:main.c        **** char TransmitBuffer[USBUART_BUFFER_SIZE];
  31:main.c        **** 
  32:main.c        **** volatile uint8 newData = 0;
  33:main.c        **** volatile uint8 G_Stop = 0;
  34:main.c        **** volatile uint8 G_Break = 0;
  35:main.c        **** volatile uint8 G_Pause = 0;
  36:main.c        **** 
  37:main.c        **** volatile char UART_Receive_Buffer[USBUART_BUFFER_SIZE];
  38:main.c        **** volatile uint8 UART_Rx_Position;
  39:main.c        **** 
  40:main.c        **** volatile char USBUART_Receive_Buffer[USBUART_BUFFER_SIZE];
  41:main.c        **** volatile uint8 USBUART_Rx_Position;
  42:main.c        **** 
  43:main.c        **** enum TIA_resistor {R20K, R30K, R40K, R80K, R120K, R250K, R500K, R1000K};
  44:main.c        **** uint8 TIA_Selected_Resistor = R20K;
  45:main.c        **** 
  46:main.c        **** uint8 TIA_Resistor_Codes[8] = {TIA_1_RES_FEEDBACK_20K, TIA_1_RES_FEEDBACK_30K, TIA_1_RES_FEEDBACK_4
  47:main.c        **** float TIA_Resistor_Values[8] = {20e3, 30e3, 40e3, 80e3, 120e3, 250e3, 500e3, 1e6};
  48:main.c        **** int32 TIA_Offsets_uV[8] = {0, 0, 0, 0, 0, 0, 0, 0};
  49:main.c        **** 
  50:main.c        **** uint8 Compliance_Reached;
  51:main.c        **** int16 Vgs_Index_Goal_Relative;
  52:main.c        **** int16 Vds_Index_Goal_Relative;
  53:main.c        **** 
  54:main.c        **** uint32 Current_Measurement_Sample_Count;
  55:main.c        **** 
  56:main.c        **** void Setup_Selector_I2C_Struct(struct Selector_I2C_Struct *selector) {
  57:main.c        **** 	selector->write.subAddress = 1;
  58:main.c        **** 	selector->read.subAddress = sizeof(selector->write) + 1;
  59:main.c        **** 	
  60:main.c        **** 	for (uint16 i = 0; i < sizeof(selector->write.data); i++) {
  61:main.c        **** 		selector->write.data[i] = i + 6;
  62:main.c        **** 	}
  63:main.c        **** 	for (uint16 i = 0; i < sizeof(selector->read.data); i++) {
  64:main.c        **** 		selector->read.data[i] = 0xbe;
  65:main.c        **** 	}
  66:main.c        **** }
  67:main.c        **** 
  68:main.c        **** void Update_Selector(uint8 selectori) {
  69:main.c        **** 	sprintf(TransmitBuffer, "Updating Selector %u\r\n", selectori + 1);
  70:main.c        **** 	USBUARTH_Send(TransmitBuffer, strlen(TransmitBuffer));
  71:main.c        **** 	UART_1_PutString(TransmitBuffer);
  72:main.c        **** 	
  73:main.c        **** 	struct Selector_I2C_Struct* selector = &selectors[selectori];
  74:main.c        **** 	
  75:main.c        **** 	I2C_1_MasterClearStatus();
  76:main.c        **** 	I2C_1_MasterWriteBuf(selector->busAddress, (uint8 *) &selector->write, sizeof(selector->write), I2
  77:main.c        **** 	for (uint32 i = 0; i < 4e5; i++) {
  78:main.c        **** 		if ((I2C_1_MasterStatus() & I2C_1_MSTAT_WR_CMPLT)) break;
  79:main.c        **** 		if (i >= 4e5 - 1) {
  80:main.c        **** 			sprintf(TransmitBuffer, "I2C Transfer Error! Type: Timeout\r\n");
  81:main.c        **** 			USBUARTH_Send(TransmitBuffer, strlen(TransmitBuffer));
  82:main.c        **** 			UART_1_PutString(TransmitBuffer);
ARM GAS  C:\Users\FRANKL~1\AppData\Local\Temp\ccebBo1q.s 			page 5


  83:main.c        **** 			I2C_1_Stop();
  84:main.c        **** 			I2C_1_Start();
  85:main.c        **** 		}
  86:main.c        **** 	}
  87:main.c        **** 	
  88:main.c        **** 	// I2C_1_MasterClearStatus();
  89:main.c        **** 	// I2C_1_MasterWriteBuf(selector->busAddress, (uint8 *) &selector->read.subAddress, 1, I2C_1_MODE_
  90:main.c        **** 	// for (uint32 i - 0; i < 4e5; i++) {
  91:main.c        **** 	// 	if ((I2C_1_MasterStatus() & I2C_1_MSTAT_WR_CMPLT)) break;
  92:main.c        **** 	// }
  93:main.c        **** 	
  94:main.c        **** 	// I2C_1_MasterReadBuf(selector->busAddress, (uint8 *) &selector->read.data, sizeof(selector->read
  95:main.c        **** 	// for (uint32 i - 0; i < 4e5; i++) {
  96:main.c        **** 	// 	if ((I2C_1_MasterStatus() & I2C_1_MSTAT_RD_CMPLT)) break;
  97:main.c        **** 	// }
  98:main.c        **** 	
  99:main.c        **** 	if (I2C_1_MasterStatus() & I2C_1_MSTAT_ERR_XFER) {
 100:main.c        **** 		sprintf(TransmitBuffer, "I2C Transfer Error! ");
 101:main.c        **** 		USBUARTH_Send(TransmitBuffer, strlen(TransmitBuffer));
 102:main.c        **** 		UART_1_PutString(TransmitBuffer);
 103:main.c        **** 		
 104:main.c        **** 		if (I2C_1_MasterStatus() & I2C_1_MSTAT_ERR_ADDR_NAK) {
 105:main.c        **** 			sprintf(TransmitBuffer, "Type: NAK");
 106:main.c        **** 			USBUARTH_Send(TransmitBuffer, strlen(TransmitBuffer));
 107:main.c        **** 			UART_1_PutString(TransmitBuffer);
 108:main.c        **** 		}
 109:main.c        **** 		
 110:main.c        **** 		sprintf(TransmitBuffer, "\r\n");
 111:main.c        **** 		USBUARTH_Send(TransmitBuffer, strlen(TransmitBuffer));
 112:main.c        **** 		UART_1_PutString(TransmitBuffer);
 113:main.c        **** 	}
 114:main.c        **** 	
 115:main.c        **** 	sprintf(TransmitBuffer, "Updated Selector %u\r\n", selectori + 1);
 116:main.c        **** 	USBUARTH_Send(TransmitBuffer, strlen(TransmitBuffer));
 117:main.c        **** 	UART_1_PutString(TransmitBuffer);
 118:main.c        **** }
 119:main.c        **** 
 120:main.c        **** void Setup_Selectors() {
 121:main.c        **** 	for (uint8 i = 0; i < SELECTOR_COUNT; i++) Setup_Selector_I2C_Struct(&selectors[i]);
 122:main.c        **** 	
 123:main.c        **** 	selectors[0].busAddress = 0x66;
 124:main.c        **** 	selectors[1].busAddress = 0x11;
 125:main.c        **** 	selectors[2].busAddress = 0x44;
 126:main.c        **** 	selectors[3].busAddress = 0x22;
 127:main.c        **** }
 128:main.c        **** 
 129:main.c        **** void Connect_Channel_On_Intermediate(uint8 channel, uint8 intermediate) {
 130:main.c        **** 	channel--;
 131:main.c        **** 	intermediate--;
 132:main.c        **** 	
 133:main.c        **** 	if (channel >= CHANNEL_COUNT) return;
 134:main.c        **** 	if (intermediate >= INTERMEDIATE_COUNT) return;
 135:main.c        **** 	
 136:main.c        **** 	selectors[intermediate].write.data[channel] = CONTACT_CONNECT_CODE;
 137:main.c        **** 	Update_Selector(intermediate);
 138:main.c        **** }
 139:main.c        **** 
ARM GAS  C:\Users\FRANKL~1\AppData\Local\Temp\ccebBo1q.s 			page 6


 140:main.c        **** void Connect_Contact_To_Intermediate(uint8 contact, uint8 intermediate) {
 141:main.c        **** 	contact--;
 142:main.c        **** 	intermediate--;
 143:main.c        **** 	
 144:main.c        **** 	if (contact >= CONTACT_COUNT) return;
 145:main.c        **** 	if (intermediate >= INTERMEDIATE_COUNT) return;
 146:main.c        **** 	
 147:main.c        **** 	uint8 offset = 0;
 148:main.c        **** 	if (intermediate >= INTERMEDIATE_COUNT/2) {
 149:main.c        **** 		offset = CONTACT_COUNT/2;
 150:main.c        **** 		if (contact < CONTACT_COUNT/2) return;
 151:main.c        **** 	} else {
 152:main.c        **** 		if (contact >= CONTACT_COUNT/2) return;
 153:main.c        **** 	}
 154:main.c        **** 	
 155:main.c        **** 	Connect_Channel_On_Intermediate(contact - offset + 1, intermediate + 1);
 156:main.c        **** }
 157:main.c        **** 
 158:main.c        **** void Disconnect_Contact_From_Intermediate(uint8 contact, uint8 intermediate) {
 159:main.c        **** 	contact--;
 160:main.c        **** 	intermediate--;
 161:main.c        **** 	
 162:main.c        **** 	if (contact >= CONTACT_COUNT) return;
 163:main.c        **** 	if (intermediate >= INTERMEDIATE_COUNT) return;
 164:main.c        **** 	
 165:main.c        **** 	uint8 offset = 0;
 166:main.c        **** 	if (intermediate >= INTERMEDIATE_COUNT/2) {
 167:main.c        **** 		offset = CONTACT_COUNT/2;
 168:main.c        **** 		if (contact < CONTACT_COUNT/2) return;
 169:main.c        **** 	} else {
 170:main.c        **** 		if (contact >= CONTACT_COUNT/2) return;
 171:main.c        **** 	}
 172:main.c        **** 	
 173:main.c        **** 	selectors[intermediate].write.data[contact - offset] = CONTACT_DISCONNECT_CODE;
 174:main.c        **** 	
 175:main.c        **** 	Update_Selector(intermediate);
 176:main.c        **** }
 177:main.c        **** 
 178:main.c        **** void Disconnect_Contact_From_All_Intermediates(uint8 contact) {
 179:main.c        **** 	contact--;
 180:main.c        **** 	
 181:main.c        **** 	for (uint8 intermediate = 0; intermediate < INTERMEDIATE_COUNT; intermediate++) {
 182:main.c        **** 		
 183:main.c        **** 		uint8 offset = 0;
 184:main.c        **** 		if (intermediate >= INTERMEDIATE_COUNT/2) {
 185:main.c        **** 			offset = CONTACT_COUNT/2;
 186:main.c        **** 			if (contact < CONTACT_COUNT/2) continue;
 187:main.c        **** 		} else {
 188:main.c        **** 			if (contact >= CONTACT_COUNT/2) continue;
 189:main.c        **** 		}
 190:main.c        **** 		
 191:main.c        **** 		selectors[intermediate].write.data[contact - offset] = CONTACT_DISCONNECT_CODE;
 192:main.c        **** 		
 193:main.c        **** 		Update_Selector(intermediate);
 194:main.c        **** 	}
 195:main.c        **** }
 196:main.c        **** 
ARM GAS  C:\Users\FRANKL~1\AppData\Local\Temp\ccebBo1q.s 			page 7


 197:main.c        **** void Disconnect_All_Contacts_From_All_Intermediates() {
 198:main.c        **** 	for (uint8 intermediate = 0; intermediate < INTERMEDIATE_COUNT/*/2*/; intermediate++) {
 199:main.c        **** 		for (uint8 contact = 0; contact < CONTACT_COUNT/2; contact++) {
 200:main.c        **** 			selectors[intermediate].write.data[contact] = CONTACT_DISCONNECT_CODE;
 201:main.c        **** 		}
 202:main.c        **** 		
 203:main.c        **** 		Update_Selector(intermediate);
 204:main.c        **** 	}
 205:main.c        **** }
 206:main.c        **** 
 207:main.c        **** void Disconnect_All_Contacts_From_Intermediate(uint8 intermediate) {
 208:main.c        **** 	intermediate--;
 209:main.c        **** 	
 210:main.c        **** 	for (uint8 contact = 0; contact < CONTACT_COUNT/2; contact++) {
 211:main.c        **** 		selectors[intermediate].write.data[contact] = CONTACT_DISCONNECT_CODE;
 212:main.c        **** 	}
 213:main.c        **** 	
 214:main.c        **** 	Update_Selector(intermediate);
 215:main.c        **** }
 216:main.c        **** 
 217:main.c        **** void Connect_Intermediate(uint8 intermediate) {
 218:main.c        **** 	switch (intermediate) {
 219:main.c        **** 		case 1: Connect_Channel_On_Intermediate(33, 1); break;
 220:main.c        **** 		case 2: Connect_Channel_On_Intermediate(33, 2); break;
 221:main.c        **** 		case 3: Connect_Channel_On_Intermediate(33, 3); break;
 222:main.c        **** 		case 4: Connect_Channel_On_Intermediate(33, 4); break;
 223:main.c        **** 		default: return;
 224:main.c        **** 	}
 225:main.c        **** }
 226:main.c        **** 
 227:main.c        **** void Connect_Intermediates() {
 228:main.c        **** 	for (uint8 i = 1; i <= INTERMEDIATE_COUNT/*/2*/; i++) {
 229:main.c        **** 		Connect_Intermediate(i);
 230:main.c        **** 	}
 231:main.c        **** }
 232:main.c        **** 
 233:main.c        **** void TIA_Set_Resistor(uint8 resistor) {
 234:main.c        **** 	TIA_Selected_Resistor = resistor;
 235:main.c        **** 	TIA_1_SetResFB(TIA_Resistor_Codes[resistor]);
 236:main.c        **** }
 237:main.c        **** 
 238:main.c        **** void ADC_Increase_Range() {
 239:main.c        **** 	switch(TIA_Selected_Resistor) {
 240:main.c        **** 		case R20K: 	 break;
 241:main.c        **** 		//case R30K: 	 TIA_Set_Resistor(R20K); break;
 242:main.c        **** 		//case R40K:	 TIA_Set_Resistor(R30K); break;
 243:main.c        **** 		//case R80K:	 TIA_Set_Resistor(R40K); break;
 244:main.c        **** 		//case R120K:	 TIA_Set_Resistor(R80K); break;
 245:main.c        **** 		//case R250K:	 TIA_Set_Resistor(R120K); break;
 246:main.c        **** 		//case R500K:	 TIA_Set_Resistor(R250K); break;
 247:main.c        **** 		case R1000K: TIA_Set_Resistor(R20K); break;
 248:main.c        **** 		default: return;
 249:main.c        **** 	}
 250:main.c        **** }
 251:main.c        **** 
 252:main.c        **** void ADC_Decrease_Range() {
 253:main.c        **** 	switch(TIA_Selected_Resistor) {
ARM GAS  C:\Users\FRANKL~1\AppData\Local\Temp\ccebBo1q.s 			page 8


 254:main.c        **** 		case R20K: 	 TIA_Set_Resistor(R1000K); break;
 255:main.c        **** 		//case R30K: 	 TIA_Set_Resistor(R40K); break;
 256:main.c        **** 		//case R40K:	 TIA_Set_Resistor(R80K); break;
 257:main.c        **** 		//case R80K:	 TIA_Set_Resistor(R120K); break;
 258:main.c        **** 		//case R120K:	 TIA_Set_Resistor(R250K); break;
 259:main.c        **** 		//case R250K:	 TIA_Set_Resistor(R500K); break;
 260:main.c        **** 		//case R500K:	 TIA_Set_Resistor(R1000K); break;
 261:main.c        **** 		case R1000K: break;
 262:main.c        **** 		default: return;
 263:main.c        **** 	}
 264:main.c        **** }
 265:main.c        **** 
 266:main.c        **** void sortArray(int32 array[], uint32 size) {
 267:main.c        **** 	int32 temp;
 268:main.c        **** 	// the following two loops sort the array x in ascending order
 269:main.c        **** 	for(uint32 i = 0; i < size-1; i++) {
 270:main.c        **** 		for(uint32 j = i+1; j < size; j++) {
 271:main.c        **** 			if(array[j] < array[i]) {
 272:main.c        **** 				// swap elements
 273:main.c        **** 				temp = array[i];
 274:main.c        **** 				array[i] = array[j];
 275:main.c        **** 				array[j] = temp;
 276:main.c        **** 			}
 277:main.c        **** 		}
 278:main.c        **** 	}
 279:main.c        **** }
 280:main.c        **** 
 281:main.c        **** int32 medianOfArray(int32 array[], uint32 size) {
 282:main.c        **** 	sortArray(array, size);
 283:main.c        **** 	
 284:main.c        **** 	if(size%2 == 0) {
 285:main.c        **** 		// if size is even, return the mean of middle elements
 286:main.c        **** 		return((array[size/2] + array[size/2 - 1]) / 2);
 287:main.c        **** 	} else {
 288:main.c        **** 		// else return the middle element
 289:main.c        **** 		return array[size/2];
 290:main.c        **** 	}
 291:main.c        **** }
 292:main.c        **** 
 293:main.c        **** // Measure Delta-Sigma ADC
 294:main.c        **** void ADC_Measure_uV(int32* average, int32* standardDeviation, uint32 sampleCount) {
 295:main.c        **** 	int32 ADC_Result = 0;
 296:main.c        **** 	int32 ADC_SD = 0;
 297:main.c        **** 	
 298:main.c        **** 	uint32 medianArraySize = 19;
 299:main.c        **** 	if (sampleCount < medianArraySize) medianArraySize = sampleCount;
 300:main.c        **** 	
 301:main.c        **** 	uint32 medianCount = sampleCount/medianArraySize;
 302:main.c        **** 	int32 medianArray[medianArraySize];
 303:main.c        **** 	
 304:main.c        **** 	for (uint32 i = 1; i <= medianCount; i++) {
 305:main.c        **** 		for (uint32 j = 0; j < medianArraySize; j++) {
 306:main.c        **** 			ADC_DelSig_1_StartConvert();
 307:main.c        **** 			while (!ADC_DelSig_1_IsEndConversion(ADC_DelSig_1_RETURN_STATUS));
 308:main.c        **** 			//int16 ADC_Result = ADC_DelSig_1_CountsTo_mVolts(ADC_DelSig_1_GetResult16());
 309:main.c        **** 			medianArray[j] = ADC_DelSig_1_CountsTo_uVolts(ADC_DelSig_1_GetResult32());
 310:main.c        **** 		}
ARM GAS  C:\Users\FRANKL~1\AppData\Local\Temp\ccebBo1q.s 			page 9


 311:main.c        **** 		
 312:main.c        **** 		int32 ADC_Result_Current = medianOfArray(medianArray, medianArraySize);
 313:main.c        **** 		
 314:main.c        **** 		ADC_SD += (float)(i-1)/(float)(i)*(ADC_Result_Current - ADC_Result)*(ADC_Result_Current - ADC_Res
 315:main.c        **** 		ADC_Result += ((float)ADC_Result_Current - (float)ADC_Result)/(float)i;
 316:main.c        **** 	}
 317:main.c        **** 	
 318:main.c        **** 	*average = ADC_Result;
 319:main.c        **** 	*standardDeviation = ADC_SD;
 320:main.c        **** }
 321:main.c        **** 
 322:main.c        **** void ADC_Adjust_Range(uint32 sampleCount) {
 323:main.c        **** 	int32 ADC_Voltage = 0;
 324:main.c        **** 	int32 ADC_Voltage_SD = 0;
 325:main.c        **** 	
 326:main.c        **** 	ADC_Measure_uV(&ADC_Voltage, &ADC_Voltage_SD, sampleCount);
 327:main.c        **** 	
 328:main.c        **** 	if(abs(ADC_Voltage) > 870400) {
 329:main.c        **** 		ADC_Increase_Range();
 330:main.c        **** 	} else if (abs(ADC_Voltage) < 10240) {
 331:main.c        **** 		ADC_Decrease_Range();
 332:main.c        **** 	} else {
 333:main.c        **** 		return;
 334:main.c        **** 	}
 335:main.c        **** 	
 336:main.c        **** 	// If the range switches, discard a few measurements
 337:main.c        **** 	ADC_Measure_uV(&ADC_Voltage, &ADC_Voltage_SD, 5);
 338:main.c        **** }
 339:main.c        **** 
 340:main.c        **** // Measure SAR1 ADC
 341:main.c        **** void SAR1_Measure_V(int32* average, int32* standardDeviation, uint32 sampleCount) {
 342:main.c        **** 	int32 SAR_Result = 0;
 343:main.c        **** 	int32 SAR_SD = 0;
 344:main.c        **** 	
 345:main.c        **** 	for (uint32 i = 1; i <= sampleCount; i++) {
 346:main.c        **** 		ADC_SAR_1_StartConvert();
 347:main.c        **** 		while (!ADC_SAR_1_IsEndConversion(ADC_SAR_1_RETURN_STATUS));
 348:main.c        **** 		
 349:main.c        **** 		int32 SAR1_Result_Current = ADC_SAR_1_CountsTo_uVolts(ADC_SAR_1_GetResult16());
 350:main.c        **** 		
 351:main.c        **** 		SAR_SD += (float)(i-1)/(float)(i)*(SAR1_Result_Current - SAR_Result)*(SAR1_Result_Current - SAR_R
 352:main.c        **** 		SAR_Result += ((float)SAR1_Result_Current - (float)SAR_Result)/(float)i;
 353:main.c        **** 	}
 354:main.c        **** 	
 355:main.c        **** 	*average = SAR_Result;
 356:main.c        **** 	*standardDeviation = SAR_SD;
 357:main.c        **** }
 358:main.c        **** 
 359:main.c        **** // Measure SAR2 ADC
 360:main.c        **** void SAR2_Measure_V(int32* average, int32* standardDeviation, uint32 sampleCount) {
 361:main.c        **** 	int32 SAR_Result = 0;
 362:main.c        **** 	int32 SAR_SD = 0;
 363:main.c        **** 	
 364:main.c        **** 	for (uint32 i = 1; i <= sampleCount; i++) {
 365:main.c        **** 		ADC_SAR_2_StartConvert();
 366:main.c        **** 		while (!ADC_SAR_2_IsEndConversion(ADC_SAR_2_RETURN_STATUS));
 367:main.c        **** 		
ARM GAS  C:\Users\FRANKL~1\AppData\Local\Temp\ccebBo1q.s 			page 10


 368:main.c        **** 		int32 SAR2_Result_Current = ADC_SAR_2_CountsTo_uVolts(ADC_SAR_2_GetResult16());
 369:main.c        **** 		
 370:main.c        **** 		SAR_SD += (float)(i-1)/(float)(i)*(SAR2_Result_Current - SAR_Result)*(SAR2_Result_Current - SAR_R
 371:main.c        **** 		SAR_Result += ((float)SAR2_Result_Current - (float)SAR_Result)/(float)i;
 372:main.c        **** 	}
 373:main.c        **** 	
 374:main.c        **** 	*average = SAR_Result;
 375:main.c        **** 	*standardDeviation = SAR_SD;
 376:main.c        **** }
 377:main.c        **** 
 378:main.c        **** // Measure current and compare it to some compliance value
 379:main.c        **** void Measure_Current_Vss(float* currentAverageIn, float* currentStdDevIn, uint32 sampleCount, uint8
 380:main.c        **** 	Compliance_Reached = 0;
 381:main.c        **** 		
 382:main.c        **** 	// Auto-adjust the current range
 383:main.c        **** 	ADC_Adjust_Range(3);
 384:main.c        **** 	
 385:main.c        **** 	// Voltage and its standard deviation (in uV)
 386:main.c        **** 	int32 ADC_Voltage = 0;
 387:main.c        **** 	int32 ADC_Voltage_SD = 0;
 388:main.c        **** 	
 389:main.c        **** 	// Current and its standard deviation (in A)
 390:main.c        **** 	float currentNow = 0;
 391:main.c        **** 	float currentAverage = 0;
 392:main.c        **** 	float currentStdDev = 0;
 393:main.c        **** 	
 394:main.c        **** 	float TIA_Feedback_R = TIA_Resistor_Values[TIA_Selected_Resistor];
 395:main.c        **** 	int32 TIA_Offset_uV = TIA_Offsets_uV[TIA_Selected_Resistor];
 396:main.c        **** 	float unitConversion = -1.0e-6/TIA_Feedback_R;
 397:main.c        **** 	
 398:main.c        **** 	// Allow for the first measurement (normally not correct) to take place
 399:main.c        **** 	ADC_Measure_uV(&ADC_Voltage, &ADC_Voltage_SD, 3);
 400:main.c        **** 	
 401:main.c        **** 	// Now take the real measurement
 402:main.c        **** 	if (checkCompliance) {
 403:main.c        **** 		for (uint32 i = 1; i <= sampleCount; i++) {
 404:main.c        **** 			ADC_Measure_uV(&ADC_Voltage, &ADC_Voltage_SD, 1);
 405:main.c        **** 			
 406:main.c        **** 			currentNow = unitConversion * (ADC_Voltage + TIA_Offset_uV);
 407:main.c        **** 			
 408:main.c        **** 			currentStdDev += ((float)i-1.0)/(float)(i)*(currentNow - currentAverage)*(currentNow - currentAv
 409:main.c        **** 			currentAverage += (currentNow - currentAverage)/(float)i;
 410:main.c        **** 			
 411:main.c        **** 			if (abs(currentNow) > COMPLIANCE_CURRENT_LIMIT) {
 412:main.c        **** 				Compliance_Reached += 1;
 413:main.c        **** 				break;
 414:main.c        **** 			} else {
 415:main.c        **** 				Compliance_Reached = 0;
 416:main.c        **** 			}
 417:main.c        **** 		}
 418:main.c        **** 	} else {
 419:main.c        **** 		ADC_Measure_uV(&ADC_Voltage, &ADC_Voltage_SD, sampleCount);
 420:main.c        **** 			
 421:main.c        **** 		currentAverage = unitConversion * (ADC_Voltage + TIA_Offset_uV);
 422:main.c        **** 		currentStdDev = unitConversion * (ADC_Voltage_SD + TIA_Offset_uV);
 423:main.c        **** 	}
 424:main.c        **** 	
ARM GAS  C:\Users\FRANKL~1\AppData\Local\Temp\ccebBo1q.s 			page 11


 425:main.c        **** 	*currentAverageIn = currentAverage;
 426:main.c        **** 	*currentStdDevIn = currentStdDev;
 427:main.c        **** }
 428:main.c        **** 
 429:main.c        **** uint8 At_Compliance() {
 430:main.c        **** 	Compliance_Reached = 0;
 431:main.c        **** 	
 432:main.c        **** 	float current = 0;
 433:main.c        **** 	float currentSD = 0;
 434:main.c        **** 	
 435:main.c        **** 	Measure_Current_Vss(&current, &currentSD, 3, 1);
 436:main.c        **** 	
 437:main.c        **** 	if (abs(current) > COMPLIANCE_CURRENT_LIMIT) {
 438:main.c        **** 		Compliance_Reached = 1;
 439:main.c        **** 		return 1;
 440:main.c        **** 	}
 441:main.c        **** 	
 442:main.c        **** 	return 0;
 443:main.c        **** }
 444:main.c        **** 
 445:main.c        **** void Handle_Compliance_Breach() {
 446:main.c        **** 	uint8 istart = VDAC_Vds_Data;
 447:main.c        **** 	uint8 istop = VDAC_Ref_Data;
 448:main.c        **** 	int8 increment = 1;
 449:main.c        **** 	if (istart < istop) increment = -1;
 450:main.c        **** 	
 451:main.c        **** 	for (uint8 i = istart; i != istop; i += increment) {
 452:main.c        **** 		VDAC_Vds_SetValue(i);
 453:main.c        **** 		
 454:main.c        **** 		if (!At_Compliance()) return;
 455:main.c        **** 	}
 456:main.c        **** 	
 457:main.c        **** 	istart = VDAC_Vgs_Data;
 458:main.c        **** 	istop = VDAC_Ref_Data;
 459:main.c        **** 	increment = 1;
 460:main.c        **** 	if (istart < istop) increment = -1;
 461:main.c        **** 	
 462:main.c        **** 	for (uint8 i = istart; i != istop; i += increment) {
 463:main.c        **** 		VDAC_Vgs_SetValue(i);
 464:main.c        **** 		
 465:main.c        **** 		if (!At_Compliance()) return;
 466:main.c        **** 	}
 467:main.c        **** 	
 468:main.c        **** 	// To do: Should disconnect something or take some other action at this point since still at compl
 469:main.c        **** }
 470:main.c        **** 
 471:main.c        **** // Get the reference voltage in volts
 472:main.c        **** float Get_Ref() {
 473:main.c        **** 	float result = 4.080/255.0*VDAC_Ref_Data;
 474:main.c        **** 	if (VDAC_Ref_CR0 & (VDAC_Ref_RANGE_1V & VDAC_Ref_RANGE_MASK)) {
 475:main.c        **** 		result = 1.020/255.0*VDAC_Ref_Data;
 476:main.c        **** 	}
 477:main.c        **** 	return result;
 478:main.c        **** }
 479:main.c        **** 
 480:main.c        **** // Get Vgs in volts
 481:main.c        **** float Get_Vgs() {
ARM GAS  C:\Users\FRANKL~1\AppData\Local\Temp\ccebBo1q.s 			page 12


 482:main.c        **** 	float result = 4.080/255.0*VDAC_Vgs_Data - Get_Ref();
 483:main.c        **** 	if (VDAC_Vgs_CR0 & (VDAC_Vgs_RANGE_1V & VDAC_Vgs_RANGE_MASK)) {
 484:main.c        **** 		result = 1.020/255.0*VDAC_Vgs_Data - Get_Ref();
 485:main.c        **** 	}
 486:main.c        **** 	return result;
 487:main.c        **** }
 488:main.c        **** 
 489:main.c        **** // Get Vds in volts
 490:main.c        **** float Get_Vds() {
 491:main.c        **** 	float result = 4.080/255.0*VDAC_Vds_Data - Get_Ref();
 492:main.c        **** 	if (VDAC_Vds_CR0 & (VDAC_Vds_RANGE_1V & VDAC_Vds_RANGE_MASK)) {
 493:main.c        **** 		result = 1.020/255.0*VDAC_Vds_Data - Get_Ref();
 494:main.c        **** 	}
 495:main.c        **** 	return result;
 496:main.c        **** }
 497:main.c        **** 
 498:main.c        **** 
 499:main.c        **** // ****************************
 500:main.c        **** // Set the raw value of Vds
 501:main.c        **** void Set_Vds_Raw(uint8 value) {
 502:main.c        **** 	Vds_Index_Goal_Relative = (int16)value - (int16)VDAC_Ref_Data;
 503:main.c        **** 	
 504:main.c        **** 	uint8 istart = VDAC_Vds_Data;
 505:main.c        **** 	int8 increment = 1;
 506:main.c        **** 	if (istart > value) increment = -1;
 507:main.c        **** 	
 508:main.c        **** 	// Ramp up to the Vds value
 509:main.c        **** 	for (uint8 i = istart; i != value; i += increment) {
 510:main.c        **** 		if (At_Compliance()) {
 511:main.c        **** 			for (uint8 j = i; j != istart; j -= increment) {
 512:main.c        **** 				VDAC_Vds_SetValue(j);
 513:main.c        **** 				
 514:main.c        **** 				if (!At_Compliance()) return;
 515:main.c        **** 			}
 516:main.c        **** 			if (At_Compliance()) {
 517:main.c        **** 				Handle_Compliance_Breach();
 518:main.c        **** 				return;
 519:main.c        **** 			}
 520:main.c        **** 		}
 521:main.c        **** 		
 522:main.c        **** 		VDAC_Vds_SetValue(i);
 523:main.c        **** 	}
 524:main.c        **** 	
 525:main.c        **** 	// Now that ramp is done, set the Vds value
 526:main.c        **** 	VDAC_Vds_SetValue(value);
 527:main.c        **** }
 528:main.c        **** 
 529:main.c        **** // Set the raw value of Vgs
 530:main.c        **** void Set_Vgs_Raw(uint8 value) {
 531:main.c        **** 	Vgs_Index_Goal_Relative = (int16)value - (int16)VDAC_Ref_Data;
 532:main.c        **** 	
 533:main.c        **** 	int8 increment = 1;
 534:main.c        **** 	uint8 istart = VDAC_Vgs_Data;
 535:main.c        **** 	if (value < istart) increment = -1;
 536:main.c        **** 	
 537:main.c        **** 	// Ramp up to the Vgs value
 538:main.c        **** 	for (uint8 i = istart; i != value; i += increment) {
ARM GAS  C:\Users\FRANKL~1\AppData\Local\Temp\ccebBo1q.s 			page 13


 539:main.c        **** 		if (At_Compliance()) {
 540:main.c        **** 			for (uint8 j = i; j != istart; j -= increment) {
 541:main.c        **** 				VDAC_Vgs_SetValue(j);
 542:main.c        **** 				
 543:main.c        **** 				if (!At_Compliance()) return;
 544:main.c        **** 			}
 545:main.c        **** 			if (At_Compliance()) {
 546:main.c        **** 				Handle_Compliance_Breach();
 547:main.c        **** 				return;
 548:main.c        **** 			}
 549:main.c        **** 		}
 550:main.c        **** 		
 551:main.c        **** 		VDAC_Vgs_SetValue(i);
 552:main.c        **** 	}
 553:main.c        **** 	
 554:main.c        **** 	// Now that ramp is done, set the Vgs value
 555:main.c        **** 	VDAC_Vgs_SetValue(value);
 556:main.c        **** }
 557:main.c        **** 
 558:main.c        **** // Set the raw value of the reference voltage
 559:main.c        **** void Set_Ref_Raw(uint8 value) {
 560:main.c        **** 	if (value < 6) value = 6;
 561:main.c        **** 	
 562:main.c        **** 	int8 increment = 1;
 563:main.c        **** 	if (value < VDAC_Ref_Data) increment = -1;
 564:main.c        **** 	
 565:main.c        **** 	// Ramp up to the Reference value
 566:main.c        **** 	for (uint8 i = VDAC_Ref_Data; i != value; i += increment) {
 567:main.c        **** 		
 568:main.c        **** 		if (At_Compliance()) return;
 569:main.c        **** 		
 570:main.c        **** 		int16 new_Vgs = (int16)i + Vgs_Index_Goal_Relative;
 571:main.c        **** 		int16 new_Vds = (int16)i + Vds_Index_Goal_Relative;
 572:main.c        **** 		
 573:main.c        **** 		if (new_Vgs > 255) new_Vgs = 255;
 574:main.c        **** 		if (new_Vds > 255) new_Vds = 255;
 575:main.c        **** 		
 576:main.c        **** 		if (new_Vgs < 0) new_Vgs = 0;
 577:main.c        **** 		if (new_Vds < 0) new_Vds = 0;
 578:main.c        **** 		
 579:main.c        **** 		VDAC_Ref_SetValue(i);
 580:main.c        **** 		VDAC_Vgs_SetValue(new_Vgs);
 581:main.c        **** 		VDAC_Vds_SetValue(new_Vds);
 582:main.c        **** 	}
 583:main.c        **** 	
 584:main.c        **** 	// Now that ramp is done, set the Reference value
 585:main.c        **** 	int16 new_Vgs = (int16)value + Vgs_Index_Goal_Relative;
 586:main.c        **** 	int16 new_Vds = (int16)value + Vds_Index_Goal_Relative;
 587:main.c        **** 	
 588:main.c        **** 	if (new_Vgs > 255) new_Vgs = 255;
 589:main.c        **** 	if (new_Vds > 255) new_Vds = 255;
 590:main.c        **** 	
 591:main.c        **** 	if (new_Vgs < 0) new_Vgs = 0;
 592:main.c        **** 	if (new_Vds < 0) new_Vds = 0;
 593:main.c        **** 	
 594:main.c        **** 	VDAC_Ref_SetValue(value);
 595:main.c        **** 	VDAC_Vgs_SetValue(new_Vgs);
ARM GAS  C:\Users\FRANKL~1\AppData\Local\Temp\ccebBo1q.s 			page 14


 596:main.c        **** 	VDAC_Vds_SetValue(new_Vds);
 597:main.c        **** }
 598:main.c        **** // ****************************
 599:main.c        **** 
 600:main.c        **** // Set Vds and move the reference voltage if necessary
 601:main.c        **** void Set_Vds_Rel(int16 value) {
 602:main.c        **** 	if (value > 255) value = 255;
 603:main.c        **** 	if (value < -255) value = -255;
 604:main.c        **** 	
 605:main.c        **** 	int16 absolute = (int16)value + (int16)VDAC_Ref_Data;
 606:main.c        **** 	
 607:main.c        **** 	if (absolute > 255) {
 608:main.c        **** 		Set_Ref_Raw(VDAC_Ref_Data - (absolute - 255));
 609:main.c        **** 		Set_Vds_Raw(255);
 610:main.c        **** 	} else if (absolute < 0) {
 611:main.c        **** 		Set_Ref_Raw(VDAC_Ref_Data - absolute);
 612:main.c        **** 		Set_Vds_Raw(0);
 613:main.c        **** 	} else {
 614:main.c        **** 		Set_Vds_Raw(absolute);
 615:main.c        **** 	}
 616:main.c        **** 	
 617:main.c        **** 	Vds_Index_Goal_Relative = (int16)value;
 618:main.c        **** 	
 619:main.c        **** 	uint16 Vds_minRefRaw = Vds_Index_Goal_Relative > 0? 0: -Vds_Index_Goal_Relative;
 620:main.c        **** 	uint16 Vds_maxRefRaw = Vds_Index_Goal_Relative > 0? 255 - Vds_Index_Goal_Relative: 255;
 621:main.c        **** 	uint16 Vgs_minRefRaw = Vgs_Index_Goal_Relative > 0? 0: -Vgs_Index_Goal_Relative;
 622:main.c        **** 	uint16 Vgs_maxRefRaw = Vgs_Index_Goal_Relative > 0? 255 - Vgs_Index_Goal_Relative: 255;
 623:main.c        **** 	
 624:main.c        **** 	uint16 newRefRaw = VDAC_Ref_Data;
 625:main.c        **** 	
 626:main.c        **** 	if (newRefRaw < Vgs_minRefRaw) newRefRaw = Vgs_minRefRaw;
 627:main.c        **** 	if (newRefRaw > Vgs_maxRefRaw) newRefRaw = Vgs_maxRefRaw;
 628:main.c        **** 	if (newRefRaw < Vds_minRefRaw) newRefRaw = Vds_minRefRaw;
 629:main.c        **** 	if (newRefRaw > Vds_maxRefRaw) newRefRaw = Vds_maxRefRaw;
 630:main.c        **** 	
 631:main.c        **** 	Set_Ref_Raw(newRefRaw);
 632:main.c        **** }
 633:main.c        **** 
 634:main.c        **** // Set Vgs and move the reference voltage if necessary
 635:main.c        **** void Set_Vgs_Rel(int16 value) {
 636:main.c        **** 	if (value > 255) value = 255;
 637:main.c        **** 	if (value < -255) value = -255;
 638:main.c        **** 	
 639:main.c        **** 	int16 absolute = (int16)value + (int16)VDAC_Ref_Data;
 640:main.c        **** 	
 641:main.c        **** 	if (absolute > 255) {
 642:main.c        **** 		Set_Ref_Raw(VDAC_Ref_Data - (absolute - 255));
 643:main.c        **** 		Set_Vgs_Raw(255);
 644:main.c        **** 	} else if (absolute < 0) {
 645:main.c        **** 		Set_Ref_Raw(VDAC_Ref_Data - absolute);
 646:main.c        **** 		Set_Vgs_Raw(0);
 647:main.c        **** 	} else {
 648:main.c        **** 		Set_Vgs_Raw(absolute);
 649:main.c        **** 	}
 650:main.c        **** 	
 651:main.c        **** 	Vgs_Index_Goal_Relative = (int16)value;
 652:main.c        **** 	
ARM GAS  C:\Users\FRANKL~1\AppData\Local\Temp\ccebBo1q.s 			page 15


 653:main.c        **** 	uint16 Vds_minRefRaw = Vds_Index_Goal_Relative > 0? 0: -Vds_Index_Goal_Relative;
 654:main.c        **** 	uint16 Vds_maxRefRaw = Vds_Index_Goal_Relative > 0? 255 - Vds_Index_Goal_Relative: 255;
 655:main.c        **** 	uint16 Vgs_minRefRaw = Vgs_Index_Goal_Relative > 0? 0: -Vgs_Index_Goal_Relative;
 656:main.c        **** 	uint16 Vgs_maxRefRaw = Vgs_Index_Goal_Relative > 0? 255 - Vgs_Index_Goal_Relative: 255;
 657:main.c        **** 	
 658:main.c        **** 	uint16 newRefRaw = VDAC_Ref_Data;
 659:main.c        **** 	
 660:main.c        **** 	if (newRefRaw < Vds_minRefRaw) newRefRaw = Vds_minRefRaw;
 661:main.c        **** 	if (newRefRaw > Vds_maxRefRaw) newRefRaw = Vds_maxRefRaw;
 662:main.c        **** 	if (newRefRaw < Vgs_minRefRaw) newRefRaw = Vgs_minRefRaw;
 663:main.c        **** 	if (newRefRaw > Vgs_maxRefRaw) newRefRaw = Vgs_maxRefRaw;
 664:main.c        **** 	
 665:main.c        **** 	Set_Ref_Raw(newRefRaw);
 666:main.c        **** }
 667:main.c        **** // ****************************
 668:main.c        **** 
 669:main.c        **** // Set Vgs by volts (good for readability, but requires passing floats)
 670:main.c        **** void Set_Vgs(float voltage) {
 671:main.c        **** 	Set_Vgs_Rel((voltage/4.080)*255.0);
 672:main.c        **** }
 673:main.c        **** 
 674:main.c        **** // Set Vds by volts (good for readability, but requires passing floats)
 675:main.c        **** void Set_Vds(float voltage) {
 676:main.c        **** 	Set_Vds_Rel((voltage/4.080)*255.0);
 677:main.c        **** }
 678:main.c        **** // ****************************
 679:main.c        **** 
 680:main.c        **** // Set Vgs by mV (good for passing in integers instead of floats)
 681:main.c        **** void Set_Vgs_mV(float mV) {
 682:main.c        **** 	Set_Vgs(mV/1000.0);
 683:main.c        **** }
 684:main.c        **** 
 685:main.c        **** // Set Vds by mV (good for passing in integers instead of floats)
 686:main.c        **** void Set_Vds_mV(float mV) {
 687:main.c        **** 	Set_Vds(mV/1000.0);
 688:main.c        **** }
 689:main.c        **** // ****************************
 690:main.c        **** 
 691:main.c        **** // Set Vgs and Vds to 0
 692:main.c        **** void Zero_All_DACs() {
 693:main.c        **** 	Set_Vds_Raw(0);
 694:main.c        **** 	Set_Vgs_Raw(0);
 695:main.c        **** 	
 696:main.c        **** 	VDAC_Vds_SetValue(0);
 697:main.c        **** 	VDAC_Vgs_SetValue(0);
 698:main.c        **** }
 699:main.c        **** 
 700:main.c        **** void Calibrate_ADC_Offset(uint32 sampleCount) {
 701:main.c        **** 	uint8 current_range_resistor = TIA_Selected_Resistor;
 702:main.c        **** 	
 703:main.c        **** 	// Zero the DACs
 704:main.c        **** 	Set_Vds(0);
 705:main.c        **** 	Set_Vgs(0);
 706:main.c        **** 	
 707:main.c        **** 	// Voltage and its standard deviation (in uV)
 708:main.c        **** 	int32 voltage = 0;
 709:main.c        **** 	int32 voltageSD = 0;
ARM GAS  C:\Users\FRANKL~1\AppData\Local\Temp\ccebBo1q.s 			page 16


 710:main.c        **** 	
 711:main.c        **** 	// Measure ADC offset voltages
 712:main.c        **** 	for (uint8 i = R20K; i <= R1000K; i++) {
 713:main.c        **** 		TIA_Set_Resistor(i);
 714:main.c        **** 		// Take a few measurements to discard any problems with the initial measurements
 715:main.c        **** 		ADC_Measure_uV(&voltage, &voltageSD, 3);
 716:main.c        **** 		ADC_Measure_uV(&voltage, &voltageSD, sampleCount);
 717:main.c        **** 		TIA_Offsets_uV[i] = -voltage;
 718:main.c        **** 		sprintf(TransmitBuffer, "# Offset %e Ohm: %li uV\r\n", TIA_Resistor_Values[i], -voltage);
 719:main.c        **** 		USBUARTH_Send(TransmitBuffer, strlen(TransmitBuffer));
 720:main.c        **** 		UART_1_PutString(TransmitBuffer);
 721:main.c        **** 	}
 722:main.c        **** 	
 723:main.c        **** 	// Reset TIA Resistor
 724:main.c        **** 	TIA_Set_Resistor(current_range_resistor);
 725:main.c        **** 	
 726:main.c        **** 	sprintf(TransmitBuffer, "# Calibrated ADC Offsets\r\n");
 727:main.c        **** 	USBUARTH_Send(TransmitBuffer, strlen(TransmitBuffer));
 728:main.c        **** 	UART_1_PutString(TransmitBuffer);
 729:main.c        **** }
 730:main.c        **** 
 731:main.c        **** // Take a measurement of the system (Id - from delta-sigma ADC, Vgs, Vds, SAR1 ADC, SAR2 ADC)
 732:main.c        **** void Measure(uint32 deltaSigmaSampleCount, uint32 SAR1_SampleCount, uint32 SAR2_SampleCount) {
 733:main.c        **** 	float IdsAverageAmps = 0;
 734:main.c        **** 	float IdsSDAmps = 0;
 735:main.c        **** 	
 736:main.c        **** 	Measure_Current_Vss(&IdsAverageAmps, &IdsSDAmps, deltaSigmaSampleCount, 0);
 737:main.c        **** 	
 738:main.c        **** //	int32 SAR1_Average = 0;
 739:main.c        **** //	int32 SAR1_SD = 0;
 740:main.c        **** //	int32 SAR2_Average = 0;
 741:main.c        **** //	int32 SAR2_SD = 0;
 742:main.c        **** //
 743:main.c        **** //	SAR1_Measure_V(&SAR1_Average, &SAR1_SD, SAR1_SampleCount);
 744:main.c        **** //	SAR2_Measure_V(&SAR2_Average, &SAR2_SD, SAR2_SampleCount);
 745:main.c        **** //
 746:main.c        **** //	float SAR1 = 1e-6*SAR1_Average;
 747:main.c        **** //	float SAR2 = 1e-6*SAR2_Average;
 748:main.c        **** 	
 749:main.c        **** 	sprintf(TransmitBuffer, "[%e,%f,%f]\r\n", IdsAverageAmps, Get_Vgs(), Get_Vds());
 750:main.c        **** 	USBUARTH_Send(TransmitBuffer, strlen(TransmitBuffer));
 751:main.c        **** 	UART_1_PutString(TransmitBuffer);
 752:main.c        **** }
 753:main.c        **** 
 754:main.c        **** // Repeatedly take measurements of the system
 755:main.c        **** void Measure_Multiple(uint32 n) {
 756:main.c        **** 	for (uint32 i = 0; i < n; i++) {
 757:main.c        **** 		Measure(100, 1, 10);
 758:main.c        **** 	}
 759:main.c        **** }
 760:main.c        **** 
 761:main.c        **** // Take a basic gate sweep (hardcoded voltages, hardcoded number of data points)
 762:main.c        **** void Measure_Sweep() {
 763:main.c        **** 	VDAC_Vds_SetValue(90);
 764:main.c        **** 	VDAC_Vgs_SetValue(254);
 765:main.c        **** 	
 766:main.c        **** 	for (uint16 Vgsi = 0; Vgsi < 256; Vgsi++) {
ARM GAS  C:\Users\FRANKL~1\AppData\Local\Temp\ccebBo1q.s 			page 17


 767:main.c        **** 		VDAC_Vgs_SetValue(Vgsi);
 768:main.c        **** 		Measure(100, 1, 1);
 769:main.c        **** 	}
 770:main.c        **** }
 771:main.c        **** 
 772:main.c        **** void Measure_Gate_Sweep(uint8 loop) {
 773:main.c        **** 	
 774:main.c        **** 	if (Vds_Index_Goal_Relative > 0) {
 775:main.c        **** 		Set_Ref_Raw(254 - Vds_Index_Goal_Relative);
 776:main.c        **** 	} else {
 777:main.c        **** 		Set_Ref_Raw(254);
 778:main.c        **** 	}
 779:main.c        **** 	
 780:main.c        **** 	int8 speed = 16;
 781:main.c        **** 	
 782:main.c        **** 	for (uint8 l = 0; l <= loop; l++) {
 783:main.c        **** 		int8 direction = 1*speed;
 784:main.c        **** 		uint8 istart = 0;
 785:main.c        **** 		if (Vds_Index_Goal_Relative < 0) {
 786:main.c        **** 			istart = -Vds_Index_Goal_Relative;
 787:main.c        **** 		}
 788:main.c        **** 		
 789:main.c        **** 		uint8 istop = 256-speed;
 790:main.c        **** 		
 791:main.c        **** 		if (l%2 == 1) {
 792:main.c        **** 			direction = -1*speed;
 793:main.c        **** 			istart = 256-speed;
 794:main.c        **** 			istop = 0;
 795:main.c        **** 		}
 796:main.c        **** 		
 797:main.c        **** 		for (uint8 i = istart; i != istop; i += direction) {
 798:main.c        **** 			for (uint8 j = 0; j <= 1; j++) {
 799:main.c        **** 				if (j == 1) Set_Ref_Raw(254 - i + 1);
 800:main.c        **** 				Set_Vgs_Raw(i);
 801:main.c        **** 				
 802:main.c        **** 				Measure(33, 1, 1);
 803:main.c        **** 				
 804:main.c        **** 				if (G_Stop) break;
 805:main.c        **** 				while (G_Pause);
 806:main.c        **** 			}
 807:main.c        **** 		}
 808:main.c        **** 	}
 809:main.c        **** }
 810:main.c        **** 
 811:main.c        **** void Measure_Wide_Gate_Sweep(uint8 loop) {
 812:main.c        **** 	Set_Ref_Raw(254);
 813:main.c        **** 	
 814:main.c        **** 	int8 speed = 16;
 815:main.c        **** 	
 816:main.c        **** 	for (uint8 l = 0; l <= loop; l++) {
 817:main.c        **** 		int8 direction = 1*speed;
 818:main.c        **** 		uint8 istart = 0;
 819:main.c        **** 		uint8 istop = 256-speed;
 820:main.c        **** 		
 821:main.c        **** 		if (l%2 == 1) {
 822:main.c        **** 			direction = -1*speed;
 823:main.c        **** 			istart = 256-speed;
ARM GAS  C:\Users\FRANKL~1\AppData\Local\Temp\ccebBo1q.s 			page 18


 824:main.c        **** 			istop = 0;
 825:main.c        **** 		}
 826:main.c        **** 		
 827:main.c        **** 		for (uint8 i = istart; i != istop; i += direction) {
 828:main.c        **** 			for (uint8 j = 0; j <= 1; j++) {
 829:main.c        **** 				
 830:main.c        **** 				if (j == 1) Set_Ref_Raw(254 - i + 1);
 831:main.c        **** 				Set_Vgs_Raw(i);
 832:main.c        **** 				
 833:main.c        **** 				Measure(33, 1, 1);
 834:main.c        **** 				
 835:main.c        **** 				if (G_Stop) break;
 836:main.c        **** 				while (G_Pause);
 837:main.c        **** 			}
 838:main.c        **** 		}
 839:main.c        **** 	}
 840:main.c        **** }
 841:main.c        **** 
 842:main.c        **** void Measure_Gate_Sweep_New() {
 843:main.c        **** 	uint8 refTurn = 1;
 844:main.c        **** 	int8 refIncrement = 1;
 845:main.c        **** 	uint8 startRefIndex = 0;
 846:main.c        **** 	uint8 endRefIndex = 0;
 847:main.c        **** 	uint8 refIndex = startRefIndex;
 848:main.c        **** 	uint8 refArrived = 0;
 849:main.c        **** 	
 850:main.c        **** 	int8 gateIncrement = 1;
 851:main.c        **** 	uint8 startGateIndex = 0;
 852:main.c        **** 	uint8 endGateIndex = 0;
 853:main.c        **** 	uint8 gateIndex = startGateIndex;
 854:main.c        **** 	uint8 gateArrived = 0;
 855:main.c        **** 	
 856:main.c        **** 	
 857:main.c        **** 	while (!gateArrived || !refArrived) {
 858:main.c        **** 		gateArrived = abs(gateIndex-endGateIndex) < abs(gateIncrement);
 859:main.c        **** 		refArrived = abs(refIndex-endRefIndex) < abs(refIncrement);
 860:main.c        **** 		
 861:main.c        **** 		refTurn = !refTurn;
 862:main.c        **** 		
 863:main.c        **** 		if (refTurn && refArrived) continue;
 864:main.c        **** 		if (!refTurn && gateArrived) continue;
 865:main.c        **** 		
 866:main.c        **** 		Set_Ref_Raw(refIndex);
 867:main.c        **** 		Set_Vgs_Raw(gateIndex);
 868:main.c        **** 		
 869:main.c        **** 		Measure(100, 1, 1);
 870:main.c        **** 		
 871:main.c        **** 		if (refTurn) {
 872:main.c        **** 			refIndex += refIncrement;
 873:main.c        **** 		} else {
 874:main.c        **** 			gateIndex += gateIncrement;
 875:main.c        **** 		}
 876:main.c        **** 		
 877:main.c        **** 		if (G_Stop) break;
 878:main.c        **** 		while (G_Pause);
 879:main.c        **** 	}
 880:main.c        **** }
ARM GAS  C:\Users\FRANKL~1\AppData\Local\Temp\ccebBo1q.s 			page 19


 881:main.c        **** 
 882:main.c        **** void Scan(uint8 wide, uint8 loop) {
 883:main.c        **** 	for (uint8 device = 1; device <= CONTACT_COUNT/**//2; device++) {
 884:main.c        **** 		uint8 contact1 = device;
 885:main.c        **** 		uint8 contact2 = device + 1;
 886:main.c        **** 		uint8 intermediate1 = 1;
 887:main.c        **** 		uint8 intermediate2 = 2;
 888:main.c        **** 		
 889:main.c        **** 		Disconnect_All_Contacts_From_All_Intermediates();
 890:main.c        **** 		Zero_All_DACs();
 891:main.c        **** 		Connect_Intermediates();
 892:main.c        **** 		Connect_Contact_To_Intermediate(contact1, intermediate1);
 893:main.c        **** 		Connect_Contact_To_Intermediate(contact2, intermediate2);
 894:main.c        **** 		
 895:main.c        **** 		sprintf(TransmitBuffer, "\r\n%u\r\n", device);
 896:main.c        **** 		USBUARTH_Send(TransmitBuffer, strlen(TransmitBuffer));
 897:main.c        **** 		UART_1_PutString(TransmitBuffer);
 898:main.c        **** 		
 899:main.c        **** 		if (wide) {
 900:main.c        **** 			Measure_Wide_Gate_Sweep(loop);
 901:main.c        **** 		} else {
 902:main.c        **** 			Measure_Gate_Sweep(loop);
 903:main.c        **** 		}
 904:main.c        **** 		
 905:main.c        **** 		if (G_Break || G_Stop) break;
 906:main.c        **** 		while (G_Pause);
 907:main.c        **** 	}
 908:main.c        **** }
 909:main.c        **** 
 910:main.c        **** void Scan_Range(uint8 startDevice, uint8 stopDevice, uint8 wide, uint8 loop) {
 911:main.c        **** 	if (startDevice >= CONTACT_COUNT) return;
 912:main.c        **** 	if (stopDevice >= CONTACT_COUNT) return;
 913:main.c        **** 	
 914:main.c        **** 	for (uint8 device = startDevice; device <= stopDevice; device++) {
 915:main.c        **** 		uint8 contact1 = device;
 916:main.c        **** 		uint8 contact2 = device + 1;
 917:main.c        **** 		uint8 intermediate1 = 1;
 918:main.c        **** 		uint8 intermediate2 = 2;
 919:main.c        **** 		
 920:main.c        **** 		Disconnect_All_Contacts_From_All_Intermediates();
 921:main.c        **** 		Zero_All_DACs();
 922:main.c        **** 		Connect_Intermediates();
 923:main.c        **** 		Connect_Contact_To_Intermediate(contact1, intermediate1);
 924:main.c        **** 		Connect_Contact_To_Intermediate(contact2, intermediate2);
 925:main.c        **** 		
 926:main.c        **** 		sprintf(TransmitBuffer, "\r\n%u\r\n", device);
 927:main.c        **** 		USBUARTH_Send(TransmitBuffer, strlen(TransmitBuffer));
 928:main.c        **** 		UART_1_PutString(TransmitBuffer);
 929:main.c        **** 		
 930:main.c        **** 		if (wide) {
 931:main.c        **** 			Measure_Wide_Gate_Sweep(loop);
 932:main.c        **** 		} else {
 933:main.c        **** 			Measure_Gate_Sweep(loop);
 934:main.c        **** 		}
 935:main.c        **** 		
 936:main.c        **** 		if (G_Break || G_Stop) break;
 937:main.c        **** 		while (G_Pause);
ARM GAS  C:\Users\FRANKL~1\AppData\Local\Temp\ccebBo1q.s 			page 20


 938:main.c        **** 	}
 939:main.c        **** }
 940:main.c        **** 
 941:main.c        **** CY_ISR (CommunicationHandlerISR) {
 109              		.loc 2 941 0
 110              		.cfi_startproc
 111              		@ args = 0, pretend = 0, frame = 64
 112              		@ frame_needed = 0, uses_anonymous_args = 0
 113 0000 30B5     		push	{r4, r5, lr}
 114              		.cfi_def_cfa_offset 12
 115              		.cfi_offset 4, -12
 116              		.cfi_offset 5, -8
 117              		.cfi_offset 14, -4
 118 0002 91B0     		sub	sp, sp, #68
 119              		.cfi_def_cfa_offset 80
 942:main.c        **** 	if (USBUARTH_DataIsReady()) {
 120              		.loc 2 942 0
 121 0004 FFF7FEFF 		bl	USBUARTH_DataIsReady
 122              	.LVL8:
 123 0008 0028     		cmp	r0, #0
 124 000a 37D0     		beq	.L10
 125              	.LBB2:
 943:main.c        **** 		// USBUARTH_Receive_Until(UART_Receive_Buffer, USBUART_BUFFER_SIZE, "\r");
 944:main.c        **** 		
 945:main.c        **** 		char temp_buffer[USBUART_BUFFER_SIZE];
 946:main.c        **** 		uint8 temp_count = USBUART_GetAll((uint8*) temp_buffer);
 126              		.loc 2 946 0
 127 000c 6846     		mov	r0, sp
 128 000e FFF7FEFF 		bl	USBUART_GetAll
 129              	.LVL9:
 130 0012 C0B2     		uxtb	r0, r0
 131              	.LVL10:
 132              	.LBB3:
 947:main.c        **** 		
 948:main.c        **** 		for (uint8 i = 0; i < temp_count; i++) {
 133              		.loc 2 948 0
 134 0014 0023     		movs	r3, #0
 135 0016 2EE0     		b	.L11
 136              	.LVL11:
 137              	.L17:
 138              	.LBB4:
 949:main.c        **** 			char c = temp_buffer[i];
 139              		.loc 2 949 0
 140 0018 10AA     		add	r2, sp, #64
 141 001a 1A44     		add	r2, r2, r3
 142 001c 12F8402C 		ldrb	r2, [r2, #-64]	@ zero_extendqisi2
 143              	.LVL12:
 950:main.c        **** 			
 951:main.c        **** 			USBUART_Receive_Buffer[USBUART_Rx_Position] = c;
 144              		.loc 2 951 0
 145 0020 5949     		ldr	r1, .L31
 146 0022 0978     		ldrb	r1, [r1]	@ zero_extendqisi2
 147 0024 C9B2     		uxtb	r1, r1
 148 0026 594C     		ldr	r4, .L31+4
 149 0028 6254     		strb	r2, [r4, r1]
 952:main.c        **** 			
 953:main.c        **** 			// sprintf(TransmitBuffer, "USB: %c\r\n", USBUART_Receive_Buffer[USBUART_Rx_Position]);
ARM GAS  C:\Users\FRANKL~1\AppData\Local\Temp\ccebBo1q.s 			page 21


 954:main.c        **** 			// UART_1_PutString(TransmitBuffer);
 955:main.c        **** 			
 956:main.c        **** 			if (c == '\r' || c == '\n' || c == '!') {
 150              		.loc 2 956 0
 151 002a 0D2A     		cmp	r2, #13
 152 002c 03D0     		beq	.L12
 153              		.loc 2 956 0 is_stmt 0 discriminator 1
 154 002e 0A2A     		cmp	r2, #10
 155 0030 01D0     		beq	.L12
 156              		.loc 2 956 0 discriminator 2
 157 0032 212A     		cmp	r2, #33
 158 0034 10D1     		bne	.L13
 159              	.L12:
 957:main.c        **** 				USBUART_Receive_Buffer[USBUART_Rx_Position] = 0;
 160              		.loc 2 957 0 is_stmt 1
 161 0036 5449     		ldr	r1, .L31
 162 0038 0A78     		ldrb	r2, [r1]	@ zero_extendqisi2
 163              	.LVL13:
 164 003a D2B2     		uxtb	r2, r2
 165 003c 0025     		movs	r5, #0
 166 003e 534C     		ldr	r4, .L31+4
 167 0040 A554     		strb	r5, [r4, r2]
 958:main.c        **** 				if (USBUART_Rx_Position) newData = 1;
 168              		.loc 2 958 0
 169 0042 0A78     		ldrb	r2, [r1]	@ zero_extendqisi2
 170 0044 12F0FF0F 		tst	r2, #255
 171 0048 02D0     		beq	.L14
 172              		.loc 2 958 0 is_stmt 0 discriminator 1
 173 004a 0121     		movs	r1, #1
 174 004c 504A     		ldr	r2, .L31+8
 175 004e 1170     		strb	r1, [r2]
 176              	.L14:
 959:main.c        **** 				USBUART_Rx_Position = 0;
 177              		.loc 2 959 0 is_stmt 1
 178 0050 0021     		movs	r1, #0
 179 0052 4D4A     		ldr	r2, .L31
 180 0054 1170     		strb	r1, [r2]
 181 0056 04E0     		b	.L15
 182              	.LVL14:
 183              	.L13:
 960:main.c        **** 			} else {
 961:main.c        **** 				USBUART_Rx_Position++;
 184              		.loc 2 961 0
 185 0058 4B49     		ldr	r1, .L31
 186 005a 0A78     		ldrb	r2, [r1]	@ zero_extendqisi2
 187              	.LVL15:
 188 005c 0132     		adds	r2, r2, #1
 189 005e D2B2     		uxtb	r2, r2
 190 0060 0A70     		strb	r2, [r1]
 191              	.L15:
 962:main.c        **** 			}
 963:main.c        **** 			
 964:main.c        **** 			if (USBUART_Rx_Position >= USBUART_BUFFER_SIZE) USBUART_Rx_Position = 0;
 192              		.loc 2 964 0
 193 0062 494A     		ldr	r2, .L31
 194 0064 1278     		ldrb	r2, [r2]	@ zero_extendqisi2
 195 0066 D2B2     		uxtb	r2, r2
ARM GAS  C:\Users\FRANKL~1\AppData\Local\Temp\ccebBo1q.s 			page 22


 196 0068 3F2A     		cmp	r2, #63
 197 006a 02D9     		bls	.L16
 198              		.loc 2 964 0 is_stmt 0 discriminator 1
 199 006c 0021     		movs	r1, #0
 200 006e 464A     		ldr	r2, .L31
 201 0070 1170     		strb	r1, [r2]
 202              	.L16:
 203              	.LBE4:
 948:main.c        **** 			char c = temp_buffer[i];
 204              		.loc 2 948 0 is_stmt 1 discriminator 2
 205 0072 0133     		adds	r3, r3, #1
 206              	.LVL16:
 207 0074 DBB2     		uxtb	r3, r3
 208              	.LVL17:
 209              	.L11:
 948:main.c        **** 			char c = temp_buffer[i];
 210              		.loc 2 948 0 is_stmt 0 discriminator 1
 211 0076 8342     		cmp	r3, r0
 212 0078 CED3     		bcc	.L17
 213 007a 3AE0     		b	.L18
 214              	.LVL18:
 215              	.L10:
 216              	.LBE3:
 217              	.LBE2:
 965:main.c        **** 		}
 966:main.c        **** 	} else
 967:main.c        **** 	if (UART_1_GetRxBufferSize()) {
 218              		.loc 2 967 0 is_stmt 1
 219 007c FFF7FEFF 		bl	UART_1_GetRxBufferSize
 220              	.LVL19:
 221 0080 0028     		cmp	r0, #0
 222 0082 36D0     		beq	.L18
 968:main.c        **** 		UART_Receive_Buffer[UART_Rx_Position] = UART_1_GetChar();
 223              		.loc 2 968 0
 224 0084 434D     		ldr	r5, .L31+12
 225 0086 2C78     		ldrb	r4, [r5]	@ zero_extendqisi2
 226 0088 E4B2     		uxtb	r4, r4
 227 008a FFF7FEFF 		bl	UART_1_GetChar
 228              	.LVL20:
 229 008e 424A     		ldr	r2, .L31+16
 230 0090 1055     		strb	r0, [r2, r4]
 969:main.c        **** 		
 970:main.c        **** 		if (UART_Receive_Buffer[UART_Rx_Position] == '\r' || UART_Receive_Buffer[UART_Rx_Position] == '\n
 231              		.loc 2 970 0
 232 0092 2B78     		ldrb	r3, [r5]	@ zero_extendqisi2
 233 0094 DBB2     		uxtb	r3, r3
 234 0096 D35C     		ldrb	r3, [r2, r3]	@ zero_extendqisi2
 235 0098 DBB2     		uxtb	r3, r3
 236 009a 0D2B     		cmp	r3, #13
 237 009c 0BD0     		beq	.L19
 238              		.loc 2 970 0 is_stmt 0 discriminator 1
 239 009e 2B78     		ldrb	r3, [r5]	@ zero_extendqisi2
 240 00a0 DBB2     		uxtb	r3, r3
 241 00a2 D35C     		ldrb	r3, [r2, r3]	@ zero_extendqisi2
 242 00a4 DBB2     		uxtb	r3, r3
 243 00a6 0A2B     		cmp	r3, #10
 244 00a8 05D0     		beq	.L19
ARM GAS  C:\Users\FRANKL~1\AppData\Local\Temp\ccebBo1q.s 			page 23


 245              		.loc 2 970 0 discriminator 2
 246 00aa 2B78     		ldrb	r3, [r5]	@ zero_extendqisi2
 247 00ac DBB2     		uxtb	r3, r3
 248 00ae D35C     		ldrb	r3, [r2, r3]	@ zero_extendqisi2
 249 00b0 DBB2     		uxtb	r3, r3
 250 00b2 212B     		cmp	r3, #33
 251 00b4 10D1     		bne	.L20
 252              	.L19:
 971:main.c        **** 			UART_Receive_Buffer[UART_Rx_Position] = 0;
 253              		.loc 2 971 0 is_stmt 1
 254 00b6 374A     		ldr	r2, .L31+12
 255 00b8 1378     		ldrb	r3, [r2]	@ zero_extendqisi2
 256 00ba DBB2     		uxtb	r3, r3
 257 00bc 0020     		movs	r0, #0
 258 00be 3649     		ldr	r1, .L31+16
 259 00c0 C854     		strb	r0, [r1, r3]
 972:main.c        **** 			if (UART_Rx_Position) newData = 2;
 260              		.loc 2 972 0
 261 00c2 1378     		ldrb	r3, [r2]	@ zero_extendqisi2
 262 00c4 13F0FF0F 		tst	r3, #255
 263 00c8 02D0     		beq	.L21
 264              		.loc 2 972 0 is_stmt 0 discriminator 1
 265 00ca 0222     		movs	r2, #2
 266 00cc 304B     		ldr	r3, .L31+8
 267 00ce 1A70     		strb	r2, [r3]
 268              	.L21:
 973:main.c        **** 			UART_Rx_Position = 0;
 269              		.loc 2 973 0 is_stmt 1
 270 00d0 0022     		movs	r2, #0
 271 00d2 304B     		ldr	r3, .L31+12
 272 00d4 1A70     		strb	r2, [r3]
 273 00d6 04E0     		b	.L22
 274              	.L20:
 974:main.c        **** 		} else {
 975:main.c        **** 			UART_Rx_Position++;
 275              		.loc 2 975 0
 276 00d8 2E4A     		ldr	r2, .L31+12
 277 00da 1378     		ldrb	r3, [r2]	@ zero_extendqisi2
 278 00dc 0133     		adds	r3, r3, #1
 279 00de DBB2     		uxtb	r3, r3
 280 00e0 1370     		strb	r3, [r2]
 281              	.L22:
 976:main.c        **** 		}
 977:main.c        **** 		
 978:main.c        **** 		if (UART_Rx_Position >= USBUART_BUFFER_SIZE) UART_Rx_Position = 0;
 282              		.loc 2 978 0
 283 00e2 2C4B     		ldr	r3, .L31+12
 284 00e4 1B78     		ldrb	r3, [r3]	@ zero_extendqisi2
 285 00e6 DBB2     		uxtb	r3, r3
 286 00e8 3F2B     		cmp	r3, #63
 287 00ea 02D9     		bls	.L18
 288              		.loc 2 978 0 is_stmt 0 discriminator 1
 289 00ec 0022     		movs	r2, #0
 290 00ee 294B     		ldr	r3, .L31+12
 291 00f0 1A70     		strb	r2, [r3]
 292              	.L18:
 979:main.c        **** 	}
ARM GAS  C:\Users\FRANKL~1\AppData\Local\Temp\ccebBo1q.s 			page 24


 980:main.c        **** 	
 981:main.c        **** 	if (newData) {
 293              		.loc 2 981 0 is_stmt 1
 294 00f2 274B     		ldr	r3, .L31+8
 295 00f4 1B78     		ldrb	r3, [r3]	@ zero_extendqisi2
 296 00f6 13F0FF0F 		tst	r3, #255
 297 00fa 3FD0     		beq	.L23
 298              	.LVL21:
 299              	.LBB5:
 982:main.c        **** 		char* ReceiveBuffer = &USBUART_Receive_Buffer[0];
 983:main.c        **** 		if (newData == 2) ReceiveBuffer = &UART_Receive_Buffer[0];
 300              		.loc 2 983 0
 301 00fc 244B     		ldr	r3, .L31+8
 302 00fe 1B78     		ldrb	r3, [r3]	@ zero_extendqisi2
 303 0100 DBB2     		uxtb	r3, r3
 304 0102 022B     		cmp	r3, #2
 305 0104 01D0     		beq	.L29
 982:main.c        **** 		char* ReceiveBuffer = &USBUART_Receive_Buffer[0];
 306              		.loc 2 982 0
 307 0106 214C     		ldr	r4, .L31+4
 308 0108 00E0     		b	.L24
 309              	.L29:
 310              		.loc 2 983 0
 311 010a 234C     		ldr	r4, .L31+16
 312              	.L24:
 313              	.LVL22:
 984:main.c        **** 		
 985:main.c        **** 		if (strstr(ReceiveBuffer, "stop ") == &ReceiveBuffer[0]) {
 314              		.loc 2 985 0
 315 010c 2349     		ldr	r1, .L31+20
 316 010e 2046     		mov	r0, r4
 317 0110 FFF7FEFF 		bl	strstr
 318              	.LVL23:
 319 0114 8442     		cmp	r4, r0
 320 0116 05D1     		bne	.L25
 986:main.c        **** 			G_Stop = 1;
 321              		.loc 2 986 0
 322 0118 1D4B     		ldr	r3, .L31+8
 323 011a 0122     		movs	r2, #1
 324 011c 5A70     		strb	r2, [r3, #1]
 987:main.c        **** 			newData = 0;
 325              		.loc 2 987 0
 326 011e 0022     		movs	r2, #0
 327 0120 1A70     		strb	r2, [r3]
 328 0122 2BE0     		b	.L23
 329              	.L25:
 988:main.c        **** 		} else 
 989:main.c        **** 		if (strstr(ReceiveBuffer, "break ") == &ReceiveBuffer[0]) {
 330              		.loc 2 989 0
 331 0124 1E49     		ldr	r1, .L31+24
 332 0126 2046     		mov	r0, r4
 333 0128 FFF7FEFF 		bl	strstr
 334              	.LVL24:
 335 012c 8442     		cmp	r4, r0
 336 012e 05D1     		bne	.L26
 990:main.c        **** 			G_Break = 1;
 337              		.loc 2 990 0
ARM GAS  C:\Users\FRANKL~1\AppData\Local\Temp\ccebBo1q.s 			page 25


 338 0130 174B     		ldr	r3, .L31+8
 339 0132 0122     		movs	r2, #1
 340 0134 9A70     		strb	r2, [r3, #2]
 991:main.c        **** 			newData = 0;
 341              		.loc 2 991 0
 342 0136 0022     		movs	r2, #0
 343 0138 1A70     		strb	r2, [r3]
 344 013a 1FE0     		b	.L23
 345              	.L26:
 992:main.c        **** 		} else 
 993:main.c        **** 		if (strstr(ReceiveBuffer, "pause ") == &ReceiveBuffer[0]) {
 346              		.loc 2 993 0
 347 013c 1949     		ldr	r1, .L31+28
 348 013e 2046     		mov	r0, r4
 349 0140 FFF7FEFF 		bl	strstr
 350              	.LVL25:
 351 0144 8442     		cmp	r4, r0
 352 0146 05D1     		bne	.L27
 994:main.c        **** 			G_Pause = 1;
 353              		.loc 2 994 0
 354 0148 114B     		ldr	r3, .L31+8
 355 014a 0122     		movs	r2, #1
 356 014c DA70     		strb	r2, [r3, #3]
 995:main.c        **** 			newData = 0;
 357              		.loc 2 995 0
 358 014e 0022     		movs	r2, #0
 359 0150 1A70     		strb	r2, [r3]
 360 0152 13E0     		b	.L23
 361              	.L27:
 996:main.c        **** 		} else 
 997:main.c        **** 		if (strstr(ReceiveBuffer, "resume ") == &ReceiveBuffer[0]) {
 362              		.loc 2 997 0
 363 0154 1449     		ldr	r1, .L31+32
 364 0156 2046     		mov	r0, r4
 365 0158 FFF7FEFF 		bl	strstr
 366              	.LVL26:
 367 015c 8442     		cmp	r4, r0
 368 015e 04D1     		bne	.L28
 998:main.c        **** 			G_Pause = 0;
 369              		.loc 2 998 0
 370 0160 0B4B     		ldr	r3, .L31+8
 371 0162 0022     		movs	r2, #0
 372 0164 DA70     		strb	r2, [r3, #3]
 999:main.c        **** 			newData = 0;
 373              		.loc 2 999 0
 374 0166 1A70     		strb	r2, [r3]
 375 0168 08E0     		b	.L23
 376              	.L28:
1000:main.c        **** 		} else 
1001:main.c        **** 		if (strstr(ReceiveBuffer, "tristate ") == &ReceiveBuffer[0]) {
 377              		.loc 2 1001 0
 378 016a 1049     		ldr	r1, .L31+36
 379 016c 2046     		mov	r0, r4
 380 016e FFF7FEFF 		bl	strstr
 381              	.LVL27:
 382 0172 8442     		cmp	r4, r0
 383 0174 02D1     		bne	.L23
ARM GAS  C:\Users\FRANKL~1\AppData\Local\Temp\ccebBo1q.s 			page 26


1002:main.c        **** 			// To do
1003:main.c        **** 			newData = 0;
 384              		.loc 2 1003 0
 385 0176 0022     		movs	r2, #0
 386 0178 054B     		ldr	r3, .L31+8
 387 017a 1A70     		strb	r2, [r3]
 388              	.LVL28:
 389              	.L23:
 390              	.LBE5:
1004:main.c        **** 		}
1005:main.c        **** 	}
1006:main.c        **** 	
1007:main.c        **** 	CommunicationInterrupt_ClearPending();
 391              		.loc 2 1007 0
 392 017c FFF7FEFF 		bl	CommunicationInterrupt_ClearPending
 393              	.LVL29:
1008:main.c        **** 	CommunicationTimer_ReadStatusRegister();
 394              		.loc 2 1008 0
 395 0180 FFF7FEFF 		bl	CommunicationTimer_ReadStatusRegister
 396              	.LVL30:
1009:main.c        **** }
 397              		.loc 2 1009 0
 398 0184 11B0     		add	sp, sp, #68
 399              		.cfi_def_cfa_offset 12
 400              		@ sp needed
 401 0186 30BD     		pop	{r4, r5, pc}
 402              	.L32:
 403              		.align	2
 404              	.L31:
 405 0188 00000000 		.word	USBUART_Rx_Position
 406 018c 00000000 		.word	USBUART_Receive_Buffer
 407 0190 00000000 		.word	.LANCHOR0
 408 0194 00000000 		.word	UART_Rx_Position
 409 0198 00000000 		.word	UART_Receive_Buffer
 410 019c 00000000 		.word	.LC0
 411 01a0 08000000 		.word	.LC1
 412 01a4 10000000 		.word	.LC2
 413 01a8 18000000 		.word	.LC3
 414 01ac 20000000 		.word	.LC4
 415              		.cfi_endproc
 416              	.LFE115:
 417              		.size	CommunicationHandlerISR, .-CommunicationHandlerISR
 418              		.section	.text.USBUARTH_Send,"ax",%progbits
 419              		.align	2
 420              		.global	USBUARTH_Send
 421              		.thumb
 422              		.thumb_func
 423              		.type	USBUARTH_Send, %function
 424              	USBUARTH_Send:
 425              	.LFB66:
  39:USBUART_Helpers.h **** 
  40:USBUART_Helpers.h **** 
  41:USBUART_Helpers.h **** uint8 USBUARTH_Send(char* buffer, uint16 count) {
 426              		.loc 1 41 0
 427              		.cfi_startproc
 428              		@ args = 0, pretend = 0, frame = 0
 429              		@ frame_needed = 0, uses_anonymous_args = 0
ARM GAS  C:\Users\FRANKL~1\AppData\Local\Temp\ccebBo1q.s 			page 27


 430              	.LVL31:
  42:USBUART_Helpers.h **** 	if (count > 0) {
 431              		.loc 1 42 0
 432 0000 49B9     		cbnz	r1, .L39
  43:USBUART_Helpers.h **** 		// Wait until component is ready to send data to host.
  44:USBUART_Helpers.h **** 		for (uint32 tries = 0; tries < 10; tries++) {
  45:USBUART_Helpers.h **** 			USBUARTH_Maintain_Configuration();
  46:USBUART_Helpers.h **** 			if (USBUART_CDCIsReady()) break;
  47:USBUART_Helpers.h **** 		}
  48:USBUART_Helpers.h ****         
  49:USBUART_Helpers.h **** 		if (!USBUART_CDCIsReady()) return 0;
  50:USBUART_Helpers.h **** 		
  51:USBUART_Helpers.h **** 		// Send data to host
  52:USBUART_Helpers.h **** 		USBUART_PutData((uint8*) buffer, count);
  53:USBUART_Helpers.h **** 		
  54:USBUART_Helpers.h **** 		/* If the last sent packet is exactly the maximum packet 
  55:USBUART_Helpers.h **** 		*  size, it is followed by a zero-length packet to assure
  56:USBUART_Helpers.h **** 		*  that the end of the segment is properly identified by 
  57:USBUART_Helpers.h **** 		*  the terminal.
  58:USBUART_Helpers.h **** 		*/
  59:USBUART_Helpers.h **** 		if (USBUART_BUFFER_SIZE == count) {
  60:USBUART_Helpers.h **** 			// Wait until component is ready to send data to PC.
  61:USBUART_Helpers.h **** 			while (!USBUART_CDCIsReady());
  62:USBUART_Helpers.h ****             
  63:USBUART_Helpers.h **** 			// Send zero-length packet to PC.
  64:USBUART_Helpers.h **** 			USBUART_PutData(NULL, 0);
  65:USBUART_Helpers.h **** 		}
  66:USBUART_Helpers.h **** 	}
  67:USBUART_Helpers.h **** 	
  68:USBUART_Helpers.h **** 	return 1;
 433              		.loc 1 68 0
 434 0002 0123     		movs	r3, #1
  69:USBUART_Helpers.h **** }
 435              		.loc 1 69 0
 436 0004 1846     		mov	r0, r3
 437              	.LVL32:
 438 0006 7047     		bx	lr
 439              	.LVL33:
 440              	.L37:
 441              		.cfi_def_cfa_offset 16
 442              		.cfi_offset 4, -16
 443              		.cfi_offset 5, -12
 444              		.cfi_offset 6, -8
 445              		.cfi_offset 14, -4
 446              	.LBB6:
  45:USBUART_Helpers.h **** 			if (USBUART_CDCIsReady()) break;
 447              		.loc 1 45 0
 448 0008 FFF7FEFF 		bl	USBUARTH_Maintain_Configuration
 449              	.LVL34:
  46:USBUART_Helpers.h **** 		}
 450              		.loc 1 46 0
 451 000c FFF7FEFF 		bl	USBUART_CDCIsReady
 452              	.LVL35:
 453 0010 38B9     		cbnz	r0, .L36
  44:USBUART_Helpers.h **** 			USBUARTH_Maintain_Configuration();
 454              		.loc 1 44 0 discriminator 2
 455 0012 0134     		adds	r4, r4, #1
ARM GAS  C:\Users\FRANKL~1\AppData\Local\Temp\ccebBo1q.s 			page 28


 456              	.LVL36:
 457 0014 03E0     		b	.L34
 458              	.LVL37:
 459              	.L39:
 460              		.cfi_def_cfa_offset 0
 461              		.cfi_restore 4
 462              		.cfi_restore 5
 463              		.cfi_restore 6
 464              		.cfi_restore 14
 465              	.LBE6:
  41:USBUART_Helpers.h **** 	if (count > 0) {
 466              		.loc 1 41 0
 467 0016 70B5     		push	{r4, r5, r6, lr}
 468              		.cfi_def_cfa_offset 16
 469              		.cfi_offset 4, -16
 470              		.cfi_offset 5, -12
 471              		.cfi_offset 6, -8
 472              		.cfi_offset 14, -4
 473 0018 0D46     		mov	r5, r1
 474 001a 0646     		mov	r6, r0
 475 001c 0024     		movs	r4, #0
 476              	.LVL38:
 477              	.L34:
 478              	.LBB7:
  44:USBUART_Helpers.h **** 			USBUARTH_Maintain_Configuration();
 479              		.loc 1 44 0 discriminator 1
 480 001e 092C     		cmp	r4, #9
 481 0020 F2D9     		bls	.L37
 482              	.L36:
 483              	.LBE7:
  49:USBUART_Helpers.h **** 		
 484              		.loc 1 49 0
 485 0022 FFF7FEFF 		bl	USBUART_CDCIsReady
 486              	.LVL39:
 487 0026 0346     		mov	r3, r0
 488 0028 80B1     		cbz	r0, .L35
  52:USBUART_Helpers.h **** 		
 489              		.loc 1 52 0
 490 002a 2946     		mov	r1, r5
 491 002c 3046     		mov	r0, r6
 492 002e FFF7FEFF 		bl	USBUART_PutData
 493              	.LVL40:
  59:USBUART_Helpers.h **** 			// Wait until component is ready to send data to PC.
 494              		.loc 1 59 0
 495 0032 402D     		cmp	r5, #64
 496 0034 09D1     		bne	.L40
 497              	.L38:
  61:USBUART_Helpers.h ****             
 498              		.loc 1 61 0 discriminator 1
 499 0036 FFF7FEFF 		bl	USBUART_CDCIsReady
 500              	.LVL41:
 501 003a 0028     		cmp	r0, #0
 502 003c FBD0     		beq	.L38
  64:USBUART_Helpers.h **** 		}
 503              		.loc 1 64 0
 504 003e 0021     		movs	r1, #0
 505 0040 0846     		mov	r0, r1
ARM GAS  C:\Users\FRANKL~1\AppData\Local\Temp\ccebBo1q.s 			page 29


 506 0042 FFF7FEFF 		bl	USBUART_PutData
 507              	.LVL42:
  68:USBUART_Helpers.h **** }
 508              		.loc 1 68 0
 509 0046 0123     		movs	r3, #1
 510 0048 00E0     		b	.L35
 511              	.L40:
 512 004a 0123     		movs	r3, #1
 513              	.L35:
 514              		.loc 1 69 0
 515 004c 1846     		mov	r0, r3
 516 004e 70BD     		pop	{r4, r5, r6, pc}
 517              		.cfi_endproc
 518              	.LFE66:
 519              		.size	USBUARTH_Send, .-USBUARTH_Send
 520              		.section	.text.USBUARTH_Receive,"ax",%progbits
 521              		.align	2
 522              		.global	USBUARTH_Receive
 523              		.thumb
 524              		.thumb_func
 525              		.type	USBUARTH_Receive, %function
 526              	USBUARTH_Receive:
 527              	.LFB67:
  70:USBUART_Helpers.h **** 
  71:USBUART_Helpers.h **** uint8 USBUARTH_Receive(char* buffer, uint16* count) {
 528              		.loc 1 71 0
 529              		.cfi_startproc
 530              		@ args = 0, pretend = 0, frame = 0
 531              		@ frame_needed = 0, uses_anonymous_args = 0
 532              	.LVL43:
 533 0000 38B5     		push	{r3, r4, r5, lr}
 534              		.cfi_def_cfa_offset 16
 535              		.cfi_offset 3, -16
 536              		.cfi_offset 4, -12
 537              		.cfi_offset 5, -8
 538              		.cfi_offset 14, -4
 539 0002 0446     		mov	r4, r0
 540 0004 0D46     		mov	r5, r1
  72:USBUART_Helpers.h **** 	// Wait for input data from host
  73:USBUART_Helpers.h **** 	while (!USBUART_DataIsReady()) USBUARTH_Maintain_Configuration();
 541              		.loc 1 73 0
 542 0006 01E0     		b	.L43
 543              	.LVL44:
 544              	.L44:
 545              		.loc 1 73 0 is_stmt 0 discriminator 2
 546 0008 FFF7FEFF 		bl	USBUARTH_Maintain_Configuration
 547              	.LVL45:
 548              	.L43:
 549              		.loc 1 73 0 discriminator 1
 550 000c FFF7FEFF 		bl	USBUART_DataIsReady
 551              	.LVL46:
 552 0010 0028     		cmp	r0, #0
 553 0012 F9D0     		beq	.L44
  74:USBUART_Helpers.h **** 	
  75:USBUART_Helpers.h **** 	// Read received data and re-enable OUT endpoint.
  76:USBUART_Helpers.h **** 	*count = USBUART_GetAll((uint8*) buffer);
 554              		.loc 1 76 0 is_stmt 1
ARM GAS  C:\Users\FRANKL~1\AppData\Local\Temp\ccebBo1q.s 			page 30


 555 0014 2046     		mov	r0, r4
 556 0016 FFF7FEFF 		bl	USBUART_GetAll
 557              	.LVL47:
 558 001a 2880     		strh	r0, [r5]	@ movhi
  77:USBUART_Helpers.h **** 	
  78:USBUART_Helpers.h **** 	buffer[*count] = 0;
 559              		.loc 1 78 0
 560 001c 0023     		movs	r3, #0
 561 001e 2354     		strb	r3, [r4, r0]
  79:USBUART_Helpers.h **** 	
  80:USBUART_Helpers.h **** 	return 1u;
  81:USBUART_Helpers.h **** }
 562              		.loc 1 81 0
 563 0020 0120     		movs	r0, #1
 564 0022 38BD     		pop	{r3, r4, r5, pc}
 565              		.cfi_endproc
 566              	.LFE67:
 567              		.size	USBUARTH_Receive, .-USBUARTH_Receive
 568              		.section	.text.USBUARTH_GetChar,"ax",%progbits
 569              		.align	2
 570              		.global	USBUARTH_GetChar
 571              		.thumb
 572              		.thumb_func
 573              		.type	USBUARTH_GetChar, %function
 574              	USBUARTH_GetChar:
 575              	.LFB68:
  82:USBUART_Helpers.h **** 
  83:USBUART_Helpers.h **** char USBUARTH_GetChar() {
 576              		.loc 1 83 0
 577              		.cfi_startproc
 578              		@ args = 0, pretend = 0, frame = 0
 579              		@ frame_needed = 0, uses_anonymous_args = 0
 580 0000 08B5     		push	{r3, lr}
 581              		.cfi_def_cfa_offset 8
 582              		.cfi_offset 3, -8
 583              		.cfi_offset 14, -4
  84:USBUART_Helpers.h **** 	while (!USBUART_DataIsReady()) USBUARTH_Maintain_Configuration();
 584              		.loc 1 84 0
 585 0002 01E0     		b	.L47
 586              	.L48:
 587              		.loc 1 84 0 is_stmt 0 discriminator 2
 588 0004 FFF7FEFF 		bl	USBUARTH_Maintain_Configuration
 589              	.LVL48:
 590              	.L47:
 591              		.loc 1 84 0 discriminator 1
 592 0008 FFF7FEFF 		bl	USBUART_DataIsReady
 593              	.LVL49:
 594 000c 0028     		cmp	r0, #0
 595 000e F9D0     		beq	.L48
  85:USBUART_Helpers.h **** 	
  86:USBUART_Helpers.h **** 	return USBUART_GetChar();
 596              		.loc 1 86 0 is_stmt 1
 597 0010 FFF7FEFF 		bl	USBUART_GetChar
 598              	.LVL50:
  87:USBUART_Helpers.h **** }
 599              		.loc 1 87 0
 600 0014 08BD     		pop	{r3, pc}
ARM GAS  C:\Users\FRANKL~1\AppData\Local\Temp\ccebBo1q.s 			page 31


 601              		.cfi_endproc
 602              	.LFE68:
 603              		.size	USBUARTH_GetChar, .-USBUARTH_GetChar
 604 0016 00BF     		.section	.text.USBUARTH_Receive_Until,"ax",%progbits
 605              		.align	2
 606              		.global	USBUARTH_Receive_Until
 607              		.thumb
 608              		.thumb_func
 609              		.type	USBUARTH_Receive_Until, %function
 610              	USBUARTH_Receive_Until:
 611              	.LFB69:
  88:USBUART_Helpers.h **** 
  89:USBUART_Helpers.h **** uint8 USBUARTH_Receive_Until(char* buffer, uint16 maxLength, const char* termination) {
 612              		.loc 1 89 0
 613              		.cfi_startproc
 614              		@ args = 0, pretend = 0, frame = 0
 615              		@ frame_needed = 0, uses_anonymous_args = 0
 616              	.LVL51:
 617 0000 2DE9F041 		push	{r4, r5, r6, r7, r8, lr}
 618              		.cfi_def_cfa_offset 24
 619              		.cfi_offset 4, -24
 620              		.cfi_offset 5, -20
 621              		.cfi_offset 6, -16
 622              		.cfi_offset 7, -12
 623              		.cfi_offset 8, -8
 624              		.cfi_offset 14, -4
 625 0004 0546     		mov	r5, r0
 626 0006 0E46     		mov	r6, r1
 627 0008 1746     		mov	r7, r2
 628              	.LVL52:
 629              	.LBB8:
  90:USBUART_Helpers.h **** 	for (uint16 i = 0; i < maxLength; i++) {
 630              		.loc 1 90 0
 631 000a 0023     		movs	r3, #0
 632 000c 03E0     		b	.L51
 633              	.LVL53:
 634              	.L52:
  91:USBUART_Helpers.h **** 		buffer[i] = 0;
 635              		.loc 1 91 0 discriminator 3
 636 000e 0022     		movs	r2, #0
 637 0010 EA54     		strb	r2, [r5, r3]
  90:USBUART_Helpers.h **** 	for (uint16 i = 0; i < maxLength; i++) {
 638              		.loc 1 90 0 discriminator 3
 639 0012 0133     		adds	r3, r3, #1
 640              	.LVL54:
 641 0014 9BB2     		uxth	r3, r3
 642              	.LVL55:
 643              	.L51:
  90:USBUART_Helpers.h **** 	for (uint16 i = 0; i < maxLength; i++) {
 644              		.loc 1 90 0 is_stmt 0 discriminator 1
 645 0016 B342     		cmp	r3, r6
 646 0018 F9D3     		bcc	.L52
 647 001a 0024     		movs	r4, #0
 648 001c 16E0     		b	.L53
 649              	.LVL56:
 650              	.L56:
 651              	.LBE8:
ARM GAS  C:\Users\FRANKL~1\AppData\Local\Temp\ccebBo1q.s 			page 32


 652              	.LBB9:
  92:USBUART_Helpers.h **** 	}
  93:USBUART_Helpers.h **** 	
  94:USBUART_Helpers.h **** 	for (uint16 i = 0; i < maxLength - 1; i++) {
  95:USBUART_Helpers.h **** 		buffer[i] = USBUARTH_GetChar();
 653              		.loc 1 95 0 is_stmt 1
 654 001e FFF7FEFF 		bl	USBUARTH_GetChar
 655              	.LVL57:
 656 0022 2855     		strb	r0, [r5, r4]
  96:USBUART_Helpers.h **** 		buffer[i+1] = 0;
 657              		.loc 1 96 0
 658 0024 631C     		adds	r3, r4, #1
 659 0026 0022     		movs	r2, #0
 660 0028 EA54     		strb	r2, [r5, r3]
  97:USBUART_Helpers.h **** 		
  98:USBUART_Helpers.h **** 		if (strstr(buffer, termination)) {
 661              		.loc 1 98 0
 662 002a 3946     		mov	r1, r7
 663 002c 2846     		mov	r0, r5
 664 002e FFF7FEFF 		bl	strstr
 665              	.LVL58:
 666 0032 48B1     		cbz	r0, .L54
  99:USBUART_Helpers.h **** 			buffer[i + 1 - strlen(termination)] = 0;
 667              		.loc 1 99 0
 668 0034 3846     		mov	r0, r7
 669 0036 FFF7FEFF 		bl	strlen
 670              	.LVL59:
 671 003a 201A     		subs	r0, r4, r0
 672 003c 0130     		adds	r0, r0, #1
 673 003e 0023     		movs	r3, #0
 674 0040 2B54     		strb	r3, [r5, r0]
 100:USBUART_Helpers.h **** 			return 1;
 675              		.loc 1 100 0
 676 0042 0120     		movs	r0, #1
 677 0044 BDE8F081 		pop	{r4, r5, r6, r7, r8, pc}
 678              	.LVL60:
 679              	.L54:
  94:USBUART_Helpers.h **** 		buffer[i] = USBUARTH_GetChar();
 680              		.loc 1 94 0 discriminator 2
 681 0048 0134     		adds	r4, r4, #1
 682              	.LVL61:
 683 004a A4B2     		uxth	r4, r4
 684              	.LVL62:
 685              	.L53:
  94:USBUART_Helpers.h **** 		buffer[i] = USBUARTH_GetChar();
 686              		.loc 1 94 0 is_stmt 0 discriminator 1
 687 004c 731E     		subs	r3, r6, #1
 688 004e 9C42     		cmp	r4, r3
 689 0050 E5DB     		blt	.L56
 690              	.LBE9:
 101:USBUART_Helpers.h **** 		}
 102:USBUART_Helpers.h **** 	}
 103:USBUART_Helpers.h **** 	
 104:USBUART_Helpers.h **** 	return 0;
 691              		.loc 1 104 0 is_stmt 1
 692 0052 0020     		movs	r0, #0
 105:USBUART_Helpers.h **** }
ARM GAS  C:\Users\FRANKL~1\AppData\Local\Temp\ccebBo1q.s 			page 33


 693              		.loc 1 105 0
 694 0054 BDE8F081 		pop	{r4, r5, r6, r7, r8, pc}
 695              		.cfi_endproc
 696              	.LFE69:
 697              		.size	USBUARTH_Receive_Until, .-USBUARTH_Receive_Until
 698              		.section	.text.Setup_Selector_I2C_Struct,"ax",%progbits
 699              		.align	2
 700              		.global	Setup_Selector_I2C_Struct
 701              		.thumb
 702              		.thumb_func
 703              		.type	Setup_Selector_I2C_Struct, %function
 704              	Setup_Selector_I2C_Struct:
 705              	.LFB70:
  56:main.c        **** 	selector->write.subAddress = 1;
 706              		.loc 2 56 0
 707              		.cfi_startproc
 708              		@ args = 0, pretend = 0, frame = 0
 709              		@ frame_needed = 0, uses_anonymous_args = 0
 710              		@ link register save eliminated.
 711              	.LVL63:
  57:main.c        **** 	selector->read.subAddress = sizeof(selector->write) + 1;
 712              		.loc 2 57 0
 713 0000 0123     		movs	r3, #1
 714 0002 0370     		strb	r3, [r0]
  58:main.c        **** 	
 715              		.loc 2 58 0
 716 0004 8023     		movs	r3, #128
 717 0006 80F87F30 		strb	r3, [r0, #127]
 718              	.LVL64:
 719              	.LBB10:
  60:main.c        **** 		selector->write.data[i] = i + 6;
 720              		.loc 2 60 0
 721 000a 0023     		movs	r3, #0
 722 000c 04E0     		b	.L59
 723              	.LVL65:
 724              	.L60:
  61:main.c        **** 	}
 725              		.loc 2 61 0 discriminator 3
 726 000e C218     		adds	r2, r0, r3
 727 0010 991D     		adds	r1, r3, #6
 728 0012 5170     		strb	r1, [r2, #1]
  60:main.c        **** 		selector->write.data[i] = i + 6;
 729              		.loc 2 60 0 discriminator 3
 730 0014 0133     		adds	r3, r3, #1
 731              	.LVL66:
 732 0016 9BB2     		uxth	r3, r3
 733              	.LVL67:
 734              	.L59:
  60:main.c        **** 		selector->write.data[i] = i + 6;
 735              		.loc 2 60 0 is_stmt 0 discriminator 1
 736 0018 7D2B     		cmp	r3, #125
 737 001a F8D9     		bls	.L60
 738 001c 0023     		movs	r3, #0
 739              	.LVL68:
 740 001e 05E0     		b	.L61
 741              	.LVL69:
 742              	.L62:
ARM GAS  C:\Users\FRANKL~1\AppData\Local\Temp\ccebBo1q.s 			page 34


 743              	.LBE10:
 744              	.LBB11:
  64:main.c        **** 	}
 745              		.loc 2 64 0 is_stmt 1 discriminator 3
 746 0020 C218     		adds	r2, r0, r3
 747 0022 BE21     		movs	r1, #190
 748 0024 82F88010 		strb	r1, [r2, #128]
  63:main.c        **** 		selector->read.data[i] = 0xbe;
 749              		.loc 2 63 0 discriminator 3
 750 0028 0133     		adds	r3, r3, #1
 751              	.LVL70:
 752 002a 9BB2     		uxth	r3, r3
 753              	.LVL71:
 754              	.L61:
  63:main.c        **** 		selector->read.data[i] = 0xbe;
 755              		.loc 2 63 0 is_stmt 0 discriminator 1
 756 002c 7D2B     		cmp	r3, #125
 757 002e F7D9     		bls	.L62
 758              	.LBE11:
  66:main.c        **** 
 759              		.loc 2 66 0 is_stmt 1
 760 0030 7047     		bx	lr
 761              		.cfi_endproc
 762              	.LFE70:
 763              		.size	Setup_Selector_I2C_Struct, .-Setup_Selector_I2C_Struct
 764              		.global	__aeabi_dcmpge
 765              		.global	__aeabi_ui2d
 766              		.global	__aeabi_dcmplt
 767 0032 00BF     		.section	.text.Update_Selector,"ax",%progbits
 768              		.align	2
 769              		.global	Update_Selector
 770              		.thumb
 771              		.thumb_func
 772              		.type	Update_Selector, %function
 773              	Update_Selector:
 774              	.LFB71:
  68:main.c        **** 	sprintf(TransmitBuffer, "Updating Selector %u\r\n", selectori + 1);
 775              		.loc 2 68 0
 776              		.cfi_startproc
 777              		@ args = 0, pretend = 0, frame = 0
 778              		@ frame_needed = 0, uses_anonymous_args = 0
 779              	.LVL72:
 780 0000 2DE9F041 		push	{r4, r5, r6, r7, r8, lr}
 781              		.cfi_def_cfa_offset 24
 782              		.cfi_offset 4, -24
 783              		.cfi_offset 5, -20
 784              		.cfi_offset 6, -16
 785              		.cfi_offset 7, -12
 786              		.cfi_offset 8, -8
 787              		.cfi_offset 14, -4
 788 0004 0446     		mov	r4, r0
  69:main.c        **** 	USBUARTH_Send(TransmitBuffer, strlen(TransmitBuffer));
 789              		.loc 2 69 0
 790 0006 00F10108 		add	r8, r0, #1
 791 000a 594D     		ldr	r5, .L74+16
 792 000c 4246     		mov	r2, r8
 793 000e 5949     		ldr	r1, .L74+20
ARM GAS  C:\Users\FRANKL~1\AppData\Local\Temp\ccebBo1q.s 			page 35


 794 0010 2846     		mov	r0, r5
 795              	.LVL73:
 796 0012 FFF7FEFF 		bl	sprintf
 797              	.LVL74:
  70:main.c        **** 	UART_1_PutString(TransmitBuffer);
 798              		.loc 2 70 0
 799 0016 2846     		mov	r0, r5
 800 0018 FFF7FEFF 		bl	strlen
 801              	.LVL75:
 802 001c 81B2     		uxth	r1, r0
 803 001e 2846     		mov	r0, r5
 804 0020 FFF7FEFF 		bl	USBUARTH_Send
 805              	.LVL76:
  71:main.c        **** 	
 806              		.loc 2 71 0
 807 0024 2846     		mov	r0, r5
 808 0026 FFF7FEFF 		bl	UART_1_PutString
 809              	.LVL77:
  75:main.c        **** 	I2C_1_MasterWriteBuf(selector->busAddress, (uint8 *) &selector->write, sizeof(selector->write), I2
 810              		.loc 2 75 0
 811 002a FFF7FEFF 		bl	I2C_1_MasterClearStatus
 812              	.LVL78:
  76:main.c        **** 	for (uint32 i = 0; i < 4e5; i++) {
 813              		.loc 2 76 0
 814 002e C4EB0424 		rsb	r4, r4, r4, lsl #8
 815              	.LVL79:
 816 0032 514B     		ldr	r3, .L74+24
 817 0034 1C44     		add	r4, r4, r3
 818 0036 0023     		movs	r3, #0
 819 0038 7F22     		movs	r2, #127
 820 003a 2146     		mov	r1, r4
 821 003c 94F8FE00 		ldrb	r0, [r4, #254]	@ zero_extendqisi2
 822 0040 FFF7FEFF 		bl	I2C_1_MasterWriteBuf
 823              	.LVL80:
 824              	.LBB12:
  77:main.c        **** 		if ((I2C_1_MasterStatus() & I2C_1_MSTAT_WR_CMPLT)) break;
 825              		.loc 2 77 0
 826 0044 0024     		movs	r4, #0
 827 0046 2CE0     		b	.L64
 828              	.LVL81:
 829              	.L69:
  78:main.c        **** 		if (i >= 4e5 - 1) {
 830              		.loc 2 78 0
 831 0048 FFF7FEFF 		bl	I2C_1_MasterStatus
 832              	.LVL82:
 833 004c 10F0020F 		tst	r0, #2
 834 0050 33D1     		bne	.L65
  79:main.c        **** 			sprintf(TransmitBuffer, "I2C Transfer Error! Type: Timeout\r\n");
 835              		.loc 2 79 0
 836 0052 43A3     		adr	r3, .L74
 837 0054 D3E90023 		ldrd	r2, [r3]
 838 0058 3046     		mov	r0, r6
 839 005a 3946     		mov	r1, r7
 840 005c FFF7FEFF 		bl	__aeabi_dcmpge
 841              	.LVL83:
 842 0060 F0B1     		cbz	r0, .L66
  80:main.c        **** 			USBUARTH_Send(TransmitBuffer, strlen(TransmitBuffer));
ARM GAS  C:\Users\FRANKL~1\AppData\Local\Temp\ccebBo1q.s 			page 36


 843              		.loc 2 80 0
 844 0062 464F     		ldr	r7, .L74+28
 845 0064 424D     		ldr	r5, .L74+16
 846 0066 07F1200E 		add	lr, r7, #32
 847              	.L68:
 848 006a 3E46     		mov	r6, r7
 849 006c 0FCE     		ldmia	r6!, {r0, r1, r2, r3}
 850 006e 2860     		str	r0, [r5]	@ unaligned
 851 0070 6960     		str	r1, [r5, #4]	@ unaligned
 852 0072 AA60     		str	r2, [r5, #8]	@ unaligned
 853 0074 EB60     		str	r3, [r5, #12]	@ unaligned
 854 0076 3746     		mov	r7, r6
 855 0078 1035     		adds	r5, r5, #16
 856 007a 7645     		cmp	r6, lr
 857 007c F5D1     		bne	.L68
 858 007e 3068     		ldr	r0, [r6]	@ unaligned
 859 0080 2860     		str	r0, [r5]	@ unaligned
  81:main.c        **** 			UART_1_PutString(TransmitBuffer);
 860              		.loc 2 81 0
 861 0082 3B4D     		ldr	r5, .L74+16
 862 0084 2846     		mov	r0, r5
 863 0086 FFF7FEFF 		bl	strlen
 864              	.LVL84:
 865 008a 81B2     		uxth	r1, r0
 866 008c 2846     		mov	r0, r5
 867 008e FFF7FEFF 		bl	USBUARTH_Send
 868              	.LVL85:
  82:main.c        **** 			I2C_1_Stop();
 869              		.loc 2 82 0
 870 0092 2846     		mov	r0, r5
 871 0094 FFF7FEFF 		bl	UART_1_PutString
 872              	.LVL86:
  83:main.c        **** 			I2C_1_Start();
 873              		.loc 2 83 0
 874 0098 FFF7FEFF 		bl	I2C_1_Stop
 875              	.LVL87:
  84:main.c        **** 		}
 876              		.loc 2 84 0
 877 009c FFF7FEFF 		bl	I2C_1_Start
 878              	.LVL88:
 879              	.L66:
  77:main.c        **** 		if ((I2C_1_MasterStatus() & I2C_1_MSTAT_WR_CMPLT)) break;
 880              		.loc 2 77 0 discriminator 2
 881 00a0 0134     		adds	r4, r4, #1
 882              	.LVL89:
 883              	.L64:
  77:main.c        **** 		if ((I2C_1_MasterStatus() & I2C_1_MSTAT_WR_CMPLT)) break;
 884              		.loc 2 77 0 is_stmt 0 discriminator 1
 885 00a2 2046     		mov	r0, r4
 886 00a4 FFF7FEFF 		bl	__aeabi_ui2d
 887              	.LVL90:
 888 00a8 0646     		mov	r6, r0
 889 00aa 0F46     		mov	r7, r1
 890 00ac 2EA3     		adr	r3, .L74+8
 891 00ae D3E90023 		ldrd	r2, [r3]
 892 00b2 FFF7FEFF 		bl	__aeabi_dcmplt
 893              	.LVL91:
ARM GAS  C:\Users\FRANKL~1\AppData\Local\Temp\ccebBo1q.s 			page 37


 894 00b6 0028     		cmp	r0, #0
 895 00b8 C6D1     		bne	.L69
 896              	.L65:
 897              	.LBE12:
  99:main.c        **** 		sprintf(TransmitBuffer, "I2C Transfer Error! ");
 898              		.loc 2 99 0 is_stmt 1
 899 00ba FFF7FEFF 		bl	I2C_1_MasterStatus
 900              	.LVL92:
 901 00be 10F0800F 		tst	r0, #128
 902 00c2 39D0     		beq	.L70
 100:main.c        **** 		USBUARTH_Send(TransmitBuffer, strlen(TransmitBuffer));
 903              		.loc 2 100 0
 904 00c4 2A4C     		ldr	r4, .L74+16
 905              	.LVL93:
 906 00c6 2E4D     		ldr	r5, .L74+32
 907 00c8 0FCD     		ldmia	r5!, {r0, r1, r2, r3}
 908 00ca 2060     		str	r0, [r4]	@ unaligned
 909 00cc 6160     		str	r1, [r4, #4]	@ unaligned
 910 00ce A260     		str	r2, [r4, #8]	@ unaligned
 911 00d0 E360     		str	r3, [r4, #12]	@ unaligned
 912 00d2 2868     		ldr	r0, [r5]	@ unaligned
 913 00d4 2061     		str	r0, [r4, #16]	@ unaligned
 914 00d6 2B79     		ldrb	r3, [r5, #4]	@ zero_extendqisi2
 915 00d8 2375     		strb	r3, [r4, #20]
 101:main.c        **** 		UART_1_PutString(TransmitBuffer);
 916              		.loc 2 101 0
 917 00da 2046     		mov	r0, r4
 918 00dc FFF7FEFF 		bl	strlen
 919              	.LVL94:
 920 00e0 81B2     		uxth	r1, r0
 921 00e2 2046     		mov	r0, r4
 922 00e4 FFF7FEFF 		bl	USBUARTH_Send
 923              	.LVL95:
 102:main.c        **** 		
 924              		.loc 2 102 0
 925 00e8 2046     		mov	r0, r4
 926 00ea FFF7FEFF 		bl	UART_1_PutString
 927              	.LVL96:
 104:main.c        **** 			sprintf(TransmitBuffer, "Type: NAK");
 928              		.loc 2 104 0
 929 00ee FFF7FEFF 		bl	I2C_1_MasterStatus
 930              	.LVL97:
 931 00f2 10F0200F 		tst	r0, #32
 932 00f6 0FD0     		beq	.L71
 105:main.c        **** 			USBUARTH_Send(TransmitBuffer, strlen(TransmitBuffer));
 933              		.loc 2 105 0
 934 00f8 224B     		ldr	r3, .L74+36
 935 00fa 03CB     		ldmia	r3!, {r0, r1}
 936 00fc 2060     		str	r0, [r4]	@ unaligned
 937 00fe 6160     		str	r1, [r4, #4]	@ unaligned
 938 0100 1B88     		ldrh	r3, [r3]	@ unaligned
 939 0102 2381     		strh	r3, [r4, #8]	@ unaligned
 106:main.c        **** 			UART_1_PutString(TransmitBuffer);
 940              		.loc 2 106 0
 941 0104 2046     		mov	r0, r4
 942 0106 FFF7FEFF 		bl	strlen
 943              	.LVL98:
ARM GAS  C:\Users\FRANKL~1\AppData\Local\Temp\ccebBo1q.s 			page 38


 944 010a 81B2     		uxth	r1, r0
 945 010c 2046     		mov	r0, r4
 946 010e FFF7FEFF 		bl	USBUARTH_Send
 947              	.LVL99:
 107:main.c        **** 		}
 948              		.loc 2 107 0
 949 0112 2046     		mov	r0, r4
 950 0114 FFF7FEFF 		bl	UART_1_PutString
 951              	.LVL100:
 952              	.L71:
 110:main.c        **** 		USBUARTH_Send(TransmitBuffer, strlen(TransmitBuffer));
 953              		.loc 2 110 0
 954 0118 154C     		ldr	r4, .L74+16
 955 011a 1B4B     		ldr	r3, .L74+40
 956 011c 1A88     		ldrh	r2, [r3]	@ unaligned
 957 011e 9B78     		ldrb	r3, [r3, #2]	@ zero_extendqisi2
 958 0120 2280     		strh	r2, [r4]	@ unaligned
 959 0122 A370     		strb	r3, [r4, #2]
 111:main.c        **** 		UART_1_PutString(TransmitBuffer);
 960              		.loc 2 111 0
 961 0124 2046     		mov	r0, r4
 962 0126 FFF7FEFF 		bl	strlen
 963              	.LVL101:
 964 012a 81B2     		uxth	r1, r0
 965 012c 2046     		mov	r0, r4
 966 012e FFF7FEFF 		bl	USBUARTH_Send
 967              	.LVL102:
 112:main.c        **** 	}
 968              		.loc 2 112 0
 969 0132 2046     		mov	r0, r4
 970 0134 FFF7FEFF 		bl	UART_1_PutString
 971              	.LVL103:
 972              	.L70:
 115:main.c        **** 	USBUARTH_Send(TransmitBuffer, strlen(TransmitBuffer));
 973              		.loc 2 115 0
 974 0138 0D4C     		ldr	r4, .L74+16
 975 013a 4246     		mov	r2, r8
 976 013c 1349     		ldr	r1, .L74+44
 977 013e 2046     		mov	r0, r4
 978 0140 FFF7FEFF 		bl	sprintf
 979              	.LVL104:
 116:main.c        **** 	UART_1_PutString(TransmitBuffer);
 980              		.loc 2 116 0
 981 0144 2046     		mov	r0, r4
 982 0146 FFF7FEFF 		bl	strlen
 983              	.LVL105:
 984 014a 81B2     		uxth	r1, r0
 985 014c 2046     		mov	r0, r4
 986 014e FFF7FEFF 		bl	USBUARTH_Send
 987              	.LVL106:
 117:main.c        **** }
 988              		.loc 2 117 0
 989 0152 2046     		mov	r0, r4
 990 0154 FFF7FEFF 		bl	UART_1_PutString
 991              	.LVL107:
 992 0158 BDE8F081 		pop	{r4, r5, r6, r7, r8, pc}
 993              	.LVL108:
ARM GAS  C:\Users\FRANKL~1\AppData\Local\Temp\ccebBo1q.s 			page 39


 994              	.L75:
 995 015c AFF30080 		.align	3
 996              	.L74:
 997 0160 00000000 		.word	0
 998 0164 FC691841 		.word	1092119036
 999 0168 00000000 		.word	0
 1000 016c 006A1841 		.word	1092119040
 1001 0170 00000000 		.word	TransmitBuffer
 1002 0174 2C000000 		.word	.LC5
 1003 0178 00000000 		.word	selectors
 1004 017c 44000000 		.word	.LC6
 1005 0180 68000000 		.word	.LC7
 1006 0184 80000000 		.word	.LC8
 1007 0188 8C000000 		.word	.LC9
 1008 018c 90000000 		.word	.LC10
 1009              		.cfi_endproc
 1010              	.LFE71:
 1011              		.size	Update_Selector, .-Update_Selector
 1012              		.section	.text.Setup_Selectors,"ax",%progbits
 1013              		.align	2
 1014              		.global	Setup_Selectors
 1015              		.thumb
 1016              		.thumb_func
 1017              		.type	Setup_Selectors, %function
 1018              	Setup_Selectors:
 1019              	.LFB72:
 120:main.c        **** 	for (uint8 i = 0; i < SELECTOR_COUNT; i++) Setup_Selector_I2C_Struct(&selectors[i]);
 1020              		.loc 2 120 0
 1021              		.cfi_startproc
 1022              		@ args = 0, pretend = 0, frame = 0
 1023              		@ frame_needed = 0, uses_anonymous_args = 0
 1024 0000 10B5     		push	{r4, lr}
 1025              		.cfi_def_cfa_offset 8
 1026              		.cfi_offset 4, -8
 1027              		.cfi_offset 14, -4
 1028              	.LVL109:
 1029              	.LBB13:
 121:main.c        **** 	
 1030              		.loc 2 121 0
 1031 0002 0024     		movs	r4, #0
 1032 0004 07E0     		b	.L77
 1033              	.LVL110:
 1034              	.L78:
 121:main.c        **** 	
 1035              		.loc 2 121 0 is_stmt 0 discriminator 3
 1036 0006 C4EB0423 		rsb	r3, r4, r4, lsl #8
 1037 000a 0B48     		ldr	r0, .L80
 1038 000c 1844     		add	r0, r0, r3
 1039 000e FFF7FEFF 		bl	Setup_Selector_I2C_Struct
 1040              	.LVL111:
 1041 0012 0134     		adds	r4, r4, #1
 1042              	.LVL112:
 1043 0014 E4B2     		uxtb	r4, r4
 1044              	.LVL113:
 1045              	.L77:
 121:main.c        **** 	
 1046              		.loc 2 121 0 discriminator 1
ARM GAS  C:\Users\FRANKL~1\AppData\Local\Temp\ccebBo1q.s 			page 40


 1047 0016 032C     		cmp	r4, #3
 1048 0018 F5D9     		bls	.L78
 1049              	.LBE13:
 123:main.c        **** 	selectors[1].busAddress = 0x11;
 1050              		.loc 2 123 0 is_stmt 1
 1051 001a 074B     		ldr	r3, .L80
 1052 001c 6622     		movs	r2, #102
 1053 001e 83F8FE20 		strb	r2, [r3, #254]
 124:main.c        **** 	selectors[2].busAddress = 0x44;
 1054              		.loc 2 124 0
 1055 0022 1122     		movs	r2, #17
 1056 0024 83F8FD21 		strb	r2, [r3, #509]
 125:main.c        **** 	selectors[3].busAddress = 0x22;
 1057              		.loc 2 125 0
 1058 0028 4422     		movs	r2, #68
 1059 002a 83F8FC22 		strb	r2, [r3, #764]
 126:main.c        **** }
 1060              		.loc 2 126 0
 1061 002e 2222     		movs	r2, #34
 1062 0030 83F8FB23 		strb	r2, [r3, #1019]
 1063 0034 10BD     		pop	{r4, pc}
 1064              	.LVL114:
 1065              	.L81:
 1066 0036 00BF     		.align	2
 1067              	.L80:
 1068 0038 00000000 		.word	selectors
 1069              		.cfi_endproc
 1070              	.LFE72:
 1071              		.size	Setup_Selectors, .-Setup_Selectors
 1072              		.section	.text.Connect_Channel_On_Intermediate,"ax",%progbits
 1073              		.align	2
 1074              		.global	Connect_Channel_On_Intermediate
 1075              		.thumb
 1076              		.thumb_func
 1077              		.type	Connect_Channel_On_Intermediate, %function
 1078              	Connect_Channel_On_Intermediate:
 1079              	.LFB73:
 129:main.c        **** 	channel--;
 1080              		.loc 2 129 0
 1081              		.cfi_startproc
 1082              		@ args = 0, pretend = 0, frame = 0
 1083              		@ frame_needed = 0, uses_anonymous_args = 0
 1084              	.LVL115:
 1085 0000 08B5     		push	{r3, lr}
 1086              		.cfi_def_cfa_offset 8
 1087              		.cfi_offset 3, -8
 1088              		.cfi_offset 14, -4
 130:main.c        **** 	intermediate--;
 1089              		.loc 2 130 0
 1090 0002 0138     		subs	r0, r0, #1
 1091              	.LVL116:
 1092 0004 C3B2     		uxtb	r3, r0
 1093              	.LVL117:
 133:main.c        **** 	if (intermediate >= INTERMEDIATE_COUNT) return;
 1094              		.loc 2 133 0
 1095 0006 212B     		cmp	r3, #33
 1096 0008 0CD8     		bhi	.L82
ARM GAS  C:\Users\FRANKL~1\AppData\Local\Temp\ccebBo1q.s 			page 41


 1097 000a 0139     		subs	r1, r1, #1
 1098              	.LVL118:
 1099 000c C8B2     		uxtb	r0, r1
 134:main.c        **** 	
 1100              		.loc 2 134 0
 1101 000e 0328     		cmp	r0, #3
 1102 0010 08D8     		bhi	.L82
 136:main.c        **** 	Update_Selector(intermediate);
 1103              		.loc 2 136 0
 1104 0012 C0EB0022 		rsb	r2, r0, r0, lsl #8
 1105 0016 0449     		ldr	r1, .L85
 1106 0018 0A44     		add	r2, r2, r1
 1107 001a 1344     		add	r3, r3, r2
 1108              	.LVL119:
 1109 001c C022     		movs	r2, #192
 1110 001e 5A70     		strb	r2, [r3, #1]
 137:main.c        **** }
 1111              		.loc 2 137 0
 1112 0020 FFF7FEFF 		bl	Update_Selector
 1113              	.LVL120:
 1114              	.L82:
 1115 0024 08BD     		pop	{r3, pc}
 1116              	.L86:
 1117 0026 00BF     		.align	2
 1118              	.L85:
 1119 0028 00000000 		.word	selectors
 1120              		.cfi_endproc
 1121              	.LFE73:
 1122              		.size	Connect_Channel_On_Intermediate, .-Connect_Channel_On_Intermediate
 1123              		.section	.text.Connect_Contact_To_Intermediate,"ax",%progbits
 1124              		.align	2
 1125              		.global	Connect_Contact_To_Intermediate
 1126              		.thumb
 1127              		.thumb_func
 1128              		.type	Connect_Contact_To_Intermediate, %function
 1129              	Connect_Contact_To_Intermediate:
 1130              	.LFB74:
 140:main.c        **** 	contact--;
 1131              		.loc 2 140 0
 1132              		.cfi_startproc
 1133              		@ args = 0, pretend = 0, frame = 0
 1134              		@ frame_needed = 0, uses_anonymous_args = 0
 1135              	.LVL121:
 141:main.c        **** 	intermediate--;
 1136              		.loc 2 141 0
 1137 0000 0138     		subs	r0, r0, #1
 1138              	.LVL122:
 1139 0002 C0B2     		uxtb	r0, r0
 1140              	.LVL123:
 144:main.c        **** 	if (intermediate >= INTERMEDIATE_COUNT) return;
 1141              		.loc 2 144 0
 1142 0004 3F28     		cmp	r0, #63
 1143 0006 13D8     		bhi	.L92
 140:main.c        **** 	contact--;
 1144              		.loc 2 140 0
 1145 0008 08B5     		push	{r3, lr}
 1146              		.cfi_def_cfa_offset 8
ARM GAS  C:\Users\FRANKL~1\AppData\Local\Temp\ccebBo1q.s 			page 42


 1147              		.cfi_offset 3, -8
 1148              		.cfi_offset 14, -4
 1149 000a 4B1E     		subs	r3, r1, #1
 1150 000c DBB2     		uxtb	r3, r3
 145:main.c        **** 	
 1151              		.loc 2 145 0
 1152 000e 032B     		cmp	r3, #3
 1153 0010 0DD8     		bhi	.L87
 1154              	.LVL124:
 148:main.c        **** 		offset = CONTACT_COUNT/2;
 1155              		.loc 2 148 0
 1156 0012 012B     		cmp	r3, #1
 1157 0014 03D9     		bls	.L89
 1158              	.LVL125:
 150:main.c        **** 	} else {
 1159              		.loc 2 150 0
 1160 0016 1F28     		cmp	r0, #31
 1161 0018 09D9     		bls	.L87
 149:main.c        **** 		if (contact < CONTACT_COUNT/2) return;
 1162              		.loc 2 149 0
 1163 001a 2023     		movs	r3, #32
 1164 001c 02E0     		b	.L90
 1165              	.LVL126:
 1166              	.L89:
 152:main.c        **** 	}
 1167              		.loc 2 152 0
 1168 001e 1F28     		cmp	r0, #31
 1169 0020 05D8     		bhi	.L87
 147:main.c        **** 	if (intermediate >= INTERMEDIATE_COUNT/2) {
 1170              		.loc 2 147 0
 1171 0022 0023     		movs	r3, #0
 1172              	.LVL127:
 1173              	.L90:
 155:main.c        **** }
 1174              		.loc 2 155 0
 1175 0024 C01A     		subs	r0, r0, r3
 1176              	.LVL128:
 1177 0026 0130     		adds	r0, r0, #1
 1178 0028 C0B2     		uxtb	r0, r0
 1179 002a FFF7FEFF 		bl	Connect_Channel_On_Intermediate
 1180              	.LVL129:
 1181              	.L87:
 1182 002e 08BD     		pop	{r3, pc}
 1183              	.LVL130:
 1184              	.L92:
 1185              		.cfi_def_cfa_offset 0
 1186              		.cfi_restore 3
 1187              		.cfi_restore 14
 1188 0030 7047     		bx	lr
 1189              		.cfi_endproc
 1190              	.LFE74:
 1191              		.size	Connect_Contact_To_Intermediate, .-Connect_Contact_To_Intermediate
 1192 0032 00BF     		.section	.text.Disconnect_Contact_From_Intermediate,"ax",%progbits
 1193              		.align	2
 1194              		.global	Disconnect_Contact_From_Intermediate
 1195              		.thumb
 1196              		.thumb_func
ARM GAS  C:\Users\FRANKL~1\AppData\Local\Temp\ccebBo1q.s 			page 43


 1197              		.type	Disconnect_Contact_From_Intermediate, %function
 1198              	Disconnect_Contact_From_Intermediate:
 1199              	.LFB75:
 158:main.c        **** 	contact--;
 1200              		.loc 2 158 0
 1201              		.cfi_startproc
 1202              		@ args = 0, pretend = 0, frame = 0
 1203              		@ frame_needed = 0, uses_anonymous_args = 0
 1204              	.LVL131:
 1205 0000 08B5     		push	{r3, lr}
 1206              		.cfi_def_cfa_offset 8
 1207              		.cfi_offset 3, -8
 1208              		.cfi_offset 14, -4
 159:main.c        **** 	intermediate--;
 1209              		.loc 2 159 0
 1210 0002 0138     		subs	r0, r0, #1
 1211              	.LVL132:
 1212 0004 C3B2     		uxtb	r3, r0
 1213              	.LVL133:
 162:main.c        **** 	if (intermediate >= INTERMEDIATE_COUNT) return;
 1214              		.loc 2 162 0
 1215 0006 3F2B     		cmp	r3, #63
 1216 0008 16D8     		bhi	.L93
 1217 000a 0139     		subs	r1, r1, #1
 1218              	.LVL134:
 1219 000c C8B2     		uxtb	r0, r1
 163:main.c        **** 	
 1220              		.loc 2 163 0
 1221 000e 0328     		cmp	r0, #3
 1222 0010 12D8     		bhi	.L93
 1223              	.LVL135:
 166:main.c        **** 		offset = CONTACT_COUNT/2;
 1224              		.loc 2 166 0
 1225 0012 0128     		cmp	r0, #1
 1226 0014 03D9     		bls	.L95
 1227              	.LVL136:
 168:main.c        **** 	} else {
 1228              		.loc 2 168 0
 1229 0016 1F2B     		cmp	r3, #31
 1230 0018 0ED9     		bls	.L93
 167:main.c        **** 		if (contact < CONTACT_COUNT/2) return;
 1231              		.loc 2 167 0
 1232 001a 2022     		movs	r2, #32
 1233 001c 02E0     		b	.L96
 1234              	.LVL137:
 1235              	.L95:
 170:main.c        **** 	}
 1236              		.loc 2 170 0
 1237 001e 1F2B     		cmp	r3, #31
 1238 0020 0AD8     		bhi	.L93
 165:main.c        **** 	if (intermediate >= INTERMEDIATE_COUNT/2) {
 1239              		.loc 2 165 0
 1240 0022 0022     		movs	r2, #0
 1241              	.LVL138:
 1242              	.L96:
 173:main.c        **** 	
 1243              		.loc 2 173 0
ARM GAS  C:\Users\FRANKL~1\AppData\Local\Temp\ccebBo1q.s 			page 44


 1244 0024 9B1A     		subs	r3, r3, r2
 1245              	.LVL139:
 1246 0026 C0EB0022 		rsb	r2, r0, r0, lsl #8
 1247              	.LVL140:
 1248 002a 0449     		ldr	r1, .L98
 1249 002c 0A44     		add	r2, r2, r1
 1250 002e 1344     		add	r3, r3, r2
 1251 0030 D122     		movs	r2, #209
 1252 0032 5A70     		strb	r2, [r3, #1]
 175:main.c        **** }
 1253              		.loc 2 175 0
 1254 0034 FFF7FEFF 		bl	Update_Selector
 1255              	.LVL141:
 1256              	.L93:
 1257 0038 08BD     		pop	{r3, pc}
 1258              	.L99:
 1259 003a 00BF     		.align	2
 1260              	.L98:
 1261 003c 00000000 		.word	selectors
 1262              		.cfi_endproc
 1263              	.LFE75:
 1264              		.size	Disconnect_Contact_From_Intermediate, .-Disconnect_Contact_From_Intermediate
 1265              		.section	.text.Disconnect_Contact_From_All_Intermediates,"ax",%progbits
 1266              		.align	2
 1267              		.global	Disconnect_Contact_From_All_Intermediates
 1268              		.thumb
 1269              		.thumb_func
 1270              		.type	Disconnect_Contact_From_All_Intermediates, %function
 1271              	Disconnect_Contact_From_All_Intermediates:
 1272              	.LFB76:
 178:main.c        **** 	contact--;
 1273              		.loc 2 178 0
 1274              		.cfi_startproc
 1275              		@ args = 0, pretend = 0, frame = 0
 1276              		@ frame_needed = 0, uses_anonymous_args = 0
 1277              	.LVL142:
 1278 0000 38B5     		push	{r3, r4, r5, lr}
 1279              		.cfi_def_cfa_offset 16
 1280              		.cfi_offset 3, -16
 1281              		.cfi_offset 4, -12
 1282              		.cfi_offset 5, -8
 1283              		.cfi_offset 14, -4
 179:main.c        **** 	
 1284              		.loc 2 179 0
 1285 0002 0138     		subs	r0, r0, #1
 1286              	.LVL143:
 1287 0004 C5B2     		uxtb	r5, r0
 1288              	.LVL144:
 1289              	.LBB14:
 181:main.c        **** 		
 1290              		.loc 2 181 0
 1291 0006 0024     		movs	r4, #0
 1292 0008 15E0     		b	.L101
 1293              	.LVL145:
 1294              	.L105:
 1295              	.LBB15:
 184:main.c        **** 			offset = CONTACT_COUNT/2;
ARM GAS  C:\Users\FRANKL~1\AppData\Local\Temp\ccebBo1q.s 			page 45


 1296              		.loc 2 184 0
 1297 000a 012C     		cmp	r4, #1
 1298 000c 03D9     		bls	.L102
 1299              	.LVL146:
 186:main.c        **** 		} else {
 1300              		.loc 2 186 0
 1301 000e 1F2D     		cmp	r5, #31
 1302 0010 0FD9     		bls	.L103
 185:main.c        **** 			if (contact < CONTACT_COUNT/2) continue;
 1303              		.loc 2 185 0
 1304 0012 2023     		movs	r3, #32
 1305 0014 02E0     		b	.L104
 1306              	.LVL147:
 1307              	.L102:
 188:main.c        **** 		}
 1308              		.loc 2 188 0
 1309 0016 1F2D     		cmp	r5, #31
 1310 0018 0BD8     		bhi	.L103
 183:main.c        **** 		if (intermediate >= INTERMEDIATE_COUNT/2) {
 1311              		.loc 2 183 0
 1312 001a 0023     		movs	r3, #0
 1313              	.LVL148:
 1314              	.L104:
 191:main.c        **** 		
 1315              		.loc 2 191 0
 1316 001c EA1A     		subs	r2, r5, r3
 1317 001e C4EB0423 		rsb	r3, r4, r4, lsl #8
 1318              	.LVL149:
 1319 0022 0649     		ldr	r1, .L107
 1320 0024 0B44     		add	r3, r3, r1
 1321 0026 1344     		add	r3, r3, r2
 1322 0028 D122     		movs	r2, #209
 1323 002a 5A70     		strb	r2, [r3, #1]
 193:main.c        **** 	}
 1324              		.loc 2 193 0
 1325 002c 2046     		mov	r0, r4
 1326 002e FFF7FEFF 		bl	Update_Selector
 1327              	.LVL150:
 1328              	.L103:
 1329              	.LBE15:
 181:main.c        **** 		
 1330              		.loc 2 181 0 discriminator 2
 1331 0032 0134     		adds	r4, r4, #1
 1332              	.LVL151:
 1333 0034 E4B2     		uxtb	r4, r4
 1334              	.LVL152:
 1335              	.L101:
 181:main.c        **** 		
 1336              		.loc 2 181 0 is_stmt 0 discriminator 1
 1337 0036 032C     		cmp	r4, #3
 1338 0038 E7D9     		bls	.L105
 1339              	.LBE14:
 195:main.c        **** 
 1340              		.loc 2 195 0 is_stmt 1
 1341 003a 38BD     		pop	{r3, r4, r5, pc}
 1342              	.LVL153:
 1343              	.L108:
ARM GAS  C:\Users\FRANKL~1\AppData\Local\Temp\ccebBo1q.s 			page 46


 1344              		.align	2
 1345              	.L107:
 1346 003c 00000000 		.word	selectors
 1347              		.cfi_endproc
 1348              	.LFE76:
 1349              		.size	Disconnect_Contact_From_All_Intermediates, .-Disconnect_Contact_From_All_Intermediates
 1350              		.section	.text.Disconnect_All_Contacts_From_All_Intermediates,"ax",%progbits
 1351              		.align	2
 1352              		.global	Disconnect_All_Contacts_From_All_Intermediates
 1353              		.thumb
 1354              		.thumb_func
 1355              		.type	Disconnect_All_Contacts_From_All_Intermediates, %function
 1356              	Disconnect_All_Contacts_From_All_Intermediates:
 1357              	.LFB77:
 197:main.c        **** 	for (uint8 intermediate = 0; intermediate < INTERMEDIATE_COUNT/*/2*/; intermediate++) {
 1358              		.loc 2 197 0
 1359              		.cfi_startproc
 1360              		@ args = 0, pretend = 0, frame = 0
 1361              		@ frame_needed = 0, uses_anonymous_args = 0
 1362 0000 10B5     		push	{r4, lr}
 1363              		.cfi_def_cfa_offset 8
 1364              		.cfi_offset 4, -8
 1365              		.cfi_offset 14, -4
 1366              	.LVL154:
 1367              	.LBB16:
 198:main.c        **** 		for (uint8 contact = 0; contact < CONTACT_COUNT/2; contact++) {
 1368              		.loc 2 198 0
 1369 0002 0024     		movs	r4, #0
 1370 0004 11E0     		b	.L110
 1371              	.LVL155:
 1372              	.L111:
 1373              	.LBB17:
 200:main.c        **** 		}
 1374              		.loc 2 200 0 discriminator 3
 1375 0006 C4EB0422 		rsb	r2, r4, r4, lsl #8
 1376 000a 0949     		ldr	r1, .L115
 1377 000c 0A44     		add	r2, r2, r1
 1378 000e 1A44     		add	r2, r2, r3
 1379 0010 D121     		movs	r1, #209
 1380 0012 5170     		strb	r1, [r2, #1]
 199:main.c        **** 			selectors[intermediate].write.data[contact] = CONTACT_DISCONNECT_CODE;
 1381              		.loc 2 199 0 discriminator 3
 1382 0014 0133     		adds	r3, r3, #1
 1383              	.LVL156:
 1384 0016 DBB2     		uxtb	r3, r3
 1385              	.LVL157:
 1386 0018 00E0     		b	.L112
 1387              	.LVL158:
 1388              	.L113:
 1389              	.LBE17:
 1390 001a 0023     		movs	r3, #0
 1391              	.L112:
 1392              	.LVL159:
 1393              	.LBB18:
 199:main.c        **** 			selectors[intermediate].write.data[contact] = CONTACT_DISCONNECT_CODE;
 1394              		.loc 2 199 0 is_stmt 0 discriminator 1
 1395 001c 1F2B     		cmp	r3, #31
ARM GAS  C:\Users\FRANKL~1\AppData\Local\Temp\ccebBo1q.s 			page 47


 1396 001e F2D9     		bls	.L111
 1397              	.LBE18:
 203:main.c        **** 	}
 1398              		.loc 2 203 0 is_stmt 1 discriminator 2
 1399 0020 2046     		mov	r0, r4
 1400 0022 FFF7FEFF 		bl	Update_Selector
 1401              	.LVL160:
 198:main.c        **** 		for (uint8 contact = 0; contact < CONTACT_COUNT/2; contact++) {
 1402              		.loc 2 198 0 discriminator 2
 1403 0026 0134     		adds	r4, r4, #1
 1404              	.LVL161:
 1405 0028 E4B2     		uxtb	r4, r4
 1406              	.LVL162:
 1407              	.L110:
 198:main.c        **** 		for (uint8 contact = 0; contact < CONTACT_COUNT/2; contact++) {
 1408              		.loc 2 198 0 is_stmt 0 discriminator 1
 1409 002a 032C     		cmp	r4, #3
 1410 002c F5D9     		bls	.L113
 1411              	.LBE16:
 205:main.c        **** 
 1412              		.loc 2 205 0 is_stmt 1
 1413 002e 10BD     		pop	{r4, pc}
 1414              	.LVL163:
 1415              	.L116:
 1416              		.align	2
 1417              	.L115:
 1418 0030 00000000 		.word	selectors
 1419              		.cfi_endproc
 1420              	.LFE77:
 1421              		.size	Disconnect_All_Contacts_From_All_Intermediates, .-Disconnect_All_Contacts_From_All_Intermedi
 1422              		.section	.text.Disconnect_All_Contacts_From_Intermediate,"ax",%progbits
 1423              		.align	2
 1424              		.global	Disconnect_All_Contacts_From_Intermediate
 1425              		.thumb
 1426              		.thumb_func
 1427              		.type	Disconnect_All_Contacts_From_Intermediate, %function
 1428              	Disconnect_All_Contacts_From_Intermediate:
 1429              	.LFB78:
 207:main.c        **** 	intermediate--;
 1430              		.loc 2 207 0
 1431              		.cfi_startproc
 1432              		@ args = 0, pretend = 0, frame = 0
 1433              		@ frame_needed = 0, uses_anonymous_args = 0
 1434              	.LVL164:
 1435 0000 08B5     		push	{r3, lr}
 1436              		.cfi_def_cfa_offset 8
 1437              		.cfi_offset 3, -8
 1438              		.cfi_offset 14, -4
 208:main.c        **** 	
 1439              		.loc 2 208 0
 1440 0002 0138     		subs	r0, r0, #1
 1441              	.LVL165:
 1442 0004 C0B2     		uxtb	r0, r0
 1443              	.LVL166:
 1444              	.LBB19:
 210:main.c        **** 		selectors[intermediate].write.data[contact] = CONTACT_DISCONNECT_CODE;
 1445              		.loc 2 210 0
ARM GAS  C:\Users\FRANKL~1\AppData\Local\Temp\ccebBo1q.s 			page 48


 1446 0006 0023     		movs	r3, #0
 1447 0008 08E0     		b	.L118
 1448              	.LVL167:
 1449              	.L119:
 211:main.c        **** 	}
 1450              		.loc 2 211 0 discriminator 3
 1451 000a C0EB0022 		rsb	r2, r0, r0, lsl #8
 1452 000e 0649     		ldr	r1, .L121
 1453 0010 0A44     		add	r2, r2, r1
 1454 0012 1A44     		add	r2, r2, r3
 1455 0014 D121     		movs	r1, #209
 1456 0016 5170     		strb	r1, [r2, #1]
 210:main.c        **** 		selectors[intermediate].write.data[contact] = CONTACT_DISCONNECT_CODE;
 1457              		.loc 2 210 0 discriminator 3
 1458 0018 0133     		adds	r3, r3, #1
 1459              	.LVL168:
 1460 001a DBB2     		uxtb	r3, r3
 1461              	.LVL169:
 1462              	.L118:
 210:main.c        **** 		selectors[intermediate].write.data[contact] = CONTACT_DISCONNECT_CODE;
 1463              		.loc 2 210 0 is_stmt 0 discriminator 1
 1464 001c 1F2B     		cmp	r3, #31
 1465 001e F4D9     		bls	.L119
 1466              	.LBE19:
 214:main.c        **** }
 1467              		.loc 2 214 0 is_stmt 1
 1468 0020 FFF7FEFF 		bl	Update_Selector
 1469              	.LVL170:
 1470 0024 08BD     		pop	{r3, pc}
 1471              	.L122:
 1472 0026 00BF     		.align	2
 1473              	.L121:
 1474 0028 00000000 		.word	selectors
 1475              		.cfi_endproc
 1476              	.LFE78:
 1477              		.size	Disconnect_All_Contacts_From_Intermediate, .-Disconnect_All_Contacts_From_Intermediate
 1478              		.section	.text.Connect_Intermediate,"ax",%progbits
 1479              		.align	2
 1480              		.global	Connect_Intermediate
 1481              		.thumb
 1482              		.thumb_func
 1483              		.type	Connect_Intermediate, %function
 1484              	Connect_Intermediate:
 1485              	.LFB79:
 217:main.c        **** 	switch (intermediate) {
 1486              		.loc 2 217 0
 1487              		.cfi_startproc
 1488              		@ args = 0, pretend = 0, frame = 0
 1489              		@ frame_needed = 0, uses_anonymous_args = 0
 1490              	.LVL171:
 1491 0000 08B5     		push	{r3, lr}
 1492              		.cfi_def_cfa_offset 8
 1493              		.cfi_offset 3, -8
 1494              		.cfi_offset 14, -4
 218:main.c        **** 		case 1: Connect_Channel_On_Intermediate(33, 1); break;
 1495              		.loc 2 218 0
 1496 0002 0138     		subs	r0, r0, #1
ARM GAS  C:\Users\FRANKL~1\AppData\Local\Temp\ccebBo1q.s 			page 49


 1497              	.LVL172:
 1498 0004 0328     		cmp	r0, #3
 1499 0006 16D8     		bhi	.L123
 1500 0008 DFE800F0 		tbb	[pc, r0]
 1501              	.L126:
 1502 000c 02       		.byte	(.L125-.L126)/2
 1503 000d 07       		.byte	(.L127-.L126)/2
 1504 000e 0C       		.byte	(.L128-.L126)/2
 1505 000f 11       		.byte	(.L129-.L126)/2
 1506              		.p2align 1
 1507              	.L125:
 219:main.c        **** 		case 2: Connect_Channel_On_Intermediate(33, 2); break;
 1508              		.loc 2 219 0
 1509 0010 0121     		movs	r1, #1
 1510 0012 2120     		movs	r0, #33
 1511 0014 FFF7FEFF 		bl	Connect_Channel_On_Intermediate
 1512              	.LVL173:
 1513 0018 08BD     		pop	{r3, pc}
 1514              	.L127:
 220:main.c        **** 		case 3: Connect_Channel_On_Intermediate(33, 3); break;
 1515              		.loc 2 220 0
 1516 001a 0221     		movs	r1, #2
 1517 001c 2120     		movs	r0, #33
 1518 001e FFF7FEFF 		bl	Connect_Channel_On_Intermediate
 1519              	.LVL174:
 1520 0022 08BD     		pop	{r3, pc}
 1521              	.L128:
 221:main.c        **** 		case 4: Connect_Channel_On_Intermediate(33, 4); break;
 1522              		.loc 2 221 0
 1523 0024 0321     		movs	r1, #3
 1524 0026 2120     		movs	r0, #33
 1525 0028 FFF7FEFF 		bl	Connect_Channel_On_Intermediate
 1526              	.LVL175:
 1527 002c 08BD     		pop	{r3, pc}
 1528              	.L129:
 222:main.c        **** 		default: return;
 1529              		.loc 2 222 0
 1530 002e 0421     		movs	r1, #4
 1531 0030 2120     		movs	r0, #33
 1532 0032 FFF7FEFF 		bl	Connect_Channel_On_Intermediate
 1533              	.LVL176:
 1534              	.L123:
 1535 0036 08BD     		pop	{r3, pc}
 1536              		.cfi_endproc
 1537              	.LFE79:
 1538              		.size	Connect_Intermediate, .-Connect_Intermediate
 1539              		.section	.text.Connect_Intermediates,"ax",%progbits
 1540              		.align	2
 1541              		.global	Connect_Intermediates
 1542              		.thumb
 1543              		.thumb_func
 1544              		.type	Connect_Intermediates, %function
 1545              	Connect_Intermediates:
 1546              	.LFB80:
 227:main.c        **** 	for (uint8 i = 1; i <= INTERMEDIATE_COUNT/*/2*/; i++) {
 1547              		.loc 2 227 0
 1548              		.cfi_startproc
ARM GAS  C:\Users\FRANKL~1\AppData\Local\Temp\ccebBo1q.s 			page 50


 1549              		@ args = 0, pretend = 0, frame = 0
 1550              		@ frame_needed = 0, uses_anonymous_args = 0
 1551 0000 10B5     		push	{r4, lr}
 1552              		.cfi_def_cfa_offset 8
 1553              		.cfi_offset 4, -8
 1554              		.cfi_offset 14, -4
 1555              	.LVL177:
 1556              	.LBB20:
 228:main.c        **** 		Connect_Intermediate(i);
 1557              		.loc 2 228 0
 1558 0002 0124     		movs	r4, #1
 1559 0004 04E0     		b	.L132
 1560              	.LVL178:
 1561              	.L133:
 229:main.c        **** 	}
 1562              		.loc 2 229 0 discriminator 3
 1563 0006 2046     		mov	r0, r4
 1564 0008 FFF7FEFF 		bl	Connect_Intermediate
 1565              	.LVL179:
 228:main.c        **** 		Connect_Intermediate(i);
 1566              		.loc 2 228 0 discriminator 3
 1567 000c 0134     		adds	r4, r4, #1
 1568              	.LVL180:
 1569 000e E4B2     		uxtb	r4, r4
 1570              	.LVL181:
 1571              	.L132:
 228:main.c        **** 		Connect_Intermediate(i);
 1572              		.loc 2 228 0 is_stmt 0 discriminator 1
 1573 0010 042C     		cmp	r4, #4
 1574 0012 F8D9     		bls	.L133
 1575              	.LBE20:
 231:main.c        **** 
 1576              		.loc 2 231 0 is_stmt 1
 1577 0014 10BD     		pop	{r4, pc}
 1578              		.cfi_endproc
 1579              	.LFE80:
 1580              		.size	Connect_Intermediates, .-Connect_Intermediates
 1581 0016 00BF     		.section	.text.TIA_Set_Resistor,"ax",%progbits
 1582              		.align	2
 1583              		.global	TIA_Set_Resistor
 1584              		.thumb
 1585              		.thumb_func
 1586              		.type	TIA_Set_Resistor, %function
 1587              	TIA_Set_Resistor:
 1588              	.LFB81:
 233:main.c        **** 	TIA_Selected_Resistor = resistor;
 1589              		.loc 2 233 0
 1590              		.cfi_startproc
 1591              		@ args = 0, pretend = 0, frame = 0
 1592              		@ frame_needed = 0, uses_anonymous_args = 0
 1593              	.LVL182:
 1594 0000 08B5     		push	{r3, lr}
 1595              		.cfi_def_cfa_offset 8
 1596              		.cfi_offset 3, -8
 1597              		.cfi_offset 14, -4
 234:main.c        **** 	TIA_1_SetResFB(TIA_Resistor_Codes[resistor]);
 1598              		.loc 2 234 0
ARM GAS  C:\Users\FRANKL~1\AppData\Local\Temp\ccebBo1q.s 			page 51


 1599 0002 034B     		ldr	r3, .L137
 1600 0004 1871     		strb	r0, [r3, #4]
 235:main.c        **** }
 1601              		.loc 2 235 0
 1602 0006 034B     		ldr	r3, .L137+4
 1603 0008 185C     		ldrb	r0, [r3, r0]	@ zero_extendqisi2
 1604              	.LVL183:
 1605 000a FFF7FEFF 		bl	TIA_1_SetResFB
 1606              	.LVL184:
 1607 000e 08BD     		pop	{r3, pc}
 1608              	.L138:
 1609              		.align	2
 1610              	.L137:
 1611 0010 00000000 		.word	.LANCHOR0
 1612 0014 00000000 		.word	.LANCHOR1
 1613              		.cfi_endproc
 1614              	.LFE81:
 1615              		.size	TIA_Set_Resistor, .-TIA_Set_Resistor
 1616              		.section	.text.ADC_Increase_Range,"ax",%progbits
 1617              		.align	2
 1618              		.global	ADC_Increase_Range
 1619              		.thumb
 1620              		.thumb_func
 1621              		.type	ADC_Increase_Range, %function
 1622              	ADC_Increase_Range:
 1623              	.LFB82:
 238:main.c        **** 	switch(TIA_Selected_Resistor) {
 1624              		.loc 2 238 0
 1625              		.cfi_startproc
 1626              		@ args = 0, pretend = 0, frame = 0
 1627              		@ frame_needed = 0, uses_anonymous_args = 0
 1628 0000 08B5     		push	{r3, lr}
 1629              		.cfi_def_cfa_offset 8
 1630              		.cfi_offset 3, -8
 1631              		.cfi_offset 14, -4
 239:main.c        **** 		case R20K: 	 break;
 1632              		.loc 2 239 0
 1633 0002 044B     		ldr	r3, .L143
 1634 0004 1B79     		ldrb	r3, [r3, #4]	@ zero_extendqisi2
 1635 0006 072B     		cmp	r3, #7
 1636 0008 02D1     		bne	.L139
 247:main.c        **** 		default: return;
 1637              		.loc 2 247 0
 1638 000a 0020     		movs	r0, #0
 1639 000c FFF7FEFF 		bl	TIA_Set_Resistor
 1640              	.LVL185:
 1641              	.L139:
 1642 0010 08BD     		pop	{r3, pc}
 1643              	.L144:
 1644 0012 00BF     		.align	2
 1645              	.L143:
 1646 0014 00000000 		.word	.LANCHOR0
 1647              		.cfi_endproc
 1648              	.LFE82:
 1649              		.size	ADC_Increase_Range, .-ADC_Increase_Range
 1650              		.section	.text.ADC_Decrease_Range,"ax",%progbits
 1651              		.align	2
ARM GAS  C:\Users\FRANKL~1\AppData\Local\Temp\ccebBo1q.s 			page 52


 1652              		.global	ADC_Decrease_Range
 1653              		.thumb
 1654              		.thumb_func
 1655              		.type	ADC_Decrease_Range, %function
 1656              	ADC_Decrease_Range:
 1657              	.LFB83:
 252:main.c        **** 	switch(TIA_Selected_Resistor) {
 1658              		.loc 2 252 0
 1659              		.cfi_startproc
 1660              		@ args = 0, pretend = 0, frame = 0
 1661              		@ frame_needed = 0, uses_anonymous_args = 0
 1662 0000 08B5     		push	{r3, lr}
 1663              		.cfi_def_cfa_offset 8
 1664              		.cfi_offset 3, -8
 1665              		.cfi_offset 14, -4
 253:main.c        **** 		case R20K: 	 TIA_Set_Resistor(R1000K); break;
 1666              		.loc 2 253 0
 1667 0002 034B     		ldr	r3, .L149
 1668 0004 1B79     		ldrb	r3, [r3, #4]	@ zero_extendqisi2
 1669 0006 13B9     		cbnz	r3, .L145
 254:main.c        **** 		//case R30K: 	 TIA_Set_Resistor(R40K); break;
 1670              		.loc 2 254 0
 1671 0008 0720     		movs	r0, #7
 1672 000a FFF7FEFF 		bl	TIA_Set_Resistor
 1673              	.LVL186:
 1674              	.L145:
 1675 000e 08BD     		pop	{r3, pc}
 1676              	.L150:
 1677              		.align	2
 1678              	.L149:
 1679 0010 00000000 		.word	.LANCHOR0
 1680              		.cfi_endproc
 1681              	.LFE83:
 1682              		.size	ADC_Decrease_Range, .-ADC_Decrease_Range
 1683              		.section	.text.sortArray,"ax",%progbits
 1684              		.align	2
 1685              		.global	sortArray
 1686              		.thumb
 1687              		.thumb_func
 1688              		.type	sortArray, %function
 1689              	sortArray:
 1690              	.LFB84:
 266:main.c        **** 	int32 temp;
 1691              		.loc 2 266 0
 1692              		.cfi_startproc
 1693              		@ args = 0, pretend = 0, frame = 0
 1694              		@ frame_needed = 0, uses_anonymous_args = 0
 1695              		@ link register save eliminated.
 1696              	.LVL187:
 1697 0000 70B4     		push	{r4, r5, r6}
 1698              		.cfi_def_cfa_offset 12
 1699              		.cfi_offset 4, -12
 1700              		.cfi_offset 5, -8
 1701              		.cfi_offset 6, -4
 1702              	.LVL188:
 1703              	.LBB21:
 269:main.c        **** 		for(uint32 j = i+1; j < size; j++) {
ARM GAS  C:\Users\FRANKL~1\AppData\Local\Temp\ccebBo1q.s 			page 53


 1704              		.loc 2 269 0
 1705 0002 0025     		movs	r5, #0
 1706 0004 10E0     		b	.L152
 1707              	.LVL189:
 1708              	.L156:
 1709              	.LBB22:
 270:main.c        **** 			if(array[j] < array[i]) {
 1710              		.loc 2 270 0
 1711 0006 6E1C     		adds	r6, r5, #1
 1712              	.LVL190:
 1713 0008 3346     		mov	r3, r6
 1714 000a 0AE0     		b	.L153
 1715              	.LVL191:
 1716              	.L155:
 271:main.c        **** 				// swap elements
 1717              		.loc 2 271 0
 1718 000c 50F82340 		ldr	r4, [r0, r3, lsl #2]
 1719 0010 50F82520 		ldr	r2, [r0, r5, lsl #2]
 1720 0014 9442     		cmp	r4, r2
 1721 0016 03DA     		bge	.L154
 1722              	.LVL192:
 274:main.c        **** 				array[j] = temp;
 1723              		.loc 2 274 0
 1724 0018 40F82540 		str	r4, [r0, r5, lsl #2]
 275:main.c        **** 			}
 1725              		.loc 2 275 0
 1726 001c 40F82320 		str	r2, [r0, r3, lsl #2]
 1727              	.LVL193:
 1728              	.L154:
 270:main.c        **** 			if(array[j] < array[i]) {
 1729              		.loc 2 270 0 discriminator 2
 1730 0020 0133     		adds	r3, r3, #1
 1731              	.LVL194:
 1732              	.L153:
 270:main.c        **** 			if(array[j] < array[i]) {
 1733              		.loc 2 270 0 is_stmt 0 discriminator 1
 1734 0022 8B42     		cmp	r3, r1
 1735 0024 F2D3     		bcc	.L155
 1736              	.LBE22:
 269:main.c        **** 		for(uint32 j = i+1; j < size; j++) {
 1737              		.loc 2 269 0 is_stmt 1
 1738 0026 3546     		mov	r5, r6
 1739              	.LVL195:
 1740              	.L152:
 269:main.c        **** 		for(uint32 j = i+1; j < size; j++) {
 1741              		.loc 2 269 0 is_stmt 0 discriminator 1
 1742 0028 4B1E     		subs	r3, r1, #1
 1743 002a 9D42     		cmp	r5, r3
 1744 002c EBD3     		bcc	.L156
 1745              	.LBE21:
 279:main.c        **** 
 1746              		.loc 2 279 0 is_stmt 1
 1747 002e 70BC     		pop	{r4, r5, r6}
 1748              		.cfi_restore 6
 1749              		.cfi_restore 5
 1750              		.cfi_restore 4
 1751              		.cfi_def_cfa_offset 0
ARM GAS  C:\Users\FRANKL~1\AppData\Local\Temp\ccebBo1q.s 			page 54


 1752              	.LVL196:
 1753 0030 7047     		bx	lr
 1754              		.cfi_endproc
 1755              	.LFE84:
 1756              		.size	sortArray, .-sortArray
 1757 0032 00BF     		.section	.text.medianOfArray,"ax",%progbits
 1758              		.align	2
 1759              		.global	medianOfArray
 1760              		.thumb
 1761              		.thumb_func
 1762              		.type	medianOfArray, %function
 1763              	medianOfArray:
 1764              	.LFB85:
 281:main.c        **** 	sortArray(array, size);
 1765              		.loc 2 281 0
 1766              		.cfi_startproc
 1767              		@ args = 0, pretend = 0, frame = 0
 1768              		@ frame_needed = 0, uses_anonymous_args = 0
 1769              	.LVL197:
 1770 0000 38B5     		push	{r3, r4, r5, lr}
 1771              		.cfi_def_cfa_offset 16
 1772              		.cfi_offset 3, -16
 1773              		.cfi_offset 4, -12
 1774              		.cfi_offset 5, -8
 1775              		.cfi_offset 14, -4
 1776 0002 0546     		mov	r5, r0
 1777 0004 0C46     		mov	r4, r1
 282:main.c        **** 	
 1778              		.loc 2 282 0
 1779 0006 FFF7FEFF 		bl	sortArray
 1780              	.LVL198:
 284:main.c        **** 		// if size is even, return the mean of middle elements
 1781              		.loc 2 284 0
 1782 000a 14F0010F 		tst	r4, #1
 1783 000e 0CD1     		bne	.L159
 286:main.c        **** 	} else {
 1784              		.loc 2 286 0
 1785 0010 6408     		lsrs	r4, r4, #1
 1786              	.LVL199:
 1787 0012 55F82400 		ldr	r0, [r5, r4, lsl #2]
 1788 0016 04F18044 		add	r4, r4, #1073741824
 1789 001a 013C     		subs	r4, r4, #1
 1790 001c 55F82430 		ldr	r3, [r5, r4, lsl #2]
 1791 0020 1844     		add	r0, r0, r3
 1792 0022 00EBD070 		add	r0, r0, r0, lsr #31
 1793 0026 4010     		asrs	r0, r0, #1
 1794 0028 38BD     		pop	{r3, r4, r5, pc}
 1795              	.LVL200:
 1796              	.L159:
 289:main.c        **** 	}
 1797              		.loc 2 289 0
 1798 002a 6408     		lsrs	r4, r4, #1
 1799              	.LVL201:
 1800 002c 55F82400 		ldr	r0, [r5, r4, lsl #2]
 291:main.c        **** 
 1801              		.loc 2 291 0
 1802 0030 38BD     		pop	{r3, r4, r5, pc}
ARM GAS  C:\Users\FRANKL~1\AppData\Local\Temp\ccebBo1q.s 			page 55


 1803              		.cfi_endproc
 1804              	.LFE85:
 1805              		.size	medianOfArray, .-medianOfArray
 1806              		.global	__aeabi_ui2f
 1807              		.global	__aeabi_fdiv
 1808              		.global	__aeabi_i2f
 1809              		.global	__aeabi_fmul
 1810              		.global	__aeabi_fadd
 1811              		.global	__aeabi_f2iz
 1812              		.global	__aeabi_fsub
 1813 0032 00BF     		.section	.text.ADC_Measure_uV,"ax",%progbits
 1814              		.align	2
 1815              		.global	ADC_Measure_uV
 1816              		.thumb
 1817              		.thumb_func
 1818              		.type	ADC_Measure_uV, %function
 1819              	ADC_Measure_uV:
 1820              	.LFB86:
 294:main.c        **** 	int32 ADC_Result = 0;
 1821              		.loc 2 294 0
 1822              		.cfi_startproc
 1823              		@ args = 0, pretend = 0, frame = 24
 1824              		@ frame_needed = 1, uses_anonymous_args = 0
 1825              	.LVL202:
 1826 0000 2DE9F04F 		push	{r4, r5, r6, r7, r8, r9, r10, fp, lr}
 1827              		.cfi_def_cfa_offset 36
 1828              		.cfi_offset 4, -36
 1829              		.cfi_offset 5, -32
 1830              		.cfi_offset 6, -28
 1831              		.cfi_offset 7, -24
 1832              		.cfi_offset 8, -20
 1833              		.cfi_offset 9, -16
 1834              		.cfi_offset 10, -12
 1835              		.cfi_offset 11, -8
 1836              		.cfi_offset 14, -4
 1837 0004 87B0     		sub	sp, sp, #28
 1838              		.cfi_def_cfa_offset 64
 1839 0006 00AF     		add	r7, sp, #0
 1840              		.cfi_def_cfa_register 7
 1841 0008 B860     		str	r0, [r7, #8]
 1842 000a 7960     		str	r1, [r7, #4]
 1843              	.LVL203:
 299:main.c        **** 	
 1844              		.loc 2 299 0
 1845 000c 122A     		cmp	r2, #18
 1846 000e 01D9     		bls	.L168
 298:main.c        **** 	if (sampleCount < medianArraySize) medianArraySize = sampleCount;
 1847              		.loc 2 298 0
 1848 0010 1324     		movs	r4, #19
 1849 0012 00E0     		b	.L163
 1850              	.L168:
 299:main.c        **** 	
 1851              		.loc 2 299 0
 1852 0014 1446     		mov	r4, r2
 1853              	.L163:
 1854              	.LVL204:
 301:main.c        **** 	int32 medianArray[medianArraySize];
ARM GAS  C:\Users\FRANKL~1\AppData\Local\Temp\ccebBo1q.s 			page 56


 1855              		.loc 2 301 0
 1856 0016 B2FBF4FA 		udiv	r10, r2, r4
 1857              	.LVL205:
 302:main.c        **** 	
 1858              		.loc 2 302 0
 1859 001a A300     		lsls	r3, r4, #2
 1860 001c 0A33     		adds	r3, r3, #10
 1861 001e 23F00703 		bic	r3, r3, #7
 1862 0022 ADEB030D 		sub	sp, sp, r3
 1863 0026 6D46     		mov	r5, sp
 1864              	.LVL206:
 1865              	.LBB23:
 304:main.c        **** 		for (uint32 j = 0; j < medianArraySize; j++) {
 1866              		.loc 2 304 0
 1867 0028 0126     		movs	r6, #1
 1868              	.LBE23:
 296:main.c        **** 	
 1869              		.loc 2 296 0
 1870 002a 0023     		movs	r3, #0
 1871 002c 7B61     		str	r3, [r7, #20]
 295:main.c        **** 	int32 ADC_SD = 0;
 1872              		.loc 2 295 0
 1873 002e 9B46     		mov	fp, r3
 1874              	.LBB28:
 304:main.c        **** 		for (uint32 j = 0; j < medianArraySize; j++) {
 1875              		.loc 2 304 0
 1876 0030 53E0     		b	.L164
 1877              	.LVL207:
 1878              	.L166:
 1879              	.LBB24:
 1880              	.LBB25:
 306:main.c        **** 			while (!ADC_DelSig_1_IsEndConversion(ADC_DelSig_1_RETURN_STATUS));
 1881              		.loc 2 306 0
 1882 0032 FFF7FEFF 		bl	ADC_DelSig_1_StartConvert
 1883              	.LVL208:
 1884              	.L165:
 307:main.c        **** 			//int16 ADC_Result = ADC_DelSig_1_CountsTo_mVolts(ADC_DelSig_1_GetResult16());
 1885              		.loc 2 307 0 discriminator 1
 1886 0036 0120     		movs	r0, #1
 1887 0038 FFF7FEFF 		bl	ADC_DelSig_1_IsEndConversion
 1888              	.LVL209:
 1889 003c 0028     		cmp	r0, #0
 1890 003e FAD0     		beq	.L165
 309:main.c        **** 		}
 1891              		.loc 2 309 0 discriminator 2
 1892 0040 FFF7FEFF 		bl	ADC_DelSig_1_GetResult32
 1893              	.LVL210:
 1894 0044 FFF7FEFF 		bl	ADC_DelSig_1_CountsTo_uVolts
 1895              	.LVL211:
 1896 0048 45F82800 		str	r0, [r5, r8, lsl #2]
 305:main.c        **** 			ADC_DelSig_1_StartConvert();
 1897              		.loc 2 305 0 discriminator 2
 1898 004c 08F10108 		add	r8, r8, #1
 1899              	.LVL212:
 1900 0050 01E0     		b	.L167
 1901              	.LVL213:
 1902              	.L169:
ARM GAS  C:\Users\FRANKL~1\AppData\Local\Temp\ccebBo1q.s 			page 57


 1903              	.LBE25:
 1904              	.LBE24:
 1905 0052 4FF00008 		mov	r8, #0
 1906              	.L167:
 1907              	.LVL214:
 1908              	.LBB27:
 1909              	.LBB26:
 305:main.c        **** 			ADC_DelSig_1_StartConvert();
 1910              		.loc 2 305 0 is_stmt 0 discriminator 1
 1911 0056 4445     		cmp	r4, r8
 1912 0058 EBD8     		bhi	.L166
 1913              	.LBE26:
 312:main.c        **** 		
 1914              		.loc 2 312 0 is_stmt 1 discriminator 2
 1915 005a 2146     		mov	r1, r4
 1916 005c 2846     		mov	r0, r5
 1917 005e FFF7FEFF 		bl	medianOfArray
 1918              	.LVL215:
 1919 0062 8046     		mov	r8, r0
 1920              	.LVL216:
 314:main.c        **** 		ADC_Result += ((float)ADC_Result_Current - (float)ADC_Result)/(float)i;
 1921              		.loc 2 314 0 discriminator 2
 1922 0064 701E     		subs	r0, r6, #1
 1923              	.LVL217:
 1924 0066 FFF7FEFF 		bl	__aeabi_ui2f
 1925              	.LVL218:
 1926 006a 8146     		mov	r9, r0
 1927 006c 3046     		mov	r0, r6
 1928 006e FFF7FEFF 		bl	__aeabi_ui2f
 1929              	.LVL219:
 1930 0072 3861     		str	r0, [r7, #16]	@ float
 1931 0074 0146     		mov	r1, r0
 1932 0076 4846     		mov	r0, r9
 1933 0078 FFF7FEFF 		bl	__aeabi_fdiv
 1934              	.LVL220:
 1935 007c F860     		str	r0, [r7, #12]	@ float
 1936 007e CBEB0800 		rsb	r0, fp, r8
 1937 0082 FFF7FEFF 		bl	__aeabi_i2f
 1938              	.LVL221:
 1939 0086 8146     		mov	r9, r0
 1940 0088 0146     		mov	r1, r0
 1941 008a F868     		ldr	r0, [r7, #12]	@ float
 1942 008c FFF7FEFF 		bl	__aeabi_fmul
 1943              	.LVL222:
 1944 0090 0146     		mov	r1, r0
 1945 0092 4846     		mov	r0, r9
 1946 0094 FFF7FEFF 		bl	__aeabi_fmul
 1947              	.LVL223:
 1948 0098 8146     		mov	r9, r0
 1949 009a 7869     		ldr	r0, [r7, #20]
 1950 009c FFF7FEFF 		bl	__aeabi_i2f
 1951              	.LVL224:
 1952 00a0 4946     		mov	r1, r9
 1953 00a2 FFF7FEFF 		bl	__aeabi_fadd
 1954              	.LVL225:
 1955 00a6 FFF7FEFF 		bl	__aeabi_f2iz
 1956              	.LVL226:
ARM GAS  C:\Users\FRANKL~1\AppData\Local\Temp\ccebBo1q.s 			page 58


 1957 00aa 7861     		str	r0, [r7, #20]
 1958              	.LVL227:
 315:main.c        **** 	}
 1959              		.loc 2 315 0 discriminator 2
 1960 00ac 4046     		mov	r0, r8
 1961              	.LVL228:
 1962 00ae FFF7FEFF 		bl	__aeabi_i2f
 1963              	.LVL229:
 1964 00b2 8046     		mov	r8, r0
 1965              	.LVL230:
 1966 00b4 5846     		mov	r0, fp
 1967 00b6 FFF7FEFF 		bl	__aeabi_i2f
 1968              	.LVL231:
 1969 00ba 8146     		mov	r9, r0
 1970 00bc 0146     		mov	r1, r0
 1971 00be 4046     		mov	r0, r8
 1972 00c0 FFF7FEFF 		bl	__aeabi_fsub
 1973              	.LVL232:
 1974 00c4 3969     		ldr	r1, [r7, #16]	@ float
 1975 00c6 FFF7FEFF 		bl	__aeabi_fdiv
 1976              	.LVL233:
 1977 00ca 0146     		mov	r1, r0
 1978 00cc 4846     		mov	r0, r9
 1979 00ce FFF7FEFF 		bl	__aeabi_fadd
 1980              	.LVL234:
 1981 00d2 FFF7FEFF 		bl	__aeabi_f2iz
 1982              	.LVL235:
 1983 00d6 8346     		mov	fp, r0
 1984              	.LVL236:
 1985              	.LBE27:
 304:main.c        **** 		for (uint32 j = 0; j < medianArraySize; j++) {
 1986              		.loc 2 304 0 discriminator 2
 1987 00d8 0136     		adds	r6, r6, #1
 1988              	.LVL237:
 1989              	.L164:
 304:main.c        **** 		for (uint32 j = 0; j < medianArraySize; j++) {
 1990              		.loc 2 304 0 is_stmt 0 discriminator 1
 1991 00da 5645     		cmp	r6, r10
 1992 00dc B9D9     		bls	.L169
 1993              	.LBE28:
 318:main.c        **** 	*standardDeviation = ADC_SD;
 1994              		.loc 2 318 0 is_stmt 1
 1995 00de BB68     		ldr	r3, [r7, #8]
 1996 00e0 C3F800B0 		str	fp, [r3]
 319:main.c        **** }
 1997              		.loc 2 319 0
 1998 00e4 7B68     		ldr	r3, [r7, #4]
 1999 00e6 1A46     		mov	r2, r3
 2000 00e8 7B69     		ldr	r3, [r7, #20]
 2001 00ea 1360     		str	r3, [r2]
 320:main.c        **** 
 2002              		.loc 2 320 0
 2003 00ec 1C37     		adds	r7, r7, #28
 2004              		.cfi_def_cfa_offset 36
 2005              	.LVL238:
 2006 00ee BD46     		mov	sp, r7
 2007              		.cfi_def_cfa_register 13
ARM GAS  C:\Users\FRANKL~1\AppData\Local\Temp\ccebBo1q.s 			page 59


 2008              		@ sp needed
 2009 00f0 BDE8F08F 		pop	{r4, r5, r6, r7, r8, r9, r10, fp, pc}
 2010              		.cfi_endproc
 2011              	.LFE86:
 2012              		.size	ADC_Measure_uV, .-ADC_Measure_uV
 2013              		.section	.text.ADC_Adjust_Range,"ax",%progbits
 2014              		.align	2
 2015              		.global	ADC_Adjust_Range
 2016              		.thumb
 2017              		.thumb_func
 2018              		.type	ADC_Adjust_Range, %function
 2019              	ADC_Adjust_Range:
 2020              	.LFB87:
 322:main.c        **** 	int32 ADC_Voltage = 0;
 2021              		.loc 2 322 0
 2022              		.cfi_startproc
 2023              		@ args = 0, pretend = 0, frame = 8
 2024              		@ frame_needed = 0, uses_anonymous_args = 0
 2025              	.LVL239:
 2026 0000 00B5     		push	{lr}
 2027              		.cfi_def_cfa_offset 4
 2028              		.cfi_offset 14, -4
 2029 0002 83B0     		sub	sp, sp, #12
 2030              		.cfi_def_cfa_offset 16
 323:main.c        **** 	int32 ADC_Voltage_SD = 0;
 2031              		.loc 2 323 0
 2032 0004 0023     		movs	r3, #0
 2033 0006 0193     		str	r3, [sp, #4]
 324:main.c        **** 	
 2034              		.loc 2 324 0
 2035 0008 02A9     		add	r1, sp, #8
 2036 000a 41F8083D 		str	r3, [r1, #-8]!
 326:main.c        **** 	
 2037              		.loc 2 326 0
 2038 000e 0246     		mov	r2, r0
 2039 0010 01A8     		add	r0, sp, #4
 2040              	.LVL240:
 2041 0012 FFF7FEFF 		bl	ADC_Measure_uV
 2042              	.LVL241:
 328:main.c        **** 		ADC_Increase_Range();
 2043              		.loc 2 328 0
 2044 0016 019B     		ldr	r3, [sp, #4]
 2045 0018 83EAE371 		eor	r1, r3, r3, asr #31
 2046 001c A1EBE371 		sub	r1, r1, r3, asr #31
 2047 0020 0B4A     		ldr	r2, .L177
 2048 0022 9142     		cmp	r1, r2
 2049 0024 02DD     		ble	.L172
 329:main.c        **** 	} else if (abs(ADC_Voltage) < 10240) {
 2050              		.loc 2 329 0
 2051 0026 FFF7FEFF 		bl	ADC_Increase_Range
 2052              	.LVL242:
 2053 002a 08E0     		b	.L173
 2054              	.L172:
 330:main.c        **** 		ADC_Decrease_Range();
 2055              		.loc 2 330 0
 2056 002c 03F51F53 		add	r3, r3, #10176
 2057 0030 3F33     		adds	r3, r3, #63
ARM GAS  C:\Users\FRANKL~1\AppData\Local\Temp\ccebBo1q.s 			page 60


 2058 0032 44F6FE72 		movw	r2, #20478
 2059 0036 9342     		cmp	r3, r2
 2060 0038 06D8     		bhi	.L171
 331:main.c        **** 	} else {
 2061              		.loc 2 331 0
 2062 003a FFF7FEFF 		bl	ADC_Decrease_Range
 2063              	.LVL243:
 2064              	.L173:
 337:main.c        **** }
 2065              		.loc 2 337 0
 2066 003e 0522     		movs	r2, #5
 2067 0040 6946     		mov	r1, sp
 2068 0042 01A8     		add	r0, sp, #4
 2069 0044 FFF7FEFF 		bl	ADC_Measure_uV
 2070              	.LVL244:
 2071              	.L171:
 338:main.c        **** 
 2072              		.loc 2 338 0
 2073 0048 03B0     		add	sp, sp, #12
 2074              		.cfi_def_cfa_offset 4
 2075              		@ sp needed
 2076 004a 5DF804FB 		ldr	pc, [sp], #4
 2077              	.L178:
 2078 004e 00BF     		.align	2
 2079              	.L177:
 2080 0050 00480D00 		.word	870400
 2081              		.cfi_endproc
 2082              	.LFE87:
 2083              		.size	ADC_Adjust_Range, .-ADC_Adjust_Range
 2084              		.section	.text.SAR1_Measure_V,"ax",%progbits
 2085              		.align	2
 2086              		.global	SAR1_Measure_V
 2087              		.thumb
 2088              		.thumb_func
 2089              		.type	SAR1_Measure_V, %function
 2090              	SAR1_Measure_V:
 2091              	.LFB88:
 341:main.c        **** 	int32 SAR_Result = 0;
 2092              		.loc 2 341 0
 2093              		.cfi_startproc
 2094              		@ args = 0, pretend = 0, frame = 8
 2095              		@ frame_needed = 0, uses_anonymous_args = 0
 2096              	.LVL245:
 2097 0000 2DE9F04F 		push	{r4, r5, r6, r7, r8, r9, r10, fp, lr}
 2098              		.cfi_def_cfa_offset 36
 2099              		.cfi_offset 4, -36
 2100              		.cfi_offset 5, -32
 2101              		.cfi_offset 6, -28
 2102              		.cfi_offset 7, -24
 2103              		.cfi_offset 8, -20
 2104              		.cfi_offset 9, -16
 2105              		.cfi_offset 10, -12
 2106              		.cfi_offset 11, -8
 2107              		.cfi_offset 14, -4
 2108 0004 83B0     		sub	sp, sp, #12
 2109              		.cfi_def_cfa_offset 48
 2110 0006 0090     		str	r0, [sp]
ARM GAS  C:\Users\FRANKL~1\AppData\Local\Temp\ccebBo1q.s 			page 61


 2111 0008 0191     		str	r1, [sp, #4]
 2112 000a 9346     		mov	fp, r2
 2113              	.LVL246:
 2114              	.LBB29:
 345:main.c        **** 		ADC_SAR_1_StartConvert();
 2115              		.loc 2 345 0
 2116 000c 0124     		movs	r4, #1
 2117              	.LBE29:
 343:main.c        **** 	
 2118              		.loc 2 343 0
 2119 000e 4FF00009 		mov	r9, #0
 342:main.c        **** 	int32 SAR_SD = 0;
 2120              		.loc 2 342 0
 2121 0012 4D46     		mov	r5, r9
 2122              	.LBB31:
 345:main.c        **** 		ADC_SAR_1_StartConvert();
 2123              		.loc 2 345 0
 2124 0014 45E0     		b	.L180
 2125              	.LVL247:
 2126              	.L182:
 2127              	.LBB30:
 346:main.c        **** 		while (!ADC_SAR_1_IsEndConversion(ADC_SAR_1_RETURN_STATUS));
 2128              		.loc 2 346 0
 2129 0016 FFF7FEFF 		bl	ADC_SAR_1_StartConvert
 2130              	.LVL248:
 2131              	.L181:
 347:main.c        **** 		
 2132              		.loc 2 347 0 discriminator 1
 2133 001a 0120     		movs	r0, #1
 2134 001c FFF7FEFF 		bl	ADC_SAR_1_IsEndConversion
 2135              	.LVL249:
 2136 0020 0028     		cmp	r0, #0
 2137 0022 FAD0     		beq	.L181
 349:main.c        **** 		
 2138              		.loc 2 349 0 discriminator 2
 2139 0024 FFF7FEFF 		bl	ADC_SAR_1_GetResult16
 2140              	.LVL250:
 2141 0028 FFF7FEFF 		bl	ADC_SAR_1_CountsTo_uVolts
 2142              	.LVL251:
 2143 002c 0746     		mov	r7, r0
 2144              	.LVL252:
 351:main.c        **** 		SAR_Result += ((float)SAR1_Result_Current - (float)SAR_Result)/(float)i;
 2145              		.loc 2 351 0 discriminator 2
 2146 002e 601E     		subs	r0, r4, #1
 2147              	.LVL253:
 2148 0030 FFF7FEFF 		bl	__aeabi_ui2f
 2149              	.LVL254:
 2150 0034 8046     		mov	r8, r0
 2151 0036 2046     		mov	r0, r4
 2152 0038 FFF7FEFF 		bl	__aeabi_ui2f
 2153              	.LVL255:
 2154 003c 0646     		mov	r6, r0
 2155 003e 0146     		mov	r1, r0
 2156 0040 4046     		mov	r0, r8
 2157 0042 FFF7FEFF 		bl	__aeabi_fdiv
 2158              	.LVL256:
 2159 0046 8246     		mov	r10, r0
ARM GAS  C:\Users\FRANKL~1\AppData\Local\Temp\ccebBo1q.s 			page 62


 2160 0048 781B     		subs	r0, r7, r5
 2161 004a FFF7FEFF 		bl	__aeabi_i2f
 2162              	.LVL257:
 2163 004e 8046     		mov	r8, r0
 2164 0050 0146     		mov	r1, r0
 2165 0052 5046     		mov	r0, r10
 2166 0054 FFF7FEFF 		bl	__aeabi_fmul
 2167              	.LVL258:
 2168 0058 0146     		mov	r1, r0
 2169 005a 4046     		mov	r0, r8
 2170 005c FFF7FEFF 		bl	__aeabi_fmul
 2171              	.LVL259:
 2172 0060 8046     		mov	r8, r0
 2173 0062 4846     		mov	r0, r9
 2174 0064 FFF7FEFF 		bl	__aeabi_i2f
 2175              	.LVL260:
 2176 0068 4146     		mov	r1, r8
 2177 006a FFF7FEFF 		bl	__aeabi_fadd
 2178              	.LVL261:
 2179 006e FFF7FEFF 		bl	__aeabi_f2iz
 2180              	.LVL262:
 2181 0072 8146     		mov	r9, r0
 2182              	.LVL263:
 352:main.c        **** 	}
 2183              		.loc 2 352 0 discriminator 2
 2184 0074 3846     		mov	r0, r7
 2185              	.LVL264:
 2186 0076 FFF7FEFF 		bl	__aeabi_i2f
 2187              	.LVL265:
 2188 007a 0746     		mov	r7, r0
 2189              	.LVL266:
 2190 007c 2846     		mov	r0, r5
 2191 007e FFF7FEFF 		bl	__aeabi_i2f
 2192              	.LVL267:
 2193 0082 0546     		mov	r5, r0
 2194              	.LVL268:
 2195 0084 0146     		mov	r1, r0
 2196 0086 3846     		mov	r0, r7
 2197 0088 FFF7FEFF 		bl	__aeabi_fsub
 2198              	.LVL269:
 2199 008c 3146     		mov	r1, r6
 2200 008e FFF7FEFF 		bl	__aeabi_fdiv
 2201              	.LVL270:
 2202 0092 0146     		mov	r1, r0
 2203 0094 2846     		mov	r0, r5
 2204 0096 FFF7FEFF 		bl	__aeabi_fadd
 2205              	.LVL271:
 2206 009a FFF7FEFF 		bl	__aeabi_f2iz
 2207              	.LVL272:
 2208 009e 0546     		mov	r5, r0
 2209              	.LVL273:
 2210              	.LBE30:
 345:main.c        **** 		ADC_SAR_1_StartConvert();
 2211              		.loc 2 345 0 discriminator 2
 2212 00a0 0134     		adds	r4, r4, #1
 2213              	.LVL274:
 2214              	.L180:
ARM GAS  C:\Users\FRANKL~1\AppData\Local\Temp\ccebBo1q.s 			page 63


 345:main.c        **** 		ADC_SAR_1_StartConvert();
 2215              		.loc 2 345 0 is_stmt 0 discriminator 1
 2216 00a2 5C45     		cmp	r4, fp
 2217 00a4 B7D9     		bls	.L182
 2218              	.LBE31:
 355:main.c        **** 	*standardDeviation = SAR_SD;
 2219              		.loc 2 355 0 is_stmt 1
 2220 00a6 009B     		ldr	r3, [sp]
 2221 00a8 1D60     		str	r5, [r3]
 356:main.c        **** }
 2222              		.loc 2 356 0
 2223 00aa 019B     		ldr	r3, [sp, #4]
 2224 00ac C3F80090 		str	r9, [r3]
 357:main.c        **** 
 2225              		.loc 2 357 0
 2226 00b0 03B0     		add	sp, sp, #12
 2227              		.cfi_def_cfa_offset 36
 2228              	.LVL275:
 2229              		@ sp needed
 2230 00b2 BDE8F08F 		pop	{r4, r5, r6, r7, r8, r9, r10, fp, pc}
 2231              		.cfi_endproc
 2232              	.LFE88:
 2233              		.size	SAR1_Measure_V, .-SAR1_Measure_V
 2234 00b6 00BF     		.section	.text.SAR2_Measure_V,"ax",%progbits
 2235              		.align	2
 2236              		.global	SAR2_Measure_V
 2237              		.thumb
 2238              		.thumb_func
 2239              		.type	SAR2_Measure_V, %function
 2240              	SAR2_Measure_V:
 2241              	.LFB89:
 360:main.c        **** 	int32 SAR_Result = 0;
 2242              		.loc 2 360 0
 2243              		.cfi_startproc
 2244              		@ args = 0, pretend = 0, frame = 8
 2245              		@ frame_needed = 0, uses_anonymous_args = 0
 2246              	.LVL276:
 2247 0000 2DE9F04F 		push	{r4, r5, r6, r7, r8, r9, r10, fp, lr}
 2248              		.cfi_def_cfa_offset 36
 2249              		.cfi_offset 4, -36
 2250              		.cfi_offset 5, -32
 2251              		.cfi_offset 6, -28
 2252              		.cfi_offset 7, -24
 2253              		.cfi_offset 8, -20
 2254              		.cfi_offset 9, -16
 2255              		.cfi_offset 10, -12
 2256              		.cfi_offset 11, -8
 2257              		.cfi_offset 14, -4
 2258 0004 83B0     		sub	sp, sp, #12
 2259              		.cfi_def_cfa_offset 48
 2260 0006 0090     		str	r0, [sp]
 2261 0008 0191     		str	r1, [sp, #4]
 2262 000a 9346     		mov	fp, r2
 2263              	.LVL277:
 2264              	.LBB32:
 364:main.c        **** 		ADC_SAR_2_StartConvert();
 2265              		.loc 2 364 0
ARM GAS  C:\Users\FRANKL~1\AppData\Local\Temp\ccebBo1q.s 			page 64


 2266 000c 0124     		movs	r4, #1
 2267              	.LBE32:
 362:main.c        **** 	
 2268              		.loc 2 362 0
 2269 000e 4FF00009 		mov	r9, #0
 361:main.c        **** 	int32 SAR_SD = 0;
 2270              		.loc 2 361 0
 2271 0012 4D46     		mov	r5, r9
 2272              	.LBB34:
 364:main.c        **** 		ADC_SAR_2_StartConvert();
 2273              		.loc 2 364 0
 2274 0014 45E0     		b	.L185
 2275              	.LVL278:
 2276              	.L187:
 2277              	.LBB33:
 365:main.c        **** 		while (!ADC_SAR_2_IsEndConversion(ADC_SAR_2_RETURN_STATUS));
 2278              		.loc 2 365 0
 2279 0016 FFF7FEFF 		bl	ADC_SAR_2_StartConvert
 2280              	.LVL279:
 2281              	.L186:
 366:main.c        **** 		
 2282              		.loc 2 366 0 discriminator 1
 2283 001a 0120     		movs	r0, #1
 2284 001c FFF7FEFF 		bl	ADC_SAR_2_IsEndConversion
 2285              	.LVL280:
 2286 0020 0028     		cmp	r0, #0
 2287 0022 FAD0     		beq	.L186
 368:main.c        **** 		
 2288              		.loc 2 368 0 discriminator 2
 2289 0024 FFF7FEFF 		bl	ADC_SAR_2_GetResult16
 2290              	.LVL281:
 2291 0028 FFF7FEFF 		bl	ADC_SAR_2_CountsTo_uVolts
 2292              	.LVL282:
 2293 002c 0746     		mov	r7, r0
 2294              	.LVL283:
 370:main.c        **** 		SAR_Result += ((float)SAR2_Result_Current - (float)SAR_Result)/(float)i;
 2295              		.loc 2 370 0 discriminator 2
 2296 002e 601E     		subs	r0, r4, #1
 2297              	.LVL284:
 2298 0030 FFF7FEFF 		bl	__aeabi_ui2f
 2299              	.LVL285:
 2300 0034 8046     		mov	r8, r0
 2301 0036 2046     		mov	r0, r4
 2302 0038 FFF7FEFF 		bl	__aeabi_ui2f
 2303              	.LVL286:
 2304 003c 0646     		mov	r6, r0
 2305 003e 0146     		mov	r1, r0
 2306 0040 4046     		mov	r0, r8
 2307 0042 FFF7FEFF 		bl	__aeabi_fdiv
 2308              	.LVL287:
 2309 0046 8246     		mov	r10, r0
 2310 0048 781B     		subs	r0, r7, r5
 2311 004a FFF7FEFF 		bl	__aeabi_i2f
 2312              	.LVL288:
 2313 004e 8046     		mov	r8, r0
 2314 0050 0146     		mov	r1, r0
 2315 0052 5046     		mov	r0, r10
ARM GAS  C:\Users\FRANKL~1\AppData\Local\Temp\ccebBo1q.s 			page 65


 2316 0054 FFF7FEFF 		bl	__aeabi_fmul
 2317              	.LVL289:
 2318 0058 0146     		mov	r1, r0
 2319 005a 4046     		mov	r0, r8
 2320 005c FFF7FEFF 		bl	__aeabi_fmul
 2321              	.LVL290:
 2322 0060 8046     		mov	r8, r0
 2323 0062 4846     		mov	r0, r9
 2324 0064 FFF7FEFF 		bl	__aeabi_i2f
 2325              	.LVL291:
 2326 0068 4146     		mov	r1, r8
 2327 006a FFF7FEFF 		bl	__aeabi_fadd
 2328              	.LVL292:
 2329 006e FFF7FEFF 		bl	__aeabi_f2iz
 2330              	.LVL293:
 2331 0072 8146     		mov	r9, r0
 2332              	.LVL294:
 371:main.c        **** 	}
 2333              		.loc 2 371 0 discriminator 2
 2334 0074 3846     		mov	r0, r7
 2335              	.LVL295:
 2336 0076 FFF7FEFF 		bl	__aeabi_i2f
 2337              	.LVL296:
 2338 007a 0746     		mov	r7, r0
 2339              	.LVL297:
 2340 007c 2846     		mov	r0, r5
 2341 007e FFF7FEFF 		bl	__aeabi_i2f
 2342              	.LVL298:
 2343 0082 0546     		mov	r5, r0
 2344              	.LVL299:
 2345 0084 0146     		mov	r1, r0
 2346 0086 3846     		mov	r0, r7
 2347 0088 FFF7FEFF 		bl	__aeabi_fsub
 2348              	.LVL300:
 2349 008c 3146     		mov	r1, r6
 2350 008e FFF7FEFF 		bl	__aeabi_fdiv
 2351              	.LVL301:
 2352 0092 0146     		mov	r1, r0
 2353 0094 2846     		mov	r0, r5
 2354 0096 FFF7FEFF 		bl	__aeabi_fadd
 2355              	.LVL302:
 2356 009a FFF7FEFF 		bl	__aeabi_f2iz
 2357              	.LVL303:
 2358 009e 0546     		mov	r5, r0
 2359              	.LVL304:
 2360              	.LBE33:
 364:main.c        **** 		ADC_SAR_2_StartConvert();
 2361              		.loc 2 364 0 discriminator 2
 2362 00a0 0134     		adds	r4, r4, #1
 2363              	.LVL305:
 2364              	.L185:
 364:main.c        **** 		ADC_SAR_2_StartConvert();
 2365              		.loc 2 364 0 is_stmt 0 discriminator 1
 2366 00a2 5C45     		cmp	r4, fp
 2367 00a4 B7D9     		bls	.L187
 2368              	.LBE34:
 374:main.c        **** 	*standardDeviation = SAR_SD;
ARM GAS  C:\Users\FRANKL~1\AppData\Local\Temp\ccebBo1q.s 			page 66


 2369              		.loc 2 374 0 is_stmt 1
 2370 00a6 009B     		ldr	r3, [sp]
 2371 00a8 1D60     		str	r5, [r3]
 375:main.c        **** }
 2372              		.loc 2 375 0
 2373 00aa 019B     		ldr	r3, [sp, #4]
 2374 00ac C3F80090 		str	r9, [r3]
 376:main.c        **** 
 2375              		.loc 2 376 0
 2376 00b0 03B0     		add	sp, sp, #12
 2377              		.cfi_def_cfa_offset 36
 2378              	.LVL306:
 2379              		@ sp needed
 2380 00b2 BDE8F08F 		pop	{r4, r5, r6, r7, r8, r9, r10, fp, pc}
 2381              		.cfi_endproc
 2382              	.LFE89:
 2383              		.size	SAR2_Measure_V, .-SAR2_Measure_V
 2384              		.global	__aeabi_f2d
 2385              		.global	__aeabi_ddiv
 2386              		.global	__aeabi_d2f
 2387              		.global	__aeabi_dsub
 2388              		.global	__aeabi_dmul
 2389              		.global	__aeabi_dadd
 2390              		.global	__aeabi_i2d
 2391              		.global	__aeabi_dcmpgt
 2392 00b6 00BF     		.section	.text.Measure_Current_Vss,"ax",%progbits
 2393              		.align	2
 2394              		.global	Measure_Current_Vss
 2395              		.thumb
 2396              		.thumb_func
 2397              		.type	Measure_Current_Vss, %function
 2398              	Measure_Current_Vss:
 2399              	.LFB90:
 379:main.c        **** 	Compliance_Reached = 0;
 2400              		.loc 2 379 0
 2401              		.cfi_startproc
 2402              		@ args = 0, pretend = 0, frame = 40
 2403              		@ frame_needed = 0, uses_anonymous_args = 0
 2404              	.LVL307:
 2405 0000 2DE9F04F 		push	{r4, r5, r6, r7, r8, r9, r10, fp, lr}
 2406              		.cfi_def_cfa_offset 36
 2407              		.cfi_offset 4, -36
 2408              		.cfi_offset 5, -32
 2409              		.cfi_offset 6, -28
 2410              		.cfi_offset 7, -24
 2411              		.cfi_offset 8, -20
 2412              		.cfi_offset 9, -16
 2413              		.cfi_offset 10, -12
 2414              		.cfi_offset 11, -8
 2415              		.cfi_offset 14, -4
 2416 0004 8BB0     		sub	sp, sp, #44
 2417              		.cfi_def_cfa_offset 80
 2418 0006 0690     		str	r0, [sp, #24]
 2419 0008 0791     		str	r1, [sp, #28]
 2420 000a 9246     		mov	r10, r2
 2421 000c 1D46     		mov	r5, r3
 380:main.c        **** 		
ARM GAS  C:\Users\FRANKL~1\AppData\Local\Temp\ccebBo1q.s 			page 67


 2422              		.loc 2 380 0
 2423 000e 0026     		movs	r6, #0
 2424 0010 5B4B     		ldr	r3, .L201+16
 2425              	.LVL308:
 2426 0012 1E70     		strb	r6, [r3]
 383:main.c        **** 	
 2427              		.loc 2 383 0
 2428 0014 0320     		movs	r0, #3
 2429              	.LVL309:
 2430 0016 FFF7FEFF 		bl	ADC_Adjust_Range
 2431              	.LVL310:
 386:main.c        **** 	int32 ADC_Voltage_SD = 0;
 2432              		.loc 2 386 0
 2433 001a 0996     		str	r6, [sp, #36]
 387:main.c        **** 	
 2434              		.loc 2 387 0
 2435 001c 0AAC     		add	r4, sp, #40
 2436 001e 44F8086D 		str	r6, [r4, #-8]!
 2437              	.LVL311:
 394:main.c        **** 	int32 TIA_Offset_uV = TIA_Offsets_uV[TIA_Selected_Resistor];
 2438              		.loc 2 394 0
 2439 0022 5849     		ldr	r1, .L201+20
 2440 0024 0A79     		ldrb	r2, [r1, #4]	@ zero_extendqisi2
 2441 0026 9300     		lsls	r3, r2, #2
 2442 0028 574A     		ldr	r2, .L201+24
 2443 002a 1A44     		add	r2, r2, r3
 2444              	.LVL312:
 395:main.c        **** 	float unitConversion = -1.0e-6/TIA_Feedback_R;
 2445              		.loc 2 395 0
 2446 002c 0B44     		add	r3, r3, r1
 2447 002e D3F80890 		ldr	r9, [r3, #8]
 2448              	.LVL313:
 396:main.c        **** 	
 2449              		.loc 2 396 0
 2450 0032 9068     		ldr	r0, [r2, #8]	@ float
 2451 0034 FFF7FEFF 		bl	__aeabi_f2d
 2452              	.LVL314:
 2453 0038 0246     		mov	r2, r0
 2454 003a 0B46     		mov	r3, r1
 2455 003c 4CA1     		adr	r1, .L201
 2456 003e D1E90001 		ldrd	r0, [r1]
 2457 0042 FFF7FEFF 		bl	__aeabi_ddiv
 2458              	.LVL315:
 2459 0046 FFF7FEFF 		bl	__aeabi_d2f
 2460              	.LVL316:
 2461 004a 0590     		str	r0, [sp, #20]	@ float
 2462              	.LVL317:
 399:main.c        **** 	
 2463              		.loc 2 399 0
 2464 004c 0322     		movs	r2, #3
 2465 004e 2146     		mov	r1, r4
 2466 0050 09A8     		add	r0, sp, #36
 2467              	.LVL318:
 2468 0052 FFF7FEFF 		bl	ADC_Measure_uV
 2469              	.LVL319:
 402:main.c        **** 		for (uint32 i = 1; i <= sampleCount; i++) {
 2470              		.loc 2 402 0
ARM GAS  C:\Users\FRANKL~1\AppData\Local\Temp\ccebBo1q.s 			page 68


 2471 0056 002D     		cmp	r5, #0
 2472 0058 63D1     		bne	.L196
 2473 005a 69E0     		b	.L198
 2474              	.LVL320:
 2475              	.L195:
 2476              	.LBB35:
 404:main.c        **** 			
 2477              		.loc 2 404 0
 2478 005c 0122     		movs	r2, #1
 2479 005e 08A9     		add	r1, sp, #32
 2480 0060 09A8     		add	r0, sp, #36
 2481 0062 FFF7FEFF 		bl	ADC_Measure_uV
 2482              	.LVL321:
 406:main.c        **** 			
 2483              		.loc 2 406 0
 2484 0066 0998     		ldr	r0, [sp, #36]
 2485 0068 4844     		add	r0, r0, r9
 2486 006a FFF7FEFF 		bl	__aeabi_i2f
 2487              	.LVL322:
 2488 006e 0146     		mov	r1, r0
 2489 0070 0598     		ldr	r0, [sp, #20]	@ float
 2490 0072 FFF7FEFF 		bl	__aeabi_fmul
 2491              	.LVL323:
 2492 0076 0446     		mov	r4, r0
 2493              	.LVL324:
 408:main.c        **** 			currentAverage += (currentNow - currentAverage)/(float)i;
 2494              		.loc 2 408 0
 2495 0078 5846     		mov	r0, fp
 2496              	.LVL325:
 2497 007a FFF7FEFF 		bl	__aeabi_ui2f
 2498              	.LVL326:
 2499 007e 0190     		str	r0, [sp, #4]	@ float
 2500 0080 FFF7FEFF 		bl	__aeabi_f2d
 2501              	.LVL327:
 2502 0084 0646     		mov	r6, r0
 2503 0086 0F46     		mov	r7, r1
 2504 0088 0022     		movs	r2, #0
 2505 008a 404B     		ldr	r3, .L201+28
 2506 008c FFF7FEFF 		bl	__aeabi_dsub
 2507              	.LVL328:
 2508 0090 3246     		mov	r2, r6
 2509 0092 3B46     		mov	r3, r7
 2510 0094 FFF7FEFF 		bl	__aeabi_ddiv
 2511              	.LVL329:
 2512 0098 CDE90201 		strd	r0, [sp, #8]
 2513 009c 4146     		mov	r1, r8
 2514 009e 2046     		mov	r0, r4
 2515 00a0 FFF7FEFF 		bl	__aeabi_fsub
 2516              	.LVL330:
 2517 00a4 0490     		str	r0, [sp, #16]	@ float
 2518 00a6 FFF7FEFF 		bl	__aeabi_f2d
 2519              	.LVL331:
 2520 00aa 0646     		mov	r6, r0
 2521 00ac 0F46     		mov	r7, r1
 2522 00ae 0246     		mov	r2, r0
 2523 00b0 0B46     		mov	r3, r1
 2524 00b2 DDE90201 		ldrd	r0, [sp, #8]
ARM GAS  C:\Users\FRANKL~1\AppData\Local\Temp\ccebBo1q.s 			page 69


 2525 00b6 FFF7FEFF 		bl	__aeabi_dmul
 2526              	.LVL332:
 2527 00ba 0246     		mov	r2, r0
 2528 00bc 0B46     		mov	r3, r1
 2529 00be 3046     		mov	r0, r6
 2530 00c0 3946     		mov	r1, r7
 2531 00c2 FFF7FEFF 		bl	__aeabi_dmul
 2532              	.LVL333:
 2533 00c6 0646     		mov	r6, r0
 2534 00c8 0F46     		mov	r7, r1
 2535 00ca 2846     		mov	r0, r5
 2536 00cc FFF7FEFF 		bl	__aeabi_f2d
 2537              	.LVL334:
 2538 00d0 3246     		mov	r2, r6
 2539 00d2 3B46     		mov	r3, r7
 2540 00d4 FFF7FEFF 		bl	__aeabi_dadd
 2541              	.LVL335:
 2542 00d8 FFF7FEFF 		bl	__aeabi_d2f
 2543              	.LVL336:
 2544 00dc 0546     		mov	r5, r0
 2545              	.LVL337:
 409:main.c        **** 			
 2546              		.loc 2 409 0
 2547 00de 0199     		ldr	r1, [sp, #4]	@ float
 2548 00e0 0498     		ldr	r0, [sp, #16]	@ float
 2549              	.LVL338:
 2550 00e2 FFF7FEFF 		bl	__aeabi_fdiv
 2551              	.LVL339:
 2552 00e6 0146     		mov	r1, r0
 2553 00e8 4046     		mov	r0, r8
 2554 00ea FFF7FEFF 		bl	__aeabi_fadd
 2555              	.LVL340:
 2556 00ee 8046     		mov	r8, r0
 2557              	.LVL341:
 411:main.c        **** 				Compliance_Reached += 1;
 2558              		.loc 2 411 0
 2559 00f0 2046     		mov	r0, r4
 2560              	.LVL342:
 2561 00f2 FFF7FEFF 		bl	__aeabi_f2iz
 2562              	.LVL343:
 2563 00f6 0028     		cmp	r0, #0
 2564 00f8 B8BF     		it	lt
 2565 00fa 4042     		rsblt	r0, r0, #0
 2566 00fc FFF7FEFF 		bl	__aeabi_i2d
 2567              	.LVL344:
 2568 0100 1DA3     		adr	r3, .L201+8
 2569 0102 D3E90023 		ldrd	r2, [r3]
 2570 0106 FFF7FEFF 		bl	__aeabi_dcmpgt
 2571              	.LVL345:
 2572 010a 20B1     		cbz	r0, .L199
 412:main.c        **** 				break;
 2573              		.loc 2 412 0
 2574 010c 1C4A     		ldr	r2, .L201+16
 2575 010e 1378     		ldrb	r3, [r2]	@ zero_extendqisi2
 2576 0110 0133     		adds	r3, r3, #1
 2577 0112 1370     		strb	r3, [r2]
 413:main.c        **** 			} else {
ARM GAS  C:\Users\FRANKL~1\AppData\Local\Temp\ccebBo1q.s 			page 70


 2578              		.loc 2 413 0
 2579 0114 24E0     		b	.L194
 2580              	.L199:
 415:main.c        **** 			}
 2581              		.loc 2 415 0 discriminator 2
 2582 0116 0022     		movs	r2, #0
 2583 0118 194B     		ldr	r3, .L201+16
 2584 011a 1A70     		strb	r2, [r3]
 403:main.c        **** 			ADC_Measure_uV(&ADC_Voltage, &ADC_Voltage_SD, 1);
 2585              		.loc 2 403 0 discriminator 2
 2586 011c 0BF1010B 		add	fp, fp, #1
 2587              	.LVL346:
 2588 0120 03E0     		b	.L190
 2589              	.LVL347:
 2590              	.L196:
 2591              	.LBE35:
 2592 0122 4FF0010B 		mov	fp, #1
 2593 0126 0025     		movs	r5, #0
 2594 0128 A846     		mov	r8, r5
 2595              	.LVL348:
 2596              	.L190:
 2597              	.LBB36:
 403:main.c        **** 			ADC_Measure_uV(&ADC_Voltage, &ADC_Voltage_SD, 1);
 2598              		.loc 2 403 0 is_stmt 0 discriminator 1
 2599 012a D345     		cmp	fp, r10
 2600 012c 96D9     		bls	.L195
 2601 012e 17E0     		b	.L194
 2602              	.LVL349:
 2603              	.L198:
 2604              	.LBE36:
 419:main.c        **** 			
 2605              		.loc 2 419 0 is_stmt 1
 2606 0130 5246     		mov	r2, r10
 2607 0132 08A9     		add	r1, sp, #32
 2608 0134 09A8     		add	r0, sp, #36
 2609 0136 FFF7FEFF 		bl	ADC_Measure_uV
 2610              	.LVL350:
 421:main.c        **** 		currentStdDev = unitConversion * (ADC_Voltage_SD + TIA_Offset_uV);
 2611              		.loc 2 421 0
 2612 013a 0998     		ldr	r0, [sp, #36]
 2613 013c 4844     		add	r0, r0, r9
 2614 013e FFF7FEFF 		bl	__aeabi_i2f
 2615              	.LVL351:
 2616 0142 0146     		mov	r1, r0
 2617 0144 059C     		ldr	r4, [sp, #20]	@ float
 2618 0146 2046     		mov	r0, r4
 2619 0148 FFF7FEFF 		bl	__aeabi_fmul
 2620              	.LVL352:
 2621 014c 8046     		mov	r8, r0
 2622              	.LVL353:
 422:main.c        **** 	}
 2623              		.loc 2 422 0
 2624 014e 0898     		ldr	r0, [sp, #32]
 2625              	.LVL354:
 2626 0150 4844     		add	r0, r0, r9
 2627 0152 FFF7FEFF 		bl	__aeabi_i2f
 2628              	.LVL355:
ARM GAS  C:\Users\FRANKL~1\AppData\Local\Temp\ccebBo1q.s 			page 71


 2629 0156 0146     		mov	r1, r0
 2630 0158 2046     		mov	r0, r4
 2631 015a FFF7FEFF 		bl	__aeabi_fmul
 2632              	.LVL356:
 2633 015e 0546     		mov	r5, r0
 2634              	.LVL357:
 2635              	.L194:
 425:main.c        **** 	*currentStdDevIn = currentStdDev;
 2636              		.loc 2 425 0
 2637 0160 069B     		ldr	r3, [sp, #24]
 2638 0162 C3F80080 		str	r8, [r3]	@ float
 426:main.c        **** }
 2639              		.loc 2 426 0
 2640 0166 079B     		ldr	r3, [sp, #28]
 2641 0168 1D60     		str	r5, [r3]	@ float
 427:main.c        **** 
 2642              		.loc 2 427 0
 2643 016a 0BB0     		add	sp, sp, #44
 2644              		.cfi_def_cfa_offset 36
 2645              		@ sp needed
 2646 016c BDE8F08F 		pop	{r4, r5, r6, r7, r8, r9, r10, fp, pc}
 2647              	.LVL358:
 2648              	.L202:
 2649              		.align	3
 2650              	.L201:
 2651 0170 8DEDB5A0 		.word	-1598689907
 2652 0174 F7C6B0BE 		.word	-1095710985
 2653 0178 F168E388 		.word	-1998362383
 2654 017c B5F8E43E 		.word	1055193269
 2655 0180 00000000 		.word	Compliance_Reached
 2656 0184 00000000 		.word	.LANCHOR0
 2657 0188 00000000 		.word	.LANCHOR1
 2658 018c 0000F03F 		.word	1072693248
 2659              		.cfi_endproc
 2660              	.LFE90:
 2661              		.size	Measure_Current_Vss, .-Measure_Current_Vss
 2662              		.section	.text.At_Compliance,"ax",%progbits
 2663              		.align	2
 2664              		.global	At_Compliance
 2665              		.thumb
 2666              		.thumb_func
 2667              		.type	At_Compliance, %function
 2668              	At_Compliance:
 2669              	.LFB91:
 429:main.c        **** 	Compliance_Reached = 0;
 2670              		.loc 2 429 0
 2671              		.cfi_startproc
 2672              		@ args = 0, pretend = 0, frame = 8
 2673              		@ frame_needed = 0, uses_anonymous_args = 0
 2674 0000 00B5     		push	{lr}
 2675              		.cfi_def_cfa_offset 4
 2676              		.cfi_offset 14, -4
 2677 0002 83B0     		sub	sp, sp, #12
 2678              		.cfi_def_cfa_offset 16
 430:main.c        **** 	
 2679              		.loc 2 430 0
 2680 0004 0022     		movs	r2, #0
ARM GAS  C:\Users\FRANKL~1\AppData\Local\Temp\ccebBo1q.s 			page 72


 2681 0006 144B     		ldr	r3, .L210+8
 2682 0008 1A70     		strb	r2, [r3]
 432:main.c        **** 	float currentSD = 0;
 2683              		.loc 2 432 0
 2684 000a 0023     		movs	r3, #0
 2685 000c 0193     		str	r3, [sp, #4]	@ float
 433:main.c        **** 	
 2686              		.loc 2 433 0
 2687 000e 02A9     		add	r1, sp, #8
 2688 0010 41F8083D 		str	r3, [r1, #-8]!	@ float
 435:main.c        **** 	
 2689              		.loc 2 435 0
 2690 0014 0123     		movs	r3, #1
 2691 0016 0322     		movs	r2, #3
 2692 0018 01A8     		add	r0, sp, #4
 2693 001a FFF7FEFF 		bl	Measure_Current_Vss
 2694              	.LVL359:
 437:main.c        **** 		Compliance_Reached = 1;
 2695              		.loc 2 437 0
 2696 001e 0198     		ldr	r0, [sp, #4]	@ float
 2697 0020 FFF7FEFF 		bl	__aeabi_f2iz
 2698              	.LVL360:
 2699 0024 0028     		cmp	r0, #0
 2700 0026 B8BF     		it	lt
 2701 0028 4042     		rsblt	r0, r0, #0
 2702 002a FFF7FEFF 		bl	__aeabi_i2d
 2703              	.LVL361:
 2704 002e 08A3     		adr	r3, .L210
 2705 0030 D3E90023 		ldrd	r2, [r3]
 2706 0034 FFF7FEFF 		bl	__aeabi_dcmpgt
 2707              	.LVL362:
 2708 0038 18B1     		cbz	r0, .L208
 438:main.c        **** 		return 1;
 2709              		.loc 2 438 0
 2710 003a 0120     		movs	r0, #1
 2711 003c 064B     		ldr	r3, .L210+8
 2712 003e 1870     		strb	r0, [r3]
 439:main.c        **** 	}
 2713              		.loc 2 439 0
 2714 0040 00E0     		b	.L204
 2715              	.L208:
 442:main.c        **** }
 2716              		.loc 2 442 0
 2717 0042 0020     		movs	r0, #0
 2718              	.L204:
 443:main.c        **** 
 2719              		.loc 2 443 0
 2720 0044 03B0     		add	sp, sp, #12
 2721              		.cfi_def_cfa_offset 4
 2722              		@ sp needed
 2723 0046 5DF804FB 		ldr	pc, [sp], #4
 2724              	.L211:
 2725 004a 00BFAFF3 		.align	3
 2725      0080
 2726              	.L210:
 2727 0050 F168E388 		.word	-1998362383
 2728 0054 B5F8E43E 		.word	1055193269
ARM GAS  C:\Users\FRANKL~1\AppData\Local\Temp\ccebBo1q.s 			page 73


 2729 0058 00000000 		.word	Compliance_Reached
 2730              		.cfi_endproc
 2731              	.LFE91:
 2732              		.size	At_Compliance, .-At_Compliance
 2733              		.section	.text.Handle_Compliance_Breach,"ax",%progbits
 2734              		.align	2
 2735              		.global	Handle_Compliance_Breach
 2736              		.thumb
 2737              		.thumb_func
 2738              		.type	Handle_Compliance_Breach, %function
 2739              	Handle_Compliance_Breach:
 2740              	.LFB92:
 445:main.c        **** 	uint8 istart = VDAC_Vds_Data;
 2741              		.loc 2 445 0
 2742              		.cfi_startproc
 2743              		@ args = 0, pretend = 0, frame = 0
 2744              		@ frame_needed = 0, uses_anonymous_args = 0
 2745 0000 70B5     		push	{r4, r5, r6, lr}
 2746              		.cfi_def_cfa_offset 16
 2747              		.cfi_offset 4, -16
 2748              		.cfi_offset 5, -12
 2749              		.cfi_offset 6, -8
 2750              		.cfi_offset 14, -4
 446:main.c        **** 	uint8 istop = VDAC_Ref_Data;
 2751              		.loc 2 446 0
 2752 0002 174B     		ldr	r3, .L223
 2753 0004 1C78     		ldrb	r4, [r3]	@ zero_extendqisi2
 2754 0006 E4B2     		uxtb	r4, r4
 2755              	.LVL363:
 447:main.c        **** 	int8 increment = 1;
 2756              		.loc 2 447 0
 2757 0008 0133     		adds	r3, r3, #1
 2758 000a 1D78     		ldrb	r5, [r3]	@ zero_extendqisi2
 2759 000c EDB2     		uxtb	r5, r5
 2760              	.LVL364:
 449:main.c        **** 	
 2761              		.loc 2 449 0
 2762 000e AC42     		cmp	r4, r5
 2763 0010 01D3     		bcc	.L220
 448:main.c        **** 	if (istart < istop) increment = -1;
 2764              		.loc 2 448 0
 2765 0012 0126     		movs	r6, #1
 2766 0014 0AE0     		b	.L214
 2767              	.L220:
 449:main.c        **** 	
 2768              		.loc 2 449 0
 2769 0016 4FF0FF36 		mov	r6, #-1
 2770              	.LVL365:
 2771              	.LBB37:
 451:main.c        **** 		VDAC_Vds_SetValue(i);
 2772              		.loc 2 451 0
 2773 001a 07E0     		b	.L214
 2774              	.LVL366:
 2775              	.L216:
 452:main.c        **** 		
 2776              		.loc 2 452 0
 2777 001c 2046     		mov	r0, r4
ARM GAS  C:\Users\FRANKL~1\AppData\Local\Temp\ccebBo1q.s 			page 74


 2778 001e FFF7FEFF 		bl	VDAC_Vds_SetValue
 2779              	.LVL367:
 454:main.c        **** 	}
 2780              		.loc 2 454 0
 2781 0022 FFF7FEFF 		bl	At_Compliance
 2782              	.LVL368:
 2783 0026 D0B1     		cbz	r0, .L212
 451:main.c        **** 		VDAC_Vds_SetValue(i);
 2784              		.loc 2 451 0 discriminator 2
 2785 0028 3444     		add	r4, r4, r6
 2786              	.LVL369:
 2787 002a E4B2     		uxtb	r4, r4
 2788              	.LVL370:
 2789              	.L214:
 451:main.c        **** 		VDAC_Vds_SetValue(i);
 2790              		.loc 2 451 0 is_stmt 0 discriminator 1
 2791 002c AC42     		cmp	r4, r5
 2792 002e F5D1     		bne	.L216
 2793              	.LBE37:
 457:main.c        **** 	istop = VDAC_Ref_Data;
 2794              		.loc 2 457 0 is_stmt 1
 2795 0030 0C4B     		ldr	r3, .L223+4
 2796 0032 1C78     		ldrb	r4, [r3]	@ zero_extendqisi2
 2797              	.LVL371:
 2798 0034 E4B2     		uxtb	r4, r4
 2799              	.LVL372:
 458:main.c        **** 	increment = 1;
 2800              		.loc 2 458 0
 2801 0036 013B     		subs	r3, r3, #1
 2802 0038 1D78     		ldrb	r5, [r3]	@ zero_extendqisi2
 2803              	.LVL373:
 2804 003a EDB2     		uxtb	r5, r5
 2805              	.LVL374:
 460:main.c        **** 	
 2806              		.loc 2 460 0
 2807 003c AC42     		cmp	r4, r5
 2808 003e 01D3     		bcc	.L221
 459:main.c        **** 	if (istart < istop) increment = -1;
 2809              		.loc 2 459 0
 2810 0040 0126     		movs	r6, #1
 2811 0042 0AE0     		b	.L218
 2812              	.L221:
 460:main.c        **** 	
 2813              		.loc 2 460 0
 2814 0044 4FF0FF36 		mov	r6, #-1
 2815              	.LVL375:
 2816              	.LBB38:
 462:main.c        **** 		VDAC_Vgs_SetValue(i);
 2817              		.loc 2 462 0
 2818 0048 07E0     		b	.L218
 2819              	.LVL376:
 2820              	.L219:
 463:main.c        **** 		
 2821              		.loc 2 463 0
 2822 004a 2046     		mov	r0, r4
 2823 004c FFF7FEFF 		bl	VDAC_Vgs_SetValue
 2824              	.LVL377:
ARM GAS  C:\Users\FRANKL~1\AppData\Local\Temp\ccebBo1q.s 			page 75


 465:main.c        **** 	}
 2825              		.loc 2 465 0
 2826 0050 FFF7FEFF 		bl	At_Compliance
 2827              	.LVL378:
 2828 0054 18B1     		cbz	r0, .L212
 462:main.c        **** 		VDAC_Vgs_SetValue(i);
 2829              		.loc 2 462 0 discriminator 2
 2830 0056 3444     		add	r4, r4, r6
 2831              	.LVL379:
 2832 0058 E4B2     		uxtb	r4, r4
 2833              	.LVL380:
 2834              	.L218:
 462:main.c        **** 		VDAC_Vgs_SetValue(i);
 2835              		.loc 2 462 0 is_stmt 0 discriminator 1
 2836 005a AC42     		cmp	r4, r5
 2837 005c F5D1     		bne	.L219
 2838              	.LVL381:
 2839              	.L212:
 2840 005e 70BD     		pop	{r4, r5, r6, pc}
 2841              	.LVL382:
 2842              	.L224:
 2843              		.align	2
 2844              	.L223:
 2845 0060 815B0040 		.word	1073765249
 2846 0064 835B0040 		.word	1073765251
 2847              	.LBE38:
 2848              		.cfi_endproc
 2849              	.LFE92:
 2850              		.size	Handle_Compliance_Breach, .-Handle_Compliance_Breach
 2851              		.section	.text.Get_Ref,"ax",%progbits
 2852              		.align	2
 2853              		.global	Get_Ref
 2854              		.thumb
 2855              		.thumb_func
 2856              		.type	Get_Ref, %function
 2857              	Get_Ref:
 2858              	.LFB93:
 472:main.c        **** 	float result = 4.080/255.0*VDAC_Ref_Data;
 2859              		.loc 2 472 0 is_stmt 1
 2860              		.cfi_startproc
 2861              		@ args = 0, pretend = 0, frame = 0
 2862              		@ frame_needed = 0, uses_anonymous_args = 0
 2863 0000 08B5     		push	{r3, lr}
 2864              		.cfi_def_cfa_offset 8
 2865              		.cfi_offset 3, -8
 2866              		.cfi_offset 14, -4
 473:main.c        **** 	if (VDAC_Ref_CR0 & (VDAC_Ref_RANGE_1V & VDAC_Ref_RANGE_MASK)) {
 2867              		.loc 2 473 0
 2868 0002 094B     		ldr	r3, .L227+8
 2869 0004 1878     		ldrb	r0, [r3]	@ zero_extendqisi2
 2870 0006 FFF7FEFF 		bl	__aeabi_i2d
 2871              	.LVL383:
 2872 000a 05A3     		adr	r3, .L227
 2873 000c D3E90023 		ldrd	r2, [r3]
 2874 0010 FFF7FEFF 		bl	__aeabi_dmul
 2875              	.LVL384:
 2876 0014 FFF7FEFF 		bl	__aeabi_d2f
ARM GAS  C:\Users\FRANKL~1\AppData\Local\Temp\ccebBo1q.s 			page 76


 2877              	.LVL385:
 474:main.c        **** 		result = 1.020/255.0*VDAC_Ref_Data;
 2878              		.loc 2 474 0
 2879 0018 044B     		ldr	r3, .L227+12
 2880 001a 1B78     		ldrb	r3, [r3]	@ zero_extendqisi2
 478:main.c        **** 
 2881              		.loc 2 478 0
 2882 001c 08BD     		pop	{r3, pc}
 2883              	.L228:
 2884 001e 00BF     		.align	3
 2885              	.L227:
 2886 0020 FCA9F1D2 		.word	-755914244
 2887 0024 4D62903F 		.word	1066426957
 2888 0028 825B0040 		.word	1073765250
 2889 002c 28580040 		.word	1073764392
 2890              		.cfi_endproc
 2891              	.LFE93:
 2892              		.size	Get_Ref, .-Get_Ref
 2893              		.section	.text.Get_Vgs,"ax",%progbits
 2894              		.align	2
 2895              		.global	Get_Vgs
 2896              		.thumb
 2897              		.thumb_func
 2898              		.type	Get_Vgs, %function
 2899              	Get_Vgs:
 2900              	.LFB94:
 481:main.c        **** 	float result = 4.080/255.0*VDAC_Vgs_Data - Get_Ref();
 2901              		.loc 2 481 0
 2902              		.cfi_startproc
 2903              		@ args = 0, pretend = 0, frame = 0
 2904              		@ frame_needed = 0, uses_anonymous_args = 0
 2905 0000 38B5     		push	{r3, r4, r5, lr}
 2906              		.cfi_def_cfa_offset 16
 2907              		.cfi_offset 3, -16
 2908              		.cfi_offset 4, -12
 2909              		.cfi_offset 5, -8
 2910              		.cfi_offset 14, -4
 482:main.c        **** 	if (VDAC_Vgs_CR0 & (VDAC_Vgs_RANGE_1V & VDAC_Vgs_RANGE_MASK)) {
 2911              		.loc 2 482 0
 2912 0002 0F4B     		ldr	r3, .L231+8
 2913 0004 1878     		ldrb	r0, [r3]	@ zero_extendqisi2
 2914 0006 FFF7FEFF 		bl	__aeabi_i2d
 2915              	.LVL386:
 2916 000a 0BA3     		adr	r3, .L231
 2917 000c D3E90023 		ldrd	r2, [r3]
 2918 0010 FFF7FEFF 		bl	__aeabi_dmul
 2919              	.LVL387:
 2920 0014 0446     		mov	r4, r0
 2921 0016 0D46     		mov	r5, r1
 2922 0018 FFF7FEFF 		bl	Get_Ref
 2923              	.LVL388:
 2924 001c FFF7FEFF 		bl	__aeabi_f2d
 2925              	.LVL389:
 2926 0020 0246     		mov	r2, r0
 2927 0022 0B46     		mov	r3, r1
 2928 0024 2046     		mov	r0, r4
 2929 0026 2946     		mov	r1, r5
ARM GAS  C:\Users\FRANKL~1\AppData\Local\Temp\ccebBo1q.s 			page 77


 2930 0028 FFF7FEFF 		bl	__aeabi_dsub
 2931              	.LVL390:
 2932 002c FFF7FEFF 		bl	__aeabi_d2f
 2933              	.LVL391:
 483:main.c        **** 		result = 1.020/255.0*VDAC_Vgs_Data - Get_Ref();
 2934              		.loc 2 483 0
 2935 0030 044B     		ldr	r3, .L231+12
 2936 0032 1B78     		ldrb	r3, [r3]	@ zero_extendqisi2
 487:main.c        **** 
 2937              		.loc 2 487 0
 2938 0034 38BD     		pop	{r3, r4, r5, pc}
 2939              	.L232:
 2940 0036 00BF     		.align	3
 2941              	.L231:
 2942 0038 FCA9F1D2 		.word	-755914244
 2943 003c 4D62903F 		.word	1066426957
 2944 0040 835B0040 		.word	1073765251
 2945 0044 2C580040 		.word	1073764396
 2946              		.cfi_endproc
 2947              	.LFE94:
 2948              		.size	Get_Vgs, .-Get_Vgs
 2949              		.section	.text.Get_Vds,"ax",%progbits
 2950              		.align	2
 2951              		.global	Get_Vds
 2952              		.thumb
 2953              		.thumb_func
 2954              		.type	Get_Vds, %function
 2955              	Get_Vds:
 2956              	.LFB95:
 490:main.c        **** 	float result = 4.080/255.0*VDAC_Vds_Data - Get_Ref();
 2957              		.loc 2 490 0
 2958              		.cfi_startproc
 2959              		@ args = 0, pretend = 0, frame = 0
 2960              		@ frame_needed = 0, uses_anonymous_args = 0
 2961 0000 38B5     		push	{r3, r4, r5, lr}
 2962              		.cfi_def_cfa_offset 16
 2963              		.cfi_offset 3, -16
 2964              		.cfi_offset 4, -12
 2965              		.cfi_offset 5, -8
 2966              		.cfi_offset 14, -4
 491:main.c        **** 	if (VDAC_Vds_CR0 & (VDAC_Vds_RANGE_1V & VDAC_Vds_RANGE_MASK)) {
 2967              		.loc 2 491 0
 2968 0002 0F4B     		ldr	r3, .L235+8
 2969 0004 1878     		ldrb	r0, [r3]	@ zero_extendqisi2
 2970 0006 FFF7FEFF 		bl	__aeabi_i2d
 2971              	.LVL392:
 2972 000a 0BA3     		adr	r3, .L235
 2973 000c D3E90023 		ldrd	r2, [r3]
 2974 0010 FFF7FEFF 		bl	__aeabi_dmul
 2975              	.LVL393:
 2976 0014 0446     		mov	r4, r0
 2977 0016 0D46     		mov	r5, r1
 2978 0018 FFF7FEFF 		bl	Get_Ref
 2979              	.LVL394:
 2980 001c FFF7FEFF 		bl	__aeabi_f2d
 2981              	.LVL395:
 2982 0020 0246     		mov	r2, r0
ARM GAS  C:\Users\FRANKL~1\AppData\Local\Temp\ccebBo1q.s 			page 78


 2983 0022 0B46     		mov	r3, r1
 2984 0024 2046     		mov	r0, r4
 2985 0026 2946     		mov	r1, r5
 2986 0028 FFF7FEFF 		bl	__aeabi_dsub
 2987              	.LVL396:
 2988 002c FFF7FEFF 		bl	__aeabi_d2f
 2989              	.LVL397:
 492:main.c        **** 		result = 1.020/255.0*VDAC_Vds_Data - Get_Ref();
 2990              		.loc 2 492 0
 2991 0030 044B     		ldr	r3, .L235+12
 2992 0032 1B78     		ldrb	r3, [r3]	@ zero_extendqisi2
 496:main.c        **** 
 2993              		.loc 2 496 0
 2994 0034 38BD     		pop	{r3, r4, r5, pc}
 2995              	.L236:
 2996 0036 00BF     		.align	3
 2997              	.L235:
 2998 0038 FCA9F1D2 		.word	-755914244
 2999 003c 4D62903F 		.word	1066426957
 3000 0040 815B0040 		.word	1073765249
 3001 0044 24580040 		.word	1073764388
 3002              		.cfi_endproc
 3003              	.LFE95:
 3004              		.size	Get_Vds, .-Get_Vds
 3005              		.section	.text.Set_Vds_Raw,"ax",%progbits
 3006              		.align	2
 3007              		.global	Set_Vds_Raw
 3008              		.thumb
 3009              		.thumb_func
 3010              		.type	Set_Vds_Raw, %function
 3011              	Set_Vds_Raw:
 3012              	.LFB96:
 501:main.c        **** 	Vds_Index_Goal_Relative = (int16)value - (int16)VDAC_Ref_Data;
 3013              		.loc 2 501 0
 3014              		.cfi_startproc
 3015              		@ args = 0, pretend = 0, frame = 0
 3016              		@ frame_needed = 0, uses_anonymous_args = 0
 3017              	.LVL398:
 3018 0000 2DE9F041 		push	{r4, r5, r6, r7, r8, lr}
 3019              		.cfi_def_cfa_offset 24
 3020              		.cfi_offset 4, -24
 3021              		.cfi_offset 5, -20
 3022              		.cfi_offset 6, -16
 3023              		.cfi_offset 7, -12
 3024              		.cfi_offset 8, -8
 3025              		.cfi_offset 14, -4
 3026 0004 8046     		mov	r8, r0
 502:main.c        **** 	
 3027              		.loc 2 502 0
 3028 0006 194B     		ldr	r3, .L248
 3029 0008 1B78     		ldrb	r3, [r3]	@ zero_extendqisi2
 3030 000a C31A     		subs	r3, r0, r3
 3031 000c 184A     		ldr	r2, .L248+4
 3032 000e 1380     		strh	r3, [r2]	@ movhi
 504:main.c        **** 	int8 increment = 1;
 3033              		.loc 2 504 0
 3034 0010 184B     		ldr	r3, .L248+8
ARM GAS  C:\Users\FRANKL~1\AppData\Local\Temp\ccebBo1q.s 			page 79


 3035 0012 1D78     		ldrb	r5, [r3]	@ zero_extendqisi2
 3036 0014 EDB2     		uxtb	r5, r5
 3037              	.LVL399:
 506:main.c        **** 	
 3038              		.loc 2 506 0
 3039 0016 A842     		cmp	r0, r5
 3040 0018 01D3     		bcc	.L245
 505:main.c        **** 	if (istart > value) increment = -1;
 3041              		.loc 2 505 0
 3042 001a 0126     		movs	r6, #1
 3043 001c 01E0     		b	.L238
 3044              	.L245:
 506:main.c        **** 	
 3045              		.loc 2 506 0
 3046 001e 4FF0FF36 		mov	r6, #-1
 3047              	.L238:
 3048              	.LVL400:
 3049              	.LBB39:
 509:main.c        **** 		if (At_Compliance()) {
 3050              		.loc 2 509 0
 3051 0022 2F46     		mov	r7, r5
 3052 0024 1BE0     		b	.L239
 3053              	.LVL401:
 3054              	.L244:
 510:main.c        **** 			for (uint8 j = i; j != istart; j -= increment) {
 3055              		.loc 2 510 0
 3056 0026 FFF7FEFF 		bl	At_Compliance
 3057              	.LVL402:
 3058 002a 48B9     		cbnz	r0, .L246
 3059 002c 12E0     		b	.L241
 3060              	.LVL403:
 3061              	.L243:
 3062              	.LBB40:
 512:main.c        **** 				
 3063              		.loc 2 512 0
 3064 002e 2046     		mov	r0, r4
 3065 0030 FFF7FEFF 		bl	VDAC_Vds_SetValue
 3066              	.LVL404:
 514:main.c        **** 			}
 3067              		.loc 2 514 0
 3068 0034 FFF7FEFF 		bl	At_Compliance
 3069              	.LVL405:
 3070 0038 B0B1     		cbz	r0, .L237
 511:main.c        **** 				VDAC_Vds_SetValue(j);
 3071              		.loc 2 511 0 discriminator 2
 3072 003a A41B     		subs	r4, r4, r6
 3073              	.LVL406:
 3074 003c E4B2     		uxtb	r4, r4
 3075              	.LVL407:
 3076 003e 00E0     		b	.L240
 3077              	.LVL408:
 3078              	.L246:
 3079              	.LBE40:
 3080 0040 3C46     		mov	r4, r7
 3081              	.L240:
 3082              	.LVL409:
 3083              	.LBB41:
ARM GAS  C:\Users\FRANKL~1\AppData\Local\Temp\ccebBo1q.s 			page 80


 511:main.c        **** 				VDAC_Vds_SetValue(j);
 3084              		.loc 2 511 0 is_stmt 0 discriminator 1
 3085 0042 AC42     		cmp	r4, r5
 3086 0044 F3D1     		bne	.L243
 3087              	.LBE41:
 516:main.c        **** 				Handle_Compliance_Breach();
 3088              		.loc 2 516 0 is_stmt 1
 3089 0046 FFF7FEFF 		bl	At_Compliance
 3090              	.LVL410:
 3091 004a 18B1     		cbz	r0, .L241
 517:main.c        **** 				return;
 3092              		.loc 2 517 0
 3093 004c FFF7FEFF 		bl	Handle_Compliance_Breach
 3094              	.LVL411:
 518:main.c        **** 			}
 3095              		.loc 2 518 0
 3096 0050 BDE8F081 		pop	{r4, r5, r6, r7, r8, pc}
 3097              	.LVL412:
 3098              	.L241:
 522:main.c        **** 	}
 3099              		.loc 2 522 0 discriminator 2
 3100 0054 3846     		mov	r0, r7
 3101 0056 FFF7FEFF 		bl	VDAC_Vds_SetValue
 3102              	.LVL413:
 509:main.c        **** 		if (At_Compliance()) {
 3103              		.loc 2 509 0 discriminator 2
 3104 005a 3744     		add	r7, r7, r6
 3105              	.LVL414:
 3106 005c FFB2     		uxtb	r7, r7
 3107              	.LVL415:
 3108              	.L239:
 509:main.c        **** 		if (At_Compliance()) {
 3109              		.loc 2 509 0 is_stmt 0 discriminator 1
 3110 005e 4745     		cmp	r7, r8
 3111 0060 E1D1     		bne	.L244
 3112              	.LBE39:
 526:main.c        **** }
 3113              		.loc 2 526 0 is_stmt 1
 3114 0062 4046     		mov	r0, r8
 3115 0064 FFF7FEFF 		bl	VDAC_Vds_SetValue
 3116              	.LVL416:
 3117              	.L237:
 3118 0068 BDE8F081 		pop	{r4, r5, r6, r7, r8, pc}
 3119              	.LVL417:
 3120              	.L249:
 3121              		.align	2
 3122              	.L248:
 3123 006c 825B0040 		.word	1073765250
 3124 0070 00000000 		.word	Vds_Index_Goal_Relative
 3125 0074 815B0040 		.word	1073765249
 3126              		.cfi_endproc
 3127              	.LFE96:
 3128              		.size	Set_Vds_Raw, .-Set_Vds_Raw
 3129              		.section	.text.Set_Vgs_Raw,"ax",%progbits
 3130              		.align	2
 3131              		.global	Set_Vgs_Raw
 3132              		.thumb
ARM GAS  C:\Users\FRANKL~1\AppData\Local\Temp\ccebBo1q.s 			page 81


 3133              		.thumb_func
 3134              		.type	Set_Vgs_Raw, %function
 3135              	Set_Vgs_Raw:
 3136              	.LFB97:
 530:main.c        **** 	Vgs_Index_Goal_Relative = (int16)value - (int16)VDAC_Ref_Data;
 3137              		.loc 2 530 0
 3138              		.cfi_startproc
 3139              		@ args = 0, pretend = 0, frame = 0
 3140              		@ frame_needed = 0, uses_anonymous_args = 0
 3141              	.LVL418:
 3142 0000 2DE9F041 		push	{r4, r5, r6, r7, r8, lr}
 3143              		.cfi_def_cfa_offset 24
 3144              		.cfi_offset 4, -24
 3145              		.cfi_offset 5, -20
 3146              		.cfi_offset 6, -16
 3147              		.cfi_offset 7, -12
 3148              		.cfi_offset 8, -8
 3149              		.cfi_offset 14, -4
 3150 0004 8046     		mov	r8, r0
 531:main.c        **** 	
 3151              		.loc 2 531 0
 3152 0006 194B     		ldr	r3, .L261
 3153 0008 1B78     		ldrb	r3, [r3]	@ zero_extendqisi2
 3154 000a C31A     		subs	r3, r0, r3
 3155 000c 184A     		ldr	r2, .L261+4
 3156 000e 1380     		strh	r3, [r2]	@ movhi
 3157              	.LVL419:
 534:main.c        **** 	if (value < istart) increment = -1;
 3158              		.loc 2 534 0
 3159 0010 184B     		ldr	r3, .L261+8
 3160 0012 1D78     		ldrb	r5, [r3]	@ zero_extendqisi2
 3161 0014 EDB2     		uxtb	r5, r5
 3162              	.LVL420:
 535:main.c        **** 	
 3163              		.loc 2 535 0
 3164 0016 A842     		cmp	r0, r5
 3165 0018 01D3     		bcc	.L258
 533:main.c        **** 	uint8 istart = VDAC_Vgs_Data;
 3166              		.loc 2 533 0
 3167 001a 0126     		movs	r6, #1
 3168 001c 01E0     		b	.L251
 3169              	.L258:
 535:main.c        **** 	
 3170              		.loc 2 535 0
 3171 001e 4FF0FF36 		mov	r6, #-1
 3172              	.L251:
 3173              	.LVL421:
 3174              	.LBB42:
 538:main.c        **** 		if (At_Compliance()) {
 3175              		.loc 2 538 0
 3176 0022 2F46     		mov	r7, r5
 3177 0024 1BE0     		b	.L252
 3178              	.LVL422:
 3179              	.L257:
 539:main.c        **** 			for (uint8 j = i; j != istart; j -= increment) {
 3180              		.loc 2 539 0
 3181 0026 FFF7FEFF 		bl	At_Compliance
ARM GAS  C:\Users\FRANKL~1\AppData\Local\Temp\ccebBo1q.s 			page 82


 3182              	.LVL423:
 3183 002a 48B9     		cbnz	r0, .L259
 3184 002c 12E0     		b	.L254
 3185              	.LVL424:
 3186              	.L256:
 3187              	.LBB43:
 541:main.c        **** 				
 3188              		.loc 2 541 0
 3189 002e 2046     		mov	r0, r4
 3190 0030 FFF7FEFF 		bl	VDAC_Vgs_SetValue
 3191              	.LVL425:
 543:main.c        **** 			}
 3192              		.loc 2 543 0
 3193 0034 FFF7FEFF 		bl	At_Compliance
 3194              	.LVL426:
 3195 0038 B0B1     		cbz	r0, .L250
 540:main.c        **** 				VDAC_Vgs_SetValue(j);
 3196              		.loc 2 540 0 discriminator 2
 3197 003a A41B     		subs	r4, r4, r6
 3198              	.LVL427:
 3199 003c E4B2     		uxtb	r4, r4
 3200              	.LVL428:
 3201 003e 00E0     		b	.L253
 3202              	.LVL429:
 3203              	.L259:
 3204              	.LBE43:
 3205 0040 3C46     		mov	r4, r7
 3206              	.L253:
 3207              	.LVL430:
 3208              	.LBB44:
 540:main.c        **** 				VDAC_Vgs_SetValue(j);
 3209              		.loc 2 540 0 is_stmt 0 discriminator 1
 3210 0042 AC42     		cmp	r4, r5
 3211 0044 F3D1     		bne	.L256
 3212              	.LBE44:
 545:main.c        **** 				Handle_Compliance_Breach();
 3213              		.loc 2 545 0 is_stmt 1
 3214 0046 FFF7FEFF 		bl	At_Compliance
 3215              	.LVL431:
 3216 004a 18B1     		cbz	r0, .L254
 546:main.c        **** 				return;
 3217              		.loc 2 546 0
 3218 004c FFF7FEFF 		bl	Handle_Compliance_Breach
 3219              	.LVL432:
 547:main.c        **** 			}
 3220              		.loc 2 547 0
 3221 0050 BDE8F081 		pop	{r4, r5, r6, r7, r8, pc}
 3222              	.LVL433:
 3223              	.L254:
 551:main.c        **** 	}
 3224              		.loc 2 551 0 discriminator 2
 3225 0054 3846     		mov	r0, r7
 3226 0056 FFF7FEFF 		bl	VDAC_Vgs_SetValue
 3227              	.LVL434:
 538:main.c        **** 		if (At_Compliance()) {
 3228              		.loc 2 538 0 discriminator 2
 3229 005a 3744     		add	r7, r7, r6
ARM GAS  C:\Users\FRANKL~1\AppData\Local\Temp\ccebBo1q.s 			page 83


 3230              	.LVL435:
 3231 005c FFB2     		uxtb	r7, r7
 3232              	.LVL436:
 3233              	.L252:
 538:main.c        **** 		if (At_Compliance()) {
 3234              		.loc 2 538 0 is_stmt 0 discriminator 1
 3235 005e 4745     		cmp	r7, r8
 3236 0060 E1D1     		bne	.L257
 3237              	.LBE42:
 555:main.c        **** }
 3238              		.loc 2 555 0 is_stmt 1
 3239 0062 4046     		mov	r0, r8
 3240 0064 FFF7FEFF 		bl	VDAC_Vgs_SetValue
 3241              	.LVL437:
 3242              	.L250:
 3243 0068 BDE8F081 		pop	{r4, r5, r6, r7, r8, pc}
 3244              	.LVL438:
 3245              	.L262:
 3246              		.align	2
 3247              	.L261:
 3248 006c 825B0040 		.word	1073765250
 3249 0070 00000000 		.word	Vgs_Index_Goal_Relative
 3250 0074 835B0040 		.word	1073765251
 3251              		.cfi_endproc
 3252              	.LFE97:
 3253              		.size	Set_Vgs_Raw, .-Set_Vgs_Raw
 3254              		.section	.text.Set_Ref_Raw,"ax",%progbits
 3255              		.align	2
 3256              		.global	Set_Ref_Raw
 3257              		.thumb
 3258              		.thumb_func
 3259              		.type	Set_Ref_Raw, %function
 3260              	Set_Ref_Raw:
 3261              	.LFB98:
 559:main.c        **** 	if (value < 6) value = 6;
 3262              		.loc 2 559 0
 3263              		.cfi_startproc
 3264              		@ args = 0, pretend = 0, frame = 0
 3265              		@ frame_needed = 0, uses_anonymous_args = 0
 3266              	.LVL439:
 3267 0000 2DE9F041 		push	{r4, r5, r6, r7, r8, lr}
 3268              		.cfi_def_cfa_offset 24
 3269              		.cfi_offset 4, -24
 3270              		.cfi_offset 5, -20
 3271              		.cfi_offset 6, -16
 3272              		.cfi_offset 7, -12
 3273              		.cfi_offset 8, -8
 3274              		.cfi_offset 14, -4
 3275 0004 0746     		mov	r7, r0
 560:main.c        **** 	
 3276              		.loc 2 560 0
 3277 0006 0528     		cmp	r0, #5
 3278 0008 00D8     		bhi	.L264
 3279 000a 0627     		movs	r7, #6
 3280              	.L264:
 3281              	.LVL440:
 563:main.c        **** 	
ARM GAS  C:\Users\FRANKL~1\AppData\Local\Temp\ccebBo1q.s 			page 84


 3282              		.loc 2 563 0
 3283 000c 294B     		ldr	r3, .L288
 3284 000e 1B78     		ldrb	r3, [r3]	@ zero_extendqisi2
 3285 0010 DBB2     		uxtb	r3, r3
 3286 0012 9F42     		cmp	r7, r3
 3287 0014 02D3     		bcc	.L278
 562:main.c        **** 	if (value < VDAC_Ref_Data) increment = -1;
 3288              		.loc 2 562 0
 3289 0016 4FF00108 		mov	r8, #1
 3290 001a 01E0     		b	.L265
 3291              	.L278:
 563:main.c        **** 	
 3292              		.loc 2 563 0
 3293 001c 4FF0FF38 		mov	r8, #-1
 3294              	.L265:
 3295              	.LVL441:
 3296              	.LBB45:
 566:main.c        **** 		
 3297              		.loc 2 566 0
 3298 0020 244B     		ldr	r3, .L288
 3299 0022 1E78     		ldrb	r6, [r3]	@ zero_extendqisi2
 3300 0024 F6B2     		uxtb	r6, r6
 3301              	.LVL442:
 3302 0026 23E0     		b	.L266
 3303              	.L272:
 3304              	.LBB46:
 568:main.c        **** 		
 3305              		.loc 2 568 0
 3306 0028 FFF7FEFF 		bl	At_Compliance
 3307              	.LVL443:
 3308 002c 0028     		cmp	r0, #0
 3309 002e 3FD1     		bne	.L263
 570:main.c        **** 		int16 new_Vds = (int16)i + Vds_Index_Goal_Relative;
 3310              		.loc 2 570 0
 3311 0030 B4B2     		uxth	r4, r6
 3312 0032 214B     		ldr	r3, .L288+4
 3313 0034 1D88     		ldrh	r5, [r3]
 3314 0036 2544     		add	r5, r5, r4
 3315 0038 2DB2     		sxth	r5, r5
 3316              	.LVL444:
 571:main.c        **** 		
 3317              		.loc 2 571 0
 3318 003a 204B     		ldr	r3, .L288+8
 3319 003c 1B88     		ldrh	r3, [r3]
 3320 003e 1C44     		add	r4, r4, r3
 3321 0040 24B2     		sxth	r4, r4
 3322              	.LVL445:
 573:main.c        **** 		if (new_Vds > 255) new_Vds = 255;
 3323              		.loc 2 573 0
 3324 0042 FF2D     		cmp	r5, #255
 3325 0044 00DD     		ble	.L268
 3326 0046 FF25     		movs	r5, #255
 3327              	.LVL446:
 3328              	.L268:
 574:main.c        **** 		
 3329              		.loc 2 574 0
 3330 0048 FF2C     		cmp	r4, #255
ARM GAS  C:\Users\FRANKL~1\AppData\Local\Temp\ccebBo1q.s 			page 85


 3331 004a 00DD     		ble	.L269
 3332 004c FF24     		movs	r4, #255
 3333              	.LVL447:
 3334              	.L269:
 576:main.c        **** 		if (new_Vds < 0) new_Vds = 0;
 3335              		.loc 2 576 0
 3336 004e 002D     		cmp	r5, #0
 3337 0050 00DA     		bge	.L270
 3338 0052 0025     		movs	r5, #0
 3339              	.LVL448:
 3340              	.L270:
 577:main.c        **** 		
 3341              		.loc 2 577 0
 3342 0054 002C     		cmp	r4, #0
 3343 0056 00DA     		bge	.L271
 3344 0058 0024     		movs	r4, #0
 3345              	.LVL449:
 3346              	.L271:
 579:main.c        **** 		VDAC_Vgs_SetValue(new_Vgs);
 3347              		.loc 2 579 0 discriminator 2
 3348 005a 3046     		mov	r0, r6
 3349 005c FFF7FEFF 		bl	VDAC_Ref_SetValue
 3350              	.LVL450:
 580:main.c        **** 		VDAC_Vds_SetValue(new_Vds);
 3351              		.loc 2 580 0 discriminator 2
 3352 0060 E8B2     		uxtb	r0, r5
 3353 0062 FFF7FEFF 		bl	VDAC_Vgs_SetValue
 3354              	.LVL451:
 581:main.c        **** 	}
 3355              		.loc 2 581 0 discriminator 2
 3356 0066 E0B2     		uxtb	r0, r4
 3357 0068 FFF7FEFF 		bl	VDAC_Vds_SetValue
 3358              	.LVL452:
 3359              	.LBE46:
 566:main.c        **** 		
 3360              		.loc 2 566 0 discriminator 2
 3361 006c 4644     		add	r6, r6, r8
 3362              	.LVL453:
 3363 006e F6B2     		uxtb	r6, r6
 3364              	.LVL454:
 3365              	.L266:
 566:main.c        **** 		
 3366              		.loc 2 566 0 is_stmt 0 discriminator 1
 3367 0070 B742     		cmp	r7, r6
 3368 0072 D9D1     		bne	.L272
 3369              	.LBE45:
 585:main.c        **** 	int16 new_Vds = (int16)value + Vds_Index_Goal_Relative;
 3370              		.loc 2 585 0 is_stmt 1
 3371 0074 BCB2     		uxth	r4, r7
 3372 0076 104B     		ldr	r3, .L288+4
 3373 0078 1D88     		ldrh	r5, [r3]
 3374 007a 2544     		add	r5, r5, r4
 3375 007c 2DB2     		sxth	r5, r5
 3376              	.LVL455:
 586:main.c        **** 	
 3377              		.loc 2 586 0
 3378 007e 0F4B     		ldr	r3, .L288+8
ARM GAS  C:\Users\FRANKL~1\AppData\Local\Temp\ccebBo1q.s 			page 86


 3379 0080 1B88     		ldrh	r3, [r3]
 3380 0082 1C44     		add	r4, r4, r3
 3381 0084 24B2     		sxth	r4, r4
 3382              	.LVL456:
 588:main.c        **** 	if (new_Vds > 255) new_Vds = 255;
 3383              		.loc 2 588 0
 3384 0086 FF2D     		cmp	r5, #255
 3385 0088 00DD     		ble	.L273
 3386 008a FF25     		movs	r5, #255
 3387              	.LVL457:
 3388              	.L273:
 589:main.c        **** 	
 3389              		.loc 2 589 0
 3390 008c FF2C     		cmp	r4, #255
 3391 008e 00DD     		ble	.L274
 3392 0090 FF24     		movs	r4, #255
 3393              	.LVL458:
 3394              	.L274:
 591:main.c        **** 	if (new_Vds < 0) new_Vds = 0;
 3395              		.loc 2 591 0
 3396 0092 002D     		cmp	r5, #0
 3397 0094 00DA     		bge	.L275
 3398 0096 0025     		movs	r5, #0
 3399              	.LVL459:
 3400              	.L275:
 592:main.c        **** 	
 3401              		.loc 2 592 0
 3402 0098 002C     		cmp	r4, #0
 3403 009a 00DA     		bge	.L276
 3404 009c 0024     		movs	r4, #0
 3405              	.LVL460:
 3406              	.L276:
 594:main.c        **** 	VDAC_Vgs_SetValue(new_Vgs);
 3407              		.loc 2 594 0
 3408 009e 3846     		mov	r0, r7
 3409 00a0 FFF7FEFF 		bl	VDAC_Ref_SetValue
 3410              	.LVL461:
 595:main.c        **** 	VDAC_Vds_SetValue(new_Vds);
 3411              		.loc 2 595 0
 3412 00a4 E8B2     		uxtb	r0, r5
 3413 00a6 FFF7FEFF 		bl	VDAC_Vgs_SetValue
 3414              	.LVL462:
 596:main.c        **** }
 3415              		.loc 2 596 0
 3416 00aa E0B2     		uxtb	r0, r4
 3417 00ac FFF7FEFF 		bl	VDAC_Vds_SetValue
 3418              	.LVL463:
 3419              	.L263:
 3420 00b0 BDE8F081 		pop	{r4, r5, r6, r7, r8, pc}
 3421              	.LVL464:
 3422              	.L289:
 3423              		.align	2
 3424              	.L288:
 3425 00b4 825B0040 		.word	1073765250
 3426 00b8 00000000 		.word	Vgs_Index_Goal_Relative
 3427 00bc 00000000 		.word	Vds_Index_Goal_Relative
 3428              		.cfi_endproc
ARM GAS  C:\Users\FRANKL~1\AppData\Local\Temp\ccebBo1q.s 			page 87


 3429              	.LFE98:
 3430              		.size	Set_Ref_Raw, .-Set_Ref_Raw
 3431              		.section	.text.Set_Vds_Rel,"ax",%progbits
 3432              		.align	2
 3433              		.global	Set_Vds_Rel
 3434              		.thumb
 3435              		.thumb_func
 3436              		.type	Set_Vds_Rel, %function
 3437              	Set_Vds_Rel:
 3438              	.LFB99:
 601:main.c        **** 	if (value > 255) value = 255;
 3439              		.loc 2 601 0
 3440              		.cfi_startproc
 3441              		@ args = 0, pretend = 0, frame = 0
 3442              		@ frame_needed = 0, uses_anonymous_args = 0
 3443              	.LVL465:
 3444 0000 70B5     		push	{r4, r5, r6, lr}
 3445              		.cfi_def_cfa_offset 16
 3446              		.cfi_offset 4, -16
 3447              		.cfi_offset 5, -12
 3448              		.cfi_offset 6, -8
 3449              		.cfi_offset 14, -4
 3450 0002 0446     		mov	r4, r0
 602:main.c        **** 	if (value < -255) value = -255;
 3451              		.loc 2 602 0
 3452 0004 FF28     		cmp	r0, #255
 3453 0006 00DD     		ble	.L291
 3454 0008 FF24     		movs	r4, #255
 3455              	.L291:
 3456              	.LVL466:
 603:main.c        **** 	
 3457              		.loc 2 603 0
 3458 000a 14F1FF0F 		cmn	r4, #255
 3459 000e 01DA     		bge	.L292
 3460 0010 6FF0FE04 		mvn	r4, #254
 3461              	.LVL467:
 3462              	.L292:
 605:main.c        **** 	
 3463              		.loc 2 605 0
 3464 0014 294B     		ldr	r3, .L311
 3465 0016 1878     		ldrb	r0, [r3]	@ zero_extendqisi2
 3466 0018 A5B2     		uxth	r5, r4
 3467 001a 2844     		add	r0, r0, r5
 3468 001c 80B2     		uxth	r0, r0
 3469 001e 03B2     		sxth	r3, r0
 3470              	.LVL468:
 607:main.c        **** 		Set_Ref_Raw(VDAC_Ref_Data - (absolute - 255));
 3471              		.loc 2 607 0
 3472 0020 FF2B     		cmp	r3, #255
 3473 0022 0ADD     		ble	.L293
 608:main.c        **** 		Set_Vds_Raw(255);
 3474              		.loc 2 608 0
 3475 0024 254B     		ldr	r3, .L311
 3476              	.LVL469:
 3477 0026 1B78     		ldrb	r3, [r3]	@ zero_extendqisi2
 3478 0028 181A     		subs	r0, r3, r0
 3479              	.LVL470:
ARM GAS  C:\Users\FRANKL~1\AppData\Local\Temp\ccebBo1q.s 			page 88


 3480 002a 0138     		subs	r0, r0, #1
 3481 002c C0B2     		uxtb	r0, r0
 3482 002e FFF7FEFF 		bl	Set_Ref_Raw
 3483              	.LVL471:
 609:main.c        **** 	} else if (absolute < 0) {
 3484              		.loc 2 609 0
 3485 0032 FF20     		movs	r0, #255
 3486 0034 FFF7FEFF 		bl	Set_Vds_Raw
 3487              	.LVL472:
 3488 0038 0EE0     		b	.L294
 3489              	.LVL473:
 3490              	.L293:
 610:main.c        **** 		Set_Ref_Raw(VDAC_Ref_Data - absolute);
 3491              		.loc 2 610 0
 3492 003a 002B     		cmp	r3, #0
 3493 003c 09DA     		bge	.L295
 611:main.c        **** 		Set_Vds_Raw(0);
 3494              		.loc 2 611 0
 3495 003e 1F4B     		ldr	r3, .L311
 3496              	.LVL474:
 3497 0040 1B78     		ldrb	r3, [r3]	@ zero_extendqisi2
 3498 0042 181A     		subs	r0, r3, r0
 3499              	.LVL475:
 3500 0044 C0B2     		uxtb	r0, r0
 3501 0046 FFF7FEFF 		bl	Set_Ref_Raw
 3502              	.LVL476:
 612:main.c        **** 	} else {
 3503              		.loc 2 612 0
 3504 004a 0020     		movs	r0, #0
 3505 004c FFF7FEFF 		bl	Set_Vds_Raw
 3506              	.LVL477:
 3507 0050 02E0     		b	.L294
 3508              	.LVL478:
 3509              	.L295:
 614:main.c        **** 	}
 3510              		.loc 2 614 0
 3511 0052 C0B2     		uxtb	r0, r0
 3512 0054 FFF7FEFF 		bl	Set_Vds_Raw
 3513              	.LVL479:
 3514              	.L294:
 617:main.c        **** 	
 3515              		.loc 2 617 0
 3516 0058 194B     		ldr	r3, .L311+4
 3517 005a 1C80     		strh	r4, [r3]	@ movhi
 619:main.c        **** 	uint16 Vds_maxRefRaw = Vds_Index_Goal_Relative > 0? 255 - Vds_Index_Goal_Relative: 255;
 3518              		.loc 2 619 0
 3519 005c 002C     		cmp	r4, #0
 3520 005e 02DC     		bgt	.L306
 619:main.c        **** 	uint16 Vds_maxRefRaw = Vds_Index_Goal_Relative > 0? 255 - Vds_Index_Goal_Relative: 255;
 3521              		.loc 2 619 0 is_stmt 0 discriminator 1
 3522 0060 6E42     		negs	r6, r5
 3523 0062 B6B2     		uxth	r6, r6
 3524 0064 00E0     		b	.L296
 3525              	.L306:
 619:main.c        **** 	uint16 Vds_maxRefRaw = Vds_Index_Goal_Relative > 0? 255 - Vds_Index_Goal_Relative: 255;
 3526              		.loc 2 619 0
 3527 0066 0026     		movs	r6, #0
ARM GAS  C:\Users\FRANKL~1\AppData\Local\Temp\ccebBo1q.s 			page 89


 3528              	.L296:
 3529              	.LVL480:
 620:main.c        **** 	uint16 Vgs_minRefRaw = Vgs_Index_Goal_Relative > 0? 0: -Vgs_Index_Goal_Relative;
 3530              		.loc 2 620 0 is_stmt 1 discriminator 4
 3531 0068 002C     		cmp	r4, #0
 3532 006a 03DD     		ble	.L307
 620:main.c        **** 	uint16 Vgs_minRefRaw = Vgs_Index_Goal_Relative > 0? 0: -Vgs_Index_Goal_Relative;
 3533              		.loc 2 620 0 is_stmt 0 discriminator 1
 3534 006c C5F1FF00 		rsb	r0, r5, #255
 3535 0070 80B2     		uxth	r0, r0
 3536 0072 00E0     		b	.L297
 3537              	.L307:
 620:main.c        **** 	uint16 Vgs_minRefRaw = Vgs_Index_Goal_Relative > 0? 0: -Vgs_Index_Goal_Relative;
 3538              		.loc 2 620 0
 3539 0074 FF20     		movs	r0, #255
 3540              	.L297:
 3541              	.LVL481:
 621:main.c        **** 	uint16 Vgs_maxRefRaw = Vgs_Index_Goal_Relative > 0? 255 - Vgs_Index_Goal_Relative: 255;
 3542              		.loc 2 621 0 is_stmt 1 discriminator 4
 3543 0076 134B     		ldr	r3, .L311+8
 3544 0078 B3F90030 		ldrsh	r3, [r3]
 3545 007c 002B     		cmp	r3, #0
 3546 007e 02DC     		bgt	.L308
 621:main.c        **** 	uint16 Vgs_maxRefRaw = Vgs_Index_Goal_Relative > 0? 255 - Vgs_Index_Goal_Relative: 255;
 3547              		.loc 2 621 0 is_stmt 0 discriminator 1
 3548 0080 5A42     		negs	r2, r3
 3549 0082 92B2     		uxth	r2, r2
 3550 0084 00E0     		b	.L298
 3551              	.L308:
 621:main.c        **** 	uint16 Vgs_maxRefRaw = Vgs_Index_Goal_Relative > 0? 255 - Vgs_Index_Goal_Relative: 255;
 3552              		.loc 2 621 0
 3553 0086 0022     		movs	r2, #0
 3554              	.L298:
 3555              	.LVL482:
 622:main.c        **** 	
 3556              		.loc 2 622 0 is_stmt 1 discriminator 4
 3557 0088 002B     		cmp	r3, #0
 3558 008a 03DD     		ble	.L309
 622:main.c        **** 	
 3559              		.loc 2 622 0 is_stmt 0 discriminator 1
 3560 008c C3F1FF03 		rsb	r3, r3, #255
 3561 0090 9BB2     		uxth	r3, r3
 3562 0092 00E0     		b	.L299
 3563              	.L309:
 622:main.c        **** 	
 3564              		.loc 2 622 0
 3565 0094 FF23     		movs	r3, #255
 3566              	.L299:
 3567              	.LVL483:
 624:main.c        **** 	
 3568              		.loc 2 624 0 is_stmt 1 discriminator 4
 3569 0096 0949     		ldr	r1, .L311
 3570 0098 0978     		ldrb	r1, [r1]	@ zero_extendqisi2
 3571              	.LVL484:
 626:main.c        **** 	if (newRefRaw > Vgs_maxRefRaw) newRefRaw = Vgs_maxRefRaw;
 3572              		.loc 2 626 0 discriminator 4
 3573 009a 8A42     		cmp	r2, r1
ARM GAS  C:\Users\FRANKL~1\AppData\Local\Temp\ccebBo1q.s 			page 90


 3574 009c 00D8     		bhi	.L300
 624:main.c        **** 	
 3575              		.loc 2 624 0
 3576 009e 0A46     		mov	r2, r1
 3577              	.LVL485:
 3578              	.L300:
 627:main.c        **** 	if (newRefRaw < Vds_minRefRaw) newRefRaw = Vds_minRefRaw;
 3579              		.loc 2 627 0
 3580 00a0 9A42     		cmp	r2, r3
 3581 00a2 00D8     		bhi	.L301
 3582 00a4 1346     		mov	r3, r2
 3583              	.LVL486:
 3584              	.L301:
 628:main.c        **** 	if (newRefRaw > Vds_maxRefRaw) newRefRaw = Vds_maxRefRaw;
 3585              		.loc 2 628 0
 3586 00a6 B342     		cmp	r3, r6
 3587 00a8 00D3     		bcc	.L302
 3588 00aa 1E46     		mov	r6, r3
 3589              	.LVL487:
 3590              	.L302:
 629:main.c        **** 	
 3591              		.loc 2 629 0
 3592 00ac 8642     		cmp	r6, r0
 3593 00ae 00D8     		bhi	.L303
 3594 00b0 3046     		mov	r0, r6
 3595              	.LVL488:
 3596              	.L303:
 631:main.c        **** }
 3597              		.loc 2 631 0
 3598 00b2 C0B2     		uxtb	r0, r0
 3599              	.LVL489:
 3600 00b4 FFF7FEFF 		bl	Set_Ref_Raw
 3601              	.LVL490:
 3602 00b8 70BD     		pop	{r4, r5, r6, pc}
 3603              	.LVL491:
 3604              	.L312:
 3605 00ba 00BF     		.align	2
 3606              	.L311:
 3607 00bc 825B0040 		.word	1073765250
 3608 00c0 00000000 		.word	Vds_Index_Goal_Relative
 3609 00c4 00000000 		.word	Vgs_Index_Goal_Relative
 3610              		.cfi_endproc
 3611              	.LFE99:
 3612              		.size	Set_Vds_Rel, .-Set_Vds_Rel
 3613              		.section	.text.Set_Vgs_Rel,"ax",%progbits
 3614              		.align	2
 3615              		.global	Set_Vgs_Rel
 3616              		.thumb
 3617              		.thumb_func
 3618              		.type	Set_Vgs_Rel, %function
 3619              	Set_Vgs_Rel:
 3620              	.LFB100:
 635:main.c        **** 	if (value > 255) value = 255;
 3621              		.loc 2 635 0
 3622              		.cfi_startproc
 3623              		@ args = 0, pretend = 0, frame = 0
 3624              		@ frame_needed = 0, uses_anonymous_args = 0
ARM GAS  C:\Users\FRANKL~1\AppData\Local\Temp\ccebBo1q.s 			page 91


 3625              	.LVL492:
 3626 0000 70B5     		push	{r4, r5, r6, lr}
 3627              		.cfi_def_cfa_offset 16
 3628              		.cfi_offset 4, -16
 3629              		.cfi_offset 5, -12
 3630              		.cfi_offset 6, -8
 3631              		.cfi_offset 14, -4
 3632 0002 0446     		mov	r4, r0
 636:main.c        **** 	if (value < -255) value = -255;
 3633              		.loc 2 636 0
 3634 0004 FF28     		cmp	r0, #255
 3635 0006 00DD     		ble	.L314
 3636 0008 FF24     		movs	r4, #255
 3637              	.L314:
 3638              	.LVL493:
 637:main.c        **** 	
 3639              		.loc 2 637 0
 3640 000a 14F1FF0F 		cmn	r4, #255
 3641 000e 01DA     		bge	.L315
 3642 0010 6FF0FE04 		mvn	r4, #254
 3643              	.LVL494:
 3644              	.L315:
 639:main.c        **** 	
 3645              		.loc 2 639 0
 3646 0014 294B     		ldr	r3, .L334
 3647 0016 1878     		ldrb	r0, [r3]	@ zero_extendqisi2
 3648 0018 A5B2     		uxth	r5, r4
 3649 001a 2844     		add	r0, r0, r5
 3650 001c 80B2     		uxth	r0, r0
 3651 001e 03B2     		sxth	r3, r0
 3652              	.LVL495:
 641:main.c        **** 		Set_Ref_Raw(VDAC_Ref_Data - (absolute - 255));
 3653              		.loc 2 641 0
 3654 0020 FF2B     		cmp	r3, #255
 3655 0022 0ADD     		ble	.L316
 642:main.c        **** 		Set_Vgs_Raw(255);
 3656              		.loc 2 642 0
 3657 0024 254B     		ldr	r3, .L334
 3658              	.LVL496:
 3659 0026 1B78     		ldrb	r3, [r3]	@ zero_extendqisi2
 3660 0028 181A     		subs	r0, r3, r0
 3661              	.LVL497:
 3662 002a 0138     		subs	r0, r0, #1
 3663 002c C0B2     		uxtb	r0, r0
 3664 002e FFF7FEFF 		bl	Set_Ref_Raw
 3665              	.LVL498:
 643:main.c        **** 	} else if (absolute < 0) {
 3666              		.loc 2 643 0
 3667 0032 FF20     		movs	r0, #255
 3668 0034 FFF7FEFF 		bl	Set_Vgs_Raw
 3669              	.LVL499:
 3670 0038 0EE0     		b	.L317
 3671              	.LVL500:
 3672              	.L316:
 644:main.c        **** 		Set_Ref_Raw(VDAC_Ref_Data - absolute);
 3673              		.loc 2 644 0
 3674 003a 002B     		cmp	r3, #0
ARM GAS  C:\Users\FRANKL~1\AppData\Local\Temp\ccebBo1q.s 			page 92


 3675 003c 09DA     		bge	.L318
 645:main.c        **** 		Set_Vgs_Raw(0);
 3676              		.loc 2 645 0
 3677 003e 1F4B     		ldr	r3, .L334
 3678              	.LVL501:
 3679 0040 1B78     		ldrb	r3, [r3]	@ zero_extendqisi2
 3680 0042 181A     		subs	r0, r3, r0
 3681              	.LVL502:
 3682 0044 C0B2     		uxtb	r0, r0
 3683 0046 FFF7FEFF 		bl	Set_Ref_Raw
 3684              	.LVL503:
 646:main.c        **** 	} else {
 3685              		.loc 2 646 0
 3686 004a 0020     		movs	r0, #0
 3687 004c FFF7FEFF 		bl	Set_Vgs_Raw
 3688              	.LVL504:
 3689 0050 02E0     		b	.L317
 3690              	.LVL505:
 3691              	.L318:
 648:main.c        **** 	}
 3692              		.loc 2 648 0
 3693 0052 C0B2     		uxtb	r0, r0
 3694 0054 FFF7FEFF 		bl	Set_Vgs_Raw
 3695              	.LVL506:
 3696              	.L317:
 651:main.c        **** 	
 3697              		.loc 2 651 0
 3698 0058 194B     		ldr	r3, .L334+4
 3699 005a 1C80     		strh	r4, [r3]	@ movhi
 653:main.c        **** 	uint16 Vds_maxRefRaw = Vds_Index_Goal_Relative > 0? 255 - Vds_Index_Goal_Relative: 255;
 3700              		.loc 2 653 0
 3701 005c 194B     		ldr	r3, .L334+8
 3702 005e B3F90030 		ldrsh	r3, [r3]
 3703 0062 002B     		cmp	r3, #0
 3704 0064 02DC     		bgt	.L329
 653:main.c        **** 	uint16 Vds_maxRefRaw = Vds_Index_Goal_Relative > 0? 255 - Vds_Index_Goal_Relative: 255;
 3705              		.loc 2 653 0 is_stmt 0 discriminator 1
 3706 0066 5A42     		negs	r2, r3
 3707 0068 92B2     		uxth	r2, r2
 3708 006a 00E0     		b	.L319
 3709              	.L329:
 653:main.c        **** 	uint16 Vds_maxRefRaw = Vds_Index_Goal_Relative > 0? 255 - Vds_Index_Goal_Relative: 255;
 3710              		.loc 2 653 0
 3711 006c 0022     		movs	r2, #0
 3712              	.L319:
 3713              	.LVL507:
 654:main.c        **** 	uint16 Vgs_minRefRaw = Vgs_Index_Goal_Relative > 0? 0: -Vgs_Index_Goal_Relative;
 3714              		.loc 2 654 0 is_stmt 1 discriminator 4
 3715 006e 002B     		cmp	r3, #0
 3716 0070 03DD     		ble	.L330
 654:main.c        **** 	uint16 Vgs_minRefRaw = Vgs_Index_Goal_Relative > 0? 0: -Vgs_Index_Goal_Relative;
 3717              		.loc 2 654 0 is_stmt 0 discriminator 1
 3718 0072 C3F1FF03 		rsb	r3, r3, #255
 3719 0076 9BB2     		uxth	r3, r3
 3720 0078 00E0     		b	.L320
 3721              	.L330:
 654:main.c        **** 	uint16 Vgs_minRefRaw = Vgs_Index_Goal_Relative > 0? 0: -Vgs_Index_Goal_Relative;
ARM GAS  C:\Users\FRANKL~1\AppData\Local\Temp\ccebBo1q.s 			page 93


 3722              		.loc 2 654 0
 3723 007a FF23     		movs	r3, #255
 3724              	.L320:
 3725              	.LVL508:
 655:main.c        **** 	uint16 Vgs_maxRefRaw = Vgs_Index_Goal_Relative > 0? 255 - Vgs_Index_Goal_Relative: 255;
 3726              		.loc 2 655 0 is_stmt 1 discriminator 4
 3727 007c 002C     		cmp	r4, #0
 3728 007e 02DC     		bgt	.L331
 655:main.c        **** 	uint16 Vgs_maxRefRaw = Vgs_Index_Goal_Relative > 0? 255 - Vgs_Index_Goal_Relative: 255;
 3729              		.loc 2 655 0 is_stmt 0 discriminator 1
 3730 0080 6E42     		negs	r6, r5
 3731 0082 B6B2     		uxth	r6, r6
 3732 0084 00E0     		b	.L321
 3733              	.L331:
 655:main.c        **** 	uint16 Vgs_maxRefRaw = Vgs_Index_Goal_Relative > 0? 255 - Vgs_Index_Goal_Relative: 255;
 3734              		.loc 2 655 0
 3735 0086 0026     		movs	r6, #0
 3736              	.L321:
 3737              	.LVL509:
 656:main.c        **** 	
 3738              		.loc 2 656 0 is_stmt 1 discriminator 4
 3739 0088 002C     		cmp	r4, #0
 3740 008a 03DD     		ble	.L332
 656:main.c        **** 	
 3741              		.loc 2 656 0 is_stmt 0 discriminator 1
 3742 008c C5F1FF00 		rsb	r0, r5, #255
 3743 0090 80B2     		uxth	r0, r0
 3744 0092 00E0     		b	.L322
 3745              	.L332:
 656:main.c        **** 	
 3746              		.loc 2 656 0
 3747 0094 FF20     		movs	r0, #255
 3748              	.L322:
 3749              	.LVL510:
 658:main.c        **** 	
 3750              		.loc 2 658 0 is_stmt 1 discriminator 4
 3751 0096 0949     		ldr	r1, .L334
 3752 0098 0978     		ldrb	r1, [r1]	@ zero_extendqisi2
 3753              	.LVL511:
 660:main.c        **** 	if (newRefRaw > Vds_maxRefRaw) newRefRaw = Vds_maxRefRaw;
 3754              		.loc 2 660 0 discriminator 4
 3755 009a 8A42     		cmp	r2, r1
 3756 009c 00D8     		bhi	.L323
 658:main.c        **** 	
 3757              		.loc 2 658 0
 3758 009e 0A46     		mov	r2, r1
 3759              	.LVL512:
 3760              	.L323:
 661:main.c        **** 	if (newRefRaw < Vgs_minRefRaw) newRefRaw = Vgs_minRefRaw;
 3761              		.loc 2 661 0
 3762 00a0 9A42     		cmp	r2, r3
 3763 00a2 00D8     		bhi	.L324
 3764 00a4 1346     		mov	r3, r2
 3765              	.LVL513:
 3766              	.L324:
 662:main.c        **** 	if (newRefRaw > Vgs_maxRefRaw) newRefRaw = Vgs_maxRefRaw;
 3767              		.loc 2 662 0
ARM GAS  C:\Users\FRANKL~1\AppData\Local\Temp\ccebBo1q.s 			page 94


 3768 00a6 B342     		cmp	r3, r6
 3769 00a8 00D3     		bcc	.L325
 3770 00aa 1E46     		mov	r6, r3
 3771              	.LVL514:
 3772              	.L325:
 663:main.c        **** 	
 3773              		.loc 2 663 0
 3774 00ac 8642     		cmp	r6, r0
 3775 00ae 00D8     		bhi	.L326
 3776 00b0 3046     		mov	r0, r6
 3777              	.LVL515:
 3778              	.L326:
 665:main.c        **** }
 3779              		.loc 2 665 0
 3780 00b2 C0B2     		uxtb	r0, r0
 3781              	.LVL516:
 3782 00b4 FFF7FEFF 		bl	Set_Ref_Raw
 3783              	.LVL517:
 3784 00b8 70BD     		pop	{r4, r5, r6, pc}
 3785              	.LVL518:
 3786              	.L335:
 3787 00ba 00BF     		.align	2
 3788              	.L334:
 3789 00bc 825B0040 		.word	1073765250
 3790 00c0 00000000 		.word	Vgs_Index_Goal_Relative
 3791 00c4 00000000 		.word	Vds_Index_Goal_Relative
 3792              		.cfi_endproc
 3793              	.LFE100:
 3794              		.size	Set_Vgs_Rel, .-Set_Vgs_Rel
 3795              		.global	__aeabi_d2iz
 3796              		.section	.text.Set_Vgs,"ax",%progbits
 3797              		.align	2
 3798              		.global	Set_Vgs
 3799              		.thumb
 3800              		.thumb_func
 3801              		.type	Set_Vgs, %function
 3802              	Set_Vgs:
 3803              	.LFB101:
 670:main.c        **** 	Set_Vgs_Rel((voltage/4.080)*255.0);
 3804              		.loc 2 670 0
 3805              		.cfi_startproc
 3806              		@ args = 0, pretend = 0, frame = 0
 3807              		@ frame_needed = 0, uses_anonymous_args = 0
 3808              	.LVL519:
 3809 0000 08B5     		push	{r3, lr}
 3810              		.cfi_def_cfa_offset 8
 3811              		.cfi_offset 3, -8
 3812              		.cfi_offset 14, -4
 671:main.c        **** }
 3813              		.loc 2 671 0
 3814 0002 FFF7FEFF 		bl	__aeabi_f2d
 3815              	.LVL520:
 3816 0006 08A3     		adr	r3, .L338
 3817 0008 D3E90023 		ldrd	r2, [r3]
 3818 000c FFF7FEFF 		bl	__aeabi_ddiv
 3819              	.LVL521:
 3820 0010 07A3     		adr	r3, .L338+8
ARM GAS  C:\Users\FRANKL~1\AppData\Local\Temp\ccebBo1q.s 			page 95


 3821 0012 D3E90023 		ldrd	r2, [r3]
 3822 0016 FFF7FEFF 		bl	__aeabi_dmul
 3823              	.LVL522:
 3824 001a FFF7FEFF 		bl	__aeabi_d2iz
 3825              	.LVL523:
 3826 001e 00B2     		sxth	r0, r0
 3827 0020 FFF7FEFF 		bl	Set_Vgs_Rel
 3828              	.LVL524:
 3829 0024 08BD     		pop	{r3, pc}
 3830              	.L339:
 3831 0026 00BF     		.align	3
 3832              	.L338:
 3833 0028 52B81E85 		.word	-2061584302
 3834 002c EB511040 		.word	1074811371
 3835 0030 00000000 		.word	0
 3836 0034 00E06F40 		.word	1081073664
 3837              		.cfi_endproc
 3838              	.LFE101:
 3839              		.size	Set_Vgs, .-Set_Vgs
 3840              		.section	.text.Set_Vds,"ax",%progbits
 3841              		.align	2
 3842              		.global	Set_Vds
 3843              		.thumb
 3844              		.thumb_func
 3845              		.type	Set_Vds, %function
 3846              	Set_Vds:
 3847              	.LFB102:
 675:main.c        **** 	Set_Vds_Rel((voltage/4.080)*255.0);
 3848              		.loc 2 675 0
 3849              		.cfi_startproc
 3850              		@ args = 0, pretend = 0, frame = 0
 3851              		@ frame_needed = 0, uses_anonymous_args = 0
 3852              	.LVL525:
 3853 0000 08B5     		push	{r3, lr}
 3854              		.cfi_def_cfa_offset 8
 3855              		.cfi_offset 3, -8
 3856              		.cfi_offset 14, -4
 676:main.c        **** }
 3857              		.loc 2 676 0
 3858 0002 FFF7FEFF 		bl	__aeabi_f2d
 3859              	.LVL526:
 3860 0006 08A3     		adr	r3, .L342
 3861 0008 D3E90023 		ldrd	r2, [r3]
 3862 000c FFF7FEFF 		bl	__aeabi_ddiv
 3863              	.LVL527:
 3864 0010 07A3     		adr	r3, .L342+8
 3865 0012 D3E90023 		ldrd	r2, [r3]
 3866 0016 FFF7FEFF 		bl	__aeabi_dmul
 3867              	.LVL528:
 3868 001a FFF7FEFF 		bl	__aeabi_d2iz
 3869              	.LVL529:
 3870 001e 00B2     		sxth	r0, r0
 3871 0020 FFF7FEFF 		bl	Set_Vds_Rel
 3872              	.LVL530:
 3873 0024 08BD     		pop	{r3, pc}
 3874              	.L343:
 3875 0026 00BF     		.align	3
ARM GAS  C:\Users\FRANKL~1\AppData\Local\Temp\ccebBo1q.s 			page 96


 3876              	.L342:
 3877 0028 52B81E85 		.word	-2061584302
 3878 002c EB511040 		.word	1074811371
 3879 0030 00000000 		.word	0
 3880 0034 00E06F40 		.word	1081073664
 3881              		.cfi_endproc
 3882              	.LFE102:
 3883              		.size	Set_Vds, .-Set_Vds
 3884              		.section	.text.Set_Vgs_mV,"ax",%progbits
 3885              		.align	2
 3886              		.global	Set_Vgs_mV
 3887              		.thumb
 3888              		.thumb_func
 3889              		.type	Set_Vgs_mV, %function
 3890              	Set_Vgs_mV:
 3891              	.LFB103:
 681:main.c        **** 	Set_Vgs(mV/1000.0);
 3892              		.loc 2 681 0
 3893              		.cfi_startproc
 3894              		@ args = 0, pretend = 0, frame = 0
 3895              		@ frame_needed = 0, uses_anonymous_args = 0
 3896              	.LVL531:
 3897 0000 08B5     		push	{r3, lr}
 3898              		.cfi_def_cfa_offset 8
 3899              		.cfi_offset 3, -8
 3900              		.cfi_offset 14, -4
 682:main.c        **** }
 3901              		.loc 2 682 0
 3902 0002 0349     		ldr	r1, .L346
 3903 0004 FFF7FEFF 		bl	__aeabi_fdiv
 3904              	.LVL532:
 3905 0008 FFF7FEFF 		bl	Set_Vgs
 3906              	.LVL533:
 3907 000c 08BD     		pop	{r3, pc}
 3908              	.L347:
 3909 000e 00BF     		.align	2
 3910              	.L346:
 3911 0010 00007A44 		.word	1148846080
 3912              		.cfi_endproc
 3913              	.LFE103:
 3914              		.size	Set_Vgs_mV, .-Set_Vgs_mV
 3915              		.section	.text.Set_Vds_mV,"ax",%progbits
 3916              		.align	2
 3917              		.global	Set_Vds_mV
 3918              		.thumb
 3919              		.thumb_func
 3920              		.type	Set_Vds_mV, %function
 3921              	Set_Vds_mV:
 3922              	.LFB104:
 686:main.c        **** 	Set_Vds(mV/1000.0);
 3923              		.loc 2 686 0
 3924              		.cfi_startproc
 3925              		@ args = 0, pretend = 0, frame = 0
 3926              		@ frame_needed = 0, uses_anonymous_args = 0
 3927              	.LVL534:
 3928 0000 08B5     		push	{r3, lr}
 3929              		.cfi_def_cfa_offset 8
ARM GAS  C:\Users\FRANKL~1\AppData\Local\Temp\ccebBo1q.s 			page 97


 3930              		.cfi_offset 3, -8
 3931              		.cfi_offset 14, -4
 687:main.c        **** }
 3932              		.loc 2 687 0
 3933 0002 0349     		ldr	r1, .L350
 3934 0004 FFF7FEFF 		bl	__aeabi_fdiv
 3935              	.LVL535:
 3936 0008 FFF7FEFF 		bl	Set_Vds
 3937              	.LVL536:
 3938 000c 08BD     		pop	{r3, pc}
 3939              	.L351:
 3940 000e 00BF     		.align	2
 3941              	.L350:
 3942 0010 00007A44 		.word	1148846080
 3943              		.cfi_endproc
 3944              	.LFE104:
 3945              		.size	Set_Vds_mV, .-Set_Vds_mV
 3946              		.section	.text.Zero_All_DACs,"ax",%progbits
 3947              		.align	2
 3948              		.global	Zero_All_DACs
 3949              		.thumb
 3950              		.thumb_func
 3951              		.type	Zero_All_DACs, %function
 3952              	Zero_All_DACs:
 3953              	.LFB105:
 692:main.c        **** 	Set_Vds_Raw(0);
 3954              		.loc 2 692 0
 3955              		.cfi_startproc
 3956              		@ args = 0, pretend = 0, frame = 0
 3957              		@ frame_needed = 0, uses_anonymous_args = 0
 3958 0000 08B5     		push	{r3, lr}
 3959              		.cfi_def_cfa_offset 8
 3960              		.cfi_offset 3, -8
 3961              		.cfi_offset 14, -4
 693:main.c        **** 	Set_Vgs_Raw(0);
 3962              		.loc 2 693 0
 3963 0002 0020     		movs	r0, #0
 3964 0004 FFF7FEFF 		bl	Set_Vds_Raw
 3965              	.LVL537:
 694:main.c        **** 	
 3966              		.loc 2 694 0
 3967 0008 0020     		movs	r0, #0
 3968 000a FFF7FEFF 		bl	Set_Vgs_Raw
 3969              	.LVL538:
 696:main.c        **** 	VDAC_Vgs_SetValue(0);
 3970              		.loc 2 696 0
 3971 000e 0020     		movs	r0, #0
 3972 0010 FFF7FEFF 		bl	VDAC_Vds_SetValue
 3973              	.LVL539:
 697:main.c        **** }
 3974              		.loc 2 697 0
 3975 0014 0020     		movs	r0, #0
 3976 0016 FFF7FEFF 		bl	VDAC_Vgs_SetValue
 3977              	.LVL540:
 3978 001a 08BD     		pop	{r3, pc}
 3979              		.cfi_endproc
 3980              	.LFE105:
ARM GAS  C:\Users\FRANKL~1\AppData\Local\Temp\ccebBo1q.s 			page 98


 3981              		.size	Zero_All_DACs, .-Zero_All_DACs
 3982              		.section	.text.Calibrate_ADC_Offset,"ax",%progbits
 3983              		.align	2
 3984              		.global	Calibrate_ADC_Offset
 3985              		.thumb
 3986              		.thumb_func
 3987              		.type	Calibrate_ADC_Offset, %function
 3988              	Calibrate_ADC_Offset:
 3989              	.LFB106:
 700:main.c        **** 	uint8 current_range_resistor = TIA_Selected_Resistor;
 3990              		.loc 2 700 0
 3991              		.cfi_startproc
 3992              		@ args = 0, pretend = 0, frame = 8
 3993              		@ frame_needed = 0, uses_anonymous_args = 0
 3994              	.LVL541:
 3995 0000 2DE9F041 		push	{r4, r5, r6, r7, r8, lr}
 3996              		.cfi_def_cfa_offset 24
 3997              		.cfi_offset 4, -24
 3998              		.cfi_offset 5, -20
 3999              		.cfi_offset 6, -16
 4000              		.cfi_offset 7, -12
 4001              		.cfi_offset 8, -8
 4002              		.cfi_offset 14, -4
 4003 0004 84B0     		sub	sp, sp, #16
 4004              		.cfi_def_cfa_offset 40
 4005 0006 0746     		mov	r7, r0
 701:main.c        **** 	
 4006              		.loc 2 701 0
 4007 0008 2C4B     		ldr	r3, .L358
 4008 000a 93F80480 		ldrb	r8, [r3, #4]	@ zero_extendqisi2
 4009              	.LVL542:
 704:main.c        **** 	Set_Vgs(0);
 4010              		.loc 2 704 0
 4011 000e 0024     		movs	r4, #0
 4012 0010 2046     		mov	r0, r4
 4013              	.LVL543:
 4014 0012 FFF7FEFF 		bl	Set_Vds
 4015              	.LVL544:
 705:main.c        **** 	
 4016              		.loc 2 705 0
 4017 0016 2046     		mov	r0, r4
 4018 0018 FFF7FEFF 		bl	Set_Vgs
 4019              	.LVL545:
 708:main.c        **** 	int32 voltageSD = 0;
 4020              		.loc 2 708 0
 4021 001c 0024     		movs	r4, #0
 4022 001e 0394     		str	r4, [sp, #12]
 709:main.c        **** 	
 4023              		.loc 2 709 0
 4024 0020 0294     		str	r4, [sp, #8]
 4025              	.LVL546:
 4026              	.LBB47:
 712:main.c        **** 		TIA_Set_Resistor(i);
 4027              		.loc 2 712 0
 4028 0022 2BE0     		b	.L355
 4029              	.LVL547:
 4030              	.L356:
ARM GAS  C:\Users\FRANKL~1\AppData\Local\Temp\ccebBo1q.s 			page 99


 713:main.c        **** 		// Take a few measurements to discard any problems with the initial measurements
 4031              		.loc 2 713 0 discriminator 3
 4032 0024 2046     		mov	r0, r4
 4033 0026 FFF7FEFF 		bl	TIA_Set_Resistor
 4034              	.LVL548:
 715:main.c        **** 		ADC_Measure_uV(&voltage, &voltageSD, sampleCount);
 4035              		.loc 2 715 0 discriminator 3
 4036 002a 0322     		movs	r2, #3
 4037 002c 02A9     		add	r1, sp, #8
 4038 002e 03A8     		add	r0, sp, #12
 4039 0030 FFF7FEFF 		bl	ADC_Measure_uV
 4040              	.LVL549:
 716:main.c        **** 		TIA_Offsets_uV[i] = -voltage;
 4041              		.loc 2 716 0 discriminator 3
 4042 0034 3A46     		mov	r2, r7
 4043 0036 02A9     		add	r1, sp, #8
 4044 0038 03A8     		add	r0, sp, #12
 4045 003a FFF7FEFF 		bl	ADC_Measure_uV
 4046              	.LVL550:
 717:main.c        **** 		sprintf(TransmitBuffer, "# Offset %e Ohm: %li uV\r\n", TIA_Resistor_Values[i], -voltage);
 4047              		.loc 2 717 0 discriminator 3
 4048 003e 039E     		ldr	r6, [sp, #12]
 4049 0040 7642     		negs	r6, r6
 4050 0042 A300     		lsls	r3, r4, #2
 4051 0044 1D4A     		ldr	r2, .L358
 4052 0046 1A44     		add	r2, r2, r3
 4053 0048 9660     		str	r6, [r2, #8]
 718:main.c        **** 		USBUARTH_Send(TransmitBuffer, strlen(TransmitBuffer));
 4054              		.loc 2 718 0 discriminator 3
 4055 004a 1D4A     		ldr	r2, .L358+4
 4056 004c 1344     		add	r3, r3, r2
 4057 004e 9868     		ldr	r0, [r3, #8]	@ float
 4058 0050 FFF7FEFF 		bl	__aeabi_f2d
 4059              	.LVL551:
 4060 0054 1B4D     		ldr	r5, .L358+8
 4061 0056 0096     		str	r6, [sp]
 4062 0058 0246     		mov	r2, r0
 4063 005a 0B46     		mov	r3, r1
 4064 005c 1A49     		ldr	r1, .L358+12
 4065 005e 2846     		mov	r0, r5
 4066 0060 FFF7FEFF 		bl	sprintf
 4067              	.LVL552:
 719:main.c        **** 		UART_1_PutString(TransmitBuffer);
 4068              		.loc 2 719 0 discriminator 3
 4069 0064 2846     		mov	r0, r5
 4070 0066 FFF7FEFF 		bl	strlen
 4071              	.LVL553:
 4072 006a 81B2     		uxth	r1, r0
 4073 006c 2846     		mov	r0, r5
 4074 006e FFF7FEFF 		bl	USBUARTH_Send
 4075              	.LVL554:
 720:main.c        **** 	}
 4076              		.loc 2 720 0 discriminator 3
 4077 0072 2846     		mov	r0, r5
 4078 0074 FFF7FEFF 		bl	UART_1_PutString
 4079              	.LVL555:
 712:main.c        **** 		TIA_Set_Resistor(i);
ARM GAS  C:\Users\FRANKL~1\AppData\Local\Temp\ccebBo1q.s 			page 100


 4080              		.loc 2 712 0 discriminator 3
 4081 0078 0134     		adds	r4, r4, #1
 4082              	.LVL556:
 4083 007a E4B2     		uxtb	r4, r4
 4084              	.LVL557:
 4085              	.L355:
 712:main.c        **** 		TIA_Set_Resistor(i);
 4086              		.loc 2 712 0 is_stmt 0 discriminator 1
 4087 007c 072C     		cmp	r4, #7
 4088 007e D1D9     		bls	.L356
 4089              	.LBE47:
 724:main.c        **** 	
 4090              		.loc 2 724 0 is_stmt 1
 4091 0080 4046     		mov	r0, r8
 4092 0082 FFF7FEFF 		bl	TIA_Set_Resistor
 4093              	.LVL558:
 726:main.c        **** 	USBUARTH_Send(TransmitBuffer, strlen(TransmitBuffer));
 4094              		.loc 2 726 0
 4095 0086 0F4D     		ldr	r5, .L358+8
 4096 0088 104C     		ldr	r4, .L358+16
 4097              	.LVL559:
 4098 008a 0FCC     		ldmia	r4!, {r0, r1, r2, r3}
 4099 008c 2860     		str	r0, [r5]	@ unaligned
 4100 008e 6960     		str	r1, [r5, #4]	@ unaligned
 4101 0090 AA60     		str	r2, [r5, #8]	@ unaligned
 4102 0092 EB60     		str	r3, [r5, #12]	@ unaligned
 4103 0094 03CC     		ldmia	r4!, {r0, r1}
 4104 0096 2861     		str	r0, [r5, #16]	@ unaligned
 4105 0098 6961     		str	r1, [r5, #20]	@ unaligned
 4106 009a 2288     		ldrh	r2, [r4]	@ unaligned
 4107 009c A378     		ldrb	r3, [r4, #2]	@ zero_extendqisi2
 4108 009e 2A83     		strh	r2, [r5, #24]	@ unaligned
 4109 00a0 AB76     		strb	r3, [r5, #26]
 727:main.c        **** 	UART_1_PutString(TransmitBuffer);
 4110              		.loc 2 727 0
 4111 00a2 2846     		mov	r0, r5
 4112 00a4 FFF7FEFF 		bl	strlen
 4113              	.LVL560:
 4114 00a8 81B2     		uxth	r1, r0
 4115 00aa 2846     		mov	r0, r5
 4116 00ac FFF7FEFF 		bl	USBUARTH_Send
 4117              	.LVL561:
 728:main.c        **** }
 4118              		.loc 2 728 0
 4119 00b0 2846     		mov	r0, r5
 4120 00b2 FFF7FEFF 		bl	UART_1_PutString
 4121              	.LVL562:
 729:main.c        **** 
 4122              		.loc 2 729 0
 4123 00b6 04B0     		add	sp, sp, #16
 4124              		.cfi_def_cfa_offset 24
 4125              		@ sp needed
 4126 00b8 BDE8F081 		pop	{r4, r5, r6, r7, r8, pc}
 4127              	.LVL563:
 4128              	.L359:
 4129              		.align	2
 4130              	.L358:
ARM GAS  C:\Users\FRANKL~1\AppData\Local\Temp\ccebBo1q.s 			page 101


 4131 00bc 00000000 		.word	.LANCHOR0
 4132 00c0 00000000 		.word	.LANCHOR1
 4133 00c4 00000000 		.word	TransmitBuffer
 4134 00c8 A8000000 		.word	.LC11
 4135 00cc C4000000 		.word	.LC12
 4136              		.cfi_endproc
 4137              	.LFE106:
 4138              		.size	Calibrate_ADC_Offset, .-Calibrate_ADC_Offset
 4139              		.section	.text.Measure,"ax",%progbits
 4140              		.align	2
 4141              		.global	Measure
 4142              		.thumb
 4143              		.thumb_func
 4144              		.type	Measure, %function
 4145              	Measure:
 4146              	.LFB107:
 732:main.c        **** 	float IdsAverageAmps = 0;
 4147              		.loc 2 732 0
 4148              		.cfi_startproc
 4149              		@ args = 0, pretend = 0, frame = 8
 4150              		@ frame_needed = 0, uses_anonymous_args = 0
 4151              	.LVL564:
 4152 0000 F0B5     		push	{r4, r5, r6, r7, lr}
 4153              		.cfi_def_cfa_offset 20
 4154              		.cfi_offset 4, -20
 4155              		.cfi_offset 5, -16
 4156              		.cfi_offset 6, -12
 4157              		.cfi_offset 7, -8
 4158              		.cfi_offset 14, -4
 4159 0002 87B0     		sub	sp, sp, #28
 4160              		.cfi_def_cfa_offset 48
 733:main.c        **** 	float IdsSDAmps = 0;
 4161              		.loc 2 733 0
 4162 0004 0023     		movs	r3, #0
 4163 0006 0593     		str	r3, [sp, #20]	@ float
 734:main.c        **** 	
 4164              		.loc 2 734 0
 4165 0008 06A9     		add	r1, sp, #24
 4166              	.LVL565:
 4167 000a 41F8083D 		str	r3, [r1, #-8]!	@ float
 736:main.c        **** 	
 4168              		.loc 2 736 0
 4169 000e 0023     		movs	r3, #0
 4170 0010 0246     		mov	r2, r0
 4171              	.LVL566:
 4172 0012 05A8     		add	r0, sp, #20
 4173              	.LVL567:
 4174 0014 FFF7FEFF 		bl	Measure_Current_Vss
 4175              	.LVL568:
 749:main.c        **** 	USBUARTH_Send(TransmitBuffer, strlen(TransmitBuffer));
 4176              		.loc 2 749 0
 4177 0018 0598     		ldr	r0, [sp, #20]	@ float
 4178 001a FFF7FEFF 		bl	__aeabi_f2d
 4179              	.LVL569:
 4180 001e 0646     		mov	r6, r0
 4181 0020 0F46     		mov	r7, r1
 4182 0022 FFF7FEFF 		bl	Get_Vgs
ARM GAS  C:\Users\FRANKL~1\AppData\Local\Temp\ccebBo1q.s 			page 102


 4183              	.LVL570:
 4184 0026 0546     		mov	r5, r0
 4185 0028 FFF7FEFF 		bl	Get_Vds
 4186              	.LVL571:
 4187 002c 0D4C     		ldr	r4, .L362
 4188 002e FFF7FEFF 		bl	__aeabi_f2d
 4189              	.LVL572:
 4190 0032 CDE90201 		strd	r0, [sp, #8]
 4191 0036 2846     		mov	r0, r5
 4192 0038 FFF7FEFF 		bl	__aeabi_f2d
 4193              	.LVL573:
 4194 003c CDE90001 		strd	r0, [sp]
 4195 0040 3246     		mov	r2, r6
 4196 0042 3B46     		mov	r3, r7
 4197 0044 0849     		ldr	r1, .L362+4
 4198 0046 2046     		mov	r0, r4
 4199 0048 FFF7FEFF 		bl	sprintf
 4200              	.LVL574:
 750:main.c        **** 	UART_1_PutString(TransmitBuffer);
 4201              		.loc 2 750 0
 4202 004c 2046     		mov	r0, r4
 4203 004e FFF7FEFF 		bl	strlen
 4204              	.LVL575:
 4205 0052 81B2     		uxth	r1, r0
 4206 0054 2046     		mov	r0, r4
 4207 0056 FFF7FEFF 		bl	USBUARTH_Send
 4208              	.LVL576:
 751:main.c        **** }
 4209              		.loc 2 751 0
 4210 005a 2046     		mov	r0, r4
 4211 005c FFF7FEFF 		bl	UART_1_PutString
 4212              	.LVL577:
 752:main.c        **** 
 4213              		.loc 2 752 0
 4214 0060 07B0     		add	sp, sp, #28
 4215              		.cfi_def_cfa_offset 20
 4216              		@ sp needed
 4217 0062 F0BD     		pop	{r4, r5, r6, r7, pc}
 4218              	.L363:
 4219              		.align	2
 4220              	.L362:
 4221 0064 00000000 		.word	TransmitBuffer
 4222 0068 E0000000 		.word	.LC13
 4223              		.cfi_endproc
 4224              	.LFE107:
 4225              		.size	Measure, .-Measure
 4226              		.section	.text.Measure_Multiple,"ax",%progbits
 4227              		.align	2
 4228              		.global	Measure_Multiple
 4229              		.thumb
 4230              		.thumb_func
 4231              		.type	Measure_Multiple, %function
 4232              	Measure_Multiple:
 4233              	.LFB108:
 755:main.c        **** 	for (uint32 i = 0; i < n; i++) {
 4234              		.loc 2 755 0
 4235              		.cfi_startproc
ARM GAS  C:\Users\FRANKL~1\AppData\Local\Temp\ccebBo1q.s 			page 103


 4236              		@ args = 0, pretend = 0, frame = 0
 4237              		@ frame_needed = 0, uses_anonymous_args = 0
 4238              	.LVL578:
 4239 0000 38B5     		push	{r3, r4, r5, lr}
 4240              		.cfi_def_cfa_offset 16
 4241              		.cfi_offset 3, -16
 4242              		.cfi_offset 4, -12
 4243              		.cfi_offset 5, -8
 4244              		.cfi_offset 14, -4
 4245 0002 0546     		mov	r5, r0
 4246              	.LVL579:
 4247              	.LBB48:
 756:main.c        **** 		Measure(100, 1, 10);
 4248              		.loc 2 756 0
 4249 0004 0024     		movs	r4, #0
 4250 0006 05E0     		b	.L365
 4251              	.LVL580:
 4252              	.L366:
 757:main.c        **** 	}
 4253              		.loc 2 757 0 discriminator 3
 4254 0008 0A22     		movs	r2, #10
 4255 000a 0121     		movs	r1, #1
 4256 000c 6420     		movs	r0, #100
 4257 000e FFF7FEFF 		bl	Measure
 4258              	.LVL581:
 756:main.c        **** 		Measure(100, 1, 10);
 4259              		.loc 2 756 0 discriminator 3
 4260 0012 0134     		adds	r4, r4, #1
 4261              	.LVL582:
 4262              	.L365:
 756:main.c        **** 		Measure(100, 1, 10);
 4263              		.loc 2 756 0 is_stmt 0 discriminator 1
 4264 0014 AC42     		cmp	r4, r5
 4265 0016 F7D3     		bcc	.L366
 4266              	.LBE48:
 759:main.c        **** 
 4267              		.loc 2 759 0 is_stmt 1
 4268 0018 38BD     		pop	{r3, r4, r5, pc}
 4269              		.cfi_endproc
 4270              	.LFE108:
 4271              		.size	Measure_Multiple, .-Measure_Multiple
 4272 001a 00BF     		.section	.text.Measure_Sweep,"ax",%progbits
 4273              		.align	2
 4274              		.global	Measure_Sweep
 4275              		.thumb
 4276              		.thumb_func
 4277              		.type	Measure_Sweep, %function
 4278              	Measure_Sweep:
 4279              	.LFB109:
 762:main.c        **** 	VDAC_Vds_SetValue(90);
 4280              		.loc 2 762 0
 4281              		.cfi_startproc
 4282              		@ args = 0, pretend = 0, frame = 0
 4283              		@ frame_needed = 0, uses_anonymous_args = 0
 4284 0000 10B5     		push	{r4, lr}
 4285              		.cfi_def_cfa_offset 8
 4286              		.cfi_offset 4, -8
ARM GAS  C:\Users\FRANKL~1\AppData\Local\Temp\ccebBo1q.s 			page 104


 4287              		.cfi_offset 14, -4
 763:main.c        **** 	VDAC_Vgs_SetValue(254);
 4288              		.loc 2 763 0
 4289 0002 5A20     		movs	r0, #90
 4290 0004 FFF7FEFF 		bl	VDAC_Vds_SetValue
 4291              	.LVL583:
 764:main.c        **** 	
 4292              		.loc 2 764 0
 4293 0008 FE20     		movs	r0, #254
 4294 000a FFF7FEFF 		bl	VDAC_Vgs_SetValue
 4295              	.LVL584:
 4296              	.LBB49:
 766:main.c        **** 		VDAC_Vgs_SetValue(Vgsi);
 4297              		.loc 2 766 0
 4298 000e 0024     		movs	r4, #0
 4299 0010 09E0     		b	.L369
 4300              	.LVL585:
 4301              	.L370:
 767:main.c        **** 		Measure(100, 1, 1);
 4302              		.loc 2 767 0 discriminator 3
 4303 0012 E0B2     		uxtb	r0, r4
 4304 0014 FFF7FEFF 		bl	VDAC_Vgs_SetValue
 4305              	.LVL586:
 768:main.c        **** 	}
 4306              		.loc 2 768 0 discriminator 3
 4307 0018 0122     		movs	r2, #1
 4308 001a 1146     		mov	r1, r2
 4309 001c 6420     		movs	r0, #100
 4310 001e FFF7FEFF 		bl	Measure
 4311              	.LVL587:
 766:main.c        **** 		VDAC_Vgs_SetValue(Vgsi);
 4312              		.loc 2 766 0 discriminator 3
 4313 0022 0134     		adds	r4, r4, #1
 4314              	.LVL588:
 4315 0024 A4B2     		uxth	r4, r4
 4316              	.LVL589:
 4317              	.L369:
 766:main.c        **** 		VDAC_Vgs_SetValue(Vgsi);
 4318              		.loc 2 766 0 is_stmt 0 discriminator 1
 4319 0026 FF2C     		cmp	r4, #255
 4320 0028 F3D9     		bls	.L370
 4321              	.LBE49:
 770:main.c        **** 
 4322              		.loc 2 770 0 is_stmt 1
 4323 002a 10BD     		pop	{r4, pc}
 4324              		.cfi_endproc
 4325              	.LFE109:
 4326              		.size	Measure_Sweep, .-Measure_Sweep
 4327              		.section	.text.Measure_Gate_Sweep,"ax",%progbits
 4328              		.align	2
 4329              		.global	Measure_Gate_Sweep
 4330              		.thumb
 4331              		.thumb_func
 4332              		.type	Measure_Gate_Sweep, %function
 4333              	Measure_Gate_Sweep:
 4334              	.LFB110:
 772:main.c        **** 	
ARM GAS  C:\Users\FRANKL~1\AppData\Local\Temp\ccebBo1q.s 			page 105


 4335              		.loc 2 772 0
 4336              		.cfi_startproc
 4337              		@ args = 0, pretend = 0, frame = 0
 4338              		@ frame_needed = 0, uses_anonymous_args = 0
 4339              	.LVL590:
 4340 0000 2DE9F843 		push	{r3, r4, r5, r6, r7, r8, r9, lr}
 4341              		.cfi_def_cfa_offset 32
 4342              		.cfi_offset 3, -32
 4343              		.cfi_offset 4, -28
 4344              		.cfi_offset 5, -24
 4345              		.cfi_offset 6, -20
 4346              		.cfi_offset 7, -16
 4347              		.cfi_offset 8, -12
 4348              		.cfi_offset 9, -8
 4349              		.cfi_offset 14, -4
 4350 0004 8146     		mov	r9, r0
 774:main.c        **** 		Set_Ref_Raw(254 - Vds_Index_Goal_Relative);
 4351              		.loc 2 774 0
 4352 0006 274B     		ldr	r3, .L389
 4353 0008 B3F90030 		ldrsh	r3, [r3]
 4354 000c 002B     		cmp	r3, #0
 4355 000e 07DD     		ble	.L373
 775:main.c        **** 	} else {
 4356              		.loc 2 775 0
 4357 0010 C3F1FE00 		rsb	r0, r3, #254
 4358              	.LVL591:
 4359 0014 C0B2     		uxtb	r0, r0
 4360 0016 FFF7FEFF 		bl	Set_Ref_Raw
 4361              	.LVL592:
 4362              	.L375:
 4363              	.LBB50:
 4364              	.LBB51:
 4365              	.LBB52:
 4366 001a 4FF00008 		mov	r8, #0
 4367 001e 3DE0     		b	.L374
 4368              	.LVL593:
 4369              	.L373:
 4370              	.LBE52:
 4371              	.LBE51:
 4372              	.LBE50:
 777:main.c        **** 	}
 4373              		.loc 2 777 0
 4374 0020 FE20     		movs	r0, #254
 4375              	.LVL594:
 4376 0022 FFF7FEFF 		bl	Set_Ref_Raw
 4377              	.LVL595:
 4378 0026 F8E7     		b	.L375
 4379              	.LVL596:
 4380              	.L384:
 4381              	.LBB57:
 4382              	.LBB56:
 785:main.c        **** 			istart = -Vds_Index_Goal_Relative;
 4383              		.loc 2 785 0
 4384 0028 1E4B     		ldr	r3, .L389
 4385 002a B3F90030 		ldrsh	r3, [r3]
 4386 002e 002B     		cmp	r3, #0
 4387 0030 02DA     		bge	.L385
ARM GAS  C:\Users\FRANKL~1\AppData\Local\Temp\ccebBo1q.s 			page 106


 786:main.c        **** 		}
 4388              		.loc 2 786 0
 4389 0032 5B42     		negs	r3, r3
 4390 0034 DDB2     		uxtb	r5, r3
 4391              	.LVL597:
 4392 0036 00E0     		b	.L376
 4393              	.LVL598:
 4394              	.L385:
 784:main.c        **** 		if (Vds_Index_Goal_Relative < 0) {
 4395              		.loc 2 784 0
 4396 0038 0025     		movs	r5, #0
 4397              	.LVL599:
 4398              	.L376:
 791:main.c        **** 			direction = -1*speed;
 4399              		.loc 2 791 0
 4400 003a 18F0010F 		tst	r8, #1
 4401 003e 02D1     		bne	.L386
 789:main.c        **** 		
 4402              		.loc 2 789 0
 4403 0040 F026     		movs	r6, #240
 783:main.c        **** 		uint8 istart = 0;
 4404              		.loc 2 783 0
 4405 0042 1027     		movs	r7, #16
 4406 0044 24E0     		b	.L378
 4407              	.L386:
 794:main.c        **** 		}
 4408              		.loc 2 794 0
 4409 0046 0026     		movs	r6, #0
 793:main.c        **** 			istop = 0;
 4410              		.loc 2 793 0
 4411 0048 F025     		movs	r5, #240
 4412              	.LVL600:
 792:main.c        **** 			istart = 256-speed;
 4413              		.loc 2 792 0
 4414 004a 6FF00F07 		mvn	r7, #15
 4415              	.LVL601:
 4416              	.LBB55:
 797:main.c        **** 			for (uint8 j = 0; j <= 1; j++) {
 4417              		.loc 2 797 0
 4418 004e 1FE0     		b	.L378
 4419              	.LVL602:
 4420              	.L382:
 4421              	.LBB53:
 799:main.c        **** 				Set_Vgs_Raw(i);
 4422              		.loc 2 799 0
 4423 0050 012C     		cmp	r4, #1
 4424 0052 03D1     		bne	.L379
 799:main.c        **** 				Set_Vgs_Raw(i);
 4425              		.loc 2 799 0 is_stmt 0 discriminator 1
 4426 0054 E843     		mvns	r0, r5
 4427 0056 C0B2     		uxtb	r0, r0
 4428 0058 FFF7FEFF 		bl	Set_Ref_Raw
 4429              	.LVL603:
 4430              	.L379:
 800:main.c        **** 				
 4431              		.loc 2 800 0 is_stmt 1
 4432 005c 2846     		mov	r0, r5
ARM GAS  C:\Users\FRANKL~1\AppData\Local\Temp\ccebBo1q.s 			page 107


 4433 005e FFF7FEFF 		bl	Set_Vgs_Raw
 4434              	.LVL604:
 802:main.c        **** 				
 4435              		.loc 2 802 0
 4436 0062 0122     		movs	r2, #1
 4437 0064 1146     		mov	r1, r2
 4438 0066 2120     		movs	r0, #33
 4439 0068 FFF7FEFF 		bl	Measure
 4440              	.LVL605:
 804:main.c        **** 				while (G_Pause);
 4441              		.loc 2 804 0
 4442 006c 0E4B     		ldr	r3, .L389+4
 4443 006e 5B78     		ldrb	r3, [r3, #1]	@ zero_extendqisi2
 4444 0070 13F0FF0F 		tst	r3, #255
 4445 0074 0AD1     		bne	.L380
 4446              	.L381:
 805:main.c        **** 			}
 4447              		.loc 2 805 0 discriminator 1
 4448 0076 0C4B     		ldr	r3, .L389+4
 4449 0078 DB78     		ldrb	r3, [r3, #3]	@ zero_extendqisi2
 4450 007a 13F0FF0F 		tst	r3, #255
 4451 007e FAD1     		bne	.L381
 798:main.c        **** 				if (j == 1) Set_Ref_Raw(254 - i + 1);
 4452              		.loc 2 798 0 discriminator 2
 4453 0080 0134     		adds	r4, r4, #1
 4454              	.LVL606:
 4455 0082 E4B2     		uxtb	r4, r4
 4456              	.LVL607:
 4457 0084 00E0     		b	.L383
 4458              	.LVL608:
 4459              	.L387:
 4460              	.LBE53:
 4461 0086 0024     		movs	r4, #0
 4462              	.L383:
 4463              	.LVL609:
 4464              	.LBB54:
 798:main.c        **** 				if (j == 1) Set_Ref_Raw(254 - i + 1);
 4465              		.loc 2 798 0 is_stmt 0 discriminator 1
 4466 0088 012C     		cmp	r4, #1
 4467 008a E1D9     		bls	.L382
 4468              	.L380:
 4469              	.LBE54:
 797:main.c        **** 			for (uint8 j = 0; j <= 1; j++) {
 4470              		.loc 2 797 0 is_stmt 1 discriminator 2
 4471 008c 3D44     		add	r5, r5, r7
 4472              	.LVL610:
 4473 008e EDB2     		uxtb	r5, r5
 4474              	.LVL611:
 4475              	.L378:
 797:main.c        **** 			for (uint8 j = 0; j <= 1; j++) {
 4476              		.loc 2 797 0 is_stmt 0 discriminator 1
 4477 0090 AE42     		cmp	r6, r5
 4478 0092 F8D1     		bne	.L387
 4479              	.LBE55:
 4480              	.LBE56:
 782:main.c        **** 		int8 direction = 1*speed;
 4481              		.loc 2 782 0 is_stmt 1 discriminator 2
ARM GAS  C:\Users\FRANKL~1\AppData\Local\Temp\ccebBo1q.s 			page 108


 4482 0094 08F10108 		add	r8, r8, #1
 4483              	.LVL612:
 4484 0098 5FFA88F8 		uxtb	r8, r8
 4485              	.LVL613:
 4486              	.L374:
 782:main.c        **** 		int8 direction = 1*speed;
 4487              		.loc 2 782 0 is_stmt 0 discriminator 1
 4488 009c C845     		cmp	r8, r9
 4489 009e C3D9     		bls	.L384
 4490              	.LBE57:
 809:main.c        **** 
 4491              		.loc 2 809 0 is_stmt 1
 4492 00a0 BDE8F883 		pop	{r3, r4, r5, r6, r7, r8, r9, pc}
 4493              	.LVL614:
 4494              	.L390:
 4495              		.align	2
 4496              	.L389:
 4497 00a4 00000000 		.word	Vds_Index_Goal_Relative
 4498 00a8 00000000 		.word	.LANCHOR0
 4499              		.cfi_endproc
 4500              	.LFE110:
 4501              		.size	Measure_Gate_Sweep, .-Measure_Gate_Sweep
 4502              		.section	.text.Measure_Wide_Gate_Sweep,"ax",%progbits
 4503              		.align	2
 4504              		.global	Measure_Wide_Gate_Sweep
 4505              		.thumb
 4506              		.thumb_func
 4507              		.type	Measure_Wide_Gate_Sweep, %function
 4508              	Measure_Wide_Gate_Sweep:
 4509              	.LFB111:
 811:main.c        **** 	Set_Ref_Raw(254);
 4510              		.loc 2 811 0
 4511              		.cfi_startproc
 4512              		@ args = 0, pretend = 0, frame = 0
 4513              		@ frame_needed = 0, uses_anonymous_args = 0
 4514              	.LVL615:
 4515 0000 2DE9F843 		push	{r3, r4, r5, r6, r7, r8, r9, lr}
 4516              		.cfi_def_cfa_offset 32
 4517              		.cfi_offset 3, -32
 4518              		.cfi_offset 4, -28
 4519              		.cfi_offset 5, -24
 4520              		.cfi_offset 6, -20
 4521              		.cfi_offset 7, -16
 4522              		.cfi_offset 8, -12
 4523              		.cfi_offset 9, -8
 4524              		.cfi_offset 14, -4
 4525 0004 8146     		mov	r9, r0
 812:main.c        **** 	
 4526              		.loc 2 812 0
 4527 0006 FE20     		movs	r0, #254
 4528              	.LVL616:
 4529 0008 FFF7FEFF 		bl	Set_Ref_Raw
 4530              	.LVL617:
 4531              	.LBB58:
 816:main.c        **** 		int8 direction = 1*speed;
 4532              		.loc 2 816 0
 4533 000c 4FF00008 		mov	r8, #0
ARM GAS  C:\Users\FRANKL~1\AppData\Local\Temp\ccebBo1q.s 			page 109


 4534 0010 31E0     		b	.L392
 4535              	.LVL618:
 4536              	.L400:
 4537              	.LBB59:
 821:main.c        **** 			direction = -1*speed;
 4538              		.loc 2 821 0
 4539 0012 18F0010F 		tst	r8, #1
 4540 0016 03D1     		bne	.L401
 819:main.c        **** 		
 4541              		.loc 2 819 0
 4542 0018 F026     		movs	r6, #240
 818:main.c        **** 		uint8 istop = 256-speed;
 4543              		.loc 2 818 0
 4544 001a 0025     		movs	r5, #0
 817:main.c        **** 		uint8 istart = 0;
 4545              		.loc 2 817 0
 4546 001c 1027     		movs	r7, #16
 4547 001e 24E0     		b	.L394
 4548              	.L401:
 824:main.c        **** 		}
 4549              		.loc 2 824 0
 4550 0020 0026     		movs	r6, #0
 823:main.c        **** 			istop = 0;
 4551              		.loc 2 823 0
 4552 0022 F025     		movs	r5, #240
 822:main.c        **** 			istart = 256-speed;
 4553              		.loc 2 822 0
 4554 0024 6FF00F07 		mvn	r7, #15
 4555              	.LVL619:
 4556              	.LBB60:
 827:main.c        **** 			for (uint8 j = 0; j <= 1; j++) {
 4557              		.loc 2 827 0
 4558 0028 1FE0     		b	.L394
 4559              	.LVL620:
 4560              	.L398:
 4561              	.LBB61:
 830:main.c        **** 				Set_Vgs_Raw(i);
 4562              		.loc 2 830 0
 4563 002a 012C     		cmp	r4, #1
 4564 002c 03D1     		bne	.L395
 830:main.c        **** 				Set_Vgs_Raw(i);
 4565              		.loc 2 830 0 is_stmt 0 discriminator 1
 4566 002e E843     		mvns	r0, r5
 4567 0030 C0B2     		uxtb	r0, r0
 4568 0032 FFF7FEFF 		bl	Set_Ref_Raw
 4569              	.LVL621:
 4570              	.L395:
 831:main.c        **** 				
 4571              		.loc 2 831 0 is_stmt 1
 4572 0036 2846     		mov	r0, r5
 4573 0038 FFF7FEFF 		bl	Set_Vgs_Raw
 4574              	.LVL622:
 833:main.c        **** 				
 4575              		.loc 2 833 0
 4576 003c 0122     		movs	r2, #1
 4577 003e 1146     		mov	r1, r2
 4578 0040 2120     		movs	r0, #33
ARM GAS  C:\Users\FRANKL~1\AppData\Local\Temp\ccebBo1q.s 			page 110


 4579 0042 FFF7FEFF 		bl	Measure
 4580              	.LVL623:
 835:main.c        **** 				while (G_Pause);
 4581              		.loc 2 835 0
 4582 0046 0E4B     		ldr	r3, .L404
 4583 0048 5B78     		ldrb	r3, [r3, #1]	@ zero_extendqisi2
 4584 004a 13F0FF0F 		tst	r3, #255
 4585 004e 0AD1     		bne	.L396
 4586              	.L397:
 836:main.c        **** 			}
 4587              		.loc 2 836 0 discriminator 1
 4588 0050 0B4B     		ldr	r3, .L404
 4589 0052 DB78     		ldrb	r3, [r3, #3]	@ zero_extendqisi2
 4590 0054 13F0FF0F 		tst	r3, #255
 4591 0058 FAD1     		bne	.L397
 828:main.c        **** 				
 4592              		.loc 2 828 0 discriminator 2
 4593 005a 0134     		adds	r4, r4, #1
 4594              	.LVL624:
 4595 005c E4B2     		uxtb	r4, r4
 4596              	.LVL625:
 4597 005e 00E0     		b	.L399
 4598              	.LVL626:
 4599              	.L402:
 4600              	.LBE61:
 4601 0060 0024     		movs	r4, #0
 4602              	.L399:
 4603              	.LVL627:
 4604              	.LBB62:
 828:main.c        **** 				
 4605              		.loc 2 828 0 is_stmt 0 discriminator 1
 4606 0062 012C     		cmp	r4, #1
 4607 0064 E1D9     		bls	.L398
 4608              	.L396:
 4609              	.LBE62:
 827:main.c        **** 			for (uint8 j = 0; j <= 1; j++) {
 4610              		.loc 2 827 0 is_stmt 1 discriminator 2
 4611 0066 3D44     		add	r5, r5, r7
 4612              	.LVL628:
 4613 0068 EDB2     		uxtb	r5, r5
 4614              	.LVL629:
 4615              	.L394:
 827:main.c        **** 			for (uint8 j = 0; j <= 1; j++) {
 4616              		.loc 2 827 0 is_stmt 0 discriminator 1
 4617 006a AE42     		cmp	r6, r5
 4618 006c F8D1     		bne	.L402
 4619              	.LBE60:
 4620              	.LBE59:
 816:main.c        **** 		int8 direction = 1*speed;
 4621              		.loc 2 816 0 is_stmt 1 discriminator 2
 4622 006e 08F10108 		add	r8, r8, #1
 4623              	.LVL630:
 4624 0072 5FFA88F8 		uxtb	r8, r8
 4625              	.LVL631:
 4626              	.L392:
 816:main.c        **** 		int8 direction = 1*speed;
 4627              		.loc 2 816 0 is_stmt 0 discriminator 1
ARM GAS  C:\Users\FRANKL~1\AppData\Local\Temp\ccebBo1q.s 			page 111


 4628 0076 C845     		cmp	r8, r9
 4629 0078 CBD9     		bls	.L400
 4630              	.LBE58:
 840:main.c        **** 
 4631              		.loc 2 840 0 is_stmt 1
 4632 007a BDE8F883 		pop	{r3, r4, r5, r6, r7, r8, r9, pc}
 4633              	.LVL632:
 4634              	.L405:
 4635 007e 00BF     		.align	2
 4636              	.L404:
 4637 0080 00000000 		.word	.LANCHOR0
 4638              		.cfi_endproc
 4639              	.LFE111:
 4640              		.size	Measure_Wide_Gate_Sweep, .-Measure_Wide_Gate_Sweep
 4641              		.section	.text.Measure_Gate_Sweep_New,"ax",%progbits
 4642              		.align	2
 4643              		.global	Measure_Gate_Sweep_New
 4644              		.thumb
 4645              		.thumb_func
 4646              		.type	Measure_Gate_Sweep_New, %function
 4647              	Measure_Gate_Sweep_New:
 4648              	.LFB112:
 842:main.c        **** 	uint8 refTurn = 1;
 4649              		.loc 2 842 0
 4650              		.cfi_startproc
 4651              		@ args = 0, pretend = 0, frame = 0
 4652              		@ frame_needed = 0, uses_anonymous_args = 0
 4653 0000 2DE9F843 		push	{r3, r4, r5, r6, r7, r8, r9, lr}
 4654              		.cfi_def_cfa_offset 32
 4655              		.cfi_offset 3, -32
 4656              		.cfi_offset 4, -28
 4657              		.cfi_offset 5, -24
 4658              		.cfi_offset 6, -20
 4659              		.cfi_offset 7, -16
 4660              		.cfi_offset 8, -12
 4661              		.cfi_offset 9, -8
 4662              		.cfi_offset 14, -4
 4663              	.LVL633:
 854:main.c        **** 	
 4664              		.loc 2 854 0
 4665 0004 0027     		movs	r7, #0
 853:main.c        **** 	uint8 gateArrived = 0;
 4666              		.loc 2 853 0
 4667 0006 3E46     		mov	r6, r7
 848:main.c        **** 	
 4668              		.loc 2 848 0
 4669 0008 B946     		mov	r9, r7
 847:main.c        **** 	uint8 refArrived = 0;
 4670              		.loc 2 847 0
 4671 000a 3D46     		mov	r5, r7
 843:main.c        **** 	int8 refIncrement = 1;
 4672              		.loc 2 843 0
 4673 000c 0124     		movs	r4, #1
 857:main.c        **** 		gateArrived = abs(gateIndex-endGateIndex) < abs(gateIncrement);
 4674              		.loc 2 857 0
 4675 000e 39E0     		b	.L407
 4676              	.LVL634:
ARM GAS  C:\Users\FRANKL~1\AppData\Local\Temp\ccebBo1q.s 			page 112


 4677              	.L415:
 858:main.c        **** 		refArrived = abs(refIndex-endRefIndex) < abs(refIncrement);
 4678              		.loc 2 858 0
 4679 0010 86EAE673 		eor	r3, r6, r6, asr #31
 4680 0014 A3EBE673 		sub	r3, r3, r6, asr #31
 4681 0018 002B     		cmp	r3, #0
 4682 001a CCBF     		ite	gt
 4683 001c 0027     		movgt	r7, #0
 4684              	.LVL635:
 4685 001e 0127     		movle	r7, #1
 4686              	.LVL636:
 859:main.c        **** 		
 4687              		.loc 2 859 0
 4688 0020 85EAE572 		eor	r2, r5, r5, asr #31
 4689 0024 A2EBE572 		sub	r2, r2, r5, asr #31
 4690 0028 002A     		cmp	r2, #0
 4691 002a CCBF     		ite	gt
 4692 002c 4FF00009 		movgt	r9, #0
 4693              	.LVL637:
 4694 0030 4FF00109 		movle	r9, #1
 4695              	.LVL638:
 861:main.c        **** 		
 4696              		.loc 2 861 0
 4697 0034 002C     		cmp	r4, #0
 4698 0036 0CBF     		ite	eq
 4699 0038 4FF00108 		moveq	r8, #1
 4700 003c 4FF00008 		movne	r8, #0
 4701              	.LVL639:
 863:main.c        **** 		if (!refTurn && gateArrived) continue;
 4702              		.loc 2 863 0
 4703 0040 01D1     		bne	.L408
 863:main.c        **** 		if (!refTurn && gateArrived) continue;
 4704              		.loc 2 863 0 is_stmt 0 discriminator 1
 4705 0042 002A     		cmp	r2, #0
 4706 0044 1DDD     		ble	.L409
 4707              	.L408:
 864:main.c        **** 		
 4708              		.loc 2 864 0 is_stmt 1
 4709 0046 0CB1     		cbz	r4, .L410
 864:main.c        **** 		
 4710              		.loc 2 864 0 is_stmt 0 discriminator 1
 4711 0048 002B     		cmp	r3, #0
 4712 004a 1ADD     		ble	.L409
 4713              	.L410:
 866:main.c        **** 		Set_Vgs_Raw(gateIndex);
 4714              		.loc 2 866 0 is_stmt 1
 4715 004c 2846     		mov	r0, r5
 4716 004e FFF7FEFF 		bl	Set_Ref_Raw
 4717              	.LVL640:
 867:main.c        **** 		
 4718              		.loc 2 867 0
 4719 0052 3046     		mov	r0, r6
 4720 0054 FFF7FEFF 		bl	Set_Vgs_Raw
 4721              	.LVL641:
 869:main.c        **** 		
 4722              		.loc 2 869 0
 4723 0058 0122     		movs	r2, #1
ARM GAS  C:\Users\FRANKL~1\AppData\Local\Temp\ccebBo1q.s 			page 113


 4724 005a 1146     		mov	r1, r2
 4725 005c 6420     		movs	r0, #100
 4726 005e FFF7FEFF 		bl	Measure
 4727              	.LVL642:
 871:main.c        **** 			refIndex += refIncrement;
 4728              		.loc 2 871 0
 4729 0062 14B9     		cbnz	r4, .L411
 872:main.c        **** 		} else {
 4730              		.loc 2 872 0
 4731 0064 0135     		adds	r5, r5, #1
 4732              	.LVL643:
 4733 0066 EDB2     		uxtb	r5, r5
 4734              	.LVL644:
 4735 0068 01E0     		b	.L412
 4736              	.L411:
 874:main.c        **** 		}
 4737              		.loc 2 874 0
 4738 006a 0136     		adds	r6, r6, #1
 4739              	.LVL645:
 4740 006c F6B2     		uxtb	r6, r6
 4741              	.LVL646:
 4742              	.L412:
 877:main.c        **** 		while (G_Pause);
 4743              		.loc 2 877 0
 4744 006e 094B     		ldr	r3, .L417
 4745 0070 5B78     		ldrb	r3, [r3, #1]	@ zero_extendqisi2
 4746 0072 13F0FF0F 		tst	r3, #255
 4747 0076 0AD1     		bne	.L406
 4748              	.L414:
 878:main.c        **** 	}
 4749              		.loc 2 878 0 discriminator 1
 4750 0078 064B     		ldr	r3, .L417
 4751 007a DB78     		ldrb	r3, [r3, #3]	@ zero_extendqisi2
 4752 007c 13F0FF0F 		tst	r3, #255
 4753 0080 FAD1     		bne	.L414
 4754              	.L409:
 842:main.c        **** 	uint8 refTurn = 1;
 4755              		.loc 2 842 0
 4756 0082 4446     		mov	r4, r8
 4757              	.LVL647:
 4758              	.L407:
 857:main.c        **** 		gateArrived = abs(gateIndex-endGateIndex) < abs(gateIncrement);
 4759              		.loc 2 857 0
 4760 0084 002F     		cmp	r7, #0
 4761 0086 C3D0     		beq	.L415
 857:main.c        **** 		gateArrived = abs(gateIndex-endGateIndex) < abs(gateIncrement);
 4762              		.loc 2 857 0 is_stmt 0 discriminator 1
 4763 0088 B9F1000F 		cmp	r9, #0
 4764 008c C0D0     		beq	.L415
 4765              	.LVL648:
 4766              	.L406:
 4767 008e BDE8F883 		pop	{r3, r4, r5, r6, r7, r8, r9, pc}
 4768              	.LVL649:
 4769              	.L418:
 4770 0092 00BF     		.align	2
 4771              	.L417:
 4772 0094 00000000 		.word	.LANCHOR0
ARM GAS  C:\Users\FRANKL~1\AppData\Local\Temp\ccebBo1q.s 			page 114


 4773              		.cfi_endproc
 4774              	.LFE112:
 4775              		.size	Measure_Gate_Sweep_New, .-Measure_Gate_Sweep_New
 4776              		.section	.text.Scan,"ax",%progbits
 4777              		.align	2
 4778              		.global	Scan
 4779              		.thumb
 4780              		.thumb_func
 4781              		.type	Scan, %function
 4782              	Scan:
 4783              	.LFB113:
 882:main.c        **** 	for (uint8 device = 1; device <= CONTACT_COUNT/**//2; device++) {
 4784              		.loc 2 882 0 is_stmt 1
 4785              		.cfi_startproc
 4786              		@ args = 0, pretend = 0, frame = 0
 4787              		@ frame_needed = 0, uses_anonymous_args = 0
 4788              	.LVL650:
 4789 0000 2DE9F041 		push	{r4, r5, r6, r7, r8, lr}
 4790              		.cfi_def_cfa_offset 24
 4791              		.cfi_offset 4, -24
 4792              		.cfi_offset 5, -20
 4793              		.cfi_offset 6, -16
 4794              		.cfi_offset 7, -12
 4795              		.cfi_offset 8, -8
 4796              		.cfi_offset 14, -4
 4797 0004 0746     		mov	r7, r0
 4798 0006 8846     		mov	r8, r1
 4799              	.LVL651:
 4800              	.LBB63:
 883:main.c        **** 		uint8 contact1 = device;
 4801              		.loc 2 883 0
 4802 0008 0124     		movs	r4, #1
 4803 000a 37E0     		b	.L420
 4804              	.LVL652:
 4805              	.L425:
 4806              	.LBB64:
 885:main.c        **** 		uint8 intermediate1 = 1;
 4807              		.loc 2 885 0
 4808 000c 661C     		adds	r6, r4, #1
 4809 000e F6B2     		uxtb	r6, r6
 4810              	.LVL653:
 889:main.c        **** 		Zero_All_DACs();
 4811              		.loc 2 889 0
 4812 0010 FFF7FEFF 		bl	Disconnect_All_Contacts_From_All_Intermediates
 4813              	.LVL654:
 890:main.c        **** 		Connect_Intermediates();
 4814              		.loc 2 890 0
 4815 0014 FFF7FEFF 		bl	Zero_All_DACs
 4816              	.LVL655:
 891:main.c        **** 		Connect_Contact_To_Intermediate(contact1, intermediate1);
 4817              		.loc 2 891 0
 4818 0018 FFF7FEFF 		bl	Connect_Intermediates
 4819              	.LVL656:
 892:main.c        **** 		Connect_Contact_To_Intermediate(contact2, intermediate2);
 4820              		.loc 2 892 0
 4821 001c 0121     		movs	r1, #1
 4822 001e 2046     		mov	r0, r4
ARM GAS  C:\Users\FRANKL~1\AppData\Local\Temp\ccebBo1q.s 			page 115


 4823 0020 FFF7FEFF 		bl	Connect_Contact_To_Intermediate
 4824              	.LVL657:
 893:main.c        **** 		
 4825              		.loc 2 893 0
 4826 0024 0221     		movs	r1, #2
 4827 0026 3046     		mov	r0, r6
 4828 0028 FFF7FEFF 		bl	Connect_Contact_To_Intermediate
 4829              	.LVL658:
 895:main.c        **** 		USBUARTH_Send(TransmitBuffer, strlen(TransmitBuffer));
 4830              		.loc 2 895 0
 4831 002c 154D     		ldr	r5, .L427
 4832 002e 2246     		mov	r2, r4
 4833 0030 1549     		ldr	r1, .L427+4
 4834 0032 2846     		mov	r0, r5
 4835 0034 FFF7FEFF 		bl	sprintf
 4836              	.LVL659:
 896:main.c        **** 		UART_1_PutString(TransmitBuffer);
 4837              		.loc 2 896 0
 4838 0038 2846     		mov	r0, r5
 4839 003a FFF7FEFF 		bl	strlen
 4840              	.LVL660:
 4841 003e 81B2     		uxth	r1, r0
 4842 0040 2846     		mov	r0, r5
 4843 0042 FFF7FEFF 		bl	USBUARTH_Send
 4844              	.LVL661:
 897:main.c        **** 		
 4845              		.loc 2 897 0
 4846 0046 2846     		mov	r0, r5
 4847 0048 FFF7FEFF 		bl	UART_1_PutString
 4848              	.LVL662:
 899:main.c        **** 			Measure_Wide_Gate_Sweep(loop);
 4849              		.loc 2 899 0
 4850 004c 1FB1     		cbz	r7, .L421
 900:main.c        **** 		} else {
 4851              		.loc 2 900 0
 4852 004e 4046     		mov	r0, r8
 4853 0050 FFF7FEFF 		bl	Measure_Wide_Gate_Sweep
 4854              	.LVL663:
 4855 0054 02E0     		b	.L422
 4856              	.L421:
 902:main.c        **** 		}
 4857              		.loc 2 902 0
 4858 0056 4046     		mov	r0, r8
 4859 0058 FFF7FEFF 		bl	Measure_Gate_Sweep
 4860              	.LVL664:
 4861              	.L422:
 905:main.c        **** 		while (G_Pause);
 4862              		.loc 2 905 0
 4863 005c 0B4B     		ldr	r3, .L427+8
 4864 005e 9B78     		ldrb	r3, [r3, #2]	@ zero_extendqisi2
 4865 0060 13F0FF0F 		tst	r3, #255
 4866 0064 0CD1     		bne	.L419
 905:main.c        **** 		while (G_Pause);
 4867              		.loc 2 905 0 is_stmt 0 discriminator 1
 4868 0066 094B     		ldr	r3, .L427+8
 4869 0068 5B78     		ldrb	r3, [r3, #1]	@ zero_extendqisi2
 4870 006a 13F0FF0F 		tst	r3, #255
ARM GAS  C:\Users\FRANKL~1\AppData\Local\Temp\ccebBo1q.s 			page 116


 4871 006e 07D1     		bne	.L419
 4872              	.L424:
 906:main.c        **** 	}
 4873              		.loc 2 906 0 is_stmt 1 discriminator 1
 4874 0070 064B     		ldr	r3, .L427+8
 4875 0072 DB78     		ldrb	r3, [r3, #3]	@ zero_extendqisi2
 4876 0074 13F0FF0F 		tst	r3, #255
 4877 0078 FAD1     		bne	.L424
 4878              	.LBE64:
 883:main.c        **** 		uint8 contact1 = device;
 4879              		.loc 2 883 0
 4880 007a 3446     		mov	r4, r6
 4881              	.LVL665:
 4882              	.L420:
 883:main.c        **** 		uint8 contact1 = device;
 4883              		.loc 2 883 0 is_stmt 0 discriminator 1
 4884 007c 202C     		cmp	r4, #32
 4885 007e C5D9     		bls	.L425
 4886              	.L419:
 4887 0080 BDE8F081 		pop	{r4, r5, r6, r7, r8, pc}
 4888              	.LVL666:
 4889              	.L428:
 4890              		.align	2
 4891              	.L427:
 4892 0084 00000000 		.word	TransmitBuffer
 4893 0088 F0000000 		.word	.LC14
 4894 008c 00000000 		.word	.LANCHOR0
 4895              	.LBE63:
 4896              		.cfi_endproc
 4897              	.LFE113:
 4898              		.size	Scan, .-Scan
 4899              		.section	.text.Scan_Range,"ax",%progbits
 4900              		.align	2
 4901              		.global	Scan_Range
 4902              		.thumb
 4903              		.thumb_func
 4904              		.type	Scan_Range, %function
 4905              	Scan_Range:
 4906              	.LFB114:
 910:main.c        **** 	if (startDevice >= CONTACT_COUNT) return;
 4907              		.loc 2 910 0 is_stmt 1
 4908              		.cfi_startproc
 4909              		@ args = 0, pretend = 0, frame = 0
 4910              		@ frame_needed = 0, uses_anonymous_args = 0
 4911              	.LVL667:
 911:main.c        **** 	if (stopDevice >= CONTACT_COUNT) return;
 4912              		.loc 2 911 0
 4913 0000 3F28     		cmp	r0, #63
 4914 0002 47D8     		bhi	.L437
 910:main.c        **** 	if (startDevice >= CONTACT_COUNT) return;
 4915              		.loc 2 910 0
 4916 0004 2DE9F843 		push	{r3, r4, r5, r6, r7, r8, r9, lr}
 4917              		.cfi_def_cfa_offset 32
 4918              		.cfi_offset 3, -32
 4919              		.cfi_offset 4, -28
 4920              		.cfi_offset 5, -24
 4921              		.cfi_offset 6, -20
ARM GAS  C:\Users\FRANKL~1\AppData\Local\Temp\ccebBo1q.s 			page 117


 4922              		.cfi_offset 7, -16
 4923              		.cfi_offset 8, -12
 4924              		.cfi_offset 9, -8
 4925              		.cfi_offset 14, -4
 4926 0008 0446     		mov	r4, r0
 4927 000a 0F46     		mov	r7, r1
 4928 000c 9046     		mov	r8, r2
 4929 000e 9946     		mov	r9, r3
 912:main.c        **** 	
 4930              		.loc 2 912 0
 4931 0010 3F29     		cmp	r1, #63
 4932 0012 3BD9     		bls	.L431
 4933 0014 BDE8F883 		pop	{r3, r4, r5, r6, r7, r8, r9, pc}
 4934              	.LVL668:
 4935              	.L435:
 4936              	.LBB65:
 4937              	.LBB66:
 916:main.c        **** 		uint8 intermediate1 = 1;
 4938              		.loc 2 916 0
 4939 0018 661C     		adds	r6, r4, #1
 4940 001a F6B2     		uxtb	r6, r6
 4941              	.LVL669:
 920:main.c        **** 		Zero_All_DACs();
 4942              		.loc 2 920 0
 4943 001c FFF7FEFF 		bl	Disconnect_All_Contacts_From_All_Intermediates
 4944              	.LVL670:
 921:main.c        **** 		Connect_Intermediates();
 4945              		.loc 2 921 0
 4946 0020 FFF7FEFF 		bl	Zero_All_DACs
 4947              	.LVL671:
 922:main.c        **** 		Connect_Contact_To_Intermediate(contact1, intermediate1);
 4948              		.loc 2 922 0
 4949 0024 FFF7FEFF 		bl	Connect_Intermediates
 4950              	.LVL672:
 923:main.c        **** 		Connect_Contact_To_Intermediate(contact2, intermediate2);
 4951              		.loc 2 923 0
 4952 0028 0121     		movs	r1, #1
 4953 002a 2046     		mov	r0, r4
 4954 002c FFF7FEFF 		bl	Connect_Contact_To_Intermediate
 4955              	.LVL673:
 924:main.c        **** 		
 4956              		.loc 2 924 0
 4957 0030 0221     		movs	r1, #2
 4958 0032 3046     		mov	r0, r6
 4959 0034 FFF7FEFF 		bl	Connect_Contact_To_Intermediate
 4960              	.LVL674:
 926:main.c        **** 		USBUARTH_Send(TransmitBuffer, strlen(TransmitBuffer));
 4961              		.loc 2 926 0
 4962 0038 174D     		ldr	r5, .L438
 4963 003a 2246     		mov	r2, r4
 4964 003c 1749     		ldr	r1, .L438+4
 4965 003e 2846     		mov	r0, r5
 4966 0040 FFF7FEFF 		bl	sprintf
 4967              	.LVL675:
 927:main.c        **** 		UART_1_PutString(TransmitBuffer);
 4968              		.loc 2 927 0
 4969 0044 2846     		mov	r0, r5
ARM GAS  C:\Users\FRANKL~1\AppData\Local\Temp\ccebBo1q.s 			page 118


 4970 0046 FFF7FEFF 		bl	strlen
 4971              	.LVL676:
 4972 004a 81B2     		uxth	r1, r0
 4973 004c 2846     		mov	r0, r5
 4974 004e FFF7FEFF 		bl	USBUARTH_Send
 4975              	.LVL677:
 928:main.c        **** 		
 4976              		.loc 2 928 0
 4977 0052 2846     		mov	r0, r5
 4978 0054 FFF7FEFF 		bl	UART_1_PutString
 4979              	.LVL678:
 930:main.c        **** 			Measure_Wide_Gate_Sweep(loop);
 4980              		.loc 2 930 0
 4981 0058 B8F1000F 		cmp	r8, #0
 4982 005c 03D0     		beq	.L432
 931:main.c        **** 		} else {
 4983              		.loc 2 931 0
 4984 005e 4846     		mov	r0, r9
 4985 0060 FFF7FEFF 		bl	Measure_Wide_Gate_Sweep
 4986              	.LVL679:
 4987 0064 02E0     		b	.L433
 4988              	.L432:
 933:main.c        **** 		}
 4989              		.loc 2 933 0
 4990 0066 4846     		mov	r0, r9
 4991 0068 FFF7FEFF 		bl	Measure_Gate_Sweep
 4992              	.LVL680:
 4993              	.L433:
 936:main.c        **** 		while (G_Pause);
 4994              		.loc 2 936 0
 4995 006c 0C4B     		ldr	r3, .L438+8
 4996 006e 9B78     		ldrb	r3, [r3, #2]	@ zero_extendqisi2
 4997 0070 13F0FF0F 		tst	r3, #255
 4998 0074 0CD1     		bne	.L429
 936:main.c        **** 		while (G_Pause);
 4999              		.loc 2 936 0 is_stmt 0 discriminator 1
 5000 0076 0A4B     		ldr	r3, .L438+8
 5001 0078 5B78     		ldrb	r3, [r3, #1]	@ zero_extendqisi2
 5002 007a 13F0FF0F 		tst	r3, #255
 5003 007e 07D1     		bne	.L429
 5004              	.L434:
 937:main.c        **** 	}
 5005              		.loc 2 937 0 is_stmt 1 discriminator 1
 5006 0080 074B     		ldr	r3, .L438+8
 5007 0082 DB78     		ldrb	r3, [r3, #3]	@ zero_extendqisi2
 5008 0084 13F0FF0F 		tst	r3, #255
 5009 0088 FAD1     		bne	.L434
 5010              	.LBE66:
 914:main.c        **** 		uint8 contact1 = device;
 5011              		.loc 2 914 0
 5012 008a 3446     		mov	r4, r6
 5013              	.LVL681:
 5014              	.L431:
 914:main.c        **** 		uint8 contact1 = device;
 5015              		.loc 2 914 0 is_stmt 0 discriminator 1
 5016 008c BC42     		cmp	r4, r7
 5017 008e C3D9     		bls	.L435
ARM GAS  C:\Users\FRANKL~1\AppData\Local\Temp\ccebBo1q.s 			page 119


 5018              	.L429:
 5019 0090 BDE8F883 		pop	{r3, r4, r5, r6, r7, r8, r9, pc}
 5020              	.LVL682:
 5021              	.L437:
 5022              		.cfi_def_cfa_offset 0
 5023              		.cfi_restore 3
 5024              		.cfi_restore 4
 5025              		.cfi_restore 5
 5026              		.cfi_restore 6
 5027              		.cfi_restore 7
 5028              		.cfi_restore 8
 5029              		.cfi_restore 9
 5030              		.cfi_restore 14
 5031 0094 7047     		bx	lr
 5032              	.L439:
 5033 0096 00BF     		.align	2
 5034              	.L438:
 5035 0098 00000000 		.word	TransmitBuffer
 5036 009c F0000000 		.word	.LC14
 5037 00a0 00000000 		.word	.LANCHOR0
 5038              	.LBE65:
 5039              		.cfi_endproc
 5040              	.LFE114:
 5041              		.size	Scan_Range, .-Scan_Range
 5042              		.section	.text.main,"ax",%progbits
 5043              		.align	2
 5044              		.global	main
 5045              		.thumb
 5046              		.thumb_func
 5047              		.type	main, %function
 5048              	main:
 5049              	.LFB116:
1010:main.c        **** 
1011:main.c        **** int main(void) {
 5050              		.loc 2 1011 0 is_stmt 1
 5051              		.cfi_startproc
 5052              		@ args = 0, pretend = 0, frame = 8
 5053              		@ frame_needed = 0, uses_anonymous_args = 0
 5054 0000 F0B5     		push	{r4, r5, r6, r7, lr}
 5055              		.cfi_def_cfa_offset 20
 5056              		.cfi_offset 4, -20
 5057              		.cfi_offset 5, -16
 5058              		.cfi_offset 6, -12
 5059              		.cfi_offset 7, -8
 5060              		.cfi_offset 14, -4
 5061 0002 83B0     		sub	sp, sp, #12
 5062              		.cfi_def_cfa_offset 32
1012:main.c        **** 	CyGlobalIntEnable;
 5063              		.loc 2 1012 0
 5064              		.syntax unified
 5065              	@ 1012 "main.c" 1
 5066 0004 62B6     		CPSIE   i
 5067              	@ 0 "" 2
1013:main.c        **** 	
1014:main.c        **** 	Setup_Selectors();
 5068              		.loc 2 1014 0
 5069              		.thumb
ARM GAS  C:\Users\FRANKL~1\AppData\Local\Temp\ccebBo1q.s 			page 120


 5070              		.syntax unified
 5071 0006 FFF7FEFF 		bl	Setup_Selectors
 5072              	.LVL683:
1015:main.c        **** 	
1016:main.c        **** 	USBUART_Start(0u, USBUART_5V_OPERATION);
 5073              		.loc 2 1016 0
 5074 000a 0121     		movs	r1, #1
 5075 000c 0020     		movs	r0, #0
 5076 000e FFF7FEFF 		bl	USBUART_Start
 5077              	.LVL684:
1017:main.c        **** 	UART_1_Start();
 5078              		.loc 2 1017 0
 5079 0012 FFF7FEFF 		bl	UART_1_Start
 5080              	.LVL685:
1018:main.c        **** 	VDAC_Vds_Start();
 5081              		.loc 2 1018 0
 5082 0016 FFF7FEFF 		bl	VDAC_Vds_Start
 5083              	.LVL686:
1019:main.c        **** 	VDAC_Vgs_Start();
 5084              		.loc 2 1019 0
 5085 001a FFF7FEFF 		bl	VDAC_Vgs_Start
 5086              	.LVL687:
1020:main.c        **** 	VDAC_Ref_Start();
 5087              		.loc 2 1020 0
 5088 001e FFF7FEFF 		bl	VDAC_Ref_Start
 5089              	.LVL688:
1021:main.c        **** 	ADC_DelSig_1_Start();
 5090              		.loc 2 1021 0
 5091 0022 FFF7FEFF 		bl	ADC_DelSig_1_Start
 5092              	.LVL689:
1022:main.c        **** 	TIA_1_Start();
 5093              		.loc 2 1022 0
 5094 0026 FFF7FEFF 		bl	TIA_1_Start
 5095              	.LVL690:
1023:main.c        **** 	I2C_1_Start();
 5096              		.loc 2 1023 0
 5097 002a FFF7FEFF 		bl	I2C_1_Start
 5098              	.LVL691:
1024:main.c        **** 	ADC_SAR_1_Start();
 5099              		.loc 2 1024 0
 5100 002e FFF7FEFF 		bl	ADC_SAR_1_Start
 5101              	.LVL692:
1025:main.c        **** 	ADC_SAR_2_Start();
 5102              		.loc 2 1025 0
 5103 0032 FFF7FEFF 		bl	ADC_SAR_2_Start
 5104              	.LVL693:
1026:main.c        **** 	
1027:main.c        **** 	//Start the op-amp buffers
1028:main.c        **** 	Opamp_1_Start();
 5105              		.loc 2 1028 0
 5106 0036 FFF7FEFF 		bl	Opamp_1_Start
 5107              	.LVL694:
1029:main.c        **** 	
1030:main.c        **** 	CyDelay(1000);
 5108              		.loc 2 1030 0
 5109 003a 4FF47A70 		mov	r0, #1000
 5110 003e FFF7FEFF 		bl	CyDelay
ARM GAS  C:\Users\FRANKL~1\AppData\Local\Temp\ccebBo1q.s 			page 121


 5111              	.LVL695:
1031:main.c        **** 	
1032:main.c        **** 	UART_1_PutString("\r\n# Starting\r\n");
 5112              		.loc 2 1032 0
 5113 0042 B948     		ldr	r0, .L477
 5114 0044 FFF7FEFF 		bl	UART_1_PutString
 5115              	.LVL696:
1033:main.c        **** 	
1034:main.c        **** 	Connect_Intermediates();
 5116              		.loc 2 1034 0
 5117 0048 FFF7FEFF 		bl	Connect_Intermediates
 5118              	.LVL697:
1035:main.c        **** 	
1036:main.c        **** 	newData = 0;
 5119              		.loc 2 1036 0
 5120 004c B74C     		ldr	r4, .L477+4
 5121 004e 0023     		movs	r3, #0
 5122 0050 2370     		strb	r3, [r4]
1037:main.c        **** 	UART_Rx_Position = 0;
 5123              		.loc 2 1037 0
 5124 0052 B74A     		ldr	r2, .L477+8
 5125 0054 1370     		strb	r3, [r2]
1038:main.c        **** 	USBUART_Rx_Position = 0;
 5126              		.loc 2 1038 0
 5127 0056 B74A     		ldr	r2, .L477+12
 5128 0058 1370     		strb	r3, [r2]
1039:main.c        **** 	
1040:main.c        **** 	CommunicationTimer_Start();
 5129              		.loc 2 1040 0
 5130 005a FFF7FEFF 		bl	CommunicationTimer_Start
 5131              	.LVL698:
1041:main.c        **** 	CommunicationInterrupt_StartEx(CommunicationHandlerISR);
 5132              		.loc 2 1041 0
 5133 005e B648     		ldr	r0, .L477+16
 5134 0060 FFF7FEFF 		bl	CommunicationInterrupt_StartEx
 5135              	.LVL699:
1042:main.c        **** 	
1043:main.c        **** 	Current_Measurement_Sample_Count = 100;
 5136              		.loc 2 1043 0
 5137 0064 6422     		movs	r2, #100
 5138 0066 B54B     		ldr	r3, .L477+20
 5139 0068 1A60     		str	r2, [r3]
1044:main.c        **** 	
1045:main.c        **** 	Calibrate_ADC_Offset(300);
 5140              		.loc 2 1045 0
 5141 006a 4FF49670 		mov	r0, #300
 5142 006e FFF7FEFF 		bl	Calibrate_ADC_Offset
 5143              	.LVL700:
1046:main.c        **** 	TIA_Set_Resistor(TIA_Selected_Resistor);
 5144              		.loc 2 1046 0
 5145 0072 2079     		ldrb	r0, [r4, #4]	@ zero_extendqisi2
 5146 0074 FFF7FEFF 		bl	TIA_Set_Resistor
 5147              	.LVL701:
 5148              	.L442:
1047:main.c        **** 	
1048:main.c        **** 	while (1) {
1049:main.c        **** 		G_Stop = 0;
ARM GAS  C:\Users\FRANKL~1\AppData\Local\Temp\ccebBo1q.s 			page 122


 5149              		.loc 2 1049 0
 5150 0078 AC4B     		ldr	r3, .L477+4
 5151 007a 0022     		movs	r2, #0
 5152 007c 5A70     		strb	r2, [r3, #1]
1050:main.c        **** 		G_Break = 0;
 5153              		.loc 2 1050 0
 5154 007e 9A70     		strb	r2, [r3, #2]
1051:main.c        **** 		
1052:main.c        **** 		if (newData) {
 5155              		.loc 2 1052 0
 5156 0080 1B78     		ldrb	r3, [r3]	@ zero_extendqisi2
 5157 0082 13F0FF0F 		tst	r3, #255
 5158 0086 F7D0     		beq	.L442
 5159              	.LVL702:
 5160              	.LBB67:
1053:main.c        **** 			char* ReceiveBuffer = &USBUART_Receive_Buffer[0];
1054:main.c        **** 			if (newData == 2) ReceiveBuffer = &UART_Receive_Buffer[0];
 5161              		.loc 2 1054 0
 5162 0088 A84B     		ldr	r3, .L477+4
 5163 008a 1B78     		ldrb	r3, [r3]	@ zero_extendqisi2
 5164 008c DBB2     		uxtb	r3, r3
 5165 008e 022B     		cmp	r3, #2
 5166 0090 01D0     		beq	.L475
1053:main.c        **** 			char* ReceiveBuffer = &USBUART_Receive_Buffer[0];
 5167              		.loc 2 1053 0
 5168 0092 AB4C     		ldr	r4, .L477+24
 5169 0094 00E0     		b	.L443
 5170              	.L475:
 5171              		.loc 2 1054 0
 5172 0096 AB4C     		ldr	r4, .L477+28
 5173              	.L443:
 5174              	.LVL703:
1055:main.c        **** 			
1056:main.c        **** 			newData = 0;
 5175              		.loc 2 1056 0
 5176 0098 0022     		movs	r2, #0
 5177 009a A44B     		ldr	r3, .L477+4
 5178 009c 1A70     		strb	r2, [r3]
1057:main.c        **** 			
1058:main.c        **** 			if (strstr(ReceiveBuffer, "measure ") == &ReceiveBuffer[0]) {
 5179              		.loc 2 1058 0
 5180 009e AA49     		ldr	r1, .L477+32
 5181 00a0 2046     		mov	r0, r4
 5182 00a2 FFF7FEFF 		bl	strstr
 5183              	.LVL704:
 5184 00a6 8442     		cmp	r4, r0
 5185 00a8 05D1     		bne	.L444
1059:main.c        **** 				Measure(100, 1, 10);
 5186              		.loc 2 1059 0
 5187 00aa 0A22     		movs	r2, #10
 5188 00ac 0121     		movs	r1, #1
 5189 00ae 6420     		movs	r0, #100
 5190 00b0 FFF7FEFF 		bl	Measure
 5191              	.LVL705:
 5192 00b4 E0E7     		b	.L442
 5193              	.L444:
1060:main.c        **** 			} else 
ARM GAS  C:\Users\FRANKL~1\AppData\Local\Temp\ccebBo1q.s 			page 123


1061:main.c        **** 			if (strstr(ReceiveBuffer, "measure-multiple ") == &ReceiveBuffer[0]) {
 5194              		.loc 2 1061 0
 5195 00b6 A549     		ldr	r1, .L477+36
 5196 00b8 2046     		mov	r0, r4
 5197 00ba FFF7FEFF 		bl	strstr
 5198              	.LVL706:
 5199 00be 8442     		cmp	r4, r0
 5200 00c0 0CD1     		bne	.L446
 5201              	.LBB68:
1062:main.c        **** 				char* location = strstr(ReceiveBuffer, " ");
 5202              		.loc 2 1062 0
 5203 00c2 2021     		movs	r1, #32
 5204 00c4 2046     		mov	r0, r4
 5205 00c6 FFF7FEFF 		bl	strchr
 5206              	.LVL707:
 5207 00ca 02A9     		add	r1, sp, #8
 5208 00cc 41F8040D 		str	r0, [r1, #-4]!
1063:main.c        **** 				uint32 n = strtol(location, &location, 10);
 5209              		.loc 2 1063 0
 5210 00d0 0A22     		movs	r2, #10
 5211 00d2 FFF7FEFF 		bl	strtol
 5212              	.LVL708:
1064:main.c        **** 				
1065:main.c        **** 				Measure_Multiple(n);
 5213              		.loc 2 1065 0
 5214 00d6 FFF7FEFF 		bl	Measure_Multiple
 5215              	.LVL709:
 5216              	.LBE68:
 5217 00da CDE7     		b	.L442
 5218              	.L446:
1066:main.c        **** 			} else 
1067:main.c        **** 			if (strstr(ReceiveBuffer, "measure-sweep ") == &ReceiveBuffer[0]) {
 5219              		.loc 2 1067 0
 5220 00dc 9C49     		ldr	r1, .L477+40
 5221 00de 2046     		mov	r0, r4
 5222 00e0 FFF7FEFF 		bl	strstr
 5223              	.LVL710:
 5224 00e4 8442     		cmp	r4, r0
 5225 00e6 02D1     		bne	.L447
1068:main.c        **** 				Measure_Sweep();
 5226              		.loc 2 1068 0
 5227 00e8 FFF7FEFF 		bl	Measure_Sweep
 5228              	.LVL711:
 5229 00ec C4E7     		b	.L442
 5230              	.L447:
1069:main.c        **** 			} else 
1070:main.c        **** 			if (strstr(ReceiveBuffer, "measure-gate-sweep ") == &ReceiveBuffer[0]) {
 5231              		.loc 2 1070 0
 5232 00ee 9949     		ldr	r1, .L477+44
 5233 00f0 2046     		mov	r0, r4
 5234 00f2 FFF7FEFF 		bl	strstr
 5235              	.LVL712:
 5236 00f6 8442     		cmp	r4, r0
 5237 00f8 03D1     		bne	.L448
1071:main.c        **** 				Measure_Gate_Sweep(0);
 5238              		.loc 2 1071 0
 5239 00fa 0020     		movs	r0, #0
ARM GAS  C:\Users\FRANKL~1\AppData\Local\Temp\ccebBo1q.s 			page 124


 5240 00fc FFF7FEFF 		bl	Measure_Gate_Sweep
 5241              	.LVL713:
 5242 0100 BAE7     		b	.L442
 5243              	.L448:
1072:main.c        **** 			} else 
1073:main.c        **** 			if (strstr(ReceiveBuffer, "measure-gate-sweep-loop ") == &ReceiveBuffer[0]) {
 5244              		.loc 2 1073 0
 5245 0102 9549     		ldr	r1, .L477+48
 5246 0104 2046     		mov	r0, r4
 5247 0106 FFF7FEFF 		bl	strstr
 5248              	.LVL714:
 5249 010a 8442     		cmp	r4, r0
 5250 010c 03D1     		bne	.L449
1074:main.c        **** 				Measure_Gate_Sweep(1);
 5251              		.loc 2 1074 0
 5252 010e 0120     		movs	r0, #1
 5253 0110 FFF7FEFF 		bl	Measure_Gate_Sweep
 5254              	.LVL715:
 5255 0114 B0E7     		b	.L442
 5256              	.L449:
1075:main.c        **** 			} else 
1076:main.c        **** 			if (strstr(ReceiveBuffer, "calibrate-offset ") == &ReceiveBuffer[0]) {
 5257              		.loc 2 1076 0
 5258 0116 9149     		ldr	r1, .L477+52
 5259 0118 2046     		mov	r0, r4
 5260 011a FFF7FEFF 		bl	strstr
 5261              	.LVL716:
 5262 011e 8442     		cmp	r4, r0
 5263 0120 04D1     		bne	.L450
1077:main.c        **** 				Calibrate_ADC_Offset(300);
 5264              		.loc 2 1077 0
 5265 0122 4FF49670 		mov	r0, #300
 5266 0126 FFF7FEFF 		bl	Calibrate_ADC_Offset
 5267              	.LVL717:
 5268 012a A5E7     		b	.L442
 5269              	.L450:
1078:main.c        **** 			} else
1079:main.c        **** 			if (strstr(ReceiveBuffer, "set-vgs-raw ") == &ReceiveBuffer[0]) {
 5270              		.loc 2 1079 0
 5271 012c 8C49     		ldr	r1, .L477+56
 5272 012e 2046     		mov	r0, r4
 5273 0130 FFF7FEFF 		bl	strstr
 5274              	.LVL718:
 5275 0134 8442     		cmp	r4, r0
 5276 0136 0DD1     		bne	.L451
 5277              	.LBB69:
1080:main.c        **** 				char* location = strstr(ReceiveBuffer, " ");
 5278              		.loc 2 1080 0 discriminator 2
 5279 0138 2021     		movs	r1, #32
 5280 013a 2046     		mov	r0, r4
 5281 013c FFF7FEFF 		bl	strchr
 5282              	.LVL719:
 5283 0140 02A9     		add	r1, sp, #8
 5284 0142 41F8040D 		str	r0, [r1, #-4]!
1081:main.c        **** 				uint8 vgsi = strtol(location, &location, 10);
 5285              		.loc 2 1081 0 discriminator 2
 5286 0146 0A22     		movs	r2, #10
ARM GAS  C:\Users\FRANKL~1\AppData\Local\Temp\ccebBo1q.s 			page 125


 5287 0148 FFF7FEFF 		bl	strtol
 5288              	.LVL720:
1082:main.c        **** 				
1083:main.c        **** 				Set_Vgs_Raw(vgsi);
 5289              		.loc 2 1083 0 discriminator 2
 5290 014c C0B2     		uxtb	r0, r0
 5291 014e FFF7FEFF 		bl	Set_Vgs_Raw
 5292              	.LVL721:
 5293              	.LBE69:
 5294 0152 91E7     		b	.L442
 5295              	.L451:
1084:main.c        **** 			} else 
1085:main.c        **** 			if (strstr(ReceiveBuffer, "set-vds-raw ") == &ReceiveBuffer[0]) {
 5296              		.loc 2 1085 0
 5297 0154 8349     		ldr	r1, .L477+60
 5298 0156 2046     		mov	r0, r4
 5299 0158 FFF7FEFF 		bl	strstr
 5300              	.LVL722:
 5301 015c 8442     		cmp	r4, r0
 5302 015e 0DD1     		bne	.L452
 5303              	.LBB70:
1086:main.c        **** 				char* location = strstr(ReceiveBuffer, " ");
 5304              		.loc 2 1086 0 discriminator 3
 5305 0160 2021     		movs	r1, #32
 5306 0162 2046     		mov	r0, r4
 5307 0164 FFF7FEFF 		bl	strchr
 5308              	.LVL723:
 5309 0168 02A9     		add	r1, sp, #8
 5310 016a 41F8040D 		str	r0, [r1, #-4]!
1087:main.c        **** 				uint8 vdsi = strtol(location, &location, 10);
 5311              		.loc 2 1087 0 discriminator 3
 5312 016e 0A22     		movs	r2, #10
 5313 0170 FFF7FEFF 		bl	strtol
 5314              	.LVL724:
1088:main.c        **** 				
1089:main.c        **** 				Set_Vds_Raw(vdsi);
 5315              		.loc 2 1089 0 discriminator 3
 5316 0174 C0B2     		uxtb	r0, r0
 5317 0176 FFF7FEFF 		bl	Set_Vds_Raw
 5318              	.LVL725:
 5319              	.LBE70:
 5320 017a 7DE7     		b	.L442
 5321              	.L452:
1090:main.c        **** 			} else 
1091:main.c        **** 			if (strstr(ReceiveBuffer, "set-vgs-rel ") == &ReceiveBuffer[0]) {
 5322              		.loc 2 1091 0
 5323 017c 7A49     		ldr	r1, .L477+64
 5324 017e 2046     		mov	r0, r4
 5325 0180 FFF7FEFF 		bl	strstr
 5326              	.LVL726:
 5327 0184 8442     		cmp	r4, r0
 5328 0186 0DD1     		bne	.L453
 5329              	.LBB71:
1092:main.c        **** 				char* location = strstr(ReceiveBuffer, " ");
 5330              		.loc 2 1092 0 discriminator 4
 5331 0188 2021     		movs	r1, #32
 5332 018a 2046     		mov	r0, r4
ARM GAS  C:\Users\FRANKL~1\AppData\Local\Temp\ccebBo1q.s 			page 126


 5333 018c FFF7FEFF 		bl	strchr
 5334              	.LVL727:
 5335 0190 02A9     		add	r1, sp, #8
 5336 0192 41F8040D 		str	r0, [r1, #-4]!
1093:main.c        **** 				int8 vgsi = strtol(location, &location, 10);
 5337              		.loc 2 1093 0 discriminator 4
 5338 0196 0A22     		movs	r2, #10
 5339 0198 FFF7FEFF 		bl	strtol
 5340              	.LVL728:
1094:main.c        **** 				
1095:main.c        **** 				Set_Vgs_Rel(vgsi);
 5341              		.loc 2 1095 0 discriminator 4
 5342 019c 40B2     		sxtb	r0, r0
 5343 019e FFF7FEFF 		bl	Set_Vgs_Rel
 5344              	.LVL729:
 5345              	.LBE71:
 5346 01a2 69E7     		b	.L442
 5347              	.L453:
1096:main.c        **** 			} else 
1097:main.c        **** 			if (strstr(ReceiveBuffer, "set-vds-rel ") == &ReceiveBuffer[0]) {
 5348              		.loc 2 1097 0
 5349 01a4 7149     		ldr	r1, .L477+68
 5350 01a6 2046     		mov	r0, r4
 5351 01a8 FFF7FEFF 		bl	strstr
 5352              	.LVL730:
 5353 01ac 8442     		cmp	r4, r0
 5354 01ae 0DD1     		bne	.L454
 5355              	.LBB72:
1098:main.c        **** 				char* location = strstr(ReceiveBuffer, " ");
 5356              		.loc 2 1098 0 discriminator 5
 5357 01b0 2021     		movs	r1, #32
 5358 01b2 2046     		mov	r0, r4
 5359 01b4 FFF7FEFF 		bl	strchr
 5360              	.LVL731:
 5361 01b8 02A9     		add	r1, sp, #8
 5362 01ba 41F8040D 		str	r0, [r1, #-4]!
1099:main.c        **** 				int8 vdsi = strtol(location, &location, 10);
 5363              		.loc 2 1099 0 discriminator 5
 5364 01be 0A22     		movs	r2, #10
 5365 01c0 FFF7FEFF 		bl	strtol
 5366              	.LVL732:
1100:main.c        **** 				
1101:main.c        **** 				Set_Vds_Rel(vdsi);
 5367              		.loc 2 1101 0 discriminator 5
 5368 01c4 40B2     		sxtb	r0, r0
 5369 01c6 FFF7FEFF 		bl	Set_Vds_Rel
 5370              	.LVL733:
 5371              	.LBE72:
 5372 01ca 55E7     		b	.L442
 5373              	.L454:
1102:main.c        **** 			} else 
1103:main.c        **** 			if (strstr(ReceiveBuffer, "set-vgs ") == &ReceiveBuffer[0]) {
 5374              		.loc 2 1103 0
 5375 01cc 6849     		ldr	r1, .L477+72
 5376 01ce 2046     		mov	r0, r4
 5377 01d0 FFF7FEFF 		bl	strstr
 5378              	.LVL734:
ARM GAS  C:\Users\FRANKL~1\AppData\Local\Temp\ccebBo1q.s 			page 127


 5379 01d4 8442     		cmp	r4, r0
 5380 01d6 0ED1     		bne	.L455
 5381              	.LBB73:
1104:main.c        **** 				char* location = strstr(ReceiveBuffer, " ");
 5382              		.loc 2 1104 0 discriminator 6
 5383 01d8 2021     		movs	r1, #32
 5384 01da 2046     		mov	r0, r4
 5385 01dc FFF7FEFF 		bl	strchr
 5386              	.LVL735:
1105:main.c        **** 				float vgs = 0;
 5387              		.loc 2 1105 0 discriminator 6
 5388 01e0 02AA     		add	r2, sp, #8
 5389 01e2 0023     		movs	r3, #0
 5390 01e4 42F8043D 		str	r3, [r2, #-4]!	@ float
1106:main.c        **** 				int8 success = sscanf(location, "%f", &vgs);
 5391              		.loc 2 1106 0 discriminator 6
 5392 01e8 6249     		ldr	r1, .L477+76
 5393 01ea FFF7FEFF 		bl	sscanf
 5394              	.LVL736:
1107:main.c        **** 				
1108:main.c        **** 				Set_Vgs(vgs);
 5395              		.loc 2 1108 0 discriminator 6
 5396 01ee 0198     		ldr	r0, [sp, #4]	@ float
 5397 01f0 FFF7FEFF 		bl	Set_Vgs
 5398              	.LVL737:
 5399              	.LBE73:
 5400 01f4 40E7     		b	.L442
 5401              	.L455:
1109:main.c        **** 			} else 
1110:main.c        **** 			if (strstr(ReceiveBuffer, "set-vds ") == &ReceiveBuffer[0]) {
 5402              		.loc 2 1110 0
 5403 01f6 6049     		ldr	r1, .L477+80
 5404 01f8 2046     		mov	r0, r4
 5405 01fa FFF7FEFF 		bl	strstr
 5406              	.LVL738:
 5407 01fe 8442     		cmp	r4, r0
 5408 0200 0ED1     		bne	.L456
 5409              	.LBB74:
1111:main.c        **** 				char* location = strstr(ReceiveBuffer, " ");
 5410              		.loc 2 1111 0 discriminator 7
 5411 0202 2021     		movs	r1, #32
 5412 0204 2046     		mov	r0, r4
 5413 0206 FFF7FEFF 		bl	strchr
 5414              	.LVL739:
1112:main.c        **** 				float vds = 0;
 5415              		.loc 2 1112 0 discriminator 7
 5416 020a 02AA     		add	r2, sp, #8
 5417 020c 0023     		movs	r3, #0
 5418 020e 42F8043D 		str	r3, [r2, #-4]!	@ float
1113:main.c        **** 				int8 success = sscanf(location, "%f", &vds);
 5419              		.loc 2 1113 0 discriminator 7
 5420 0212 5849     		ldr	r1, .L477+76
 5421 0214 FFF7FEFF 		bl	sscanf
 5422              	.LVL740:
1114:main.c        **** 				
1115:main.c        **** 				Set_Vds(vds);
 5423              		.loc 2 1115 0 discriminator 7
ARM GAS  C:\Users\FRANKL~1\AppData\Local\Temp\ccebBo1q.s 			page 128


 5424 0218 0198     		ldr	r0, [sp, #4]	@ float
 5425 021a FFF7FEFF 		bl	Set_Vds
 5426              	.LVL741:
 5427              	.LBE74:
 5428 021e 2BE7     		b	.L442
 5429              	.L456:
1116:main.c        **** 			} else 
1117:main.c        **** 			if (strstr(ReceiveBuffer, "set-vgs-mv ") == &ReceiveBuffer[0]) {
 5430              		.loc 2 1117 0
 5431 0220 5649     		ldr	r1, .L477+84
 5432 0222 2046     		mov	r0, r4
 5433 0224 FFF7FEFF 		bl	strstr
 5434              	.LVL742:
 5435 0228 8442     		cmp	r4, r0
 5436 022a 23D1     		bne	.L457
 5437              	.LBB75:
1118:main.c        **** 				char* location = strstr(ReceiveBuffer, " ");
 5438              		.loc 2 1118 0 discriminator 8
 5439 022c 2021     		movs	r1, #32
 5440 022e 2046     		mov	r0, r4
 5441 0230 FFF7FEFF 		bl	strchr
 5442              	.LVL743:
 5443 0234 02A9     		add	r1, sp, #8
 5444 0236 41F8040D 		str	r0, [r1, #-4]!
1119:main.c        **** 				float Vgs_mV = (float)(strtol(location, &location, 10));
 5445              		.loc 2 1119 0 discriminator 8
 5446 023a 0A22     		movs	r2, #10
 5447 023c FFF7FEFF 		bl	strtol
 5448              	.LVL744:
 5449 0240 FFF7FEFF 		bl	__aeabi_i2f
 5450              	.LVL745:
 5451 0244 0446     		mov	r4, r0
 5452              	.LVL746:
1120:main.c        **** 				
1121:main.c        **** 				Set_Vgs_mV(Vgs_mV);
 5453              		.loc 2 1121 0 discriminator 8
 5454 0246 FFF7FEFF 		bl	Set_Vgs_mV
 5455              	.LVL747:
1122:main.c        **** 				
1123:main.c        **** 				sprintf(TransmitBuffer, "# Vgs set to %f mV\r\n", Vgs_mV);
 5456              		.loc 2 1123 0 discriminator 8
 5457 024a 2046     		mov	r0, r4
 5458 024c FFF7FEFF 		bl	__aeabi_f2d
 5459              	.LVL748:
 5460 0250 4B4C     		ldr	r4, .L477+88
 5461              	.LVL749:
 5462 0252 0246     		mov	r2, r0
 5463 0254 0B46     		mov	r3, r1
 5464 0256 4B49     		ldr	r1, .L477+92
 5465 0258 2046     		mov	r0, r4
 5466 025a FFF7FEFF 		bl	sprintf
 5467              	.LVL750:
1124:main.c        **** 				USBUARTH_Send(TransmitBuffer, strlen(TransmitBuffer));
 5468              		.loc 2 1124 0 discriminator 8
 5469 025e 2046     		mov	r0, r4
 5470 0260 FFF7FEFF 		bl	strlen
 5471              	.LVL751:
ARM GAS  C:\Users\FRANKL~1\AppData\Local\Temp\ccebBo1q.s 			page 129


 5472 0264 81B2     		uxth	r1, r0
 5473 0266 2046     		mov	r0, r4
 5474 0268 FFF7FEFF 		bl	USBUARTH_Send
 5475              	.LVL752:
1125:main.c        **** 				UART_1_PutString(TransmitBuffer);
 5476              		.loc 2 1125 0 discriminator 8
 5477 026c 2046     		mov	r0, r4
 5478 026e FFF7FEFF 		bl	UART_1_PutString
 5479              	.LVL753:
 5480              	.LBE75:
 5481 0272 01E7     		b	.L442
 5482              	.LVL754:
 5483              	.L457:
1126:main.c        **** 			} else 
1127:main.c        **** 			if (strstr(ReceiveBuffer, "set-vds-mv ") == &ReceiveBuffer[0]) {
 5484              		.loc 2 1127 0
 5485 0274 4449     		ldr	r1, .L477+96
 5486 0276 2046     		mov	r0, r4
 5487 0278 FFF7FEFF 		bl	strstr
 5488              	.LVL755:
 5489 027c 8442     		cmp	r4, r0
 5490 027e 23D1     		bne	.L458
 5491              	.LBB76:
1128:main.c        **** 				char* location = strstr(ReceiveBuffer, " ");
 5492              		.loc 2 1128 0 discriminator 9
 5493 0280 2021     		movs	r1, #32
 5494 0282 2046     		mov	r0, r4
 5495 0284 FFF7FEFF 		bl	strchr
 5496              	.LVL756:
 5497 0288 02A9     		add	r1, sp, #8
 5498 028a 41F8040D 		str	r0, [r1, #-4]!
1129:main.c        **** 				float Vds_mV = (float)(strtol(location, &location, 10));
 5499              		.loc 2 1129 0 discriminator 9
 5500 028e 0A22     		movs	r2, #10
 5501 0290 FFF7FEFF 		bl	strtol
 5502              	.LVL757:
 5503 0294 FFF7FEFF 		bl	__aeabi_i2f
 5504              	.LVL758:
 5505 0298 0446     		mov	r4, r0
 5506              	.LVL759:
1130:main.c        **** 				
1131:main.c        **** 				Set_Vds_mV(Vds_mV);
 5507              		.loc 2 1131 0 discriminator 9
 5508 029a FFF7FEFF 		bl	Set_Vds_mV
 5509              	.LVL760:
1132:main.c        **** 				
1133:main.c        **** 				sprintf(TransmitBuffer, "# Vds set to %f mV\r\n", Vds_mV);
 5510              		.loc 2 1133 0 discriminator 9
 5511 029e 2046     		mov	r0, r4
 5512 02a0 FFF7FEFF 		bl	__aeabi_f2d
 5513              	.LVL761:
 5514 02a4 364C     		ldr	r4, .L477+88
 5515              	.LVL762:
 5516 02a6 0246     		mov	r2, r0
 5517 02a8 0B46     		mov	r3, r1
 5518 02aa 3849     		ldr	r1, .L477+100
 5519 02ac 2046     		mov	r0, r4
ARM GAS  C:\Users\FRANKL~1\AppData\Local\Temp\ccebBo1q.s 			page 130


 5520 02ae FFF7FEFF 		bl	sprintf
 5521              	.LVL763:
1134:main.c        **** 				USBUARTH_Send(TransmitBuffer, strlen(TransmitBuffer));
 5522              		.loc 2 1134 0 discriminator 9
 5523 02b2 2046     		mov	r0, r4
 5524 02b4 FFF7FEFF 		bl	strlen
 5525              	.LVL764:
 5526 02b8 81B2     		uxth	r1, r0
 5527 02ba 2046     		mov	r0, r4
 5528 02bc FFF7FEFF 		bl	USBUARTH_Send
 5529              	.LVL765:
1135:main.c        **** 				UART_1_PutString(TransmitBuffer);
 5530              		.loc 2 1135 0 discriminator 9
 5531 02c0 2046     		mov	r0, r4
 5532 02c2 FFF7FEFF 		bl	UART_1_PutString
 5533              	.LVL766:
 5534              	.LBE76:
 5535 02c6 D7E6     		b	.L442
 5536              	.LVL767:
 5537              	.L458:
1136:main.c        **** 			} else 
1137:main.c        **** 			if (strstr(ReceiveBuffer, "scan ") == &ReceiveBuffer[0]) {
 5538              		.loc 2 1137 0
 5539 02c8 3149     		ldr	r1, .L477+104
 5540 02ca 2046     		mov	r0, r4
 5541 02cc FFF7FEFF 		bl	strstr
 5542              	.LVL768:
 5543 02d0 8442     		cmp	r4, r0
 5544 02d2 63D1     		bne	.L459
1138:main.c        **** 				sprintf(TransmitBuffer, "\r\n# Scan Starting\r\n");
 5545              		.loc 2 1138 0
 5546 02d4 2A4C     		ldr	r4, .L477+88
 5547              	.LVL769:
 5548 02d6 2F4D     		ldr	r5, .L477+108
 5549 02d8 0FCD     		ldmia	r5!, {r0, r1, r2, r3}
 5550 02da 2060     		str	r0, [r4]	@ unaligned
 5551 02dc 6160     		str	r1, [r4, #4]	@ unaligned
 5552 02de A260     		str	r2, [r4, #8]	@ unaligned
 5553 02e0 E360     		str	r3, [r4, #12]	@ unaligned
 5554 02e2 2868     		ldr	r0, [r5]	@ unaligned
 5555 02e4 2061     		str	r0, [r4, #16]	@ unaligned
1139:main.c        **** 				USBUARTH_Send(TransmitBuffer, strlen(TransmitBuffer));
 5556              		.loc 2 1139 0
 5557 02e6 2046     		mov	r0, r4
 5558 02e8 FFF7FEFF 		bl	strlen
 5559              	.LVL770:
 5560 02ec 81B2     		uxth	r1, r0
 5561 02ee 2046     		mov	r0, r4
 5562 02f0 FFF7FEFF 		bl	USBUARTH_Send
 5563              	.LVL771:
1140:main.c        **** 				UART_1_PutString(TransmitBuffer);
 5564              		.loc 2 1140 0
 5565 02f4 2046     		mov	r0, r4
 5566 02f6 FFF7FEFF 		bl	UART_1_PutString
 5567              	.LVL772:
1141:main.c        **** 				
1142:main.c        **** 				Scan(0, 0);
ARM GAS  C:\Users\FRANKL~1\AppData\Local\Temp\ccebBo1q.s 			page 131


 5568              		.loc 2 1142 0
 5569 02fa 0021     		movs	r1, #0
 5570 02fc 0846     		mov	r0, r1
 5571 02fe FFF7FEFF 		bl	Scan
 5572              	.LVL773:
1143:main.c        **** 				
1144:main.c        **** 				sprintf(TransmitBuffer, "\r\n# Scan Complete\r\n");
 5573              		.loc 2 1144 0
 5574 0302 254D     		ldr	r5, .L477+112
 5575 0304 0FCD     		ldmia	r5!, {r0, r1, r2, r3}
 5576 0306 2060     		str	r0, [r4]	@ unaligned
 5577 0308 6160     		str	r1, [r4, #4]	@ unaligned
 5578 030a A260     		str	r2, [r4, #8]	@ unaligned
 5579 030c E360     		str	r3, [r4, #12]	@ unaligned
 5580 030e 2868     		ldr	r0, [r5]	@ unaligned
 5581 0310 2061     		str	r0, [r4, #16]	@ unaligned
1145:main.c        **** 				USBUARTH_Send(TransmitBuffer, strlen(TransmitBuffer));
 5582              		.loc 2 1145 0
 5583 0312 2046     		mov	r0, r4
 5584 0314 FFF7FEFF 		bl	strlen
 5585              	.LVL774:
 5586 0318 81B2     		uxth	r1, r0
 5587 031a 2046     		mov	r0, r4
 5588 031c FFF7FEFF 		bl	USBUARTH_Send
 5589              	.LVL775:
1146:main.c        **** 				UART_1_PutString(TransmitBuffer);
 5590              		.loc 2 1146 0
 5591 0320 2046     		mov	r0, r4
 5592 0322 FFF7FEFF 		bl	UART_1_PutString
 5593              	.LVL776:
 5594 0326 A7E6     		b	.L442
 5595              	.L478:
 5596              		.align	2
 5597              	.L477:
 5598 0328 F8000000 		.word	.LC15
 5599 032c 00000000 		.word	.LANCHOR0
 5600 0330 00000000 		.word	UART_Rx_Position
 5601 0334 00000000 		.word	USBUART_Rx_Position
 5602 0338 00000000 		.word	CommunicationHandlerISR
 5603 033c 00000000 		.word	Current_Measurement_Sample_Count
 5604 0340 00000000 		.word	USBUART_Receive_Buffer
 5605 0344 00000000 		.word	UART_Receive_Buffer
 5606 0348 08010000 		.word	.LC16
 5607 034c 14010000 		.word	.LC17
 5608 0350 28010000 		.word	.LC18
 5609 0354 38010000 		.word	.LC19
 5610 0358 4C010000 		.word	.LC20
 5611 035c 68010000 		.word	.LC21
 5612 0360 7C010000 		.word	.LC22
 5613 0364 8C010000 		.word	.LC23
 5614 0368 9C010000 		.word	.LC24
 5615 036c AC010000 		.word	.LC25
 5616 0370 BC010000 		.word	.LC26
 5617 0374 C8010000 		.word	.LC27
 5618 0378 CC010000 		.word	.LC28
 5619 037c D8010000 		.word	.LC29
 5620 0380 00000000 		.word	TransmitBuffer
ARM GAS  C:\Users\FRANKL~1\AppData\Local\Temp\ccebBo1q.s 			page 132


 5621 0384 E4010000 		.word	.LC30
 5622 0388 FC010000 		.word	.LC31
 5623 038c 08020000 		.word	.LC32
 5624 0390 20020000 		.word	.LC33
 5625 0394 28020000 		.word	.LC34
 5626 0398 3C020000 		.word	.LC35
 5627              	.LVL777:
 5628              	.L459:
1147:main.c        **** 			} else 
1148:main.c        **** 			if (strstr(ReceiveBuffer, "scan-range ") == &ReceiveBuffer[0]) {
 5629              		.loc 2 1148 0
 5630 039c CD49     		ldr	r1, .L479
 5631 039e 2046     		mov	r0, r4
 5632 03a0 FFF7FEFF 		bl	strstr
 5633              	.LVL778:
 5634 03a4 8442     		cmp	r4, r0
 5635 03a6 42D1     		bne	.L460
 5636              	.LBB77:
1149:main.c        **** 				sprintf(TransmitBuffer, "\r\n# Scan-Range Starting\r\n");
 5637              		.loc 2 1149 0 discriminator 10
 5638 03a8 CB4D     		ldr	r5, .L479+4
 5639 03aa CC4E     		ldr	r6, .L479+8
 5640 03ac 0FCE     		ldmia	r6!, {r0, r1, r2, r3}
 5641 03ae 2860     		str	r0, [r5]	@ unaligned
 5642 03b0 6960     		str	r1, [r5, #4]	@ unaligned
 5643 03b2 AA60     		str	r2, [r5, #8]	@ unaligned
 5644 03b4 EB60     		str	r3, [r5, #12]	@ unaligned
 5645 03b6 03CE     		ldmia	r6!, {r0, r1}
 5646 03b8 2861     		str	r0, [r5, #16]	@ unaligned
 5647 03ba 6961     		str	r1, [r5, #20]	@ unaligned
 5648 03bc 3388     		ldrh	r3, [r6]	@ unaligned
 5649 03be 2B83     		strh	r3, [r5, #24]	@ unaligned
1150:main.c        **** 				USBUARTH_Send(TransmitBuffer, strlen(TransmitBuffer));
 5650              		.loc 2 1150 0 discriminator 10
 5651 03c0 2846     		mov	r0, r5
 5652 03c2 FFF7FEFF 		bl	strlen
 5653              	.LVL779:
 5654 03c6 81B2     		uxth	r1, r0
 5655 03c8 2846     		mov	r0, r5
 5656 03ca FFF7FEFF 		bl	USBUARTH_Send
 5657              	.LVL780:
1151:main.c        **** 				UART_1_PutString(TransmitBuffer);
 5658              		.loc 2 1151 0 discriminator 10
 5659 03ce 2846     		mov	r0, r5
 5660 03d0 FFF7FEFF 		bl	UART_1_PutString
 5661              	.LVL781:
1152:main.c        **** 				
1153:main.c        **** 				char* location = strstr(ReceiveBuffer, " ");
 5662              		.loc 2 1153 0 discriminator 10
 5663 03d4 2021     		movs	r1, #32
 5664 03d6 2046     		mov	r0, r4
 5665 03d8 FFF7FEFF 		bl	strchr
 5666              	.LVL782:
 5667 03dc 02AC     		add	r4, sp, #8
 5668              	.LVL783:
 5669 03de 44F8040D 		str	r0, [r4, #-4]!
1154:main.c        **** 				uint8 startDevice = strtol(location, &location, 10);
ARM GAS  C:\Users\FRANKL~1\AppData\Local\Temp\ccebBo1q.s 			page 133


 5670              		.loc 2 1154 0 discriminator 10
 5671 03e2 0A22     		movs	r2, #10
 5672 03e4 2146     		mov	r1, r4
 5673 03e6 FFF7FEFF 		bl	strtol
 5674              	.LVL784:
 5675 03ea C6B2     		uxtb	r6, r0
 5676              	.LVL785:
1155:main.c        **** 				uint8 stopDevice = strtol(location, &location, 10);
 5677              		.loc 2 1155 0 discriminator 10
 5678 03ec 0A22     		movs	r2, #10
 5679 03ee 2146     		mov	r1, r4
 5680 03f0 0198     		ldr	r0, [sp, #4]
 5681 03f2 FFF7FEFF 		bl	strtol
 5682              	.LVL786:
1156:main.c        **** 				Scan_Range(startDevice, stopDevice, 0, 0);
 5683              		.loc 2 1156 0 discriminator 10
 5684 03f6 0023     		movs	r3, #0
 5685 03f8 1A46     		mov	r2, r3
 5686 03fa C1B2     		uxtb	r1, r0
 5687 03fc 3046     		mov	r0, r6
 5688              	.LVL787:
 5689 03fe FFF7FEFF 		bl	Scan_Range
 5690              	.LVL788:
1157:main.c        **** 				
1158:main.c        **** 				sprintf(TransmitBuffer, "\r\n# Scan Range Complete\r\n");
 5691              		.loc 2 1158 0 discriminator 10
 5692 0402 B74C     		ldr	r4, .L479+12
 5693 0404 0FCC     		ldmia	r4!, {r0, r1, r2, r3}
 5694 0406 2860     		str	r0, [r5]	@ unaligned
 5695 0408 6960     		str	r1, [r5, #4]	@ unaligned
 5696 040a AA60     		str	r2, [r5, #8]	@ unaligned
 5697 040c EB60     		str	r3, [r5, #12]	@ unaligned
 5698 040e 03CC     		ldmia	r4!, {r0, r1}
 5699 0410 2861     		str	r0, [r5, #16]	@ unaligned
 5700 0412 6961     		str	r1, [r5, #20]	@ unaligned
 5701 0414 2388     		ldrh	r3, [r4]	@ unaligned
 5702 0416 2B83     		strh	r3, [r5, #24]	@ unaligned
1159:main.c        **** 				USBUARTH_Send(TransmitBuffer, strlen(TransmitBuffer));
 5703              		.loc 2 1159 0 discriminator 10
 5704 0418 2846     		mov	r0, r5
 5705 041a FFF7FEFF 		bl	strlen
 5706              	.LVL789:
 5707 041e 81B2     		uxth	r1, r0
 5708 0420 2846     		mov	r0, r5
 5709 0422 FFF7FEFF 		bl	USBUARTH_Send
 5710              	.LVL790:
1160:main.c        **** 				UART_1_PutString(TransmitBuffer);
 5711              		.loc 2 1160 0 discriminator 10
 5712 0426 2846     		mov	r0, r5
 5713 0428 FFF7FEFF 		bl	UART_1_PutString
 5714              	.LVL791:
 5715              	.LBE77:
 5716 042c 24E6     		b	.L442
 5717              	.LVL792:
 5718              	.L460:
1161:main.c        **** 			} else 
1162:main.c        **** 			if (strstr(ReceiveBuffer, "scan-range-loop ") == &ReceiveBuffer[0]) {
ARM GAS  C:\Users\FRANKL~1\AppData\Local\Temp\ccebBo1q.s 			page 134


 5719              		.loc 2 1162 0
 5720 042e AD49     		ldr	r1, .L479+16
 5721 0430 2046     		mov	r0, r4
 5722 0432 FFF7FEFF 		bl	strstr
 5723              	.LVL793:
 5724 0436 8442     		cmp	r4, r0
 5725 0438 48D1     		bne	.L461
 5726              	.LBB78:
1163:main.c        **** 				sprintf(TransmitBuffer, "\r\n# Scan-Range-Loop Starting\r\n");
 5727              		.loc 2 1163 0 discriminator 11
 5728 043a A74D     		ldr	r5, .L479+4
 5729 043c AA4E     		ldr	r6, .L479+20
 5730 043e 0FCE     		ldmia	r6!, {r0, r1, r2, r3}
 5731 0440 2860     		str	r0, [r5]	@ unaligned
 5732 0442 6960     		str	r1, [r5, #4]	@ unaligned
 5733 0444 AA60     		str	r2, [r5, #8]	@ unaligned
 5734 0446 EB60     		str	r3, [r5, #12]	@ unaligned
 5735 0448 07CE     		ldmia	r6!, {r0, r1, r2}
 5736 044a 2861     		str	r0, [r5, #16]	@ unaligned
 5737 044c 6961     		str	r1, [r5, #20]	@ unaligned
 5738 044e AA61     		str	r2, [r5, #24]	@ unaligned
 5739 0450 3288     		ldrh	r2, [r6]	@ unaligned
 5740 0452 B378     		ldrb	r3, [r6, #2]	@ zero_extendqisi2
 5741 0454 AA83     		strh	r2, [r5, #28]	@ unaligned
 5742 0456 AB77     		strb	r3, [r5, #30]
1164:main.c        **** 				USBUARTH_Send(TransmitBuffer, strlen(TransmitBuffer));
 5743              		.loc 2 1164 0 discriminator 11
 5744 0458 2846     		mov	r0, r5
 5745 045a FFF7FEFF 		bl	strlen
 5746              	.LVL794:
 5747 045e 81B2     		uxth	r1, r0
 5748 0460 2846     		mov	r0, r5
 5749 0462 FFF7FEFF 		bl	USBUARTH_Send
 5750              	.LVL795:
1165:main.c        **** 				UART_1_PutString(TransmitBuffer);
 5751              		.loc 2 1165 0 discriminator 11
 5752 0466 2846     		mov	r0, r5
 5753 0468 FFF7FEFF 		bl	UART_1_PutString
 5754              	.LVL796:
1166:main.c        **** 				
1167:main.c        **** 				char* location = strstr(ReceiveBuffer, " ");
 5755              		.loc 2 1167 0 discriminator 11
 5756 046c 2021     		movs	r1, #32
 5757 046e 2046     		mov	r0, r4
 5758 0470 FFF7FEFF 		bl	strchr
 5759              	.LVL797:
 5760 0474 02AC     		add	r4, sp, #8
 5761              	.LVL798:
 5762 0476 44F8040D 		str	r0, [r4, #-4]!
1168:main.c        **** 				uint8 startDevice = strtol(location, &location, 10);
 5763              		.loc 2 1168 0 discriminator 11
 5764 047a 0A22     		movs	r2, #10
 5765 047c 2146     		mov	r1, r4
 5766 047e FFF7FEFF 		bl	strtol
 5767              	.LVL799:
 5768 0482 C6B2     		uxtb	r6, r0
 5769              	.LVL800:
ARM GAS  C:\Users\FRANKL~1\AppData\Local\Temp\ccebBo1q.s 			page 135


1169:main.c        **** 				uint8 stopDevice = strtol(location, &location, 10);
 5770              		.loc 2 1169 0 discriminator 11
 5771 0484 0A22     		movs	r2, #10
 5772 0486 2146     		mov	r1, r4
 5773 0488 0198     		ldr	r0, [sp, #4]
 5774 048a FFF7FEFF 		bl	strtol
 5775              	.LVL801:
1170:main.c        **** 				Scan_Range(startDevice, stopDevice, 0, 1);
 5776              		.loc 2 1170 0 discriminator 11
 5777 048e 0123     		movs	r3, #1
 5778 0490 0022     		movs	r2, #0
 5779 0492 C1B2     		uxtb	r1, r0
 5780 0494 3046     		mov	r0, r6
 5781              	.LVL802:
 5782 0496 FFF7FEFF 		bl	Scan_Range
 5783              	.LVL803:
1171:main.c        **** 				
1172:main.c        **** 				sprintf(TransmitBuffer, "\r\n# Scan Range Loop Complete\r\n");
 5784              		.loc 2 1172 0 discriminator 11
 5785 049a 944C     		ldr	r4, .L479+24
 5786 049c 0FCC     		ldmia	r4!, {r0, r1, r2, r3}
 5787 049e 2860     		str	r0, [r5]	@ unaligned
 5788 04a0 6960     		str	r1, [r5, #4]	@ unaligned
 5789 04a2 AA60     		str	r2, [r5, #8]	@ unaligned
 5790 04a4 EB60     		str	r3, [r5, #12]	@ unaligned
 5791 04a6 07CC     		ldmia	r4!, {r0, r1, r2}
 5792 04a8 2861     		str	r0, [r5, #16]	@ unaligned
 5793 04aa 6961     		str	r1, [r5, #20]	@ unaligned
 5794 04ac AA61     		str	r2, [r5, #24]	@ unaligned
 5795 04ae 2288     		ldrh	r2, [r4]	@ unaligned
 5796 04b0 A378     		ldrb	r3, [r4, #2]	@ zero_extendqisi2
 5797 04b2 AA83     		strh	r2, [r5, #28]	@ unaligned
 5798 04b4 AB77     		strb	r3, [r5, #30]
1173:main.c        **** 				USBUARTH_Send(TransmitBuffer, strlen(TransmitBuffer));
 5799              		.loc 2 1173 0 discriminator 11
 5800 04b6 2846     		mov	r0, r5
 5801 04b8 FFF7FEFF 		bl	strlen
 5802              	.LVL804:
 5803 04bc 81B2     		uxth	r1, r0
 5804 04be 2846     		mov	r0, r5
 5805 04c0 FFF7FEFF 		bl	USBUARTH_Send
 5806              	.LVL805:
1174:main.c        **** 				UART_1_PutString(TransmitBuffer);
 5807              		.loc 2 1174 0 discriminator 11
 5808 04c4 2846     		mov	r0, r5
 5809 04c6 FFF7FEFF 		bl	UART_1_PutString
 5810              	.LVL806:
 5811              	.LBE78:
 5812 04ca D5E5     		b	.L442
 5813              	.LVL807:
 5814              	.L461:
1175:main.c        **** 			} else 
1176:main.c        **** 			if (strstr(ReceiveBuffer, "scan-range-wide-loop ") == &ReceiveBuffer[0]) {
 5815              		.loc 2 1176 0
 5816 04cc 8849     		ldr	r1, .L479+28
 5817 04ce 2046     		mov	r0, r4
 5818 04d0 FFF7FEFF 		bl	strstr
ARM GAS  C:\Users\FRANKL~1\AppData\Local\Temp\ccebBo1q.s 			page 136


 5819              	.LVL808:
 5820 04d4 8442     		cmp	r4, r0
 5821 04d6 4DD1     		bne	.L462
 5822              	.LBB79:
1177:main.c        **** 				sprintf(TransmitBuffer, "\r\n# Scan-Range-Wide-Loop Starting\r\n");
 5823              		.loc 2 1177 0 discriminator 12
 5824 04d8 864E     		ldr	r6, .L479+32
 5825 04da 7F4D     		ldr	r5, .L479+4
 5826 04dc 06F1200E 		add	lr, r6, #32
 5827              	.L463:
 5828 04e0 3746     		mov	r7, r6
 5829 04e2 0FCF     		ldmia	r7!, {r0, r1, r2, r3}
 5830 04e4 2860     		str	r0, [r5]	@ unaligned
 5831 04e6 6960     		str	r1, [r5, #4]	@ unaligned
 5832 04e8 AA60     		str	r2, [r5, #8]	@ unaligned
 5833 04ea EB60     		str	r3, [r5, #12]	@ unaligned
 5834 04ec 3E46     		mov	r6, r7
 5835 04ee 1035     		adds	r5, r5, #16
 5836 04f0 7745     		cmp	r7, lr
 5837 04f2 F5D1     		bne	.L463
 5838 04f4 3868     		ldr	r0, [r7]	@ unaligned
 5839 04f6 2860     		str	r0, [r5]	@ unaligned
1178:main.c        **** 				USBUARTH_Send(TransmitBuffer, strlen(TransmitBuffer));
 5840              		.loc 2 1178 0 discriminator 12
 5841 04f8 774D     		ldr	r5, .L479+4
 5842 04fa 2846     		mov	r0, r5
 5843 04fc FFF7FEFF 		bl	strlen
 5844              	.LVL809:
 5845 0500 81B2     		uxth	r1, r0
 5846 0502 2846     		mov	r0, r5
 5847 0504 FFF7FEFF 		bl	USBUARTH_Send
 5848              	.LVL810:
1179:main.c        **** 				UART_1_PutString(TransmitBuffer);
 5849              		.loc 2 1179 0 discriminator 12
 5850 0508 2846     		mov	r0, r5
 5851 050a FFF7FEFF 		bl	UART_1_PutString
 5852              	.LVL811:
1180:main.c        **** 				
1181:main.c        **** 				char* location = strstr(ReceiveBuffer, " ");
 5853              		.loc 2 1181 0 discriminator 12
 5854 050e 2021     		movs	r1, #32
 5855 0510 2046     		mov	r0, r4
 5856 0512 FFF7FEFF 		bl	strchr
 5857              	.LVL812:
 5858 0516 02AC     		add	r4, sp, #8
 5859              	.LVL813:
 5860 0518 44F8040D 		str	r0, [r4, #-4]!
1182:main.c        **** 				uint8 startDevice = strtol(location, &location, 10);
 5861              		.loc 2 1182 0 discriminator 12
 5862 051c 0A22     		movs	r2, #10
 5863 051e 2146     		mov	r1, r4
 5864 0520 FFF7FEFF 		bl	strtol
 5865              	.LVL814:
 5866 0524 C6B2     		uxtb	r6, r0
 5867              	.LVL815:
1183:main.c        **** 				uint8 stopDevice = strtol(location, &location, 10);
 5868              		.loc 2 1183 0 discriminator 12
ARM GAS  C:\Users\FRANKL~1\AppData\Local\Temp\ccebBo1q.s 			page 137


 5869 0526 0A22     		movs	r2, #10
 5870 0528 2146     		mov	r1, r4
 5871 052a 0198     		ldr	r0, [sp, #4]
 5872 052c FFF7FEFF 		bl	strtol
 5873              	.LVL816:
1184:main.c        **** 				Scan_Range(startDevice, stopDevice, 1, 1);
 5874              		.loc 2 1184 0 discriminator 12
 5875 0530 0123     		movs	r3, #1
 5876 0532 1A46     		mov	r2, r3
 5877 0534 C1B2     		uxtb	r1, r0
 5878 0536 3046     		mov	r0, r6
 5879              	.LVL817:
 5880 0538 FFF7FEFF 		bl	Scan_Range
 5881              	.LVL818:
1185:main.c        **** 				
1186:main.c        **** 				sprintf(TransmitBuffer, "\r\n# Scan Range Wide Loop Complete\r\n");
 5882              		.loc 2 1186 0 discriminator 12
 5883 053c 6E4E     		ldr	r6, .L479+36
 5884              	.LVL819:
 5885 053e 2C46     		mov	r4, r5
 5886 0540 06F12007 		add	r7, r6, #32
 5887              	.L464:
 5888 0544 3546     		mov	r5, r6
 5889 0546 0FCD     		ldmia	r5!, {r0, r1, r2, r3}
 5890 0548 2060     		str	r0, [r4]	@ unaligned
 5891 054a 6160     		str	r1, [r4, #4]	@ unaligned
 5892 054c A260     		str	r2, [r4, #8]	@ unaligned
 5893 054e E360     		str	r3, [r4, #12]	@ unaligned
 5894 0550 2E46     		mov	r6, r5
 5895 0552 1034     		adds	r4, r4, #16
 5896 0554 BD42     		cmp	r5, r7
 5897 0556 F5D1     		bne	.L464
 5898 0558 2868     		ldr	r0, [r5]	@ unaligned
 5899 055a 2060     		str	r0, [r4]	@ unaligned
1187:main.c        **** 				USBUARTH_Send(TransmitBuffer, strlen(TransmitBuffer));
 5900              		.loc 2 1187 0 discriminator 12
 5901 055c 5E4C     		ldr	r4, .L479+4
 5902 055e 2046     		mov	r0, r4
 5903 0560 FFF7FEFF 		bl	strlen
 5904              	.LVL820:
 5905 0564 81B2     		uxth	r1, r0
 5906 0566 2046     		mov	r0, r4
 5907 0568 FFF7FEFF 		bl	USBUARTH_Send
 5908              	.LVL821:
1188:main.c        **** 				UART_1_PutString(TransmitBuffer);
 5909              		.loc 2 1188 0 discriminator 12
 5910 056c 2046     		mov	r0, r4
 5911 056e FFF7FEFF 		bl	UART_1_PutString
 5912              	.LVL822:
 5913              	.LBE79:
 5914 0572 81E5     		b	.L442
 5915              	.LVL823:
 5916              	.L462:
1189:main.c        **** 			} else 
1190:main.c        **** 			if (strstr(ReceiveBuffer, "connect ") == &ReceiveBuffer[0]) {
 5917              		.loc 2 1190 0
 5918 0574 6149     		ldr	r1, .L479+40
ARM GAS  C:\Users\FRANKL~1\AppData\Local\Temp\ccebBo1q.s 			page 138


 5919 0576 2046     		mov	r0, r4
 5920 0578 FFF7FEFF 		bl	strstr
 5921              	.LVL824:
 5922 057c 8442     		cmp	r4, r0
 5923 057e 27D1     		bne	.L465
 5924              	.LBB80:
1191:main.c        **** 				char* location = strstr(ReceiveBuffer, " ");
 5925              		.loc 2 1191 0 discriminator 13
 5926 0580 2021     		movs	r1, #32
 5927 0582 2046     		mov	r0, r4
 5928 0584 FFF7FEFF 		bl	strchr
 5929              	.LVL825:
 5930 0588 02AC     		add	r4, sp, #8
 5931              	.LVL826:
 5932 058a 44F8040D 		str	r0, [r4, #-4]!
1192:main.c        **** 				uint8 contact = strtol(location, &location, 10);
 5933              		.loc 2 1192 0 discriminator 13
 5934 058e 0A22     		movs	r2, #10
 5935 0590 2146     		mov	r1, r4
 5936 0592 FFF7FEFF 		bl	strtol
 5937              	.LVL827:
 5938 0596 C5B2     		uxtb	r5, r0
 5939              	.LVL828:
1193:main.c        **** 				uint8 intermediate = strtol(location, &location, 10);
 5940              		.loc 2 1193 0 discriminator 13
 5941 0598 0A22     		movs	r2, #10
 5942 059a 2146     		mov	r1, r4
 5943 059c 0198     		ldr	r0, [sp, #4]
 5944 059e FFF7FEFF 		bl	strtol
 5945              	.LVL829:
 5946 05a2 C6B2     		uxtb	r6, r0
 5947              	.LVL830:
1194:main.c        **** 				Connect_Contact_To_Intermediate(contact, intermediate);
 5948              		.loc 2 1194 0 discriminator 13
 5949 05a4 3146     		mov	r1, r6
 5950 05a6 2846     		mov	r0, r5
 5951 05a8 FFF7FEFF 		bl	Connect_Contact_To_Intermediate
 5952              	.LVL831:
1195:main.c        **** 				
1196:main.c        **** 				sprintf(TransmitBuffer, "# Connected %u to %u\r\n", contact, intermediate);
 5953              		.loc 2 1196 0 discriminator 13
 5954 05ac 4A4C     		ldr	r4, .L479+4
 5955 05ae 3346     		mov	r3, r6
 5956 05b0 2A46     		mov	r2, r5
 5957 05b2 5349     		ldr	r1, .L479+44
 5958 05b4 2046     		mov	r0, r4
 5959 05b6 FFF7FEFF 		bl	sprintf
 5960              	.LVL832:
1197:main.c        **** 				USBUARTH_Send(TransmitBuffer, strlen(TransmitBuffer));
 5961              		.loc 2 1197 0 discriminator 13
 5962 05ba 2046     		mov	r0, r4
 5963 05bc FFF7FEFF 		bl	strlen
 5964              	.LVL833:
 5965 05c0 81B2     		uxth	r1, r0
 5966 05c2 2046     		mov	r0, r4
 5967 05c4 FFF7FEFF 		bl	USBUARTH_Send
 5968              	.LVL834:
ARM GAS  C:\Users\FRANKL~1\AppData\Local\Temp\ccebBo1q.s 			page 139


1198:main.c        **** 				UART_1_PutString(TransmitBuffer);
 5969              		.loc 2 1198 0 discriminator 13
 5970 05c8 2046     		mov	r0, r4
 5971 05ca FFF7FEFF 		bl	UART_1_PutString
 5972              	.LVL835:
 5973              	.LBE80:
 5974 05ce 53E5     		b	.L442
 5975              	.LVL836:
 5976              	.L465:
1199:main.c        **** 			} else 
1200:main.c        **** 			if (strstr(ReceiveBuffer, "connect-c ") == &ReceiveBuffer[0]) {
 5977              		.loc 2 1200 0
 5978 05d0 4C49     		ldr	r1, .L479+48
 5979 05d2 2046     		mov	r0, r4
 5980 05d4 FFF7FEFF 		bl	strstr
 5981              	.LVL837:
 5982 05d8 8442     		cmp	r4, r0
 5983 05da 27D1     		bne	.L466
 5984              	.LBB81:
1201:main.c        **** 				char* location = strstr(ReceiveBuffer, " ");
 5985              		.loc 2 1201 0 discriminator 14
 5986 05dc 2021     		movs	r1, #32
 5987 05de 2046     		mov	r0, r4
 5988 05e0 FFF7FEFF 		bl	strchr
 5989              	.LVL838:
 5990 05e4 02AC     		add	r4, sp, #8
 5991              	.LVL839:
 5992 05e6 44F8040D 		str	r0, [r4, #-4]!
1202:main.c        **** 				uint8 channel = strtol(location, &location, 10);
 5993              		.loc 2 1202 0 discriminator 14
 5994 05ea 0A22     		movs	r2, #10
 5995 05ec 2146     		mov	r1, r4
 5996 05ee FFF7FEFF 		bl	strtol
 5997              	.LVL840:
 5998 05f2 C5B2     		uxtb	r5, r0
 5999              	.LVL841:
1203:main.c        **** 				uint8 intermediate = strtol(location, &location, 10);
 6000              		.loc 2 1203 0 discriminator 14
 6001 05f4 0A22     		movs	r2, #10
 6002 05f6 2146     		mov	r1, r4
 6003 05f8 0198     		ldr	r0, [sp, #4]
 6004 05fa FFF7FEFF 		bl	strtol
 6005              	.LVL842:
 6006 05fe C6B2     		uxtb	r6, r0
 6007              	.LVL843:
1204:main.c        **** 				Connect_Channel_On_Intermediate(channel, intermediate);
 6008              		.loc 2 1204 0 discriminator 14
 6009 0600 3146     		mov	r1, r6
 6010 0602 2846     		mov	r0, r5
 6011 0604 FFF7FEFF 		bl	Connect_Channel_On_Intermediate
 6012              	.LVL844:
1205:main.c        **** 				
1206:main.c        **** 				sprintf(TransmitBuffer, "# Connected channel %u to %u\r\n", channel, intermediate);
 6013              		.loc 2 1206 0 discriminator 14
 6014 0608 334C     		ldr	r4, .L479+4
 6015 060a 3346     		mov	r3, r6
 6016 060c 2A46     		mov	r2, r5
ARM GAS  C:\Users\FRANKL~1\AppData\Local\Temp\ccebBo1q.s 			page 140


 6017 060e 3E49     		ldr	r1, .L479+52
 6018 0610 2046     		mov	r0, r4
 6019 0612 FFF7FEFF 		bl	sprintf
 6020              	.LVL845:
1207:main.c        **** 				USBUARTH_Send(TransmitBuffer, strlen(TransmitBuffer));
 6021              		.loc 2 1207 0 discriminator 14
 6022 0616 2046     		mov	r0, r4
 6023 0618 FFF7FEFF 		bl	strlen
 6024              	.LVL846:
 6025 061c 81B2     		uxth	r1, r0
 6026 061e 2046     		mov	r0, r4
 6027 0620 FFF7FEFF 		bl	USBUARTH_Send
 6028              	.LVL847:
1208:main.c        **** 				UART_1_PutString(TransmitBuffer);
 6029              		.loc 2 1208 0 discriminator 14
 6030 0624 2046     		mov	r0, r4
 6031 0626 FFF7FEFF 		bl	UART_1_PutString
 6032              	.LVL848:
 6033              	.LBE81:
 6034 062a 25E5     		b	.L442
 6035              	.LVL849:
 6036              	.L466:
1209:main.c        **** 			} else 
1210:main.c        **** 			if (strstr(ReceiveBuffer, "disconnect ") == &ReceiveBuffer[0]) {
 6037              		.loc 2 1210 0
 6038 062c 3749     		ldr	r1, .L479+56
 6039 062e 2046     		mov	r0, r4
 6040 0630 FFF7FEFF 		bl	strstr
 6041              	.LVL850:
 6042 0634 8442     		cmp	r4, r0
 6043 0636 27D1     		bne	.L467
 6044              	.LBB82:
1211:main.c        **** 				char* location = strstr(ReceiveBuffer, " ");
 6045              		.loc 2 1211 0 discriminator 15
 6046 0638 2021     		movs	r1, #32
 6047 063a 2046     		mov	r0, r4
 6048 063c FFF7FEFF 		bl	strchr
 6049              	.LVL851:
 6050 0640 02AC     		add	r4, sp, #8
 6051              	.LVL852:
 6052 0642 44F8040D 		str	r0, [r4, #-4]!
1212:main.c        **** 				uint8 contact = strtol(location, &location, 10);
 6053              		.loc 2 1212 0 discriminator 15
 6054 0646 0A22     		movs	r2, #10
 6055 0648 2146     		mov	r1, r4
 6056 064a FFF7FEFF 		bl	strtol
 6057              	.LVL853:
 6058 064e C5B2     		uxtb	r5, r0
 6059              	.LVL854:
1213:main.c        **** 				uint8 intermediate = strtol(location, &location, 10);
 6060              		.loc 2 1213 0 discriminator 15
 6061 0650 0A22     		movs	r2, #10
 6062 0652 2146     		mov	r1, r4
 6063 0654 0198     		ldr	r0, [sp, #4]
 6064 0656 FFF7FEFF 		bl	strtol
 6065              	.LVL855:
 6066 065a C6B2     		uxtb	r6, r0
ARM GAS  C:\Users\FRANKL~1\AppData\Local\Temp\ccebBo1q.s 			page 141


 6067              	.LVL856:
1214:main.c        **** 				Disconnect_Contact_From_Intermediate(contact, intermediate);
 6068              		.loc 2 1214 0 discriminator 15
 6069 065c 3146     		mov	r1, r6
 6070 065e 2846     		mov	r0, r5
 6071 0660 FFF7FEFF 		bl	Disconnect_Contact_From_Intermediate
 6072              	.LVL857:
1215:main.c        **** 				
1216:main.c        **** 				sprintf(TransmitBuffer, "# Disonnected %u from %u\r\n", contact, intermediate);
 6073              		.loc 2 1216 0 discriminator 15
 6074 0664 1C4C     		ldr	r4, .L479+4
 6075 0666 3346     		mov	r3, r6
 6076 0668 2A46     		mov	r2, r5
 6077 066a 2949     		ldr	r1, .L479+60
 6078 066c 2046     		mov	r0, r4
 6079 066e FFF7FEFF 		bl	sprintf
 6080              	.LVL858:
1217:main.c        **** 				USBUARTH_Send(TransmitBuffer, strlen(TransmitBuffer));
 6081              		.loc 2 1217 0 discriminator 15
 6082 0672 2046     		mov	r0, r4
 6083 0674 FFF7FEFF 		bl	strlen
 6084              	.LVL859:
 6085 0678 81B2     		uxth	r1, r0
 6086 067a 2046     		mov	r0, r4
 6087 067c FFF7FEFF 		bl	USBUARTH_Send
 6088              	.LVL860:
1218:main.c        **** 				UART_1_PutString(TransmitBuffer);
 6089              		.loc 2 1218 0 discriminator 15
 6090 0680 2046     		mov	r0, r4
 6091 0682 FFF7FEFF 		bl	UART_1_PutString
 6092              	.LVL861:
 6093              	.LBE82:
 6094 0686 F7E4     		b	.L442
 6095              	.LVL862:
 6096              	.L467:
1219:main.c        **** 			} else 
1220:main.c        **** 			if (strstr(ReceiveBuffer, "disconnect-all-from ") == &ReceiveBuffer[0]) {
 6097              		.loc 2 1220 0
 6098 0688 2249     		ldr	r1, .L479+64
 6099 068a 2046     		mov	r0, r4
 6100 068c FFF7FEFF 		bl	strstr
 6101              	.LVL863:
 6102 0690 8442     		cmp	r4, r0
 6103 0692 43D1     		bne	.L468
 6104              	.LBB83:
1221:main.c        **** 				char* location = strstr(ReceiveBuffer, " ");
 6105              		.loc 2 1221 0 discriminator 16
 6106 0694 2021     		movs	r1, #32
 6107 0696 2046     		mov	r0, r4
 6108 0698 FFF7FEFF 		bl	strchr
 6109              	.LVL864:
 6110 069c 02A9     		add	r1, sp, #8
 6111 069e 41F8040D 		str	r0, [r1, #-4]!
1222:main.c        **** 				uint8 intermediate = strtol(location, &location, 10);
 6112              		.loc 2 1222 0 discriminator 16
 6113 06a2 0A22     		movs	r2, #10
 6114 06a4 FFF7FEFF 		bl	strtol
ARM GAS  C:\Users\FRANKL~1\AppData\Local\Temp\ccebBo1q.s 			page 142


 6115              	.LVL865:
 6116 06a8 C5B2     		uxtb	r5, r0
 6117              	.LVL866:
1223:main.c        **** 				Disconnect_All_Contacts_From_Intermediate(intermediate);
 6118              		.loc 2 1223 0 discriminator 16
 6119 06aa 2846     		mov	r0, r5
 6120 06ac FFF7FEFF 		bl	Disconnect_All_Contacts_From_Intermediate
 6121              	.LVL867:
1224:main.c        **** 				
1225:main.c        **** 				sprintf(TransmitBuffer, "# Disconnected all from  %u\r\n", intermediate);
 6122              		.loc 2 1225 0 discriminator 16
 6123 06b0 094C     		ldr	r4, .L479+4
 6124              	.LVL868:
 6125 06b2 2A46     		mov	r2, r5
 6126 06b4 1849     		ldr	r1, .L479+68
 6127 06b6 2046     		mov	r0, r4
 6128 06b8 FFF7FEFF 		bl	sprintf
 6129              	.LVL869:
1226:main.c        **** 				USBUARTH_Send(TransmitBuffer, strlen(TransmitBuffer));
 6130              		.loc 2 1226 0 discriminator 16
 6131 06bc 2046     		mov	r0, r4
 6132 06be FFF7FEFF 		bl	strlen
 6133              	.LVL870:
 6134 06c2 81B2     		uxth	r1, r0
 6135 06c4 2046     		mov	r0, r4
 6136 06c6 FFF7FEFF 		bl	USBUARTH_Send
 6137              	.LVL871:
1227:main.c        **** 				UART_1_PutString(TransmitBuffer);
 6138              		.loc 2 1227 0 discriminator 16
 6139 06ca 2046     		mov	r0, r4
 6140 06cc FFF7FEFF 		bl	UART_1_PutString
 6141              	.LVL872:
 6142              	.LBE83:
 6143 06d0 D2E4     		b	.L442
 6144              	.L480:
 6145 06d2 00BF     		.align	2
 6146              	.L479:
 6147 06d4 50020000 		.word	.LC36
 6148 06d8 00000000 		.word	TransmitBuffer
 6149 06dc 5C020000 		.word	.LC37
 6150 06e0 78020000 		.word	.LC38
 6151 06e4 94020000 		.word	.LC39
 6152 06e8 A8020000 		.word	.LC40
 6153 06ec C8020000 		.word	.LC41
 6154 06f0 E8020000 		.word	.LC42
 6155 06f4 00030000 		.word	.LC43
 6156 06f8 24030000 		.word	.LC44
 6157 06fc 48030000 		.word	.LC45
 6158 0700 54030000 		.word	.LC46
 6159 0704 6C030000 		.word	.LC47
 6160 0708 78030000 		.word	.LC48
 6161 070c 98030000 		.word	.LC49
 6162 0710 A4030000 		.word	.LC50
 6163 0714 C0030000 		.word	.LC51
 6164 0718 D8030000 		.word	.LC52
 6165              	.LVL873:
 6166              	.L468:
ARM GAS  C:\Users\FRANKL~1\AppData\Local\Temp\ccebBo1q.s 			page 143


1228:main.c        **** 			} else 
1229:main.c        **** 			if (strstr(ReceiveBuffer, "disconnect-all-from-all ") == &ReceiveBuffer[0]) {
 6167              		.loc 2 1229 0
 6168 071c 6549     		ldr	r1, .L481
 6169 071e 2046     		mov	r0, r4
 6170 0720 FFF7FEFF 		bl	strstr
 6171              	.LVL874:
 6172 0724 8442     		cmp	r4, r0
 6173 0726 19D1     		bne	.L469
1230:main.c        **** 				Disconnect_All_Contacts_From_All_Intermediates();
 6174              		.loc 2 1230 0
 6175 0728 FFF7FEFF 		bl	Disconnect_All_Contacts_From_All_Intermediates
 6176              	.LVL875:
1231:main.c        **** 				
1232:main.c        **** 				sprintf(TransmitBuffer, "# Disconnected all from all\r\n");
 6177              		.loc 2 1232 0
 6178 072c 624D     		ldr	r5, .L481+4
 6179 072e 634C     		ldr	r4, .L481+8
 6180              	.LVL876:
 6181 0730 0FCC     		ldmia	r4!, {r0, r1, r2, r3}
 6182 0732 2860     		str	r0, [r5]	@ unaligned
 6183 0734 6960     		str	r1, [r5, #4]	@ unaligned
 6184 0736 AA60     		str	r2, [r5, #8]	@ unaligned
 6185 0738 EB60     		str	r3, [r5, #12]	@ unaligned
 6186 073a 07CC     		ldmia	r4!, {r0, r1, r2}
 6187 073c 2861     		str	r0, [r5, #16]	@ unaligned
 6188 073e 6961     		str	r1, [r5, #20]	@ unaligned
 6189 0740 AA61     		str	r2, [r5, #24]	@ unaligned
 6190 0742 2388     		ldrh	r3, [r4]	@ unaligned
 6191 0744 AB83     		strh	r3, [r5, #28]	@ unaligned
1233:main.c        **** 				USBUARTH_Send(TransmitBuffer, strlen(TransmitBuffer));
 6192              		.loc 2 1233 0
 6193 0746 2846     		mov	r0, r5
 6194 0748 FFF7FEFF 		bl	strlen
 6195              	.LVL877:
 6196 074c 81B2     		uxth	r1, r0
 6197 074e 2846     		mov	r0, r5
 6198 0750 FFF7FEFF 		bl	USBUARTH_Send
 6199              	.LVL878:
1234:main.c        **** 				UART_1_PutString(TransmitBuffer);
 6200              		.loc 2 1234 0
 6201 0754 2846     		mov	r0, r5
 6202 0756 FFF7FEFF 		bl	UART_1_PutString
 6203              	.LVL879:
 6204 075a 8DE4     		b	.L442
 6205              	.LVL880:
 6206              	.L469:
1235:main.c        **** 			} else 
1236:main.c        **** 			if (strstr(ReceiveBuffer, "disconnect-from-all ") == &ReceiveBuffer[0]) {
 6207              		.loc 2 1236 0
 6208 075c 5849     		ldr	r1, .L481+12
 6209 075e 2046     		mov	r0, r4
 6210 0760 FFF7FEFF 		bl	strstr
 6211              	.LVL881:
 6212 0764 8442     		cmp	r4, r0
 6213 0766 1ED1     		bne	.L470
 6214              	.LBB84:
ARM GAS  C:\Users\FRANKL~1\AppData\Local\Temp\ccebBo1q.s 			page 144


1237:main.c        **** 				char* location = strstr(ReceiveBuffer, " ");
 6215              		.loc 2 1237 0 discriminator 17
 6216 0768 2021     		movs	r1, #32
 6217 076a 2046     		mov	r0, r4
 6218 076c FFF7FEFF 		bl	strchr
 6219              	.LVL882:
 6220 0770 02A9     		add	r1, sp, #8
 6221 0772 41F8040D 		str	r0, [r1, #-4]!
1238:main.c        **** 				uint8 contact = strtol(location, &location, 10);
 6222              		.loc 2 1238 0 discriminator 17
 6223 0776 0A22     		movs	r2, #10
 6224 0778 FFF7FEFF 		bl	strtol
 6225              	.LVL883:
 6226 077c C5B2     		uxtb	r5, r0
 6227              	.LVL884:
1239:main.c        **** 				Disconnect_Contact_From_All_Intermediates(contact);
 6228              		.loc 2 1239 0 discriminator 17
 6229 077e 2846     		mov	r0, r5
 6230 0780 FFF7FEFF 		bl	Disconnect_Contact_From_All_Intermediates
 6231              	.LVL885:
1240:main.c        **** 				
1241:main.c        **** 				sprintf(TransmitBuffer, "# Disconnected %u from all\r\n", contact);
 6232              		.loc 2 1241 0 discriminator 17
 6233 0784 4C4C     		ldr	r4, .L481+4
 6234              	.LVL886:
 6235 0786 2A46     		mov	r2, r5
 6236 0788 4E49     		ldr	r1, .L481+16
 6237 078a 2046     		mov	r0, r4
 6238 078c FFF7FEFF 		bl	sprintf
 6239              	.LVL887:
1242:main.c        **** 				USBUARTH_Send(TransmitBuffer, strlen(TransmitBuffer));
 6240              		.loc 2 1242 0 discriminator 17
 6241 0790 2046     		mov	r0, r4
 6242 0792 FFF7FEFF 		bl	strlen
 6243              	.LVL888:
 6244 0796 81B2     		uxth	r1, r0
 6245 0798 2046     		mov	r0, r4
 6246 079a FFF7FEFF 		bl	USBUARTH_Send
 6247              	.LVL889:
1243:main.c        **** 				UART_1_PutString(TransmitBuffer);
 6248              		.loc 2 1243 0 discriminator 17
 6249 079e 2046     		mov	r0, r4
 6250 07a0 FFF7FEFF 		bl	UART_1_PutString
 6251              	.LVL890:
 6252              	.LBE84:
 6253 07a4 68E4     		b	.L442
 6254              	.LVL891:
 6255              	.L470:
1244:main.c        **** 			} else 
1245:main.c        **** 			if (strstr(ReceiveBuffer, "connect-intermediate ") == &ReceiveBuffer[0]) {
 6256              		.loc 2 1245 0
 6257 07a6 4849     		ldr	r1, .L481+20
 6258 07a8 2046     		mov	r0, r4
 6259 07aa FFF7FEFF 		bl	strstr
 6260              	.LVL892:
 6261 07ae 8442     		cmp	r4, r0
 6262 07b0 1ED1     		bne	.L471
ARM GAS  C:\Users\FRANKL~1\AppData\Local\Temp\ccebBo1q.s 			page 145


 6263              	.LBB85:
1246:main.c        **** 				char* location = strstr(ReceiveBuffer, " ");
 6264              		.loc 2 1246 0 discriminator 18
 6265 07b2 2021     		movs	r1, #32
 6266 07b4 2046     		mov	r0, r4
 6267 07b6 FFF7FEFF 		bl	strchr
 6268              	.LVL893:
 6269 07ba 02A9     		add	r1, sp, #8
 6270 07bc 41F8040D 		str	r0, [r1, #-4]!
1247:main.c        **** 				uint8 intermediate = strtol(location, &location, 10);
 6271              		.loc 2 1247 0 discriminator 18
 6272 07c0 0A22     		movs	r2, #10
 6273 07c2 FFF7FEFF 		bl	strtol
 6274              	.LVL894:
 6275 07c6 C5B2     		uxtb	r5, r0
 6276              	.LVL895:
1248:main.c        **** 				Connect_Intermediate(intermediate);
 6277              		.loc 2 1248 0 discriminator 18
 6278 07c8 2846     		mov	r0, r5
 6279 07ca FFF7FEFF 		bl	Connect_Intermediate
 6280              	.LVL896:
1249:main.c        **** 				
1250:main.c        **** 				sprintf(TransmitBuffer, "# Connected intermediate %u\r\n", intermediate);
 6281              		.loc 2 1250 0 discriminator 18
 6282 07ce 3A4C     		ldr	r4, .L481+4
 6283              	.LVL897:
 6284 07d0 2A46     		mov	r2, r5
 6285 07d2 3E49     		ldr	r1, .L481+24
 6286 07d4 2046     		mov	r0, r4
 6287 07d6 FFF7FEFF 		bl	sprintf
 6288              	.LVL898:
1251:main.c        **** 				USBUARTH_Send(TransmitBuffer, strlen(TransmitBuffer));
 6289              		.loc 2 1251 0 discriminator 18
 6290 07da 2046     		mov	r0, r4
 6291 07dc FFF7FEFF 		bl	strlen
 6292              	.LVL899:
 6293 07e0 81B2     		uxth	r1, r0
 6294 07e2 2046     		mov	r0, r4
 6295 07e4 FFF7FEFF 		bl	USBUARTH_Send
 6296              	.LVL900:
1252:main.c        **** 				UART_1_PutString(TransmitBuffer);
 6297              		.loc 2 1252 0 discriminator 18
 6298 07e8 2046     		mov	r0, r4
 6299 07ea FFF7FEFF 		bl	UART_1_PutString
 6300              	.LVL901:
 6301              	.LBE85:
 6302 07ee 43E4     		b	.L442
 6303              	.LVL902:
 6304              	.L471:
1253:main.c        **** 			} else 
1254:main.c        **** 			if (strstr(ReceiveBuffer, "connect-intermediates ") == &ReceiveBuffer[0]) {
 6305              		.loc 2 1254 0
 6306 07f0 3749     		ldr	r1, .L481+28
 6307 07f2 2046     		mov	r0, r4
 6308 07f4 FFF7FEFF 		bl	strstr
 6309              	.LVL903:
 6310 07f8 8442     		cmp	r4, r0
ARM GAS  C:\Users\FRANKL~1\AppData\Local\Temp\ccebBo1q.s 			page 146


 6311 07fa 17D1     		bne	.L472
1255:main.c        **** 				Connect_Intermediates();
 6312              		.loc 2 1255 0
 6313 07fc FFF7FEFF 		bl	Connect_Intermediates
 6314              	.LVL904:
1256:main.c        **** 				
1257:main.c        **** 				sprintf(TransmitBuffer, "# Connected intermediates\r\n");
 6315              		.loc 2 1257 0
 6316 0800 2D4D     		ldr	r5, .L481+4
 6317 0802 344C     		ldr	r4, .L481+32
 6318              	.LVL905:
 6319 0804 0FCC     		ldmia	r4!, {r0, r1, r2, r3}
 6320 0806 2860     		str	r0, [r5]	@ unaligned
 6321 0808 6960     		str	r1, [r5, #4]	@ unaligned
 6322 080a AA60     		str	r2, [r5, #8]	@ unaligned
 6323 080c EB60     		str	r3, [r5, #12]	@ unaligned
 6324 080e 07CC     		ldmia	r4!, {r0, r1, r2}
 6325 0810 2861     		str	r0, [r5, #16]	@ unaligned
 6326 0812 6961     		str	r1, [r5, #20]	@ unaligned
 6327 0814 AA61     		str	r2, [r5, #24]	@ unaligned
1258:main.c        **** 				USBUARTH_Send(TransmitBuffer, strlen(TransmitBuffer));
 6328              		.loc 2 1258 0
 6329 0816 2846     		mov	r0, r5
 6330 0818 FFF7FEFF 		bl	strlen
 6331              	.LVL906:
 6332 081c 81B2     		uxth	r1, r0
 6333 081e 2846     		mov	r0, r5
 6334 0820 FFF7FEFF 		bl	USBUARTH_Send
 6335              	.LVL907:
1259:main.c        **** 				UART_1_PutString(TransmitBuffer);
 6336              		.loc 2 1259 0
 6337 0824 2846     		mov	r0, r5
 6338 0826 FFF7FEFF 		bl	UART_1_PutString
 6339              	.LVL908:
 6340 082a 25E4     		b	.L442
 6341              	.LVL909:
 6342              	.L472:
1260:main.c        **** 			} else 
1261:main.c        **** 			if (strstr(ReceiveBuffer, "Set_Current_Measurement_Sample_Count ") == &ReceiveBuffer[0]) {
 6343              		.loc 2 1261 0
 6344 082c 2A49     		ldr	r1, .L481+36
 6345 082e 2046     		mov	r0, r4
 6346 0830 FFF7FEFF 		bl	strstr
 6347              	.LVL910:
 6348 0834 8442     		cmp	r4, r0
 6349 0836 2BD1     		bne	.L473
 6350              	.LBB86:
1262:main.c        **** 				char* location = strstr(ReceiveBuffer, " ");
 6351              		.loc 2 1262 0 discriminator 19
 6352 0838 2021     		movs	r1, #32
 6353 083a 2046     		mov	r0, r4
 6354 083c FFF7FEFF 		bl	strchr
 6355              	.LVL911:
 6356 0840 02A9     		add	r1, sp, #8
 6357 0842 41F8040D 		str	r0, [r1, #-4]!
1263:main.c        **** 				uint32 sampleCount = strtol(location, &location, 10);
 6358              		.loc 2 1263 0 discriminator 19
ARM GAS  C:\Users\FRANKL~1\AppData\Local\Temp\ccebBo1q.s 			page 147


 6359 0846 0A22     		movs	r2, #10
 6360 0848 FFF7FEFF 		bl	strtol
 6361              	.LVL912:
1264:main.c        **** 				
1265:main.c        **** 				Current_Measurement_Sample_Count = sampleCount;
 6362              		.loc 2 1265 0 discriminator 19
 6363 084c 234B     		ldr	r3, .L481+40
 6364 084e 1860     		str	r0, [r3]
1266:main.c        **** 				
1267:main.c        **** 				sprintf(TransmitBuffer, "# Set Current Measurement Sample Count\r\n");
 6365              		.loc 2 1267 0 discriminator 19
 6366 0850 234C     		ldr	r4, .L481+44
 6367              	.LVL913:
 6368 0852 194D     		ldr	r5, .L481+4
 6369 0854 04F12007 		add	r7, r4, #32
 6370              	.LVL914:
 6371              	.L474:
 6372 0858 2646     		mov	r6, r4
 6373 085a 0FCE     		ldmia	r6!, {r0, r1, r2, r3}
 6374 085c 2860     		str	r0, [r5]	@ unaligned
 6375 085e 6960     		str	r1, [r5, #4]	@ unaligned
 6376 0860 AA60     		str	r2, [r5, #8]	@ unaligned
 6377 0862 EB60     		str	r3, [r5, #12]	@ unaligned
 6378 0864 3446     		mov	r4, r6
 6379 0866 1035     		adds	r5, r5, #16
 6380 0868 BE42     		cmp	r6, r7
 6381 086a F5D1     		bne	.L474
 6382 086c 03CC     		ldmia	r4!, {r0, r1}
 6383 086e 2860     		str	r0, [r5]	@ unaligned
 6384 0870 6960     		str	r1, [r5, #4]	@ unaligned
 6385 0872 2378     		ldrb	r3, [r4]	@ zero_extendqisi2
 6386 0874 2B72     		strb	r3, [r5, #8]
1268:main.c        **** 				USBUARTH_Send(TransmitBuffer, strlen(TransmitBuffer));
 6387              		.loc 2 1268 0 discriminator 19
 6388 0876 104C     		ldr	r4, .L481+4
 6389 0878 2046     		mov	r0, r4
 6390 087a FFF7FEFF 		bl	strlen
 6391              	.LVL915:
 6392 087e 81B2     		uxth	r1, r0
 6393 0880 2046     		mov	r0, r4
 6394 0882 FFF7FEFF 		bl	USBUARTH_Send
 6395              	.LVL916:
1269:main.c        **** 				UART_1_PutString(TransmitBuffer);
 6396              		.loc 2 1269 0 discriminator 19
 6397 0886 2046     		mov	r0, r4
 6398 0888 FFF7FEFF 		bl	UART_1_PutString
 6399              	.LVL917:
 6400              	.LBE86:
 6401 088c FFF7F4BB 		b	.L442
 6402              	.LVL918:
 6403              	.L473:
1270:main.c        **** 			} else {
1271:main.c        **** 				sprintf(TransmitBuffer, "! Unidentified command: |%s|\r\n", ReceiveBuffer);
 6404              		.loc 2 1271 0
 6405 0890 094D     		ldr	r5, .L481+4
 6406 0892 2246     		mov	r2, r4
 6407 0894 1349     		ldr	r1, .L481+48
ARM GAS  C:\Users\FRANKL~1\AppData\Local\Temp\ccebBo1q.s 			page 148


 6408 0896 2846     		mov	r0, r5
 6409 0898 FFF7FEFF 		bl	sprintf
 6410              	.LVL919:
1272:main.c        **** 				USBUARTH_Send(TransmitBuffer, strlen(TransmitBuffer));
 6411              		.loc 2 1272 0
 6412 089c 2846     		mov	r0, r5
 6413 089e FFF7FEFF 		bl	strlen
 6414              	.LVL920:
 6415 08a2 81B2     		uxth	r1, r0
 6416 08a4 2846     		mov	r0, r5
 6417 08a6 FFF7FEFF 		bl	USBUARTH_Send
 6418              	.LVL921:
1273:main.c        **** 				UART_1_PutString(TransmitBuffer);
 6419              		.loc 2 1273 0
 6420 08aa 2846     		mov	r0, r5
 6421 08ac FFF7FEFF 		bl	UART_1_PutString
 6422              	.LVL922:
 6423 08b0 FFF7E2BB 		b	.L442
 6424              	.L482:
 6425              		.align	2
 6426              	.L481:
 6427 08b4 F8030000 		.word	.LC53
 6428 08b8 00000000 		.word	TransmitBuffer
 6429 08bc 14040000 		.word	.LC54
 6430 08c0 34040000 		.word	.LC55
 6431 08c4 4C040000 		.word	.LC56
 6432 08c8 6C040000 		.word	.LC57
 6433 08cc 84040000 		.word	.LC58
 6434 08d0 A4040000 		.word	.LC59
 6435 08d4 BC040000 		.word	.LC60
 6436 08d8 D8040000 		.word	.LC61
 6437 08dc 00000000 		.word	Current_Measurement_Sample_Count
 6438 08e0 00050000 		.word	.LC62
 6439 08e4 2C050000 		.word	.LC63
 6440              	.LBE67:
 6441              		.cfi_endproc
 6442              	.LFE116:
 6443              		.size	main, .-main
 6444              		.comm	Current_Measurement_Sample_Count,4,4
 6445              		.comm	Vds_Index_Goal_Relative,2,2
 6446              		.comm	Vgs_Index_Goal_Relative,2,2
 6447              		.comm	Compliance_Reached,1,1
 6448              		.global	TIA_Offsets_uV
 6449              		.global	TIA_Resistor_Values
 6450              		.global	TIA_Resistor_Codes
 6451              		.global	TIA_Selected_Resistor
 6452              		.comm	USBUART_Rx_Position,1,1
 6453              		.comm	USBUART_Receive_Buffer,64,4
 6454              		.comm	UART_Rx_Position,1,1
 6455              		.comm	UART_Receive_Buffer,64,4
 6456              		.global	G_Pause
 6457              		.global	G_Break
 6458              		.global	G_Stop
 6459              		.global	newData
 6460              		.comm	TransmitBuffer,64,4
 6461              		.comm	selectors,1020,4
 6462              		.data
ARM GAS  C:\Users\FRANKL~1\AppData\Local\Temp\ccebBo1q.s 			page 149


 6463              		.align	2
 6464              		.set	.LANCHOR1,. + 0
 6465              		.type	TIA_Resistor_Codes, %object
 6466              		.size	TIA_Resistor_Codes, 8
 6467              	TIA_Resistor_Codes:
 6468 0000 00       		.byte	0
 6469 0001 01       		.byte	1
 6470 0002 02       		.byte	2
 6471 0003 03       		.byte	3
 6472 0004 04       		.byte	4
 6473 0005 05       		.byte	5
 6474 0006 06       		.byte	6
 6475 0007 07       		.byte	7
 6476              		.type	TIA_Resistor_Values, %object
 6477              		.size	TIA_Resistor_Values, 32
 6478              	TIA_Resistor_Values:
 6479 0008 00409C46 		.word	1184645120
 6480 000c 0060EA46 		.word	1189765120
 6481 0010 00401C47 		.word	1193033728
 6482 0014 00409C47 		.word	1201422336
 6483 0018 0060EA47 		.word	1206542336
 6484 001c 00247448 		.word	1215570944
 6485 0020 0024F448 		.word	1223959552
 6486 0024 00247449 		.word	1232348160
 6487              		.section	.rodata.str1.4,"aMS",%progbits,1
 6488              		.align	2
 6489              	.LC0:
 6490 0000 73746F70 		.ascii	"stop \000"
 6490      2000
 6491 0006 0000     		.space	2
 6492              	.LC1:
 6493 0008 62726561 		.ascii	"break \000"
 6493      6B2000
 6494 000f 00       		.space	1
 6495              	.LC2:
 6496 0010 70617573 		.ascii	"pause \000"
 6496      652000
 6497 0017 00       		.space	1
 6498              	.LC3:
 6499 0018 72657375 		.ascii	"resume \000"
 6499      6D652000 
 6500              	.LC4:
 6501 0020 74726973 		.ascii	"tristate \000"
 6501      74617465 
 6501      2000
 6502 002a 0000     		.space	2
 6503              	.LC5:
 6504 002c 55706461 		.ascii	"Updating Selector %u\015\012\000"
 6504      74696E67 
 6504      2053656C 
 6504      6563746F 
 6504      72202575 
 6505 0043 00       		.space	1
 6506              	.LC6:
 6507 0044 49324320 		.ascii	"I2C Transfer Error! Type: Timeout\015\012\000"
 6507      5472616E 
 6507      73666572 
ARM GAS  C:\Users\FRANKL~1\AppData\Local\Temp\ccebBo1q.s 			page 150


 6507      20457272 
 6507      6F722120 
 6508              	.LC7:
 6509 0068 49324320 		.ascii	"I2C Transfer Error! \000"
 6509      5472616E 
 6509      73666572 
 6509      20457272 
 6509      6F722120 
 6510 007d 000000   		.space	3
 6511              	.LC8:
 6512 0080 54797065 		.ascii	"Type: NAK\000"
 6512      3A204E41 
 6512      4B00
 6513 008a 0000     		.space	2
 6514              	.LC9:
 6515 008c 0D0A00   		.ascii	"\015\012\000"
 6516 008f 00       		.space	1
 6517              	.LC10:
 6518 0090 55706461 		.ascii	"Updated Selector %u\015\012\000"
 6518      74656420 
 6518      53656C65 
 6518      63746F72 
 6518      2025750D 
 6519 00a6 0000     		.space	2
 6520              	.LC11:
 6521 00a8 23204F66 		.ascii	"# Offset %e Ohm: %li uV\015\012\000"
 6521      66736574 
 6521      20256520 
 6521      4F686D3A 
 6521      20256C69 
 6522 00c2 0000     		.space	2
 6523              	.LC12:
 6524 00c4 23204361 		.ascii	"# Calibrated ADC Offsets\015\012\000"
 6524      6C696272 
 6524      61746564 
 6524      20414443 
 6524      204F6666 
 6525 00df 00       		.space	1
 6526              	.LC13:
 6527 00e0 5B25652C 		.ascii	"[%e,%f,%f]\015\012\000"
 6527      25662C25 
 6527      665D0D0A 
 6527      00
 6528 00ed 000000   		.space	3
 6529              	.LC14:
 6530 00f0 0D0A2575 		.ascii	"\015\012%u\015\012\000"
 6530      0D0A00
 6531 00f7 00       		.space	1
 6532              	.LC15:
 6533 00f8 0D0A2320 		.ascii	"\015\012# Starting\015\012\000"
 6533      53746172 
 6533      74696E67 
 6533      0D0A00
 6534 0107 00       		.space	1
 6535              	.LC16:
 6536 0108 6D656173 		.ascii	"measure \000"
 6536      75726520 
ARM GAS  C:\Users\FRANKL~1\AppData\Local\Temp\ccebBo1q.s 			page 151


 6536      00
 6537 0111 000000   		.space	3
 6538              	.LC17:
 6539 0114 6D656173 		.ascii	"measure-multiple \000"
 6539      7572652D 
 6539      6D756C74 
 6539      69706C65 
 6539      2000
 6540 0126 0000     		.space	2
 6541              	.LC18:
 6542 0128 6D656173 		.ascii	"measure-sweep \000"
 6542      7572652D 
 6542      73776565 
 6542      702000
 6543 0137 00       		.space	1
 6544              	.LC19:
 6545 0138 6D656173 		.ascii	"measure-gate-sweep \000"
 6545      7572652D 
 6545      67617465 
 6545      2D737765 
 6545      65702000 
 6546              	.LC20:
 6547 014c 6D656173 		.ascii	"measure-gate-sweep-loop \000"
 6547      7572652D 
 6547      67617465 
 6547      2D737765 
 6547      65702D6C 
 6548 0165 000000   		.space	3
 6549              	.LC21:
 6550 0168 63616C69 		.ascii	"calibrate-offset \000"
 6550      62726174 
 6550      652D6F66 
 6550      66736574 
 6550      2000
 6551 017a 0000     		.space	2
 6552              	.LC22:
 6553 017c 7365742D 		.ascii	"set-vgs-raw \000"
 6553      7667732D 
 6553      72617720 
 6553      00
 6554 0189 000000   		.space	3
 6555              	.LC23:
 6556 018c 7365742D 		.ascii	"set-vds-raw \000"
 6556      7664732D 
 6556      72617720 
 6556      00
 6557 0199 000000   		.space	3
 6558              	.LC24:
 6559 019c 7365742D 		.ascii	"set-vgs-rel \000"
 6559      7667732D 
 6559      72656C20 
 6559      00
 6560 01a9 000000   		.space	3
 6561              	.LC25:
 6562 01ac 7365742D 		.ascii	"set-vds-rel \000"
 6562      7664732D 
 6562      72656C20 
ARM GAS  C:\Users\FRANKL~1\AppData\Local\Temp\ccebBo1q.s 			page 152


 6562      00
 6563 01b9 000000   		.space	3
 6564              	.LC26:
 6565 01bc 7365742D 		.ascii	"set-vgs \000"
 6565      76677320 
 6565      00
 6566 01c5 000000   		.space	3
 6567              	.LC27:
 6568 01c8 256600   		.ascii	"%f\000"
 6569 01cb 00       		.space	1
 6570              	.LC28:
 6571 01cc 7365742D 		.ascii	"set-vds \000"
 6571      76647320 
 6571      00
 6572 01d5 000000   		.space	3
 6573              	.LC29:
 6574 01d8 7365742D 		.ascii	"set-vgs-mv \000"
 6574      7667732D 
 6574      6D762000 
 6575              	.LC30:
 6576 01e4 23205667 		.ascii	"# Vgs set to %f mV\015\012\000"
 6576      73207365 
 6576      7420746F 
 6576      20256620 
 6576      6D560D0A 
 6577 01f9 000000   		.space	3
 6578              	.LC31:
 6579 01fc 7365742D 		.ascii	"set-vds-mv \000"
 6579      7664732D 
 6579      6D762000 
 6580              	.LC32:
 6581 0208 23205664 		.ascii	"# Vds set to %f mV\015\012\000"
 6581      73207365 
 6581      7420746F 
 6581      20256620 
 6581      6D560D0A 
 6582 021d 000000   		.space	3
 6583              	.LC33:
 6584 0220 7363616E 		.ascii	"scan \000"
 6584      2000
 6585 0226 0000     		.space	2
 6586              	.LC34:
 6587 0228 0D0A2320 		.ascii	"\015\012# Scan Starting\015\012\000"
 6587      5363616E 
 6587      20537461 
 6587      7274696E 
 6587      670D0A00 
 6588              	.LC35:
 6589 023c 0D0A2320 		.ascii	"\015\012# Scan Complete\015\012\000"
 6589      5363616E 
 6589      20436F6D 
 6589      706C6574 
 6589      650D0A00 
 6590              	.LC36:
 6591 0250 7363616E 		.ascii	"scan-range \000"
 6591      2D72616E 
 6591      67652000 
ARM GAS  C:\Users\FRANKL~1\AppData\Local\Temp\ccebBo1q.s 			page 153


 6592              	.LC37:
 6593 025c 0D0A2320 		.ascii	"\015\012# Scan-Range Starting\015\012\000"
 6593      5363616E 
 6593      2D52616E 
 6593      67652053 
 6593      74617274 
 6594 0276 0000     		.space	2
 6595              	.LC38:
 6596 0278 0D0A2320 		.ascii	"\015\012# Scan Range Complete\015\012\000"
 6596      5363616E 
 6596      2052616E 
 6596      67652043 
 6596      6F6D706C 
 6597 0292 0000     		.space	2
 6598              	.LC39:
 6599 0294 7363616E 		.ascii	"scan-range-loop \000"
 6599      2D72616E 
 6599      67652D6C 
 6599      6F6F7020 
 6599      00
 6600 02a5 000000   		.space	3
 6601              	.LC40:
 6602 02a8 0D0A2320 		.ascii	"\015\012# Scan-Range-Loop Starting\015\012\000"
 6602      5363616E 
 6602      2D52616E 
 6602      67652D4C 
 6602      6F6F7020 
 6603 02c7 00       		.space	1
 6604              	.LC41:
 6605 02c8 0D0A2320 		.ascii	"\015\012# Scan Range Loop Complete\015\012\000"
 6605      5363616E 
 6605      2052616E 
 6605      6765204C 
 6605      6F6F7020 
 6606 02e7 00       		.space	1
 6607              	.LC42:
 6608 02e8 7363616E 		.ascii	"scan-range-wide-loop \000"
 6608      2D72616E 
 6608      67652D77 
 6608      6964652D 
 6608      6C6F6F70 
 6609 02fe 0000     		.space	2
 6610              	.LC43:
 6611 0300 0D0A2320 		.ascii	"\015\012# Scan-Range-Wide-Loop Starting\015\012\000"
 6611      5363616E 
 6611      2D52616E 
 6611      67652D57 
 6611      6964652D 
 6612              	.LC44:
 6613 0324 0D0A2320 		.ascii	"\015\012# Scan Range Wide Loop Complete\015\012\000"
 6613      5363616E 
 6613      2052616E 
 6613      67652057 
 6613      69646520 
 6614              	.LC45:
 6615 0348 636F6E6E 		.ascii	"connect \000"
 6615      65637420 
ARM GAS  C:\Users\FRANKL~1\AppData\Local\Temp\ccebBo1q.s 			page 154


 6615      00
 6616 0351 000000   		.space	3
 6617              	.LC46:
 6618 0354 2320436F 		.ascii	"# Connected %u to %u\015\012\000"
 6618      6E6E6563 
 6618      74656420 
 6618      25752074 
 6618      6F202575 
 6619 036b 00       		.space	1
 6620              	.LC47:
 6621 036c 636F6E6E 		.ascii	"connect-c \000"
 6621      6563742D 
 6621      632000
 6622 0377 00       		.space	1
 6623              	.LC48:
 6624 0378 2320436F 		.ascii	"# Connected channel %u to %u\015\012\000"
 6624      6E6E6563 
 6624      74656420 
 6624      6368616E 
 6624      6E656C20 
 6625 0397 00       		.space	1
 6626              	.LC49:
 6627 0398 64697363 		.ascii	"disconnect \000"
 6627      6F6E6E65 
 6627      63742000 
 6628              	.LC50:
 6629 03a4 23204469 		.ascii	"# Disonnected %u from %u\015\012\000"
 6629      736F6E6E 
 6629      65637465 
 6629      64202575 
 6629      2066726F 
 6630 03bf 00       		.space	1
 6631              	.LC51:
 6632 03c0 64697363 		.ascii	"disconnect-all-from \000"
 6632      6F6E6E65 
 6632      63742D61 
 6632      6C6C2D66 
 6632      726F6D20 
 6633 03d5 000000   		.space	3
 6634              	.LC52:
 6635 03d8 23204469 		.ascii	"# Disconnected all from  %u\015\012\000"
 6635      73636F6E 
 6635      6E656374 
 6635      65642061 
 6635      6C6C2066 
 6636 03f6 0000     		.space	2
 6637              	.LC53:
 6638 03f8 64697363 		.ascii	"disconnect-all-from-all \000"
 6638      6F6E6E65 
 6638      63742D61 
 6638      6C6C2D66 
 6638      726F6D2D 
 6639 0411 000000   		.space	3
 6640              	.LC54:
 6641 0414 23204469 		.ascii	"# Disconnected all from all\015\012\000"
 6641      73636F6E 
 6641      6E656374 
ARM GAS  C:\Users\FRANKL~1\AppData\Local\Temp\ccebBo1q.s 			page 155


 6641      65642061 
 6641      6C6C2066 
 6642 0432 0000     		.space	2
 6643              	.LC55:
 6644 0434 64697363 		.ascii	"disconnect-from-all \000"
 6644      6F6E6E65 
 6644      63742D66 
 6644      726F6D2D 
 6644      616C6C20 
 6645 0449 000000   		.space	3
 6646              	.LC56:
 6647 044c 23204469 		.ascii	"# Disconnected %u from all\015\012\000"
 6647      73636F6E 
 6647      6E656374 
 6647      65642025 
 6647      75206672 
 6648 0469 000000   		.space	3
 6649              	.LC57:
 6650 046c 636F6E6E 		.ascii	"connect-intermediate \000"
 6650      6563742D 
 6650      696E7465 
 6650      726D6564 
 6650      69617465 
 6651 0482 0000     		.space	2
 6652              	.LC58:
 6653 0484 2320436F 		.ascii	"# Connected intermediate %u\015\012\000"
 6653      6E6E6563 
 6653      74656420 
 6653      696E7465 
 6653      726D6564 
 6654 04a2 0000     		.space	2
 6655              	.LC59:
 6656 04a4 636F6E6E 		.ascii	"connect-intermediates \000"
 6656      6563742D 
 6656      696E7465 
 6656      726D6564 
 6656      69617465 
 6657 04bb 00       		.space	1
 6658              	.LC60:
 6659 04bc 2320436F 		.ascii	"# Connected intermediates\015\012\000"
 6659      6E6E6563 
 6659      74656420 
 6659      696E7465 
 6659      726D6564 
 6660              	.LC61:
 6661 04d8 5365745F 		.ascii	"Set_Current_Measurement_Sample_Count \000"
 6661      43757272 
 6661      656E745F 
 6661      4D656173 
 6661      7572656D 
 6662 04fe 0000     		.space	2
 6663              	.LC62:
 6664 0500 23205365 		.ascii	"# Set Current Measurement Sample Count\015\012\000"
 6664      74204375 
 6664      7272656E 
 6664      74204D65 
 6664      61737572 
ARM GAS  C:\Users\FRANKL~1\AppData\Local\Temp\ccebBo1q.s 			page 156


 6665 0529 000000   		.space	3
 6666              	.LC63:
 6667 052c 2120556E 		.ascii	"! Unidentified command: |%s|\015\012\000"
 6667      6964656E 
 6667      74696669 
 6667      65642063 
 6667      6F6D6D61 
 6668              		.bss
 6669              		.align	2
 6670              		.set	.LANCHOR0,. + 0
 6671              		.type	newData, %object
 6672              		.size	newData, 1
 6673              	newData:
 6674 0000 00       		.space	1
 6675              		.type	G_Stop, %object
 6676              		.size	G_Stop, 1
 6677              	G_Stop:
 6678 0001 00       		.space	1
 6679              		.type	G_Break, %object
 6680              		.size	G_Break, 1
 6681              	G_Break:
 6682 0002 00       		.space	1
 6683              		.type	G_Pause, %object
 6684              		.size	G_Pause, 1
 6685              	G_Pause:
 6686 0003 00       		.space	1
 6687              		.type	TIA_Selected_Resistor, %object
 6688              		.size	TIA_Selected_Resistor, 1
 6689              	TIA_Selected_Resistor:
 6690 0004 00       		.space	1
 6691 0005 000000   		.space	3
 6692              		.type	TIA_Offsets_uV, %object
 6693              		.size	TIA_Offsets_uV, 32
 6694              	TIA_Offsets_uV:
 6695 0008 00000000 		.space	32
 6695      00000000 
 6695      00000000 
 6695      00000000 
 6695      00000000 
 6696              		.text
 6697              	.Letext0:
 6698              		.file 3 "c:\\program files (x86)\\cypress\\psoc creator\\4.1\\psoc creator\\import\\gnu\\arm\\5.4.
 6699              		.file 4 "c:\\program files (x86)\\cypress\\psoc creator\\4.1\\psoc creator\\import\\gnu\\arm\\5.4.
 6700              		.file 5 "Generated_Source\\PSoC5/cytypes.h"
 6701              		.file 6 "Generated_Source\\PSoC5/core_cm3.h"
 6702              		.file 7 "Generated_Source\\PSoC5/USBUART.h"
 6703              		.file 8 "Generated_Source\\PSoC5/USBUART_cdc.h"
 6704              		.file 9 "c:\\program files (x86)\\cypress\\psoc creator\\4.1\\psoc creator\\import\\gnu\\arm\\5.4.
 6705              		.file 10 "Generated_Source\\PSoC5/UART_1.h"
 6706              		.file 11 "Generated_Source\\PSoC5/CommunicationInterrupt.h"
 6707              		.file 12 "Generated_Source\\PSoC5/CommunicationTimer.h"
 6708              		.file 13 "Generated_Source\\PSoC5/I2C_1.h"
 6709              		.file 14 "c:\\program files (x86)\\cypress\\psoc creator\\4.1\\psoc creator\\import\\gnu\\arm\\5.4
 6710              		.file 15 "Generated_Source\\PSoC5/TIA_1.h"
 6711              		.file 16 "Generated_Source\\PSoC5/ADC_DelSig_1.h"
 6712              		.file 17 "Generated_Source\\PSoC5/ADC_SAR_1.h"
 6713              		.file 18 "Generated_Source\\PSoC5/ADC_SAR_2.h"
ARM GAS  C:\Users\FRANKL~1\AppData\Local\Temp\ccebBo1q.s 			page 157


 6714              		.file 19 "Generated_Source\\PSoC5/VDAC_Vds.h"
 6715              		.file 20 "Generated_Source\\PSoC5/VDAC_Vgs.h"
 6716              		.file 21 "Generated_Source\\PSoC5/VDAC_Ref.h"
 6717              		.file 22 "c:\\program files (x86)\\cypress\\psoc creator\\4.1\\psoc creator\\import\\gnu\\arm\\5.4
 6718              		.file 23 "Generated_Source\\PSoC5/Opamp_1.h"
 6719              		.file 24 "Generated_Source\\PSoC5/CyLib.h"
 6720              		.file 25 "<built-in>"
 6721              		.section	.debug_info,"",%progbits
 6722              	.Ldebug_info0:
 6723 0000 80390000 		.4byte	0x3980
 6724 0004 0400     		.2byte	0x4
 6725 0006 00000000 		.4byte	.Ldebug_abbrev0
 6726 000a 04       		.byte	0x4
 6727 000b 01       		.uleb128 0x1
 6728 000c A1020000 		.4byte	.LASF253
 6729 0010 0C       		.byte	0xc
 6730 0011 B6060000 		.4byte	.LASF254
 6731 0015 040C0000 		.4byte	.LASF255
 6732 0019 68010000 		.4byte	.Ldebug_ranges0+0x168
 6733 001d 00000000 		.4byte	0
 6734 0021 00000000 		.4byte	.Ldebug_line0
 6735 0025 02       		.uleb128 0x2
 6736 0026 04       		.byte	0x4
 6737 0027 04       		.byte	0x4
 6738 0028 8D0E0000 		.4byte	.LASF0
 6739 002c 02       		.uleb128 0x2
 6740 002d 04       		.byte	0x4
 6741 002e 07       		.byte	0x7
 6742 002f 9F070000 		.4byte	.LASF1
 6743 0033 03       		.uleb128 0x3
 6744 0034 04       		.byte	0x4
 6745 0035 05       		.byte	0x5
 6746 0036 696E7400 		.ascii	"int\000"
 6747 003a 02       		.uleb128 0x2
 6748 003b 08       		.byte	0x8
 6749 003c 05       		.byte	0x5
 6750 003d 96060000 		.4byte	.LASF2
 6751 0041 02       		.uleb128 0x2
 6752 0042 08       		.byte	0x8
 6753 0043 04       		.byte	0x4
 6754 0044 92090000 		.4byte	.LASF3
 6755 0048 02       		.uleb128 0x2
 6756 0049 01       		.byte	0x1
 6757 004a 06       		.byte	0x6
 6758 004b 76030000 		.4byte	.LASF4
 6759 004f 02       		.uleb128 0x2
 6760 0050 01       		.byte	0x1
 6761 0051 08       		.byte	0x8
 6762 0052 AD030000 		.4byte	.LASF5
 6763 0056 02       		.uleb128 0x2
 6764 0057 02       		.byte	0x2
 6765 0058 05       		.byte	0x5
 6766 0059 C70C0000 		.4byte	.LASF6
 6767 005d 02       		.uleb128 0x2
 6768 005e 02       		.byte	0x2
 6769 005f 07       		.byte	0x7
 6770 0060 89020000 		.4byte	.LASF7
ARM GAS  C:\Users\FRANKL~1\AppData\Local\Temp\ccebBo1q.s 			page 158


 6771 0064 04       		.uleb128 0x4
 6772 0065 B50E0000 		.4byte	.LASF13
 6773 0069 03       		.byte	0x3
 6774 006a 3F       		.byte	0x3f
 6775 006b 6F000000 		.4byte	0x6f
 6776 006f 02       		.uleb128 0x2
 6777 0070 04       		.byte	0x4
 6778 0071 05       		.byte	0x5
 6779 0072 25020000 		.4byte	.LASF8
 6780 0076 02       		.uleb128 0x2
 6781 0077 04       		.byte	0x4
 6782 0078 07       		.byte	0x7
 6783 0079 88050000 		.4byte	.LASF9
 6784 007d 02       		.uleb128 0x2
 6785 007e 08       		.byte	0x8
 6786 007f 07       		.byte	0x7
 6787 0080 870A0000 		.4byte	.LASF10
 6788 0084 02       		.uleb128 0x2
 6789 0085 04       		.byte	0x4
 6790 0086 07       		.byte	0x7
 6791 0087 0D000000 		.4byte	.LASF11
 6792 008b 05       		.uleb128 0x5
 6793 008c 04       		.byte	0x4
 6794 008d 91000000 		.4byte	0x91
 6795 0091 02       		.uleb128 0x2
 6796 0092 01       		.byte	0x1
 6797 0093 08       		.byte	0x8
 6798 0094 06040000 		.4byte	.LASF12
 6799 0098 05       		.uleb128 0x5
 6800 0099 04       		.byte	0x4
 6801 009a 9E000000 		.4byte	0x9e
 6802 009e 06       		.uleb128 0x6
 6803 009f 91000000 		.4byte	0x91
 6804 00a3 04       		.uleb128 0x4
 6805 00a4 61000000 		.4byte	.LASF14
 6806 00a8 04       		.byte	0x4
 6807 00a9 2C       		.byte	0x2c
 6808 00aa 64000000 		.4byte	0x64
 6809 00ae 07       		.uleb128 0x7
 6810 00af 7D0C0000 		.4byte	.LASF15
 6811 00b3 05       		.byte	0x5
 6812 00b4 9201     		.2byte	0x192
 6813 00b6 4F000000 		.4byte	0x4f
 6814 00ba 07       		.uleb128 0x7
 6815 00bb 280F0000 		.4byte	.LASF16
 6816 00bf 05       		.byte	0x5
 6817 00c0 9301     		.2byte	0x193
 6818 00c2 5D000000 		.4byte	0x5d
 6819 00c6 07       		.uleb128 0x7
 6820 00c7 8C000000 		.4byte	.LASF17
 6821 00cb 05       		.byte	0x5
 6822 00cc 9401     		.2byte	0x194
 6823 00ce 76000000 		.4byte	0x76
 6824 00d2 07       		.uleb128 0x7
 6825 00d3 5C010000 		.4byte	.LASF18
 6826 00d7 05       		.byte	0x5
 6827 00d8 9501     		.2byte	0x195
ARM GAS  C:\Users\FRANKL~1\AppData\Local\Temp\ccebBo1q.s 			page 159


 6828 00da 48000000 		.4byte	0x48
 6829 00de 07       		.uleb128 0x7
 6830 00df D70D0000 		.4byte	.LASF19
 6831 00e3 05       		.byte	0x5
 6832 00e4 9601     		.2byte	0x196
 6833 00e6 56000000 		.4byte	0x56
 6834 00ea 07       		.uleb128 0x7
 6835 00eb AF0E0000 		.4byte	.LASF20
 6836 00ef 05       		.byte	0x5
 6837 00f0 9701     		.2byte	0x197
 6838 00f2 6F000000 		.4byte	0x6f
 6839 00f6 02       		.uleb128 0x2
 6840 00f7 08       		.byte	0x8
 6841 00f8 04       		.byte	0x4
 6842 00f9 AF060000 		.4byte	.LASF21
 6843 00fd 07       		.uleb128 0x7
 6844 00fe 010B0000 		.4byte	.LASF22
 6845 0102 05       		.byte	0x5
 6846 0103 3C02     		.2byte	0x23c
 6847 0105 09010000 		.4byte	0x109
 6848 0109 08       		.uleb128 0x8
 6849 010a AE000000 		.4byte	0xae
 6850 010e 09       		.uleb128 0x9
 6851 010f AE000000 		.4byte	0xae
 6852 0113 1E010000 		.4byte	0x11e
 6853 0117 0A       		.uleb128 0xa
 6854 0118 84000000 		.4byte	0x84
 6855 011c 07       		.byte	0x7
 6856 011d 00       		.byte	0
 6857 011e 0B       		.uleb128 0xb
 6858 011f 7F       		.byte	0x7f
 6859 0120 02       		.byte	0x2
 6860 0121 08       		.byte	0x8
 6861 0122 3F010000 		.4byte	0x13f
 6862 0126 0C       		.uleb128 0xc
 6863 0127 A4060000 		.4byte	.LASF23
 6864 012b 02       		.byte	0x2
 6865 012c 09       		.byte	0x9
 6866 012d AE000000 		.4byte	0xae
 6867 0131 00       		.byte	0
 6868 0132 0C       		.uleb128 0xc
 6869 0133 010F0000 		.4byte	.LASF24
 6870 0137 02       		.byte	0x2
 6871 0138 0A       		.byte	0xa
 6872 0139 3F010000 		.4byte	0x13f
 6873 013d 01       		.byte	0x1
 6874 013e 00       		.byte	0
 6875 013f 09       		.uleb128 0x9
 6876 0140 AE000000 		.4byte	0xae
 6877 0144 4F010000 		.4byte	0x14f
 6878 0148 0A       		.uleb128 0xa
 6879 0149 84000000 		.4byte	0x84
 6880 014d 7D       		.byte	0x7d
 6881 014e 00       		.byte	0
 6882 014f 0B       		.uleb128 0xb
 6883 0150 7F       		.byte	0x7f
 6884 0151 02       		.byte	0x2
ARM GAS  C:\Users\FRANKL~1\AppData\Local\Temp\ccebBo1q.s 			page 160


 6885 0152 0C       		.byte	0xc
 6886 0153 70010000 		.4byte	0x170
 6887 0157 0C       		.uleb128 0xc
 6888 0158 A4060000 		.4byte	.LASF23
 6889 015c 02       		.byte	0x2
 6890 015d 0D       		.byte	0xd
 6891 015e AE000000 		.4byte	0xae
 6892 0162 00       		.byte	0
 6893 0163 0C       		.uleb128 0xc
 6894 0164 010F0000 		.4byte	.LASF24
 6895 0168 02       		.byte	0x2
 6896 0169 0E       		.byte	0xe
 6897 016a 3F010000 		.4byte	0x13f
 6898 016e 01       		.byte	0x1
 6899 016f 00       		.byte	0
 6900 0170 0D       		.uleb128 0xd
 6901 0171 82030000 		.4byte	.LASF256
 6902 0175 FF       		.byte	0xff
 6903 0176 02       		.byte	0x2
 6904 0177 07       		.byte	0x7
 6905 0178 A1010000 		.4byte	0x1a1
 6906 017c 0C       		.uleb128 0xc
 6907 017d 93000000 		.4byte	.LASF25
 6908 0181 02       		.byte	0x2
 6909 0182 0B       		.byte	0xb
 6910 0183 1E010000 		.4byte	0x11e
 6911 0187 00       		.byte	0
 6912 0188 0C       		.uleb128 0xc
 6913 0189 71070000 		.4byte	.LASF26
 6914 018d 02       		.byte	0x2
 6915 018e 0F       		.byte	0xf
 6916 018f 4F010000 		.4byte	0x14f
 6917 0193 7F       		.byte	0x7f
 6918 0194 0C       		.uleb128 0xc
 6919 0195 5D0D0000 		.4byte	.LASF27
 6920 0199 02       		.byte	0x2
 6921 019a 10       		.byte	0x10
 6922 019b AE000000 		.4byte	0xae
 6923 019f FE       		.byte	0xfe
 6924 01a0 00       		.byte	0
 6925 01a1 0E       		.uleb128 0xe
 6926 01a2 77000000 		.4byte	.LASF257
 6927 01a6 01       		.byte	0x1
 6928 01a7 4F000000 		.4byte	0x4f
 6929 01ab 02       		.byte	0x2
 6930 01ac 2B       		.byte	0x2b
 6931 01ad E2010000 		.4byte	0x1e2
 6932 01b1 0F       		.uleb128 0xf
 6933 01b2 61020000 		.4byte	.LASF28
 6934 01b6 00       		.byte	0
 6935 01b7 0F       		.uleb128 0xf
 6936 01b8 F0040000 		.4byte	.LASF29
 6937 01bc 01       		.byte	0x1
 6938 01bd 0F       		.uleb128 0xf
 6939 01be FD070000 		.4byte	.LASF30
 6940 01c2 02       		.byte	0x2
 6941 01c3 0F       		.uleb128 0xf
ARM GAS  C:\Users\FRANKL~1\AppData\Local\Temp\ccebBo1q.s 			page 161


 6942 01c4 29050000 		.4byte	.LASF31
 6943 01c8 03       		.byte	0x3
 6944 01c9 0F       		.uleb128 0xf
 6945 01ca 59040000 		.4byte	.LASF32
 6946 01ce 04       		.byte	0x4
 6947 01cf 0F       		.uleb128 0xf
 6948 01d0 6C050000 		.4byte	.LASF33
 6949 01d4 05       		.byte	0x5
 6950 01d5 0F       		.uleb128 0xf
 6951 01d6 700E0000 		.4byte	.LASF34
 6952 01da 06       		.byte	0x6
 6953 01db 0F       		.uleb128 0xf
 6954 01dc 3F030000 		.4byte	.LASF35
 6955 01e0 07       		.byte	0x7
 6956 01e1 00       		.byte	0
 6957 01e2 10       		.uleb128 0x10
 6958 01e3 DD070000 		.4byte	.LASF54
 6959 01e7 01       		.byte	0x1
 6960 01e8 10       		.byte	0x10
 6961 01e9 00000000 		.4byte	.LFB64
 6962 01ed 18000000 		.4byte	.LFE64-.LFB64
 6963 01f1 01       		.uleb128 0x1
 6964 01f2 9C       		.byte	0x9c
 6965 01f3 2B020000 		.4byte	0x22b
 6966 01f7 11       		.uleb128 0x11
 6967 01f8 5B000000 		.4byte	.LASF38
 6968 01fc 01       		.byte	0x1
 6969 01fd 11       		.byte	0x11
 6970 01fe 76000000 		.4byte	0x76
 6971 0202 00000000 		.4byte	.LLST0
 6972 0206 12       		.uleb128 0x12
 6973 0207 06000000 		.4byte	.LVL1
 6974 020b 35370000 		.4byte	0x3735
 6975 020f 12       		.uleb128 0x12
 6976 0210 0C000000 		.4byte	.LVL2
 6977 0214 41370000 		.4byte	0x3741
 6978 0218 12       		.uleb128 0x12
 6979 0219 12000000 		.4byte	.LVL3
 6980 021d 4D370000 		.4byte	0x374d
 6981 0221 12       		.uleb128 0x12
 6982 0222 16000000 		.4byte	.LVL4
 6983 0226 41370000 		.4byte	0x3741
 6984 022a 00       		.byte	0
 6985 022b 13       		.uleb128 0x13
 6986 022c E2060000 		.4byte	.LASF36
 6987 0230 01       		.byte	0x1
 6988 0231 22       		.byte	0x22
 6989 0232 AE000000 		.4byte	0xae
 6990 0236 00000000 		.4byte	.LFB65
 6991 023a 1E000000 		.4byte	.LFE65-.LFB65
 6992 023e 01       		.uleb128 0x1
 6993 023f 9C       		.byte	0x9c
 6994 0240 60020000 		.4byte	0x260
 6995 0244 12       		.uleb128 0x12
 6996 0245 06000000 		.4byte	.LVL5
 6997 0249 E2010000 		.4byte	0x1e2
 6998 024d 12       		.uleb128 0x12
ARM GAS  C:\Users\FRANKL~1\AppData\Local\Temp\ccebBo1q.s 			page 162


 6999 024e 0A000000 		.4byte	.LVL6
 7000 0252 41370000 		.4byte	0x3741
 7001 0256 12       		.uleb128 0x12
 7002 0257 10000000 		.4byte	.LVL7
 7003 025b 58370000 		.4byte	0x3758
 7004 025f 00       		.byte	0
 7005 0260 14       		.uleb128 0x14
 7006 0261 AB0B0000 		.4byte	.LASF37
 7007 0265 02       		.byte	0x2
 7008 0266 AD03     		.2byte	0x3ad
 7009 0268 00000000 		.4byte	.LFB115
 7010 026c B0010000 		.4byte	.LFE115-.LFB115
 7011 0270 01       		.uleb128 0x1
 7012 0271 9C       		.byte	0x9c
 7013 0272 C1030000 		.4byte	0x3c1
 7014 0276 15       		.uleb128 0x15
 7015 0277 0C000000 		.4byte	.LBB2
 7016 027b 70000000 		.4byte	.LBE2-.LBB2
 7017 027f E8020000 		.4byte	0x2e8
 7018 0283 16       		.uleb128 0x16
 7019 0284 E4040000 		.4byte	.LASF39
 7020 0288 02       		.byte	0x2
 7021 0289 B103     		.2byte	0x3b1
 7022 028b C1030000 		.4byte	0x3c1
 7023 028f 03       		.uleb128 0x3
 7024 0290 91       		.byte	0x91
 7025 0291 B07F     		.sleb128 -80
 7026 0293 17       		.uleb128 0x17
 7027 0294 1E0B0000 		.4byte	.LASF40
 7028 0298 02       		.byte	0x2
 7029 0299 B203     		.2byte	0x3b2
 7030 029b AE000000 		.4byte	0xae
 7031 029f 20000000 		.4byte	.LLST1
 7032 02a3 15       		.uleb128 0x15
 7033 02a4 14000000 		.4byte	.LBB3
 7034 02a8 68000000 		.4byte	.LBE3-.LBB3
 7035 02ac D7020000 		.4byte	0x2d7
 7036 02b0 18       		.uleb128 0x18
 7037 02b1 6900     		.ascii	"i\000"
 7038 02b3 02       		.byte	0x2
 7039 02b4 B403     		.2byte	0x3b4
 7040 02b6 AE000000 		.4byte	0xae
 7041 02ba 33000000 		.4byte	.LLST2
 7042 02be 19       		.uleb128 0x19
 7043 02bf 18000000 		.4byte	.LBB4
 7044 02c3 5A000000 		.4byte	.LBE4-.LBB4
 7045 02c7 18       		.uleb128 0x18
 7046 02c8 6300     		.ascii	"c\000"
 7047 02ca 02       		.byte	0x2
 7048 02cb B503     		.2byte	0x3b5
 7049 02cd 91000000 		.4byte	0x91
 7050 02d1 5D000000 		.4byte	.LLST3
 7051 02d5 00       		.byte	0
 7052 02d6 00       		.byte	0
 7053 02d7 1A       		.uleb128 0x1a
 7054 02d8 12000000 		.4byte	.LVL9
 7055 02dc 63370000 		.4byte	0x3763
ARM GAS  C:\Users\FRANKL~1\AppData\Local\Temp\ccebBo1q.s 			page 163


 7056 02e0 1B       		.uleb128 0x1b
 7057 02e1 01       		.uleb128 0x1
 7058 02e2 50       		.byte	0x50
 7059 02e3 02       		.uleb128 0x2
 7060 02e4 7D       		.byte	0x7d
 7061 02e5 00       		.sleb128 0
 7062 02e6 00       		.byte	0
 7063 02e7 00       		.byte	0
 7064 02e8 15       		.uleb128 0x15
 7065 02e9 FC000000 		.4byte	.LBB5
 7066 02ed 80000000 		.4byte	.LBE5-.LBB5
 7067 02f1 93030000 		.4byte	0x393
 7068 02f5 17       		.uleb128 0x17
 7069 02f6 BB090000 		.4byte	.LASF41
 7070 02fa 02       		.byte	0x2
 7071 02fb D603     		.2byte	0x3d6
 7072 02fd 8B000000 		.4byte	0x8b
 7073 0301 B1000000 		.4byte	.LLST4
 7074 0305 1C       		.uleb128 0x1c
 7075 0306 14010000 		.4byte	.LVL23
 7076 030a 6E370000 		.4byte	0x376e
 7077 030e 22030000 		.4byte	0x322
 7078 0312 1B       		.uleb128 0x1b
 7079 0313 01       		.uleb128 0x1
 7080 0314 50       		.byte	0x50
 7081 0315 02       		.uleb128 0x2
 7082 0316 74       		.byte	0x74
 7083 0317 00       		.sleb128 0
 7084 0318 1B       		.uleb128 0x1b
 7085 0319 01       		.uleb128 0x1
 7086 031a 51       		.byte	0x51
 7087 031b 05       		.uleb128 0x5
 7088 031c 03       		.byte	0x3
 7089 031d 00000000 		.4byte	.LC0
 7090 0321 00       		.byte	0
 7091 0322 1C       		.uleb128 0x1c
 7092 0323 2C010000 		.4byte	.LVL24
 7093 0327 6E370000 		.4byte	0x376e
 7094 032b 3F030000 		.4byte	0x33f
 7095 032f 1B       		.uleb128 0x1b
 7096 0330 01       		.uleb128 0x1
 7097 0331 50       		.byte	0x50
 7098 0332 02       		.uleb128 0x2
 7099 0333 74       		.byte	0x74
 7100 0334 00       		.sleb128 0
 7101 0335 1B       		.uleb128 0x1b
 7102 0336 01       		.uleb128 0x1
 7103 0337 51       		.byte	0x51
 7104 0338 05       		.uleb128 0x5
 7105 0339 03       		.byte	0x3
 7106 033a 08000000 		.4byte	.LC1
 7107 033e 00       		.byte	0
 7108 033f 1C       		.uleb128 0x1c
 7109 0340 44010000 		.4byte	.LVL25
 7110 0344 6E370000 		.4byte	0x376e
 7111 0348 5C030000 		.4byte	0x35c
 7112 034c 1B       		.uleb128 0x1b
ARM GAS  C:\Users\FRANKL~1\AppData\Local\Temp\ccebBo1q.s 			page 164


 7113 034d 01       		.uleb128 0x1
 7114 034e 50       		.byte	0x50
 7115 034f 02       		.uleb128 0x2
 7116 0350 74       		.byte	0x74
 7117 0351 00       		.sleb128 0
 7118 0352 1B       		.uleb128 0x1b
 7119 0353 01       		.uleb128 0x1
 7120 0354 51       		.byte	0x51
 7121 0355 05       		.uleb128 0x5
 7122 0356 03       		.byte	0x3
 7123 0357 10000000 		.4byte	.LC2
 7124 035b 00       		.byte	0
 7125 035c 1C       		.uleb128 0x1c
 7126 035d 5C010000 		.4byte	.LVL26
 7127 0361 6E370000 		.4byte	0x376e
 7128 0365 79030000 		.4byte	0x379
 7129 0369 1B       		.uleb128 0x1b
 7130 036a 01       		.uleb128 0x1
 7131 036b 50       		.byte	0x50
 7132 036c 02       		.uleb128 0x2
 7133 036d 74       		.byte	0x74
 7134 036e 00       		.sleb128 0
 7135 036f 1B       		.uleb128 0x1b
 7136 0370 01       		.uleb128 0x1
 7137 0371 51       		.byte	0x51
 7138 0372 05       		.uleb128 0x5
 7139 0373 03       		.byte	0x3
 7140 0374 18000000 		.4byte	.LC3
 7141 0378 00       		.byte	0
 7142 0379 1A       		.uleb128 0x1a
 7143 037a 72010000 		.4byte	.LVL27
 7144 037e 6E370000 		.4byte	0x376e
 7145 0382 1B       		.uleb128 0x1b
 7146 0383 01       		.uleb128 0x1
 7147 0384 50       		.byte	0x50
 7148 0385 02       		.uleb128 0x2
 7149 0386 74       		.byte	0x74
 7150 0387 00       		.sleb128 0
 7151 0388 1B       		.uleb128 0x1b
 7152 0389 01       		.uleb128 0x1
 7153 038a 51       		.byte	0x51
 7154 038b 05       		.uleb128 0x5
 7155 038c 03       		.byte	0x3
 7156 038d 20000000 		.4byte	.LC4
 7157 0391 00       		.byte	0
 7158 0392 00       		.byte	0
 7159 0393 12       		.uleb128 0x12
 7160 0394 08000000 		.4byte	.LVL8
 7161 0398 2B020000 		.4byte	0x22b
 7162 039c 12       		.uleb128 0x12
 7163 039d 80000000 		.4byte	.LVL19
 7164 03a1 79370000 		.4byte	0x3779
 7165 03a5 12       		.uleb128 0x12
 7166 03a6 8E000000 		.4byte	.LVL20
 7167 03aa 84370000 		.4byte	0x3784
 7168 03ae 12       		.uleb128 0x12
 7169 03af 80010000 		.4byte	.LVL29
ARM GAS  C:\Users\FRANKL~1\AppData\Local\Temp\ccebBo1q.s 			page 165


 7170 03b3 8F370000 		.4byte	0x378f
 7171 03b7 12       		.uleb128 0x12
 7172 03b8 84010000 		.4byte	.LVL30
 7173 03bc 9A370000 		.4byte	0x379a
 7174 03c0 00       		.byte	0
 7175 03c1 09       		.uleb128 0x9
 7176 03c2 91000000 		.4byte	0x91
 7177 03c6 D1030000 		.4byte	0x3d1
 7178 03ca 0A       		.uleb128 0xa
 7179 03cb 84000000 		.4byte	0x84
 7180 03cf 3F       		.byte	0x3f
 7181 03d0 00       		.byte	0
 7182 03d1 1D       		.uleb128 0x1d
 7183 03d2 EA000000 		.4byte	.LASF44
 7184 03d6 01       		.byte	0x1
 7185 03d7 29       		.byte	0x29
 7186 03d8 AE000000 		.4byte	0xae
 7187 03dc 00000000 		.4byte	.LFB66
 7188 03e0 50000000 		.4byte	.LFE66-.LFB66
 7189 03e4 01       		.uleb128 0x1
 7190 03e5 9C       		.byte	0x9c
 7191 03e6 74040000 		.4byte	0x474
 7192 03ea 1E       		.uleb128 0x1e
 7193 03eb CC040000 		.4byte	.LASF42
 7194 03ef 01       		.byte	0x1
 7195 03f0 29       		.byte	0x29
 7196 03f1 8B000000 		.4byte	0x8b
 7197 03f5 D4000000 		.4byte	.LLST5
 7198 03f9 1E       		.uleb128 0x1e
 7199 03fa 6B070000 		.4byte	.LASF43
 7200 03fe 01       		.byte	0x1
 7201 03ff 29       		.byte	0x29
 7202 0400 BA000000 		.4byte	0xba
 7203 0404 16010000 		.4byte	.LLST6
 7204 0408 1F       		.uleb128 0x1f
 7205 0409 00000000 		.4byte	.Ldebug_ranges0+0
 7206 040d 33040000 		.4byte	0x433
 7207 0411 11       		.uleb128 0x11
 7208 0412 5B000000 		.4byte	.LASF38
 7209 0416 01       		.byte	0x1
 7210 0417 2C       		.byte	0x2c
 7211 0418 C6000000 		.4byte	0xc6
 7212 041c 50010000 		.4byte	.LLST7
 7213 0420 12       		.uleb128 0x12
 7214 0421 0C000000 		.4byte	.LVL34
 7215 0425 E2010000 		.4byte	0x1e2
 7216 0429 12       		.uleb128 0x12
 7217 042a 10000000 		.4byte	.LVL35
 7218 042e A5370000 		.4byte	0x37a5
 7219 0432 00       		.byte	0
 7220 0433 12       		.uleb128 0x12
 7221 0434 26000000 		.4byte	.LVL39
 7222 0438 A5370000 		.4byte	0x37a5
 7223 043c 1C       		.uleb128 0x1c
 7224 043d 32000000 		.4byte	.LVL40
 7225 0441 B0370000 		.4byte	0x37b0
 7226 0445 56040000 		.4byte	0x456
ARM GAS  C:\Users\FRANKL~1\AppData\Local\Temp\ccebBo1q.s 			page 166


 7227 0449 1B       		.uleb128 0x1b
 7228 044a 01       		.uleb128 0x1
 7229 044b 50       		.byte	0x50
 7230 044c 02       		.uleb128 0x2
 7231 044d 76       		.byte	0x76
 7232 044e 00       		.sleb128 0
 7233 044f 1B       		.uleb128 0x1b
 7234 0450 01       		.uleb128 0x1
 7235 0451 51       		.byte	0x51
 7236 0452 02       		.uleb128 0x2
 7237 0453 75       		.byte	0x75
 7238 0454 00       		.sleb128 0
 7239 0455 00       		.byte	0
 7240 0456 12       		.uleb128 0x12
 7241 0457 3A000000 		.4byte	.LVL41
 7242 045b A5370000 		.4byte	0x37a5
 7243 045f 1A       		.uleb128 0x1a
 7244 0460 46000000 		.4byte	.LVL42
 7245 0464 B0370000 		.4byte	0x37b0
 7246 0468 1B       		.uleb128 0x1b
 7247 0469 01       		.uleb128 0x1
 7248 046a 50       		.byte	0x50
 7249 046b 01       		.uleb128 0x1
 7250 046c 30       		.byte	0x30
 7251 046d 1B       		.uleb128 0x1b
 7252 046e 01       		.uleb128 0x1
 7253 046f 51       		.byte	0x51
 7254 0470 01       		.uleb128 0x1
 7255 0471 30       		.byte	0x30
 7256 0472 00       		.byte	0
 7257 0473 00       		.byte	0
 7258 0474 1D       		.uleb128 0x1d
 7259 0475 B60C0000 		.4byte	.LASF45
 7260 0479 01       		.byte	0x1
 7261 047a 47       		.byte	0x47
 7262 047b AE000000 		.4byte	0xae
 7263 047f 00000000 		.4byte	.LFB67
 7264 0483 24000000 		.4byte	.LFE67-.LFB67
 7265 0487 01       		.uleb128 0x1
 7266 0488 9C       		.byte	0x9c
 7267 0489 CE040000 		.4byte	0x4ce
 7268 048d 1E       		.uleb128 0x1e
 7269 048e CC040000 		.4byte	.LASF42
 7270 0492 01       		.byte	0x1
 7271 0493 47       		.byte	0x47
 7272 0494 8B000000 		.4byte	0x8b
 7273 0498 6E010000 		.4byte	.LLST8
 7274 049c 1E       		.uleb128 0x1e
 7275 049d 6B070000 		.4byte	.LASF43
 7276 04a1 01       		.byte	0x1
 7277 04a2 47       		.byte	0x47
 7278 04a3 CE040000 		.4byte	0x4ce
 7279 04a7 8C010000 		.4byte	.LLST9
 7280 04ab 12       		.uleb128 0x12
 7281 04ac 0C000000 		.4byte	.LVL45
 7282 04b0 E2010000 		.4byte	0x1e2
 7283 04b4 12       		.uleb128 0x12
ARM GAS  C:\Users\FRANKL~1\AppData\Local\Temp\ccebBo1q.s 			page 167


 7284 04b5 10000000 		.4byte	.LVL46
 7285 04b9 58370000 		.4byte	0x3758
 7286 04bd 1A       		.uleb128 0x1a
 7287 04be 1A000000 		.4byte	.LVL47
 7288 04c2 63370000 		.4byte	0x3763
 7289 04c6 1B       		.uleb128 0x1b
 7290 04c7 01       		.uleb128 0x1
 7291 04c8 50       		.byte	0x50
 7292 04c9 02       		.uleb128 0x2
 7293 04ca 74       		.byte	0x74
 7294 04cb 00       		.sleb128 0
 7295 04cc 00       		.byte	0
 7296 04cd 00       		.byte	0
 7297 04ce 05       		.uleb128 0x5
 7298 04cf 04       		.byte	0x4
 7299 04d0 BA000000 		.4byte	0xba
 7300 04d4 13       		.uleb128 0x13
 7301 04d5 DC030000 		.4byte	.LASF46
 7302 04d9 01       		.byte	0x1
 7303 04da 53       		.byte	0x53
 7304 04db 91000000 		.4byte	0x91
 7305 04df 00000000 		.4byte	.LFB68
 7306 04e3 16000000 		.4byte	.LFE68-.LFB68
 7307 04e7 01       		.uleb128 0x1
 7308 04e8 9C       		.byte	0x9c
 7309 04e9 09050000 		.4byte	0x509
 7310 04ed 12       		.uleb128 0x12
 7311 04ee 08000000 		.4byte	.LVL48
 7312 04f2 E2010000 		.4byte	0x1e2
 7313 04f6 12       		.uleb128 0x12
 7314 04f7 0C000000 		.4byte	.LVL49
 7315 04fb 58370000 		.4byte	0x3758
 7316 04ff 12       		.uleb128 0x12
 7317 0500 14000000 		.4byte	.LVL50
 7318 0504 BB370000 		.4byte	0x37bb
 7319 0508 00       		.byte	0
 7320 0509 1D       		.uleb128 0x1d
 7321 050a D2080000 		.4byte	.LASF47
 7322 050e 01       		.byte	0x1
 7323 050f 59       		.byte	0x59
 7324 0510 AE000000 		.4byte	0xae
 7325 0514 00000000 		.4byte	.LFB69
 7326 0518 58000000 		.4byte	.LFE69-.LFB69
 7327 051c 01       		.uleb128 0x1
 7328 051d 9C       		.byte	0x9c
 7329 051e B5050000 		.4byte	0x5b5
 7330 0522 1E       		.uleb128 0x1e
 7331 0523 CC040000 		.4byte	.LASF42
 7332 0527 01       		.byte	0x1
 7333 0528 59       		.byte	0x59
 7334 0529 8B000000 		.4byte	0x8b
 7335 052d AA010000 		.4byte	.LLST10
 7336 0531 1E       		.uleb128 0x1e
 7337 0532 53050000 		.4byte	.LASF48
 7338 0536 01       		.byte	0x1
 7339 0537 59       		.byte	0x59
 7340 0538 BA000000 		.4byte	0xba
ARM GAS  C:\Users\FRANKL~1\AppData\Local\Temp\ccebBo1q.s 			page 168


 7341 053c C8010000 		.4byte	.LLST11
 7342 0540 1E       		.uleb128 0x1e
 7343 0541 F7060000 		.4byte	.LASF49
 7344 0545 01       		.byte	0x1
 7345 0546 59       		.byte	0x59
 7346 0547 98000000 		.4byte	0x98
 7347 054b E9010000 		.4byte	.LLST12
 7348 054f 15       		.uleb128 0x15
 7349 0550 0A000000 		.4byte	.LBB8
 7350 0554 14000000 		.4byte	.LBE8-.LBB8
 7351 0558 6A050000 		.4byte	0x56a
 7352 055c 20       		.uleb128 0x20
 7353 055d 6900     		.ascii	"i\000"
 7354 055f 01       		.byte	0x1
 7355 0560 5A       		.byte	0x5a
 7356 0561 BA000000 		.4byte	0xba
 7357 0565 07020000 		.4byte	.LLST13
 7358 0569 00       		.byte	0
 7359 056a 19       		.uleb128 0x19
 7360 056b 1E000000 		.4byte	.LBB9
 7361 056f 34000000 		.4byte	.LBE9-.LBB9
 7362 0573 20       		.uleb128 0x20
 7363 0574 6900     		.ascii	"i\000"
 7364 0576 01       		.byte	0x1
 7365 0577 5E       		.byte	0x5e
 7366 0578 BA000000 		.4byte	0xba
 7367 057c 31020000 		.4byte	.LLST14
 7368 0580 12       		.uleb128 0x12
 7369 0581 22000000 		.4byte	.LVL57
 7370 0585 D4040000 		.4byte	0x4d4
 7371 0589 1C       		.uleb128 0x1c
 7372 058a 32000000 		.4byte	.LVL58
 7373 058e 6E370000 		.4byte	0x376e
 7374 0592 A3050000 		.4byte	0x5a3
 7375 0596 1B       		.uleb128 0x1b
 7376 0597 01       		.uleb128 0x1
 7377 0598 50       		.byte	0x50
 7378 0599 02       		.uleb128 0x2
 7379 059a 75       		.byte	0x75
 7380 059b 00       		.sleb128 0
 7381 059c 1B       		.uleb128 0x1b
 7382 059d 01       		.uleb128 0x1
 7383 059e 51       		.byte	0x51
 7384 059f 02       		.uleb128 0x2
 7385 05a0 77       		.byte	0x77
 7386 05a1 00       		.sleb128 0
 7387 05a2 00       		.byte	0
 7388 05a3 1A       		.uleb128 0x1a
 7389 05a4 3A000000 		.4byte	.LVL59
 7390 05a8 C6370000 		.4byte	0x37c6
 7391 05ac 1B       		.uleb128 0x1b
 7392 05ad 01       		.uleb128 0x1
 7393 05ae 50       		.byte	0x50
 7394 05af 02       		.uleb128 0x2
 7395 05b0 77       		.byte	0x77
 7396 05b1 00       		.sleb128 0
 7397 05b2 00       		.byte	0
ARM GAS  C:\Users\FRANKL~1\AppData\Local\Temp\ccebBo1q.s 			page 169


 7398 05b3 00       		.byte	0
 7399 05b4 00       		.byte	0
 7400 05b5 21       		.uleb128 0x21
 7401 05b6 5C030000 		.4byte	.LASF50
 7402 05ba 02       		.byte	0x2
 7403 05bb 38       		.byte	0x38
 7404 05bc 00000000 		.4byte	.LFB70
 7405 05c0 32000000 		.4byte	.LFE70-.LFB70
 7406 05c4 01       		.uleb128 0x1
 7407 05c5 9C       		.byte	0x9c
 7408 05c6 0A060000 		.4byte	0x60a
 7409 05ca 22       		.uleb128 0x22
 7410 05cb BF0E0000 		.4byte	.LASF51
 7411 05cf 02       		.byte	0x2
 7412 05d0 38       		.byte	0x38
 7413 05d1 0A060000 		.4byte	0x60a
 7414 05d5 01       		.uleb128 0x1
 7415 05d6 50       		.byte	0x50
 7416 05d7 15       		.uleb128 0x15
 7417 05d8 0A000000 		.4byte	.LBB10
 7418 05dc 16000000 		.4byte	.LBE10-.LBB10
 7419 05e0 F2050000 		.4byte	0x5f2
 7420 05e4 20       		.uleb128 0x20
 7421 05e5 6900     		.ascii	"i\000"
 7422 05e7 02       		.byte	0x2
 7423 05e8 3C       		.byte	0x3c
 7424 05e9 BA000000 		.4byte	0xba
 7425 05ed 4F020000 		.4byte	.LLST15
 7426 05f1 00       		.byte	0
 7427 05f2 19       		.uleb128 0x19
 7428 05f3 20000000 		.4byte	.LBB11
 7429 05f7 10000000 		.4byte	.LBE11-.LBB11
 7430 05fb 20       		.uleb128 0x20
 7431 05fc 6900     		.ascii	"i\000"
 7432 05fe 02       		.byte	0x2
 7433 05ff 3F       		.byte	0x3f
 7434 0600 BA000000 		.4byte	0xba
 7435 0604 79020000 		.4byte	.LLST16
 7436 0608 00       		.byte	0
 7437 0609 00       		.byte	0
 7438 060a 05       		.uleb128 0x5
 7439 060b 04       		.byte	0x4
 7440 060c 70010000 		.4byte	0x170
 7441 0610 23       		.uleb128 0x23
 7442 0611 D60B0000 		.4byte	.LASF52
 7443 0615 02       		.byte	0x2
 7444 0616 44       		.byte	0x44
 7445 0617 00000000 		.4byte	.LFB71
 7446 061b 90010000 		.4byte	.LFE71-.LFB71
 7447 061f 01       		.uleb128 0x1
 7448 0620 9C       		.byte	0x9c
 7449 0621 5E080000 		.4byte	0x85e
 7450 0625 1E       		.uleb128 0x1e
 7451 0626 38070000 		.4byte	.LASF53
 7452 062a 02       		.byte	0x2
 7453 062b 44       		.byte	0x44
 7454 062c AE000000 		.4byte	0xae
ARM GAS  C:\Users\FRANKL~1\AppData\Local\Temp\ccebBo1q.s 			page 170


 7455 0630 97020000 		.4byte	.LLST17
 7456 0634 11       		.uleb128 0x11
 7457 0635 BF0E0000 		.4byte	.LASF51
 7458 0639 02       		.byte	0x2
 7459 063a 49       		.byte	0x49
 7460 063b 0A060000 		.4byte	0x60a
 7461 063f B8020000 		.4byte	.LLST18
 7462 0643 15       		.uleb128 0x15
 7463 0644 44000000 		.4byte	.LBB12
 7464 0648 76000000 		.4byte	.LBE12-.LBB12
 7465 064c B5060000 		.4byte	0x6b5
 7466 0650 20       		.uleb128 0x20
 7467 0651 6900     		.ascii	"i\000"
 7468 0653 02       		.byte	0x2
 7469 0654 4D       		.byte	0x4d
 7470 0655 C6000000 		.4byte	0xc6
 7471 0659 EC020000 		.4byte	.LLST19
 7472 065d 12       		.uleb128 0x12
 7473 065e 4C000000 		.4byte	.LVL82
 7474 0662 D1370000 		.4byte	0x37d1
 7475 0666 1C       		.uleb128 0x1c
 7476 0667 8A000000 		.4byte	.LVL84
 7477 066b C6370000 		.4byte	0x37c6
 7478 066f 7A060000 		.4byte	0x67a
 7479 0673 1B       		.uleb128 0x1b
 7480 0674 01       		.uleb128 0x1
 7481 0675 50       		.byte	0x50
 7482 0676 02       		.uleb128 0x2
 7483 0677 75       		.byte	0x75
 7484 0678 00       		.sleb128 0
 7485 0679 00       		.byte	0
 7486 067a 1C       		.uleb128 0x1c
 7487 067b 92000000 		.4byte	.LVL85
 7488 067f D1030000 		.4byte	0x3d1
 7489 0683 8E060000 		.4byte	0x68e
 7490 0687 1B       		.uleb128 0x1b
 7491 0688 01       		.uleb128 0x1
 7492 0689 50       		.byte	0x50
 7493 068a 02       		.uleb128 0x2
 7494 068b 75       		.byte	0x75
 7495 068c 00       		.sleb128 0
 7496 068d 00       		.byte	0
 7497 068e 1C       		.uleb128 0x1c
 7498 068f 98000000 		.4byte	.LVL86
 7499 0693 DC370000 		.4byte	0x37dc
 7500 0697 A2060000 		.4byte	0x6a2
 7501 069b 1B       		.uleb128 0x1b
 7502 069c 01       		.uleb128 0x1
 7503 069d 50       		.byte	0x50
 7504 069e 02       		.uleb128 0x2
 7505 069f 75       		.byte	0x75
 7506 06a0 00       		.sleb128 0
 7507 06a1 00       		.byte	0
 7508 06a2 12       		.uleb128 0x12
 7509 06a3 9C000000 		.4byte	.LVL87
 7510 06a7 E7370000 		.4byte	0x37e7
 7511 06ab 12       		.uleb128 0x12
ARM GAS  C:\Users\FRANKL~1\AppData\Local\Temp\ccebBo1q.s 			page 171


 7512 06ac A0000000 		.4byte	.LVL88
 7513 06b0 F2370000 		.4byte	0x37f2
 7514 06b4 00       		.byte	0
 7515 06b5 1C       		.uleb128 0x1c
 7516 06b6 16000000 		.4byte	.LVL74
 7517 06ba FD370000 		.4byte	0x37fd
 7518 06be D8060000 		.4byte	0x6d8
 7519 06c2 1B       		.uleb128 0x1b
 7520 06c3 01       		.uleb128 0x1
 7521 06c4 50       		.byte	0x50
 7522 06c5 02       		.uleb128 0x2
 7523 06c6 75       		.byte	0x75
 7524 06c7 00       		.sleb128 0
 7525 06c8 1B       		.uleb128 0x1b
 7526 06c9 01       		.uleb128 0x1
 7527 06ca 51       		.byte	0x51
 7528 06cb 05       		.uleb128 0x5
 7529 06cc 03       		.byte	0x3
 7530 06cd 2C000000 		.4byte	.LC5
 7531 06d1 1B       		.uleb128 0x1b
 7532 06d2 01       		.uleb128 0x1
 7533 06d3 52       		.byte	0x52
 7534 06d4 02       		.uleb128 0x2
 7535 06d5 78       		.byte	0x78
 7536 06d6 00       		.sleb128 0
 7537 06d7 00       		.byte	0
 7538 06d8 1C       		.uleb128 0x1c
 7539 06d9 1C000000 		.4byte	.LVL75
 7540 06dd C6370000 		.4byte	0x37c6
 7541 06e1 EC060000 		.4byte	0x6ec
 7542 06e5 1B       		.uleb128 0x1b
 7543 06e6 01       		.uleb128 0x1
 7544 06e7 50       		.byte	0x50
 7545 06e8 02       		.uleb128 0x2
 7546 06e9 75       		.byte	0x75
 7547 06ea 00       		.sleb128 0
 7548 06eb 00       		.byte	0
 7549 06ec 1C       		.uleb128 0x1c
 7550 06ed 24000000 		.4byte	.LVL76
 7551 06f1 D1030000 		.4byte	0x3d1
 7552 06f5 00070000 		.4byte	0x700
 7553 06f9 1B       		.uleb128 0x1b
 7554 06fa 01       		.uleb128 0x1
 7555 06fb 50       		.byte	0x50
 7556 06fc 02       		.uleb128 0x2
 7557 06fd 75       		.byte	0x75
 7558 06fe 00       		.sleb128 0
 7559 06ff 00       		.byte	0
 7560 0700 1C       		.uleb128 0x1c
 7561 0701 2A000000 		.4byte	.LVL77
 7562 0705 DC370000 		.4byte	0x37dc
 7563 0709 14070000 		.4byte	0x714
 7564 070d 1B       		.uleb128 0x1b
 7565 070e 01       		.uleb128 0x1
 7566 070f 50       		.byte	0x50
 7567 0710 02       		.uleb128 0x2
 7568 0711 75       		.byte	0x75
ARM GAS  C:\Users\FRANKL~1\AppData\Local\Temp\ccebBo1q.s 			page 172


 7569 0712 00       		.sleb128 0
 7570 0713 00       		.byte	0
 7571 0714 12       		.uleb128 0x12
 7572 0715 2E000000 		.4byte	.LVL78
 7573 0719 08380000 		.4byte	0x3808
 7574 071d 1C       		.uleb128 0x1c
 7575 071e 44000000 		.4byte	.LVL80
 7576 0722 13380000 		.4byte	0x3813
 7577 0726 3C070000 		.4byte	0x73c
 7578 072a 1B       		.uleb128 0x1b
 7579 072b 01       		.uleb128 0x1
 7580 072c 51       		.byte	0x51
 7581 072d 02       		.uleb128 0x2
 7582 072e 74       		.byte	0x74
 7583 072f 00       		.sleb128 0
 7584 0730 1B       		.uleb128 0x1b
 7585 0731 01       		.uleb128 0x1
 7586 0732 52       		.byte	0x52
 7587 0733 02       		.uleb128 0x2
 7588 0734 08       		.byte	0x8
 7589 0735 7F       		.byte	0x7f
 7590 0736 1B       		.uleb128 0x1b
 7591 0737 01       		.uleb128 0x1
 7592 0738 53       		.byte	0x53
 7593 0739 01       		.uleb128 0x1
 7594 073a 30       		.byte	0x30
 7595 073b 00       		.byte	0
 7596 073c 12       		.uleb128 0x12
 7597 073d BE000000 		.4byte	.LVL92
 7598 0741 D1370000 		.4byte	0x37d1
 7599 0745 1C       		.uleb128 0x1c
 7600 0746 E0000000 		.4byte	.LVL94
 7601 074a C6370000 		.4byte	0x37c6
 7602 074e 59070000 		.4byte	0x759
 7603 0752 1B       		.uleb128 0x1b
 7604 0753 01       		.uleb128 0x1
 7605 0754 50       		.byte	0x50
 7606 0755 02       		.uleb128 0x2
 7607 0756 75       		.byte	0x75
 7608 0757 00       		.sleb128 0
 7609 0758 00       		.byte	0
 7610 0759 1C       		.uleb128 0x1c
 7611 075a E8000000 		.4byte	.LVL95
 7612 075e D1030000 		.4byte	0x3d1
 7613 0762 6D070000 		.4byte	0x76d
 7614 0766 1B       		.uleb128 0x1b
 7615 0767 01       		.uleb128 0x1
 7616 0768 50       		.byte	0x50
 7617 0769 02       		.uleb128 0x2
 7618 076a 75       		.byte	0x75
 7619 076b 00       		.sleb128 0
 7620 076c 00       		.byte	0
 7621 076d 1C       		.uleb128 0x1c
 7622 076e EE000000 		.4byte	.LVL96
 7623 0772 DC370000 		.4byte	0x37dc
 7624 0776 81070000 		.4byte	0x781
 7625 077a 1B       		.uleb128 0x1b
ARM GAS  C:\Users\FRANKL~1\AppData\Local\Temp\ccebBo1q.s 			page 173


 7626 077b 01       		.uleb128 0x1
 7627 077c 50       		.byte	0x50
 7628 077d 02       		.uleb128 0x2
 7629 077e 75       		.byte	0x75
 7630 077f 00       		.sleb128 0
 7631 0780 00       		.byte	0
 7632 0781 12       		.uleb128 0x12
 7633 0782 F2000000 		.4byte	.LVL97
 7634 0786 D1370000 		.4byte	0x37d1
 7635 078a 1C       		.uleb128 0x1c
 7636 078b 0A010000 		.4byte	.LVL98
 7637 078f C6370000 		.4byte	0x37c6
 7638 0793 9E070000 		.4byte	0x79e
 7639 0797 1B       		.uleb128 0x1b
 7640 0798 01       		.uleb128 0x1
 7641 0799 50       		.byte	0x50
 7642 079a 02       		.uleb128 0x2
 7643 079b 75       		.byte	0x75
 7644 079c 00       		.sleb128 0
 7645 079d 00       		.byte	0
 7646 079e 1C       		.uleb128 0x1c
 7647 079f 12010000 		.4byte	.LVL99
 7648 07a3 D1030000 		.4byte	0x3d1
 7649 07a7 B2070000 		.4byte	0x7b2
 7650 07ab 1B       		.uleb128 0x1b
 7651 07ac 01       		.uleb128 0x1
 7652 07ad 50       		.byte	0x50
 7653 07ae 02       		.uleb128 0x2
 7654 07af 75       		.byte	0x75
 7655 07b0 00       		.sleb128 0
 7656 07b1 00       		.byte	0
 7657 07b2 1C       		.uleb128 0x1c
 7658 07b3 18010000 		.4byte	.LVL100
 7659 07b7 DC370000 		.4byte	0x37dc
 7660 07bb C6070000 		.4byte	0x7c6
 7661 07bf 1B       		.uleb128 0x1b
 7662 07c0 01       		.uleb128 0x1
 7663 07c1 50       		.byte	0x50
 7664 07c2 02       		.uleb128 0x2
 7665 07c3 75       		.byte	0x75
 7666 07c4 00       		.sleb128 0
 7667 07c5 00       		.byte	0
 7668 07c6 1C       		.uleb128 0x1c
 7669 07c7 2A010000 		.4byte	.LVL101
 7670 07cb C6370000 		.4byte	0x37c6
 7671 07cf DA070000 		.4byte	0x7da
 7672 07d3 1B       		.uleb128 0x1b
 7673 07d4 01       		.uleb128 0x1
 7674 07d5 50       		.byte	0x50
 7675 07d6 02       		.uleb128 0x2
 7676 07d7 74       		.byte	0x74
 7677 07d8 00       		.sleb128 0
 7678 07d9 00       		.byte	0
 7679 07da 1C       		.uleb128 0x1c
 7680 07db 32010000 		.4byte	.LVL102
 7681 07df D1030000 		.4byte	0x3d1
 7682 07e3 EE070000 		.4byte	0x7ee
ARM GAS  C:\Users\FRANKL~1\AppData\Local\Temp\ccebBo1q.s 			page 174


 7683 07e7 1B       		.uleb128 0x1b
 7684 07e8 01       		.uleb128 0x1
 7685 07e9 50       		.byte	0x50
 7686 07ea 02       		.uleb128 0x2
 7687 07eb 74       		.byte	0x74
 7688 07ec 00       		.sleb128 0
 7689 07ed 00       		.byte	0
 7690 07ee 1C       		.uleb128 0x1c
 7691 07ef 38010000 		.4byte	.LVL103
 7692 07f3 DC370000 		.4byte	0x37dc
 7693 07f7 02080000 		.4byte	0x802
 7694 07fb 1B       		.uleb128 0x1b
 7695 07fc 01       		.uleb128 0x1
 7696 07fd 50       		.byte	0x50
 7697 07fe 02       		.uleb128 0x2
 7698 07ff 74       		.byte	0x74
 7699 0800 00       		.sleb128 0
 7700 0801 00       		.byte	0
 7701 0802 1C       		.uleb128 0x1c
 7702 0803 44010000 		.4byte	.LVL104
 7703 0807 FD370000 		.4byte	0x37fd
 7704 080b 25080000 		.4byte	0x825
 7705 080f 1B       		.uleb128 0x1b
 7706 0810 01       		.uleb128 0x1
 7707 0811 50       		.byte	0x50
 7708 0812 02       		.uleb128 0x2
 7709 0813 74       		.byte	0x74
 7710 0814 00       		.sleb128 0
 7711 0815 1B       		.uleb128 0x1b
 7712 0816 01       		.uleb128 0x1
 7713 0817 51       		.byte	0x51
 7714 0818 05       		.uleb128 0x5
 7715 0819 03       		.byte	0x3
 7716 081a 90000000 		.4byte	.LC10
 7717 081e 1B       		.uleb128 0x1b
 7718 081f 01       		.uleb128 0x1
 7719 0820 52       		.byte	0x52
 7720 0821 02       		.uleb128 0x2
 7721 0822 78       		.byte	0x78
 7722 0823 00       		.sleb128 0
 7723 0824 00       		.byte	0
 7724 0825 1C       		.uleb128 0x1c
 7725 0826 4A010000 		.4byte	.LVL105
 7726 082a C6370000 		.4byte	0x37c6
 7727 082e 39080000 		.4byte	0x839
 7728 0832 1B       		.uleb128 0x1b
 7729 0833 01       		.uleb128 0x1
 7730 0834 50       		.byte	0x50
 7731 0835 02       		.uleb128 0x2
 7732 0836 74       		.byte	0x74
 7733 0837 00       		.sleb128 0
 7734 0838 00       		.byte	0
 7735 0839 1C       		.uleb128 0x1c
 7736 083a 52010000 		.4byte	.LVL106
 7737 083e D1030000 		.4byte	0x3d1
 7738 0842 4D080000 		.4byte	0x84d
 7739 0846 1B       		.uleb128 0x1b
ARM GAS  C:\Users\FRANKL~1\AppData\Local\Temp\ccebBo1q.s 			page 175


 7740 0847 01       		.uleb128 0x1
 7741 0848 50       		.byte	0x50
 7742 0849 02       		.uleb128 0x2
 7743 084a 74       		.byte	0x74
 7744 084b 00       		.sleb128 0
 7745 084c 00       		.byte	0
 7746 084d 1A       		.uleb128 0x1a
 7747 084e 58010000 		.4byte	.LVL107
 7748 0852 DC370000 		.4byte	0x37dc
 7749 0856 1B       		.uleb128 0x1b
 7750 0857 01       		.uleb128 0x1
 7751 0858 50       		.byte	0x50
 7752 0859 02       		.uleb128 0x2
 7753 085a 74       		.byte	0x74
 7754 085b 00       		.sleb128 0
 7755 085c 00       		.byte	0
 7756 085d 00       		.byte	0
 7757 085e 10       		.uleb128 0x10
 7758 085f 2F030000 		.4byte	.LASF55
 7759 0863 02       		.byte	0x2
 7760 0864 78       		.byte	0x78
 7761 0865 00000000 		.4byte	.LFB72
 7762 0869 3C000000 		.4byte	.LFE72-.LFB72
 7763 086d 01       		.uleb128 0x1
 7764 086e 9C       		.byte	0x9c
 7765 086f A6080000 		.4byte	0x8a6
 7766 0873 19       		.uleb128 0x19
 7767 0874 02000000 		.4byte	.LBB13
 7768 0878 18000000 		.4byte	.LBE13-.LBB13
 7769 087c 20       		.uleb128 0x20
 7770 087d 6900     		.ascii	"i\000"
 7771 087f 02       		.byte	0x2
 7772 0880 79       		.byte	0x79
 7773 0881 AE000000 		.4byte	0xae
 7774 0885 0B030000 		.4byte	.LLST20
 7775 0889 1A       		.uleb128 0x1a
 7776 088a 12000000 		.4byte	.LVL111
 7777 088e B5050000 		.4byte	0x5b5
 7778 0892 1B       		.uleb128 0x1b
 7779 0893 01       		.uleb128 0x1
 7780 0894 50       		.byte	0x50
 7781 0895 0D       		.uleb128 0xd
 7782 0896 74       		.byte	0x74
 7783 0897 00       		.sleb128 0
 7784 0898 38       		.byte	0x38
 7785 0899 24       		.byte	0x24
 7786 089a 74       		.byte	0x74
 7787 089b 00       		.sleb128 0
 7788 089c 1C       		.byte	0x1c
 7789 089d 03       		.byte	0x3
 7790 089e 00000000 		.4byte	selectors
 7791 08a2 22       		.byte	0x22
 7792 08a3 00       		.byte	0
 7793 08a4 00       		.byte	0
 7794 08a5 00       		.byte	0
 7795 08a6 21       		.uleb128 0x21
 7796 08a7 500E0000 		.4byte	.LASF56
ARM GAS  C:\Users\FRANKL~1\AppData\Local\Temp\ccebBo1q.s 			page 176


 7797 08ab 02       		.byte	0x2
 7798 08ac 81       		.byte	0x81
 7799 08ad 00000000 		.4byte	.LFB73
 7800 08b1 2C000000 		.4byte	.LFE73-.LFB73
 7801 08b5 01       		.uleb128 0x1
 7802 08b6 9C       		.byte	0x9c
 7803 08b7 E3080000 		.4byte	0x8e3
 7804 08bb 1E       		.uleb128 0x1e
 7805 08bc B0050000 		.4byte	.LASF57
 7806 08c0 02       		.byte	0x2
 7807 08c1 81       		.byte	0x81
 7808 08c2 AE000000 		.4byte	0xae
 7809 08c6 35030000 		.4byte	.LLST21
 7810 08ca 1E       		.uleb128 0x1e
 7811 08cb 00000000 		.4byte	.LASF58
 7812 08cf 02       		.byte	0x2
 7813 08d0 81       		.byte	0x81
 7814 08d1 AE000000 		.4byte	0xae
 7815 08d5 61030000 		.4byte	.LLST22
 7816 08d9 12       		.uleb128 0x12
 7817 08da 24000000 		.4byte	.LVL120
 7818 08de 10060000 		.4byte	0x610
 7819 08e2 00       		.byte	0
 7820 08e3 21       		.uleb128 0x21
 7821 08e4 F90C0000 		.4byte	.LASF59
 7822 08e8 02       		.byte	0x2
 7823 08e9 8C       		.byte	0x8c
 7824 08ea 00000000 		.4byte	.LFB74
 7825 08ee 32000000 		.4byte	.LFE74-.LFB74
 7826 08f2 01       		.uleb128 0x1
 7827 08f3 9C       		.byte	0x9c
 7828 08f4 2F090000 		.4byte	0x92f
 7829 08f8 1E       		.uleb128 0x1e
 7830 08f9 EE0A0000 		.4byte	.LASF60
 7831 08fd 02       		.byte	0x2
 7832 08fe 8C       		.byte	0x8c
 7833 08ff AE000000 		.4byte	0xae
 7834 0903 91030000 		.4byte	.LLST23
 7835 0907 1E       		.uleb128 0x1e
 7836 0908 00000000 		.4byte	.LASF58
 7837 090c 02       		.byte	0x2
 7838 090d 8C       		.byte	0x8c
 7839 090e AE000000 		.4byte	0xae
 7840 0912 C8030000 		.4byte	.LLST24
 7841 0916 11       		.uleb128 0x11
 7842 0917 F5080000 		.4byte	.LASF61
 7843 091b 02       		.byte	0x2
 7844 091c 93       		.byte	0x93
 7845 091d AE000000 		.4byte	0xae
 7846 0921 05040000 		.4byte	.LLST25
 7847 0925 12       		.uleb128 0x12
 7848 0926 2E000000 		.4byte	.LVL129
 7849 092a A6080000 		.4byte	0x8a6
 7850 092e 00       		.byte	0
 7851 092f 21       		.uleb128 0x21
 7852 0930 620A0000 		.4byte	.LASF62
 7853 0934 02       		.byte	0x2
ARM GAS  C:\Users\FRANKL~1\AppData\Local\Temp\ccebBo1q.s 			page 177


 7854 0935 9E       		.byte	0x9e
 7855 0936 00000000 		.4byte	.LFB75
 7856 093a 40000000 		.4byte	.LFE75-.LFB75
 7857 093e 01       		.uleb128 0x1
 7858 093f 9C       		.byte	0x9c
 7859 0940 7B090000 		.4byte	0x97b
 7860 0944 1E       		.uleb128 0x1e
 7861 0945 EE0A0000 		.4byte	.LASF60
 7862 0949 02       		.byte	0x2
 7863 094a 9E       		.byte	0x9e
 7864 094b AE000000 		.4byte	0xae
 7865 094f 3D040000 		.4byte	.LLST26
 7866 0953 1E       		.uleb128 0x1e
 7867 0954 00000000 		.4byte	.LASF58
 7868 0958 02       		.byte	0x2
 7869 0959 9E       		.byte	0x9e
 7870 095a AE000000 		.4byte	0xae
 7871 095e 69040000 		.4byte	.LLST27
 7872 0962 11       		.uleb128 0x11
 7873 0963 F5080000 		.4byte	.LASF61
 7874 0967 02       		.byte	0x2
 7875 0968 A5       		.byte	0xa5
 7876 0969 AE000000 		.4byte	0xae
 7877 096d 99040000 		.4byte	.LLST28
 7878 0971 12       		.uleb128 0x12
 7879 0972 38000000 		.4byte	.LVL141
 7880 0976 10060000 		.4byte	0x610
 7881 097a 00       		.byte	0
 7882 097b 21       		.uleb128 0x21
 7883 097c 02080000 		.4byte	.LASF63
 7884 0980 02       		.byte	0x2
 7885 0981 B2       		.byte	0xb2
 7886 0982 00000000 		.4byte	.LFB76
 7887 0986 40000000 		.4byte	.LFE76-.LFB76
 7888 098a 01       		.uleb128 0x1
 7889 098b 9C       		.byte	0x9c
 7890 098c E2090000 		.4byte	0x9e2
 7891 0990 1E       		.uleb128 0x1e
 7892 0991 EE0A0000 		.4byte	.LASF60
 7893 0995 02       		.byte	0x2
 7894 0996 B2       		.byte	0xb2
 7895 0997 AE000000 		.4byte	0xae
 7896 099b D1040000 		.4byte	.LLST29
 7897 099f 19       		.uleb128 0x19
 7898 09a0 06000000 		.4byte	.LBB14
 7899 09a4 34000000 		.4byte	.LBE14-.LBB14
 7900 09a8 11       		.uleb128 0x11
 7901 09a9 00000000 		.4byte	.LASF58
 7902 09ad 02       		.byte	0x2
 7903 09ae B5       		.byte	0xb5
 7904 09af AE000000 		.4byte	0xae
 7905 09b3 FD040000 		.4byte	.LLST30
 7906 09b7 19       		.uleb128 0x19
 7907 09b8 0A000000 		.4byte	.LBB15
 7908 09bc 28000000 		.4byte	.LBE15-.LBB15
 7909 09c0 11       		.uleb128 0x11
 7910 09c1 F5080000 		.4byte	.LASF61
ARM GAS  C:\Users\FRANKL~1\AppData\Local\Temp\ccebBo1q.s 			page 178


 7911 09c5 02       		.byte	0x2
 7912 09c6 B7       		.byte	0xb7
 7913 09c7 AE000000 		.4byte	0xae
 7914 09cb 27050000 		.4byte	.LLST31
 7915 09cf 1A       		.uleb128 0x1a
 7916 09d0 32000000 		.4byte	.LVL150
 7917 09d4 10060000 		.4byte	0x610
 7918 09d8 1B       		.uleb128 0x1b
 7919 09d9 01       		.uleb128 0x1
 7920 09da 50       		.byte	0x50
 7921 09db 02       		.uleb128 0x2
 7922 09dc 74       		.byte	0x74
 7923 09dd 00       		.sleb128 0
 7924 09de 00       		.byte	0
 7925 09df 00       		.byte	0
 7926 09e0 00       		.byte	0
 7927 09e1 00       		.byte	0
 7928 09e2 10       		.uleb128 0x10
 7929 09e3 A1010000 		.4byte	.LASF64
 7930 09e7 02       		.byte	0x2
 7931 09e8 C5       		.byte	0xc5
 7932 09e9 00000000 		.4byte	.LFB77
 7933 09ed 34000000 		.4byte	.LFE77-.LFB77
 7934 09f1 01       		.uleb128 0x1
 7935 09f2 9C       		.byte	0x9c
 7936 09f3 3A0A0000 		.4byte	0xa3a
 7937 09f7 19       		.uleb128 0x19
 7938 09f8 02000000 		.4byte	.LBB16
 7939 09fc 2C000000 		.4byte	.LBE16-.LBB16
 7940 0a00 11       		.uleb128 0x11
 7941 0a01 00000000 		.4byte	.LASF58
 7942 0a05 02       		.byte	0x2
 7943 0a06 C6       		.byte	0xc6
 7944 0a07 AE000000 		.4byte	0xae
 7945 0a0b 5F050000 		.4byte	.LLST32
 7946 0a0f 1F       		.uleb128 0x1f
 7947 0a10 18000000 		.4byte	.Ldebug_ranges0+0x18
 7948 0a14 280A0000 		.4byte	0xa28
 7949 0a18 11       		.uleb128 0x11
 7950 0a19 EE0A0000 		.4byte	.LASF60
 7951 0a1d 02       		.byte	0x2
 7952 0a1e C7       		.byte	0xc7
 7953 0a1f AE000000 		.4byte	0xae
 7954 0a23 89050000 		.4byte	.LLST33
 7955 0a27 00       		.byte	0
 7956 0a28 1A       		.uleb128 0x1a
 7957 0a29 26000000 		.4byte	.LVL160
 7958 0a2d 10060000 		.4byte	0x610
 7959 0a31 1B       		.uleb128 0x1b
 7960 0a32 01       		.uleb128 0x1
 7961 0a33 50       		.byte	0x50
 7962 0a34 02       		.uleb128 0x2
 7963 0a35 74       		.byte	0x74
 7964 0a36 00       		.sleb128 0
 7965 0a37 00       		.byte	0
 7966 0a38 00       		.byte	0
 7967 0a39 00       		.byte	0
ARM GAS  C:\Users\FRANKL~1\AppData\Local\Temp\ccebBo1q.s 			page 179


 7968 0a3a 21       		.uleb128 0x21
 7969 0a3b 18090000 		.4byte	.LASF65
 7970 0a3f 02       		.byte	0x2
 7971 0a40 CF       		.byte	0xcf
 7972 0a41 00000000 		.4byte	.LFB78
 7973 0a45 2C000000 		.4byte	.LFE78-.LFB78
 7974 0a49 01       		.uleb128 0x1
 7975 0a4a 9C       		.byte	0x9c
 7976 0a4b 850A0000 		.4byte	0xa85
 7977 0a4f 1E       		.uleb128 0x1e
 7978 0a50 00000000 		.4byte	.LASF58
 7979 0a54 02       		.byte	0x2
 7980 0a55 CF       		.byte	0xcf
 7981 0a56 AE000000 		.4byte	0xae
 7982 0a5a B2050000 		.4byte	.LLST34
 7983 0a5e 15       		.uleb128 0x15
 7984 0a5f 06000000 		.4byte	.LBB19
 7985 0a63 1A000000 		.4byte	.LBE19-.LBB19
 7986 0a67 7B0A0000 		.4byte	0xa7b
 7987 0a6b 11       		.uleb128 0x11
 7988 0a6c EE0A0000 		.4byte	.LASF60
 7989 0a70 02       		.byte	0x2
 7990 0a71 D2       		.byte	0xd2
 7991 0a72 AE000000 		.4byte	0xae
 7992 0a76 DE050000 		.4byte	.LLST35
 7993 0a7a 00       		.byte	0
 7994 0a7b 12       		.uleb128 0x12
 7995 0a7c 24000000 		.4byte	.LVL170
 7996 0a80 10060000 		.4byte	0x610
 7997 0a84 00       		.byte	0
 7998 0a85 21       		.uleb128 0x21
 7999 0a86 A3000000 		.4byte	.LASF66
 8000 0a8a 02       		.byte	0x2
 8001 0a8b D9       		.byte	0xd9
 8002 0a8c 00000000 		.4byte	.LFB79
 8003 0a90 38000000 		.4byte	.LFE79-.LFB79
 8004 0a94 01       		.uleb128 0x1
 8005 0a95 9C       		.byte	0x9c
 8006 0a96 0A0B0000 		.4byte	0xb0a
 8007 0a9a 1E       		.uleb128 0x1e
 8008 0a9b 00000000 		.4byte	.LASF58
 8009 0a9f 02       		.byte	0x2
 8010 0aa0 D9       		.byte	0xd9
 8011 0aa1 AE000000 		.4byte	0xae
 8012 0aa5 08060000 		.4byte	.LLST36
 8013 0aa9 1C       		.uleb128 0x1c
 8014 0aaa 18000000 		.4byte	.LVL173
 8015 0aae A6080000 		.4byte	0x8a6
 8016 0ab2 C20A0000 		.4byte	0xac2
 8017 0ab6 1B       		.uleb128 0x1b
 8018 0ab7 01       		.uleb128 0x1
 8019 0ab8 50       		.byte	0x50
 8020 0ab9 02       		.uleb128 0x2
 8021 0aba 08       		.byte	0x8
 8022 0abb 21       		.byte	0x21
 8023 0abc 1B       		.uleb128 0x1b
 8024 0abd 01       		.uleb128 0x1
ARM GAS  C:\Users\FRANKL~1\AppData\Local\Temp\ccebBo1q.s 			page 180


 8025 0abe 51       		.byte	0x51
 8026 0abf 01       		.uleb128 0x1
 8027 0ac0 31       		.byte	0x31
 8028 0ac1 00       		.byte	0
 8029 0ac2 1C       		.uleb128 0x1c
 8030 0ac3 22000000 		.4byte	.LVL174
 8031 0ac7 A6080000 		.4byte	0x8a6
 8032 0acb DB0A0000 		.4byte	0xadb
 8033 0acf 1B       		.uleb128 0x1b
 8034 0ad0 01       		.uleb128 0x1
 8035 0ad1 50       		.byte	0x50
 8036 0ad2 02       		.uleb128 0x2
 8037 0ad3 08       		.byte	0x8
 8038 0ad4 21       		.byte	0x21
 8039 0ad5 1B       		.uleb128 0x1b
 8040 0ad6 01       		.uleb128 0x1
 8041 0ad7 51       		.byte	0x51
 8042 0ad8 01       		.uleb128 0x1
 8043 0ad9 32       		.byte	0x32
 8044 0ada 00       		.byte	0
 8045 0adb 1C       		.uleb128 0x1c
 8046 0adc 2C000000 		.4byte	.LVL175
 8047 0ae0 A6080000 		.4byte	0x8a6
 8048 0ae4 F40A0000 		.4byte	0xaf4
 8049 0ae8 1B       		.uleb128 0x1b
 8050 0ae9 01       		.uleb128 0x1
 8051 0aea 50       		.byte	0x50
 8052 0aeb 02       		.uleb128 0x2
 8053 0aec 08       		.byte	0x8
 8054 0aed 21       		.byte	0x21
 8055 0aee 1B       		.uleb128 0x1b
 8056 0aef 01       		.uleb128 0x1
 8057 0af0 51       		.byte	0x51
 8058 0af1 01       		.uleb128 0x1
 8059 0af2 33       		.byte	0x33
 8060 0af3 00       		.byte	0
 8061 0af4 1A       		.uleb128 0x1a
 8062 0af5 36000000 		.4byte	.LVL176
 8063 0af9 A6080000 		.4byte	0x8a6
 8064 0afd 1B       		.uleb128 0x1b
 8065 0afe 01       		.uleb128 0x1
 8066 0aff 50       		.byte	0x50
 8067 0b00 02       		.uleb128 0x2
 8068 0b01 08       		.byte	0x8
 8069 0b02 21       		.byte	0x21
 8070 0b03 1B       		.uleb128 0x1b
 8071 0b04 01       		.uleb128 0x1
 8072 0b05 51       		.byte	0x51
 8073 0b06 01       		.uleb128 0x1
 8074 0b07 34       		.byte	0x34
 8075 0b08 00       		.byte	0
 8076 0b09 00       		.byte	0
 8077 0b0a 10       		.uleb128 0x10
 8078 0b0b 72060000 		.4byte	.LASF67
 8079 0b0f 02       		.byte	0x2
 8080 0b10 E3       		.byte	0xe3
 8081 0b11 00000000 		.4byte	.LFB80
ARM GAS  C:\Users\FRANKL~1\AppData\Local\Temp\ccebBo1q.s 			page 181


 8082 0b15 16000000 		.4byte	.LFE80-.LFB80
 8083 0b19 01       		.uleb128 0x1
 8084 0b1a 9C       		.byte	0x9c
 8085 0b1b 470B0000 		.4byte	0xb47
 8086 0b1f 19       		.uleb128 0x19
 8087 0b20 02000000 		.4byte	.LBB20
 8088 0b24 12000000 		.4byte	.LBE20-.LBB20
 8089 0b28 20       		.uleb128 0x20
 8090 0b29 6900     		.ascii	"i\000"
 8091 0b2b 02       		.byte	0x2
 8092 0b2c E4       		.byte	0xe4
 8093 0b2d AE000000 		.4byte	0xae
 8094 0b31 29060000 		.4byte	.LLST37
 8095 0b35 1A       		.uleb128 0x1a
 8096 0b36 0C000000 		.4byte	.LVL179
 8097 0b3a 850A0000 		.4byte	0xa85
 8098 0b3e 1B       		.uleb128 0x1b
 8099 0b3f 01       		.uleb128 0x1
 8100 0b40 50       		.byte	0x50
 8101 0b41 02       		.uleb128 0x2
 8102 0b42 74       		.byte	0x74
 8103 0b43 00       		.sleb128 0
 8104 0b44 00       		.byte	0
 8105 0b45 00       		.byte	0
 8106 0b46 00       		.byte	0
 8107 0b47 21       		.uleb128 0x21
 8108 0b48 1F000000 		.4byte	.LASF68
 8109 0b4c 02       		.byte	0x2
 8110 0b4d E9       		.byte	0xe9
 8111 0b4e 00000000 		.4byte	.LFB81
 8112 0b52 18000000 		.4byte	.LFE81-.LFB81
 8113 0b56 01       		.uleb128 0x1
 8114 0b57 9C       		.byte	0x9c
 8115 0b58 750B0000 		.4byte	0xb75
 8116 0b5c 1E       		.uleb128 0x1e
 8117 0b5d 600B0000 		.4byte	.LASF69
 8118 0b61 02       		.byte	0x2
 8119 0b62 E9       		.byte	0xe9
 8120 0b63 AE000000 		.4byte	0xae
 8121 0b67 53060000 		.4byte	.LLST38
 8122 0b6b 12       		.uleb128 0x12
 8123 0b6c 0E000000 		.4byte	.LVL184
 8124 0b70 1E380000 		.4byte	0x381e
 8125 0b74 00       		.byte	0
 8126 0b75 10       		.uleb128 0x10
 8127 0b76 C30B0000 		.4byte	.LASF70
 8128 0b7a 02       		.byte	0x2
 8129 0b7b EE       		.byte	0xee
 8130 0b7c 00000000 		.4byte	.LFB82
 8131 0b80 18000000 		.4byte	.LFE82-.LFB82
 8132 0b84 01       		.uleb128 0x1
 8133 0b85 9C       		.byte	0x9c
 8134 0b86 9A0B0000 		.4byte	0xb9a
 8135 0b8a 1A       		.uleb128 0x1a
 8136 0b8b 10000000 		.4byte	.LVL185
 8137 0b8f 470B0000 		.4byte	0xb47
 8138 0b93 1B       		.uleb128 0x1b
ARM GAS  C:\Users\FRANKL~1\AppData\Local\Temp\ccebBo1q.s 			page 182


 8139 0b94 01       		.uleb128 0x1
 8140 0b95 50       		.byte	0x50
 8141 0b96 01       		.uleb128 0x1
 8142 0b97 30       		.byte	0x30
 8143 0b98 00       		.byte	0
 8144 0b99 00       		.byte	0
 8145 0b9a 10       		.uleb128 0x10
 8146 0b9b 46060000 		.4byte	.LASF71
 8147 0b9f 02       		.byte	0x2
 8148 0ba0 FC       		.byte	0xfc
 8149 0ba1 00000000 		.4byte	.LFB83
 8150 0ba5 14000000 		.4byte	.LFE83-.LFB83
 8151 0ba9 01       		.uleb128 0x1
 8152 0baa 9C       		.byte	0x9c
 8153 0bab BF0B0000 		.4byte	0xbbf
 8154 0baf 1A       		.uleb128 0x1a
 8155 0bb0 0E000000 		.4byte	.LVL186
 8156 0bb4 470B0000 		.4byte	0xb47
 8157 0bb8 1B       		.uleb128 0x1b
 8158 0bb9 01       		.uleb128 0x1
 8159 0bba 50       		.byte	0x50
 8160 0bbb 01       		.uleb128 0x1
 8161 0bbc 37       		.byte	0x37
 8162 0bbd 00       		.byte	0
 8163 0bbe 00       		.byte	0
 8164 0bbf 14       		.uleb128 0x14
 8165 0bc0 B20A0000 		.4byte	.LASF72
 8166 0bc4 02       		.byte	0x2
 8167 0bc5 0A01     		.2byte	0x10a
 8168 0bc7 00000000 		.4byte	.LFB84
 8169 0bcb 32000000 		.4byte	.LFE84-.LFB84
 8170 0bcf 01       		.uleb128 0x1
 8171 0bd0 9C       		.byte	0x9c
 8172 0bd1 320C0000 		.4byte	0xc32
 8173 0bd5 24       		.uleb128 0x24
 8174 0bd6 90040000 		.4byte	.LASF73
 8175 0bda 02       		.byte	0x2
 8176 0bdb 0A01     		.2byte	0x10a
 8177 0bdd 320C0000 		.4byte	0xc32
 8178 0be1 01       		.uleb128 0x1
 8179 0be2 50       		.byte	0x50
 8180 0be3 24       		.uleb128 0x24
 8181 0be4 5D0A0000 		.4byte	.LASF74
 8182 0be8 02       		.byte	0x2
 8183 0be9 0A01     		.2byte	0x10a
 8184 0beb C6000000 		.4byte	0xc6
 8185 0bef 01       		.uleb128 0x1
 8186 0bf0 51       		.byte	0x51
 8187 0bf1 17       		.uleb128 0x17
 8188 0bf2 D40E0000 		.4byte	.LASF75
 8189 0bf6 02       		.byte	0x2
 8190 0bf7 0B01     		.2byte	0x10b
 8191 0bf9 EA000000 		.4byte	0xea
 8192 0bfd 83060000 		.4byte	.LLST39
 8193 0c01 19       		.uleb128 0x19
 8194 0c02 02000000 		.4byte	.LBB21
 8195 0c06 2C000000 		.4byte	.LBE21-.LBB21
ARM GAS  C:\Users\FRANKL~1\AppData\Local\Temp\ccebBo1q.s 			page 183


 8196 0c0a 18       		.uleb128 0x18
 8197 0c0b 6900     		.ascii	"i\000"
 8198 0c0d 02       		.byte	0x2
 8199 0c0e 0D01     		.2byte	0x10d
 8200 0c10 C6000000 		.4byte	0xc6
 8201 0c14 96060000 		.4byte	.LLST40
 8202 0c18 19       		.uleb128 0x19
 8203 0c19 06000000 		.4byte	.LBB22
 8204 0c1d 20000000 		.4byte	.LBE22-.LBB22
 8205 0c21 18       		.uleb128 0x18
 8206 0c22 6A00     		.ascii	"j\000"
 8207 0c24 02       		.byte	0x2
 8208 0c25 0E01     		.2byte	0x10e
 8209 0c27 C6000000 		.4byte	0xc6
 8210 0c2b B5060000 		.4byte	.LLST41
 8211 0c2f 00       		.byte	0
 8212 0c30 00       		.byte	0
 8213 0c31 00       		.byte	0
 8214 0c32 05       		.uleb128 0x5
 8215 0c33 04       		.byte	0x4
 8216 0c34 EA000000 		.4byte	0xea
 8217 0c38 25       		.uleb128 0x25
 8218 0c39 9E090000 		.4byte	.LASF76
 8219 0c3d 02       		.byte	0x2
 8220 0c3e 1901     		.2byte	0x119
 8221 0c40 EA000000 		.4byte	0xea
 8222 0c44 00000000 		.4byte	.LFB85
 8223 0c48 32000000 		.4byte	.LFE85-.LFB85
 8224 0c4c 01       		.uleb128 0x1
 8225 0c4d 9C       		.byte	0x9c
 8226 0c4e 890C0000 		.4byte	0xc89
 8227 0c52 26       		.uleb128 0x26
 8228 0c53 90040000 		.4byte	.LASF73
 8229 0c57 02       		.byte	0x2
 8230 0c58 1901     		.2byte	0x119
 8231 0c5a 320C0000 		.4byte	0xc32
 8232 0c5e D3060000 		.4byte	.LLST42
 8233 0c62 26       		.uleb128 0x26
 8234 0c63 5D0A0000 		.4byte	.LASF74
 8235 0c67 02       		.byte	0x2
 8236 0c68 1901     		.2byte	0x119
 8237 0c6a C6000000 		.4byte	0xc6
 8238 0c6e F1060000 		.4byte	.LLST43
 8239 0c72 1A       		.uleb128 0x1a
 8240 0c73 0A000000 		.4byte	.LVL198
 8241 0c77 BF0B0000 		.4byte	0xbbf
 8242 0c7b 1B       		.uleb128 0x1b
 8243 0c7c 01       		.uleb128 0x1
 8244 0c7d 50       		.byte	0x50
 8245 0c7e 02       		.uleb128 0x2
 8246 0c7f 75       		.byte	0x75
 8247 0c80 00       		.sleb128 0
 8248 0c81 1B       		.uleb128 0x1b
 8249 0c82 01       		.uleb128 0x1
 8250 0c83 51       		.byte	0x51
 8251 0c84 02       		.uleb128 0x2
 8252 0c85 74       		.byte	0x74
ARM GAS  C:\Users\FRANKL~1\AppData\Local\Temp\ccebBo1q.s 			page 184


 8253 0c86 00       		.sleb128 0
 8254 0c87 00       		.byte	0
 8255 0c88 00       		.byte	0
 8256 0c89 27       		.uleb128 0x27
 8257 0c8a D7010000 		.4byte	.LASF77
 8258 0c8e 02       		.byte	0x2
 8259 0c8f 2601     		.2byte	0x126
 8260 0c91 00000000 		.4byte	.LFB86
 8261 0c95 F4000000 		.4byte	.LFE86-.LFB86
 8262 0c99 01       		.uleb128 0x1
 8263 0c9a 9C       		.byte	0x9c
 8264 0c9b A30D0000 		.4byte	0xda3
 8265 0c9f 26       		.uleb128 0x26
 8266 0ca0 E2000000 		.4byte	.LASF78
 8267 0ca4 02       		.byte	0x2
 8268 0ca5 2601     		.2byte	0x126
 8269 0ca7 320C0000 		.4byte	0xc32
 8270 0cab 36070000 		.4byte	.LLST44
 8271 0caf 26       		.uleb128 0x26
 8272 0cb0 C0080000 		.4byte	.LASF79
 8273 0cb4 02       		.byte	0x2
 8274 0cb5 2601     		.2byte	0x126
 8275 0cb7 320C0000 		.4byte	0xc32
 8276 0cbb 62070000 		.4byte	.LLST45
 8277 0cbf 26       		.uleb128 0x26
 8278 0cc0 55070000 		.4byte	.LASF80
 8279 0cc4 02       		.byte	0x2
 8280 0cc5 2601     		.2byte	0x126
 8281 0cc7 C6000000 		.4byte	0xc6
 8282 0ccb 8D070000 		.4byte	.LLST46
 8283 0ccf 17       		.uleb128 0x17
 8284 0cd0 A00B0000 		.4byte	.LASF81
 8285 0cd4 02       		.byte	0x2
 8286 0cd5 2701     		.2byte	0x127
 8287 0cd7 EA000000 		.4byte	0xea
 8288 0cdb AE070000 		.4byte	.LLST47
 8289 0cdf 17       		.uleb128 0x17
 8290 0ce0 12050000 		.4byte	.LASF82
 8291 0ce4 02       		.byte	0x2
 8292 0ce5 2801     		.2byte	0x128
 8293 0ce7 EA000000 		.4byte	0xea
 8294 0ceb E3070000 		.4byte	.LLST48
 8295 0cef 17       		.uleb128 0x17
 8296 0cf0 41080000 		.4byte	.LASF83
 8297 0cf4 02       		.byte	0x2
 8298 0cf5 2A01     		.2byte	0x12a
 8299 0cf7 C6000000 		.4byte	0xc6
 8300 0cfb 27080000 		.4byte	.LLST49
 8301 0cff 16       		.uleb128 0x16
 8302 0d00 6B020000 		.4byte	.LASF84
 8303 0d04 02       		.byte	0x2
 8304 0d05 2D01     		.2byte	0x12d
 8305 0d07 C6000000 		.4byte	0xc6
 8306 0d0b 01       		.uleb128 0x1
 8307 0d0c 5A       		.byte	0x5a
 8308 0d0d 16       		.uleb128 0x16
 8309 0d0e D90E0000 		.4byte	.LASF85
ARM GAS  C:\Users\FRANKL~1\AppData\Local\Temp\ccebBo1q.s 			page 185


 8310 0d12 02       		.byte	0x2
 8311 0d13 2E01     		.2byte	0x12e
 8312 0d15 A30D0000 		.4byte	0xda3
 8313 0d19 02       		.uleb128 0x2
 8314 0d1a 75       		.byte	0x75
 8315 0d1b 00       		.sleb128 0
 8316 0d1c 28       		.uleb128 0x28
 8317 0d1d 30000000 		.4byte	.Ldebug_ranges0+0x30
 8318 0d21 18       		.uleb128 0x18
 8319 0d22 6900     		.ascii	"i\000"
 8320 0d24 02       		.byte	0x2
 8321 0d25 3001     		.2byte	0x130
 8322 0d27 C6000000 		.4byte	0xc6
 8323 0d2b 46080000 		.4byte	.LLST50
 8324 0d2f 28       		.uleb128 0x28
 8325 0d30 48000000 		.4byte	.Ldebug_ranges0+0x48
 8326 0d34 17       		.uleb128 0x17
 8327 0d35 26040000 		.4byte	.LASF86
 8328 0d39 02       		.byte	0x2
 8329 0d3a 3801     		.2byte	0x138
 8330 0d3c EA000000 		.4byte	0xea
 8331 0d40 65080000 		.4byte	.LLST51
 8332 0d44 1F       		.uleb128 0x1f
 8333 0d45 60000000 		.4byte	.Ldebug_ranges0+0x60
 8334 0d49 8A0D0000 		.4byte	0xd8a
 8335 0d4d 18       		.uleb128 0x18
 8336 0d4e 6A00     		.ascii	"j\000"
 8337 0d50 02       		.byte	0x2
 8338 0d51 3101     		.2byte	0x131
 8339 0d53 C6000000 		.4byte	0xc6
 8340 0d57 83080000 		.4byte	.LLST52
 8341 0d5b 12       		.uleb128 0x12
 8342 0d5c 36000000 		.4byte	.LVL208
 8343 0d60 29380000 		.4byte	0x3829
 8344 0d64 1C       		.uleb128 0x1c
 8345 0d65 3C000000 		.4byte	.LVL209
 8346 0d69 34380000 		.4byte	0x3834
 8347 0d6d 770D0000 		.4byte	0xd77
 8348 0d71 1B       		.uleb128 0x1b
 8349 0d72 01       		.uleb128 0x1
 8350 0d73 50       		.byte	0x50
 8351 0d74 01       		.uleb128 0x1
 8352 0d75 31       		.byte	0x31
 8353 0d76 00       		.byte	0
 8354 0d77 12       		.uleb128 0x12
 8355 0d78 44000000 		.4byte	.LVL210
 8356 0d7c 3F380000 		.4byte	0x383f
 8357 0d80 12       		.uleb128 0x12
 8358 0d81 48000000 		.4byte	.LVL211
 8359 0d85 4A380000 		.4byte	0x384a
 8360 0d89 00       		.byte	0
 8361 0d8a 1A       		.uleb128 0x1a
 8362 0d8b 62000000 		.4byte	.LVL215
 8363 0d8f 380C0000 		.4byte	0xc38
 8364 0d93 1B       		.uleb128 0x1b
 8365 0d94 01       		.uleb128 0x1
 8366 0d95 50       		.byte	0x50
ARM GAS  C:\Users\FRANKL~1\AppData\Local\Temp\ccebBo1q.s 			page 186


 8367 0d96 02       		.uleb128 0x2
 8368 0d97 75       		.byte	0x75
 8369 0d98 00       		.sleb128 0
 8370 0d99 1B       		.uleb128 0x1b
 8371 0d9a 01       		.uleb128 0x1
 8372 0d9b 51       		.byte	0x51
 8373 0d9c 02       		.uleb128 0x2
 8374 0d9d 74       		.byte	0x74
 8375 0d9e 00       		.sleb128 0
 8376 0d9f 00       		.byte	0
 8377 0da0 00       		.byte	0
 8378 0da1 00       		.byte	0
 8379 0da2 00       		.byte	0
 8380 0da3 09       		.uleb128 0x9
 8381 0da4 EA000000 		.4byte	0xea
 8382 0da8 B50D0000 		.4byte	0xdb5
 8383 0dac 29       		.uleb128 0x29
 8384 0dad 84000000 		.4byte	0x84
 8385 0db1 02       		.uleb128 0x2
 8386 0db2 74       		.byte	0x74
 8387 0db3 7F       		.sleb128 -1
 8388 0db4 00       		.byte	0
 8389 0db5 14       		.uleb128 0x14
 8390 0db6 30000000 		.4byte	.LASF87
 8391 0dba 02       		.byte	0x2
 8392 0dbb 4201     		.2byte	0x142
 8393 0dbd 00000000 		.4byte	.LFB87
 8394 0dc1 54000000 		.4byte	.LFE87-.LFB87
 8395 0dc5 01       		.uleb128 0x1
 8396 0dc6 9C       		.byte	0x9c
 8397 0dc7 480E0000 		.4byte	0xe48
 8398 0dcb 26       		.uleb128 0x26
 8399 0dcc 55070000 		.4byte	.LASF80
 8400 0dd0 02       		.byte	0x2
 8401 0dd1 4201     		.2byte	0x142
 8402 0dd3 C6000000 		.4byte	0xc6
 8403 0dd7 A1080000 		.4byte	.LLST53
 8404 0ddb 16       		.uleb128 0x16
 8405 0ddc DB050000 		.4byte	.LASF88
 8406 0de0 02       		.byte	0x2
 8407 0de1 4301     		.2byte	0x143
 8408 0de3 EA000000 		.4byte	0xea
 8409 0de7 02       		.uleb128 0x2
 8410 0de8 91       		.byte	0x91
 8411 0de9 74       		.sleb128 -12
 8412 0dea 16       		.uleb128 0x16
 8413 0deb B8000000 		.4byte	.LASF89
 8414 0def 02       		.byte	0x2
 8415 0df0 4401     		.2byte	0x144
 8416 0df2 EA000000 		.4byte	0xea
 8417 0df6 02       		.uleb128 0x2
 8418 0df7 91       		.byte	0x91
 8419 0df8 70       		.sleb128 -16
 8420 0df9 1C       		.uleb128 0x1c
 8421 0dfa 16000000 		.4byte	.LVL241
 8422 0dfe 890C0000 		.4byte	0xc89
 8423 0e02 1A0E0000 		.4byte	0xe1a
ARM GAS  C:\Users\FRANKL~1\AppData\Local\Temp\ccebBo1q.s 			page 187


 8424 0e06 1B       		.uleb128 0x1b
 8425 0e07 01       		.uleb128 0x1
 8426 0e08 50       		.byte	0x50
 8427 0e09 02       		.uleb128 0x2
 8428 0e0a 91       		.byte	0x91
 8429 0e0b 74       		.sleb128 -12
 8430 0e0c 1B       		.uleb128 0x1b
 8431 0e0d 01       		.uleb128 0x1
 8432 0e0e 51       		.byte	0x51
 8433 0e0f 02       		.uleb128 0x2
 8434 0e10 91       		.byte	0x91
 8435 0e11 70       		.sleb128 -16
 8436 0e12 1B       		.uleb128 0x1b
 8437 0e13 01       		.uleb128 0x1
 8438 0e14 52       		.byte	0x52
 8439 0e15 03       		.uleb128 0x3
 8440 0e16 F3       		.byte	0xf3
 8441 0e17 01       		.uleb128 0x1
 8442 0e18 50       		.byte	0x50
 8443 0e19 00       		.byte	0
 8444 0e1a 12       		.uleb128 0x12
 8445 0e1b 2A000000 		.4byte	.LVL242
 8446 0e1f 750B0000 		.4byte	0xb75
 8447 0e23 12       		.uleb128 0x12
 8448 0e24 3E000000 		.4byte	.LVL243
 8449 0e28 9A0B0000 		.4byte	0xb9a
 8450 0e2c 1A       		.uleb128 0x1a
 8451 0e2d 48000000 		.4byte	.LVL244
 8452 0e31 890C0000 		.4byte	0xc89
 8453 0e35 1B       		.uleb128 0x1b
 8454 0e36 01       		.uleb128 0x1
 8455 0e37 50       		.byte	0x50
 8456 0e38 02       		.uleb128 0x2
 8457 0e39 91       		.byte	0x91
 8458 0e3a 74       		.sleb128 -12
 8459 0e3b 1B       		.uleb128 0x1b
 8460 0e3c 01       		.uleb128 0x1
 8461 0e3d 51       		.byte	0x51
 8462 0e3e 02       		.uleb128 0x2
 8463 0e3f 7D       		.byte	0x7d
 8464 0e40 00       		.sleb128 0
 8465 0e41 1B       		.uleb128 0x1b
 8466 0e42 01       		.uleb128 0x1
 8467 0e43 52       		.byte	0x52
 8468 0e44 01       		.uleb128 0x1
 8469 0e45 35       		.byte	0x35
 8470 0e46 00       		.byte	0
 8471 0e47 00       		.byte	0
 8472 0e48 27       		.uleb128 0x27
 8473 0e49 330A0000 		.4byte	.LASF90
 8474 0e4d 02       		.byte	0x2
 8475 0e4e 5501     		.2byte	0x155
 8476 0e50 00000000 		.4byte	.LFB88
 8477 0e54 B6000000 		.4byte	.LFE88-.LFB88
 8478 0e58 01       		.uleb128 0x1
 8479 0e59 9C       		.byte	0x9c
 8480 0e5a 0B0F0000 		.4byte	0xf0b
ARM GAS  C:\Users\FRANKL~1\AppData\Local\Temp\ccebBo1q.s 			page 188


 8481 0e5e 26       		.uleb128 0x26
 8482 0e5f E2000000 		.4byte	.LASF78
 8483 0e63 02       		.byte	0x2
 8484 0e64 5501     		.2byte	0x155
 8485 0e66 320C0000 		.4byte	0xc32
 8486 0e6a CD080000 		.4byte	.LLST54
 8487 0e6e 26       		.uleb128 0x26
 8488 0e6f C0080000 		.4byte	.LASF79
 8489 0e73 02       		.byte	0x2
 8490 0e74 5501     		.2byte	0x155
 8491 0e76 320C0000 		.4byte	0xc32
 8492 0e7a F8080000 		.4byte	.LLST55
 8493 0e7e 26       		.uleb128 0x26
 8494 0e7f 55070000 		.4byte	.LASF80
 8495 0e83 02       		.byte	0x2
 8496 0e84 5501     		.2byte	0x155
 8497 0e86 C6000000 		.4byte	0xc6
 8498 0e8a 17090000 		.4byte	.LLST56
 8499 0e8e 17       		.uleb128 0x17
 8500 0e8f 3C050000 		.4byte	.LASF91
 8501 0e93 02       		.byte	0x2
 8502 0e94 5601     		.2byte	0x156
 8503 0e96 EA000000 		.4byte	0xea
 8504 0e9a 35090000 		.4byte	.LLST57
 8505 0e9e 17       		.uleb128 0x17
 8506 0e9f D4050000 		.4byte	.LASF92
 8507 0ea3 02       		.byte	0x2
 8508 0ea4 5701     		.2byte	0x157
 8509 0ea6 EA000000 		.4byte	0xea
 8510 0eaa 6A090000 		.4byte	.LLST58
 8511 0eae 28       		.uleb128 0x28
 8512 0eaf 78000000 		.4byte	.Ldebug_ranges0+0x78
 8513 0eb3 18       		.uleb128 0x18
 8514 0eb4 6900     		.ascii	"i\000"
 8515 0eb6 02       		.byte	0x2
 8516 0eb7 5901     		.2byte	0x159
 8517 0eb9 C6000000 		.4byte	0xc6
 8518 0ebd 9F090000 		.4byte	.LLST59
 8519 0ec1 19       		.uleb128 0x19
 8520 0ec2 16000000 		.4byte	.LBB30
 8521 0ec6 8A000000 		.4byte	.LBE30-.LBB30
 8522 0eca 17       		.uleb128 0x17
 8523 0ecb 8D010000 		.4byte	.LASF93
 8524 0ecf 02       		.byte	0x2
 8525 0ed0 5D01     		.2byte	0x15d
 8526 0ed2 EA000000 		.4byte	0xea
 8527 0ed6 BE090000 		.4byte	.LLST60
 8528 0eda 12       		.uleb128 0x12
 8529 0edb 1A000000 		.4byte	.LVL248
 8530 0edf 55380000 		.4byte	0x3855
 8531 0ee3 1C       		.uleb128 0x1c
 8532 0ee4 20000000 		.4byte	.LVL249
 8533 0ee8 60380000 		.4byte	0x3860
 8534 0eec F60E0000 		.4byte	0xef6
 8535 0ef0 1B       		.uleb128 0x1b
 8536 0ef1 01       		.uleb128 0x1
 8537 0ef2 50       		.byte	0x50
ARM GAS  C:\Users\FRANKL~1\AppData\Local\Temp\ccebBo1q.s 			page 189


 8538 0ef3 01       		.uleb128 0x1
 8539 0ef4 31       		.byte	0x31
 8540 0ef5 00       		.byte	0
 8541 0ef6 12       		.uleb128 0x12
 8542 0ef7 28000000 		.4byte	.LVL250
 8543 0efb 6B380000 		.4byte	0x386b
 8544 0eff 12       		.uleb128 0x12
 8545 0f00 2C000000 		.4byte	.LVL251
 8546 0f04 76380000 		.4byte	0x3876
 8547 0f08 00       		.byte	0
 8548 0f09 00       		.byte	0
 8549 0f0a 00       		.byte	0
 8550 0f0b 27       		.uleb128 0x27
 8551 0f0c BD060000 		.4byte	.LASF94
 8552 0f10 02       		.byte	0x2
 8553 0f11 6801     		.2byte	0x168
 8554 0f13 00000000 		.4byte	.LFB89
 8555 0f17 B6000000 		.4byte	.LFE89-.LFB89
 8556 0f1b 01       		.uleb128 0x1
 8557 0f1c 9C       		.byte	0x9c
 8558 0f1d CE0F0000 		.4byte	0xfce
 8559 0f21 26       		.uleb128 0x26
 8560 0f22 E2000000 		.4byte	.LASF78
 8561 0f26 02       		.byte	0x2
 8562 0f27 6801     		.2byte	0x168
 8563 0f29 320C0000 		.4byte	0xc32
 8564 0f2d DC090000 		.4byte	.LLST61
 8565 0f31 26       		.uleb128 0x26
 8566 0f32 C0080000 		.4byte	.LASF79
 8567 0f36 02       		.byte	0x2
 8568 0f37 6801     		.2byte	0x168
 8569 0f39 320C0000 		.4byte	0xc32
 8570 0f3d 070A0000 		.4byte	.LLST62
 8571 0f41 26       		.uleb128 0x26
 8572 0f42 55070000 		.4byte	.LASF80
 8573 0f46 02       		.byte	0x2
 8574 0f47 6801     		.2byte	0x168
 8575 0f49 C6000000 		.4byte	0xc6
 8576 0f4d 260A0000 		.4byte	.LLST63
 8577 0f51 17       		.uleb128 0x17
 8578 0f52 3C050000 		.4byte	.LASF91
 8579 0f56 02       		.byte	0x2
 8580 0f57 6901     		.2byte	0x169
 8581 0f59 EA000000 		.4byte	0xea
 8582 0f5d 440A0000 		.4byte	.LLST64
 8583 0f61 17       		.uleb128 0x17
 8584 0f62 D4050000 		.4byte	.LASF92
 8585 0f66 02       		.byte	0x2
 8586 0f67 6A01     		.2byte	0x16a
 8587 0f69 EA000000 		.4byte	0xea
 8588 0f6d 790A0000 		.4byte	.LLST65
 8589 0f71 28       		.uleb128 0x28
 8590 0f72 90000000 		.4byte	.Ldebug_ranges0+0x90
 8591 0f76 18       		.uleb128 0x18
 8592 0f77 6900     		.ascii	"i\000"
 8593 0f79 02       		.byte	0x2
 8594 0f7a 6C01     		.2byte	0x16c
ARM GAS  C:\Users\FRANKL~1\AppData\Local\Temp\ccebBo1q.s 			page 190


 8595 0f7c C6000000 		.4byte	0xc6
 8596 0f80 AE0A0000 		.4byte	.LLST66
 8597 0f84 19       		.uleb128 0x19
 8598 0f85 16000000 		.4byte	.LBB33
 8599 0f89 8A000000 		.4byte	.LBE33-.LBB33
 8600 0f8d 17       		.uleb128 0x17
 8601 0f8e 8D0D0000 		.4byte	.LASF95
 8602 0f92 02       		.byte	0x2
 8603 0f93 7001     		.2byte	0x170
 8604 0f95 EA000000 		.4byte	0xea
 8605 0f99 CD0A0000 		.4byte	.LLST67
 8606 0f9d 12       		.uleb128 0x12
 8607 0f9e 1A000000 		.4byte	.LVL279
 8608 0fa2 81380000 		.4byte	0x3881
 8609 0fa6 1C       		.uleb128 0x1c
 8610 0fa7 20000000 		.4byte	.LVL280
 8611 0fab 8C380000 		.4byte	0x388c
 8612 0faf B90F0000 		.4byte	0xfb9
 8613 0fb3 1B       		.uleb128 0x1b
 8614 0fb4 01       		.uleb128 0x1
 8615 0fb5 50       		.byte	0x50
 8616 0fb6 01       		.uleb128 0x1
 8617 0fb7 31       		.byte	0x31
 8618 0fb8 00       		.byte	0
 8619 0fb9 12       		.uleb128 0x12
 8620 0fba 28000000 		.4byte	.LVL281
 8621 0fbe 97380000 		.4byte	0x3897
 8622 0fc2 12       		.uleb128 0x12
 8623 0fc3 2C000000 		.4byte	.LVL282
 8624 0fc7 A2380000 		.4byte	0x38a2
 8625 0fcb 00       		.byte	0
 8626 0fcc 00       		.byte	0
 8627 0fcd 00       		.byte	0
 8628 0fce 27       		.uleb128 0x27
 8629 0fcf 46020000 		.4byte	.LASF96
 8630 0fd3 02       		.byte	0x2
 8631 0fd4 7B01     		.2byte	0x17b
 8632 0fd6 00000000 		.4byte	.LFB90
 8633 0fda 90010000 		.4byte	.LFE90-.LFB90
 8634 0fde 01       		.uleb128 0x1
 8635 0fdf 9C       		.byte	0x9c
 8636 0fe0 24110000 		.4byte	0x1124
 8637 0fe4 26       		.uleb128 0x26
 8638 0fe5 D3040000 		.4byte	.LASF97
 8639 0fe9 02       		.byte	0x2
 8640 0fea 7B01     		.2byte	0x17b
 8641 0fec 24110000 		.4byte	0x1124
 8642 0ff0 EB0A0000 		.4byte	.LLST68
 8643 0ff4 26       		.uleb128 0x26
 8644 0ff5 31080000 		.4byte	.LASF98
 8645 0ff9 02       		.byte	0x2
 8646 0ffa 7B01     		.2byte	0x17b
 8647 0ffc 24110000 		.4byte	0x1124
 8648 1000 160B0000 		.4byte	.LLST69
 8649 1004 26       		.uleb128 0x26
 8650 1005 55070000 		.4byte	.LASF80
 8651 1009 02       		.byte	0x2
ARM GAS  C:\Users\FRANKL~1\AppData\Local\Temp\ccebBo1q.s 			page 191


 8652 100a 7B01     		.2byte	0x17b
 8653 100c C6000000 		.4byte	0xc6
 8654 1010 410B0000 		.4byte	.LLST70
 8655 1014 26       		.uleb128 0x26
 8656 1015 ED0B0000 		.4byte	.LASF99
 8657 1019 02       		.byte	0x2
 8658 101a 7B01     		.2byte	0x17b
 8659 101c AE000000 		.4byte	0xae
 8660 1020 6D0B0000 		.4byte	.LLST71
 8661 1024 16       		.uleb128 0x16
 8662 1025 DB050000 		.4byte	.LASF88
 8663 1029 02       		.byte	0x2
 8664 102a 8201     		.2byte	0x182
 8665 102c EA000000 		.4byte	0xea
 8666 1030 02       		.uleb128 0x2
 8667 1031 91       		.byte	0x91
 8668 1032 54       		.sleb128 -44
 8669 1033 16       		.uleb128 0x16
 8670 1034 B8000000 		.4byte	.LASF89
 8671 1038 02       		.byte	0x2
 8672 1039 8301     		.2byte	0x183
 8673 103b EA000000 		.4byte	0xea
 8674 103f 02       		.uleb128 0x2
 8675 1040 91       		.byte	0x91
 8676 1041 50       		.sleb128 -48
 8677 1042 17       		.uleb128 0x17
 8678 1043 AD080000 		.4byte	.LASF100
 8679 1047 02       		.byte	0x2
 8680 1048 8601     		.2byte	0x186
 8681 104a 25000000 		.4byte	0x25
 8682 104e 8E0B0000 		.4byte	.LLST72
 8683 1052 17       		.uleb128 0x17
 8684 1053 1B060000 		.4byte	.LASF101
 8685 1057 02       		.byte	0x2
 8686 1058 8701     		.2byte	0x187
 8687 105a 25000000 		.4byte	0x25
 8688 105e DC0B0000 		.4byte	.LLST73
 8689 1062 17       		.uleb128 0x17
 8690 1063 E6010000 		.4byte	.LASF102
 8691 1067 02       		.byte	0x2
 8692 1068 8801     		.2byte	0x188
 8693 106a 25000000 		.4byte	0x25
 8694 106e 560C0000 		.4byte	.LLST74
 8695 1072 17       		.uleb128 0x17
 8696 1073 4D010000 		.4byte	.LASF103
 8697 1077 02       		.byte	0x2
 8698 1078 8A01     		.2byte	0x18a
 8699 107a 25000000 		.4byte	0x25
 8700 107e D10C0000 		.4byte	.LLST75
 8701 1082 17       		.uleb128 0x17
 8702 1083 96040000 		.4byte	.LASF104
 8703 1087 02       		.byte	0x2
 8704 1088 8B01     		.2byte	0x18b
 8705 108a EA000000 		.4byte	0xea
 8706 108e E50C0000 		.4byte	.LLST76
 8707 1092 17       		.uleb128 0x17
 8708 1093 4A040000 		.4byte	.LASF105
ARM GAS  C:\Users\FRANKL~1\AppData\Local\Temp\ccebBo1q.s 			page 192


 8709 1097 02       		.byte	0x2
 8710 1098 8C01     		.2byte	0x18c
 8711 109a 25000000 		.4byte	0x25
 8712 109e F80C0000 		.4byte	.LLST77
 8713 10a2 1F       		.uleb128 0x1f
 8714 10a3 A8000000 		.4byte	.Ldebug_ranges0+0xa8
 8715 10a7 D5100000 		.4byte	0x10d5
 8716 10ab 18       		.uleb128 0x18
 8717 10ac 6900     		.ascii	"i\000"
 8718 10ae 02       		.byte	0x2
 8719 10af 9301     		.2byte	0x193
 8720 10b1 C6000000 		.4byte	0xc6
 8721 10b5 230D0000 		.4byte	.LLST78
 8722 10b9 1A       		.uleb128 0x1a
 8723 10ba 66000000 		.4byte	.LVL321
 8724 10be 890C0000 		.4byte	0xc89
 8725 10c2 1B       		.uleb128 0x1b
 8726 10c3 01       		.uleb128 0x1
 8727 10c4 50       		.byte	0x50
 8728 10c5 02       		.uleb128 0x2
 8729 10c6 91       		.byte	0x91
 8730 10c7 54       		.sleb128 -44
 8731 10c8 1B       		.uleb128 0x1b
 8732 10c9 01       		.uleb128 0x1
 8733 10ca 51       		.byte	0x51
 8734 10cb 02       		.uleb128 0x2
 8735 10cc 91       		.byte	0x91
 8736 10cd 50       		.sleb128 -48
 8737 10ce 1B       		.uleb128 0x1b
 8738 10cf 01       		.uleb128 0x1
 8739 10d0 52       		.byte	0x52
 8740 10d1 01       		.uleb128 0x1
 8741 10d2 31       		.byte	0x31
 8742 10d3 00       		.byte	0
 8743 10d4 00       		.byte	0
 8744 10d5 1C       		.uleb128 0x1c
 8745 10d6 1A000000 		.4byte	.LVL310
 8746 10da B50D0000 		.4byte	0xdb5
 8747 10de E8100000 		.4byte	0x10e8
 8748 10e2 1B       		.uleb128 0x1b
 8749 10e3 01       		.uleb128 0x1
 8750 10e4 50       		.byte	0x50
 8751 10e5 01       		.uleb128 0x1
 8752 10e6 33       		.byte	0x33
 8753 10e7 00       		.byte	0
 8754 10e8 1C       		.uleb128 0x1c
 8755 10e9 56000000 		.4byte	.LVL319
 8756 10ed 890C0000 		.4byte	0xc89
 8757 10f1 07110000 		.4byte	0x1107
 8758 10f5 1B       		.uleb128 0x1b
 8759 10f6 01       		.uleb128 0x1
 8760 10f7 50       		.byte	0x50
 8761 10f8 02       		.uleb128 0x2
 8762 10f9 91       		.byte	0x91
 8763 10fa 54       		.sleb128 -44
 8764 10fb 1B       		.uleb128 0x1b
 8765 10fc 01       		.uleb128 0x1
ARM GAS  C:\Users\FRANKL~1\AppData\Local\Temp\ccebBo1q.s 			page 193


 8766 10fd 51       		.byte	0x51
 8767 10fe 02       		.uleb128 0x2
 8768 10ff 74       		.byte	0x74
 8769 1100 00       		.sleb128 0
 8770 1101 1B       		.uleb128 0x1b
 8771 1102 01       		.uleb128 0x1
 8772 1103 52       		.byte	0x52
 8773 1104 01       		.uleb128 0x1
 8774 1105 33       		.byte	0x33
 8775 1106 00       		.byte	0
 8776 1107 1A       		.uleb128 0x1a
 8777 1108 3A010000 		.4byte	.LVL350
 8778 110c 890C0000 		.4byte	0xc89
 8779 1110 1B       		.uleb128 0x1b
 8780 1111 01       		.uleb128 0x1
 8781 1112 50       		.byte	0x50
 8782 1113 02       		.uleb128 0x2
 8783 1114 91       		.byte	0x91
 8784 1115 54       		.sleb128 -44
 8785 1116 1B       		.uleb128 0x1b
 8786 1117 01       		.uleb128 0x1
 8787 1118 51       		.byte	0x51
 8788 1119 02       		.uleb128 0x2
 8789 111a 91       		.byte	0x91
 8790 111b 50       		.sleb128 -48
 8791 111c 1B       		.uleb128 0x1b
 8792 111d 01       		.uleb128 0x1
 8793 111e 52       		.byte	0x52
 8794 111f 02       		.uleb128 0x2
 8795 1120 7A       		.byte	0x7a
 8796 1121 00       		.sleb128 0
 8797 1122 00       		.byte	0
 8798 1123 00       		.byte	0
 8799 1124 05       		.uleb128 0x5
 8800 1125 04       		.byte	0x4
 8801 1126 25000000 		.4byte	0x25
 8802 112a 2A       		.uleb128 0x2a
 8803 112b 8A0B0000 		.4byte	.LASF106
 8804 112f 02       		.byte	0x2
 8805 1130 AD01     		.2byte	0x1ad
 8806 1132 AE000000 		.4byte	0xae
 8807 1136 00000000 		.4byte	.LFB91
 8808 113a 5C000000 		.4byte	.LFE91-.LFB91
 8809 113e 01       		.uleb128 0x1
 8810 113f 9C       		.byte	0x9c
 8811 1140 83110000 		.4byte	0x1183
 8812 1144 16       		.uleb128 0x16
 8813 1145 B8080000 		.4byte	.LASF107
 8814 1149 02       		.byte	0x2
 8815 114a B001     		.2byte	0x1b0
 8816 114c 25000000 		.4byte	0x25
 8817 1150 02       		.uleb128 0x2
 8818 1151 91       		.byte	0x91
 8819 1152 74       		.sleb128 -12
 8820 1153 16       		.uleb128 0x16
 8821 1154 99000000 		.4byte	.LASF108
 8822 1158 02       		.byte	0x2
ARM GAS  C:\Users\FRANKL~1\AppData\Local\Temp\ccebBo1q.s 			page 194


 8823 1159 B101     		.2byte	0x1b1
 8824 115b 25000000 		.4byte	0x25
 8825 115f 02       		.uleb128 0x2
 8826 1160 91       		.byte	0x91
 8827 1161 70       		.sleb128 -16
 8828 1162 1A       		.uleb128 0x1a
 8829 1163 1E000000 		.4byte	.LVL359
 8830 1167 CE0F0000 		.4byte	0xfce
 8831 116b 1B       		.uleb128 0x1b
 8832 116c 01       		.uleb128 0x1
 8833 116d 50       		.byte	0x50
 8834 116e 02       		.uleb128 0x2
 8835 116f 91       		.byte	0x91
 8836 1170 74       		.sleb128 -12
 8837 1171 1B       		.uleb128 0x1b
 8838 1172 01       		.uleb128 0x1
 8839 1173 51       		.byte	0x51
 8840 1174 02       		.uleb128 0x2
 8841 1175 91       		.byte	0x91
 8842 1176 70       		.sleb128 -16
 8843 1177 1B       		.uleb128 0x1b
 8844 1178 01       		.uleb128 0x1
 8845 1179 52       		.byte	0x52
 8846 117a 01       		.uleb128 0x1
 8847 117b 33       		.byte	0x33
 8848 117c 1B       		.uleb128 0x1b
 8849 117d 01       		.uleb128 0x1
 8850 117e 53       		.byte	0x53
 8851 117f 01       		.uleb128 0x1
 8852 1180 31       		.byte	0x31
 8853 1181 00       		.byte	0
 8854 1182 00       		.byte	0
 8855 1183 2B       		.uleb128 0x2b
 8856 1184 76070000 		.4byte	.LASF109
 8857 1188 02       		.byte	0x2
 8858 1189 BD01     		.2byte	0x1bd
 8859 118b 00000000 		.4byte	.LFB92
 8860 118f 68000000 		.4byte	.LFE92-.LFB92
 8861 1193 01       		.uleb128 0x1
 8862 1194 9C       		.byte	0x9c
 8863 1195 38120000 		.4byte	0x1238
 8864 1199 17       		.uleb128 0x17
 8865 119a D0010000 		.4byte	.LASF110
 8866 119e 02       		.byte	0x2
 8867 119f BE01     		.2byte	0x1be
 8868 11a1 AE000000 		.4byte	0xae
 8869 11a5 410D0000 		.4byte	.LLST79
 8870 11a9 17       		.uleb128 0x17
 8871 11aa 15060000 		.4byte	.LASF111
 8872 11ae 02       		.byte	0x2
 8873 11af BF01     		.2byte	0x1bf
 8874 11b1 AE000000 		.4byte	0xae
 8875 11b5 5F0D0000 		.4byte	.LLST80
 8876 11b9 17       		.uleb128 0x17
 8877 11ba BB030000 		.4byte	.LASF112
 8878 11be 02       		.byte	0x2
 8879 11bf C001     		.2byte	0x1c0
ARM GAS  C:\Users\FRANKL~1\AppData\Local\Temp\ccebBo1q.s 			page 195


 8880 11c1 D2000000 		.4byte	0xd2
 8881 11c5 7D0D0000 		.4byte	.LLST81
 8882 11c9 15       		.uleb128 0x15
 8883 11ca 1A000000 		.4byte	.LBB37
 8884 11ce 16000000 		.4byte	.LBE37-.LBB37
 8885 11d2 02120000 		.4byte	0x1202
 8886 11d6 18       		.uleb128 0x18
 8887 11d7 6900     		.ascii	"i\000"
 8888 11d9 02       		.byte	0x2
 8889 11da C301     		.2byte	0x1c3
 8890 11dc AE000000 		.4byte	0xae
 8891 11e0 B30D0000 		.4byte	.LLST82
 8892 11e4 1C       		.uleb128 0x1c
 8893 11e5 22000000 		.4byte	.LVL367
 8894 11e9 AD380000 		.4byte	0x38ad
 8895 11ed F8110000 		.4byte	0x11f8
 8896 11f1 1B       		.uleb128 0x1b
 8897 11f2 01       		.uleb128 0x1
 8898 11f3 50       		.byte	0x50
 8899 11f4 02       		.uleb128 0x2
 8900 11f5 74       		.byte	0x74
 8901 11f6 00       		.sleb128 0
 8902 11f7 00       		.byte	0
 8903 11f8 12       		.uleb128 0x12
 8904 11f9 26000000 		.4byte	.LVL368
 8905 11fd 2A110000 		.4byte	0x112a
 8906 1201 00       		.byte	0
 8907 1202 19       		.uleb128 0x19
 8908 1203 48000000 		.4byte	.LBB38
 8909 1207 20000000 		.4byte	.LBE38-.LBB38
 8910 120b 18       		.uleb128 0x18
 8911 120c 6900     		.ascii	"i\000"
 8912 120e 02       		.byte	0x2
 8913 120f CE01     		.2byte	0x1ce
 8914 1211 AE000000 		.4byte	0xae
 8915 1215 D10D0000 		.4byte	.LLST83
 8916 1219 1C       		.uleb128 0x1c
 8917 121a 50000000 		.4byte	.LVL377
 8918 121e B8380000 		.4byte	0x38b8
 8919 1222 2D120000 		.4byte	0x122d
 8920 1226 1B       		.uleb128 0x1b
 8921 1227 01       		.uleb128 0x1
 8922 1228 50       		.byte	0x50
 8923 1229 02       		.uleb128 0x2
 8924 122a 74       		.byte	0x74
 8925 122b 00       		.sleb128 0
 8926 122c 00       		.byte	0
 8927 122d 12       		.uleb128 0x12
 8928 122e 54000000 		.4byte	.LVL378
 8929 1232 2A110000 		.4byte	0x112a
 8930 1236 00       		.byte	0
 8931 1237 00       		.byte	0
 8932 1238 2A       		.uleb128 0x2a
 8933 1239 84000000 		.4byte	.LASF113
 8934 123d 02       		.byte	0x2
 8935 123e D801     		.2byte	0x1d8
 8936 1240 25000000 		.4byte	0x25
ARM GAS  C:\Users\FRANKL~1\AppData\Local\Temp\ccebBo1q.s 			page 196


 8937 1244 00000000 		.4byte	.LFB93
 8938 1248 30000000 		.4byte	.LFE93-.LFB93
 8939 124c 01       		.uleb128 0x1
 8940 124d 9C       		.byte	0x9c
 8941 124e 61120000 		.4byte	0x1261
 8942 1252 16       		.uleb128 0x16
 8943 1253 FF010000 		.4byte	.LASF114
 8944 1257 02       		.byte	0x2
 8945 1258 D901     		.2byte	0x1d9
 8946 125a 25000000 		.4byte	0x25
 8947 125e 01       		.uleb128 0x1
 8948 125f 50       		.byte	0x50
 8949 1260 00       		.byte	0
 8950 1261 2A       		.uleb128 0x2a
 8951 1262 760E0000 		.4byte	.LASF115
 8952 1266 02       		.byte	0x2
 8953 1267 E101     		.2byte	0x1e1
 8954 1269 25000000 		.4byte	0x25
 8955 126d 00000000 		.4byte	.LFB94
 8956 1271 48000000 		.4byte	.LFE94-.LFB94
 8957 1275 01       		.uleb128 0x1
 8958 1276 9C       		.byte	0x9c
 8959 1277 93120000 		.4byte	0x1293
 8960 127b 16       		.uleb128 0x16
 8961 127c FF010000 		.4byte	.LASF114
 8962 1280 02       		.byte	0x2
 8963 1281 E201     		.2byte	0x1e2
 8964 1283 25000000 		.4byte	0x25
 8965 1287 01       		.uleb128 0x1
 8966 1288 50       		.byte	0x50
 8967 1289 12       		.uleb128 0x12
 8968 128a 1C000000 		.4byte	.LVL388
 8969 128e 38120000 		.4byte	0x1238
 8970 1292 00       		.byte	0
 8971 1293 2A       		.uleb128 0x2a
 8972 1294 270D0000 		.4byte	.LASF116
 8973 1298 02       		.byte	0x2
 8974 1299 EA01     		.2byte	0x1ea
 8975 129b 25000000 		.4byte	0x25
 8976 129f 00000000 		.4byte	.LFB95
 8977 12a3 48000000 		.4byte	.LFE95-.LFB95
 8978 12a7 01       		.uleb128 0x1
 8979 12a8 9C       		.byte	0x9c
 8980 12a9 C5120000 		.4byte	0x12c5
 8981 12ad 16       		.uleb128 0x16
 8982 12ae FF010000 		.4byte	.LASF114
 8983 12b2 02       		.byte	0x2
 8984 12b3 EB01     		.2byte	0x1eb
 8985 12b5 25000000 		.4byte	0x25
 8986 12b9 01       		.uleb128 0x1
 8987 12ba 50       		.byte	0x50
 8988 12bb 12       		.uleb128 0x12
 8989 12bc 1C000000 		.4byte	.LVL394
 8990 12c0 38120000 		.4byte	0x1238
 8991 12c4 00       		.byte	0
 8992 12c5 14       		.uleb128 0x14
 8993 12c6 C80E0000 		.4byte	.LASF117
ARM GAS  C:\Users\FRANKL~1\AppData\Local\Temp\ccebBo1q.s 			page 197


 8994 12ca 02       		.byte	0x2
 8995 12cb F501     		.2byte	0x1f5
 8996 12cd 00000000 		.4byte	.LFB96
 8997 12d1 78000000 		.4byte	.LFE96-.LFB96
 8998 12d5 01       		.uleb128 0x1
 8999 12d6 9C       		.byte	0x9c
 9000 12d7 98130000 		.4byte	0x1398
 9001 12db 26       		.uleb128 0x26
 9002 12dc 00040000 		.4byte	.LASF118
 9003 12e0 02       		.byte	0x2
 9004 12e1 F501     		.2byte	0x1f5
 9005 12e3 AE000000 		.4byte	0xae
 9006 12e7 EF0D0000 		.4byte	.LLST84
 9007 12eb 17       		.uleb128 0x17
 9008 12ec D0010000 		.4byte	.LASF110
 9009 12f0 02       		.byte	0x2
 9010 12f1 F801     		.2byte	0x1f8
 9011 12f3 AE000000 		.4byte	0xae
 9012 12f7 100E0000 		.4byte	.LLST85
 9013 12fb 17       		.uleb128 0x17
 9014 12fc BB030000 		.4byte	.LASF112
 9015 1300 02       		.byte	0x2
 9016 1301 F901     		.2byte	0x1f9
 9017 1303 D2000000 		.4byte	0xd2
 9018 1307 230E0000 		.4byte	.LLST86
 9019 130b 15       		.uleb128 0x15
 9020 130c 22000000 		.4byte	.LBB39
 9021 1310 40000000 		.4byte	.LBE39-.LBB39
 9022 1314 87130000 		.4byte	0x1387
 9023 1318 18       		.uleb128 0x18
 9024 1319 6900     		.ascii	"i\000"
 9025 131b 02       		.byte	0x2
 9026 131c FD01     		.2byte	0x1fd
 9027 131e AE000000 		.4byte	0xae
 9028 1322 420E0000 		.4byte	.LLST87
 9029 1326 1F       		.uleb128 0x1f
 9030 1327 C0000000 		.4byte	.Ldebug_ranges0+0xc0
 9031 132b 5B130000 		.4byte	0x135b
 9032 132f 18       		.uleb128 0x18
 9033 1330 6A00     		.ascii	"j\000"
 9034 1332 02       		.byte	0x2
 9035 1333 FF01     		.2byte	0x1ff
 9036 1335 AE000000 		.4byte	0xae
 9037 1339 6B0E0000 		.4byte	.LLST88
 9038 133d 1C       		.uleb128 0x1c
 9039 133e 34000000 		.4byte	.LVL404
 9040 1342 AD380000 		.4byte	0x38ad
 9041 1346 51130000 		.4byte	0x1351
 9042 134a 1B       		.uleb128 0x1b
 9043 134b 01       		.uleb128 0x1
 9044 134c 50       		.byte	0x50
 9045 134d 02       		.uleb128 0x2
 9046 134e 74       		.byte	0x74
 9047 134f 00       		.sleb128 0
 9048 1350 00       		.byte	0
 9049 1351 12       		.uleb128 0x12
 9050 1352 38000000 		.4byte	.LVL405
ARM GAS  C:\Users\FRANKL~1\AppData\Local\Temp\ccebBo1q.s 			page 198


 9051 1356 2A110000 		.4byte	0x112a
 9052 135a 00       		.byte	0
 9053 135b 12       		.uleb128 0x12
 9054 135c 2A000000 		.4byte	.LVL402
 9055 1360 2A110000 		.4byte	0x112a
 9056 1364 12       		.uleb128 0x12
 9057 1365 4A000000 		.4byte	.LVL410
 9058 1369 2A110000 		.4byte	0x112a
 9059 136d 12       		.uleb128 0x12
 9060 136e 50000000 		.4byte	.LVL411
 9061 1372 83110000 		.4byte	0x1183
 9062 1376 1A       		.uleb128 0x1a
 9063 1377 5A000000 		.4byte	.LVL413
 9064 137b AD380000 		.4byte	0x38ad
 9065 137f 1B       		.uleb128 0x1b
 9066 1380 01       		.uleb128 0x1
 9067 1381 50       		.byte	0x50
 9068 1382 02       		.uleb128 0x2
 9069 1383 77       		.byte	0x77
 9070 1384 00       		.sleb128 0
 9071 1385 00       		.byte	0
 9072 1386 00       		.byte	0
 9073 1387 1A       		.uleb128 0x1a
 9074 1388 68000000 		.4byte	.LVL416
 9075 138c AD380000 		.4byte	0x38ad
 9076 1390 1B       		.uleb128 0x1b
 9077 1391 01       		.uleb128 0x1
 9078 1392 50       		.byte	0x50
 9079 1393 02       		.uleb128 0x2
 9080 1394 78       		.byte	0x78
 9081 1395 00       		.sleb128 0
 9082 1396 00       		.byte	0
 9083 1397 00       		.byte	0
 9084 1398 14       		.uleb128 0x14
 9085 1399 41010000 		.4byte	.LASF119
 9086 139d 02       		.byte	0x2
 9087 139e 1202     		.2byte	0x212
 9088 13a0 00000000 		.4byte	.LFB97
 9089 13a4 78000000 		.4byte	.LFE97-.LFB97
 9090 13a8 01       		.uleb128 0x1
 9091 13a9 9C       		.byte	0x9c
 9092 13aa 6B140000 		.4byte	0x146b
 9093 13ae 26       		.uleb128 0x26
 9094 13af 00040000 		.4byte	.LASF118
 9095 13b3 02       		.byte	0x2
 9096 13b4 1202     		.2byte	0x212
 9097 13b6 AE000000 		.4byte	0xae
 9098 13ba 940E0000 		.4byte	.LLST89
 9099 13be 17       		.uleb128 0x17
 9100 13bf BB030000 		.4byte	.LASF112
 9101 13c3 02       		.byte	0x2
 9102 13c4 1502     		.2byte	0x215
 9103 13c6 D2000000 		.4byte	0xd2
 9104 13ca B50E0000 		.4byte	.LLST90
 9105 13ce 17       		.uleb128 0x17
 9106 13cf D0010000 		.4byte	.LASF110
 9107 13d3 02       		.byte	0x2
ARM GAS  C:\Users\FRANKL~1\AppData\Local\Temp\ccebBo1q.s 			page 199


 9108 13d4 1602     		.2byte	0x216
 9109 13d6 AE000000 		.4byte	0xae
 9110 13da D40E0000 		.4byte	.LLST91
 9111 13de 15       		.uleb128 0x15
 9112 13df 22000000 		.4byte	.LBB42
 9113 13e3 40000000 		.4byte	.LBE42-.LBB42
 9114 13e7 5A140000 		.4byte	0x145a
 9115 13eb 18       		.uleb128 0x18
 9116 13ec 6900     		.ascii	"i\000"
 9117 13ee 02       		.byte	0x2
 9118 13ef 1A02     		.2byte	0x21a
 9119 13f1 AE000000 		.4byte	0xae
 9120 13f5 E70E0000 		.4byte	.LLST92
 9121 13f9 1F       		.uleb128 0x1f
 9122 13fa D8000000 		.4byte	.Ldebug_ranges0+0xd8
 9123 13fe 2E140000 		.4byte	0x142e
 9124 1402 18       		.uleb128 0x18
 9125 1403 6A00     		.ascii	"j\000"
 9126 1405 02       		.byte	0x2
 9127 1406 1C02     		.2byte	0x21c
 9128 1408 AE000000 		.4byte	0xae
 9129 140c 100F0000 		.4byte	.LLST93
 9130 1410 1C       		.uleb128 0x1c
 9131 1411 34000000 		.4byte	.LVL425
 9132 1415 B8380000 		.4byte	0x38b8
 9133 1419 24140000 		.4byte	0x1424
 9134 141d 1B       		.uleb128 0x1b
 9135 141e 01       		.uleb128 0x1
 9136 141f 50       		.byte	0x50
 9137 1420 02       		.uleb128 0x2
 9138 1421 74       		.byte	0x74
 9139 1422 00       		.sleb128 0
 9140 1423 00       		.byte	0
 9141 1424 12       		.uleb128 0x12
 9142 1425 38000000 		.4byte	.LVL426
 9143 1429 2A110000 		.4byte	0x112a
 9144 142d 00       		.byte	0
 9145 142e 12       		.uleb128 0x12
 9146 142f 2A000000 		.4byte	.LVL423
 9147 1433 2A110000 		.4byte	0x112a
 9148 1437 12       		.uleb128 0x12
 9149 1438 4A000000 		.4byte	.LVL431
 9150 143c 2A110000 		.4byte	0x112a
 9151 1440 12       		.uleb128 0x12
 9152 1441 50000000 		.4byte	.LVL432
 9153 1445 83110000 		.4byte	0x1183
 9154 1449 1A       		.uleb128 0x1a
 9155 144a 5A000000 		.4byte	.LVL434
 9156 144e B8380000 		.4byte	0x38b8
 9157 1452 1B       		.uleb128 0x1b
 9158 1453 01       		.uleb128 0x1
 9159 1454 50       		.byte	0x50
 9160 1455 02       		.uleb128 0x2
 9161 1456 77       		.byte	0x77
 9162 1457 00       		.sleb128 0
 9163 1458 00       		.byte	0
 9164 1459 00       		.byte	0
ARM GAS  C:\Users\FRANKL~1\AppData\Local\Temp\ccebBo1q.s 			page 200


 9165 145a 1A       		.uleb128 0x1a
 9166 145b 68000000 		.4byte	.LVL437
 9167 145f B8380000 		.4byte	0x38b8
 9168 1463 1B       		.uleb128 0x1b
 9169 1464 01       		.uleb128 0x1
 9170 1465 50       		.byte	0x50
 9171 1466 02       		.uleb128 0x2
 9172 1467 78       		.byte	0x78
 9173 1468 00       		.sleb128 0
 9174 1469 00       		.byte	0
 9175 146a 00       		.byte	0
 9176 146b 14       		.uleb128 0x14
 9177 146c 47050000 		.4byte	.LASF120
 9178 1470 02       		.byte	0x2
 9179 1471 2F02     		.2byte	0x22f
 9180 1473 00000000 		.4byte	.LFB98
 9181 1477 C0000000 		.4byte	.LFE98-.LFB98
 9182 147b 01       		.uleb128 0x1
 9183 147c 9C       		.byte	0x9c
 9184 147d 81150000 		.4byte	0x1581
 9185 1481 26       		.uleb128 0x26
 9186 1482 00040000 		.4byte	.LASF118
 9187 1486 02       		.byte	0x2
 9188 1487 2F02     		.2byte	0x22f
 9189 1489 AE000000 		.4byte	0xae
 9190 148d 390F0000 		.4byte	.LLST94
 9191 1491 17       		.uleb128 0x17
 9192 1492 BB030000 		.4byte	.LASF112
 9193 1496 02       		.byte	0x2
 9194 1497 3202     		.2byte	0x232
 9195 1499 D2000000 		.4byte	0xd2
 9196 149d 570F0000 		.4byte	.LLST95
 9197 14a1 17       		.uleb128 0x17
 9198 14a2 21050000 		.4byte	.LASF121
 9199 14a6 02       		.byte	0x2
 9200 14a7 4902     		.2byte	0x249
 9201 14a9 DE000000 		.4byte	0xde
 9202 14ad 760F0000 		.4byte	.LLST96
 9203 14b1 17       		.uleb128 0x17
 9204 14b2 1E040000 		.4byte	.LASF122
 9205 14b6 02       		.byte	0x2
 9206 14b7 4A02     		.2byte	0x24a
 9207 14b9 DE000000 		.4byte	0xde
 9208 14bd 890F0000 		.4byte	.LLST97
 9209 14c1 15       		.uleb128 0x15
 9210 14c2 20000000 		.4byte	.LBB45
 9211 14c6 54000000 		.4byte	.LBE45-.LBB45
 9212 14ca 48150000 		.4byte	0x1548
 9213 14ce 18       		.uleb128 0x18
 9214 14cf 6900     		.ascii	"i\000"
 9215 14d1 02       		.byte	0x2
 9216 14d2 3602     		.2byte	0x236
 9217 14d4 AE000000 		.4byte	0xae
 9218 14d8 9C0F0000 		.4byte	.LLST98
 9219 14dc 19       		.uleb128 0x19
 9220 14dd 28000000 		.4byte	.LBB46
 9221 14e1 44000000 		.4byte	.LBE46-.LBB46
ARM GAS  C:\Users\FRANKL~1\AppData\Local\Temp\ccebBo1q.s 			page 201


 9222 14e5 17       		.uleb128 0x17
 9223 14e6 21050000 		.4byte	.LASF121
 9224 14ea 02       		.byte	0x2
 9225 14eb 3A02     		.2byte	0x23a
 9226 14ed DE000000 		.4byte	0xde
 9227 14f1 BA0F0000 		.4byte	.LLST99
 9228 14f5 17       		.uleb128 0x17
 9229 14f6 1E040000 		.4byte	.LASF122
 9230 14fa 02       		.byte	0x2
 9231 14fb 3B02     		.2byte	0x23b
 9232 14fd DE000000 		.4byte	0xde
 9233 1501 CD0F0000 		.4byte	.LLST100
 9234 1505 12       		.uleb128 0x12
 9235 1506 2C000000 		.4byte	.LVL443
 9236 150a 2A110000 		.4byte	0x112a
 9237 150e 1C       		.uleb128 0x1c
 9238 150f 60000000 		.4byte	.LVL450
 9239 1513 C3380000 		.4byte	0x38c3
 9240 1517 22150000 		.4byte	0x1522
 9241 151b 1B       		.uleb128 0x1b
 9242 151c 01       		.uleb128 0x1
 9243 151d 50       		.byte	0x50
 9244 151e 02       		.uleb128 0x2
 9245 151f 76       		.byte	0x76
 9246 1520 00       		.sleb128 0
 9247 1521 00       		.byte	0
 9248 1522 1C       		.uleb128 0x1c
 9249 1523 66000000 		.4byte	.LVL451
 9250 1527 B8380000 		.4byte	0x38b8
 9251 152b 36150000 		.4byte	0x1536
 9252 152f 1B       		.uleb128 0x1b
 9253 1530 01       		.uleb128 0x1
 9254 1531 50       		.byte	0x50
 9255 1532 02       		.uleb128 0x2
 9256 1533 75       		.byte	0x75
 9257 1534 00       		.sleb128 0
 9258 1535 00       		.byte	0
 9259 1536 1A       		.uleb128 0x1a
 9260 1537 6C000000 		.4byte	.LVL452
 9261 153b AD380000 		.4byte	0x38ad
 9262 153f 1B       		.uleb128 0x1b
 9263 1540 01       		.uleb128 0x1
 9264 1541 50       		.byte	0x50
 9265 1542 02       		.uleb128 0x2
 9266 1543 74       		.byte	0x74
 9267 1544 00       		.sleb128 0
 9268 1545 00       		.byte	0
 9269 1546 00       		.byte	0
 9270 1547 00       		.byte	0
 9271 1548 1C       		.uleb128 0x1c
 9272 1549 A4000000 		.4byte	.LVL461
 9273 154d C3380000 		.4byte	0x38c3
 9274 1551 5C150000 		.4byte	0x155c
 9275 1555 1B       		.uleb128 0x1b
 9276 1556 01       		.uleb128 0x1
 9277 1557 50       		.byte	0x50
 9278 1558 02       		.uleb128 0x2
ARM GAS  C:\Users\FRANKL~1\AppData\Local\Temp\ccebBo1q.s 			page 202


 9279 1559 77       		.byte	0x77
 9280 155a 00       		.sleb128 0
 9281 155b 00       		.byte	0
 9282 155c 1C       		.uleb128 0x1c
 9283 155d AA000000 		.4byte	.LVL462
 9284 1561 B8380000 		.4byte	0x38b8
 9285 1565 70150000 		.4byte	0x1570
 9286 1569 1B       		.uleb128 0x1b
 9287 156a 01       		.uleb128 0x1
 9288 156b 50       		.byte	0x50
 9289 156c 02       		.uleb128 0x2
 9290 156d 75       		.byte	0x75
 9291 156e 00       		.sleb128 0
 9292 156f 00       		.byte	0
 9293 1570 1A       		.uleb128 0x1a
 9294 1571 B0000000 		.4byte	.LVL463
 9295 1575 AD380000 		.4byte	0x38ad
 9296 1579 1B       		.uleb128 0x1b
 9297 157a 01       		.uleb128 0x1
 9298 157b 50       		.byte	0x50
 9299 157c 02       		.uleb128 0x2
 9300 157d 74       		.byte	0x74
 9301 157e 00       		.sleb128 0
 9302 157f 00       		.byte	0
 9303 1580 00       		.byte	0
 9304 1581 14       		.uleb128 0x14
 9305 1582 D1000000 		.4byte	.LASF123
 9306 1586 02       		.byte	0x2
 9307 1587 5902     		.2byte	0x259
 9308 1589 00000000 		.4byte	.LFB99
 9309 158d C8000000 		.4byte	.LFE99-.LFB99
 9310 1591 01       		.uleb128 0x1
 9311 1592 9C       		.byte	0x9c
 9312 1593 53160000 		.4byte	0x1653
 9313 1597 26       		.uleb128 0x26
 9314 1598 00040000 		.4byte	.LASF118
 9315 159c 02       		.byte	0x2
 9316 159d 5902     		.2byte	0x259
 9317 159f DE000000 		.4byte	0xde
 9318 15a3 E00F0000 		.4byte	.LLST101
 9319 15a7 17       		.uleb128 0x17
 9320 15a8 16000000 		.4byte	.LASF124
 9321 15ac 02       		.byte	0x2
 9322 15ad 5D02     		.2byte	0x25d
 9323 15af DE000000 		.4byte	0xde
 9324 15b3 FE0F0000 		.4byte	.LLST102
 9325 15b7 17       		.uleb128 0x17
 9326 15b8 E7050000 		.4byte	.LASF125
 9327 15bc 02       		.byte	0x2
 9328 15bd 6B02     		.2byte	0x26b
 9329 15bf BA000000 		.4byte	0xba
 9330 15c3 3D100000 		.4byte	.LLST103
 9331 15c7 17       		.uleb128 0x17
 9332 15c8 1D070000 		.4byte	.LASF126
 9333 15cc 02       		.byte	0x2
 9334 15cd 6C02     		.2byte	0x26c
 9335 15cf BA000000 		.4byte	0xba
ARM GAS  C:\Users\FRANKL~1\AppData\Local\Temp\ccebBo1q.s 			page 203


 9336 15d3 50100000 		.4byte	.LLST104
 9337 15d7 17       		.uleb128 0x17
 9338 15d8 9A050000 		.4byte	.LASF127
 9339 15dc 02       		.byte	0x2
 9340 15dd 6D02     		.2byte	0x26d
 9341 15df BA000000 		.4byte	0xba
 9342 15e3 63100000 		.4byte	.LLST105
 9343 15e7 17       		.uleb128 0x17
 9344 15e8 190D0000 		.4byte	.LASF128
 9345 15ec 02       		.byte	0x2
 9346 15ed 6E02     		.2byte	0x26e
 9347 15ef BA000000 		.4byte	0xba
 9348 15f3 76100000 		.4byte	.LLST106
 9349 15f7 17       		.uleb128 0x17
 9350 15f8 030E0000 		.4byte	.LASF129
 9351 15fc 02       		.byte	0x2
 9352 15fd 7002     		.2byte	0x270
 9353 15ff BA000000 		.4byte	0xba
 9354 1603 89100000 		.4byte	.LLST107
 9355 1607 12       		.uleb128 0x12
 9356 1608 32000000 		.4byte	.LVL471
 9357 160c 6B140000 		.4byte	0x146b
 9358 1610 1C       		.uleb128 0x1c
 9359 1611 38000000 		.4byte	.LVL472
 9360 1615 C5120000 		.4byte	0x12c5
 9361 1619 24160000 		.4byte	0x1624
 9362 161d 1B       		.uleb128 0x1b
 9363 161e 01       		.uleb128 0x1
 9364 161f 50       		.byte	0x50
 9365 1620 02       		.uleb128 0x2
 9366 1621 09       		.byte	0x9
 9367 1622 FF       		.byte	0xff
 9368 1623 00       		.byte	0
 9369 1624 12       		.uleb128 0x12
 9370 1625 4A000000 		.4byte	.LVL476
 9371 1629 6B140000 		.4byte	0x146b
 9372 162d 1C       		.uleb128 0x1c
 9373 162e 50000000 		.4byte	.LVL477
 9374 1632 C5120000 		.4byte	0x12c5
 9375 1636 40160000 		.4byte	0x1640
 9376 163a 1B       		.uleb128 0x1b
 9377 163b 01       		.uleb128 0x1
 9378 163c 50       		.byte	0x50
 9379 163d 01       		.uleb128 0x1
 9380 163e 30       		.byte	0x30
 9381 163f 00       		.byte	0
 9382 1640 12       		.uleb128 0x12
 9383 1641 58000000 		.4byte	.LVL479
 9384 1645 C5120000 		.4byte	0x12c5
 9385 1649 12       		.uleb128 0x12
 9386 164a B8000000 		.4byte	.LVL490
 9387 164e 6B140000 		.4byte	0x146b
 9388 1652 00       		.byte	0
 9389 1653 14       		.uleb128 0x14
 9390 1654 F4030000 		.4byte	.LASF130
 9391 1658 02       		.byte	0x2
 9392 1659 7B02     		.2byte	0x27b
ARM GAS  C:\Users\FRANKL~1\AppData\Local\Temp\ccebBo1q.s 			page 204


 9393 165b 00000000 		.4byte	.LFB100
 9394 165f C8000000 		.4byte	.LFE100-.LFB100
 9395 1663 01       		.uleb128 0x1
 9396 1664 9C       		.byte	0x9c
 9397 1665 25170000 		.4byte	0x1725
 9398 1669 26       		.uleb128 0x26
 9399 166a 00040000 		.4byte	.LASF118
 9400 166e 02       		.byte	0x2
 9401 166f 7B02     		.2byte	0x27b
 9402 1671 DE000000 		.4byte	0xde
 9403 1675 C8100000 		.4byte	.LLST108
 9404 1679 17       		.uleb128 0x17
 9405 167a 16000000 		.4byte	.LASF124
 9406 167e 02       		.byte	0x2
 9407 167f 7F02     		.2byte	0x27f
 9408 1681 DE000000 		.4byte	0xde
 9409 1685 E6100000 		.4byte	.LLST109
 9410 1689 17       		.uleb128 0x17
 9411 168a E7050000 		.4byte	.LASF125
 9412 168e 02       		.byte	0x2
 9413 168f 8D02     		.2byte	0x28d
 9414 1691 BA000000 		.4byte	0xba
 9415 1695 25110000 		.4byte	.LLST110
 9416 1699 17       		.uleb128 0x17
 9417 169a 1D070000 		.4byte	.LASF126
 9418 169e 02       		.byte	0x2
 9419 169f 8E02     		.2byte	0x28e
 9420 16a1 BA000000 		.4byte	0xba
 9421 16a5 38110000 		.4byte	.LLST111
 9422 16a9 17       		.uleb128 0x17
 9423 16aa 9A050000 		.4byte	.LASF127
 9424 16ae 02       		.byte	0x2
 9425 16af 8F02     		.2byte	0x28f
 9426 16b1 BA000000 		.4byte	0xba
 9427 16b5 4B110000 		.4byte	.LLST112
 9428 16b9 17       		.uleb128 0x17
 9429 16ba 190D0000 		.4byte	.LASF128
 9430 16be 02       		.byte	0x2
 9431 16bf 9002     		.2byte	0x290
 9432 16c1 BA000000 		.4byte	0xba
 9433 16c5 5E110000 		.4byte	.LLST113
 9434 16c9 17       		.uleb128 0x17
 9435 16ca 030E0000 		.4byte	.LASF129
 9436 16ce 02       		.byte	0x2
 9437 16cf 9202     		.2byte	0x292
 9438 16d1 BA000000 		.4byte	0xba
 9439 16d5 71110000 		.4byte	.LLST114
 9440 16d9 12       		.uleb128 0x12
 9441 16da 32000000 		.4byte	.LVL498
 9442 16de 6B140000 		.4byte	0x146b
 9443 16e2 1C       		.uleb128 0x1c
 9444 16e3 38000000 		.4byte	.LVL499
 9445 16e7 98130000 		.4byte	0x1398
 9446 16eb F6160000 		.4byte	0x16f6
 9447 16ef 1B       		.uleb128 0x1b
 9448 16f0 01       		.uleb128 0x1
 9449 16f1 50       		.byte	0x50
ARM GAS  C:\Users\FRANKL~1\AppData\Local\Temp\ccebBo1q.s 			page 205


 9450 16f2 02       		.uleb128 0x2
 9451 16f3 09       		.byte	0x9
 9452 16f4 FF       		.byte	0xff
 9453 16f5 00       		.byte	0
 9454 16f6 12       		.uleb128 0x12
 9455 16f7 4A000000 		.4byte	.LVL503
 9456 16fb 6B140000 		.4byte	0x146b
 9457 16ff 1C       		.uleb128 0x1c
 9458 1700 50000000 		.4byte	.LVL504
 9459 1704 98130000 		.4byte	0x1398
 9460 1708 12170000 		.4byte	0x1712
 9461 170c 1B       		.uleb128 0x1b
 9462 170d 01       		.uleb128 0x1
 9463 170e 50       		.byte	0x50
 9464 170f 01       		.uleb128 0x1
 9465 1710 30       		.byte	0x30
 9466 1711 00       		.byte	0
 9467 1712 12       		.uleb128 0x12
 9468 1713 58000000 		.4byte	.LVL506
 9469 1717 98130000 		.4byte	0x1398
 9470 171b 12       		.uleb128 0x12
 9471 171c B8000000 		.4byte	.LVL517
 9472 1720 6B140000 		.4byte	0x146b
 9473 1724 00       		.byte	0
 9474 1725 27       		.uleb128 0x27
 9475 1726 680D0000 		.4byte	.LASF131
 9476 172a 02       		.byte	0x2
 9477 172b 9E02     		.2byte	0x29e
 9478 172d 00000000 		.4byte	.LFB101
 9479 1731 38000000 		.4byte	.LFE101-.LFB101
 9480 1735 01       		.uleb128 0x1
 9481 1736 9C       		.byte	0x9c
 9482 1737 55170000 		.4byte	0x1755
 9483 173b 26       		.uleb128 0x26
 9484 173c A8050000 		.4byte	.LASF132
 9485 1740 02       		.byte	0x2
 9486 1741 9E02     		.2byte	0x29e
 9487 1743 25000000 		.4byte	0x25
 9488 1747 B0110000 		.4byte	.LLST115
 9489 174b 12       		.uleb128 0x12
 9490 174c 24000000 		.4byte	.LVL524
 9491 1750 53160000 		.4byte	0x1653
 9492 1754 00       		.byte	0
 9493 1755 27       		.uleb128 0x27
 9494 1756 980B0000 		.4byte	.LASF133
 9495 175a 02       		.byte	0x2
 9496 175b A302     		.2byte	0x2a3
 9497 175d 00000000 		.4byte	.LFB102
 9498 1761 38000000 		.4byte	.LFE102-.LFB102
 9499 1765 01       		.uleb128 0x1
 9500 1766 9C       		.byte	0x9c
 9501 1767 85170000 		.4byte	0x1785
 9502 176b 26       		.uleb128 0x26
 9503 176c A8050000 		.4byte	.LASF132
 9504 1770 02       		.byte	0x2
 9505 1771 A302     		.2byte	0x2a3
 9506 1773 25000000 		.4byte	0x25
ARM GAS  C:\Users\FRANKL~1\AppData\Local\Temp\ccebBo1q.s 			page 206


 9507 1777 D3110000 		.4byte	.LLST116
 9508 177b 12       		.uleb128 0x12
 9509 177c 24000000 		.4byte	.LVL530
 9510 1780 81150000 		.4byte	0x1581
 9511 1784 00       		.byte	0
 9512 1785 27       		.uleb128 0x27
 9513 1786 FF090000 		.4byte	.LASF134
 9514 178a 02       		.byte	0x2
 9515 178b A902     		.2byte	0x2a9
 9516 178d 00000000 		.4byte	.LFB103
 9517 1791 14000000 		.4byte	.LFE103-.LFB103
 9518 1795 01       		.uleb128 0x1
 9519 1796 9C       		.byte	0x9c
 9520 1797 B4170000 		.4byte	0x17b4
 9521 179b 2C       		.uleb128 0x2c
 9522 179c 6D5600   		.ascii	"mV\000"
 9523 179f 02       		.byte	0x2
 9524 17a0 A902     		.2byte	0x2a9
 9525 17a2 25000000 		.4byte	0x25
 9526 17a6 F6110000 		.4byte	.LLST117
 9527 17aa 12       		.uleb128 0x12
 9528 17ab 0C000000 		.4byte	.LVL533
 9529 17af 25170000 		.4byte	0x1725
 9530 17b3 00       		.byte	0
 9531 17b4 27       		.uleb128 0x27
 9532 17b5 F4010000 		.4byte	.LASF135
 9533 17b9 02       		.byte	0x2
 9534 17ba AE02     		.2byte	0x2ae
 9535 17bc 00000000 		.4byte	.LFB104
 9536 17c0 14000000 		.4byte	.LFE104-.LFB104
 9537 17c4 01       		.uleb128 0x1
 9538 17c5 9C       		.byte	0x9c
 9539 17c6 E3170000 		.4byte	0x17e3
 9540 17ca 2C       		.uleb128 0x2c
 9541 17cb 6D5600   		.ascii	"mV\000"
 9542 17ce 02       		.byte	0x2
 9543 17cf AE02     		.2byte	0x2ae
 9544 17d1 25000000 		.4byte	0x25
 9545 17d5 19120000 		.4byte	.LLST118
 9546 17d9 12       		.uleb128 0x12
 9547 17da 0C000000 		.4byte	.LVL536
 9548 17de 55170000 		.4byte	0x1755
 9549 17e2 00       		.byte	0
 9550 17e3 2B       		.uleb128 0x2b
 9551 17e4 A4040000 		.4byte	.LASF136
 9552 17e8 02       		.byte	0x2
 9553 17e9 B402     		.2byte	0x2b4
 9554 17eb 00000000 		.4byte	.LFB105
 9555 17ef 1C000000 		.4byte	.LFE105-.LFB105
 9556 17f3 01       		.uleb128 0x1
 9557 17f4 9C       		.byte	0x9c
 9558 17f5 42180000 		.4byte	0x1842
 9559 17f9 1C       		.uleb128 0x1c
 9560 17fa 08000000 		.4byte	.LVL537
 9561 17fe C5120000 		.4byte	0x12c5
 9562 1802 0C180000 		.4byte	0x180c
 9563 1806 1B       		.uleb128 0x1b
ARM GAS  C:\Users\FRANKL~1\AppData\Local\Temp\ccebBo1q.s 			page 207


 9564 1807 01       		.uleb128 0x1
 9565 1808 50       		.byte	0x50
 9566 1809 01       		.uleb128 0x1
 9567 180a 30       		.byte	0x30
 9568 180b 00       		.byte	0
 9569 180c 1C       		.uleb128 0x1c
 9570 180d 0E000000 		.4byte	.LVL538
 9571 1811 98130000 		.4byte	0x1398
 9572 1815 1F180000 		.4byte	0x181f
 9573 1819 1B       		.uleb128 0x1b
 9574 181a 01       		.uleb128 0x1
 9575 181b 50       		.byte	0x50
 9576 181c 01       		.uleb128 0x1
 9577 181d 30       		.byte	0x30
 9578 181e 00       		.byte	0
 9579 181f 1C       		.uleb128 0x1c
 9580 1820 14000000 		.4byte	.LVL539
 9581 1824 AD380000 		.4byte	0x38ad
 9582 1828 32180000 		.4byte	0x1832
 9583 182c 1B       		.uleb128 0x1b
 9584 182d 01       		.uleb128 0x1
 9585 182e 50       		.byte	0x50
 9586 182f 01       		.uleb128 0x1
 9587 1830 30       		.byte	0x30
 9588 1831 00       		.byte	0
 9589 1832 1A       		.uleb128 0x1a
 9590 1833 1A000000 		.4byte	.LVL540
 9591 1837 B8380000 		.4byte	0x38b8
 9592 183b 1B       		.uleb128 0x1b
 9593 183c 01       		.uleb128 0x1
 9594 183d 50       		.byte	0x50
 9595 183e 01       		.uleb128 0x1
 9596 183f 30       		.byte	0x30
 9597 1840 00       		.byte	0
 9598 1841 00       		.byte	0
 9599 1842 27       		.uleb128 0x27
 9600 1843 EE0D0000 		.4byte	.LASF137
 9601 1847 02       		.byte	0x2
 9602 1848 BC02     		.2byte	0x2bc
 9603 184a 00000000 		.4byte	.LFB106
 9604 184e D0000000 		.4byte	.LFE106-.LFB106
 9605 1852 01       		.uleb128 0x1
 9606 1853 9C       		.byte	0x9c
 9607 1854 D8190000 		.4byte	0x19d8
 9608 1858 26       		.uleb128 0x26
 9609 1859 55070000 		.4byte	.LASF80
 9610 185d 02       		.byte	0x2
 9611 185e BC02     		.2byte	0x2bc
 9612 1860 C6000000 		.4byte	0xc6
 9613 1864 3C120000 		.4byte	.LLST119
 9614 1868 17       		.uleb128 0x17
 9615 1869 C5030000 		.4byte	.LASF138
 9616 186d 02       		.byte	0x2
 9617 186e BD02     		.2byte	0x2bd
 9618 1870 AE000000 		.4byte	0xae
 9619 1874 68120000 		.4byte	.LLST120
 9620 1878 16       		.uleb128 0x16
ARM GAS  C:\Users\FRANKL~1\AppData\Local\Temp\ccebBo1q.s 			page 208


 9621 1879 A8050000 		.4byte	.LASF132
 9622 187d 02       		.byte	0x2
 9623 187e C402     		.2byte	0x2c4
 9624 1880 EA000000 		.4byte	0xea
 9625 1884 02       		.uleb128 0x2
 9626 1885 91       		.byte	0x91
 9627 1886 64       		.sleb128 -28
 9628 1887 16       		.uleb128 0x16
 9629 1888 CA050000 		.4byte	.LASF139
 9630 188c 02       		.byte	0x2
 9631 188d C502     		.2byte	0x2c5
 9632 188f EA000000 		.4byte	0xea
 9633 1893 02       		.uleb128 0x2
 9634 1894 91       		.byte	0x91
 9635 1895 60       		.sleb128 -32
 9636 1896 15       		.uleb128 0x15
 9637 1897 22000000 		.4byte	.LBB47
 9638 189b 5E000000 		.4byte	.LBE47-.LBB47
 9639 189f 61190000 		.4byte	0x1961
 9640 18a3 18       		.uleb128 0x18
 9641 18a4 6900     		.ascii	"i\000"
 9642 18a6 02       		.byte	0x2
 9643 18a7 C802     		.2byte	0x2c8
 9644 18a9 AE000000 		.4byte	0xae
 9645 18ad 7B120000 		.4byte	.LLST121
 9646 18b1 1C       		.uleb128 0x1c
 9647 18b2 2A000000 		.4byte	.LVL548
 9648 18b6 470B0000 		.4byte	0xb47
 9649 18ba C5180000 		.4byte	0x18c5
 9650 18be 1B       		.uleb128 0x1b
 9651 18bf 01       		.uleb128 0x1
 9652 18c0 50       		.byte	0x50
 9653 18c1 02       		.uleb128 0x2
 9654 18c2 74       		.byte	0x74
 9655 18c3 00       		.sleb128 0
 9656 18c4 00       		.byte	0
 9657 18c5 1C       		.uleb128 0x1c
 9658 18c6 34000000 		.4byte	.LVL549
 9659 18ca 890C0000 		.4byte	0xc89
 9660 18ce E4180000 		.4byte	0x18e4
 9661 18d2 1B       		.uleb128 0x1b
 9662 18d3 01       		.uleb128 0x1
 9663 18d4 50       		.byte	0x50
 9664 18d5 02       		.uleb128 0x2
 9665 18d6 91       		.byte	0x91
 9666 18d7 64       		.sleb128 -28
 9667 18d8 1B       		.uleb128 0x1b
 9668 18d9 01       		.uleb128 0x1
 9669 18da 51       		.byte	0x51
 9670 18db 02       		.uleb128 0x2
 9671 18dc 91       		.byte	0x91
 9672 18dd 60       		.sleb128 -32
 9673 18de 1B       		.uleb128 0x1b
 9674 18df 01       		.uleb128 0x1
 9675 18e0 52       		.byte	0x52
 9676 18e1 01       		.uleb128 0x1
 9677 18e2 33       		.byte	0x33
ARM GAS  C:\Users\FRANKL~1\AppData\Local\Temp\ccebBo1q.s 			page 209


 9678 18e3 00       		.byte	0
 9679 18e4 1C       		.uleb128 0x1c
 9680 18e5 3E000000 		.4byte	.LVL550
 9681 18e9 890C0000 		.4byte	0xc89
 9682 18ed 04190000 		.4byte	0x1904
 9683 18f1 1B       		.uleb128 0x1b
 9684 18f2 01       		.uleb128 0x1
 9685 18f3 50       		.byte	0x50
 9686 18f4 02       		.uleb128 0x2
 9687 18f5 91       		.byte	0x91
 9688 18f6 64       		.sleb128 -28
 9689 18f7 1B       		.uleb128 0x1b
 9690 18f8 01       		.uleb128 0x1
 9691 18f9 51       		.byte	0x51
 9692 18fa 02       		.uleb128 0x2
 9693 18fb 91       		.byte	0x91
 9694 18fc 60       		.sleb128 -32
 9695 18fd 1B       		.uleb128 0x1b
 9696 18fe 01       		.uleb128 0x1
 9697 18ff 52       		.byte	0x52
 9698 1900 02       		.uleb128 0x2
 9699 1901 77       		.byte	0x77
 9700 1902 00       		.sleb128 0
 9701 1903 00       		.byte	0
 9702 1904 1C       		.uleb128 0x1c
 9703 1905 64000000 		.4byte	.LVL552
 9704 1909 FD370000 		.4byte	0x37fd
 9705 190d 28190000 		.4byte	0x1928
 9706 1911 1B       		.uleb128 0x1b
 9707 1912 01       		.uleb128 0x1
 9708 1913 50       		.byte	0x50
 9709 1914 02       		.uleb128 0x2
 9710 1915 75       		.byte	0x75
 9711 1916 00       		.sleb128 0
 9712 1917 1B       		.uleb128 0x1b
 9713 1918 01       		.uleb128 0x1
 9714 1919 51       		.byte	0x51
 9715 191a 05       		.uleb128 0x5
 9716 191b 03       		.byte	0x3
 9717 191c A8000000 		.4byte	.LC11
 9718 1920 1B       		.uleb128 0x1b
 9719 1921 02       		.uleb128 0x2
 9720 1922 7D       		.byte	0x7d
 9721 1923 00       		.sleb128 0
 9722 1924 02       		.uleb128 0x2
 9723 1925 76       		.byte	0x76
 9724 1926 00       		.sleb128 0
 9725 1927 00       		.byte	0
 9726 1928 1C       		.uleb128 0x1c
 9727 1929 6A000000 		.4byte	.LVL553
 9728 192d C6370000 		.4byte	0x37c6
 9729 1931 3C190000 		.4byte	0x193c
 9730 1935 1B       		.uleb128 0x1b
 9731 1936 01       		.uleb128 0x1
 9732 1937 50       		.byte	0x50
 9733 1938 02       		.uleb128 0x2
 9734 1939 75       		.byte	0x75
ARM GAS  C:\Users\FRANKL~1\AppData\Local\Temp\ccebBo1q.s 			page 210


 9735 193a 00       		.sleb128 0
 9736 193b 00       		.byte	0
 9737 193c 1C       		.uleb128 0x1c
 9738 193d 72000000 		.4byte	.LVL554
 9739 1941 D1030000 		.4byte	0x3d1
 9740 1945 50190000 		.4byte	0x1950
 9741 1949 1B       		.uleb128 0x1b
 9742 194a 01       		.uleb128 0x1
 9743 194b 50       		.byte	0x50
 9744 194c 02       		.uleb128 0x2
 9745 194d 75       		.byte	0x75
 9746 194e 00       		.sleb128 0
 9747 194f 00       		.byte	0
 9748 1950 1A       		.uleb128 0x1a
 9749 1951 78000000 		.4byte	.LVL555
 9750 1955 DC370000 		.4byte	0x37dc
 9751 1959 1B       		.uleb128 0x1b
 9752 195a 01       		.uleb128 0x1
 9753 195b 50       		.byte	0x50
 9754 195c 02       		.uleb128 0x2
 9755 195d 75       		.byte	0x75
 9756 195e 00       		.sleb128 0
 9757 195f 00       		.byte	0
 9758 1960 00       		.byte	0
 9759 1961 1C       		.uleb128 0x1c
 9760 1962 16000000 		.4byte	.LVL544
 9761 1966 55170000 		.4byte	0x1755
 9762 196a 76190000 		.4byte	0x1976
 9763 196e 1B       		.uleb128 0x1b
 9764 196f 01       		.uleb128 0x1
 9765 1970 50       		.byte	0x50
 9766 1971 03       		.uleb128 0x3
 9767 1972 F5       		.byte	0xf5
 9768 1973 04       		.uleb128 0x4
 9769 1974 25       		.uleb128 0x25
 9770 1975 00       		.byte	0
 9771 1976 1C       		.uleb128 0x1c
 9772 1977 1C000000 		.4byte	.LVL545
 9773 197b 25170000 		.4byte	0x1725
 9774 197f 8B190000 		.4byte	0x198b
 9775 1983 1B       		.uleb128 0x1b
 9776 1984 01       		.uleb128 0x1
 9777 1985 50       		.byte	0x50
 9778 1986 03       		.uleb128 0x3
 9779 1987 F5       		.byte	0xf5
 9780 1988 04       		.uleb128 0x4
 9781 1989 25       		.uleb128 0x25
 9782 198a 00       		.byte	0
 9783 198b 1C       		.uleb128 0x1c
 9784 198c 86000000 		.4byte	.LVL558
 9785 1990 470B0000 		.4byte	0xb47
 9786 1994 9F190000 		.4byte	0x199f
 9787 1998 1B       		.uleb128 0x1b
 9788 1999 01       		.uleb128 0x1
 9789 199a 50       		.byte	0x50
 9790 199b 02       		.uleb128 0x2
 9791 199c 78       		.byte	0x78
ARM GAS  C:\Users\FRANKL~1\AppData\Local\Temp\ccebBo1q.s 			page 211


 9792 199d 00       		.sleb128 0
 9793 199e 00       		.byte	0
 9794 199f 1C       		.uleb128 0x1c
 9795 19a0 A8000000 		.4byte	.LVL560
 9796 19a4 C6370000 		.4byte	0x37c6
 9797 19a8 B3190000 		.4byte	0x19b3
 9798 19ac 1B       		.uleb128 0x1b
 9799 19ad 01       		.uleb128 0x1
 9800 19ae 50       		.byte	0x50
 9801 19af 02       		.uleb128 0x2
 9802 19b0 75       		.byte	0x75
 9803 19b1 00       		.sleb128 0
 9804 19b2 00       		.byte	0
 9805 19b3 1C       		.uleb128 0x1c
 9806 19b4 B0000000 		.4byte	.LVL561
 9807 19b8 D1030000 		.4byte	0x3d1
 9808 19bc C7190000 		.4byte	0x19c7
 9809 19c0 1B       		.uleb128 0x1b
 9810 19c1 01       		.uleb128 0x1
 9811 19c2 50       		.byte	0x50
 9812 19c3 02       		.uleb128 0x2
 9813 19c4 75       		.byte	0x75
 9814 19c5 00       		.sleb128 0
 9815 19c6 00       		.byte	0
 9816 19c7 1A       		.uleb128 0x1a
 9817 19c8 B6000000 		.4byte	.LVL562
 9818 19cc DC370000 		.4byte	0x37dc
 9819 19d0 1B       		.uleb128 0x1b
 9820 19d1 01       		.uleb128 0x1
 9821 19d2 50       		.byte	0x50
 9822 19d3 02       		.uleb128 0x2
 9823 19d4 75       		.byte	0x75
 9824 19d5 00       		.sleb128 0
 9825 19d6 00       		.byte	0
 9826 19d7 00       		.byte	0
 9827 19d8 27       		.uleb128 0x27
 9828 19d9 DF0A0000 		.4byte	.LASF140
 9829 19dd 02       		.byte	0x2
 9830 19de DC02     		.2byte	0x2dc
 9831 19e0 00000000 		.4byte	.LFB107
 9832 19e4 6C000000 		.4byte	.LFE107-.LFB107
 9833 19e8 01       		.uleb128 0x1
 9834 19e9 9C       		.byte	0x9c
 9835 19ea CA1A0000 		.4byte	0x1aca
 9836 19ee 26       		.uleb128 0x26
 9837 19ef 740B0000 		.4byte	.LASF141
 9838 19f3 02       		.byte	0x2
 9839 19f4 DC02     		.2byte	0x2dc
 9840 19f6 C6000000 		.4byte	0xc6
 9841 19fa A5120000 		.4byte	.LLST122
 9842 19fe 26       		.uleb128 0x26
 9843 19ff DD0D0000 		.4byte	.LASF142
 9844 1a03 02       		.byte	0x2
 9845 1a04 DC02     		.2byte	0x2dc
 9846 1a06 C6000000 		.4byte	0xc6
 9847 1a0a D1120000 		.4byte	.LLST123
 9848 1a0e 26       		.uleb128 0x26
ARM GAS  C:\Users\FRANKL~1\AppData\Local\Temp\ccebBo1q.s 			page 212


 9849 1a0f 39040000 		.4byte	.LASF143
 9850 1a13 02       		.byte	0x2
 9851 1a14 DC02     		.2byte	0x2dc
 9852 1a16 C6000000 		.4byte	0xc6
 9853 1a1a F2120000 		.4byte	.LLST124
 9854 1a1e 16       		.uleb128 0x16
 9855 1a1f 7E0E0000 		.4byte	.LASF144
 9856 1a23 02       		.byte	0x2
 9857 1a24 DD02     		.2byte	0x2dd
 9858 1a26 25000000 		.4byte	0x25
 9859 1a2a 02       		.uleb128 0x2
 9860 1a2b 91       		.byte	0x91
 9861 1a2c 64       		.sleb128 -28
 9862 1a2d 16       		.uleb128 0x16
 9863 1a2e 3E0E0000 		.4byte	.LASF145
 9864 1a32 02       		.byte	0x2
 9865 1a33 DE02     		.2byte	0x2de
 9866 1a35 25000000 		.4byte	0x25
 9867 1a39 02       		.uleb128 0x2
 9868 1a3a 91       		.byte	0x91
 9869 1a3b 60       		.sleb128 -32
 9870 1a3c 1C       		.uleb128 0x1c
 9871 1a3d 18000000 		.4byte	.LVL568
 9872 1a41 CE0F0000 		.4byte	0xfce
 9873 1a45 621A0000 		.4byte	0x1a62
 9874 1a49 1B       		.uleb128 0x1b
 9875 1a4a 01       		.uleb128 0x1
 9876 1a4b 50       		.byte	0x50
 9877 1a4c 02       		.uleb128 0x2
 9878 1a4d 91       		.byte	0x91
 9879 1a4e 64       		.sleb128 -28
 9880 1a4f 1B       		.uleb128 0x1b
 9881 1a50 01       		.uleb128 0x1
 9882 1a51 51       		.byte	0x51
 9883 1a52 02       		.uleb128 0x2
 9884 1a53 91       		.byte	0x91
 9885 1a54 60       		.sleb128 -32
 9886 1a55 1B       		.uleb128 0x1b
 9887 1a56 01       		.uleb128 0x1
 9888 1a57 52       		.byte	0x52
 9889 1a58 03       		.uleb128 0x3
 9890 1a59 F3       		.byte	0xf3
 9891 1a5a 01       		.uleb128 0x1
 9892 1a5b 50       		.byte	0x50
 9893 1a5c 1B       		.uleb128 0x1b
 9894 1a5d 01       		.uleb128 0x1
 9895 1a5e 53       		.byte	0x53
 9896 1a5f 01       		.uleb128 0x1
 9897 1a60 30       		.byte	0x30
 9898 1a61 00       		.byte	0
 9899 1a62 12       		.uleb128 0x12
 9900 1a63 26000000 		.4byte	.LVL570
 9901 1a67 61120000 		.4byte	0x1261
 9902 1a6b 12       		.uleb128 0x12
 9903 1a6c 2C000000 		.4byte	.LVL571
 9904 1a70 93120000 		.4byte	0x1293
 9905 1a74 1C       		.uleb128 0x1c
ARM GAS  C:\Users\FRANKL~1\AppData\Local\Temp\ccebBo1q.s 			page 213


 9906 1a75 4C000000 		.4byte	.LVL574
 9907 1a79 FD370000 		.4byte	0x37fd
 9908 1a7d 911A0000 		.4byte	0x1a91
 9909 1a81 1B       		.uleb128 0x1b
 9910 1a82 01       		.uleb128 0x1
 9911 1a83 50       		.byte	0x50
 9912 1a84 02       		.uleb128 0x2
 9913 1a85 74       		.byte	0x74
 9914 1a86 00       		.sleb128 0
 9915 1a87 1B       		.uleb128 0x1b
 9916 1a88 01       		.uleb128 0x1
 9917 1a89 51       		.byte	0x51
 9918 1a8a 05       		.uleb128 0x5
 9919 1a8b 03       		.byte	0x3
 9920 1a8c E0000000 		.4byte	.LC13
 9921 1a90 00       		.byte	0
 9922 1a91 1C       		.uleb128 0x1c
 9923 1a92 52000000 		.4byte	.LVL575
 9924 1a96 C6370000 		.4byte	0x37c6
 9925 1a9a A51A0000 		.4byte	0x1aa5
 9926 1a9e 1B       		.uleb128 0x1b
 9927 1a9f 01       		.uleb128 0x1
 9928 1aa0 50       		.byte	0x50
 9929 1aa1 02       		.uleb128 0x2
 9930 1aa2 74       		.byte	0x74
 9931 1aa3 00       		.sleb128 0
 9932 1aa4 00       		.byte	0
 9933 1aa5 1C       		.uleb128 0x1c
 9934 1aa6 5A000000 		.4byte	.LVL576
 9935 1aaa D1030000 		.4byte	0x3d1
 9936 1aae B91A0000 		.4byte	0x1ab9
 9937 1ab2 1B       		.uleb128 0x1b
 9938 1ab3 01       		.uleb128 0x1
 9939 1ab4 50       		.byte	0x50
 9940 1ab5 02       		.uleb128 0x2
 9941 1ab6 74       		.byte	0x74
 9942 1ab7 00       		.sleb128 0
 9943 1ab8 00       		.byte	0
 9944 1ab9 1A       		.uleb128 0x1a
 9945 1aba 60000000 		.4byte	.LVL577
 9946 1abe DC370000 		.4byte	0x37dc
 9947 1ac2 1B       		.uleb128 0x1b
 9948 1ac3 01       		.uleb128 0x1
 9949 1ac4 50       		.byte	0x50
 9950 1ac5 02       		.uleb128 0x2
 9951 1ac6 74       		.byte	0x74
 9952 1ac7 00       		.sleb128 0
 9953 1ac8 00       		.byte	0
 9954 1ac9 00       		.byte	0
 9955 1aca 14       		.uleb128 0x14
 9956 1acb D10C0000 		.4byte	.LASF146
 9957 1acf 02       		.byte	0x2
 9958 1ad0 F302     		.2byte	0x2f3
 9959 1ad2 00000000 		.4byte	.LFB108
 9960 1ad6 1A000000 		.4byte	.LFE108-.LFB108
 9961 1ada 01       		.uleb128 0x1
 9962 1adb 9C       		.byte	0x9c
ARM GAS  C:\Users\FRANKL~1\AppData\Local\Temp\ccebBo1q.s 			page 214


 9963 1adc 211B0000 		.4byte	0x1b21
 9964 1ae0 2C       		.uleb128 0x2c
 9965 1ae1 6E00     		.ascii	"n\000"
 9966 1ae3 02       		.byte	0x2
 9967 1ae4 F302     		.2byte	0x2f3
 9968 1ae6 C6000000 		.4byte	0xc6
 9969 1aea 13130000 		.4byte	.LLST125
 9970 1aee 19       		.uleb128 0x19
 9971 1aef 04000000 		.4byte	.LBB48
 9972 1af3 14000000 		.4byte	.LBE48-.LBB48
 9973 1af7 18       		.uleb128 0x18
 9974 1af8 6900     		.ascii	"i\000"
 9975 1afa 02       		.byte	0x2
 9976 1afb F402     		.2byte	0x2f4
 9977 1afd C6000000 		.4byte	0xc6
 9978 1b01 31130000 		.4byte	.LLST126
 9979 1b05 1A       		.uleb128 0x1a
 9980 1b06 12000000 		.4byte	.LVL581
 9981 1b0a D8190000 		.4byte	0x19d8
 9982 1b0e 1B       		.uleb128 0x1b
 9983 1b0f 01       		.uleb128 0x1
 9984 1b10 50       		.byte	0x50
 9985 1b11 02       		.uleb128 0x2
 9986 1b12 08       		.byte	0x8
 9987 1b13 64       		.byte	0x64
 9988 1b14 1B       		.uleb128 0x1b
 9989 1b15 01       		.uleb128 0x1
 9990 1b16 51       		.byte	0x51
 9991 1b17 01       		.uleb128 0x1
 9992 1b18 31       		.byte	0x31
 9993 1b19 1B       		.uleb128 0x1b
 9994 1b1a 01       		.uleb128 0x1
 9995 1b1b 52       		.byte	0x52
 9996 1b1c 01       		.uleb128 0x1
 9997 1b1d 3A       		.byte	0x3a
 9998 1b1e 00       		.byte	0
 9999 1b1f 00       		.byte	0
 10000 1b20 00       		.byte	0
 10001 1b21 2B       		.uleb128 0x2b
 10002 1b22 79040000 		.4byte	.LASF147
 10003 1b26 02       		.byte	0x2
 10004 1b27 FA02     		.2byte	0x2fa
 10005 1b29 00000000 		.4byte	.LFB109
 10006 1b2d 2C000000 		.4byte	.LFE109-.LFB109
 10007 1b31 01       		.uleb128 0x1
 10008 1b32 9C       		.byte	0x9c
 10009 1b33 A81B0000 		.4byte	0x1ba8
 10010 1b37 15       		.uleb128 0x15
 10011 1b38 0E000000 		.4byte	.LBB49
 10012 1b3c 1C000000 		.4byte	.LBE49-.LBB49
 10013 1b40 831B0000 		.4byte	0x1b83
 10014 1b44 17       		.uleb128 0x17
 10015 1b45 DD000000 		.4byte	.LASF148
 10016 1b49 02       		.byte	0x2
 10017 1b4a FE02     		.2byte	0x2fe
 10018 1b4c BA000000 		.4byte	0xba
 10019 1b50 50130000 		.4byte	.LLST127
ARM GAS  C:\Users\FRANKL~1\AppData\Local\Temp\ccebBo1q.s 			page 215


 10020 1b54 1C       		.uleb128 0x1c
 10021 1b55 18000000 		.4byte	.LVL586
 10022 1b59 B8380000 		.4byte	0x38b8
 10023 1b5d 681B0000 		.4byte	0x1b68
 10024 1b61 1B       		.uleb128 0x1b
 10025 1b62 01       		.uleb128 0x1
 10026 1b63 50       		.byte	0x50
 10027 1b64 02       		.uleb128 0x2
 10028 1b65 74       		.byte	0x74
 10029 1b66 00       		.sleb128 0
 10030 1b67 00       		.byte	0
 10031 1b68 1A       		.uleb128 0x1a
 10032 1b69 22000000 		.4byte	.LVL587
 10033 1b6d D8190000 		.4byte	0x19d8
 10034 1b71 1B       		.uleb128 0x1b
 10035 1b72 01       		.uleb128 0x1
 10036 1b73 50       		.byte	0x50
 10037 1b74 02       		.uleb128 0x2
 10038 1b75 08       		.byte	0x8
 10039 1b76 64       		.byte	0x64
 10040 1b77 1B       		.uleb128 0x1b
 10041 1b78 01       		.uleb128 0x1
 10042 1b79 51       		.byte	0x51
 10043 1b7a 01       		.uleb128 0x1
 10044 1b7b 31       		.byte	0x31
 10045 1b7c 1B       		.uleb128 0x1b
 10046 1b7d 01       		.uleb128 0x1
 10047 1b7e 52       		.byte	0x52
 10048 1b7f 01       		.uleb128 0x1
 10049 1b80 31       		.byte	0x31
 10050 1b81 00       		.byte	0
 10051 1b82 00       		.byte	0
 10052 1b83 1C       		.uleb128 0x1c
 10053 1b84 08000000 		.4byte	.LVL583
 10054 1b88 AD380000 		.4byte	0x38ad
 10055 1b8c 971B0000 		.4byte	0x1b97
 10056 1b90 1B       		.uleb128 0x1b
 10057 1b91 01       		.uleb128 0x1
 10058 1b92 50       		.byte	0x50
 10059 1b93 02       		.uleb128 0x2
 10060 1b94 08       		.byte	0x8
 10061 1b95 5A       		.byte	0x5a
 10062 1b96 00       		.byte	0
 10063 1b97 1A       		.uleb128 0x1a
 10064 1b98 0E000000 		.4byte	.LVL584
 10065 1b9c B8380000 		.4byte	0x38b8
 10066 1ba0 1B       		.uleb128 0x1b
 10067 1ba1 01       		.uleb128 0x1
 10068 1ba2 50       		.byte	0x50
 10069 1ba3 02       		.uleb128 0x2
 10070 1ba4 09       		.byte	0x9
 10071 1ba5 FE       		.byte	0xfe
 10072 1ba6 00       		.byte	0
 10073 1ba7 00       		.byte	0
 10074 1ba8 14       		.uleb128 0x14
 10075 1ba9 2A060000 		.4byte	.LASF149
 10076 1bad 02       		.byte	0x2
ARM GAS  C:\Users\FRANKL~1\AppData\Local\Temp\ccebBo1q.s 			page 216


 10077 1bae 0403     		.2byte	0x304
 10078 1bb0 00000000 		.4byte	.LFB110
 10079 1bb4 AC000000 		.4byte	.LFE110-.LFB110
 10080 1bb8 01       		.uleb128 0x1
 10081 1bb9 9C       		.byte	0x9c
 10082 1bba AD1C0000 		.4byte	0x1cad
 10083 1bbe 26       		.uleb128 0x26
 10084 1bbf 510A0000 		.4byte	.LASF150
 10085 1bc3 02       		.byte	0x2
 10086 1bc4 0403     		.2byte	0x304
 10087 1bc6 AE000000 		.4byte	0xae
 10088 1bca 7A130000 		.4byte	.LLST128
 10089 1bce 2D       		.uleb128 0x2d
 10090 1bcf E50E0000 		.4byte	.LASF153
 10091 1bd3 02       		.byte	0x2
 10092 1bd4 0C03     		.2byte	0x30c
 10093 1bd6 D2000000 		.4byte	0xd2
 10094 1bda 1F       		.uleb128 0x1f
 10095 1bdb F0000000 		.4byte	.Ldebug_ranges0+0xf0
 10096 1bdf 931C0000 		.4byte	0x1c93
 10097 1be3 18       		.uleb128 0x18
 10098 1be4 6C00     		.ascii	"l\000"
 10099 1be6 02       		.byte	0x2
 10100 1be7 0E03     		.2byte	0x30e
 10101 1be9 AE000000 		.4byte	0xae
 10102 1bed B4130000 		.4byte	.LLST129
 10103 1bf1 28       		.uleb128 0x28
 10104 1bf2 08010000 		.4byte	.Ldebug_ranges0+0x108
 10105 1bf6 17       		.uleb128 0x17
 10106 1bf7 C7000000 		.4byte	.LASF151
 10107 1bfb 02       		.byte	0x2
 10108 1bfc 0F03     		.2byte	0x30f
 10109 1bfe D2000000 		.4byte	0xd2
 10110 1c02 D2130000 		.4byte	.LLST130
 10111 1c06 17       		.uleb128 0x17
 10112 1c07 D0010000 		.4byte	.LASF110
 10113 1c0b 02       		.byte	0x2
 10114 1c0c 1003     		.2byte	0x310
 10115 1c0e AE000000 		.4byte	0xae
 10116 1c12 F1130000 		.4byte	.LLST131
 10117 1c16 17       		.uleb128 0x17
 10118 1c17 15060000 		.4byte	.LASF111
 10119 1c1b 02       		.byte	0x2
 10120 1c1c 1503     		.2byte	0x315
 10121 1c1e AE000000 		.4byte	0xae
 10122 1c22 32140000 		.4byte	.LLST132
 10123 1c26 28       		.uleb128 0x28
 10124 1c27 20010000 		.4byte	.Ldebug_ranges0+0x120
 10125 1c2b 18       		.uleb128 0x18
 10126 1c2c 6900     		.ascii	"i\000"
 10127 1c2e 02       		.byte	0x2
 10128 1c2f 1D03     		.2byte	0x31d
 10129 1c31 AE000000 		.4byte	0xae
 10130 1c35 52140000 		.4byte	.LLST133
 10131 1c39 28       		.uleb128 0x28
 10132 1c3a 38010000 		.4byte	.Ldebug_ranges0+0x138
 10133 1c3e 18       		.uleb128 0x18
ARM GAS  C:\Users\FRANKL~1\AppData\Local\Temp\ccebBo1q.s 			page 217


 10134 1c3f 6A00     		.ascii	"j\000"
 10135 1c41 02       		.byte	0x2
 10136 1c42 1E03     		.2byte	0x31e
 10137 1c44 AE000000 		.4byte	0xae
 10138 1c48 70140000 		.4byte	.LLST134
 10139 1c4c 1C       		.uleb128 0x1c
 10140 1c4d 5C000000 		.4byte	.LVL603
 10141 1c51 6B140000 		.4byte	0x146b
 10142 1c55 611C0000 		.4byte	0x1c61
 10143 1c59 1B       		.uleb128 0x1b
 10144 1c5a 01       		.uleb128 0x1
 10145 1c5b 50       		.byte	0x50
 10146 1c5c 03       		.uleb128 0x3
 10147 1c5d 75       		.byte	0x75
 10148 1c5e 00       		.sleb128 0
 10149 1c5f 20       		.byte	0x20
 10150 1c60 00       		.byte	0
 10151 1c61 1C       		.uleb128 0x1c
 10152 1c62 62000000 		.4byte	.LVL604
 10153 1c66 98130000 		.4byte	0x1398
 10154 1c6a 751C0000 		.4byte	0x1c75
 10155 1c6e 1B       		.uleb128 0x1b
 10156 1c6f 01       		.uleb128 0x1
 10157 1c70 50       		.byte	0x50
 10158 1c71 02       		.uleb128 0x2
 10159 1c72 75       		.byte	0x75
 10160 1c73 00       		.sleb128 0
 10161 1c74 00       		.byte	0
 10162 1c75 1A       		.uleb128 0x1a
 10163 1c76 6C000000 		.4byte	.LVL605
 10164 1c7a D8190000 		.4byte	0x19d8
 10165 1c7e 1B       		.uleb128 0x1b
 10166 1c7f 01       		.uleb128 0x1
 10167 1c80 50       		.byte	0x50
 10168 1c81 02       		.uleb128 0x2
 10169 1c82 08       		.byte	0x8
 10170 1c83 21       		.byte	0x21
 10171 1c84 1B       		.uleb128 0x1b
 10172 1c85 01       		.uleb128 0x1
 10173 1c86 51       		.byte	0x51
 10174 1c87 01       		.uleb128 0x1
 10175 1c88 31       		.byte	0x31
 10176 1c89 1B       		.uleb128 0x1b
 10177 1c8a 01       		.uleb128 0x1
 10178 1c8b 52       		.byte	0x52
 10179 1c8c 01       		.uleb128 0x1
 10180 1c8d 31       		.byte	0x31
 10181 1c8e 00       		.byte	0
 10182 1c8f 00       		.byte	0
 10183 1c90 00       		.byte	0
 10184 1c91 00       		.byte	0
 10185 1c92 00       		.byte	0
 10186 1c93 12       		.uleb128 0x12
 10187 1c94 1A000000 		.4byte	.LVL592
 10188 1c98 6B140000 		.4byte	0x146b
 10189 1c9c 1A       		.uleb128 0x1a
 10190 1c9d 26000000 		.4byte	.LVL595
ARM GAS  C:\Users\FRANKL~1\AppData\Local\Temp\ccebBo1q.s 			page 218


 10191 1ca1 6B140000 		.4byte	0x146b
 10192 1ca5 1B       		.uleb128 0x1b
 10193 1ca6 01       		.uleb128 0x1
 10194 1ca7 50       		.byte	0x50
 10195 1ca8 02       		.uleb128 0x2
 10196 1ca9 09       		.byte	0x9
 10197 1caa FE       		.byte	0xfe
 10198 1cab 00       		.byte	0
 10199 1cac 00       		.byte	0
 10200 1cad 14       		.uleb128 0x14
 10201 1cae 060B0000 		.4byte	.LASF152
 10202 1cb2 02       		.byte	0x2
 10203 1cb3 2B03     		.2byte	0x32b
 10204 1cb5 00000000 		.4byte	.LFB111
 10205 1cb9 84000000 		.4byte	.LFE111-.LFB111
 10206 1cbd 01       		.uleb128 0x1
 10207 1cbe 9C       		.byte	0x9c
 10208 1cbf B61D0000 		.4byte	0x1db6
 10209 1cc3 26       		.uleb128 0x26
 10210 1cc4 510A0000 		.4byte	.LASF150
 10211 1cc8 02       		.byte	0x2
 10212 1cc9 2B03     		.2byte	0x32b
 10213 1ccb AE000000 		.4byte	0xae
 10214 1ccf 99140000 		.4byte	.LLST135
 10215 1cd3 2E       		.uleb128 0x2e
 10216 1cd4 E50E0000 		.4byte	.LASF153
 10217 1cd8 02       		.byte	0x2
 10218 1cd9 2E03     		.2byte	0x32e
 10219 1cdb D2000000 		.4byte	0xd2
 10220 1cdf 10       		.byte	0x10
 10221 1ce0 15       		.uleb128 0x15
 10222 1ce1 0C000000 		.4byte	.LBB58
 10223 1ce5 6E000000 		.4byte	.LBE58-.LBB58
 10224 1ce9 A51D0000 		.4byte	0x1da5
 10225 1ced 18       		.uleb128 0x18
 10226 1cee 6C00     		.ascii	"l\000"
 10227 1cf0 02       		.byte	0x2
 10228 1cf1 3003     		.2byte	0x330
 10229 1cf3 AE000000 		.4byte	0xae
 10230 1cf7 BA140000 		.4byte	.LLST136
 10231 1cfb 19       		.uleb128 0x19
 10232 1cfc 12000000 		.4byte	.LBB59
 10233 1d00 5C000000 		.4byte	.LBE59-.LBB59
 10234 1d04 17       		.uleb128 0x17
 10235 1d05 C7000000 		.4byte	.LASF151
 10236 1d09 02       		.byte	0x2
 10237 1d0a 3103     		.2byte	0x331
 10238 1d0c D2000000 		.4byte	0xd2
 10239 1d10 E4140000 		.4byte	.LLST137
 10240 1d14 17       		.uleb128 0x17
 10241 1d15 D0010000 		.4byte	.LASF110
 10242 1d19 02       		.byte	0x2
 10243 1d1a 3203     		.2byte	0x332
 10244 1d1c AE000000 		.4byte	0xae
 10245 1d20 03150000 		.4byte	.LLST138
 10246 1d24 17       		.uleb128 0x17
 10247 1d25 15060000 		.4byte	.LASF111
ARM GAS  C:\Users\FRANKL~1\AppData\Local\Temp\ccebBo1q.s 			page 219


 10248 1d29 02       		.byte	0x2
 10249 1d2a 3303     		.2byte	0x333
 10250 1d2c AE000000 		.4byte	0xae
 10251 1d30 22150000 		.4byte	.LLST139
 10252 1d34 19       		.uleb128 0x19
 10253 1d35 28000000 		.4byte	.LBB60
 10254 1d39 46000000 		.4byte	.LBE60-.LBB60
 10255 1d3d 18       		.uleb128 0x18
 10256 1d3e 6900     		.ascii	"i\000"
 10257 1d40 02       		.byte	0x2
 10258 1d41 3B03     		.2byte	0x33b
 10259 1d43 AE000000 		.4byte	0xae
 10260 1d47 42150000 		.4byte	.LLST140
 10261 1d4b 28       		.uleb128 0x28
 10262 1d4c 50010000 		.4byte	.Ldebug_ranges0+0x150
 10263 1d50 18       		.uleb128 0x18
 10264 1d51 6A00     		.ascii	"j\000"
 10265 1d53 02       		.byte	0x2
 10266 1d54 3C03     		.2byte	0x33c
 10267 1d56 AE000000 		.4byte	0xae
 10268 1d5a 60150000 		.4byte	.LLST141
 10269 1d5e 1C       		.uleb128 0x1c
 10270 1d5f 36000000 		.4byte	.LVL621
 10271 1d63 6B140000 		.4byte	0x146b
 10272 1d67 731D0000 		.4byte	0x1d73
 10273 1d6b 1B       		.uleb128 0x1b
 10274 1d6c 01       		.uleb128 0x1
 10275 1d6d 50       		.byte	0x50
 10276 1d6e 03       		.uleb128 0x3
 10277 1d6f 75       		.byte	0x75
 10278 1d70 00       		.sleb128 0
 10279 1d71 20       		.byte	0x20
 10280 1d72 00       		.byte	0
 10281 1d73 1C       		.uleb128 0x1c
 10282 1d74 3C000000 		.4byte	.LVL622
 10283 1d78 98130000 		.4byte	0x1398
 10284 1d7c 871D0000 		.4byte	0x1d87
 10285 1d80 1B       		.uleb128 0x1b
 10286 1d81 01       		.uleb128 0x1
 10287 1d82 50       		.byte	0x50
 10288 1d83 02       		.uleb128 0x2
 10289 1d84 75       		.byte	0x75
 10290 1d85 00       		.sleb128 0
 10291 1d86 00       		.byte	0
 10292 1d87 1A       		.uleb128 0x1a
 10293 1d88 46000000 		.4byte	.LVL623
 10294 1d8c D8190000 		.4byte	0x19d8
 10295 1d90 1B       		.uleb128 0x1b
 10296 1d91 01       		.uleb128 0x1
 10297 1d92 50       		.byte	0x50
 10298 1d93 02       		.uleb128 0x2
 10299 1d94 08       		.byte	0x8
 10300 1d95 21       		.byte	0x21
 10301 1d96 1B       		.uleb128 0x1b
 10302 1d97 01       		.uleb128 0x1
 10303 1d98 51       		.byte	0x51
 10304 1d99 01       		.uleb128 0x1
ARM GAS  C:\Users\FRANKL~1\AppData\Local\Temp\ccebBo1q.s 			page 220


 10305 1d9a 31       		.byte	0x31
 10306 1d9b 1B       		.uleb128 0x1b
 10307 1d9c 01       		.uleb128 0x1
 10308 1d9d 52       		.byte	0x52
 10309 1d9e 01       		.uleb128 0x1
 10310 1d9f 31       		.byte	0x31
 10311 1da0 00       		.byte	0
 10312 1da1 00       		.byte	0
 10313 1da2 00       		.byte	0
 10314 1da3 00       		.byte	0
 10315 1da4 00       		.byte	0
 10316 1da5 1A       		.uleb128 0x1a
 10317 1da6 0C000000 		.4byte	.LVL617
 10318 1daa 6B140000 		.4byte	0x146b
 10319 1dae 1B       		.uleb128 0x1b
 10320 1daf 01       		.uleb128 0x1
 10321 1db0 50       		.byte	0x50
 10322 1db1 02       		.uleb128 0x2
 10323 1db2 09       		.byte	0x9
 10324 1db3 FE       		.byte	0xfe
 10325 1db4 00       		.byte	0
 10326 1db5 00       		.byte	0
 10327 1db6 2B       		.uleb128 0x2b
 10328 1db7 AC070000 		.4byte	.LASF154
 10329 1dbb 02       		.byte	0x2
 10330 1dbc 4A03     		.2byte	0x34a
 10331 1dbe 00000000 		.4byte	.LFB112
 10332 1dc2 98000000 		.4byte	.LFE112-.LFB112
 10333 1dc6 01       		.uleb128 0x1
 10334 1dc7 9C       		.byte	0x9c
 10335 1dc8 AD1E0000 		.4byte	0x1ead
 10336 1dcc 17       		.uleb128 0x17
 10337 1dcd B60D0000 		.4byte	.LASF155
 10338 1dd1 02       		.byte	0x2
 10339 1dd2 4B03     		.2byte	0x34b
 10340 1dd4 AE000000 		.4byte	0xae
 10341 1dd8 89150000 		.4byte	.LLST142
 10342 1ddc 2E       		.uleb128 0x2e
 10343 1ddd 700D0000 		.4byte	.LASF156
 10344 1de1 02       		.byte	0x2
 10345 1de2 4C03     		.2byte	0x34c
 10346 1de4 D2000000 		.4byte	0xd2
 10347 1de8 01       		.byte	0x1
 10348 1de9 2E       		.uleb128 0x2e
 10349 1dea 4B0F0000 		.4byte	.LASF157
 10350 1dee 02       		.byte	0x2
 10351 1def 4D03     		.2byte	0x34d
 10352 1df1 AE000000 		.4byte	0xae
 10353 1df5 00       		.byte	0
 10354 1df6 2E       		.uleb128 0x2e
 10355 1df7 E9080000 		.4byte	.LASF158
 10356 1dfb 02       		.byte	0x2
 10357 1dfc 4E03     		.2byte	0x34e
 10358 1dfe AE000000 		.4byte	0xae
 10359 1e02 00       		.byte	0
 10360 1e03 17       		.uleb128 0x17
 10361 1e04 87040000 		.4byte	.LASF159
ARM GAS  C:\Users\FRANKL~1\AppData\Local\Temp\ccebBo1q.s 			page 221


 10362 1e08 02       		.byte	0x2
 10363 1e09 4F03     		.2byte	0x34f
 10364 1e0b AE000000 		.4byte	0xae
 10365 1e0f BE150000 		.4byte	.LLST143
 10366 1e13 17       		.uleb128 0x17
 10367 1e14 2E020000 		.4byte	.LASF160
 10368 1e18 02       		.byte	0x2
 10369 1e19 5003     		.2byte	0x350
 10370 1e1b AE000000 		.4byte	0xae
 10371 1e1f E8150000 		.4byte	.LLST144
 10372 1e23 2E       		.uleb128 0x2e
 10373 1e24 88060000 		.4byte	.LASF161
 10374 1e28 02       		.byte	0x2
 10375 1e29 5203     		.2byte	0x352
 10376 1e2b D2000000 		.4byte	0xd2
 10377 1e2f 01       		.byte	0x1
 10378 1e30 2E       		.uleb128 0x2e
 10379 1e31 83090000 		.4byte	.LASF162
 10380 1e35 02       		.byte	0x2
 10381 1e36 5303     		.2byte	0x353
 10382 1e38 AE000000 		.4byte	0xae
 10383 1e3c 00       		.byte	0
 10384 1e3d 2E       		.uleb128 0x2e
 10385 1e3e 0D0E0000 		.4byte	.LASF163
 10386 1e42 02       		.byte	0x2
 10387 1e43 5403     		.2byte	0x354
 10388 1e45 AE000000 		.4byte	0xae
 10389 1e49 00       		.byte	0
 10390 1e4a 17       		.uleb128 0x17
 10391 1e4b 37010000 		.4byte	.LASF164
 10392 1e4f 02       		.byte	0x2
 10393 1e50 5503     		.2byte	0x355
 10394 1e52 AE000000 		.4byte	0xae
 10395 1e56 12160000 		.4byte	.LLST145
 10396 1e5a 17       		.uleb128 0x17
 10397 1e5b 9B0C0000 		.4byte	.LASF165
 10398 1e5f 02       		.byte	0x2
 10399 1e60 5603     		.2byte	0x356
 10400 1e62 AE000000 		.4byte	0xae
 10401 1e66 3C160000 		.4byte	.LLST146
 10402 1e6a 1C       		.uleb128 0x1c
 10403 1e6b 52000000 		.4byte	.LVL640
 10404 1e6f 6B140000 		.4byte	0x146b
 10405 1e73 7E1E0000 		.4byte	0x1e7e
 10406 1e77 1B       		.uleb128 0x1b
 10407 1e78 01       		.uleb128 0x1
 10408 1e79 50       		.byte	0x50
 10409 1e7a 02       		.uleb128 0x2
 10410 1e7b 75       		.byte	0x75
 10411 1e7c 00       		.sleb128 0
 10412 1e7d 00       		.byte	0
 10413 1e7e 1C       		.uleb128 0x1c
 10414 1e7f 58000000 		.4byte	.LVL641
 10415 1e83 98130000 		.4byte	0x1398
 10416 1e87 921E0000 		.4byte	0x1e92
 10417 1e8b 1B       		.uleb128 0x1b
 10418 1e8c 01       		.uleb128 0x1
ARM GAS  C:\Users\FRANKL~1\AppData\Local\Temp\ccebBo1q.s 			page 222


 10419 1e8d 50       		.byte	0x50
 10420 1e8e 02       		.uleb128 0x2
 10421 1e8f 76       		.byte	0x76
 10422 1e90 00       		.sleb128 0
 10423 1e91 00       		.byte	0
 10424 1e92 1A       		.uleb128 0x1a
 10425 1e93 62000000 		.4byte	.LVL642
 10426 1e97 D8190000 		.4byte	0x19d8
 10427 1e9b 1B       		.uleb128 0x1b
 10428 1e9c 01       		.uleb128 0x1
 10429 1e9d 50       		.byte	0x50
 10430 1e9e 02       		.uleb128 0x2
 10431 1e9f 08       		.byte	0x8
 10432 1ea0 64       		.byte	0x64
 10433 1ea1 1B       		.uleb128 0x1b
 10434 1ea2 01       		.uleb128 0x1
 10435 1ea3 51       		.byte	0x51
 10436 1ea4 01       		.uleb128 0x1
 10437 1ea5 31       		.byte	0x31
 10438 1ea6 1B       		.uleb128 0x1b
 10439 1ea7 01       		.uleb128 0x1
 10440 1ea8 52       		.byte	0x52
 10441 1ea9 01       		.uleb128 0x1
 10442 1eaa 31       		.byte	0x31
 10443 1eab 00       		.byte	0
 10444 1eac 00       		.byte	0
 10445 1ead 14       		.uleb128 0x14
 10446 1eae 9C020000 		.4byte	.LASF166
 10447 1eb2 02       		.byte	0x2
 10448 1eb3 7203     		.2byte	0x372
 10449 1eb5 00000000 		.4byte	.LFB113
 10450 1eb9 90000000 		.4byte	.LFE113-.LFB113
 10451 1ebd 01       		.uleb128 0x1
 10452 1ebe 9C       		.byte	0x9c
 10453 1ebf 18200000 		.4byte	0x2018
 10454 1ec3 26       		.uleb128 0x26
 10455 1ec4 2F0F0000 		.4byte	.LASF167
 10456 1ec8 02       		.byte	0x2
 10457 1ec9 7203     		.2byte	0x372
 10458 1ecb AE000000 		.4byte	0xae
 10459 1ecf 66160000 		.4byte	.LLST147
 10460 1ed3 26       		.uleb128 0x26
 10461 1ed4 510A0000 		.4byte	.LASF150
 10462 1ed8 02       		.byte	0x2
 10463 1ed9 7203     		.2byte	0x372
 10464 1edb AE000000 		.4byte	0xae
 10465 1edf 87160000 		.4byte	.LLST148
 10466 1ee3 19       		.uleb128 0x19
 10467 1ee4 08000000 		.4byte	.LBB63
 10468 1ee8 88000000 		.4byte	.LBE63-.LBB63
 10469 1eec 17       		.uleb128 0x17
 10470 1eed 560A0000 		.4byte	.LASF168
 10471 1ef1 02       		.byte	0x2
 10472 1ef2 7303     		.2byte	0x373
 10473 1ef4 AE000000 		.4byte	0xae
 10474 1ef8 A8160000 		.4byte	.LLST149
 10475 1efc 19       		.uleb128 0x19
ARM GAS  C:\Users\FRANKL~1\AppData\Local\Temp\ccebBo1q.s 			page 223


 10476 1efd 0C000000 		.4byte	.LBB64
 10477 1f01 6E000000 		.4byte	.LBE64-.LBB64
 10478 1f05 17       		.uleb128 0x17
 10479 1f06 C50D0000 		.4byte	.LASF169
 10480 1f0a 02       		.byte	0x2
 10481 1f0b 7403     		.2byte	0x374
 10482 1f0d AE000000 		.4byte	0xae
 10483 1f11 C7160000 		.4byte	.LLST150
 10484 1f15 17       		.uleb128 0x17
 10485 1f16 CE0D0000 		.4byte	.LASF170
 10486 1f1a 02       		.byte	0x2
 10487 1f1b 7503     		.2byte	0x375
 10488 1f1d AE000000 		.4byte	0xae
 10489 1f21 DA160000 		.4byte	.LLST151
 10490 1f25 17       		.uleb128 0x17
 10491 1f26 930E0000 		.4byte	.LASF171
 10492 1f2a 02       		.byte	0x2
 10493 1f2b 7603     		.2byte	0x376
 10494 1f2d AE000000 		.4byte	0xae
 10495 1f31 ED160000 		.4byte	.LLST152
 10496 1f35 17       		.uleb128 0x17
 10497 1f36 A10E0000 		.4byte	.LASF172
 10498 1f3a 02       		.byte	0x2
 10499 1f3b 7703     		.2byte	0x377
 10500 1f3d AE000000 		.4byte	0xae
 10501 1f41 01170000 		.4byte	.LLST153
 10502 1f45 12       		.uleb128 0x12
 10503 1f46 14000000 		.4byte	.LVL654
 10504 1f4a E2090000 		.4byte	0x9e2
 10505 1f4e 12       		.uleb128 0x12
 10506 1f4f 18000000 		.4byte	.LVL655
 10507 1f53 E3170000 		.4byte	0x17e3
 10508 1f57 12       		.uleb128 0x12
 10509 1f58 1C000000 		.4byte	.LVL656
 10510 1f5c 0A0B0000 		.4byte	0xb0a
 10511 1f60 1C       		.uleb128 0x1c
 10512 1f61 24000000 		.4byte	.LVL657
 10513 1f65 E3080000 		.4byte	0x8e3
 10514 1f69 791F0000 		.4byte	0x1f79
 10515 1f6d 1B       		.uleb128 0x1b
 10516 1f6e 01       		.uleb128 0x1
 10517 1f6f 50       		.byte	0x50
 10518 1f70 02       		.uleb128 0x2
 10519 1f71 74       		.byte	0x74
 10520 1f72 00       		.sleb128 0
 10521 1f73 1B       		.uleb128 0x1b
 10522 1f74 01       		.uleb128 0x1
 10523 1f75 51       		.byte	0x51
 10524 1f76 01       		.uleb128 0x1
 10525 1f77 31       		.byte	0x31
 10526 1f78 00       		.byte	0
 10527 1f79 1C       		.uleb128 0x1c
 10528 1f7a 2C000000 		.4byte	.LVL658
 10529 1f7e E3080000 		.4byte	0x8e3
 10530 1f82 921F0000 		.4byte	0x1f92
 10531 1f86 1B       		.uleb128 0x1b
 10532 1f87 01       		.uleb128 0x1
ARM GAS  C:\Users\FRANKL~1\AppData\Local\Temp\ccebBo1q.s 			page 224


 10533 1f88 50       		.byte	0x50
 10534 1f89 02       		.uleb128 0x2
 10535 1f8a 76       		.byte	0x76
 10536 1f8b 00       		.sleb128 0
 10537 1f8c 1B       		.uleb128 0x1b
 10538 1f8d 01       		.uleb128 0x1
 10539 1f8e 51       		.byte	0x51
 10540 1f8f 01       		.uleb128 0x1
 10541 1f90 32       		.byte	0x32
 10542 1f91 00       		.byte	0
 10543 1f92 1C       		.uleb128 0x1c
 10544 1f93 38000000 		.4byte	.LVL659
 10545 1f97 FD370000 		.4byte	0x37fd
 10546 1f9b B51F0000 		.4byte	0x1fb5
 10547 1f9f 1B       		.uleb128 0x1b
 10548 1fa0 01       		.uleb128 0x1
 10549 1fa1 50       		.byte	0x50
 10550 1fa2 02       		.uleb128 0x2
 10551 1fa3 75       		.byte	0x75
 10552 1fa4 00       		.sleb128 0
 10553 1fa5 1B       		.uleb128 0x1b
 10554 1fa6 01       		.uleb128 0x1
 10555 1fa7 51       		.byte	0x51
 10556 1fa8 05       		.uleb128 0x5
 10557 1fa9 03       		.byte	0x3
 10558 1faa F0000000 		.4byte	.LC14
 10559 1fae 1B       		.uleb128 0x1b
 10560 1faf 01       		.uleb128 0x1
 10561 1fb0 52       		.byte	0x52
 10562 1fb1 02       		.uleb128 0x2
 10563 1fb2 74       		.byte	0x74
 10564 1fb3 00       		.sleb128 0
 10565 1fb4 00       		.byte	0
 10566 1fb5 1C       		.uleb128 0x1c
 10567 1fb6 3E000000 		.4byte	.LVL660
 10568 1fba C6370000 		.4byte	0x37c6
 10569 1fbe C91F0000 		.4byte	0x1fc9
 10570 1fc2 1B       		.uleb128 0x1b
 10571 1fc3 01       		.uleb128 0x1
 10572 1fc4 50       		.byte	0x50
 10573 1fc5 02       		.uleb128 0x2
 10574 1fc6 75       		.byte	0x75
 10575 1fc7 00       		.sleb128 0
 10576 1fc8 00       		.byte	0
 10577 1fc9 1C       		.uleb128 0x1c
 10578 1fca 46000000 		.4byte	.LVL661
 10579 1fce D1030000 		.4byte	0x3d1
 10580 1fd2 DD1F0000 		.4byte	0x1fdd
 10581 1fd6 1B       		.uleb128 0x1b
 10582 1fd7 01       		.uleb128 0x1
 10583 1fd8 50       		.byte	0x50
 10584 1fd9 02       		.uleb128 0x2
 10585 1fda 75       		.byte	0x75
 10586 1fdb 00       		.sleb128 0
 10587 1fdc 00       		.byte	0
 10588 1fdd 1C       		.uleb128 0x1c
 10589 1fde 4C000000 		.4byte	.LVL662
ARM GAS  C:\Users\FRANKL~1\AppData\Local\Temp\ccebBo1q.s 			page 225


 10590 1fe2 DC370000 		.4byte	0x37dc
 10591 1fe6 F11F0000 		.4byte	0x1ff1
 10592 1fea 1B       		.uleb128 0x1b
 10593 1feb 01       		.uleb128 0x1
 10594 1fec 50       		.byte	0x50
 10595 1fed 02       		.uleb128 0x2
 10596 1fee 75       		.byte	0x75
 10597 1fef 00       		.sleb128 0
 10598 1ff0 00       		.byte	0
 10599 1ff1 1C       		.uleb128 0x1c
 10600 1ff2 54000000 		.4byte	.LVL663
 10601 1ff6 AD1C0000 		.4byte	0x1cad
 10602 1ffa 05200000 		.4byte	0x2005
 10603 1ffe 1B       		.uleb128 0x1b
 10604 1fff 01       		.uleb128 0x1
 10605 2000 50       		.byte	0x50
 10606 2001 02       		.uleb128 0x2
 10607 2002 78       		.byte	0x78
 10608 2003 00       		.sleb128 0
 10609 2004 00       		.byte	0
 10610 2005 1A       		.uleb128 0x1a
 10611 2006 5C000000 		.4byte	.LVL664
 10612 200a A81B0000 		.4byte	0x1ba8
 10613 200e 1B       		.uleb128 0x1b
 10614 200f 01       		.uleb128 0x1
 10615 2010 50       		.byte	0x50
 10616 2011 02       		.uleb128 0x2
 10617 2012 78       		.byte	0x78
 10618 2013 00       		.sleb128 0
 10619 2014 00       		.byte	0
 10620 2015 00       		.byte	0
 10621 2016 00       		.byte	0
 10622 2017 00       		.byte	0
 10623 2018 14       		.uleb128 0x14
 10624 2019 690B0000 		.4byte	.LASF173
 10625 201d 02       		.byte	0x2
 10626 201e 8E03     		.2byte	0x38e
 10627 2020 00000000 		.4byte	.LFB114
 10628 2024 A4000000 		.4byte	.LFE114-.LFB114
 10629 2028 01       		.uleb128 0x1
 10630 2029 9C       		.byte	0x9c
 10631 202a A3210000 		.4byte	0x21a3
 10632 202e 26       		.uleb128 0x26
 10633 202f 3B0B0000 		.4byte	.LASF174
 10634 2033 02       		.byte	0x2
 10635 2034 8E03     		.2byte	0x38e
 10636 2036 AE000000 		.4byte	0xae
 10637 203a 15170000 		.4byte	.LLST154
 10638 203e 26       		.uleb128 0x26
 10639 203f F60A0000 		.4byte	.LASF175
 10640 2043 02       		.byte	0x2
 10641 2044 8E03     		.2byte	0x38e
 10642 2046 AE000000 		.4byte	0xae
 10643 204a 41170000 		.4byte	.LLST155
 10644 204e 26       		.uleb128 0x26
 10645 204f 2F0F0000 		.4byte	.LASF167
 10646 2053 02       		.byte	0x2
ARM GAS  C:\Users\FRANKL~1\AppData\Local\Temp\ccebBo1q.s 			page 226


 10647 2054 8E03     		.2byte	0x38e
 10648 2056 AE000000 		.4byte	0xae
 10649 205a 6D170000 		.4byte	.LLST156
 10650 205e 26       		.uleb128 0x26
 10651 205f 510A0000 		.4byte	.LASF150
 10652 2063 02       		.byte	0x2
 10653 2064 8E03     		.2byte	0x38e
 10654 2066 AE000000 		.4byte	0xae
 10655 206a 99170000 		.4byte	.LLST157
 10656 206e 19       		.uleb128 0x19
 10657 206f 18000000 		.4byte	.LBB65
 10658 2073 8C000000 		.4byte	.LBE65-.LBB65
 10659 2077 17       		.uleb128 0x17
 10660 2078 560A0000 		.4byte	.LASF168
 10661 207c 02       		.byte	0x2
 10662 207d 9203     		.2byte	0x392
 10663 207f AE000000 		.4byte	0xae
 10664 2083 C5170000 		.4byte	.LLST158
 10665 2087 19       		.uleb128 0x19
 10666 2088 18000000 		.4byte	.LBB66
 10667 208c 72000000 		.4byte	.LBE66-.LBB66
 10668 2090 17       		.uleb128 0x17
 10669 2091 C50D0000 		.4byte	.LASF169
 10670 2095 02       		.byte	0x2
 10671 2096 9303     		.2byte	0x393
 10672 2098 AE000000 		.4byte	0xae
 10673 209c D8170000 		.4byte	.LLST159
 10674 20a0 17       		.uleb128 0x17
 10675 20a1 CE0D0000 		.4byte	.LASF170
 10676 20a5 02       		.byte	0x2
 10677 20a6 9403     		.2byte	0x394
 10678 20a8 AE000000 		.4byte	0xae
 10679 20ac EB170000 		.4byte	.LLST160
 10680 20b0 17       		.uleb128 0x17
 10681 20b1 930E0000 		.4byte	.LASF171
 10682 20b5 02       		.byte	0x2
 10683 20b6 9503     		.2byte	0x395
 10684 20b8 AE000000 		.4byte	0xae
 10685 20bc FE170000 		.4byte	.LLST161
 10686 20c0 17       		.uleb128 0x17
 10687 20c1 A10E0000 		.4byte	.LASF172
 10688 20c5 02       		.byte	0x2
 10689 20c6 9603     		.2byte	0x396
 10690 20c8 AE000000 		.4byte	0xae
 10691 20cc 12180000 		.4byte	.LLST162
 10692 20d0 12       		.uleb128 0x12
 10693 20d1 20000000 		.4byte	.LVL670
 10694 20d5 E2090000 		.4byte	0x9e2
 10695 20d9 12       		.uleb128 0x12
 10696 20da 24000000 		.4byte	.LVL671
 10697 20de E3170000 		.4byte	0x17e3
 10698 20e2 12       		.uleb128 0x12
 10699 20e3 28000000 		.4byte	.LVL672
 10700 20e7 0A0B0000 		.4byte	0xb0a
 10701 20eb 1C       		.uleb128 0x1c
 10702 20ec 30000000 		.4byte	.LVL673
 10703 20f0 E3080000 		.4byte	0x8e3
ARM GAS  C:\Users\FRANKL~1\AppData\Local\Temp\ccebBo1q.s 			page 227


 10704 20f4 04210000 		.4byte	0x2104
 10705 20f8 1B       		.uleb128 0x1b
 10706 20f9 01       		.uleb128 0x1
 10707 20fa 50       		.byte	0x50
 10708 20fb 02       		.uleb128 0x2
 10709 20fc 74       		.byte	0x74
 10710 20fd 00       		.sleb128 0
 10711 20fe 1B       		.uleb128 0x1b
 10712 20ff 01       		.uleb128 0x1
 10713 2100 51       		.byte	0x51
 10714 2101 01       		.uleb128 0x1
 10715 2102 31       		.byte	0x31
 10716 2103 00       		.byte	0
 10717 2104 1C       		.uleb128 0x1c
 10718 2105 38000000 		.4byte	.LVL674
 10719 2109 E3080000 		.4byte	0x8e3
 10720 210d 1D210000 		.4byte	0x211d
 10721 2111 1B       		.uleb128 0x1b
 10722 2112 01       		.uleb128 0x1
 10723 2113 50       		.byte	0x50
 10724 2114 02       		.uleb128 0x2
 10725 2115 76       		.byte	0x76
 10726 2116 00       		.sleb128 0
 10727 2117 1B       		.uleb128 0x1b
 10728 2118 01       		.uleb128 0x1
 10729 2119 51       		.byte	0x51
 10730 211a 01       		.uleb128 0x1
 10731 211b 32       		.byte	0x32
 10732 211c 00       		.byte	0
 10733 211d 1C       		.uleb128 0x1c
 10734 211e 44000000 		.4byte	.LVL675
 10735 2122 FD370000 		.4byte	0x37fd
 10736 2126 40210000 		.4byte	0x2140
 10737 212a 1B       		.uleb128 0x1b
 10738 212b 01       		.uleb128 0x1
 10739 212c 50       		.byte	0x50
 10740 212d 02       		.uleb128 0x2
 10741 212e 75       		.byte	0x75
 10742 212f 00       		.sleb128 0
 10743 2130 1B       		.uleb128 0x1b
 10744 2131 01       		.uleb128 0x1
 10745 2132 51       		.byte	0x51
 10746 2133 05       		.uleb128 0x5
 10747 2134 03       		.byte	0x3
 10748 2135 F0000000 		.4byte	.LC14
 10749 2139 1B       		.uleb128 0x1b
 10750 213a 01       		.uleb128 0x1
 10751 213b 52       		.byte	0x52
 10752 213c 02       		.uleb128 0x2
 10753 213d 74       		.byte	0x74
 10754 213e 00       		.sleb128 0
 10755 213f 00       		.byte	0
 10756 2140 1C       		.uleb128 0x1c
 10757 2141 4A000000 		.4byte	.LVL676
 10758 2145 C6370000 		.4byte	0x37c6
 10759 2149 54210000 		.4byte	0x2154
 10760 214d 1B       		.uleb128 0x1b
ARM GAS  C:\Users\FRANKL~1\AppData\Local\Temp\ccebBo1q.s 			page 228


 10761 214e 01       		.uleb128 0x1
 10762 214f 50       		.byte	0x50
 10763 2150 02       		.uleb128 0x2
 10764 2151 75       		.byte	0x75
 10765 2152 00       		.sleb128 0
 10766 2153 00       		.byte	0
 10767 2154 1C       		.uleb128 0x1c
 10768 2155 52000000 		.4byte	.LVL677
 10769 2159 D1030000 		.4byte	0x3d1
 10770 215d 68210000 		.4byte	0x2168
 10771 2161 1B       		.uleb128 0x1b
 10772 2162 01       		.uleb128 0x1
 10773 2163 50       		.byte	0x50
 10774 2164 02       		.uleb128 0x2
 10775 2165 75       		.byte	0x75
 10776 2166 00       		.sleb128 0
 10777 2167 00       		.byte	0
 10778 2168 1C       		.uleb128 0x1c
 10779 2169 58000000 		.4byte	.LVL678
 10780 216d DC370000 		.4byte	0x37dc
 10781 2171 7C210000 		.4byte	0x217c
 10782 2175 1B       		.uleb128 0x1b
 10783 2176 01       		.uleb128 0x1
 10784 2177 50       		.byte	0x50
 10785 2178 02       		.uleb128 0x2
 10786 2179 75       		.byte	0x75
 10787 217a 00       		.sleb128 0
 10788 217b 00       		.byte	0
 10789 217c 1C       		.uleb128 0x1c
 10790 217d 64000000 		.4byte	.LVL679
 10791 2181 AD1C0000 		.4byte	0x1cad
 10792 2185 90210000 		.4byte	0x2190
 10793 2189 1B       		.uleb128 0x1b
 10794 218a 01       		.uleb128 0x1
 10795 218b 50       		.byte	0x50
 10796 218c 02       		.uleb128 0x2
 10797 218d 79       		.byte	0x79
 10798 218e 00       		.sleb128 0
 10799 218f 00       		.byte	0
 10800 2190 1A       		.uleb128 0x1a
 10801 2191 6C000000 		.4byte	.LVL680
 10802 2195 A81B0000 		.4byte	0x1ba8
 10803 2199 1B       		.uleb128 0x1b
 10804 219a 01       		.uleb128 0x1
 10805 219b 50       		.byte	0x50
 10806 219c 02       		.uleb128 0x2
 10807 219d 79       		.byte	0x79
 10808 219e 00       		.sleb128 0
 10809 219f 00       		.byte	0
 10810 21a0 00       		.byte	0
 10811 21a1 00       		.byte	0
 10812 21a2 00       		.byte	0
 10813 21a3 2F       		.uleb128 0x2f
 10814 21a4 66020000 		.4byte	.LASF258
 10815 21a8 02       		.byte	0x2
 10816 21a9 F303     		.2byte	0x3f3
 10817 21ab 33000000 		.4byte	0x33
ARM GAS  C:\Users\FRANKL~1\AppData\Local\Temp\ccebBo1q.s 			page 229


 10818 21af 00000000 		.4byte	.LFB116
 10819 21b3 E8080000 		.4byte	.LFE116-.LFB116
 10820 21b7 01       		.uleb128 0x1
 10821 21b8 9C       		.byte	0x9c
 10822 21b9 A3350000 		.4byte	0x35a3
 10823 21bd 15       		.uleb128 0x15
 10824 21be 88000000 		.4byte	.LBB67
 10825 21c2 60080000 		.4byte	.LBE67-.LBB67
 10826 21c6 B4340000 		.4byte	0x34b4
 10827 21ca 17       		.uleb128 0x17
 10828 21cb BB090000 		.4byte	.LASF41
 10829 21cf 02       		.byte	0x2
 10830 21d0 1D04     		.2byte	0x41d
 10831 21d2 8B000000 		.4byte	0x8b
 10832 21d6 26180000 		.4byte	.LLST163
 10833 21da 15       		.uleb128 0x15
 10834 21db C2000000 		.4byte	.LBB68
 10835 21df 18000000 		.4byte	.LBE68-.LBB68
 10836 21e3 41220000 		.4byte	0x2241
 10837 21e7 16       		.uleb128 0x16
 10838 21e8 3D060000 		.4byte	.LASF176
 10839 21ec 02       		.byte	0x2
 10840 21ed 2604     		.2byte	0x426
 10841 21ef 8B000000 		.4byte	0x8b
 10842 21f3 02       		.uleb128 0x2
 10843 21f4 91       		.byte	0x91
 10844 21f5 64       		.sleb128 -28
 10845 21f6 18       		.uleb128 0x18
 10846 21f7 6E00     		.ascii	"n\000"
 10847 21f9 02       		.byte	0x2
 10848 21fa 2704     		.2byte	0x427
 10849 21fc C6000000 		.4byte	0xc6
 10850 2200 EE180000 		.4byte	.LLST164
 10851 2204 1C       		.uleb128 0x1c
 10852 2205 CA000000 		.4byte	.LVL707
 10853 2209 CE380000 		.4byte	0x38ce
 10854 220d 1E220000 		.4byte	0x221e
 10855 2211 1B       		.uleb128 0x1b
 10856 2212 01       		.uleb128 0x1
 10857 2213 50       		.byte	0x50
 10858 2214 02       		.uleb128 0x2
 10859 2215 74       		.byte	0x74
 10860 2216 00       		.sleb128 0
 10861 2217 1B       		.uleb128 0x1b
 10862 2218 01       		.uleb128 0x1
 10863 2219 51       		.byte	0x51
 10864 221a 02       		.uleb128 0x2
 10865 221b 08       		.byte	0x8
 10866 221c 20       		.byte	0x20
 10867 221d 00       		.byte	0
 10868 221e 1C       		.uleb128 0x1c
 10869 221f D6000000 		.4byte	.LVL708
 10870 2223 DD380000 		.4byte	0x38dd
 10871 2227 37220000 		.4byte	0x2237
 10872 222b 1B       		.uleb128 0x1b
 10873 222c 01       		.uleb128 0x1
 10874 222d 51       		.byte	0x51
ARM GAS  C:\Users\FRANKL~1\AppData\Local\Temp\ccebBo1q.s 			page 230


 10875 222e 02       		.uleb128 0x2
 10876 222f 91       		.byte	0x91
 10877 2230 64       		.sleb128 -28
 10878 2231 1B       		.uleb128 0x1b
 10879 2232 01       		.uleb128 0x1
 10880 2233 52       		.byte	0x52
 10881 2234 01       		.uleb128 0x1
 10882 2235 3A       		.byte	0x3a
 10883 2236 00       		.byte	0
 10884 2237 12       		.uleb128 0x12
 10885 2238 DA000000 		.4byte	.LVL709
 10886 223c CA1A0000 		.4byte	0x1aca
 10887 2240 00       		.byte	0
 10888 2241 15       		.uleb128 0x15
 10889 2242 38010000 		.4byte	.LBB69
 10890 2246 1A000000 		.4byte	.LBE69-.LBB69
 10891 224a AA220000 		.4byte	0x22aa
 10892 224e 16       		.uleb128 0x16
 10893 224f 3D060000 		.4byte	.LASF176
 10894 2253 02       		.byte	0x2
 10895 2254 3804     		.2byte	0x438
 10896 2256 8B000000 		.4byte	0x8b
 10897 225a 02       		.uleb128 0x2
 10898 225b 91       		.byte	0x91
 10899 225c 64       		.sleb128 -28
 10900 225d 17       		.uleb128 0x17
 10901 225e 2C080000 		.4byte	.LASF177
 10902 2262 02       		.byte	0x2
 10903 2263 3904     		.2byte	0x439
 10904 2265 AE000000 		.4byte	0xae
 10905 2269 01190000 		.4byte	.LLST165
 10906 226d 1C       		.uleb128 0x1c
 10907 226e 40010000 		.4byte	.LVL719
 10908 2272 CE380000 		.4byte	0x38ce
 10909 2276 87220000 		.4byte	0x2287
 10910 227a 1B       		.uleb128 0x1b
 10911 227b 01       		.uleb128 0x1
 10912 227c 50       		.byte	0x50
 10913 227d 02       		.uleb128 0x2
 10914 227e 74       		.byte	0x74
 10915 227f 00       		.sleb128 0
 10916 2280 1B       		.uleb128 0x1b
 10917 2281 01       		.uleb128 0x1
 10918 2282 51       		.byte	0x51
 10919 2283 02       		.uleb128 0x2
 10920 2284 08       		.byte	0x8
 10921 2285 20       		.byte	0x20
 10922 2286 00       		.byte	0
 10923 2287 1C       		.uleb128 0x1c
 10924 2288 4C010000 		.4byte	.LVL720
 10925 228c DD380000 		.4byte	0x38dd
 10926 2290 A0220000 		.4byte	0x22a0
 10927 2294 1B       		.uleb128 0x1b
 10928 2295 01       		.uleb128 0x1
 10929 2296 51       		.byte	0x51
 10930 2297 02       		.uleb128 0x2
 10931 2298 91       		.byte	0x91
ARM GAS  C:\Users\FRANKL~1\AppData\Local\Temp\ccebBo1q.s 			page 231


 10932 2299 64       		.sleb128 -28
 10933 229a 1B       		.uleb128 0x1b
 10934 229b 01       		.uleb128 0x1
 10935 229c 52       		.byte	0x52
 10936 229d 01       		.uleb128 0x1
 10937 229e 3A       		.byte	0x3a
 10938 229f 00       		.byte	0
 10939 22a0 12       		.uleb128 0x12
 10940 22a1 52010000 		.4byte	.LVL721
 10941 22a5 98130000 		.4byte	0x1398
 10942 22a9 00       		.byte	0
 10943 22aa 15       		.uleb128 0x15
 10944 22ab 60010000 		.4byte	.LBB70
 10945 22af 1A000000 		.4byte	.LBE70-.LBB70
 10946 22b3 13230000 		.4byte	0x2313
 10947 22b7 16       		.uleb128 0x16
 10948 22b8 3D060000 		.4byte	.LASF176
 10949 22bc 02       		.byte	0x2
 10950 22bd 3E04     		.2byte	0x43e
 10951 22bf 8B000000 		.4byte	0x8b
 10952 22c3 02       		.uleb128 0x2
 10953 22c4 91       		.byte	0x91
 10954 22c5 64       		.sleb128 -28
 10955 22c6 17       		.uleb128 0x17
 10956 22c7 EB0E0000 		.4byte	.LASF178
 10957 22cb 02       		.byte	0x2
 10958 22cc 3F04     		.2byte	0x43f
 10959 22ce AE000000 		.4byte	0xae
 10960 22d2 14190000 		.4byte	.LLST166
 10961 22d6 1C       		.uleb128 0x1c
 10962 22d7 68010000 		.4byte	.LVL723
 10963 22db CE380000 		.4byte	0x38ce
 10964 22df F0220000 		.4byte	0x22f0
 10965 22e3 1B       		.uleb128 0x1b
 10966 22e4 01       		.uleb128 0x1
 10967 22e5 50       		.byte	0x50
 10968 22e6 02       		.uleb128 0x2
 10969 22e7 74       		.byte	0x74
 10970 22e8 00       		.sleb128 0
 10971 22e9 1B       		.uleb128 0x1b
 10972 22ea 01       		.uleb128 0x1
 10973 22eb 51       		.byte	0x51
 10974 22ec 02       		.uleb128 0x2
 10975 22ed 08       		.byte	0x8
 10976 22ee 20       		.byte	0x20
 10977 22ef 00       		.byte	0
 10978 22f0 1C       		.uleb128 0x1c
 10979 22f1 74010000 		.4byte	.LVL724
 10980 22f5 DD380000 		.4byte	0x38dd
 10981 22f9 09230000 		.4byte	0x2309
 10982 22fd 1B       		.uleb128 0x1b
 10983 22fe 01       		.uleb128 0x1
 10984 22ff 51       		.byte	0x51
 10985 2300 02       		.uleb128 0x2
 10986 2301 91       		.byte	0x91
 10987 2302 64       		.sleb128 -28
 10988 2303 1B       		.uleb128 0x1b
ARM GAS  C:\Users\FRANKL~1\AppData\Local\Temp\ccebBo1q.s 			page 232


 10989 2304 01       		.uleb128 0x1
 10990 2305 52       		.byte	0x52
 10991 2306 01       		.uleb128 0x1
 10992 2307 3A       		.byte	0x3a
 10993 2308 00       		.byte	0
 10994 2309 12       		.uleb128 0x12
 10995 230a 7A010000 		.4byte	.LVL725
 10996 230e C5120000 		.4byte	0x12c5
 10997 2312 00       		.byte	0
 10998 2313 15       		.uleb128 0x15
 10999 2314 88010000 		.4byte	.LBB71
 11000 2318 1A000000 		.4byte	.LBE71-.LBB71
 11001 231c 7C230000 		.4byte	0x237c
 11002 2320 16       		.uleb128 0x16
 11003 2321 3D060000 		.4byte	.LASF176
 11004 2325 02       		.byte	0x2
 11005 2326 4404     		.2byte	0x444
 11006 2328 8B000000 		.4byte	0x8b
 11007 232c 02       		.uleb128 0x2
 11008 232d 91       		.byte	0x91
 11009 232e 64       		.sleb128 -28
 11010 232f 17       		.uleb128 0x17
 11011 2330 2C080000 		.4byte	.LASF177
 11012 2334 02       		.byte	0x2
 11013 2335 4504     		.2byte	0x445
 11014 2337 D2000000 		.4byte	0xd2
 11015 233b 27190000 		.4byte	.LLST167
 11016 233f 1C       		.uleb128 0x1c
 11017 2340 90010000 		.4byte	.LVL727
 11018 2344 CE380000 		.4byte	0x38ce
 11019 2348 59230000 		.4byte	0x2359
 11020 234c 1B       		.uleb128 0x1b
 11021 234d 01       		.uleb128 0x1
 11022 234e 50       		.byte	0x50
 11023 234f 02       		.uleb128 0x2
 11024 2350 74       		.byte	0x74
 11025 2351 00       		.sleb128 0
 11026 2352 1B       		.uleb128 0x1b
 11027 2353 01       		.uleb128 0x1
 11028 2354 51       		.byte	0x51
 11029 2355 02       		.uleb128 0x2
 11030 2356 08       		.byte	0x8
 11031 2357 20       		.byte	0x20
 11032 2358 00       		.byte	0
 11033 2359 1C       		.uleb128 0x1c
 11034 235a 9C010000 		.4byte	.LVL728
 11035 235e DD380000 		.4byte	0x38dd
 11036 2362 72230000 		.4byte	0x2372
 11037 2366 1B       		.uleb128 0x1b
 11038 2367 01       		.uleb128 0x1
 11039 2368 51       		.byte	0x51
 11040 2369 02       		.uleb128 0x2
 11041 236a 91       		.byte	0x91
 11042 236b 64       		.sleb128 -28
 11043 236c 1B       		.uleb128 0x1b
 11044 236d 01       		.uleb128 0x1
 11045 236e 52       		.byte	0x52
ARM GAS  C:\Users\FRANKL~1\AppData\Local\Temp\ccebBo1q.s 			page 233


 11046 236f 01       		.uleb128 0x1
 11047 2370 3A       		.byte	0x3a
 11048 2371 00       		.byte	0
 11049 2372 12       		.uleb128 0x12
 11050 2373 A2010000 		.4byte	.LVL729
 11051 2377 53160000 		.4byte	0x1653
 11052 237b 00       		.byte	0
 11053 237c 15       		.uleb128 0x15
 11054 237d B0010000 		.4byte	.LBB72
 11055 2381 1A000000 		.4byte	.LBE72-.LBB72
 11056 2385 E5230000 		.4byte	0x23e5
 11057 2389 16       		.uleb128 0x16
 11058 238a 3D060000 		.4byte	.LASF176
 11059 238e 02       		.byte	0x2
 11060 238f 4A04     		.2byte	0x44a
 11061 2391 8B000000 		.4byte	0x8b
 11062 2395 02       		.uleb128 0x2
 11063 2396 91       		.byte	0x91
 11064 2397 64       		.sleb128 -28
 11065 2398 17       		.uleb128 0x17
 11066 2399 EB0E0000 		.4byte	.LASF178
 11067 239d 02       		.byte	0x2
 11068 239e 4B04     		.2byte	0x44b
 11069 23a0 D2000000 		.4byte	0xd2
 11070 23a4 3A190000 		.4byte	.LLST168
 11071 23a8 1C       		.uleb128 0x1c
 11072 23a9 B8010000 		.4byte	.LVL731
 11073 23ad CE380000 		.4byte	0x38ce
 11074 23b1 C2230000 		.4byte	0x23c2
 11075 23b5 1B       		.uleb128 0x1b
 11076 23b6 01       		.uleb128 0x1
 11077 23b7 50       		.byte	0x50
 11078 23b8 02       		.uleb128 0x2
 11079 23b9 74       		.byte	0x74
 11080 23ba 00       		.sleb128 0
 11081 23bb 1B       		.uleb128 0x1b
 11082 23bc 01       		.uleb128 0x1
 11083 23bd 51       		.byte	0x51
 11084 23be 02       		.uleb128 0x2
 11085 23bf 08       		.byte	0x8
 11086 23c0 20       		.byte	0x20
 11087 23c1 00       		.byte	0
 11088 23c2 1C       		.uleb128 0x1c
 11089 23c3 C4010000 		.4byte	.LVL732
 11090 23c7 DD380000 		.4byte	0x38dd
 11091 23cb DB230000 		.4byte	0x23db
 11092 23cf 1B       		.uleb128 0x1b
 11093 23d0 01       		.uleb128 0x1
 11094 23d1 51       		.byte	0x51
 11095 23d2 02       		.uleb128 0x2
 11096 23d3 91       		.byte	0x91
 11097 23d4 64       		.sleb128 -28
 11098 23d5 1B       		.uleb128 0x1b
 11099 23d6 01       		.uleb128 0x1
 11100 23d7 52       		.byte	0x52
 11101 23d8 01       		.uleb128 0x1
 11102 23d9 3A       		.byte	0x3a
ARM GAS  C:\Users\FRANKL~1\AppData\Local\Temp\ccebBo1q.s 			page 234


 11103 23da 00       		.byte	0
 11104 23db 12       		.uleb128 0x12
 11105 23dc CA010000 		.4byte	.LVL733
 11106 23e0 81150000 		.4byte	0x1581
 11107 23e4 00       		.byte	0
 11108 23e5 15       		.uleb128 0x15
 11109 23e6 D8010000 		.4byte	.LBB73
 11110 23ea 1C000000 		.4byte	.LBE73-.LBB73
 11111 23ee 5E240000 		.4byte	0x245e
 11112 23f2 17       		.uleb128 0x17
 11113 23f3 3D060000 		.4byte	.LASF176
 11114 23f7 02       		.byte	0x2
 11115 23f8 5004     		.2byte	0x450
 11116 23fa 8B000000 		.4byte	0x8b
 11117 23fe 4D190000 		.4byte	.LLST169
 11118 2402 30       		.uleb128 0x30
 11119 2403 76677300 		.ascii	"vgs\000"
 11120 2407 02       		.byte	0x2
 11121 2408 5104     		.2byte	0x451
 11122 240a 25000000 		.4byte	0x25
 11123 240e 02       		.uleb128 0x2
 11124 240f 91       		.byte	0x91
 11125 2410 64       		.sleb128 -28
 11126 2411 2D       		.uleb128 0x2d
 11127 2412 7B090000 		.4byte	.LASF179
 11128 2416 02       		.byte	0x2
 11129 2417 5204     		.2byte	0x452
 11130 2419 D2000000 		.4byte	0xd2
 11131 241d 1C       		.uleb128 0x1c
 11132 241e E0010000 		.4byte	.LVL735
 11133 2422 CE380000 		.4byte	0x38ce
 11134 2426 37240000 		.4byte	0x2437
 11135 242a 1B       		.uleb128 0x1b
 11136 242b 01       		.uleb128 0x1
 11137 242c 50       		.byte	0x50
 11138 242d 02       		.uleb128 0x2
 11139 242e 74       		.byte	0x74
 11140 242f 00       		.sleb128 0
 11141 2430 1B       		.uleb128 0x1b
 11142 2431 01       		.uleb128 0x1
 11143 2432 51       		.byte	0x51
 11144 2433 02       		.uleb128 0x2
 11145 2434 08       		.byte	0x8
 11146 2435 20       		.byte	0x20
 11147 2436 00       		.byte	0
 11148 2437 1C       		.uleb128 0x1c
 11149 2438 EE010000 		.4byte	.LVL736
 11150 243c E8380000 		.4byte	0x38e8
 11151 2440 54240000 		.4byte	0x2454
 11152 2444 1B       		.uleb128 0x1b
 11153 2445 01       		.uleb128 0x1
 11154 2446 51       		.byte	0x51
 11155 2447 05       		.uleb128 0x5
 11156 2448 03       		.byte	0x3
 11157 2449 C8010000 		.4byte	.LC27
 11158 244d 1B       		.uleb128 0x1b
 11159 244e 01       		.uleb128 0x1
ARM GAS  C:\Users\FRANKL~1\AppData\Local\Temp\ccebBo1q.s 			page 235


 11160 244f 52       		.byte	0x52
 11161 2450 02       		.uleb128 0x2
 11162 2451 91       		.byte	0x91
 11163 2452 64       		.sleb128 -28
 11164 2453 00       		.byte	0
 11165 2454 12       		.uleb128 0x12
 11166 2455 F4010000 		.4byte	.LVL737
 11167 2459 25170000 		.4byte	0x1725
 11168 245d 00       		.byte	0
 11169 245e 15       		.uleb128 0x15
 11170 245f 02020000 		.4byte	.LBB74
 11171 2463 1C000000 		.4byte	.LBE74-.LBB74
 11172 2467 D7240000 		.4byte	0x24d7
 11173 246b 17       		.uleb128 0x17
 11174 246c 3D060000 		.4byte	.LASF176
 11175 2470 02       		.byte	0x2
 11176 2471 5704     		.2byte	0x457
 11177 2473 8B000000 		.4byte	0x8b
 11178 2477 60190000 		.4byte	.LLST170
 11179 247b 30       		.uleb128 0x30
 11180 247c 76647300 		.ascii	"vds\000"
 11181 2480 02       		.byte	0x2
 11182 2481 5804     		.2byte	0x458
 11183 2483 25000000 		.4byte	0x25
 11184 2487 02       		.uleb128 0x2
 11185 2488 91       		.byte	0x91
 11186 2489 64       		.sleb128 -28
 11187 248a 2D       		.uleb128 0x2d
 11188 248b 7B090000 		.4byte	.LASF179
 11189 248f 02       		.byte	0x2
 11190 2490 5904     		.2byte	0x459
 11191 2492 D2000000 		.4byte	0xd2
 11192 2496 1C       		.uleb128 0x1c
 11193 2497 0A020000 		.4byte	.LVL739
 11194 249b CE380000 		.4byte	0x38ce
 11195 249f B0240000 		.4byte	0x24b0
 11196 24a3 1B       		.uleb128 0x1b
 11197 24a4 01       		.uleb128 0x1
 11198 24a5 50       		.byte	0x50
 11199 24a6 02       		.uleb128 0x2
 11200 24a7 74       		.byte	0x74
 11201 24a8 00       		.sleb128 0
 11202 24a9 1B       		.uleb128 0x1b
 11203 24aa 01       		.uleb128 0x1
 11204 24ab 51       		.byte	0x51
 11205 24ac 02       		.uleb128 0x2
 11206 24ad 08       		.byte	0x8
 11207 24ae 20       		.byte	0x20
 11208 24af 00       		.byte	0
 11209 24b0 1C       		.uleb128 0x1c
 11210 24b1 18020000 		.4byte	.LVL740
 11211 24b5 E8380000 		.4byte	0x38e8
 11212 24b9 CD240000 		.4byte	0x24cd
 11213 24bd 1B       		.uleb128 0x1b
 11214 24be 01       		.uleb128 0x1
 11215 24bf 51       		.byte	0x51
 11216 24c0 05       		.uleb128 0x5
ARM GAS  C:\Users\FRANKL~1\AppData\Local\Temp\ccebBo1q.s 			page 236


 11217 24c1 03       		.byte	0x3
 11218 24c2 C8010000 		.4byte	.LC27
 11219 24c6 1B       		.uleb128 0x1b
 11220 24c7 01       		.uleb128 0x1
 11221 24c8 52       		.byte	0x52
 11222 24c9 02       		.uleb128 0x2
 11223 24ca 91       		.byte	0x91
 11224 24cb 64       		.sleb128 -28
 11225 24cc 00       		.byte	0
 11226 24cd 12       		.uleb128 0x12
 11227 24ce 1E020000 		.4byte	.LVL741
 11228 24d2 55170000 		.4byte	0x1755
 11229 24d6 00       		.byte	0
 11230 24d7 15       		.uleb128 0x15
 11231 24d8 2C020000 		.4byte	.LBB75
 11232 24dc 46000000 		.4byte	.LBE75-.LBB75
 11233 24e0 A1250000 		.4byte	0x25a1
 11234 24e4 16       		.uleb128 0x16
 11235 24e5 3D060000 		.4byte	.LASF176
 11236 24e9 02       		.byte	0x2
 11237 24ea 5E04     		.2byte	0x45e
 11238 24ec 8B000000 		.4byte	0x8b
 11239 24f0 02       		.uleb128 0x2
 11240 24f1 91       		.byte	0x91
 11241 24f2 64       		.sleb128 -28
 11242 24f3 17       		.uleb128 0x17
 11243 24f4 ED030000 		.4byte	.LASF180
 11244 24f8 02       		.byte	0x2
 11245 24f9 5F04     		.2byte	0x45f
 11246 24fb 25000000 		.4byte	0x25
 11247 24ff 73190000 		.4byte	.LLST171
 11248 2503 1C       		.uleb128 0x1c
 11249 2504 34020000 		.4byte	.LVL743
 11250 2508 CE380000 		.4byte	0x38ce
 11251 250c 1D250000 		.4byte	0x251d
 11252 2510 1B       		.uleb128 0x1b
 11253 2511 01       		.uleb128 0x1
 11254 2512 50       		.byte	0x50
 11255 2513 02       		.uleb128 0x2
 11256 2514 74       		.byte	0x74
 11257 2515 00       		.sleb128 0
 11258 2516 1B       		.uleb128 0x1b
 11259 2517 01       		.uleb128 0x1
 11260 2518 51       		.byte	0x51
 11261 2519 02       		.uleb128 0x2
 11262 251a 08       		.byte	0x8
 11263 251b 20       		.byte	0x20
 11264 251c 00       		.byte	0
 11265 251d 1C       		.uleb128 0x1c
 11266 251e 40020000 		.4byte	.LVL744
 11267 2522 DD380000 		.4byte	0x38dd
 11268 2526 36250000 		.4byte	0x2536
 11269 252a 1B       		.uleb128 0x1b
 11270 252b 01       		.uleb128 0x1
 11271 252c 51       		.byte	0x51
 11272 252d 02       		.uleb128 0x2
 11273 252e 91       		.byte	0x91
ARM GAS  C:\Users\FRANKL~1\AppData\Local\Temp\ccebBo1q.s 			page 237


 11274 252f 64       		.sleb128 -28
 11275 2530 1B       		.uleb128 0x1b
 11276 2531 01       		.uleb128 0x1
 11277 2532 52       		.byte	0x52
 11278 2533 01       		.uleb128 0x1
 11279 2534 3A       		.byte	0x3a
 11280 2535 00       		.byte	0
 11281 2536 1C       		.uleb128 0x1c
 11282 2537 4A020000 		.4byte	.LVL747
 11283 253b 85170000 		.4byte	0x1785
 11284 253f 4B250000 		.4byte	0x254b
 11285 2543 1B       		.uleb128 0x1b
 11286 2544 01       		.uleb128 0x1
 11287 2545 50       		.byte	0x50
 11288 2546 03       		.uleb128 0x3
 11289 2547 F5       		.byte	0xf5
 11290 2548 04       		.uleb128 0x4
 11291 2549 25       		.uleb128 0x25
 11292 254a 00       		.byte	0
 11293 254b 1C       		.uleb128 0x1c
 11294 254c 5E020000 		.4byte	.LVL750
 11295 2550 FD370000 		.4byte	0x37fd
 11296 2554 68250000 		.4byte	0x2568
 11297 2558 1B       		.uleb128 0x1b
 11298 2559 01       		.uleb128 0x1
 11299 255a 50       		.byte	0x50
 11300 255b 02       		.uleb128 0x2
 11301 255c 74       		.byte	0x74
 11302 255d 00       		.sleb128 0
 11303 255e 1B       		.uleb128 0x1b
 11304 255f 01       		.uleb128 0x1
 11305 2560 51       		.byte	0x51
 11306 2561 05       		.uleb128 0x5
 11307 2562 03       		.byte	0x3
 11308 2563 E4010000 		.4byte	.LC30
 11309 2567 00       		.byte	0
 11310 2568 1C       		.uleb128 0x1c
 11311 2569 64020000 		.4byte	.LVL751
 11312 256d C6370000 		.4byte	0x37c6
 11313 2571 7C250000 		.4byte	0x257c
 11314 2575 1B       		.uleb128 0x1b
 11315 2576 01       		.uleb128 0x1
 11316 2577 50       		.byte	0x50
 11317 2578 02       		.uleb128 0x2
 11318 2579 74       		.byte	0x74
 11319 257a 00       		.sleb128 0
 11320 257b 00       		.byte	0
 11321 257c 1C       		.uleb128 0x1c
 11322 257d 6C020000 		.4byte	.LVL752
 11323 2581 D1030000 		.4byte	0x3d1
 11324 2585 90250000 		.4byte	0x2590
 11325 2589 1B       		.uleb128 0x1b
 11326 258a 01       		.uleb128 0x1
 11327 258b 50       		.byte	0x50
 11328 258c 02       		.uleb128 0x2
 11329 258d 74       		.byte	0x74
 11330 258e 00       		.sleb128 0
ARM GAS  C:\Users\FRANKL~1\AppData\Local\Temp\ccebBo1q.s 			page 238


 11331 258f 00       		.byte	0
 11332 2590 1A       		.uleb128 0x1a
 11333 2591 72020000 		.4byte	.LVL753
 11334 2595 DC370000 		.4byte	0x37dc
 11335 2599 1B       		.uleb128 0x1b
 11336 259a 01       		.uleb128 0x1
 11337 259b 50       		.byte	0x50
 11338 259c 02       		.uleb128 0x2
 11339 259d 74       		.byte	0x74
 11340 259e 00       		.sleb128 0
 11341 259f 00       		.byte	0
 11342 25a0 00       		.byte	0
 11343 25a1 15       		.uleb128 0x15
 11344 25a2 80020000 		.4byte	.LBB76
 11345 25a6 46000000 		.4byte	.LBE76-.LBB76
 11346 25aa 6B260000 		.4byte	0x266b
 11347 25ae 16       		.uleb128 0x16
 11348 25af 3D060000 		.4byte	.LASF176
 11349 25b3 02       		.byte	0x2
 11350 25b4 6804     		.2byte	0x468
 11351 25b6 8B000000 		.4byte	0x8b
 11352 25ba 02       		.uleb128 0x2
 11353 25bb 91       		.byte	0x91
 11354 25bc 64       		.sleb128 -28
 11355 25bd 17       		.uleb128 0x17
 11356 25be E70A0000 		.4byte	.LASF181
 11357 25c2 02       		.byte	0x2
 11358 25c3 6904     		.2byte	0x469
 11359 25c5 25000000 		.4byte	0x25
 11360 25c9 91190000 		.4byte	.LLST172
 11361 25cd 1C       		.uleb128 0x1c
 11362 25ce 88020000 		.4byte	.LVL756
 11363 25d2 CE380000 		.4byte	0x38ce
 11364 25d6 E7250000 		.4byte	0x25e7
 11365 25da 1B       		.uleb128 0x1b
 11366 25db 01       		.uleb128 0x1
 11367 25dc 50       		.byte	0x50
 11368 25dd 02       		.uleb128 0x2
 11369 25de 74       		.byte	0x74
 11370 25df 00       		.sleb128 0
 11371 25e0 1B       		.uleb128 0x1b
 11372 25e1 01       		.uleb128 0x1
 11373 25e2 51       		.byte	0x51
 11374 25e3 02       		.uleb128 0x2
 11375 25e4 08       		.byte	0x8
 11376 25e5 20       		.byte	0x20
 11377 25e6 00       		.byte	0
 11378 25e7 1C       		.uleb128 0x1c
 11379 25e8 94020000 		.4byte	.LVL757
 11380 25ec DD380000 		.4byte	0x38dd
 11381 25f0 00260000 		.4byte	0x2600
 11382 25f4 1B       		.uleb128 0x1b
 11383 25f5 01       		.uleb128 0x1
 11384 25f6 51       		.byte	0x51
 11385 25f7 02       		.uleb128 0x2
 11386 25f8 91       		.byte	0x91
 11387 25f9 64       		.sleb128 -28
ARM GAS  C:\Users\FRANKL~1\AppData\Local\Temp\ccebBo1q.s 			page 239


 11388 25fa 1B       		.uleb128 0x1b
 11389 25fb 01       		.uleb128 0x1
 11390 25fc 52       		.byte	0x52
 11391 25fd 01       		.uleb128 0x1
 11392 25fe 3A       		.byte	0x3a
 11393 25ff 00       		.byte	0
 11394 2600 1C       		.uleb128 0x1c
 11395 2601 9E020000 		.4byte	.LVL760
 11396 2605 B4170000 		.4byte	0x17b4
 11397 2609 15260000 		.4byte	0x2615
 11398 260d 1B       		.uleb128 0x1b
 11399 260e 01       		.uleb128 0x1
 11400 260f 50       		.byte	0x50
 11401 2610 03       		.uleb128 0x3
 11402 2611 F5       		.byte	0xf5
 11403 2612 04       		.uleb128 0x4
 11404 2613 25       		.uleb128 0x25
 11405 2614 00       		.byte	0
 11406 2615 1C       		.uleb128 0x1c
 11407 2616 B2020000 		.4byte	.LVL763
 11408 261a FD370000 		.4byte	0x37fd
 11409 261e 32260000 		.4byte	0x2632
 11410 2622 1B       		.uleb128 0x1b
 11411 2623 01       		.uleb128 0x1
 11412 2624 50       		.byte	0x50
 11413 2625 02       		.uleb128 0x2
 11414 2626 74       		.byte	0x74
 11415 2627 00       		.sleb128 0
 11416 2628 1B       		.uleb128 0x1b
 11417 2629 01       		.uleb128 0x1
 11418 262a 51       		.byte	0x51
 11419 262b 05       		.uleb128 0x5
 11420 262c 03       		.byte	0x3
 11421 262d 08020000 		.4byte	.LC32
 11422 2631 00       		.byte	0
 11423 2632 1C       		.uleb128 0x1c
 11424 2633 B8020000 		.4byte	.LVL764
 11425 2637 C6370000 		.4byte	0x37c6
 11426 263b 46260000 		.4byte	0x2646
 11427 263f 1B       		.uleb128 0x1b
 11428 2640 01       		.uleb128 0x1
 11429 2641 50       		.byte	0x50
 11430 2642 02       		.uleb128 0x2
 11431 2643 74       		.byte	0x74
 11432 2644 00       		.sleb128 0
 11433 2645 00       		.byte	0
 11434 2646 1C       		.uleb128 0x1c
 11435 2647 C0020000 		.4byte	.LVL765
 11436 264b D1030000 		.4byte	0x3d1
 11437 264f 5A260000 		.4byte	0x265a
 11438 2653 1B       		.uleb128 0x1b
 11439 2654 01       		.uleb128 0x1
 11440 2655 50       		.byte	0x50
 11441 2656 02       		.uleb128 0x2
 11442 2657 74       		.byte	0x74
 11443 2658 00       		.sleb128 0
 11444 2659 00       		.byte	0
ARM GAS  C:\Users\FRANKL~1\AppData\Local\Temp\ccebBo1q.s 			page 240


 11445 265a 1A       		.uleb128 0x1a
 11446 265b C6020000 		.4byte	.LVL766
 11447 265f DC370000 		.4byte	0x37dc
 11448 2663 1B       		.uleb128 0x1b
 11449 2664 01       		.uleb128 0x1
 11450 2665 50       		.byte	0x50
 11451 2666 02       		.uleb128 0x2
 11452 2667 74       		.byte	0x74
 11453 2668 00       		.sleb128 0
 11454 2669 00       		.byte	0
 11455 266a 00       		.byte	0
 11456 266b 15       		.uleb128 0x15
 11457 266c A8030000 		.4byte	.LBB77
 11458 2670 84000000 		.4byte	.LBE77-.LBB77
 11459 2674 86270000 		.4byte	0x2786
 11460 2678 16       		.uleb128 0x16
 11461 2679 3D060000 		.4byte	.LASF176
 11462 267d 02       		.byte	0x2
 11463 267e 8104     		.2byte	0x481
 11464 2680 8B000000 		.4byte	0x8b
 11465 2684 02       		.uleb128 0x2
 11466 2685 91       		.byte	0x91
 11467 2686 64       		.sleb128 -28
 11468 2687 17       		.uleb128 0x17
 11469 2688 3B0B0000 		.4byte	.LASF174
 11470 268c 02       		.byte	0x2
 11471 268d 8204     		.2byte	0x482
 11472 268f AE000000 		.4byte	0xae
 11473 2693 AF190000 		.4byte	.LLST173
 11474 2697 17       		.uleb128 0x17
 11475 2698 F60A0000 		.4byte	.LASF175
 11476 269c 02       		.byte	0x2
 11477 269d 8304     		.2byte	0x483
 11478 269f AE000000 		.4byte	0xae
 11479 26a3 C2190000 		.4byte	.LLST174
 11480 26a7 1C       		.uleb128 0x1c
 11481 26a8 C6030000 		.4byte	.LVL779
 11482 26ac C6370000 		.4byte	0x37c6
 11483 26b0 BB260000 		.4byte	0x26bb
 11484 26b4 1B       		.uleb128 0x1b
 11485 26b5 01       		.uleb128 0x1
 11486 26b6 50       		.byte	0x50
 11487 26b7 02       		.uleb128 0x2
 11488 26b8 75       		.byte	0x75
 11489 26b9 00       		.sleb128 0
 11490 26ba 00       		.byte	0
 11491 26bb 1C       		.uleb128 0x1c
 11492 26bc CE030000 		.4byte	.LVL780
 11493 26c0 D1030000 		.4byte	0x3d1
 11494 26c4 CF260000 		.4byte	0x26cf
 11495 26c8 1B       		.uleb128 0x1b
 11496 26c9 01       		.uleb128 0x1
 11497 26ca 50       		.byte	0x50
 11498 26cb 02       		.uleb128 0x2
 11499 26cc 75       		.byte	0x75
 11500 26cd 00       		.sleb128 0
 11501 26ce 00       		.byte	0
ARM GAS  C:\Users\FRANKL~1\AppData\Local\Temp\ccebBo1q.s 			page 241


 11502 26cf 1C       		.uleb128 0x1c
 11503 26d0 D4030000 		.4byte	.LVL781
 11504 26d4 DC370000 		.4byte	0x37dc
 11505 26d8 E3260000 		.4byte	0x26e3
 11506 26dc 1B       		.uleb128 0x1b
 11507 26dd 01       		.uleb128 0x1
 11508 26de 50       		.byte	0x50
 11509 26df 02       		.uleb128 0x2
 11510 26e0 75       		.byte	0x75
 11511 26e1 00       		.sleb128 0
 11512 26e2 00       		.byte	0
 11513 26e3 1C       		.uleb128 0x1c
 11514 26e4 DC030000 		.4byte	.LVL782
 11515 26e8 CE380000 		.4byte	0x38ce
 11516 26ec FD260000 		.4byte	0x26fd
 11517 26f0 1B       		.uleb128 0x1b
 11518 26f1 01       		.uleb128 0x1
 11519 26f2 50       		.byte	0x50
 11520 26f3 02       		.uleb128 0x2
 11521 26f4 74       		.byte	0x74
 11522 26f5 00       		.sleb128 0
 11523 26f6 1B       		.uleb128 0x1b
 11524 26f7 01       		.uleb128 0x1
 11525 26f8 51       		.byte	0x51
 11526 26f9 02       		.uleb128 0x2
 11527 26fa 08       		.byte	0x8
 11528 26fb 20       		.byte	0x20
 11529 26fc 00       		.byte	0
 11530 26fd 1C       		.uleb128 0x1c
 11531 26fe EA030000 		.4byte	.LVL784
 11532 2702 DD380000 		.4byte	0x38dd
 11533 2706 16270000 		.4byte	0x2716
 11534 270a 1B       		.uleb128 0x1b
 11535 270b 01       		.uleb128 0x1
 11536 270c 51       		.byte	0x51
 11537 270d 02       		.uleb128 0x2
 11538 270e 74       		.byte	0x74
 11539 270f 00       		.sleb128 0
 11540 2710 1B       		.uleb128 0x1b
 11541 2711 01       		.uleb128 0x1
 11542 2712 52       		.byte	0x52
 11543 2713 01       		.uleb128 0x1
 11544 2714 3A       		.byte	0x3a
 11545 2715 00       		.byte	0
 11546 2716 1C       		.uleb128 0x1c
 11547 2717 F6030000 		.4byte	.LVL786
 11548 271b DD380000 		.4byte	0x38dd
 11549 271f 2F270000 		.4byte	0x272f
 11550 2723 1B       		.uleb128 0x1b
 11551 2724 01       		.uleb128 0x1
 11552 2725 51       		.byte	0x51
 11553 2726 02       		.uleb128 0x2
 11554 2727 74       		.byte	0x74
 11555 2728 00       		.sleb128 0
 11556 2729 1B       		.uleb128 0x1b
 11557 272a 01       		.uleb128 0x1
 11558 272b 52       		.byte	0x52
ARM GAS  C:\Users\FRANKL~1\AppData\Local\Temp\ccebBo1q.s 			page 242


 11559 272c 01       		.uleb128 0x1
 11560 272d 3A       		.byte	0x3a
 11561 272e 00       		.byte	0
 11562 272f 1C       		.uleb128 0x1c
 11563 2730 02040000 		.4byte	.LVL788
 11564 2734 18200000 		.4byte	0x2018
 11565 2738 4D270000 		.4byte	0x274d
 11566 273c 1B       		.uleb128 0x1b
 11567 273d 01       		.uleb128 0x1
 11568 273e 50       		.byte	0x50
 11569 273f 02       		.uleb128 0x2
 11570 2740 76       		.byte	0x76
 11571 2741 00       		.sleb128 0
 11572 2742 1B       		.uleb128 0x1b
 11573 2743 01       		.uleb128 0x1
 11574 2744 52       		.byte	0x52
 11575 2745 01       		.uleb128 0x1
 11576 2746 30       		.byte	0x30
 11577 2747 1B       		.uleb128 0x1b
 11578 2748 01       		.uleb128 0x1
 11579 2749 53       		.byte	0x53
 11580 274a 01       		.uleb128 0x1
 11581 274b 30       		.byte	0x30
 11582 274c 00       		.byte	0
 11583 274d 1C       		.uleb128 0x1c
 11584 274e 1E040000 		.4byte	.LVL789
 11585 2752 C6370000 		.4byte	0x37c6
 11586 2756 61270000 		.4byte	0x2761
 11587 275a 1B       		.uleb128 0x1b
 11588 275b 01       		.uleb128 0x1
 11589 275c 50       		.byte	0x50
 11590 275d 02       		.uleb128 0x2
 11591 275e 75       		.byte	0x75
 11592 275f 00       		.sleb128 0
 11593 2760 00       		.byte	0
 11594 2761 1C       		.uleb128 0x1c
 11595 2762 26040000 		.4byte	.LVL790
 11596 2766 D1030000 		.4byte	0x3d1
 11597 276a 75270000 		.4byte	0x2775
 11598 276e 1B       		.uleb128 0x1b
 11599 276f 01       		.uleb128 0x1
 11600 2770 50       		.byte	0x50
 11601 2771 02       		.uleb128 0x2
 11602 2772 75       		.byte	0x75
 11603 2773 00       		.sleb128 0
 11604 2774 00       		.byte	0
 11605 2775 1A       		.uleb128 0x1a
 11606 2776 2C040000 		.4byte	.LVL791
 11607 277a DC370000 		.4byte	0x37dc
 11608 277e 1B       		.uleb128 0x1b
 11609 277f 01       		.uleb128 0x1
 11610 2780 50       		.byte	0x50
 11611 2781 02       		.uleb128 0x2
 11612 2782 75       		.byte	0x75
 11613 2783 00       		.sleb128 0
 11614 2784 00       		.byte	0
 11615 2785 00       		.byte	0
ARM GAS  C:\Users\FRANKL~1\AppData\Local\Temp\ccebBo1q.s 			page 243


 11616 2786 15       		.uleb128 0x15
 11617 2787 3A040000 		.4byte	.LBB78
 11618 278b 90000000 		.4byte	.LBE78-.LBB78
 11619 278f A1280000 		.4byte	0x28a1
 11620 2793 16       		.uleb128 0x16
 11621 2794 3D060000 		.4byte	.LASF176
 11622 2798 02       		.byte	0x2
 11623 2799 8F04     		.2byte	0x48f
 11624 279b 8B000000 		.4byte	0x8b
 11625 279f 02       		.uleb128 0x2
 11626 27a0 91       		.byte	0x91
 11627 27a1 64       		.sleb128 -28
 11628 27a2 17       		.uleb128 0x17
 11629 27a3 3B0B0000 		.4byte	.LASF174
 11630 27a7 02       		.byte	0x2
 11631 27a8 9004     		.2byte	0x490
 11632 27aa AE000000 		.4byte	0xae
 11633 27ae E0190000 		.4byte	.LLST175
 11634 27b2 17       		.uleb128 0x17
 11635 27b3 F60A0000 		.4byte	.LASF175
 11636 27b7 02       		.byte	0x2
 11637 27b8 9104     		.2byte	0x491
 11638 27ba AE000000 		.4byte	0xae
 11639 27be F3190000 		.4byte	.LLST176
 11640 27c2 1C       		.uleb128 0x1c
 11641 27c3 5E040000 		.4byte	.LVL794
 11642 27c7 C6370000 		.4byte	0x37c6
 11643 27cb D6270000 		.4byte	0x27d6
 11644 27cf 1B       		.uleb128 0x1b
 11645 27d0 01       		.uleb128 0x1
 11646 27d1 50       		.byte	0x50
 11647 27d2 02       		.uleb128 0x2
 11648 27d3 75       		.byte	0x75
 11649 27d4 00       		.sleb128 0
 11650 27d5 00       		.byte	0
 11651 27d6 1C       		.uleb128 0x1c
 11652 27d7 66040000 		.4byte	.LVL795
 11653 27db D1030000 		.4byte	0x3d1
 11654 27df EA270000 		.4byte	0x27ea
 11655 27e3 1B       		.uleb128 0x1b
 11656 27e4 01       		.uleb128 0x1
 11657 27e5 50       		.byte	0x50
 11658 27e6 02       		.uleb128 0x2
 11659 27e7 75       		.byte	0x75
 11660 27e8 00       		.sleb128 0
 11661 27e9 00       		.byte	0
 11662 27ea 1C       		.uleb128 0x1c
 11663 27eb 6C040000 		.4byte	.LVL796
 11664 27ef DC370000 		.4byte	0x37dc
 11665 27f3 FE270000 		.4byte	0x27fe
 11666 27f7 1B       		.uleb128 0x1b
 11667 27f8 01       		.uleb128 0x1
 11668 27f9 50       		.byte	0x50
 11669 27fa 02       		.uleb128 0x2
 11670 27fb 75       		.byte	0x75
 11671 27fc 00       		.sleb128 0
 11672 27fd 00       		.byte	0
ARM GAS  C:\Users\FRANKL~1\AppData\Local\Temp\ccebBo1q.s 			page 244


 11673 27fe 1C       		.uleb128 0x1c
 11674 27ff 74040000 		.4byte	.LVL797
 11675 2803 CE380000 		.4byte	0x38ce
 11676 2807 18280000 		.4byte	0x2818
 11677 280b 1B       		.uleb128 0x1b
 11678 280c 01       		.uleb128 0x1
 11679 280d 50       		.byte	0x50
 11680 280e 02       		.uleb128 0x2
 11681 280f 74       		.byte	0x74
 11682 2810 00       		.sleb128 0
 11683 2811 1B       		.uleb128 0x1b
 11684 2812 01       		.uleb128 0x1
 11685 2813 51       		.byte	0x51
 11686 2814 02       		.uleb128 0x2
 11687 2815 08       		.byte	0x8
 11688 2816 20       		.byte	0x20
 11689 2817 00       		.byte	0
 11690 2818 1C       		.uleb128 0x1c
 11691 2819 82040000 		.4byte	.LVL799
 11692 281d DD380000 		.4byte	0x38dd
 11693 2821 31280000 		.4byte	0x2831
 11694 2825 1B       		.uleb128 0x1b
 11695 2826 01       		.uleb128 0x1
 11696 2827 51       		.byte	0x51
 11697 2828 02       		.uleb128 0x2
 11698 2829 74       		.byte	0x74
 11699 282a 00       		.sleb128 0
 11700 282b 1B       		.uleb128 0x1b
 11701 282c 01       		.uleb128 0x1
 11702 282d 52       		.byte	0x52
 11703 282e 01       		.uleb128 0x1
 11704 282f 3A       		.byte	0x3a
 11705 2830 00       		.byte	0
 11706 2831 1C       		.uleb128 0x1c
 11707 2832 8E040000 		.4byte	.LVL801
 11708 2836 DD380000 		.4byte	0x38dd
 11709 283a 4A280000 		.4byte	0x284a
 11710 283e 1B       		.uleb128 0x1b
 11711 283f 01       		.uleb128 0x1
 11712 2840 51       		.byte	0x51
 11713 2841 02       		.uleb128 0x2
 11714 2842 74       		.byte	0x74
 11715 2843 00       		.sleb128 0
 11716 2844 1B       		.uleb128 0x1b
 11717 2845 01       		.uleb128 0x1
 11718 2846 52       		.byte	0x52
 11719 2847 01       		.uleb128 0x1
 11720 2848 3A       		.byte	0x3a
 11721 2849 00       		.byte	0
 11722 284a 1C       		.uleb128 0x1c
 11723 284b 9A040000 		.4byte	.LVL803
 11724 284f 18200000 		.4byte	0x2018
 11725 2853 68280000 		.4byte	0x2868
 11726 2857 1B       		.uleb128 0x1b
 11727 2858 01       		.uleb128 0x1
 11728 2859 50       		.byte	0x50
 11729 285a 02       		.uleb128 0x2
ARM GAS  C:\Users\FRANKL~1\AppData\Local\Temp\ccebBo1q.s 			page 245


 11730 285b 76       		.byte	0x76
 11731 285c 00       		.sleb128 0
 11732 285d 1B       		.uleb128 0x1b
 11733 285e 01       		.uleb128 0x1
 11734 285f 52       		.byte	0x52
 11735 2860 01       		.uleb128 0x1
 11736 2861 30       		.byte	0x30
 11737 2862 1B       		.uleb128 0x1b
 11738 2863 01       		.uleb128 0x1
 11739 2864 53       		.byte	0x53
 11740 2865 01       		.uleb128 0x1
 11741 2866 31       		.byte	0x31
 11742 2867 00       		.byte	0
 11743 2868 1C       		.uleb128 0x1c
 11744 2869 BC040000 		.4byte	.LVL804
 11745 286d C6370000 		.4byte	0x37c6
 11746 2871 7C280000 		.4byte	0x287c
 11747 2875 1B       		.uleb128 0x1b
 11748 2876 01       		.uleb128 0x1
 11749 2877 50       		.byte	0x50
 11750 2878 02       		.uleb128 0x2
 11751 2879 75       		.byte	0x75
 11752 287a 00       		.sleb128 0
 11753 287b 00       		.byte	0
 11754 287c 1C       		.uleb128 0x1c
 11755 287d C4040000 		.4byte	.LVL805
 11756 2881 D1030000 		.4byte	0x3d1
 11757 2885 90280000 		.4byte	0x2890
 11758 2889 1B       		.uleb128 0x1b
 11759 288a 01       		.uleb128 0x1
 11760 288b 50       		.byte	0x50
 11761 288c 02       		.uleb128 0x2
 11762 288d 75       		.byte	0x75
 11763 288e 00       		.sleb128 0
 11764 288f 00       		.byte	0
 11765 2890 1A       		.uleb128 0x1a
 11766 2891 CA040000 		.4byte	.LVL806
 11767 2895 DC370000 		.4byte	0x37dc
 11768 2899 1B       		.uleb128 0x1b
 11769 289a 01       		.uleb128 0x1
 11770 289b 50       		.byte	0x50
 11771 289c 02       		.uleb128 0x2
 11772 289d 75       		.byte	0x75
 11773 289e 00       		.sleb128 0
 11774 289f 00       		.byte	0
 11775 28a0 00       		.byte	0
 11776 28a1 15       		.uleb128 0x15
 11777 28a2 D8040000 		.4byte	.LBB79
 11778 28a6 9A000000 		.4byte	.LBE79-.LBB79
 11779 28aa BC290000 		.4byte	0x29bc
 11780 28ae 16       		.uleb128 0x16
 11781 28af 3D060000 		.4byte	.LASF176
 11782 28b3 02       		.byte	0x2
 11783 28b4 9D04     		.2byte	0x49d
 11784 28b6 8B000000 		.4byte	0x8b
 11785 28ba 02       		.uleb128 0x2
 11786 28bb 91       		.byte	0x91
ARM GAS  C:\Users\FRANKL~1\AppData\Local\Temp\ccebBo1q.s 			page 246


 11787 28bc 64       		.sleb128 -28
 11788 28bd 17       		.uleb128 0x17
 11789 28be 3B0B0000 		.4byte	.LASF174
 11790 28c2 02       		.byte	0x2
 11791 28c3 9E04     		.2byte	0x49e
 11792 28c5 AE000000 		.4byte	0xae
 11793 28c9 111A0000 		.4byte	.LLST177
 11794 28cd 17       		.uleb128 0x17
 11795 28ce F60A0000 		.4byte	.LASF175
 11796 28d2 02       		.byte	0x2
 11797 28d3 9F04     		.2byte	0x49f
 11798 28d5 AE000000 		.4byte	0xae
 11799 28d9 241A0000 		.4byte	.LLST178
 11800 28dd 1C       		.uleb128 0x1c
 11801 28de 00050000 		.4byte	.LVL809
 11802 28e2 C6370000 		.4byte	0x37c6
 11803 28e6 F1280000 		.4byte	0x28f1
 11804 28ea 1B       		.uleb128 0x1b
 11805 28eb 01       		.uleb128 0x1
 11806 28ec 50       		.byte	0x50
 11807 28ed 02       		.uleb128 0x2
 11808 28ee 75       		.byte	0x75
 11809 28ef 00       		.sleb128 0
 11810 28f0 00       		.byte	0
 11811 28f1 1C       		.uleb128 0x1c
 11812 28f2 08050000 		.4byte	.LVL810
 11813 28f6 D1030000 		.4byte	0x3d1
 11814 28fa 05290000 		.4byte	0x2905
 11815 28fe 1B       		.uleb128 0x1b
 11816 28ff 01       		.uleb128 0x1
 11817 2900 50       		.byte	0x50
 11818 2901 02       		.uleb128 0x2
 11819 2902 75       		.byte	0x75
 11820 2903 00       		.sleb128 0
 11821 2904 00       		.byte	0
 11822 2905 1C       		.uleb128 0x1c
 11823 2906 0E050000 		.4byte	.LVL811
 11824 290a DC370000 		.4byte	0x37dc
 11825 290e 19290000 		.4byte	0x2919
 11826 2912 1B       		.uleb128 0x1b
 11827 2913 01       		.uleb128 0x1
 11828 2914 50       		.byte	0x50
 11829 2915 02       		.uleb128 0x2
 11830 2916 75       		.byte	0x75
 11831 2917 00       		.sleb128 0
 11832 2918 00       		.byte	0
 11833 2919 1C       		.uleb128 0x1c
 11834 291a 16050000 		.4byte	.LVL812
 11835 291e CE380000 		.4byte	0x38ce
 11836 2922 33290000 		.4byte	0x2933
 11837 2926 1B       		.uleb128 0x1b
 11838 2927 01       		.uleb128 0x1
 11839 2928 50       		.byte	0x50
 11840 2929 02       		.uleb128 0x2
 11841 292a 74       		.byte	0x74
 11842 292b 00       		.sleb128 0
 11843 292c 1B       		.uleb128 0x1b
ARM GAS  C:\Users\FRANKL~1\AppData\Local\Temp\ccebBo1q.s 			page 247


 11844 292d 01       		.uleb128 0x1
 11845 292e 51       		.byte	0x51
 11846 292f 02       		.uleb128 0x2
 11847 2930 08       		.byte	0x8
 11848 2931 20       		.byte	0x20
 11849 2932 00       		.byte	0
 11850 2933 1C       		.uleb128 0x1c
 11851 2934 24050000 		.4byte	.LVL814
 11852 2938 DD380000 		.4byte	0x38dd
 11853 293c 4C290000 		.4byte	0x294c
 11854 2940 1B       		.uleb128 0x1b
 11855 2941 01       		.uleb128 0x1
 11856 2942 51       		.byte	0x51
 11857 2943 02       		.uleb128 0x2
 11858 2944 74       		.byte	0x74
 11859 2945 00       		.sleb128 0
 11860 2946 1B       		.uleb128 0x1b
 11861 2947 01       		.uleb128 0x1
 11862 2948 52       		.byte	0x52
 11863 2949 01       		.uleb128 0x1
 11864 294a 3A       		.byte	0x3a
 11865 294b 00       		.byte	0
 11866 294c 1C       		.uleb128 0x1c
 11867 294d 30050000 		.4byte	.LVL816
 11868 2951 DD380000 		.4byte	0x38dd
 11869 2955 65290000 		.4byte	0x2965
 11870 2959 1B       		.uleb128 0x1b
 11871 295a 01       		.uleb128 0x1
 11872 295b 51       		.byte	0x51
 11873 295c 02       		.uleb128 0x2
 11874 295d 74       		.byte	0x74
 11875 295e 00       		.sleb128 0
 11876 295f 1B       		.uleb128 0x1b
 11877 2960 01       		.uleb128 0x1
 11878 2961 52       		.byte	0x52
 11879 2962 01       		.uleb128 0x1
 11880 2963 3A       		.byte	0x3a
 11881 2964 00       		.byte	0
 11882 2965 1C       		.uleb128 0x1c
 11883 2966 3C050000 		.4byte	.LVL818
 11884 296a 18200000 		.4byte	0x2018
 11885 296e 83290000 		.4byte	0x2983
 11886 2972 1B       		.uleb128 0x1b
 11887 2973 01       		.uleb128 0x1
 11888 2974 50       		.byte	0x50
 11889 2975 02       		.uleb128 0x2
 11890 2976 76       		.byte	0x76
 11891 2977 00       		.sleb128 0
 11892 2978 1B       		.uleb128 0x1b
 11893 2979 01       		.uleb128 0x1
 11894 297a 52       		.byte	0x52
 11895 297b 01       		.uleb128 0x1
 11896 297c 31       		.byte	0x31
 11897 297d 1B       		.uleb128 0x1b
 11898 297e 01       		.uleb128 0x1
 11899 297f 53       		.byte	0x53
 11900 2980 01       		.uleb128 0x1
ARM GAS  C:\Users\FRANKL~1\AppData\Local\Temp\ccebBo1q.s 			page 248


 11901 2981 31       		.byte	0x31
 11902 2982 00       		.byte	0
 11903 2983 1C       		.uleb128 0x1c
 11904 2984 64050000 		.4byte	.LVL820
 11905 2988 C6370000 		.4byte	0x37c6
 11906 298c 97290000 		.4byte	0x2997
 11907 2990 1B       		.uleb128 0x1b
 11908 2991 01       		.uleb128 0x1
 11909 2992 50       		.byte	0x50
 11910 2993 02       		.uleb128 0x2
 11911 2994 74       		.byte	0x74
 11912 2995 00       		.sleb128 0
 11913 2996 00       		.byte	0
 11914 2997 1C       		.uleb128 0x1c
 11915 2998 6C050000 		.4byte	.LVL821
 11916 299c D1030000 		.4byte	0x3d1
 11917 29a0 AB290000 		.4byte	0x29ab
 11918 29a4 1B       		.uleb128 0x1b
 11919 29a5 01       		.uleb128 0x1
 11920 29a6 50       		.byte	0x50
 11921 29a7 02       		.uleb128 0x2
 11922 29a8 74       		.byte	0x74
 11923 29a9 00       		.sleb128 0
 11924 29aa 00       		.byte	0
 11925 29ab 1A       		.uleb128 0x1a
 11926 29ac 72050000 		.4byte	.LVL822
 11927 29b0 DC370000 		.4byte	0x37dc
 11928 29b4 1B       		.uleb128 0x1b
 11929 29b5 01       		.uleb128 0x1
 11930 29b6 50       		.byte	0x50
 11931 29b7 02       		.uleb128 0x2
 11932 29b8 74       		.byte	0x74
 11933 29b9 00       		.sleb128 0
 11934 29ba 00       		.byte	0
 11935 29bb 00       		.byte	0
 11936 29bc 15       		.uleb128 0x15
 11937 29bd 80050000 		.4byte	.LBB80
 11938 29c1 4E000000 		.4byte	.LBE80-.LBB80
 11939 29c5 C02A0000 		.4byte	0x2ac0
 11940 29c9 16       		.uleb128 0x16
 11941 29ca 3D060000 		.4byte	.LASF176
 11942 29ce 02       		.byte	0x2
 11943 29cf A704     		.2byte	0x4a7
 11944 29d1 8B000000 		.4byte	0x8b
 11945 29d5 02       		.uleb128 0x2
 11946 29d6 91       		.byte	0x91
 11947 29d7 64       		.sleb128 -28
 11948 29d8 17       		.uleb128 0x17
 11949 29d9 EE0A0000 		.4byte	.LASF60
 11950 29dd 02       		.byte	0x2
 11951 29de A804     		.2byte	0x4a8
 11952 29e0 AE000000 		.4byte	0xae
 11953 29e4 421A0000 		.4byte	.LLST179
 11954 29e8 17       		.uleb128 0x17
 11955 29e9 00000000 		.4byte	.LASF58
 11956 29ed 02       		.byte	0x2
 11957 29ee A904     		.2byte	0x4a9
ARM GAS  C:\Users\FRANKL~1\AppData\Local\Temp\ccebBo1q.s 			page 249


 11958 29f0 AE000000 		.4byte	0xae
 11959 29f4 551A0000 		.4byte	.LLST180
 11960 29f8 1C       		.uleb128 0x1c
 11961 29f9 88050000 		.4byte	.LVL825
 11962 29fd CE380000 		.4byte	0x38ce
 11963 2a01 122A0000 		.4byte	0x2a12
 11964 2a05 1B       		.uleb128 0x1b
 11965 2a06 01       		.uleb128 0x1
 11966 2a07 50       		.byte	0x50
 11967 2a08 02       		.uleb128 0x2
 11968 2a09 74       		.byte	0x74
 11969 2a0a 00       		.sleb128 0
 11970 2a0b 1B       		.uleb128 0x1b
 11971 2a0c 01       		.uleb128 0x1
 11972 2a0d 51       		.byte	0x51
 11973 2a0e 02       		.uleb128 0x2
 11974 2a0f 08       		.byte	0x8
 11975 2a10 20       		.byte	0x20
 11976 2a11 00       		.byte	0
 11977 2a12 1C       		.uleb128 0x1c
 11978 2a13 96050000 		.4byte	.LVL827
 11979 2a17 DD380000 		.4byte	0x38dd
 11980 2a1b 2B2A0000 		.4byte	0x2a2b
 11981 2a1f 1B       		.uleb128 0x1b
 11982 2a20 01       		.uleb128 0x1
 11983 2a21 51       		.byte	0x51
 11984 2a22 02       		.uleb128 0x2
 11985 2a23 74       		.byte	0x74
 11986 2a24 00       		.sleb128 0
 11987 2a25 1B       		.uleb128 0x1b
 11988 2a26 01       		.uleb128 0x1
 11989 2a27 52       		.byte	0x52
 11990 2a28 01       		.uleb128 0x1
 11991 2a29 3A       		.byte	0x3a
 11992 2a2a 00       		.byte	0
 11993 2a2b 1C       		.uleb128 0x1c
 11994 2a2c A2050000 		.4byte	.LVL829
 11995 2a30 DD380000 		.4byte	0x38dd
 11996 2a34 442A0000 		.4byte	0x2a44
 11997 2a38 1B       		.uleb128 0x1b
 11998 2a39 01       		.uleb128 0x1
 11999 2a3a 51       		.byte	0x51
 12000 2a3b 02       		.uleb128 0x2
 12001 2a3c 74       		.byte	0x74
 12002 2a3d 00       		.sleb128 0
 12003 2a3e 1B       		.uleb128 0x1b
 12004 2a3f 01       		.uleb128 0x1
 12005 2a40 52       		.byte	0x52
 12006 2a41 01       		.uleb128 0x1
 12007 2a42 3A       		.byte	0x3a
 12008 2a43 00       		.byte	0
 12009 2a44 1C       		.uleb128 0x1c
 12010 2a45 AC050000 		.4byte	.LVL831
 12011 2a49 E3080000 		.4byte	0x8e3
 12012 2a4d 5E2A0000 		.4byte	0x2a5e
 12013 2a51 1B       		.uleb128 0x1b
 12014 2a52 01       		.uleb128 0x1
ARM GAS  C:\Users\FRANKL~1\AppData\Local\Temp\ccebBo1q.s 			page 250


 12015 2a53 50       		.byte	0x50
 12016 2a54 02       		.uleb128 0x2
 12017 2a55 75       		.byte	0x75
 12018 2a56 00       		.sleb128 0
 12019 2a57 1B       		.uleb128 0x1b
 12020 2a58 01       		.uleb128 0x1
 12021 2a59 51       		.byte	0x51
 12022 2a5a 02       		.uleb128 0x2
 12023 2a5b 76       		.byte	0x76
 12024 2a5c 00       		.sleb128 0
 12025 2a5d 00       		.byte	0
 12026 2a5e 1C       		.uleb128 0x1c
 12027 2a5f BA050000 		.4byte	.LVL832
 12028 2a63 FD370000 		.4byte	0x37fd
 12029 2a67 872A0000 		.4byte	0x2a87
 12030 2a6b 1B       		.uleb128 0x1b
 12031 2a6c 01       		.uleb128 0x1
 12032 2a6d 50       		.byte	0x50
 12033 2a6e 02       		.uleb128 0x2
 12034 2a6f 74       		.byte	0x74
 12035 2a70 00       		.sleb128 0
 12036 2a71 1B       		.uleb128 0x1b
 12037 2a72 01       		.uleb128 0x1
 12038 2a73 51       		.byte	0x51
 12039 2a74 05       		.uleb128 0x5
 12040 2a75 03       		.byte	0x3
 12041 2a76 54030000 		.4byte	.LC46
 12042 2a7a 1B       		.uleb128 0x1b
 12043 2a7b 01       		.uleb128 0x1
 12044 2a7c 52       		.byte	0x52
 12045 2a7d 02       		.uleb128 0x2
 12046 2a7e 75       		.byte	0x75
 12047 2a7f 00       		.sleb128 0
 12048 2a80 1B       		.uleb128 0x1b
 12049 2a81 01       		.uleb128 0x1
 12050 2a82 53       		.byte	0x53
 12051 2a83 02       		.uleb128 0x2
 12052 2a84 76       		.byte	0x76
 12053 2a85 00       		.sleb128 0
 12054 2a86 00       		.byte	0
 12055 2a87 1C       		.uleb128 0x1c
 12056 2a88 C0050000 		.4byte	.LVL833
 12057 2a8c C6370000 		.4byte	0x37c6
 12058 2a90 9B2A0000 		.4byte	0x2a9b
 12059 2a94 1B       		.uleb128 0x1b
 12060 2a95 01       		.uleb128 0x1
 12061 2a96 50       		.byte	0x50
 12062 2a97 02       		.uleb128 0x2
 12063 2a98 74       		.byte	0x74
 12064 2a99 00       		.sleb128 0
 12065 2a9a 00       		.byte	0
 12066 2a9b 1C       		.uleb128 0x1c
 12067 2a9c C8050000 		.4byte	.LVL834
 12068 2aa0 D1030000 		.4byte	0x3d1
 12069 2aa4 AF2A0000 		.4byte	0x2aaf
 12070 2aa8 1B       		.uleb128 0x1b
 12071 2aa9 01       		.uleb128 0x1
ARM GAS  C:\Users\FRANKL~1\AppData\Local\Temp\ccebBo1q.s 			page 251


 12072 2aaa 50       		.byte	0x50
 12073 2aab 02       		.uleb128 0x2
 12074 2aac 74       		.byte	0x74
 12075 2aad 00       		.sleb128 0
 12076 2aae 00       		.byte	0
 12077 2aaf 1A       		.uleb128 0x1a
 12078 2ab0 CE050000 		.4byte	.LVL835
 12079 2ab4 DC370000 		.4byte	0x37dc
 12080 2ab8 1B       		.uleb128 0x1b
 12081 2ab9 01       		.uleb128 0x1
 12082 2aba 50       		.byte	0x50
 12083 2abb 02       		.uleb128 0x2
 12084 2abc 74       		.byte	0x74
 12085 2abd 00       		.sleb128 0
 12086 2abe 00       		.byte	0
 12087 2abf 00       		.byte	0
 12088 2ac0 15       		.uleb128 0x15
 12089 2ac1 DC050000 		.4byte	.LBB81
 12090 2ac5 4E000000 		.4byte	.LBE81-.LBB81
 12091 2ac9 C42B0000 		.4byte	0x2bc4
 12092 2acd 16       		.uleb128 0x16
 12093 2ace 3D060000 		.4byte	.LASF176
 12094 2ad2 02       		.byte	0x2
 12095 2ad3 B104     		.2byte	0x4b1
 12096 2ad5 8B000000 		.4byte	0x8b
 12097 2ad9 02       		.uleb128 0x2
 12098 2ada 91       		.byte	0x91
 12099 2adb 64       		.sleb128 -28
 12100 2adc 17       		.uleb128 0x17
 12101 2add B0050000 		.4byte	.LASF57
 12102 2ae1 02       		.byte	0x2
 12103 2ae2 B204     		.2byte	0x4b2
 12104 2ae4 AE000000 		.4byte	0xae
 12105 2ae8 681A0000 		.4byte	.LLST181
 12106 2aec 17       		.uleb128 0x17
 12107 2aed 00000000 		.4byte	.LASF58
 12108 2af1 02       		.byte	0x2
 12109 2af2 B304     		.2byte	0x4b3
 12110 2af4 AE000000 		.4byte	0xae
 12111 2af8 7B1A0000 		.4byte	.LLST182
 12112 2afc 1C       		.uleb128 0x1c
 12113 2afd E4050000 		.4byte	.LVL838
 12114 2b01 CE380000 		.4byte	0x38ce
 12115 2b05 162B0000 		.4byte	0x2b16
 12116 2b09 1B       		.uleb128 0x1b
 12117 2b0a 01       		.uleb128 0x1
 12118 2b0b 50       		.byte	0x50
 12119 2b0c 02       		.uleb128 0x2
 12120 2b0d 74       		.byte	0x74
 12121 2b0e 00       		.sleb128 0
 12122 2b0f 1B       		.uleb128 0x1b
 12123 2b10 01       		.uleb128 0x1
 12124 2b11 51       		.byte	0x51
 12125 2b12 02       		.uleb128 0x2
 12126 2b13 08       		.byte	0x8
 12127 2b14 20       		.byte	0x20
 12128 2b15 00       		.byte	0
ARM GAS  C:\Users\FRANKL~1\AppData\Local\Temp\ccebBo1q.s 			page 252


 12129 2b16 1C       		.uleb128 0x1c
 12130 2b17 F2050000 		.4byte	.LVL840
 12131 2b1b DD380000 		.4byte	0x38dd
 12132 2b1f 2F2B0000 		.4byte	0x2b2f
 12133 2b23 1B       		.uleb128 0x1b
 12134 2b24 01       		.uleb128 0x1
 12135 2b25 51       		.byte	0x51
 12136 2b26 02       		.uleb128 0x2
 12137 2b27 74       		.byte	0x74
 12138 2b28 00       		.sleb128 0
 12139 2b29 1B       		.uleb128 0x1b
 12140 2b2a 01       		.uleb128 0x1
 12141 2b2b 52       		.byte	0x52
 12142 2b2c 01       		.uleb128 0x1
 12143 2b2d 3A       		.byte	0x3a
 12144 2b2e 00       		.byte	0
 12145 2b2f 1C       		.uleb128 0x1c
 12146 2b30 FE050000 		.4byte	.LVL842
 12147 2b34 DD380000 		.4byte	0x38dd
 12148 2b38 482B0000 		.4byte	0x2b48
 12149 2b3c 1B       		.uleb128 0x1b
 12150 2b3d 01       		.uleb128 0x1
 12151 2b3e 51       		.byte	0x51
 12152 2b3f 02       		.uleb128 0x2
 12153 2b40 74       		.byte	0x74
 12154 2b41 00       		.sleb128 0
 12155 2b42 1B       		.uleb128 0x1b
 12156 2b43 01       		.uleb128 0x1
 12157 2b44 52       		.byte	0x52
 12158 2b45 01       		.uleb128 0x1
 12159 2b46 3A       		.byte	0x3a
 12160 2b47 00       		.byte	0
 12161 2b48 1C       		.uleb128 0x1c
 12162 2b49 08060000 		.4byte	.LVL844
 12163 2b4d A6080000 		.4byte	0x8a6
 12164 2b51 622B0000 		.4byte	0x2b62
 12165 2b55 1B       		.uleb128 0x1b
 12166 2b56 01       		.uleb128 0x1
 12167 2b57 50       		.byte	0x50
 12168 2b58 02       		.uleb128 0x2
 12169 2b59 75       		.byte	0x75
 12170 2b5a 00       		.sleb128 0
 12171 2b5b 1B       		.uleb128 0x1b
 12172 2b5c 01       		.uleb128 0x1
 12173 2b5d 51       		.byte	0x51
 12174 2b5e 02       		.uleb128 0x2
 12175 2b5f 76       		.byte	0x76
 12176 2b60 00       		.sleb128 0
 12177 2b61 00       		.byte	0
 12178 2b62 1C       		.uleb128 0x1c
 12179 2b63 16060000 		.4byte	.LVL845
 12180 2b67 FD370000 		.4byte	0x37fd
 12181 2b6b 8B2B0000 		.4byte	0x2b8b
 12182 2b6f 1B       		.uleb128 0x1b
 12183 2b70 01       		.uleb128 0x1
 12184 2b71 50       		.byte	0x50
 12185 2b72 02       		.uleb128 0x2
ARM GAS  C:\Users\FRANKL~1\AppData\Local\Temp\ccebBo1q.s 			page 253


 12186 2b73 74       		.byte	0x74
 12187 2b74 00       		.sleb128 0
 12188 2b75 1B       		.uleb128 0x1b
 12189 2b76 01       		.uleb128 0x1
 12190 2b77 51       		.byte	0x51
 12191 2b78 05       		.uleb128 0x5
 12192 2b79 03       		.byte	0x3
 12193 2b7a 78030000 		.4byte	.LC48
 12194 2b7e 1B       		.uleb128 0x1b
 12195 2b7f 01       		.uleb128 0x1
 12196 2b80 52       		.byte	0x52
 12197 2b81 02       		.uleb128 0x2
 12198 2b82 75       		.byte	0x75
 12199 2b83 00       		.sleb128 0
 12200 2b84 1B       		.uleb128 0x1b
 12201 2b85 01       		.uleb128 0x1
 12202 2b86 53       		.byte	0x53
 12203 2b87 02       		.uleb128 0x2
 12204 2b88 76       		.byte	0x76
 12205 2b89 00       		.sleb128 0
 12206 2b8a 00       		.byte	0
 12207 2b8b 1C       		.uleb128 0x1c
 12208 2b8c 1C060000 		.4byte	.LVL846
 12209 2b90 C6370000 		.4byte	0x37c6
 12210 2b94 9F2B0000 		.4byte	0x2b9f
 12211 2b98 1B       		.uleb128 0x1b
 12212 2b99 01       		.uleb128 0x1
 12213 2b9a 50       		.byte	0x50
 12214 2b9b 02       		.uleb128 0x2
 12215 2b9c 74       		.byte	0x74
 12216 2b9d 00       		.sleb128 0
 12217 2b9e 00       		.byte	0
 12218 2b9f 1C       		.uleb128 0x1c
 12219 2ba0 24060000 		.4byte	.LVL847
 12220 2ba4 D1030000 		.4byte	0x3d1
 12221 2ba8 B32B0000 		.4byte	0x2bb3
 12222 2bac 1B       		.uleb128 0x1b
 12223 2bad 01       		.uleb128 0x1
 12224 2bae 50       		.byte	0x50
 12225 2baf 02       		.uleb128 0x2
 12226 2bb0 74       		.byte	0x74
 12227 2bb1 00       		.sleb128 0
 12228 2bb2 00       		.byte	0
 12229 2bb3 1A       		.uleb128 0x1a
 12230 2bb4 2A060000 		.4byte	.LVL848
 12231 2bb8 DC370000 		.4byte	0x37dc
 12232 2bbc 1B       		.uleb128 0x1b
 12233 2bbd 01       		.uleb128 0x1
 12234 2bbe 50       		.byte	0x50
 12235 2bbf 02       		.uleb128 0x2
 12236 2bc0 74       		.byte	0x74
 12237 2bc1 00       		.sleb128 0
 12238 2bc2 00       		.byte	0
 12239 2bc3 00       		.byte	0
 12240 2bc4 15       		.uleb128 0x15
 12241 2bc5 38060000 		.4byte	.LBB82
 12242 2bc9 4E000000 		.4byte	.LBE82-.LBB82
ARM GAS  C:\Users\FRANKL~1\AppData\Local\Temp\ccebBo1q.s 			page 254


 12243 2bcd C82C0000 		.4byte	0x2cc8
 12244 2bd1 16       		.uleb128 0x16
 12245 2bd2 3D060000 		.4byte	.LASF176
 12246 2bd6 02       		.byte	0x2
 12247 2bd7 BB04     		.2byte	0x4bb
 12248 2bd9 8B000000 		.4byte	0x8b
 12249 2bdd 02       		.uleb128 0x2
 12250 2bde 91       		.byte	0x91
 12251 2bdf 64       		.sleb128 -28
 12252 2be0 17       		.uleb128 0x17
 12253 2be1 EE0A0000 		.4byte	.LASF60
 12254 2be5 02       		.byte	0x2
 12255 2be6 BC04     		.2byte	0x4bc
 12256 2be8 AE000000 		.4byte	0xae
 12257 2bec 8E1A0000 		.4byte	.LLST183
 12258 2bf0 17       		.uleb128 0x17
 12259 2bf1 00000000 		.4byte	.LASF58
 12260 2bf5 02       		.byte	0x2
 12261 2bf6 BD04     		.2byte	0x4bd
 12262 2bf8 AE000000 		.4byte	0xae
 12263 2bfc A11A0000 		.4byte	.LLST184
 12264 2c00 1C       		.uleb128 0x1c
 12265 2c01 40060000 		.4byte	.LVL851
 12266 2c05 CE380000 		.4byte	0x38ce
 12267 2c09 1A2C0000 		.4byte	0x2c1a
 12268 2c0d 1B       		.uleb128 0x1b
 12269 2c0e 01       		.uleb128 0x1
 12270 2c0f 50       		.byte	0x50
 12271 2c10 02       		.uleb128 0x2
 12272 2c11 74       		.byte	0x74
 12273 2c12 00       		.sleb128 0
 12274 2c13 1B       		.uleb128 0x1b
 12275 2c14 01       		.uleb128 0x1
 12276 2c15 51       		.byte	0x51
 12277 2c16 02       		.uleb128 0x2
 12278 2c17 08       		.byte	0x8
 12279 2c18 20       		.byte	0x20
 12280 2c19 00       		.byte	0
 12281 2c1a 1C       		.uleb128 0x1c
 12282 2c1b 4E060000 		.4byte	.LVL853
 12283 2c1f DD380000 		.4byte	0x38dd
 12284 2c23 332C0000 		.4byte	0x2c33
 12285 2c27 1B       		.uleb128 0x1b
 12286 2c28 01       		.uleb128 0x1
 12287 2c29 51       		.byte	0x51
 12288 2c2a 02       		.uleb128 0x2
 12289 2c2b 74       		.byte	0x74
 12290 2c2c 00       		.sleb128 0
 12291 2c2d 1B       		.uleb128 0x1b
 12292 2c2e 01       		.uleb128 0x1
 12293 2c2f 52       		.byte	0x52
 12294 2c30 01       		.uleb128 0x1
 12295 2c31 3A       		.byte	0x3a
 12296 2c32 00       		.byte	0
 12297 2c33 1C       		.uleb128 0x1c
 12298 2c34 5A060000 		.4byte	.LVL855
 12299 2c38 DD380000 		.4byte	0x38dd
ARM GAS  C:\Users\FRANKL~1\AppData\Local\Temp\ccebBo1q.s 			page 255


 12300 2c3c 4C2C0000 		.4byte	0x2c4c
 12301 2c40 1B       		.uleb128 0x1b
 12302 2c41 01       		.uleb128 0x1
 12303 2c42 51       		.byte	0x51
 12304 2c43 02       		.uleb128 0x2
 12305 2c44 74       		.byte	0x74
 12306 2c45 00       		.sleb128 0
 12307 2c46 1B       		.uleb128 0x1b
 12308 2c47 01       		.uleb128 0x1
 12309 2c48 52       		.byte	0x52
 12310 2c49 01       		.uleb128 0x1
 12311 2c4a 3A       		.byte	0x3a
 12312 2c4b 00       		.byte	0
 12313 2c4c 1C       		.uleb128 0x1c
 12314 2c4d 64060000 		.4byte	.LVL857
 12315 2c51 2F090000 		.4byte	0x92f
 12316 2c55 662C0000 		.4byte	0x2c66
 12317 2c59 1B       		.uleb128 0x1b
 12318 2c5a 01       		.uleb128 0x1
 12319 2c5b 50       		.byte	0x50
 12320 2c5c 02       		.uleb128 0x2
 12321 2c5d 75       		.byte	0x75
 12322 2c5e 00       		.sleb128 0
 12323 2c5f 1B       		.uleb128 0x1b
 12324 2c60 01       		.uleb128 0x1
 12325 2c61 51       		.byte	0x51
 12326 2c62 02       		.uleb128 0x2
 12327 2c63 76       		.byte	0x76
 12328 2c64 00       		.sleb128 0
 12329 2c65 00       		.byte	0
 12330 2c66 1C       		.uleb128 0x1c
 12331 2c67 72060000 		.4byte	.LVL858
 12332 2c6b FD370000 		.4byte	0x37fd
 12333 2c6f 8F2C0000 		.4byte	0x2c8f
 12334 2c73 1B       		.uleb128 0x1b
 12335 2c74 01       		.uleb128 0x1
 12336 2c75 50       		.byte	0x50
 12337 2c76 02       		.uleb128 0x2
 12338 2c77 74       		.byte	0x74
 12339 2c78 00       		.sleb128 0
 12340 2c79 1B       		.uleb128 0x1b
 12341 2c7a 01       		.uleb128 0x1
 12342 2c7b 51       		.byte	0x51
 12343 2c7c 05       		.uleb128 0x5
 12344 2c7d 03       		.byte	0x3
 12345 2c7e A4030000 		.4byte	.LC50
 12346 2c82 1B       		.uleb128 0x1b
 12347 2c83 01       		.uleb128 0x1
 12348 2c84 52       		.byte	0x52
 12349 2c85 02       		.uleb128 0x2
 12350 2c86 75       		.byte	0x75
 12351 2c87 00       		.sleb128 0
 12352 2c88 1B       		.uleb128 0x1b
 12353 2c89 01       		.uleb128 0x1
 12354 2c8a 53       		.byte	0x53
 12355 2c8b 02       		.uleb128 0x2
 12356 2c8c 76       		.byte	0x76
ARM GAS  C:\Users\FRANKL~1\AppData\Local\Temp\ccebBo1q.s 			page 256


 12357 2c8d 00       		.sleb128 0
 12358 2c8e 00       		.byte	0
 12359 2c8f 1C       		.uleb128 0x1c
 12360 2c90 78060000 		.4byte	.LVL859
 12361 2c94 C6370000 		.4byte	0x37c6
 12362 2c98 A32C0000 		.4byte	0x2ca3
 12363 2c9c 1B       		.uleb128 0x1b
 12364 2c9d 01       		.uleb128 0x1
 12365 2c9e 50       		.byte	0x50
 12366 2c9f 02       		.uleb128 0x2
 12367 2ca0 74       		.byte	0x74
 12368 2ca1 00       		.sleb128 0
 12369 2ca2 00       		.byte	0
 12370 2ca3 1C       		.uleb128 0x1c
 12371 2ca4 80060000 		.4byte	.LVL860
 12372 2ca8 D1030000 		.4byte	0x3d1
 12373 2cac B72C0000 		.4byte	0x2cb7
 12374 2cb0 1B       		.uleb128 0x1b
 12375 2cb1 01       		.uleb128 0x1
 12376 2cb2 50       		.byte	0x50
 12377 2cb3 02       		.uleb128 0x2
 12378 2cb4 74       		.byte	0x74
 12379 2cb5 00       		.sleb128 0
 12380 2cb6 00       		.byte	0
 12381 2cb7 1A       		.uleb128 0x1a
 12382 2cb8 86060000 		.4byte	.LVL861
 12383 2cbc DC370000 		.4byte	0x37dc
 12384 2cc0 1B       		.uleb128 0x1b
 12385 2cc1 01       		.uleb128 0x1
 12386 2cc2 50       		.byte	0x50
 12387 2cc3 02       		.uleb128 0x2
 12388 2cc4 74       		.byte	0x74
 12389 2cc5 00       		.sleb128 0
 12390 2cc6 00       		.byte	0
 12391 2cc7 00       		.byte	0
 12392 2cc8 15       		.uleb128 0x15
 12393 2cc9 94060000 		.4byte	.LBB83
 12394 2ccd 3C000000 		.4byte	.LBE83-.LBB83
 12395 2cd1 972D0000 		.4byte	0x2d97
 12396 2cd5 16       		.uleb128 0x16
 12397 2cd6 3D060000 		.4byte	.LASF176
 12398 2cda 02       		.byte	0x2
 12399 2cdb C504     		.2byte	0x4c5
 12400 2cdd 8B000000 		.4byte	0x8b
 12401 2ce1 02       		.uleb128 0x2
 12402 2ce2 91       		.byte	0x91
 12403 2ce3 64       		.sleb128 -28
 12404 2ce4 17       		.uleb128 0x17
 12405 2ce5 00000000 		.4byte	.LASF58
 12406 2ce9 02       		.byte	0x2
 12407 2cea C604     		.2byte	0x4c6
 12408 2cec AE000000 		.4byte	0xae
 12409 2cf0 B41A0000 		.4byte	.LLST185
 12410 2cf4 1C       		.uleb128 0x1c
 12411 2cf5 9C060000 		.4byte	.LVL864
 12412 2cf9 CE380000 		.4byte	0x38ce
 12413 2cfd 0E2D0000 		.4byte	0x2d0e
ARM GAS  C:\Users\FRANKL~1\AppData\Local\Temp\ccebBo1q.s 			page 257


 12414 2d01 1B       		.uleb128 0x1b
 12415 2d02 01       		.uleb128 0x1
 12416 2d03 50       		.byte	0x50
 12417 2d04 02       		.uleb128 0x2
 12418 2d05 74       		.byte	0x74
 12419 2d06 00       		.sleb128 0
 12420 2d07 1B       		.uleb128 0x1b
 12421 2d08 01       		.uleb128 0x1
 12422 2d09 51       		.byte	0x51
 12423 2d0a 02       		.uleb128 0x2
 12424 2d0b 08       		.byte	0x8
 12425 2d0c 20       		.byte	0x20
 12426 2d0d 00       		.byte	0
 12427 2d0e 1C       		.uleb128 0x1c
 12428 2d0f A8060000 		.4byte	.LVL865
 12429 2d13 DD380000 		.4byte	0x38dd
 12430 2d17 272D0000 		.4byte	0x2d27
 12431 2d1b 1B       		.uleb128 0x1b
 12432 2d1c 01       		.uleb128 0x1
 12433 2d1d 51       		.byte	0x51
 12434 2d1e 02       		.uleb128 0x2
 12435 2d1f 91       		.byte	0x91
 12436 2d20 64       		.sleb128 -28
 12437 2d21 1B       		.uleb128 0x1b
 12438 2d22 01       		.uleb128 0x1
 12439 2d23 52       		.byte	0x52
 12440 2d24 01       		.uleb128 0x1
 12441 2d25 3A       		.byte	0x3a
 12442 2d26 00       		.byte	0
 12443 2d27 1C       		.uleb128 0x1c
 12444 2d28 B0060000 		.4byte	.LVL867
 12445 2d2c 3A0A0000 		.4byte	0xa3a
 12446 2d30 3B2D0000 		.4byte	0x2d3b
 12447 2d34 1B       		.uleb128 0x1b
 12448 2d35 01       		.uleb128 0x1
 12449 2d36 50       		.byte	0x50
 12450 2d37 02       		.uleb128 0x2
 12451 2d38 75       		.byte	0x75
 12452 2d39 00       		.sleb128 0
 12453 2d3a 00       		.byte	0
 12454 2d3b 1C       		.uleb128 0x1c
 12455 2d3c BC060000 		.4byte	.LVL869
 12456 2d40 FD370000 		.4byte	0x37fd
 12457 2d44 5E2D0000 		.4byte	0x2d5e
 12458 2d48 1B       		.uleb128 0x1b
 12459 2d49 01       		.uleb128 0x1
 12460 2d4a 50       		.byte	0x50
 12461 2d4b 02       		.uleb128 0x2
 12462 2d4c 74       		.byte	0x74
 12463 2d4d 00       		.sleb128 0
 12464 2d4e 1B       		.uleb128 0x1b
 12465 2d4f 01       		.uleb128 0x1
 12466 2d50 51       		.byte	0x51
 12467 2d51 05       		.uleb128 0x5
 12468 2d52 03       		.byte	0x3
 12469 2d53 D8030000 		.4byte	.LC52
 12470 2d57 1B       		.uleb128 0x1b
ARM GAS  C:\Users\FRANKL~1\AppData\Local\Temp\ccebBo1q.s 			page 258


 12471 2d58 01       		.uleb128 0x1
 12472 2d59 52       		.byte	0x52
 12473 2d5a 02       		.uleb128 0x2
 12474 2d5b 75       		.byte	0x75
 12475 2d5c 00       		.sleb128 0
 12476 2d5d 00       		.byte	0
 12477 2d5e 1C       		.uleb128 0x1c
 12478 2d5f C2060000 		.4byte	.LVL870
 12479 2d63 C6370000 		.4byte	0x37c6
 12480 2d67 722D0000 		.4byte	0x2d72
 12481 2d6b 1B       		.uleb128 0x1b
 12482 2d6c 01       		.uleb128 0x1
 12483 2d6d 50       		.byte	0x50
 12484 2d6e 02       		.uleb128 0x2
 12485 2d6f 74       		.byte	0x74
 12486 2d70 00       		.sleb128 0
 12487 2d71 00       		.byte	0
 12488 2d72 1C       		.uleb128 0x1c
 12489 2d73 CA060000 		.4byte	.LVL871
 12490 2d77 D1030000 		.4byte	0x3d1
 12491 2d7b 862D0000 		.4byte	0x2d86
 12492 2d7f 1B       		.uleb128 0x1b
 12493 2d80 01       		.uleb128 0x1
 12494 2d81 50       		.byte	0x50
 12495 2d82 02       		.uleb128 0x2
 12496 2d83 74       		.byte	0x74
 12497 2d84 00       		.sleb128 0
 12498 2d85 00       		.byte	0
 12499 2d86 1A       		.uleb128 0x1a
 12500 2d87 D0060000 		.4byte	.LVL872
 12501 2d8b DC370000 		.4byte	0x37dc
 12502 2d8f 1B       		.uleb128 0x1b
 12503 2d90 01       		.uleb128 0x1
 12504 2d91 50       		.byte	0x50
 12505 2d92 02       		.uleb128 0x2
 12506 2d93 74       		.byte	0x74
 12507 2d94 00       		.sleb128 0
 12508 2d95 00       		.byte	0
 12509 2d96 00       		.byte	0
 12510 2d97 15       		.uleb128 0x15
 12511 2d98 68070000 		.4byte	.LBB84
 12512 2d9c 3C000000 		.4byte	.LBE84-.LBB84
 12513 2da0 662E0000 		.4byte	0x2e66
 12514 2da4 16       		.uleb128 0x16
 12515 2da5 3D060000 		.4byte	.LASF176
 12516 2da9 02       		.byte	0x2
 12517 2daa D504     		.2byte	0x4d5
 12518 2dac 8B000000 		.4byte	0x8b
 12519 2db0 02       		.uleb128 0x2
 12520 2db1 91       		.byte	0x91
 12521 2db2 64       		.sleb128 -28
 12522 2db3 17       		.uleb128 0x17
 12523 2db4 EE0A0000 		.4byte	.LASF60
 12524 2db8 02       		.byte	0x2
 12525 2db9 D604     		.2byte	0x4d6
 12526 2dbb AE000000 		.4byte	0xae
 12527 2dbf C71A0000 		.4byte	.LLST186
ARM GAS  C:\Users\FRANKL~1\AppData\Local\Temp\ccebBo1q.s 			page 259


 12528 2dc3 1C       		.uleb128 0x1c
 12529 2dc4 70070000 		.4byte	.LVL882
 12530 2dc8 CE380000 		.4byte	0x38ce
 12531 2dcc DD2D0000 		.4byte	0x2ddd
 12532 2dd0 1B       		.uleb128 0x1b
 12533 2dd1 01       		.uleb128 0x1
 12534 2dd2 50       		.byte	0x50
 12535 2dd3 02       		.uleb128 0x2
 12536 2dd4 74       		.byte	0x74
 12537 2dd5 00       		.sleb128 0
 12538 2dd6 1B       		.uleb128 0x1b
 12539 2dd7 01       		.uleb128 0x1
 12540 2dd8 51       		.byte	0x51
 12541 2dd9 02       		.uleb128 0x2
 12542 2dda 08       		.byte	0x8
 12543 2ddb 20       		.byte	0x20
 12544 2ddc 00       		.byte	0
 12545 2ddd 1C       		.uleb128 0x1c
 12546 2dde 7C070000 		.4byte	.LVL883
 12547 2de2 DD380000 		.4byte	0x38dd
 12548 2de6 F62D0000 		.4byte	0x2df6
 12549 2dea 1B       		.uleb128 0x1b
 12550 2deb 01       		.uleb128 0x1
 12551 2dec 51       		.byte	0x51
 12552 2ded 02       		.uleb128 0x2
 12553 2dee 91       		.byte	0x91
 12554 2def 64       		.sleb128 -28
 12555 2df0 1B       		.uleb128 0x1b
 12556 2df1 01       		.uleb128 0x1
 12557 2df2 52       		.byte	0x52
 12558 2df3 01       		.uleb128 0x1
 12559 2df4 3A       		.byte	0x3a
 12560 2df5 00       		.byte	0
 12561 2df6 1C       		.uleb128 0x1c
 12562 2df7 84070000 		.4byte	.LVL885
 12563 2dfb 7B090000 		.4byte	0x97b
 12564 2dff 0A2E0000 		.4byte	0x2e0a
 12565 2e03 1B       		.uleb128 0x1b
 12566 2e04 01       		.uleb128 0x1
 12567 2e05 50       		.byte	0x50
 12568 2e06 02       		.uleb128 0x2
 12569 2e07 75       		.byte	0x75
 12570 2e08 00       		.sleb128 0
 12571 2e09 00       		.byte	0
 12572 2e0a 1C       		.uleb128 0x1c
 12573 2e0b 90070000 		.4byte	.LVL887
 12574 2e0f FD370000 		.4byte	0x37fd
 12575 2e13 2D2E0000 		.4byte	0x2e2d
 12576 2e17 1B       		.uleb128 0x1b
 12577 2e18 01       		.uleb128 0x1
 12578 2e19 50       		.byte	0x50
 12579 2e1a 02       		.uleb128 0x2
 12580 2e1b 74       		.byte	0x74
 12581 2e1c 00       		.sleb128 0
 12582 2e1d 1B       		.uleb128 0x1b
 12583 2e1e 01       		.uleb128 0x1
 12584 2e1f 51       		.byte	0x51
ARM GAS  C:\Users\FRANKL~1\AppData\Local\Temp\ccebBo1q.s 			page 260


 12585 2e20 05       		.uleb128 0x5
 12586 2e21 03       		.byte	0x3
 12587 2e22 4C040000 		.4byte	.LC56
 12588 2e26 1B       		.uleb128 0x1b
 12589 2e27 01       		.uleb128 0x1
 12590 2e28 52       		.byte	0x52
 12591 2e29 02       		.uleb128 0x2
 12592 2e2a 75       		.byte	0x75
 12593 2e2b 00       		.sleb128 0
 12594 2e2c 00       		.byte	0
 12595 2e2d 1C       		.uleb128 0x1c
 12596 2e2e 96070000 		.4byte	.LVL888
 12597 2e32 C6370000 		.4byte	0x37c6
 12598 2e36 412E0000 		.4byte	0x2e41
 12599 2e3a 1B       		.uleb128 0x1b
 12600 2e3b 01       		.uleb128 0x1
 12601 2e3c 50       		.byte	0x50
 12602 2e3d 02       		.uleb128 0x2
 12603 2e3e 74       		.byte	0x74
 12604 2e3f 00       		.sleb128 0
 12605 2e40 00       		.byte	0
 12606 2e41 1C       		.uleb128 0x1c
 12607 2e42 9E070000 		.4byte	.LVL889
 12608 2e46 D1030000 		.4byte	0x3d1
 12609 2e4a 552E0000 		.4byte	0x2e55
 12610 2e4e 1B       		.uleb128 0x1b
 12611 2e4f 01       		.uleb128 0x1
 12612 2e50 50       		.byte	0x50
 12613 2e51 02       		.uleb128 0x2
 12614 2e52 74       		.byte	0x74
 12615 2e53 00       		.sleb128 0
 12616 2e54 00       		.byte	0
 12617 2e55 1A       		.uleb128 0x1a
 12618 2e56 A4070000 		.4byte	.LVL890
 12619 2e5a DC370000 		.4byte	0x37dc
 12620 2e5e 1B       		.uleb128 0x1b
 12621 2e5f 01       		.uleb128 0x1
 12622 2e60 50       		.byte	0x50
 12623 2e61 02       		.uleb128 0x2
 12624 2e62 74       		.byte	0x74
 12625 2e63 00       		.sleb128 0
 12626 2e64 00       		.byte	0
 12627 2e65 00       		.byte	0
 12628 2e66 15       		.uleb128 0x15
 12629 2e67 B2070000 		.4byte	.LBB85
 12630 2e6b 3C000000 		.4byte	.LBE85-.LBB85
 12631 2e6f 352F0000 		.4byte	0x2f35
 12632 2e73 16       		.uleb128 0x16
 12633 2e74 3D060000 		.4byte	.LASF176
 12634 2e78 02       		.byte	0x2
 12635 2e79 DE04     		.2byte	0x4de
 12636 2e7b 8B000000 		.4byte	0x8b
 12637 2e7f 02       		.uleb128 0x2
 12638 2e80 91       		.byte	0x91
 12639 2e81 64       		.sleb128 -28
 12640 2e82 17       		.uleb128 0x17
 12641 2e83 00000000 		.4byte	.LASF58
ARM GAS  C:\Users\FRANKL~1\AppData\Local\Temp\ccebBo1q.s 			page 261


 12642 2e87 02       		.byte	0x2
 12643 2e88 DF04     		.2byte	0x4df
 12644 2e8a AE000000 		.4byte	0xae
 12645 2e8e DA1A0000 		.4byte	.LLST187
 12646 2e92 1C       		.uleb128 0x1c
 12647 2e93 BA070000 		.4byte	.LVL893
 12648 2e97 CE380000 		.4byte	0x38ce
 12649 2e9b AC2E0000 		.4byte	0x2eac
 12650 2e9f 1B       		.uleb128 0x1b
 12651 2ea0 01       		.uleb128 0x1
 12652 2ea1 50       		.byte	0x50
 12653 2ea2 02       		.uleb128 0x2
 12654 2ea3 74       		.byte	0x74
 12655 2ea4 00       		.sleb128 0
 12656 2ea5 1B       		.uleb128 0x1b
 12657 2ea6 01       		.uleb128 0x1
 12658 2ea7 51       		.byte	0x51
 12659 2ea8 02       		.uleb128 0x2
 12660 2ea9 08       		.byte	0x8
 12661 2eaa 20       		.byte	0x20
 12662 2eab 00       		.byte	0
 12663 2eac 1C       		.uleb128 0x1c
 12664 2ead C6070000 		.4byte	.LVL894
 12665 2eb1 DD380000 		.4byte	0x38dd
 12666 2eb5 C52E0000 		.4byte	0x2ec5
 12667 2eb9 1B       		.uleb128 0x1b
 12668 2eba 01       		.uleb128 0x1
 12669 2ebb 51       		.byte	0x51
 12670 2ebc 02       		.uleb128 0x2
 12671 2ebd 91       		.byte	0x91
 12672 2ebe 64       		.sleb128 -28
 12673 2ebf 1B       		.uleb128 0x1b
 12674 2ec0 01       		.uleb128 0x1
 12675 2ec1 52       		.byte	0x52
 12676 2ec2 01       		.uleb128 0x1
 12677 2ec3 3A       		.byte	0x3a
 12678 2ec4 00       		.byte	0
 12679 2ec5 1C       		.uleb128 0x1c
 12680 2ec6 CE070000 		.4byte	.LVL896
 12681 2eca 850A0000 		.4byte	0xa85
 12682 2ece D92E0000 		.4byte	0x2ed9
 12683 2ed2 1B       		.uleb128 0x1b
 12684 2ed3 01       		.uleb128 0x1
 12685 2ed4 50       		.byte	0x50
 12686 2ed5 02       		.uleb128 0x2
 12687 2ed6 75       		.byte	0x75
 12688 2ed7 00       		.sleb128 0
 12689 2ed8 00       		.byte	0
 12690 2ed9 1C       		.uleb128 0x1c
 12691 2eda DA070000 		.4byte	.LVL898
 12692 2ede FD370000 		.4byte	0x37fd
 12693 2ee2 FC2E0000 		.4byte	0x2efc
 12694 2ee6 1B       		.uleb128 0x1b
 12695 2ee7 01       		.uleb128 0x1
 12696 2ee8 50       		.byte	0x50
 12697 2ee9 02       		.uleb128 0x2
 12698 2eea 74       		.byte	0x74
ARM GAS  C:\Users\FRANKL~1\AppData\Local\Temp\ccebBo1q.s 			page 262


 12699 2eeb 00       		.sleb128 0
 12700 2eec 1B       		.uleb128 0x1b
 12701 2eed 01       		.uleb128 0x1
 12702 2eee 51       		.byte	0x51
 12703 2eef 05       		.uleb128 0x5
 12704 2ef0 03       		.byte	0x3
 12705 2ef1 84040000 		.4byte	.LC58
 12706 2ef5 1B       		.uleb128 0x1b
 12707 2ef6 01       		.uleb128 0x1
 12708 2ef7 52       		.byte	0x52
 12709 2ef8 02       		.uleb128 0x2
 12710 2ef9 75       		.byte	0x75
 12711 2efa 00       		.sleb128 0
 12712 2efb 00       		.byte	0
 12713 2efc 1C       		.uleb128 0x1c
 12714 2efd E0070000 		.4byte	.LVL899
 12715 2f01 C6370000 		.4byte	0x37c6
 12716 2f05 102F0000 		.4byte	0x2f10
 12717 2f09 1B       		.uleb128 0x1b
 12718 2f0a 01       		.uleb128 0x1
 12719 2f0b 50       		.byte	0x50
 12720 2f0c 02       		.uleb128 0x2
 12721 2f0d 74       		.byte	0x74
 12722 2f0e 00       		.sleb128 0
 12723 2f0f 00       		.byte	0
 12724 2f10 1C       		.uleb128 0x1c
 12725 2f11 E8070000 		.4byte	.LVL900
 12726 2f15 D1030000 		.4byte	0x3d1
 12727 2f19 242F0000 		.4byte	0x2f24
 12728 2f1d 1B       		.uleb128 0x1b
 12729 2f1e 01       		.uleb128 0x1
 12730 2f1f 50       		.byte	0x50
 12731 2f20 02       		.uleb128 0x2
 12732 2f21 74       		.byte	0x74
 12733 2f22 00       		.sleb128 0
 12734 2f23 00       		.byte	0
 12735 2f24 1A       		.uleb128 0x1a
 12736 2f25 EE070000 		.4byte	.LVL901
 12737 2f29 DC370000 		.4byte	0x37dc
 12738 2f2d 1B       		.uleb128 0x1b
 12739 2f2e 01       		.uleb128 0x1
 12740 2f2f 50       		.byte	0x50
 12741 2f30 02       		.uleb128 0x2
 12742 2f31 74       		.byte	0x74
 12743 2f32 00       		.sleb128 0
 12744 2f33 00       		.byte	0
 12745 2f34 00       		.byte	0
 12746 2f35 15       		.uleb128 0x15
 12747 2f36 38080000 		.4byte	.LBB86
 12748 2f3a 54000000 		.4byte	.LBE86-.LBB86
 12749 2f3e CD2F0000 		.4byte	0x2fcd
 12750 2f42 16       		.uleb128 0x16
 12751 2f43 3D060000 		.4byte	.LASF176
 12752 2f47 02       		.byte	0x2
 12753 2f48 EE04     		.2byte	0x4ee
 12754 2f4a 8B000000 		.4byte	0x8b
 12755 2f4e 02       		.uleb128 0x2
ARM GAS  C:\Users\FRANKL~1\AppData\Local\Temp\ccebBo1q.s 			page 263


 12756 2f4f 91       		.byte	0x91
 12757 2f50 64       		.sleb128 -28
 12758 2f51 17       		.uleb128 0x17
 12759 2f52 55070000 		.4byte	.LASF80
 12760 2f56 02       		.byte	0x2
 12761 2f57 EF04     		.2byte	0x4ef
 12762 2f59 C6000000 		.4byte	0xc6
 12763 2f5d ED1A0000 		.4byte	.LLST188
 12764 2f61 1C       		.uleb128 0x1c
 12765 2f62 40080000 		.4byte	.LVL911
 12766 2f66 CE380000 		.4byte	0x38ce
 12767 2f6a 7B2F0000 		.4byte	0x2f7b
 12768 2f6e 1B       		.uleb128 0x1b
 12769 2f6f 01       		.uleb128 0x1
 12770 2f70 50       		.byte	0x50
 12771 2f71 02       		.uleb128 0x2
 12772 2f72 74       		.byte	0x74
 12773 2f73 00       		.sleb128 0
 12774 2f74 1B       		.uleb128 0x1b
 12775 2f75 01       		.uleb128 0x1
 12776 2f76 51       		.byte	0x51
 12777 2f77 02       		.uleb128 0x2
 12778 2f78 08       		.byte	0x8
 12779 2f79 20       		.byte	0x20
 12780 2f7a 00       		.byte	0
 12781 2f7b 1C       		.uleb128 0x1c
 12782 2f7c 4C080000 		.4byte	.LVL912
 12783 2f80 DD380000 		.4byte	0x38dd
 12784 2f84 942F0000 		.4byte	0x2f94
 12785 2f88 1B       		.uleb128 0x1b
 12786 2f89 01       		.uleb128 0x1
 12787 2f8a 51       		.byte	0x51
 12788 2f8b 02       		.uleb128 0x2
 12789 2f8c 91       		.byte	0x91
 12790 2f8d 64       		.sleb128 -28
 12791 2f8e 1B       		.uleb128 0x1b
 12792 2f8f 01       		.uleb128 0x1
 12793 2f90 52       		.byte	0x52
 12794 2f91 01       		.uleb128 0x1
 12795 2f92 3A       		.byte	0x3a
 12796 2f93 00       		.byte	0
 12797 2f94 1C       		.uleb128 0x1c
 12798 2f95 7E080000 		.4byte	.LVL915
 12799 2f99 C6370000 		.4byte	0x37c6
 12800 2f9d A82F0000 		.4byte	0x2fa8
 12801 2fa1 1B       		.uleb128 0x1b
 12802 2fa2 01       		.uleb128 0x1
 12803 2fa3 50       		.byte	0x50
 12804 2fa4 02       		.uleb128 0x2
 12805 2fa5 74       		.byte	0x74
 12806 2fa6 00       		.sleb128 0
 12807 2fa7 00       		.byte	0
 12808 2fa8 1C       		.uleb128 0x1c
 12809 2fa9 86080000 		.4byte	.LVL916
 12810 2fad D1030000 		.4byte	0x3d1
 12811 2fb1 BC2F0000 		.4byte	0x2fbc
 12812 2fb5 1B       		.uleb128 0x1b
ARM GAS  C:\Users\FRANKL~1\AppData\Local\Temp\ccebBo1q.s 			page 264


 12813 2fb6 01       		.uleb128 0x1
 12814 2fb7 50       		.byte	0x50
 12815 2fb8 02       		.uleb128 0x2
 12816 2fb9 74       		.byte	0x74
 12817 2fba 00       		.sleb128 0
 12818 2fbb 00       		.byte	0
 12819 2fbc 1A       		.uleb128 0x1a
 12820 2fbd 8C080000 		.4byte	.LVL917
 12821 2fc1 DC370000 		.4byte	0x37dc
 12822 2fc5 1B       		.uleb128 0x1b
 12823 2fc6 01       		.uleb128 0x1
 12824 2fc7 50       		.byte	0x50
 12825 2fc8 02       		.uleb128 0x2
 12826 2fc9 74       		.byte	0x74
 12827 2fca 00       		.sleb128 0
 12828 2fcb 00       		.byte	0
 12829 2fcc 00       		.byte	0
 12830 2fcd 1C       		.uleb128 0x1c
 12831 2fce A6000000 		.4byte	.LVL704
 12832 2fd2 6E370000 		.4byte	0x376e
 12833 2fd6 EA2F0000 		.4byte	0x2fea
 12834 2fda 1B       		.uleb128 0x1b
 12835 2fdb 01       		.uleb128 0x1
 12836 2fdc 50       		.byte	0x50
 12837 2fdd 02       		.uleb128 0x2
 12838 2fde 74       		.byte	0x74
 12839 2fdf 00       		.sleb128 0
 12840 2fe0 1B       		.uleb128 0x1b
 12841 2fe1 01       		.uleb128 0x1
 12842 2fe2 51       		.byte	0x51
 12843 2fe3 05       		.uleb128 0x5
 12844 2fe4 03       		.byte	0x3
 12845 2fe5 08010000 		.4byte	.LC16
 12846 2fe9 00       		.byte	0
 12847 2fea 1C       		.uleb128 0x1c
 12848 2feb B4000000 		.4byte	.LVL705
 12849 2fef D8190000 		.4byte	0x19d8
 12850 2ff3 08300000 		.4byte	0x3008
 12851 2ff7 1B       		.uleb128 0x1b
 12852 2ff8 01       		.uleb128 0x1
 12853 2ff9 50       		.byte	0x50
 12854 2ffa 02       		.uleb128 0x2
 12855 2ffb 08       		.byte	0x8
 12856 2ffc 64       		.byte	0x64
 12857 2ffd 1B       		.uleb128 0x1b
 12858 2ffe 01       		.uleb128 0x1
 12859 2fff 51       		.byte	0x51
 12860 3000 01       		.uleb128 0x1
 12861 3001 31       		.byte	0x31
 12862 3002 1B       		.uleb128 0x1b
 12863 3003 01       		.uleb128 0x1
 12864 3004 52       		.byte	0x52
 12865 3005 01       		.uleb128 0x1
 12866 3006 3A       		.byte	0x3a
 12867 3007 00       		.byte	0
 12868 3008 1C       		.uleb128 0x1c
 12869 3009 BE000000 		.4byte	.LVL706
ARM GAS  C:\Users\FRANKL~1\AppData\Local\Temp\ccebBo1q.s 			page 265


 12870 300d 6E370000 		.4byte	0x376e
 12871 3011 25300000 		.4byte	0x3025
 12872 3015 1B       		.uleb128 0x1b
 12873 3016 01       		.uleb128 0x1
 12874 3017 50       		.byte	0x50
 12875 3018 02       		.uleb128 0x2
 12876 3019 74       		.byte	0x74
 12877 301a 00       		.sleb128 0
 12878 301b 1B       		.uleb128 0x1b
 12879 301c 01       		.uleb128 0x1
 12880 301d 51       		.byte	0x51
 12881 301e 05       		.uleb128 0x5
 12882 301f 03       		.byte	0x3
 12883 3020 14010000 		.4byte	.LC17
 12884 3024 00       		.byte	0
 12885 3025 1C       		.uleb128 0x1c
 12886 3026 E4000000 		.4byte	.LVL710
 12887 302a 6E370000 		.4byte	0x376e
 12888 302e 42300000 		.4byte	0x3042
 12889 3032 1B       		.uleb128 0x1b
 12890 3033 01       		.uleb128 0x1
 12891 3034 50       		.byte	0x50
 12892 3035 02       		.uleb128 0x2
 12893 3036 74       		.byte	0x74
 12894 3037 00       		.sleb128 0
 12895 3038 1B       		.uleb128 0x1b
 12896 3039 01       		.uleb128 0x1
 12897 303a 51       		.byte	0x51
 12898 303b 05       		.uleb128 0x5
 12899 303c 03       		.byte	0x3
 12900 303d 28010000 		.4byte	.LC18
 12901 3041 00       		.byte	0
 12902 3042 12       		.uleb128 0x12
 12903 3043 EC000000 		.4byte	.LVL711
 12904 3047 211B0000 		.4byte	0x1b21
 12905 304b 1C       		.uleb128 0x1c
 12906 304c F6000000 		.4byte	.LVL712
 12907 3050 6E370000 		.4byte	0x376e
 12908 3054 68300000 		.4byte	0x3068
 12909 3058 1B       		.uleb128 0x1b
 12910 3059 01       		.uleb128 0x1
 12911 305a 50       		.byte	0x50
 12912 305b 02       		.uleb128 0x2
 12913 305c 74       		.byte	0x74
 12914 305d 00       		.sleb128 0
 12915 305e 1B       		.uleb128 0x1b
 12916 305f 01       		.uleb128 0x1
 12917 3060 51       		.byte	0x51
 12918 3061 05       		.uleb128 0x5
 12919 3062 03       		.byte	0x3
 12920 3063 38010000 		.4byte	.LC19
 12921 3067 00       		.byte	0
 12922 3068 1C       		.uleb128 0x1c
 12923 3069 00010000 		.4byte	.LVL713
 12924 306d A81B0000 		.4byte	0x1ba8
 12925 3071 7B300000 		.4byte	0x307b
 12926 3075 1B       		.uleb128 0x1b
ARM GAS  C:\Users\FRANKL~1\AppData\Local\Temp\ccebBo1q.s 			page 266


 12927 3076 01       		.uleb128 0x1
 12928 3077 50       		.byte	0x50
 12929 3078 01       		.uleb128 0x1
 12930 3079 30       		.byte	0x30
 12931 307a 00       		.byte	0
 12932 307b 1C       		.uleb128 0x1c
 12933 307c 0A010000 		.4byte	.LVL714
 12934 3080 6E370000 		.4byte	0x376e
 12935 3084 98300000 		.4byte	0x3098
 12936 3088 1B       		.uleb128 0x1b
 12937 3089 01       		.uleb128 0x1
 12938 308a 50       		.byte	0x50
 12939 308b 02       		.uleb128 0x2
 12940 308c 74       		.byte	0x74
 12941 308d 00       		.sleb128 0
 12942 308e 1B       		.uleb128 0x1b
 12943 308f 01       		.uleb128 0x1
 12944 3090 51       		.byte	0x51
 12945 3091 05       		.uleb128 0x5
 12946 3092 03       		.byte	0x3
 12947 3093 4C010000 		.4byte	.LC20
 12948 3097 00       		.byte	0
 12949 3098 1C       		.uleb128 0x1c
 12950 3099 14010000 		.4byte	.LVL715
 12951 309d A81B0000 		.4byte	0x1ba8
 12952 30a1 AB300000 		.4byte	0x30ab
 12953 30a5 1B       		.uleb128 0x1b
 12954 30a6 01       		.uleb128 0x1
 12955 30a7 50       		.byte	0x50
 12956 30a8 01       		.uleb128 0x1
 12957 30a9 31       		.byte	0x31
 12958 30aa 00       		.byte	0
 12959 30ab 1C       		.uleb128 0x1c
 12960 30ac 1E010000 		.4byte	.LVL716
 12961 30b0 6E370000 		.4byte	0x376e
 12962 30b4 C8300000 		.4byte	0x30c8
 12963 30b8 1B       		.uleb128 0x1b
 12964 30b9 01       		.uleb128 0x1
 12965 30ba 50       		.byte	0x50
 12966 30bb 02       		.uleb128 0x2
 12967 30bc 74       		.byte	0x74
 12968 30bd 00       		.sleb128 0
 12969 30be 1B       		.uleb128 0x1b
 12970 30bf 01       		.uleb128 0x1
 12971 30c0 51       		.byte	0x51
 12972 30c1 05       		.uleb128 0x5
 12973 30c2 03       		.byte	0x3
 12974 30c3 68010000 		.4byte	.LC21
 12975 30c7 00       		.byte	0
 12976 30c8 1C       		.uleb128 0x1c
 12977 30c9 2A010000 		.4byte	.LVL717
 12978 30cd 42180000 		.4byte	0x1842
 12979 30d1 DD300000 		.4byte	0x30dd
 12980 30d5 1B       		.uleb128 0x1b
 12981 30d6 01       		.uleb128 0x1
 12982 30d7 50       		.byte	0x50
 12983 30d8 03       		.uleb128 0x3
ARM GAS  C:\Users\FRANKL~1\AppData\Local\Temp\ccebBo1q.s 			page 267


 12984 30d9 0A       		.byte	0xa
 12985 30da 2C01     		.2byte	0x12c
 12986 30dc 00       		.byte	0
 12987 30dd 1C       		.uleb128 0x1c
 12988 30de 34010000 		.4byte	.LVL718
 12989 30e2 6E370000 		.4byte	0x376e
 12990 30e6 FA300000 		.4byte	0x30fa
 12991 30ea 1B       		.uleb128 0x1b
 12992 30eb 01       		.uleb128 0x1
 12993 30ec 50       		.byte	0x50
 12994 30ed 02       		.uleb128 0x2
 12995 30ee 74       		.byte	0x74
 12996 30ef 00       		.sleb128 0
 12997 30f0 1B       		.uleb128 0x1b
 12998 30f1 01       		.uleb128 0x1
 12999 30f2 51       		.byte	0x51
 13000 30f3 05       		.uleb128 0x5
 13001 30f4 03       		.byte	0x3
 13002 30f5 7C010000 		.4byte	.LC22
 13003 30f9 00       		.byte	0
 13004 30fa 1C       		.uleb128 0x1c
 13005 30fb 5C010000 		.4byte	.LVL722
 13006 30ff 6E370000 		.4byte	0x376e
 13007 3103 17310000 		.4byte	0x3117
 13008 3107 1B       		.uleb128 0x1b
 13009 3108 01       		.uleb128 0x1
 13010 3109 50       		.byte	0x50
 13011 310a 02       		.uleb128 0x2
 13012 310b 74       		.byte	0x74
 13013 310c 00       		.sleb128 0
 13014 310d 1B       		.uleb128 0x1b
 13015 310e 01       		.uleb128 0x1
 13016 310f 51       		.byte	0x51
 13017 3110 05       		.uleb128 0x5
 13018 3111 03       		.byte	0x3
 13019 3112 8C010000 		.4byte	.LC23
 13020 3116 00       		.byte	0
 13021 3117 1C       		.uleb128 0x1c
 13022 3118 84010000 		.4byte	.LVL726
 13023 311c 6E370000 		.4byte	0x376e
 13024 3120 34310000 		.4byte	0x3134
 13025 3124 1B       		.uleb128 0x1b
 13026 3125 01       		.uleb128 0x1
 13027 3126 50       		.byte	0x50
 13028 3127 02       		.uleb128 0x2
 13029 3128 74       		.byte	0x74
 13030 3129 00       		.sleb128 0
 13031 312a 1B       		.uleb128 0x1b
 13032 312b 01       		.uleb128 0x1
 13033 312c 51       		.byte	0x51
 13034 312d 05       		.uleb128 0x5
 13035 312e 03       		.byte	0x3
 13036 312f 9C010000 		.4byte	.LC24
 13037 3133 00       		.byte	0
 13038 3134 1C       		.uleb128 0x1c
 13039 3135 AC010000 		.4byte	.LVL730
 13040 3139 6E370000 		.4byte	0x376e
ARM GAS  C:\Users\FRANKL~1\AppData\Local\Temp\ccebBo1q.s 			page 268


 13041 313d 51310000 		.4byte	0x3151
 13042 3141 1B       		.uleb128 0x1b
 13043 3142 01       		.uleb128 0x1
 13044 3143 50       		.byte	0x50
 13045 3144 02       		.uleb128 0x2
 13046 3145 74       		.byte	0x74
 13047 3146 00       		.sleb128 0
 13048 3147 1B       		.uleb128 0x1b
 13049 3148 01       		.uleb128 0x1
 13050 3149 51       		.byte	0x51
 13051 314a 05       		.uleb128 0x5
 13052 314b 03       		.byte	0x3
 13053 314c AC010000 		.4byte	.LC25
 13054 3150 00       		.byte	0
 13055 3151 1C       		.uleb128 0x1c
 13056 3152 D4010000 		.4byte	.LVL734
 13057 3156 6E370000 		.4byte	0x376e
 13058 315a 6E310000 		.4byte	0x316e
 13059 315e 1B       		.uleb128 0x1b
 13060 315f 01       		.uleb128 0x1
 13061 3160 50       		.byte	0x50
 13062 3161 02       		.uleb128 0x2
 13063 3162 74       		.byte	0x74
 13064 3163 00       		.sleb128 0
 13065 3164 1B       		.uleb128 0x1b
 13066 3165 01       		.uleb128 0x1
 13067 3166 51       		.byte	0x51
 13068 3167 05       		.uleb128 0x5
 13069 3168 03       		.byte	0x3
 13070 3169 BC010000 		.4byte	.LC26
 13071 316d 00       		.byte	0
 13072 316e 1C       		.uleb128 0x1c
 13073 316f FE010000 		.4byte	.LVL738
 13074 3173 6E370000 		.4byte	0x376e
 13075 3177 8B310000 		.4byte	0x318b
 13076 317b 1B       		.uleb128 0x1b
 13077 317c 01       		.uleb128 0x1
 13078 317d 50       		.byte	0x50
 13079 317e 02       		.uleb128 0x2
 13080 317f 74       		.byte	0x74
 13081 3180 00       		.sleb128 0
 13082 3181 1B       		.uleb128 0x1b
 13083 3182 01       		.uleb128 0x1
 13084 3183 51       		.byte	0x51
 13085 3184 05       		.uleb128 0x5
 13086 3185 03       		.byte	0x3
 13087 3186 CC010000 		.4byte	.LC28
 13088 318a 00       		.byte	0
 13089 318b 1C       		.uleb128 0x1c
 13090 318c 28020000 		.4byte	.LVL742
 13091 3190 6E370000 		.4byte	0x376e
 13092 3194 A8310000 		.4byte	0x31a8
 13093 3198 1B       		.uleb128 0x1b
 13094 3199 01       		.uleb128 0x1
 13095 319a 50       		.byte	0x50
 13096 319b 02       		.uleb128 0x2
 13097 319c 74       		.byte	0x74
ARM GAS  C:\Users\FRANKL~1\AppData\Local\Temp\ccebBo1q.s 			page 269


 13098 319d 00       		.sleb128 0
 13099 319e 1B       		.uleb128 0x1b
 13100 319f 01       		.uleb128 0x1
 13101 31a0 51       		.byte	0x51
 13102 31a1 05       		.uleb128 0x5
 13103 31a2 03       		.byte	0x3
 13104 31a3 D8010000 		.4byte	.LC29
 13105 31a7 00       		.byte	0
 13106 31a8 1C       		.uleb128 0x1c
 13107 31a9 7C020000 		.4byte	.LVL755
 13108 31ad 6E370000 		.4byte	0x376e
 13109 31b1 C5310000 		.4byte	0x31c5
 13110 31b5 1B       		.uleb128 0x1b
 13111 31b6 01       		.uleb128 0x1
 13112 31b7 50       		.byte	0x50
 13113 31b8 02       		.uleb128 0x2
 13114 31b9 74       		.byte	0x74
 13115 31ba 00       		.sleb128 0
 13116 31bb 1B       		.uleb128 0x1b
 13117 31bc 01       		.uleb128 0x1
 13118 31bd 51       		.byte	0x51
 13119 31be 05       		.uleb128 0x5
 13120 31bf 03       		.byte	0x3
 13121 31c0 FC010000 		.4byte	.LC31
 13122 31c4 00       		.byte	0
 13123 31c5 1C       		.uleb128 0x1c
 13124 31c6 D0020000 		.4byte	.LVL768
 13125 31ca 6E370000 		.4byte	0x376e
 13126 31ce E2310000 		.4byte	0x31e2
 13127 31d2 1B       		.uleb128 0x1b
 13128 31d3 01       		.uleb128 0x1
 13129 31d4 50       		.byte	0x50
 13130 31d5 02       		.uleb128 0x2
 13131 31d6 74       		.byte	0x74
 13132 31d7 00       		.sleb128 0
 13133 31d8 1B       		.uleb128 0x1b
 13134 31d9 01       		.uleb128 0x1
 13135 31da 51       		.byte	0x51
 13136 31db 05       		.uleb128 0x5
 13137 31dc 03       		.byte	0x3
 13138 31dd 20020000 		.4byte	.LC33
 13139 31e1 00       		.byte	0
 13140 31e2 1C       		.uleb128 0x1c
 13141 31e3 EC020000 		.4byte	.LVL770
 13142 31e7 C6370000 		.4byte	0x37c6
 13143 31eb F6310000 		.4byte	0x31f6
 13144 31ef 1B       		.uleb128 0x1b
 13145 31f0 01       		.uleb128 0x1
 13146 31f1 50       		.byte	0x50
 13147 31f2 02       		.uleb128 0x2
 13148 31f3 74       		.byte	0x74
 13149 31f4 00       		.sleb128 0
 13150 31f5 00       		.byte	0
 13151 31f6 1C       		.uleb128 0x1c
 13152 31f7 F4020000 		.4byte	.LVL771
 13153 31fb D1030000 		.4byte	0x3d1
 13154 31ff 0A320000 		.4byte	0x320a
ARM GAS  C:\Users\FRANKL~1\AppData\Local\Temp\ccebBo1q.s 			page 270


 13155 3203 1B       		.uleb128 0x1b
 13156 3204 01       		.uleb128 0x1
 13157 3205 50       		.byte	0x50
 13158 3206 02       		.uleb128 0x2
 13159 3207 74       		.byte	0x74
 13160 3208 00       		.sleb128 0
 13161 3209 00       		.byte	0
 13162 320a 1C       		.uleb128 0x1c
 13163 320b FA020000 		.4byte	.LVL772
 13164 320f DC370000 		.4byte	0x37dc
 13165 3213 1E320000 		.4byte	0x321e
 13166 3217 1B       		.uleb128 0x1b
 13167 3218 01       		.uleb128 0x1
 13168 3219 50       		.byte	0x50
 13169 321a 02       		.uleb128 0x2
 13170 321b 74       		.byte	0x74
 13171 321c 00       		.sleb128 0
 13172 321d 00       		.byte	0
 13173 321e 1C       		.uleb128 0x1c
 13174 321f 02030000 		.4byte	.LVL773
 13175 3223 AD1E0000 		.4byte	0x1ead
 13176 3227 36320000 		.4byte	0x3236
 13177 322b 1B       		.uleb128 0x1b
 13178 322c 01       		.uleb128 0x1
 13179 322d 50       		.byte	0x50
 13180 322e 01       		.uleb128 0x1
 13181 322f 30       		.byte	0x30
 13182 3230 1B       		.uleb128 0x1b
 13183 3231 01       		.uleb128 0x1
 13184 3232 51       		.byte	0x51
 13185 3233 01       		.uleb128 0x1
 13186 3234 30       		.byte	0x30
 13187 3235 00       		.byte	0
 13188 3236 1C       		.uleb128 0x1c
 13189 3237 18030000 		.4byte	.LVL774
 13190 323b C6370000 		.4byte	0x37c6
 13191 323f 4A320000 		.4byte	0x324a
 13192 3243 1B       		.uleb128 0x1b
 13193 3244 01       		.uleb128 0x1
 13194 3245 50       		.byte	0x50
 13195 3246 02       		.uleb128 0x2
 13196 3247 74       		.byte	0x74
 13197 3248 00       		.sleb128 0
 13198 3249 00       		.byte	0
 13199 324a 1C       		.uleb128 0x1c
 13200 324b 20030000 		.4byte	.LVL775
 13201 324f D1030000 		.4byte	0x3d1
 13202 3253 5E320000 		.4byte	0x325e
 13203 3257 1B       		.uleb128 0x1b
 13204 3258 01       		.uleb128 0x1
 13205 3259 50       		.byte	0x50
 13206 325a 02       		.uleb128 0x2
 13207 325b 74       		.byte	0x74
 13208 325c 00       		.sleb128 0
 13209 325d 00       		.byte	0
 13210 325e 1C       		.uleb128 0x1c
 13211 325f 26030000 		.4byte	.LVL776
ARM GAS  C:\Users\FRANKL~1\AppData\Local\Temp\ccebBo1q.s 			page 271


 13212 3263 DC370000 		.4byte	0x37dc
 13213 3267 72320000 		.4byte	0x3272
 13214 326b 1B       		.uleb128 0x1b
 13215 326c 01       		.uleb128 0x1
 13216 326d 50       		.byte	0x50
 13217 326e 02       		.uleb128 0x2
 13218 326f 74       		.byte	0x74
 13219 3270 00       		.sleb128 0
 13220 3271 00       		.byte	0
 13221 3272 1C       		.uleb128 0x1c
 13222 3273 A4030000 		.4byte	.LVL778
 13223 3277 6E370000 		.4byte	0x376e
 13224 327b 8F320000 		.4byte	0x328f
 13225 327f 1B       		.uleb128 0x1b
 13226 3280 01       		.uleb128 0x1
 13227 3281 50       		.byte	0x50
 13228 3282 02       		.uleb128 0x2
 13229 3283 74       		.byte	0x74
 13230 3284 00       		.sleb128 0
 13231 3285 1B       		.uleb128 0x1b
 13232 3286 01       		.uleb128 0x1
 13233 3287 51       		.byte	0x51
 13234 3288 05       		.uleb128 0x5
 13235 3289 03       		.byte	0x3
 13236 328a 50020000 		.4byte	.LC36
 13237 328e 00       		.byte	0
 13238 328f 1C       		.uleb128 0x1c
 13239 3290 36040000 		.4byte	.LVL793
 13240 3294 6E370000 		.4byte	0x376e
 13241 3298 AC320000 		.4byte	0x32ac
 13242 329c 1B       		.uleb128 0x1b
 13243 329d 01       		.uleb128 0x1
 13244 329e 50       		.byte	0x50
 13245 329f 02       		.uleb128 0x2
 13246 32a0 74       		.byte	0x74
 13247 32a1 00       		.sleb128 0
 13248 32a2 1B       		.uleb128 0x1b
 13249 32a3 01       		.uleb128 0x1
 13250 32a4 51       		.byte	0x51
 13251 32a5 05       		.uleb128 0x5
 13252 32a6 03       		.byte	0x3
 13253 32a7 94020000 		.4byte	.LC39
 13254 32ab 00       		.byte	0
 13255 32ac 1C       		.uleb128 0x1c
 13256 32ad D4040000 		.4byte	.LVL808
 13257 32b1 6E370000 		.4byte	0x376e
 13258 32b5 C9320000 		.4byte	0x32c9
 13259 32b9 1B       		.uleb128 0x1b
 13260 32ba 01       		.uleb128 0x1
 13261 32bb 50       		.byte	0x50
 13262 32bc 02       		.uleb128 0x2
 13263 32bd 74       		.byte	0x74
 13264 32be 00       		.sleb128 0
 13265 32bf 1B       		.uleb128 0x1b
 13266 32c0 01       		.uleb128 0x1
 13267 32c1 51       		.byte	0x51
 13268 32c2 05       		.uleb128 0x5
ARM GAS  C:\Users\FRANKL~1\AppData\Local\Temp\ccebBo1q.s 			page 272


 13269 32c3 03       		.byte	0x3
 13270 32c4 E8020000 		.4byte	.LC42
 13271 32c8 00       		.byte	0
 13272 32c9 1C       		.uleb128 0x1c
 13273 32ca 7C050000 		.4byte	.LVL824
 13274 32ce 6E370000 		.4byte	0x376e
 13275 32d2 E6320000 		.4byte	0x32e6
 13276 32d6 1B       		.uleb128 0x1b
 13277 32d7 01       		.uleb128 0x1
 13278 32d8 50       		.byte	0x50
 13279 32d9 02       		.uleb128 0x2
 13280 32da 74       		.byte	0x74
 13281 32db 00       		.sleb128 0
 13282 32dc 1B       		.uleb128 0x1b
 13283 32dd 01       		.uleb128 0x1
 13284 32de 51       		.byte	0x51
 13285 32df 05       		.uleb128 0x5
 13286 32e0 03       		.byte	0x3
 13287 32e1 48030000 		.4byte	.LC45
 13288 32e5 00       		.byte	0
 13289 32e6 1C       		.uleb128 0x1c
 13290 32e7 D8050000 		.4byte	.LVL837
 13291 32eb 6E370000 		.4byte	0x376e
 13292 32ef 03330000 		.4byte	0x3303
 13293 32f3 1B       		.uleb128 0x1b
 13294 32f4 01       		.uleb128 0x1
 13295 32f5 50       		.byte	0x50
 13296 32f6 02       		.uleb128 0x2
 13297 32f7 74       		.byte	0x74
 13298 32f8 00       		.sleb128 0
 13299 32f9 1B       		.uleb128 0x1b
 13300 32fa 01       		.uleb128 0x1
 13301 32fb 51       		.byte	0x51
 13302 32fc 05       		.uleb128 0x5
 13303 32fd 03       		.byte	0x3
 13304 32fe 6C030000 		.4byte	.LC47
 13305 3302 00       		.byte	0
 13306 3303 1C       		.uleb128 0x1c
 13307 3304 34060000 		.4byte	.LVL850
 13308 3308 6E370000 		.4byte	0x376e
 13309 330c 20330000 		.4byte	0x3320
 13310 3310 1B       		.uleb128 0x1b
 13311 3311 01       		.uleb128 0x1
 13312 3312 50       		.byte	0x50
 13313 3313 02       		.uleb128 0x2
 13314 3314 74       		.byte	0x74
 13315 3315 00       		.sleb128 0
 13316 3316 1B       		.uleb128 0x1b
 13317 3317 01       		.uleb128 0x1
 13318 3318 51       		.byte	0x51
 13319 3319 05       		.uleb128 0x5
 13320 331a 03       		.byte	0x3
 13321 331b 98030000 		.4byte	.LC49
 13322 331f 00       		.byte	0
 13323 3320 1C       		.uleb128 0x1c
 13324 3321 90060000 		.4byte	.LVL863
 13325 3325 6E370000 		.4byte	0x376e
ARM GAS  C:\Users\FRANKL~1\AppData\Local\Temp\ccebBo1q.s 			page 273


 13326 3329 3D330000 		.4byte	0x333d
 13327 332d 1B       		.uleb128 0x1b
 13328 332e 01       		.uleb128 0x1
 13329 332f 50       		.byte	0x50
 13330 3330 02       		.uleb128 0x2
 13331 3331 74       		.byte	0x74
 13332 3332 00       		.sleb128 0
 13333 3333 1B       		.uleb128 0x1b
 13334 3334 01       		.uleb128 0x1
 13335 3335 51       		.byte	0x51
 13336 3336 05       		.uleb128 0x5
 13337 3337 03       		.byte	0x3
 13338 3338 C0030000 		.4byte	.LC51
 13339 333c 00       		.byte	0
 13340 333d 1C       		.uleb128 0x1c
 13341 333e 24070000 		.4byte	.LVL874
 13342 3342 6E370000 		.4byte	0x376e
 13343 3346 5A330000 		.4byte	0x335a
 13344 334a 1B       		.uleb128 0x1b
 13345 334b 01       		.uleb128 0x1
 13346 334c 50       		.byte	0x50
 13347 334d 02       		.uleb128 0x2
 13348 334e 74       		.byte	0x74
 13349 334f 00       		.sleb128 0
 13350 3350 1B       		.uleb128 0x1b
 13351 3351 01       		.uleb128 0x1
 13352 3352 51       		.byte	0x51
 13353 3353 05       		.uleb128 0x5
 13354 3354 03       		.byte	0x3
 13355 3355 F8030000 		.4byte	.LC53
 13356 3359 00       		.byte	0
 13357 335a 12       		.uleb128 0x12
 13358 335b 2C070000 		.4byte	.LVL875
 13359 335f E2090000 		.4byte	0x9e2
 13360 3363 1C       		.uleb128 0x1c
 13361 3364 4C070000 		.4byte	.LVL877
 13362 3368 C6370000 		.4byte	0x37c6
 13363 336c 77330000 		.4byte	0x3377
 13364 3370 1B       		.uleb128 0x1b
 13365 3371 01       		.uleb128 0x1
 13366 3372 50       		.byte	0x50
 13367 3373 02       		.uleb128 0x2
 13368 3374 75       		.byte	0x75
 13369 3375 00       		.sleb128 0
 13370 3376 00       		.byte	0
 13371 3377 1C       		.uleb128 0x1c
 13372 3378 54070000 		.4byte	.LVL878
 13373 337c D1030000 		.4byte	0x3d1
 13374 3380 8B330000 		.4byte	0x338b
 13375 3384 1B       		.uleb128 0x1b
 13376 3385 01       		.uleb128 0x1
 13377 3386 50       		.byte	0x50
 13378 3387 02       		.uleb128 0x2
 13379 3388 75       		.byte	0x75
 13380 3389 00       		.sleb128 0
 13381 338a 00       		.byte	0
 13382 338b 1C       		.uleb128 0x1c
ARM GAS  C:\Users\FRANKL~1\AppData\Local\Temp\ccebBo1q.s 			page 274


 13383 338c 5A070000 		.4byte	.LVL879
 13384 3390 DC370000 		.4byte	0x37dc
 13385 3394 9F330000 		.4byte	0x339f
 13386 3398 1B       		.uleb128 0x1b
 13387 3399 01       		.uleb128 0x1
 13388 339a 50       		.byte	0x50
 13389 339b 02       		.uleb128 0x2
 13390 339c 75       		.byte	0x75
 13391 339d 00       		.sleb128 0
 13392 339e 00       		.byte	0
 13393 339f 1C       		.uleb128 0x1c
 13394 33a0 64070000 		.4byte	.LVL881
 13395 33a4 6E370000 		.4byte	0x376e
 13396 33a8 BC330000 		.4byte	0x33bc
 13397 33ac 1B       		.uleb128 0x1b
 13398 33ad 01       		.uleb128 0x1
 13399 33ae 50       		.byte	0x50
 13400 33af 02       		.uleb128 0x2
 13401 33b0 74       		.byte	0x74
 13402 33b1 00       		.sleb128 0
 13403 33b2 1B       		.uleb128 0x1b
 13404 33b3 01       		.uleb128 0x1
 13405 33b4 51       		.byte	0x51
 13406 33b5 05       		.uleb128 0x5
 13407 33b6 03       		.byte	0x3
 13408 33b7 34040000 		.4byte	.LC55
 13409 33bb 00       		.byte	0
 13410 33bc 1C       		.uleb128 0x1c
 13411 33bd AE070000 		.4byte	.LVL892
 13412 33c1 6E370000 		.4byte	0x376e
 13413 33c5 D9330000 		.4byte	0x33d9
 13414 33c9 1B       		.uleb128 0x1b
 13415 33ca 01       		.uleb128 0x1
 13416 33cb 50       		.byte	0x50
 13417 33cc 02       		.uleb128 0x2
 13418 33cd 74       		.byte	0x74
 13419 33ce 00       		.sleb128 0
 13420 33cf 1B       		.uleb128 0x1b
 13421 33d0 01       		.uleb128 0x1
 13422 33d1 51       		.byte	0x51
 13423 33d2 05       		.uleb128 0x5
 13424 33d3 03       		.byte	0x3
 13425 33d4 6C040000 		.4byte	.LC57
 13426 33d8 00       		.byte	0
 13427 33d9 1C       		.uleb128 0x1c
 13428 33da F8070000 		.4byte	.LVL903
 13429 33de 6E370000 		.4byte	0x376e
 13430 33e2 F6330000 		.4byte	0x33f6
 13431 33e6 1B       		.uleb128 0x1b
 13432 33e7 01       		.uleb128 0x1
 13433 33e8 50       		.byte	0x50
 13434 33e9 02       		.uleb128 0x2
 13435 33ea 74       		.byte	0x74
 13436 33eb 00       		.sleb128 0
 13437 33ec 1B       		.uleb128 0x1b
 13438 33ed 01       		.uleb128 0x1
 13439 33ee 51       		.byte	0x51
ARM GAS  C:\Users\FRANKL~1\AppData\Local\Temp\ccebBo1q.s 			page 275


 13440 33ef 05       		.uleb128 0x5
 13441 33f0 03       		.byte	0x3
 13442 33f1 A4040000 		.4byte	.LC59
 13443 33f5 00       		.byte	0
 13444 33f6 12       		.uleb128 0x12
 13445 33f7 00080000 		.4byte	.LVL904
 13446 33fb 0A0B0000 		.4byte	0xb0a
 13447 33ff 1C       		.uleb128 0x1c
 13448 3400 1C080000 		.4byte	.LVL906
 13449 3404 C6370000 		.4byte	0x37c6
 13450 3408 13340000 		.4byte	0x3413
 13451 340c 1B       		.uleb128 0x1b
 13452 340d 01       		.uleb128 0x1
 13453 340e 50       		.byte	0x50
 13454 340f 02       		.uleb128 0x2
 13455 3410 75       		.byte	0x75
 13456 3411 00       		.sleb128 0
 13457 3412 00       		.byte	0
 13458 3413 1C       		.uleb128 0x1c
 13459 3414 24080000 		.4byte	.LVL907
 13460 3418 D1030000 		.4byte	0x3d1
 13461 341c 27340000 		.4byte	0x3427
 13462 3420 1B       		.uleb128 0x1b
 13463 3421 01       		.uleb128 0x1
 13464 3422 50       		.byte	0x50
 13465 3423 02       		.uleb128 0x2
 13466 3424 75       		.byte	0x75
 13467 3425 00       		.sleb128 0
 13468 3426 00       		.byte	0
 13469 3427 1C       		.uleb128 0x1c
 13470 3428 2A080000 		.4byte	.LVL908
 13471 342c DC370000 		.4byte	0x37dc
 13472 3430 3B340000 		.4byte	0x343b
 13473 3434 1B       		.uleb128 0x1b
 13474 3435 01       		.uleb128 0x1
 13475 3436 50       		.byte	0x50
 13476 3437 02       		.uleb128 0x2
 13477 3438 75       		.byte	0x75
 13478 3439 00       		.sleb128 0
 13479 343a 00       		.byte	0
 13480 343b 1C       		.uleb128 0x1c
 13481 343c 34080000 		.4byte	.LVL910
 13482 3440 6E370000 		.4byte	0x376e
 13483 3444 58340000 		.4byte	0x3458
 13484 3448 1B       		.uleb128 0x1b
 13485 3449 01       		.uleb128 0x1
 13486 344a 50       		.byte	0x50
 13487 344b 02       		.uleb128 0x2
 13488 344c 74       		.byte	0x74
 13489 344d 00       		.sleb128 0
 13490 344e 1B       		.uleb128 0x1b
 13491 344f 01       		.uleb128 0x1
 13492 3450 51       		.byte	0x51
 13493 3451 05       		.uleb128 0x5
 13494 3452 03       		.byte	0x3
 13495 3453 D8040000 		.4byte	.LC61
 13496 3457 00       		.byte	0
ARM GAS  C:\Users\FRANKL~1\AppData\Local\Temp\ccebBo1q.s 			page 276


 13497 3458 1C       		.uleb128 0x1c
 13498 3459 9C080000 		.4byte	.LVL919
 13499 345d FD370000 		.4byte	0x37fd
 13500 3461 7B340000 		.4byte	0x347b
 13501 3465 1B       		.uleb128 0x1b
 13502 3466 01       		.uleb128 0x1
 13503 3467 50       		.byte	0x50
 13504 3468 02       		.uleb128 0x2
 13505 3469 75       		.byte	0x75
 13506 346a 00       		.sleb128 0
 13507 346b 1B       		.uleb128 0x1b
 13508 346c 01       		.uleb128 0x1
 13509 346d 51       		.byte	0x51
 13510 346e 05       		.uleb128 0x5
 13511 346f 03       		.byte	0x3
 13512 3470 2C050000 		.4byte	.LC63
 13513 3474 1B       		.uleb128 0x1b
 13514 3475 01       		.uleb128 0x1
 13515 3476 52       		.byte	0x52
 13516 3477 02       		.uleb128 0x2
 13517 3478 74       		.byte	0x74
 13518 3479 00       		.sleb128 0
 13519 347a 00       		.byte	0
 13520 347b 1C       		.uleb128 0x1c
 13521 347c A2080000 		.4byte	.LVL920
 13522 3480 C6370000 		.4byte	0x37c6
 13523 3484 8F340000 		.4byte	0x348f
 13524 3488 1B       		.uleb128 0x1b
 13525 3489 01       		.uleb128 0x1
 13526 348a 50       		.byte	0x50
 13527 348b 02       		.uleb128 0x2
 13528 348c 75       		.byte	0x75
 13529 348d 00       		.sleb128 0
 13530 348e 00       		.byte	0
 13531 348f 1C       		.uleb128 0x1c
 13532 3490 AA080000 		.4byte	.LVL921
 13533 3494 D1030000 		.4byte	0x3d1
 13534 3498 A3340000 		.4byte	0x34a3
 13535 349c 1B       		.uleb128 0x1b
 13536 349d 01       		.uleb128 0x1
 13537 349e 50       		.byte	0x50
 13538 349f 02       		.uleb128 0x2
 13539 34a0 75       		.byte	0x75
 13540 34a1 00       		.sleb128 0
 13541 34a2 00       		.byte	0
 13542 34a3 1A       		.uleb128 0x1a
 13543 34a4 B0080000 		.4byte	.LVL922
 13544 34a8 DC370000 		.4byte	0x37dc
 13545 34ac 1B       		.uleb128 0x1b
 13546 34ad 01       		.uleb128 0x1
 13547 34ae 50       		.byte	0x50
 13548 34af 02       		.uleb128 0x2
 13549 34b0 75       		.byte	0x75
 13550 34b1 00       		.sleb128 0
 13551 34b2 00       		.byte	0
 13552 34b3 00       		.byte	0
 13553 34b4 12       		.uleb128 0x12
ARM GAS  C:\Users\FRANKL~1\AppData\Local\Temp\ccebBo1q.s 			page 277


 13554 34b5 0A000000 		.4byte	.LVL683
 13555 34b9 5E080000 		.4byte	0x85e
 13556 34bd 1C       		.uleb128 0x1c
 13557 34be 12000000 		.4byte	.LVL684
 13558 34c2 F3380000 		.4byte	0x38f3
 13559 34c6 D5340000 		.4byte	0x34d5
 13560 34ca 1B       		.uleb128 0x1b
 13561 34cb 01       		.uleb128 0x1
 13562 34cc 50       		.byte	0x50
 13563 34cd 01       		.uleb128 0x1
 13564 34ce 30       		.byte	0x30
 13565 34cf 1B       		.uleb128 0x1b
 13566 34d0 01       		.uleb128 0x1
 13567 34d1 51       		.byte	0x51
 13568 34d2 01       		.uleb128 0x1
 13569 34d3 31       		.byte	0x31
 13570 34d4 00       		.byte	0
 13571 34d5 12       		.uleb128 0x12
 13572 34d6 16000000 		.4byte	.LVL685
 13573 34da FF380000 		.4byte	0x38ff
 13574 34de 12       		.uleb128 0x12
 13575 34df 1A000000 		.4byte	.LVL686
 13576 34e3 0A390000 		.4byte	0x390a
 13577 34e7 12       		.uleb128 0x12
 13578 34e8 1E000000 		.4byte	.LVL687
 13579 34ec 15390000 		.4byte	0x3915
 13580 34f0 12       		.uleb128 0x12
 13581 34f1 22000000 		.4byte	.LVL688
 13582 34f5 20390000 		.4byte	0x3920
 13583 34f9 12       		.uleb128 0x12
 13584 34fa 26000000 		.4byte	.LVL689
 13585 34fe 2B390000 		.4byte	0x392b
 13586 3502 12       		.uleb128 0x12
 13587 3503 2A000000 		.4byte	.LVL690
 13588 3507 36390000 		.4byte	0x3936
 13589 350b 12       		.uleb128 0x12
 13590 350c 2E000000 		.4byte	.LVL691
 13591 3510 F2370000 		.4byte	0x37f2
 13592 3514 12       		.uleb128 0x12
 13593 3515 32000000 		.4byte	.LVL692
 13594 3519 41390000 		.4byte	0x3941
 13595 351d 12       		.uleb128 0x12
 13596 351e 36000000 		.4byte	.LVL693
 13597 3522 4C390000 		.4byte	0x394c
 13598 3526 12       		.uleb128 0x12
 13599 3527 3A000000 		.4byte	.LVL694
 13600 352b 57390000 		.4byte	0x3957
 13601 352f 1C       		.uleb128 0x1c
 13602 3530 42000000 		.4byte	.LVL695
 13603 3534 62390000 		.4byte	0x3962
 13604 3538 44350000 		.4byte	0x3544
 13605 353c 1B       		.uleb128 0x1b
 13606 353d 01       		.uleb128 0x1
 13607 353e 50       		.byte	0x50
 13608 353f 03       		.uleb128 0x3
 13609 3540 0A       		.byte	0xa
 13610 3541 E803     		.2byte	0x3e8
ARM GAS  C:\Users\FRANKL~1\AppData\Local\Temp\ccebBo1q.s 			page 278


 13611 3543 00       		.byte	0
 13612 3544 1C       		.uleb128 0x1c
 13613 3545 48000000 		.4byte	.LVL696
 13614 3549 DC370000 		.4byte	0x37dc
 13615 354d 5B350000 		.4byte	0x355b
 13616 3551 1B       		.uleb128 0x1b
 13617 3552 01       		.uleb128 0x1
 13618 3553 50       		.byte	0x50
 13619 3554 05       		.uleb128 0x5
 13620 3555 03       		.byte	0x3
 13621 3556 F8000000 		.4byte	.LC15
 13622 355a 00       		.byte	0
 13623 355b 12       		.uleb128 0x12
 13624 355c 4C000000 		.4byte	.LVL697
 13625 3560 0A0B0000 		.4byte	0xb0a
 13626 3564 12       		.uleb128 0x12
 13627 3565 5E000000 		.4byte	.LVL698
 13628 3569 6D390000 		.4byte	0x396d
 13629 356d 1C       		.uleb128 0x1c
 13630 356e 64000000 		.4byte	.LVL699
 13631 3572 78390000 		.4byte	0x3978
 13632 3576 84350000 		.4byte	0x3584
 13633 357a 1B       		.uleb128 0x1b
 13634 357b 01       		.uleb128 0x1
 13635 357c 50       		.byte	0x50
 13636 357d 05       		.uleb128 0x5
 13637 357e 03       		.byte	0x3
 13638 357f 00000000 		.4byte	CommunicationHandlerISR
 13639 3583 00       		.byte	0
 13640 3584 1C       		.uleb128 0x1c
 13641 3585 72000000 		.4byte	.LVL700
 13642 3589 42180000 		.4byte	0x1842
 13643 358d 99350000 		.4byte	0x3599
 13644 3591 1B       		.uleb128 0x1b
 13645 3592 01       		.uleb128 0x1
 13646 3593 50       		.byte	0x50
 13647 3594 03       		.uleb128 0x3
 13648 3595 0A       		.byte	0xa
 13649 3596 2C01     		.2byte	0x12c
 13650 3598 00       		.byte	0
 13651 3599 12       		.uleb128 0x12
 13652 359a 78000000 		.4byte	.LVL701
 13653 359e 470B0000 		.4byte	0xb47
 13654 35a2 00       		.byte	0
 13655 35a3 31       		.uleb128 0x31
 13656 35a4 2B070000 		.4byte	.LASF182
 13657 35a8 06       		.byte	0x6
 13658 35a9 1207     		.2byte	0x712
 13659 35ab AF350000 		.4byte	0x35af
 13660 35af 08       		.uleb128 0x8
 13661 35b0 A3000000 		.4byte	0xa3
 13662 35b4 09       		.uleb128 0x9
 13663 35b5 70010000 		.4byte	0x170
 13664 35b9 C4350000 		.4byte	0x35c4
 13665 35bd 0A       		.uleb128 0xa
 13666 35be 84000000 		.4byte	0x84
 13667 35c2 03       		.byte	0x3
ARM GAS  C:\Users\FRANKL~1\AppData\Local\Temp\ccebBo1q.s 			page 279


 13668 35c3 00       		.byte	0
 13669 35c4 32       		.uleb128 0x32
 13670 35c5 61070000 		.4byte	.LASF183
 13671 35c9 02       		.byte	0x2
 13672 35ca 1D       		.byte	0x1d
 13673 35cb B4350000 		.4byte	0x35b4
 13674 35cf 05       		.uleb128 0x5
 13675 35d0 03       		.byte	0x3
 13676 35d1 00000000 		.4byte	selectors
 13677 35d5 32       		.uleb128 0x32
 13678 35d6 420A0000 		.4byte	.LASF184
 13679 35da 02       		.byte	0x2
 13680 35db 1E       		.byte	0x1e
 13681 35dc C1030000 		.4byte	0x3c1
 13682 35e0 05       		.uleb128 0x5
 13683 35e1 03       		.byte	0x3
 13684 35e2 00000000 		.4byte	TransmitBuffer
 13685 35e6 32       		.uleb128 0x32
 13686 35e7 19050000 		.4byte	.LASF185
 13687 35eb 02       		.byte	0x2
 13688 35ec 20       		.byte	0x20
 13689 35ed 09010000 		.4byte	0x109
 13690 35f1 05       		.uleb128 0x5
 13691 35f2 03       		.byte	0x3
 13692 35f3 00000000 		.4byte	newData
 13693 35f7 32       		.uleb128 0x32
 13694 35f8 FD0B0000 		.4byte	.LASF186
 13695 35fc 02       		.byte	0x2
 13696 35fd 21       		.byte	0x21
 13697 35fe 09010000 		.4byte	0x109
 13698 3602 05       		.uleb128 0x5
 13699 3603 03       		.byte	0x3
 13700 3604 00000000 		.4byte	G_Stop
 13701 3608 32       		.uleb128 0x32
 13702 3609 2F010000 		.4byte	.LASF187
 13703 360d 02       		.byte	0x2
 13704 360e 22       		.byte	0x22
 13705 360f 09010000 		.4byte	0x109
 13706 3613 05       		.uleb128 0x5
 13707 3614 03       		.byte	0x3
 13708 3615 00000000 		.4byte	G_Break
 13709 3619 32       		.uleb128 0x32
 13710 361a A70C0000 		.4byte	.LASF188
 13711 361e 02       		.byte	0x2
 13712 361f 23       		.byte	0x23
 13713 3620 09010000 		.4byte	0x109
 13714 3624 05       		.uleb128 0x5
 13715 3625 03       		.byte	0x3
 13716 3626 00000000 		.4byte	G_Pause
 13717 362a 09       		.uleb128 0x9
 13718 362b 3A360000 		.4byte	0x363a
 13719 362f 3A360000 		.4byte	0x363a
 13720 3633 0A       		.uleb128 0xa
 13721 3634 84000000 		.4byte	0x84
 13722 3638 3F       		.byte	0x3f
 13723 3639 00       		.byte	0
 13724 363a 08       		.uleb128 0x8
ARM GAS  C:\Users\FRANKL~1\AppData\Local\Temp\ccebBo1q.s 			page 280


 13725 363b 91000000 		.4byte	0x91
 13726 363f 32       		.uleb128 0x32
 13727 3640 9E0A0000 		.4byte	.LASF189
 13728 3644 02       		.byte	0x2
 13729 3645 25       		.byte	0x25
 13730 3646 50360000 		.4byte	0x3650
 13731 364a 05       		.uleb128 0x5
 13732 364b 03       		.byte	0x3
 13733 364c 00000000 		.4byte	UART_Receive_Buffer
 13734 3650 08       		.uleb128 0x8
 13735 3651 2A360000 		.4byte	0x362a
 13736 3655 32       		.uleb128 0x32
 13737 3656 0A0A0000 		.4byte	.LASF190
 13738 365a 02       		.byte	0x2
 13739 365b 26       		.byte	0x26
 13740 365c 09010000 		.4byte	0x109
 13741 3660 05       		.uleb128 0x5
 13742 3661 03       		.byte	0x3
 13743 3662 00000000 		.4byte	UART_Rx_Position
 13744 3666 32       		.uleb128 0x32
 13745 3667 18010000 		.4byte	.LASF191
 13746 366b 02       		.byte	0x2
 13747 366c 28       		.byte	0x28
 13748 366d 77360000 		.4byte	0x3677
 13749 3671 05       		.uleb128 0x5
 13750 3672 03       		.byte	0x3
 13751 3673 00000000 		.4byte	USBUART_Receive_Buffer
 13752 3677 08       		.uleb128 0x8
 13753 3678 2A360000 		.4byte	0x362a
 13754 367c 32       		.uleb128 0x32
 13755 367d DA090000 		.4byte	.LASF192
 13756 3681 02       		.byte	0x2
 13757 3682 29       		.byte	0x29
 13758 3683 09010000 		.4byte	0x109
 13759 3687 05       		.uleb128 0x5
 13760 3688 03       		.byte	0x3
 13761 3689 00000000 		.4byte	USBUART_Rx_Position
 13762 368d 32       		.uleb128 0x32
 13763 368e 72050000 		.4byte	.LASF193
 13764 3692 02       		.byte	0x2
 13765 3693 2C       		.byte	0x2c
 13766 3694 AE000000 		.4byte	0xae
 13767 3698 05       		.uleb128 0x5
 13768 3699 03       		.byte	0x3
 13769 369a 00000000 		.4byte	TIA_Selected_Resistor
 13770 369e 32       		.uleb128 0x32
 13771 369f 58090000 		.4byte	.LASF194
 13772 36a3 02       		.byte	0x2
 13773 36a4 2E       		.byte	0x2e
 13774 36a5 0E010000 		.4byte	0x10e
 13775 36a9 05       		.uleb128 0x5
 13776 36aa 03       		.byte	0x3
 13777 36ab 00000000 		.4byte	TIA_Resistor_Codes
 13778 36af 09       		.uleb128 0x9
 13779 36b0 25000000 		.4byte	0x25
 13780 36b4 BF360000 		.4byte	0x36bf
 13781 36b8 0A       		.uleb128 0xa
ARM GAS  C:\Users\FRANKL~1\AppData\Local\Temp\ccebBo1q.s 			page 281


 13782 36b9 84000000 		.4byte	0x84
 13783 36bd 07       		.byte	0x7
 13784 36be 00       		.byte	0
 13785 36bf 32       		.uleb128 0x32
 13786 36c0 F8000000 		.4byte	.LASF195
 13787 36c4 02       		.byte	0x2
 13788 36c5 2F       		.byte	0x2f
 13789 36c6 AF360000 		.4byte	0x36af
 13790 36ca 05       		.uleb128 0x5
 13791 36cb 03       		.byte	0x3
 13792 36cc 00000000 		.4byte	TIA_Resistor_Values
 13793 36d0 09       		.uleb128 0x9
 13794 36d1 EA000000 		.4byte	0xea
 13795 36d5 E0360000 		.4byte	0x36e0
 13796 36d9 0A       		.uleb128 0xa
 13797 36da 84000000 		.4byte	0x84
 13798 36de 07       		.byte	0x7
 13799 36df 00       		.byte	0
 13800 36e0 32       		.uleb128 0x32
 13801 36e1 BC0A0000 		.4byte	.LASF196
 13802 36e5 02       		.byte	0x2
 13803 36e6 30       		.byte	0x30
 13804 36e7 D0360000 		.4byte	0x36d0
 13805 36eb 05       		.uleb128 0x5
 13806 36ec 03       		.byte	0x3
 13807 36ed 00000000 		.4byte	TIA_Offsets_uV
 13808 36f1 32       		.uleb128 0x32
 13809 36f2 42070000 		.4byte	.LASF197
 13810 36f6 02       		.byte	0x2
 13811 36f7 32       		.byte	0x32
 13812 36f8 AE000000 		.4byte	0xae
 13813 36fc 05       		.uleb128 0x5
 13814 36fd 03       		.byte	0x3
 13815 36fe 00000000 		.4byte	Compliance_Reached
 13816 3702 32       		.uleb128 0x32
 13817 3703 1B0A0000 		.4byte	.LASF198
 13818 3707 02       		.byte	0x2
 13819 3708 33       		.byte	0x33
 13820 3709 DE000000 		.4byte	0xde
 13821 370d 05       		.uleb128 0x5
 13822 370e 03       		.byte	0x3
 13823 370f 00000000 		.4byte	Vgs_Index_Goal_Relative
 13824 3713 32       		.uleb128 0x32
 13825 3714 F5050000 		.4byte	.LASF199
 13826 3718 02       		.byte	0x2
 13827 3719 34       		.byte	0x34
 13828 371a DE000000 		.4byte	0xde
 13829 371e 05       		.uleb128 0x5
 13830 371f 03       		.byte	0x3
 13831 3720 00000000 		.4byte	Vds_Index_Goal_Relative
 13832 3724 32       		.uleb128 0x32
 13833 3725 61010000 		.4byte	.LASF200
 13834 3729 02       		.byte	0x2
 13835 372a 36       		.byte	0x36
 13836 372b C6000000 		.4byte	0xc6
 13837 372f 05       		.uleb128 0x5
 13838 3730 03       		.byte	0x3
ARM GAS  C:\Users\FRANKL~1\AppData\Local\Temp\ccebBo1q.s 			page 282


 13839 3731 00000000 		.4byte	Current_Measurement_Sample_Count
 13840 3735 33       		.uleb128 0x33
 13841 3736 2F0D0000 		.4byte	.LASF201
 13842 373a 2F0D0000 		.4byte	.LASF201
 13843 373e 07       		.byte	0x7
 13844 373f 2E01     		.2byte	0x12e
 13845 3741 33       		.uleb128 0x33
 13846 3742 470B0000 		.4byte	.LASF202
 13847 3746 470B0000 		.4byte	.LASF202
 13848 374a 07       		.byte	0x7
 13849 374b 2D01     		.2byte	0x12d
 13850 374d 34       		.uleb128 0x34
 13851 374e EE090000 		.4byte	.LASF203
 13852 3752 EE090000 		.4byte	.LASF203
 13853 3756 08       		.byte	0x8
 13854 3757 22       		.byte	0x22
 13855 3758 34       		.uleb128 0x34
 13856 3759 CB0A0000 		.4byte	.LASF204
 13857 375d CB0A0000 		.4byte	.LASF204
 13858 3761 08       		.byte	0x8
 13859 3762 29       		.byte	0x29
 13860 3763 34       		.uleb128 0x34
 13861 3764 5D050000 		.4byte	.LASF205
 13862 3768 5D050000 		.4byte	.LASF205
 13863 376c 08       		.byte	0x8
 13864 376d 2B       		.byte	0x2b
 13865 376e 34       		.uleb128 0x34
 13866 376f E60B0000 		.4byte	.LASF206
 13867 3773 E60B0000 		.4byte	.LASF206
 13868 3777 09       		.byte	0x9
 13869 3778 28       		.byte	0x28
 13870 3779 34       		.uleb128 0x34
 13871 377a E20C0000 		.4byte	.LASF207
 13872 377e E20C0000 		.4byte	.LASF207
 13873 3782 0A       		.byte	0xa
 13874 3783 73       		.byte	0x73
 13875 3784 34       		.uleb128 0x34
 13876 3785 4E0D0000 		.4byte	.LASF208
 13877 3789 4E0D0000 		.4byte	.LASF208
 13878 378d 0A       		.byte	0xa
 13879 378e 71       		.byte	0x71
 13880 378f 34       		.uleb128 0x34
 13881 3790 1A0E0000 		.4byte	.LASF209
 13882 3794 1A0E0000 		.4byte	.LASF209
 13883 3798 0B       		.byte	0xb
 13884 3799 28       		.byte	0x28
 13885 379a 34       		.uleb128 0x34
 13886 379b 87080000 		.4byte	.LASF210
 13887 379f 87080000 		.4byte	.LASF210
 13888 37a3 0C       		.byte	0xc
 13889 37a4 5E       		.byte	0x5e
 13890 37a5 34       		.uleb128 0x34
 13891 37a6 680F0000 		.4byte	.LASF211
 13892 37aa 680F0000 		.4byte	.LASF211
 13893 37ae 08       		.byte	0x8
 13894 37af 28       		.byte	0x28
 13895 37b0 34       		.uleb128 0x34
ARM GAS  C:\Users\FRANKL~1\AppData\Local\Temp\ccebBo1q.s 			page 283


 13896 37b1 6B090000 		.4byte	.LASF212
 13897 37b5 6B090000 		.4byte	.LASF212
 13898 37b9 08       		.byte	0x8
 13899 37ba 23       		.byte	0x23
 13900 37bb 34       		.uleb128 0x34
 13901 37bc 7D0D0000 		.4byte	.LASF213
 13902 37c0 7D0D0000 		.4byte	.LASF213
 13903 37c4 08       		.byte	0x8
 13904 37c5 2C       		.byte	0x2c
 13905 37c6 34       		.uleb128 0x34
 13906 37c7 BE0D0000 		.4byte	.LASF214
 13907 37cb BE0D0000 		.4byte	.LASF214
 13908 37cf 09       		.byte	0x9
 13909 37d0 21       		.byte	0x21
 13910 37d1 34       		.uleb128 0x34
 13911 37d2 0B040000 		.4byte	.LASF215
 13912 37d6 0B040000 		.4byte	.LASF215
 13913 37da 0D       		.byte	0xd
 13914 37db A3       		.byte	0xa3
 13915 37dc 34       		.uleb128 0x34
 13916 37dd C9090000 		.4byte	.LASF216
 13917 37e1 C9090000 		.4byte	.LASF216
 13918 37e5 0A       		.byte	0xa
 13919 37e6 8B       		.byte	0x8b
 13920 37e7 34       		.uleb128 0x34
 13921 37e8 82010000 		.4byte	.LASF217
 13922 37ec 82010000 		.4byte	.LASF217
 13923 37f0 0D       		.byte	0xd
 13924 37f1 94       		.byte	0x94
 13925 37f2 34       		.uleb128 0x34
 13926 37f3 0C010000 		.4byte	.LASF218
 13927 37f7 0C010000 		.4byte	.LASF218
 13928 37fb 0D       		.byte	0xd
 13929 37fc 93       		.byte	0x93
 13930 37fd 34       		.uleb128 0x34
 13931 37fe 0D060000 		.4byte	.LASF219
 13932 3802 0D060000 		.4byte	.LASF219
 13933 3806 0E       		.byte	0xe
 13934 3807 E7       		.byte	0xe7
 13935 3808 34       		.uleb128 0x34
 13936 3809 830C0000 		.4byte	.LASF220
 13937 380d 830C0000 		.4byte	.LASF220
 13938 3811 0D       		.byte	0xd
 13939 3812 A4       		.byte	0xa4
 13940 3813 34       		.uleb128 0x34
 13941 3814 A10D0000 		.4byte	.LASF221
 13942 3818 A10D0000 		.4byte	.LASF221
 13943 381c 0D       		.byte	0xd
 13944 381d A7       		.byte	0xa7
 13945 381e 34       		.uleb128 0x34
 13946 381f 060F0000 		.4byte	.LASF222
 13947 3823 060F0000 		.4byte	.LASF222
 13948 3827 0F       		.byte	0xf
 13949 3828 40       		.byte	0x40
 13950 3829 34       		.uleb128 0x34
 13951 382a 41000000 		.4byte	.LASF223
 13952 382e 41000000 		.4byte	.LASF223
ARM GAS  C:\Users\FRANKL~1\AppData\Local\Temp\ccebBo1q.s 			page 284


 13953 3832 10       		.byte	0x10
 13954 3833 3D       		.byte	0x3d
 13955 3834 34       		.uleb128 0x34
 13956 3835 51080000 		.4byte	.LASF224
 13957 3839 51080000 		.4byte	.LASF224
 13958 383d 10       		.byte	0x10
 13959 383e 3F       		.byte	0x3f
 13960 383f 34       		.uleb128 0x34
 13961 3840 59060000 		.4byte	.LASF225
 13962 3844 59060000 		.4byte	.LASF225
 13963 3848 10       		.byte	0x10
 13964 3849 42       		.byte	0x42
 13965 384a 34       		.uleb128 0x34
 13966 384b F5040000 		.4byte	.LASF226
 13967 384f F5040000 		.4byte	.LASF226
 13968 3853 10       		.byte	0x10
 13969 3854 48       		.byte	0x48
 13970 3855 34       		.uleb128 0x34
 13971 3856 96030000 		.4byte	.LASF227
 13972 385a 96030000 		.4byte	.LASF227
 13973 385e 11       		.byte	0x11
 13974 385f D1       		.byte	0xd1
 13975 3860 34       		.uleb128 0x34
 13976 3861 C3070000 		.4byte	.LASF228
 13977 3865 C3070000 		.4byte	.LASF228
 13978 3869 11       		.byte	0x11
 13979 386a 39       		.byte	0x39
 13980 386b 34       		.uleb128 0x34
 13981 386c 46030000 		.4byte	.LASF229
 13982 3870 46030000 		.4byte	.LASF229
 13983 3874 11       		.byte	0x11
 13984 3875 3B       		.byte	0x3b
 13985 3876 34       		.uleb128 0x34
 13986 3877 B2040000 		.4byte	.LASF230
 13987 387b B2040000 		.4byte	.LASF230
 13988 387f 11       		.byte	0x11
 13989 3880 40       		.byte	0x40
 13990 3881 34       		.uleb128 0x34
 13991 3882 340F0000 		.4byte	.LASF231
 13992 3886 340F0000 		.4byte	.LASF231
 13993 388a 12       		.byte	0x12
 13994 388b D1       		.byte	0xd1
 13995 388c 34       		.uleb128 0x34
 13996 388d 03070000 		.4byte	.LASF232
 13997 3891 03070000 		.4byte	.LASF232
 13998 3895 12       		.byte	0x12
 13999 3896 39       		.byte	0x39
 14000 3897 34       		.uleb128 0x34
 14001 3898 42090000 		.4byte	.LASF233
 14002 389c 42090000 		.4byte	.LASF233
 14003 38a0 12       		.byte	0x12
 14004 38a1 3B       		.byte	0x3b
 14005 38a2 34       		.uleb128 0x34
 14006 38a3 5F040000 		.4byte	.LASF234
 14007 38a7 5F040000 		.4byte	.LASF234
 14008 38ab 12       		.byte	0x12
 14009 38ac 40       		.byte	0x40
ARM GAS  C:\Users\FRANKL~1\AppData\Local\Temp\ccebBo1q.s 			page 285


 14010 38ad 34       		.uleb128 0x34
 14011 38ae 77020000 		.4byte	.LASF235
 14012 38b2 77020000 		.4byte	.LASF235
 14013 38b6 13       		.byte	0x13
 14014 38b7 37       		.byte	0x37
 14015 38b8 34       		.uleb128 0x34
 14016 38b9 B8050000 		.4byte	.LASF236
 14017 38bd B8050000 		.4byte	.LASF236
 14018 38c1 14       		.byte	0x14
 14019 38c2 37       		.byte	0x37
 14020 38c3 34       		.uleb128 0x34
 14021 38c4 290B0000 		.4byte	.LASF237
 14022 38c8 290B0000 		.4byte	.LASF237
 14023 38cc 15       		.byte	0x15
 14024 38cd 37       		.byte	0x37
 14025 38ce 35       		.uleb128 0x35
 14026 38cf 5A020000 		.4byte	.LASF259
 14027 38d3 F00E0000 		.4byte	.LASF260
 14028 38d7 19       		.byte	0x19
 14029 38d8 00       		.byte	0
 14030 38d9 5A020000 		.4byte	.LASF259
 14031 38dd 34       		.uleb128 0x34
 14032 38de AF0C0000 		.4byte	.LASF238
 14033 38e2 AF0C0000 		.4byte	.LASF238
 14034 38e6 16       		.byte	0x16
 14035 38e7 A2       		.byte	0xa2
 14036 38e8 34       		.uleb128 0x34
 14037 38e9 CC060000 		.4byte	.LASF239
 14038 38ed CC060000 		.4byte	.LASF239
 14039 38f1 0E       		.byte	0xe
 14040 38f2 BF       		.byte	0xbf
 14041 38f3 33       		.uleb128 0x33
 14042 38f4 2E050000 		.4byte	.LASF240
 14043 38f8 2E050000 		.4byte	.LASF240
 14044 38fc 07       		.byte	0x7
 14045 38fd 2A01     		.2byte	0x12a
 14046 38ff 34       		.uleb128 0x34
 14047 3900 39020000 		.4byte	.LASF241
 14048 3904 39020000 		.4byte	.LASF241
 14049 3908 0A       		.byte	0xa
 14050 3909 54       		.byte	0x54
 14051 390a 34       		.uleb128 0x34
 14052 390b 590F0000 		.4byte	.LASF242
 14053 390f 590F0000 		.4byte	.LASF242
 14054 3913 13       		.byte	0x13
 14055 3914 33       		.byte	0x33
 14056 3915 34       		.uleb128 0x34
 14057 3916 AC090000 		.4byte	.LASF243
 14058 391a AC090000 		.4byte	.LASF243
 14059 391e 14       		.byte	0x14
 14060 391f 33       		.byte	0x33
 14061 3920 34       		.uleb128 0x34
 14062 3921 D3060000 		.4byte	.LASF244
 14063 3925 D3060000 		.4byte	.LASF244
 14064 3929 15       		.byte	0x15
 14065 392a 33       		.byte	0x33
 14066 392b 34       		.uleb128 0x34
ARM GAS  C:\Users\FRANKL~1\AppData\Local\Temp\ccebBo1q.s 			page 286


 14067 392c 150F0000 		.4byte	.LASF245
 14068 3930 150F0000 		.4byte	.LASF245
 14069 3934 10       		.byte	0x10
 14070 3935 3A       		.byte	0x3a
 14071 3936 34       		.uleb128 0x34
 14072 3937 FC080000 		.4byte	.LASF246
 14073 393b FC080000 		.4byte	.LASF246
 14074 393f 0F       		.byte	0xf
 14075 3940 3D       		.byte	0x3d
 14076 3941 34       		.uleb128 0x34
 14077 3942 8F070000 		.4byte	.LASF247
 14078 3946 8F070000 		.4byte	.LASF247
 14079 394a 11       		.byte	0x11
 14080 394b 34       		.byte	0x34
 14081 394c 34       		.uleb128 0x34
 14082 394d 08090000 		.4byte	.LASF248
 14083 3951 08090000 		.4byte	.LASF248
 14084 3955 12       		.byte	0x12
 14085 3956 34       		.byte	0x34
 14086 3957 34       		.uleb128 0x34
 14087 3958 69000000 		.4byte	.LASF249
 14088 395c 69000000 		.4byte	.LASF249
 14089 3960 17       		.byte	0x17
 14090 3961 33       		.byte	0x33
 14091 3962 34       		.uleb128 0x34
 14092 3963 480E0000 		.4byte	.LASF250
 14093 3967 480E0000 		.4byte	.LASF250
 14094 396b 18       		.byte	0x18
 14095 396c 76       		.byte	0x76
 14096 396d 34       		.uleb128 0x34
 14097 396e 6E080000 		.4byte	.LASF251
 14098 3972 6E080000 		.4byte	.LASF251
 14099 3976 0C       		.byte	0xc
 14100 3977 5A       		.byte	0x5a
 14101 3978 34       		.uleb128 0x34
 14102 3979 06020000 		.4byte	.LASF252
 14103 397d 06020000 		.4byte	.LASF252
 14104 3981 0B       		.byte	0xb
 14105 3982 18       		.byte	0x18
 14106 3983 00       		.byte	0
 14107              		.section	.debug_abbrev,"",%progbits
 14108              	.Ldebug_abbrev0:
 14109 0000 01       		.uleb128 0x1
 14110 0001 11       		.uleb128 0x11
 14111 0002 01       		.byte	0x1
 14112 0003 25       		.uleb128 0x25
 14113 0004 0E       		.uleb128 0xe
 14114 0005 13       		.uleb128 0x13
 14115 0006 0B       		.uleb128 0xb
 14116 0007 03       		.uleb128 0x3
 14117 0008 0E       		.uleb128 0xe
 14118 0009 1B       		.uleb128 0x1b
 14119 000a 0E       		.uleb128 0xe
 14120 000b 55       		.uleb128 0x55
 14121 000c 17       		.uleb128 0x17
 14122 000d 11       		.uleb128 0x11
 14123 000e 01       		.uleb128 0x1
ARM GAS  C:\Users\FRANKL~1\AppData\Local\Temp\ccebBo1q.s 			page 287


 14124 000f 10       		.uleb128 0x10
 14125 0010 17       		.uleb128 0x17
 14126 0011 00       		.byte	0
 14127 0012 00       		.byte	0
 14128 0013 02       		.uleb128 0x2
 14129 0014 24       		.uleb128 0x24
 14130 0015 00       		.byte	0
 14131 0016 0B       		.uleb128 0xb
 14132 0017 0B       		.uleb128 0xb
 14133 0018 3E       		.uleb128 0x3e
 14134 0019 0B       		.uleb128 0xb
 14135 001a 03       		.uleb128 0x3
 14136 001b 0E       		.uleb128 0xe
 14137 001c 00       		.byte	0
 14138 001d 00       		.byte	0
 14139 001e 03       		.uleb128 0x3
 14140 001f 24       		.uleb128 0x24
 14141 0020 00       		.byte	0
 14142 0021 0B       		.uleb128 0xb
 14143 0022 0B       		.uleb128 0xb
 14144 0023 3E       		.uleb128 0x3e
 14145 0024 0B       		.uleb128 0xb
 14146 0025 03       		.uleb128 0x3
 14147 0026 08       		.uleb128 0x8
 14148 0027 00       		.byte	0
 14149 0028 00       		.byte	0
 14150 0029 04       		.uleb128 0x4
 14151 002a 16       		.uleb128 0x16
 14152 002b 00       		.byte	0
 14153 002c 03       		.uleb128 0x3
 14154 002d 0E       		.uleb128 0xe
 14155 002e 3A       		.uleb128 0x3a
 14156 002f 0B       		.uleb128 0xb
 14157 0030 3B       		.uleb128 0x3b
 14158 0031 0B       		.uleb128 0xb
 14159 0032 49       		.uleb128 0x49
 14160 0033 13       		.uleb128 0x13
 14161 0034 00       		.byte	0
 14162 0035 00       		.byte	0
 14163 0036 05       		.uleb128 0x5
 14164 0037 0F       		.uleb128 0xf
 14165 0038 00       		.byte	0
 14166 0039 0B       		.uleb128 0xb
 14167 003a 0B       		.uleb128 0xb
 14168 003b 49       		.uleb128 0x49
 14169 003c 13       		.uleb128 0x13
 14170 003d 00       		.byte	0
 14171 003e 00       		.byte	0
 14172 003f 06       		.uleb128 0x6
 14173 0040 26       		.uleb128 0x26
 14174 0041 00       		.byte	0
 14175 0042 49       		.uleb128 0x49
 14176 0043 13       		.uleb128 0x13
 14177 0044 00       		.byte	0
 14178 0045 00       		.byte	0
 14179 0046 07       		.uleb128 0x7
 14180 0047 16       		.uleb128 0x16
ARM GAS  C:\Users\FRANKL~1\AppData\Local\Temp\ccebBo1q.s 			page 288


 14181 0048 00       		.byte	0
 14182 0049 03       		.uleb128 0x3
 14183 004a 0E       		.uleb128 0xe
 14184 004b 3A       		.uleb128 0x3a
 14185 004c 0B       		.uleb128 0xb
 14186 004d 3B       		.uleb128 0x3b
 14187 004e 05       		.uleb128 0x5
 14188 004f 49       		.uleb128 0x49
 14189 0050 13       		.uleb128 0x13
 14190 0051 00       		.byte	0
 14191 0052 00       		.byte	0
 14192 0053 08       		.uleb128 0x8
 14193 0054 35       		.uleb128 0x35
 14194 0055 00       		.byte	0
 14195 0056 49       		.uleb128 0x49
 14196 0057 13       		.uleb128 0x13
 14197 0058 00       		.byte	0
 14198 0059 00       		.byte	0
 14199 005a 09       		.uleb128 0x9
 14200 005b 01       		.uleb128 0x1
 14201 005c 01       		.byte	0x1
 14202 005d 49       		.uleb128 0x49
 14203 005e 13       		.uleb128 0x13
 14204 005f 01       		.uleb128 0x1
 14205 0060 13       		.uleb128 0x13
 14206 0061 00       		.byte	0
 14207 0062 00       		.byte	0
 14208 0063 0A       		.uleb128 0xa
 14209 0064 21       		.uleb128 0x21
 14210 0065 00       		.byte	0
 14211 0066 49       		.uleb128 0x49
 14212 0067 13       		.uleb128 0x13
 14213 0068 2F       		.uleb128 0x2f
 14214 0069 0B       		.uleb128 0xb
 14215 006a 00       		.byte	0
 14216 006b 00       		.byte	0
 14217 006c 0B       		.uleb128 0xb
 14218 006d 13       		.uleb128 0x13
 14219 006e 01       		.byte	0x1
 14220 006f 0B       		.uleb128 0xb
 14221 0070 0B       		.uleb128 0xb
 14222 0071 3A       		.uleb128 0x3a
 14223 0072 0B       		.uleb128 0xb
 14224 0073 3B       		.uleb128 0x3b
 14225 0074 0B       		.uleb128 0xb
 14226 0075 01       		.uleb128 0x1
 14227 0076 13       		.uleb128 0x13
 14228 0077 00       		.byte	0
 14229 0078 00       		.byte	0
 14230 0079 0C       		.uleb128 0xc
 14231 007a 0D       		.uleb128 0xd
 14232 007b 00       		.byte	0
 14233 007c 03       		.uleb128 0x3
 14234 007d 0E       		.uleb128 0xe
 14235 007e 3A       		.uleb128 0x3a
 14236 007f 0B       		.uleb128 0xb
 14237 0080 3B       		.uleb128 0x3b
ARM GAS  C:\Users\FRANKL~1\AppData\Local\Temp\ccebBo1q.s 			page 289


 14238 0081 0B       		.uleb128 0xb
 14239 0082 49       		.uleb128 0x49
 14240 0083 13       		.uleb128 0x13
 14241 0084 38       		.uleb128 0x38
 14242 0085 0B       		.uleb128 0xb
 14243 0086 00       		.byte	0
 14244 0087 00       		.byte	0
 14245 0088 0D       		.uleb128 0xd
 14246 0089 13       		.uleb128 0x13
 14247 008a 01       		.byte	0x1
 14248 008b 03       		.uleb128 0x3
 14249 008c 0E       		.uleb128 0xe
 14250 008d 0B       		.uleb128 0xb
 14251 008e 0B       		.uleb128 0xb
 14252 008f 3A       		.uleb128 0x3a
 14253 0090 0B       		.uleb128 0xb
 14254 0091 3B       		.uleb128 0x3b
 14255 0092 0B       		.uleb128 0xb
 14256 0093 01       		.uleb128 0x1
 14257 0094 13       		.uleb128 0x13
 14258 0095 00       		.byte	0
 14259 0096 00       		.byte	0
 14260 0097 0E       		.uleb128 0xe
 14261 0098 04       		.uleb128 0x4
 14262 0099 01       		.byte	0x1
 14263 009a 03       		.uleb128 0x3
 14264 009b 0E       		.uleb128 0xe
 14265 009c 0B       		.uleb128 0xb
 14266 009d 0B       		.uleb128 0xb
 14267 009e 49       		.uleb128 0x49
 14268 009f 13       		.uleb128 0x13
 14269 00a0 3A       		.uleb128 0x3a
 14270 00a1 0B       		.uleb128 0xb
 14271 00a2 3B       		.uleb128 0x3b
 14272 00a3 0B       		.uleb128 0xb
 14273 00a4 01       		.uleb128 0x1
 14274 00a5 13       		.uleb128 0x13
 14275 00a6 00       		.byte	0
 14276 00a7 00       		.byte	0
 14277 00a8 0F       		.uleb128 0xf
 14278 00a9 28       		.uleb128 0x28
 14279 00aa 00       		.byte	0
 14280 00ab 03       		.uleb128 0x3
 14281 00ac 0E       		.uleb128 0xe
 14282 00ad 1C       		.uleb128 0x1c
 14283 00ae 0B       		.uleb128 0xb
 14284 00af 00       		.byte	0
 14285 00b0 00       		.byte	0
 14286 00b1 10       		.uleb128 0x10
 14287 00b2 2E       		.uleb128 0x2e
 14288 00b3 01       		.byte	0x1
 14289 00b4 3F       		.uleb128 0x3f
 14290 00b5 19       		.uleb128 0x19
 14291 00b6 03       		.uleb128 0x3
 14292 00b7 0E       		.uleb128 0xe
 14293 00b8 3A       		.uleb128 0x3a
 14294 00b9 0B       		.uleb128 0xb
ARM GAS  C:\Users\FRANKL~1\AppData\Local\Temp\ccebBo1q.s 			page 290


 14295 00ba 3B       		.uleb128 0x3b
 14296 00bb 0B       		.uleb128 0xb
 14297 00bc 11       		.uleb128 0x11
 14298 00bd 01       		.uleb128 0x1
 14299 00be 12       		.uleb128 0x12
 14300 00bf 06       		.uleb128 0x6
 14301 00c0 40       		.uleb128 0x40
 14302 00c1 18       		.uleb128 0x18
 14303 00c2 9742     		.uleb128 0x2117
 14304 00c4 19       		.uleb128 0x19
 14305 00c5 01       		.uleb128 0x1
 14306 00c6 13       		.uleb128 0x13
 14307 00c7 00       		.byte	0
 14308 00c8 00       		.byte	0
 14309 00c9 11       		.uleb128 0x11
 14310 00ca 34       		.uleb128 0x34
 14311 00cb 00       		.byte	0
 14312 00cc 03       		.uleb128 0x3
 14313 00cd 0E       		.uleb128 0xe
 14314 00ce 3A       		.uleb128 0x3a
 14315 00cf 0B       		.uleb128 0xb
 14316 00d0 3B       		.uleb128 0x3b
 14317 00d1 0B       		.uleb128 0xb
 14318 00d2 49       		.uleb128 0x49
 14319 00d3 13       		.uleb128 0x13
 14320 00d4 02       		.uleb128 0x2
 14321 00d5 17       		.uleb128 0x17
 14322 00d6 00       		.byte	0
 14323 00d7 00       		.byte	0
 14324 00d8 12       		.uleb128 0x12
 14325 00d9 898201   		.uleb128 0x4109
 14326 00dc 00       		.byte	0
 14327 00dd 11       		.uleb128 0x11
 14328 00de 01       		.uleb128 0x1
 14329 00df 31       		.uleb128 0x31
 14330 00e0 13       		.uleb128 0x13
 14331 00e1 00       		.byte	0
 14332 00e2 00       		.byte	0
 14333 00e3 13       		.uleb128 0x13
 14334 00e4 2E       		.uleb128 0x2e
 14335 00e5 01       		.byte	0x1
 14336 00e6 3F       		.uleb128 0x3f
 14337 00e7 19       		.uleb128 0x19
 14338 00e8 03       		.uleb128 0x3
 14339 00e9 0E       		.uleb128 0xe
 14340 00ea 3A       		.uleb128 0x3a
 14341 00eb 0B       		.uleb128 0xb
 14342 00ec 3B       		.uleb128 0x3b
 14343 00ed 0B       		.uleb128 0xb
 14344 00ee 49       		.uleb128 0x49
 14345 00ef 13       		.uleb128 0x13
 14346 00f0 11       		.uleb128 0x11
 14347 00f1 01       		.uleb128 0x1
 14348 00f2 12       		.uleb128 0x12
 14349 00f3 06       		.uleb128 0x6
 14350 00f4 40       		.uleb128 0x40
 14351 00f5 18       		.uleb128 0x18
ARM GAS  C:\Users\FRANKL~1\AppData\Local\Temp\ccebBo1q.s 			page 291


 14352 00f6 9742     		.uleb128 0x2117
 14353 00f8 19       		.uleb128 0x19
 14354 00f9 01       		.uleb128 0x1
 14355 00fa 13       		.uleb128 0x13
 14356 00fb 00       		.byte	0
 14357 00fc 00       		.byte	0
 14358 00fd 14       		.uleb128 0x14
 14359 00fe 2E       		.uleb128 0x2e
 14360 00ff 01       		.byte	0x1
 14361 0100 3F       		.uleb128 0x3f
 14362 0101 19       		.uleb128 0x19
 14363 0102 03       		.uleb128 0x3
 14364 0103 0E       		.uleb128 0xe
 14365 0104 3A       		.uleb128 0x3a
 14366 0105 0B       		.uleb128 0xb
 14367 0106 3B       		.uleb128 0x3b
 14368 0107 05       		.uleb128 0x5
 14369 0108 27       		.uleb128 0x27
 14370 0109 19       		.uleb128 0x19
 14371 010a 11       		.uleb128 0x11
 14372 010b 01       		.uleb128 0x1
 14373 010c 12       		.uleb128 0x12
 14374 010d 06       		.uleb128 0x6
 14375 010e 40       		.uleb128 0x40
 14376 010f 18       		.uleb128 0x18
 14377 0110 9742     		.uleb128 0x2117
 14378 0112 19       		.uleb128 0x19
 14379 0113 01       		.uleb128 0x1
 14380 0114 13       		.uleb128 0x13
 14381 0115 00       		.byte	0
 14382 0116 00       		.byte	0
 14383 0117 15       		.uleb128 0x15
 14384 0118 0B       		.uleb128 0xb
 14385 0119 01       		.byte	0x1
 14386 011a 11       		.uleb128 0x11
 14387 011b 01       		.uleb128 0x1
 14388 011c 12       		.uleb128 0x12
 14389 011d 06       		.uleb128 0x6
 14390 011e 01       		.uleb128 0x1
 14391 011f 13       		.uleb128 0x13
 14392 0120 00       		.byte	0
 14393 0121 00       		.byte	0
 14394 0122 16       		.uleb128 0x16
 14395 0123 34       		.uleb128 0x34
 14396 0124 00       		.byte	0
 14397 0125 03       		.uleb128 0x3
 14398 0126 0E       		.uleb128 0xe
 14399 0127 3A       		.uleb128 0x3a
 14400 0128 0B       		.uleb128 0xb
 14401 0129 3B       		.uleb128 0x3b
 14402 012a 05       		.uleb128 0x5
 14403 012b 49       		.uleb128 0x49
 14404 012c 13       		.uleb128 0x13
 14405 012d 02       		.uleb128 0x2
 14406 012e 18       		.uleb128 0x18
 14407 012f 00       		.byte	0
 14408 0130 00       		.byte	0
ARM GAS  C:\Users\FRANKL~1\AppData\Local\Temp\ccebBo1q.s 			page 292


 14409 0131 17       		.uleb128 0x17
 14410 0132 34       		.uleb128 0x34
 14411 0133 00       		.byte	0
 14412 0134 03       		.uleb128 0x3
 14413 0135 0E       		.uleb128 0xe
 14414 0136 3A       		.uleb128 0x3a
 14415 0137 0B       		.uleb128 0xb
 14416 0138 3B       		.uleb128 0x3b
 14417 0139 05       		.uleb128 0x5
 14418 013a 49       		.uleb128 0x49
 14419 013b 13       		.uleb128 0x13
 14420 013c 02       		.uleb128 0x2
 14421 013d 17       		.uleb128 0x17
 14422 013e 00       		.byte	0
 14423 013f 00       		.byte	0
 14424 0140 18       		.uleb128 0x18
 14425 0141 34       		.uleb128 0x34
 14426 0142 00       		.byte	0
 14427 0143 03       		.uleb128 0x3
 14428 0144 08       		.uleb128 0x8
 14429 0145 3A       		.uleb128 0x3a
 14430 0146 0B       		.uleb128 0xb
 14431 0147 3B       		.uleb128 0x3b
 14432 0148 05       		.uleb128 0x5
 14433 0149 49       		.uleb128 0x49
 14434 014a 13       		.uleb128 0x13
 14435 014b 02       		.uleb128 0x2
 14436 014c 17       		.uleb128 0x17
 14437 014d 00       		.byte	0
 14438 014e 00       		.byte	0
 14439 014f 19       		.uleb128 0x19
 14440 0150 0B       		.uleb128 0xb
 14441 0151 01       		.byte	0x1
 14442 0152 11       		.uleb128 0x11
 14443 0153 01       		.uleb128 0x1
 14444 0154 12       		.uleb128 0x12
 14445 0155 06       		.uleb128 0x6
 14446 0156 00       		.byte	0
 14447 0157 00       		.byte	0
 14448 0158 1A       		.uleb128 0x1a
 14449 0159 898201   		.uleb128 0x4109
 14450 015c 01       		.byte	0x1
 14451 015d 11       		.uleb128 0x11
 14452 015e 01       		.uleb128 0x1
 14453 015f 31       		.uleb128 0x31
 14454 0160 13       		.uleb128 0x13
 14455 0161 00       		.byte	0
 14456 0162 00       		.byte	0
 14457 0163 1B       		.uleb128 0x1b
 14458 0164 8A8201   		.uleb128 0x410a
 14459 0167 00       		.byte	0
 14460 0168 02       		.uleb128 0x2
 14461 0169 18       		.uleb128 0x18
 14462 016a 9142     		.uleb128 0x2111
 14463 016c 18       		.uleb128 0x18
 14464 016d 00       		.byte	0
 14465 016e 00       		.byte	0
ARM GAS  C:\Users\FRANKL~1\AppData\Local\Temp\ccebBo1q.s 			page 293


 14466 016f 1C       		.uleb128 0x1c
 14467 0170 898201   		.uleb128 0x4109
 14468 0173 01       		.byte	0x1
 14469 0174 11       		.uleb128 0x11
 14470 0175 01       		.uleb128 0x1
 14471 0176 31       		.uleb128 0x31
 14472 0177 13       		.uleb128 0x13
 14473 0178 01       		.uleb128 0x1
 14474 0179 13       		.uleb128 0x13
 14475 017a 00       		.byte	0
 14476 017b 00       		.byte	0
 14477 017c 1D       		.uleb128 0x1d
 14478 017d 2E       		.uleb128 0x2e
 14479 017e 01       		.byte	0x1
 14480 017f 3F       		.uleb128 0x3f
 14481 0180 19       		.uleb128 0x19
 14482 0181 03       		.uleb128 0x3
 14483 0182 0E       		.uleb128 0xe
 14484 0183 3A       		.uleb128 0x3a
 14485 0184 0B       		.uleb128 0xb
 14486 0185 3B       		.uleb128 0x3b
 14487 0186 0B       		.uleb128 0xb
 14488 0187 27       		.uleb128 0x27
 14489 0188 19       		.uleb128 0x19
 14490 0189 49       		.uleb128 0x49
 14491 018a 13       		.uleb128 0x13
 14492 018b 11       		.uleb128 0x11
 14493 018c 01       		.uleb128 0x1
 14494 018d 12       		.uleb128 0x12
 14495 018e 06       		.uleb128 0x6
 14496 018f 40       		.uleb128 0x40
 14497 0190 18       		.uleb128 0x18
 14498 0191 9742     		.uleb128 0x2117
 14499 0193 19       		.uleb128 0x19
 14500 0194 01       		.uleb128 0x1
 14501 0195 13       		.uleb128 0x13
 14502 0196 00       		.byte	0
 14503 0197 00       		.byte	0
 14504 0198 1E       		.uleb128 0x1e
 14505 0199 05       		.uleb128 0x5
 14506 019a 00       		.byte	0
 14507 019b 03       		.uleb128 0x3
 14508 019c 0E       		.uleb128 0xe
 14509 019d 3A       		.uleb128 0x3a
 14510 019e 0B       		.uleb128 0xb
 14511 019f 3B       		.uleb128 0x3b
 14512 01a0 0B       		.uleb128 0xb
 14513 01a1 49       		.uleb128 0x49
 14514 01a2 13       		.uleb128 0x13
 14515 01a3 02       		.uleb128 0x2
 14516 01a4 17       		.uleb128 0x17
 14517 01a5 00       		.byte	0
 14518 01a6 00       		.byte	0
 14519 01a7 1F       		.uleb128 0x1f
 14520 01a8 0B       		.uleb128 0xb
 14521 01a9 01       		.byte	0x1
 14522 01aa 55       		.uleb128 0x55
ARM GAS  C:\Users\FRANKL~1\AppData\Local\Temp\ccebBo1q.s 			page 294


 14523 01ab 17       		.uleb128 0x17
 14524 01ac 01       		.uleb128 0x1
 14525 01ad 13       		.uleb128 0x13
 14526 01ae 00       		.byte	0
 14527 01af 00       		.byte	0
 14528 01b0 20       		.uleb128 0x20
 14529 01b1 34       		.uleb128 0x34
 14530 01b2 00       		.byte	0
 14531 01b3 03       		.uleb128 0x3
 14532 01b4 08       		.uleb128 0x8
 14533 01b5 3A       		.uleb128 0x3a
 14534 01b6 0B       		.uleb128 0xb
 14535 01b7 3B       		.uleb128 0x3b
 14536 01b8 0B       		.uleb128 0xb
 14537 01b9 49       		.uleb128 0x49
 14538 01ba 13       		.uleb128 0x13
 14539 01bb 02       		.uleb128 0x2
 14540 01bc 17       		.uleb128 0x17
 14541 01bd 00       		.byte	0
 14542 01be 00       		.byte	0
 14543 01bf 21       		.uleb128 0x21
 14544 01c0 2E       		.uleb128 0x2e
 14545 01c1 01       		.byte	0x1
 14546 01c2 3F       		.uleb128 0x3f
 14547 01c3 19       		.uleb128 0x19
 14548 01c4 03       		.uleb128 0x3
 14549 01c5 0E       		.uleb128 0xe
 14550 01c6 3A       		.uleb128 0x3a
 14551 01c7 0B       		.uleb128 0xb
 14552 01c8 3B       		.uleb128 0x3b
 14553 01c9 0B       		.uleb128 0xb
 14554 01ca 27       		.uleb128 0x27
 14555 01cb 19       		.uleb128 0x19
 14556 01cc 11       		.uleb128 0x11
 14557 01cd 01       		.uleb128 0x1
 14558 01ce 12       		.uleb128 0x12
 14559 01cf 06       		.uleb128 0x6
 14560 01d0 40       		.uleb128 0x40
 14561 01d1 18       		.uleb128 0x18
 14562 01d2 9742     		.uleb128 0x2117
 14563 01d4 19       		.uleb128 0x19
 14564 01d5 01       		.uleb128 0x1
 14565 01d6 13       		.uleb128 0x13
 14566 01d7 00       		.byte	0
 14567 01d8 00       		.byte	0
 14568 01d9 22       		.uleb128 0x22
 14569 01da 05       		.uleb128 0x5
 14570 01db 00       		.byte	0
 14571 01dc 03       		.uleb128 0x3
 14572 01dd 0E       		.uleb128 0xe
 14573 01de 3A       		.uleb128 0x3a
 14574 01df 0B       		.uleb128 0xb
 14575 01e0 3B       		.uleb128 0x3b
 14576 01e1 0B       		.uleb128 0xb
 14577 01e2 49       		.uleb128 0x49
 14578 01e3 13       		.uleb128 0x13
 14579 01e4 02       		.uleb128 0x2
ARM GAS  C:\Users\FRANKL~1\AppData\Local\Temp\ccebBo1q.s 			page 295


 14580 01e5 18       		.uleb128 0x18
 14581 01e6 00       		.byte	0
 14582 01e7 00       		.byte	0
 14583 01e8 23       		.uleb128 0x23
 14584 01e9 2E       		.uleb128 0x2e
 14585 01ea 01       		.byte	0x1
 14586 01eb 3F       		.uleb128 0x3f
 14587 01ec 19       		.uleb128 0x19
 14588 01ed 03       		.uleb128 0x3
 14589 01ee 0E       		.uleb128 0xe
 14590 01ef 3A       		.uleb128 0x3a
 14591 01f0 0B       		.uleb128 0xb
 14592 01f1 3B       		.uleb128 0x3b
 14593 01f2 0B       		.uleb128 0xb
 14594 01f3 27       		.uleb128 0x27
 14595 01f4 19       		.uleb128 0x19
 14596 01f5 11       		.uleb128 0x11
 14597 01f6 01       		.uleb128 0x1
 14598 01f7 12       		.uleb128 0x12
 14599 01f8 06       		.uleb128 0x6
 14600 01f9 40       		.uleb128 0x40
 14601 01fa 18       		.uleb128 0x18
 14602 01fb 9642     		.uleb128 0x2116
 14603 01fd 19       		.uleb128 0x19
 14604 01fe 01       		.uleb128 0x1
 14605 01ff 13       		.uleb128 0x13
 14606 0200 00       		.byte	0
 14607 0201 00       		.byte	0
 14608 0202 24       		.uleb128 0x24
 14609 0203 05       		.uleb128 0x5
 14610 0204 00       		.byte	0
 14611 0205 03       		.uleb128 0x3
 14612 0206 0E       		.uleb128 0xe
 14613 0207 3A       		.uleb128 0x3a
 14614 0208 0B       		.uleb128 0xb
 14615 0209 3B       		.uleb128 0x3b
 14616 020a 05       		.uleb128 0x5
 14617 020b 49       		.uleb128 0x49
 14618 020c 13       		.uleb128 0x13
 14619 020d 02       		.uleb128 0x2
 14620 020e 18       		.uleb128 0x18
 14621 020f 00       		.byte	0
 14622 0210 00       		.byte	0
 14623 0211 25       		.uleb128 0x25
 14624 0212 2E       		.uleb128 0x2e
 14625 0213 01       		.byte	0x1
 14626 0214 3F       		.uleb128 0x3f
 14627 0215 19       		.uleb128 0x19
 14628 0216 03       		.uleb128 0x3
 14629 0217 0E       		.uleb128 0xe
 14630 0218 3A       		.uleb128 0x3a
 14631 0219 0B       		.uleb128 0xb
 14632 021a 3B       		.uleb128 0x3b
 14633 021b 05       		.uleb128 0x5
 14634 021c 27       		.uleb128 0x27
 14635 021d 19       		.uleb128 0x19
 14636 021e 49       		.uleb128 0x49
ARM GAS  C:\Users\FRANKL~1\AppData\Local\Temp\ccebBo1q.s 			page 296


 14637 021f 13       		.uleb128 0x13
 14638 0220 11       		.uleb128 0x11
 14639 0221 01       		.uleb128 0x1
 14640 0222 12       		.uleb128 0x12
 14641 0223 06       		.uleb128 0x6
 14642 0224 40       		.uleb128 0x40
 14643 0225 18       		.uleb128 0x18
 14644 0226 9742     		.uleb128 0x2117
 14645 0228 19       		.uleb128 0x19
 14646 0229 01       		.uleb128 0x1
 14647 022a 13       		.uleb128 0x13
 14648 022b 00       		.byte	0
 14649 022c 00       		.byte	0
 14650 022d 26       		.uleb128 0x26
 14651 022e 05       		.uleb128 0x5
 14652 022f 00       		.byte	0
 14653 0230 03       		.uleb128 0x3
 14654 0231 0E       		.uleb128 0xe
 14655 0232 3A       		.uleb128 0x3a
 14656 0233 0B       		.uleb128 0xb
 14657 0234 3B       		.uleb128 0x3b
 14658 0235 05       		.uleb128 0x5
 14659 0236 49       		.uleb128 0x49
 14660 0237 13       		.uleb128 0x13
 14661 0238 02       		.uleb128 0x2
 14662 0239 17       		.uleb128 0x17
 14663 023a 00       		.byte	0
 14664 023b 00       		.byte	0
 14665 023c 27       		.uleb128 0x27
 14666 023d 2E       		.uleb128 0x2e
 14667 023e 01       		.byte	0x1
 14668 023f 3F       		.uleb128 0x3f
 14669 0240 19       		.uleb128 0x19
 14670 0241 03       		.uleb128 0x3
 14671 0242 0E       		.uleb128 0xe
 14672 0243 3A       		.uleb128 0x3a
 14673 0244 0B       		.uleb128 0xb
 14674 0245 3B       		.uleb128 0x3b
 14675 0246 05       		.uleb128 0x5
 14676 0247 27       		.uleb128 0x27
 14677 0248 19       		.uleb128 0x19
 14678 0249 11       		.uleb128 0x11
 14679 024a 01       		.uleb128 0x1
 14680 024b 12       		.uleb128 0x12
 14681 024c 06       		.uleb128 0x6
 14682 024d 40       		.uleb128 0x40
 14683 024e 18       		.uleb128 0x18
 14684 024f 9642     		.uleb128 0x2116
 14685 0251 19       		.uleb128 0x19
 14686 0252 01       		.uleb128 0x1
 14687 0253 13       		.uleb128 0x13
 14688 0254 00       		.byte	0
 14689 0255 00       		.byte	0
 14690 0256 28       		.uleb128 0x28
 14691 0257 0B       		.uleb128 0xb
 14692 0258 01       		.byte	0x1
 14693 0259 55       		.uleb128 0x55
ARM GAS  C:\Users\FRANKL~1\AppData\Local\Temp\ccebBo1q.s 			page 297


 14694 025a 17       		.uleb128 0x17
 14695 025b 00       		.byte	0
 14696 025c 00       		.byte	0
 14697 025d 29       		.uleb128 0x29
 14698 025e 21       		.uleb128 0x21
 14699 025f 00       		.byte	0
 14700 0260 49       		.uleb128 0x49
 14701 0261 13       		.uleb128 0x13
 14702 0262 2F       		.uleb128 0x2f
 14703 0263 18       		.uleb128 0x18
 14704 0264 00       		.byte	0
 14705 0265 00       		.byte	0
 14706 0266 2A       		.uleb128 0x2a
 14707 0267 2E       		.uleb128 0x2e
 14708 0268 01       		.byte	0x1
 14709 0269 3F       		.uleb128 0x3f
 14710 026a 19       		.uleb128 0x19
 14711 026b 03       		.uleb128 0x3
 14712 026c 0E       		.uleb128 0xe
 14713 026d 3A       		.uleb128 0x3a
 14714 026e 0B       		.uleb128 0xb
 14715 026f 3B       		.uleb128 0x3b
 14716 0270 05       		.uleb128 0x5
 14717 0271 49       		.uleb128 0x49
 14718 0272 13       		.uleb128 0x13
 14719 0273 11       		.uleb128 0x11
 14720 0274 01       		.uleb128 0x1
 14721 0275 12       		.uleb128 0x12
 14722 0276 06       		.uleb128 0x6
 14723 0277 40       		.uleb128 0x40
 14724 0278 18       		.uleb128 0x18
 14725 0279 9642     		.uleb128 0x2116
 14726 027b 19       		.uleb128 0x19
 14727 027c 01       		.uleb128 0x1
 14728 027d 13       		.uleb128 0x13
 14729 027e 00       		.byte	0
 14730 027f 00       		.byte	0
 14731 0280 2B       		.uleb128 0x2b
 14732 0281 2E       		.uleb128 0x2e
 14733 0282 01       		.byte	0x1
 14734 0283 3F       		.uleb128 0x3f
 14735 0284 19       		.uleb128 0x19
 14736 0285 03       		.uleb128 0x3
 14737 0286 0E       		.uleb128 0xe
 14738 0287 3A       		.uleb128 0x3a
 14739 0288 0B       		.uleb128 0xb
 14740 0289 3B       		.uleb128 0x3b
 14741 028a 05       		.uleb128 0x5
 14742 028b 11       		.uleb128 0x11
 14743 028c 01       		.uleb128 0x1
 14744 028d 12       		.uleb128 0x12
 14745 028e 06       		.uleb128 0x6
 14746 028f 40       		.uleb128 0x40
 14747 0290 18       		.uleb128 0x18
 14748 0291 9742     		.uleb128 0x2117
 14749 0293 19       		.uleb128 0x19
 14750 0294 01       		.uleb128 0x1
ARM GAS  C:\Users\FRANKL~1\AppData\Local\Temp\ccebBo1q.s 			page 298


 14751 0295 13       		.uleb128 0x13
 14752 0296 00       		.byte	0
 14753 0297 00       		.byte	0
 14754 0298 2C       		.uleb128 0x2c
 14755 0299 05       		.uleb128 0x5
 14756 029a 00       		.byte	0
 14757 029b 03       		.uleb128 0x3
 14758 029c 08       		.uleb128 0x8
 14759 029d 3A       		.uleb128 0x3a
 14760 029e 0B       		.uleb128 0xb
 14761 029f 3B       		.uleb128 0x3b
 14762 02a0 05       		.uleb128 0x5
 14763 02a1 49       		.uleb128 0x49
 14764 02a2 13       		.uleb128 0x13
 14765 02a3 02       		.uleb128 0x2
 14766 02a4 17       		.uleb128 0x17
 14767 02a5 00       		.byte	0
 14768 02a6 00       		.byte	0
 14769 02a7 2D       		.uleb128 0x2d
 14770 02a8 34       		.uleb128 0x34
 14771 02a9 00       		.byte	0
 14772 02aa 03       		.uleb128 0x3
 14773 02ab 0E       		.uleb128 0xe
 14774 02ac 3A       		.uleb128 0x3a
 14775 02ad 0B       		.uleb128 0xb
 14776 02ae 3B       		.uleb128 0x3b
 14777 02af 05       		.uleb128 0x5
 14778 02b0 49       		.uleb128 0x49
 14779 02b1 13       		.uleb128 0x13
 14780 02b2 00       		.byte	0
 14781 02b3 00       		.byte	0
 14782 02b4 2E       		.uleb128 0x2e
 14783 02b5 34       		.uleb128 0x34
 14784 02b6 00       		.byte	0
 14785 02b7 03       		.uleb128 0x3
 14786 02b8 0E       		.uleb128 0xe
 14787 02b9 3A       		.uleb128 0x3a
 14788 02ba 0B       		.uleb128 0xb
 14789 02bb 3B       		.uleb128 0x3b
 14790 02bc 05       		.uleb128 0x5
 14791 02bd 49       		.uleb128 0x49
 14792 02be 13       		.uleb128 0x13
 14793 02bf 1C       		.uleb128 0x1c
 14794 02c0 0B       		.uleb128 0xb
 14795 02c1 00       		.byte	0
 14796 02c2 00       		.byte	0
 14797 02c3 2F       		.uleb128 0x2f
 14798 02c4 2E       		.uleb128 0x2e
 14799 02c5 01       		.byte	0x1
 14800 02c6 3F       		.uleb128 0x3f
 14801 02c7 19       		.uleb128 0x19
 14802 02c8 03       		.uleb128 0x3
 14803 02c9 0E       		.uleb128 0xe
 14804 02ca 3A       		.uleb128 0x3a
 14805 02cb 0B       		.uleb128 0xb
 14806 02cc 3B       		.uleb128 0x3b
 14807 02cd 05       		.uleb128 0x5
ARM GAS  C:\Users\FRANKL~1\AppData\Local\Temp\ccebBo1q.s 			page 299


 14808 02ce 27       		.uleb128 0x27
 14809 02cf 19       		.uleb128 0x19
 14810 02d0 49       		.uleb128 0x49
 14811 02d1 13       		.uleb128 0x13
 14812 02d2 8701     		.uleb128 0x87
 14813 02d4 19       		.uleb128 0x19
 14814 02d5 11       		.uleb128 0x11
 14815 02d6 01       		.uleb128 0x1
 14816 02d7 12       		.uleb128 0x12
 14817 02d8 06       		.uleb128 0x6
 14818 02d9 40       		.uleb128 0x40
 14819 02da 18       		.uleb128 0x18
 14820 02db 9642     		.uleb128 0x2116
 14821 02dd 19       		.uleb128 0x19
 14822 02de 01       		.uleb128 0x1
 14823 02df 13       		.uleb128 0x13
 14824 02e0 00       		.byte	0
 14825 02e1 00       		.byte	0
 14826 02e2 30       		.uleb128 0x30
 14827 02e3 34       		.uleb128 0x34
 14828 02e4 00       		.byte	0
 14829 02e5 03       		.uleb128 0x3
 14830 02e6 08       		.uleb128 0x8
 14831 02e7 3A       		.uleb128 0x3a
 14832 02e8 0B       		.uleb128 0xb
 14833 02e9 3B       		.uleb128 0x3b
 14834 02ea 05       		.uleb128 0x5
 14835 02eb 49       		.uleb128 0x49
 14836 02ec 13       		.uleb128 0x13
 14837 02ed 02       		.uleb128 0x2
 14838 02ee 18       		.uleb128 0x18
 14839 02ef 00       		.byte	0
 14840 02f0 00       		.byte	0
 14841 02f1 31       		.uleb128 0x31
 14842 02f2 34       		.uleb128 0x34
 14843 02f3 00       		.byte	0
 14844 02f4 03       		.uleb128 0x3
 14845 02f5 0E       		.uleb128 0xe
 14846 02f6 3A       		.uleb128 0x3a
 14847 02f7 0B       		.uleb128 0xb
 14848 02f8 3B       		.uleb128 0x3b
 14849 02f9 05       		.uleb128 0x5
 14850 02fa 49       		.uleb128 0x49
 14851 02fb 13       		.uleb128 0x13
 14852 02fc 3F       		.uleb128 0x3f
 14853 02fd 19       		.uleb128 0x19
 14854 02fe 3C       		.uleb128 0x3c
 14855 02ff 19       		.uleb128 0x19
 14856 0300 00       		.byte	0
 14857 0301 00       		.byte	0
 14858 0302 32       		.uleb128 0x32
 14859 0303 34       		.uleb128 0x34
 14860 0304 00       		.byte	0
 14861 0305 03       		.uleb128 0x3
 14862 0306 0E       		.uleb128 0xe
 14863 0307 3A       		.uleb128 0x3a
 14864 0308 0B       		.uleb128 0xb
ARM GAS  C:\Users\FRANKL~1\AppData\Local\Temp\ccebBo1q.s 			page 300


 14865 0309 3B       		.uleb128 0x3b
 14866 030a 0B       		.uleb128 0xb
 14867 030b 49       		.uleb128 0x49
 14868 030c 13       		.uleb128 0x13
 14869 030d 3F       		.uleb128 0x3f
 14870 030e 19       		.uleb128 0x19
 14871 030f 02       		.uleb128 0x2
 14872 0310 18       		.uleb128 0x18
 14873 0311 00       		.byte	0
 14874 0312 00       		.byte	0
 14875 0313 33       		.uleb128 0x33
 14876 0314 2E       		.uleb128 0x2e
 14877 0315 00       		.byte	0
 14878 0316 3F       		.uleb128 0x3f
 14879 0317 19       		.uleb128 0x19
 14880 0318 3C       		.uleb128 0x3c
 14881 0319 19       		.uleb128 0x19
 14882 031a 6E       		.uleb128 0x6e
 14883 031b 0E       		.uleb128 0xe
 14884 031c 03       		.uleb128 0x3
 14885 031d 0E       		.uleb128 0xe
 14886 031e 3A       		.uleb128 0x3a
 14887 031f 0B       		.uleb128 0xb
 14888 0320 3B       		.uleb128 0x3b
 14889 0321 05       		.uleb128 0x5
 14890 0322 00       		.byte	0
 14891 0323 00       		.byte	0
 14892 0324 34       		.uleb128 0x34
 14893 0325 2E       		.uleb128 0x2e
 14894 0326 00       		.byte	0
 14895 0327 3F       		.uleb128 0x3f
 14896 0328 19       		.uleb128 0x19
 14897 0329 3C       		.uleb128 0x3c
 14898 032a 19       		.uleb128 0x19
 14899 032b 6E       		.uleb128 0x6e
 14900 032c 0E       		.uleb128 0xe
 14901 032d 03       		.uleb128 0x3
 14902 032e 0E       		.uleb128 0xe
 14903 032f 3A       		.uleb128 0x3a
 14904 0330 0B       		.uleb128 0xb
 14905 0331 3B       		.uleb128 0x3b
 14906 0332 0B       		.uleb128 0xb
 14907 0333 00       		.byte	0
 14908 0334 00       		.byte	0
 14909 0335 35       		.uleb128 0x35
 14910 0336 2E       		.uleb128 0x2e
 14911 0337 00       		.byte	0
 14912 0338 3F       		.uleb128 0x3f
 14913 0339 19       		.uleb128 0x19
 14914 033a 3C       		.uleb128 0x3c
 14915 033b 19       		.uleb128 0x19
 14916 033c 6E       		.uleb128 0x6e
 14917 033d 0E       		.uleb128 0xe
 14918 033e 03       		.uleb128 0x3
 14919 033f 0E       		.uleb128 0xe
 14920 0340 3A       		.uleb128 0x3a
 14921 0341 0B       		.uleb128 0xb
ARM GAS  C:\Users\FRANKL~1\AppData\Local\Temp\ccebBo1q.s 			page 301


 14922 0342 3B       		.uleb128 0x3b
 14923 0343 0B       		.uleb128 0xb
 14924 0344 6E       		.uleb128 0x6e
 14925 0345 0E       		.uleb128 0xe
 14926 0346 00       		.byte	0
 14927 0347 00       		.byte	0
 14928 0348 00       		.byte	0
 14929              		.section	.debug_loc,"",%progbits
 14930              	.Ldebug_loc0:
 14931              	.LLST0:
 14932 0000 02000000 		.4byte	.LVL0
 14933 0004 12000000 		.4byte	.LVL3
 14934 0008 0200     		.2byte	0x2
 14935 000a 30       		.byte	0x30
 14936 000b 9F       		.byte	0x9f
 14937 000c 12000000 		.4byte	.LVL3
 14938 0010 18000000 		.4byte	.LFE64
 14939 0014 0200     		.2byte	0x2
 14940 0016 31       		.byte	0x31
 14941 0017 9F       		.byte	0x9f
 14942 0018 00000000 		.4byte	0
 14943 001c 00000000 		.4byte	0
 14944              	.LLST1:
 14945 0020 14000000 		.4byte	.LVL10
 14946 0024 7C000000 		.4byte	.LVL18
 14947 0028 0100     		.2byte	0x1
 14948 002a 50       		.byte	0x50
 14949 002b 00000000 		.4byte	0
 14950 002f 00000000 		.4byte	0
 14951              	.LLST2:
 14952 0033 14000000 		.4byte	.LVL10
 14953 0037 18000000 		.4byte	.LVL11
 14954 003b 0200     		.2byte	0x2
 14955 003d 30       		.byte	0x30
 14956 003e 9F       		.byte	0x9f
 14957 003f 18000000 		.4byte	.LVL11
 14958 0043 74000000 		.4byte	.LVL16
 14959 0047 0100     		.2byte	0x1
 14960 0049 53       		.byte	0x53
 14961 004a 76000000 		.4byte	.LVL17
 14962 004e 7C000000 		.4byte	.LVL18
 14963 0052 0100     		.2byte	0x1
 14964 0054 53       		.byte	0x53
 14965 0055 00000000 		.4byte	0
 14966 0059 00000000 		.4byte	0
 14967              	.LLST3:
 14968 005d 20000000 		.4byte	.LVL12
 14969 0061 3A000000 		.4byte	.LVL13
 14970 0065 0100     		.2byte	0x1
 14971 0067 52       		.byte	0x52
 14972 0068 3A000000 		.4byte	.LVL13
 14973 006c 58000000 		.4byte	.LVL14
 14974 0070 0800     		.2byte	0x8
 14975 0072 91       		.byte	0x91
 14976 0073 00       		.sleb128 0
 14977 0074 73       		.byte	0x73
 14978 0075 00       		.sleb128 0
ARM GAS  C:\Users\FRANKL~1\AppData\Local\Temp\ccebBo1q.s 			page 302


 14979 0076 22       		.byte	0x22
 14980 0077 08       		.byte	0x8
 14981 0078 50       		.byte	0x50
 14982 0079 1C       		.byte	0x1c
 14983 007a 58000000 		.4byte	.LVL14
 14984 007e 5C000000 		.4byte	.LVL15
 14985 0082 0100     		.2byte	0x1
 14986 0084 52       		.byte	0x52
 14987 0085 5C000000 		.4byte	.LVL15
 14988 0089 74000000 		.4byte	.LVL16
 14989 008d 0800     		.2byte	0x8
 14990 008f 91       		.byte	0x91
 14991 0090 00       		.sleb128 0
 14992 0091 73       		.byte	0x73
 14993 0092 00       		.sleb128 0
 14994 0093 22       		.byte	0x22
 14995 0094 08       		.byte	0x8
 14996 0095 50       		.byte	0x50
 14997 0096 1C       		.byte	0x1c
 14998 0097 74000000 		.4byte	.LVL16
 14999 009b 76000000 		.4byte	.LVL17
 15000 009f 0800     		.2byte	0x8
 15001 00a1 91       		.byte	0x91
 15002 00a2 00       		.sleb128 0
 15003 00a3 73       		.byte	0x73
 15004 00a4 00       		.sleb128 0
 15005 00a5 22       		.byte	0x22
 15006 00a6 08       		.byte	0x8
 15007 00a7 51       		.byte	0x51
 15008 00a8 1C       		.byte	0x1c
 15009 00a9 00000000 		.4byte	0
 15010 00ad 00000000 		.4byte	0
 15011              	.LLST4:
 15012 00b1 FC000000 		.4byte	.LVL21
 15013 00b5 0C010000 		.4byte	.LVL22
 15014 00b9 0600     		.2byte	0x6
 15015 00bb 03       		.byte	0x3
 15016 00bc 00000000 		.4byte	USBUART_Receive_Buffer
 15017 00c0 9F       		.byte	0x9f
 15018 00c1 0C010000 		.4byte	.LVL22
 15019 00c5 7C010000 		.4byte	.LVL28
 15020 00c9 0100     		.2byte	0x1
 15021 00cb 54       		.byte	0x54
 15022 00cc 00000000 		.4byte	0
 15023 00d0 00000000 		.4byte	0
 15024              	.LLST5:
 15025 00d4 00000000 		.4byte	.LVL31
 15026 00d8 06000000 		.4byte	.LVL32
 15027 00dc 0100     		.2byte	0x1
 15028 00de 50       		.byte	0x50
 15029 00df 06000000 		.4byte	.LVL32
 15030 00e3 08000000 		.4byte	.LVL33
 15031 00e7 0400     		.2byte	0x4
 15032 00e9 F3       		.byte	0xf3
 15033 00ea 01       		.uleb128 0x1
 15034 00eb 50       		.byte	0x50
 15035 00ec 9F       		.byte	0x9f
ARM GAS  C:\Users\FRANKL~1\AppData\Local\Temp\ccebBo1q.s 			page 303


 15036 00ed 08000000 		.4byte	.LVL33
 15037 00f1 16000000 		.4byte	.LVL37
 15038 00f5 0100     		.2byte	0x1
 15039 00f7 56       		.byte	0x56
 15040 00f8 16000000 		.4byte	.LVL37
 15041 00fc 1E000000 		.4byte	.LVL38
 15042 0100 0100     		.2byte	0x1
 15043 0102 50       		.byte	0x50
 15044 0103 1E000000 		.4byte	.LVL38
 15045 0107 50000000 		.4byte	.LFE66
 15046 010b 0100     		.2byte	0x1
 15047 010d 56       		.byte	0x56
 15048 010e 00000000 		.4byte	0
 15049 0112 00000000 		.4byte	0
 15050              	.LLST6:
 15051 0116 00000000 		.4byte	.LVL31
 15052 011a 08000000 		.4byte	.LVL33
 15053 011e 0100     		.2byte	0x1
 15054 0120 51       		.byte	0x51
 15055 0121 08000000 		.4byte	.LVL33
 15056 0125 16000000 		.4byte	.LVL37
 15057 0129 0400     		.2byte	0x4
 15058 012b F3       		.byte	0xf3
 15059 012c 01       		.uleb128 0x1
 15060 012d 51       		.byte	0x51
 15061 012e 9F       		.byte	0x9f
 15062 012f 16000000 		.4byte	.LVL37
 15063 0133 1E000000 		.4byte	.LVL38
 15064 0137 0100     		.2byte	0x1
 15065 0139 51       		.byte	0x51
 15066 013a 1E000000 		.4byte	.LVL38
 15067 013e 50000000 		.4byte	.LFE66
 15068 0142 0400     		.2byte	0x4
 15069 0144 F3       		.byte	0xf3
 15070 0145 01       		.uleb128 0x1
 15071 0146 51       		.byte	0x51
 15072 0147 9F       		.byte	0x9f
 15073 0148 00000000 		.4byte	0
 15074 014c 00000000 		.4byte	0
 15075              	.LLST7:
 15076 0150 08000000 		.4byte	.LVL33
 15077 0154 16000000 		.4byte	.LVL37
 15078 0158 0100     		.2byte	0x1
 15079 015a 54       		.byte	0x54
 15080 015b 1E000000 		.4byte	.LVL38
 15081 015f 50000000 		.4byte	.LFE66
 15082 0163 0100     		.2byte	0x1
 15083 0165 54       		.byte	0x54
 15084 0166 00000000 		.4byte	0
 15085 016a 00000000 		.4byte	0
 15086              	.LLST8:
 15087 016e 00000000 		.4byte	.LVL43
 15088 0172 08000000 		.4byte	.LVL44
 15089 0176 0100     		.2byte	0x1
 15090 0178 50       		.byte	0x50
 15091 0179 08000000 		.4byte	.LVL44
 15092 017d 24000000 		.4byte	.LFE67
ARM GAS  C:\Users\FRANKL~1\AppData\Local\Temp\ccebBo1q.s 			page 304


 15093 0181 0100     		.2byte	0x1
 15094 0183 54       		.byte	0x54
 15095 0184 00000000 		.4byte	0
 15096 0188 00000000 		.4byte	0
 15097              	.LLST9:
 15098 018c 00000000 		.4byte	.LVL43
 15099 0190 08000000 		.4byte	.LVL44
 15100 0194 0100     		.2byte	0x1
 15101 0196 51       		.byte	0x51
 15102 0197 08000000 		.4byte	.LVL44
 15103 019b 24000000 		.4byte	.LFE67
 15104 019f 0100     		.2byte	0x1
 15105 01a1 55       		.byte	0x55
 15106 01a2 00000000 		.4byte	0
 15107 01a6 00000000 		.4byte	0
 15108              	.LLST10:
 15109 01aa 00000000 		.4byte	.LVL51
 15110 01ae 1E000000 		.4byte	.LVL56
 15111 01b2 0100     		.2byte	0x1
 15112 01b4 50       		.byte	0x50
 15113 01b5 1E000000 		.4byte	.LVL56
 15114 01b9 58000000 		.4byte	.LFE69
 15115 01bd 0100     		.2byte	0x1
 15116 01bf 55       		.byte	0x55
 15117 01c0 00000000 		.4byte	0
 15118 01c4 00000000 		.4byte	0
 15119              	.LLST11:
 15120 01c8 00000000 		.4byte	.LVL51
 15121 01cc 1E000000 		.4byte	.LVL56
 15122 01d0 0100     		.2byte	0x1
 15123 01d2 51       		.byte	0x51
 15124 01d3 1E000000 		.4byte	.LVL56
 15125 01d7 58000000 		.4byte	.LFE69
 15126 01db 0400     		.2byte	0x4
 15127 01dd F3       		.byte	0xf3
 15128 01de 01       		.uleb128 0x1
 15129 01df 51       		.byte	0x51
 15130 01e0 9F       		.byte	0x9f
 15131 01e1 00000000 		.4byte	0
 15132 01e5 00000000 		.4byte	0
 15133              	.LLST12:
 15134 01e9 00000000 		.4byte	.LVL51
 15135 01ed 0E000000 		.4byte	.LVL53
 15136 01f1 0100     		.2byte	0x1
 15137 01f3 52       		.byte	0x52
 15138 01f4 0E000000 		.4byte	.LVL53
 15139 01f8 58000000 		.4byte	.LFE69
 15140 01fc 0100     		.2byte	0x1
 15141 01fe 57       		.byte	0x57
 15142 01ff 00000000 		.4byte	0
 15143 0203 00000000 		.4byte	0
 15144              	.LLST13:
 15145 0207 0A000000 		.4byte	.LVL52
 15146 020b 0E000000 		.4byte	.LVL53
 15147 020f 0200     		.2byte	0x2
 15148 0211 30       		.byte	0x30
 15149 0212 9F       		.byte	0x9f
ARM GAS  C:\Users\FRANKL~1\AppData\Local\Temp\ccebBo1q.s 			page 305


 15150 0213 0E000000 		.4byte	.LVL53
 15151 0217 14000000 		.4byte	.LVL54
 15152 021b 0100     		.2byte	0x1
 15153 021d 53       		.byte	0x53
 15154 021e 16000000 		.4byte	.LVL55
 15155 0222 1E000000 		.4byte	.LVL56
 15156 0226 0100     		.2byte	0x1
 15157 0228 53       		.byte	0x53
 15158 0229 00000000 		.4byte	0
 15159 022d 00000000 		.4byte	0
 15160              	.LLST14:
 15161 0231 1E000000 		.4byte	.LVL56
 15162 0235 4A000000 		.4byte	.LVL61
 15163 0239 0100     		.2byte	0x1
 15164 023b 54       		.byte	0x54
 15165 023c 4C000000 		.4byte	.LVL62
 15166 0240 58000000 		.4byte	.LFE69
 15167 0244 0100     		.2byte	0x1
 15168 0246 54       		.byte	0x54
 15169 0247 00000000 		.4byte	0
 15170 024b 00000000 		.4byte	0
 15171              	.LLST15:
 15172 024f 0A000000 		.4byte	.LVL64
 15173 0253 0E000000 		.4byte	.LVL65
 15174 0257 0200     		.2byte	0x2
 15175 0259 30       		.byte	0x30
 15176 025a 9F       		.byte	0x9f
 15177 025b 0E000000 		.4byte	.LVL65
 15178 025f 16000000 		.4byte	.LVL66
 15179 0263 0100     		.2byte	0x1
 15180 0265 53       		.byte	0x53
 15181 0266 18000000 		.4byte	.LVL67
 15182 026a 1E000000 		.4byte	.LVL68
 15183 026e 0100     		.2byte	0x1
 15184 0270 53       		.byte	0x53
 15185 0271 00000000 		.4byte	0
 15186 0275 00000000 		.4byte	0
 15187              	.LLST16:
 15188 0279 20000000 		.4byte	.LVL69
 15189 027d 2A000000 		.4byte	.LVL70
 15190 0281 0100     		.2byte	0x1
 15191 0283 53       		.byte	0x53
 15192 0284 2C000000 		.4byte	.LVL71
 15193 0288 32000000 		.4byte	.LFE70
 15194 028c 0100     		.2byte	0x1
 15195 028e 53       		.byte	0x53
 15196 028f 00000000 		.4byte	0
 15197 0293 00000000 		.4byte	0
 15198              	.LLST17:
 15199 0297 00000000 		.4byte	.LVL72
 15200 029b 12000000 		.4byte	.LVL73
 15201 029f 0100     		.2byte	0x1
 15202 02a1 50       		.byte	0x50
 15203 02a2 12000000 		.4byte	.LVL73
 15204 02a6 90010000 		.4byte	.LFE71
 15205 02aa 0400     		.2byte	0x4
 15206 02ac F3       		.byte	0xf3
ARM GAS  C:\Users\FRANKL~1\AppData\Local\Temp\ccebBo1q.s 			page 306


 15207 02ad 01       		.uleb128 0x1
 15208 02ae 50       		.byte	0x50
 15209 02af 9F       		.byte	0x9f
 15210 02b0 00000000 		.4byte	0
 15211 02b4 00000000 		.4byte	0
 15212              	.LLST18:
 15213 02b8 2A000000 		.4byte	.LVL77
 15214 02bc 32000000 		.4byte	.LVL79
 15215 02c0 0C00     		.2byte	0xc
 15216 02c2 74       		.byte	0x74
 15217 02c3 00       		.sleb128 0
 15218 02c4 08       		.byte	0x8
 15219 02c5 FF       		.byte	0xff
 15220 02c6 1E       		.byte	0x1e
 15221 02c7 03       		.byte	0x3
 15222 02c8 00000000 		.4byte	selectors
 15223 02cc 22       		.byte	0x22
 15224 02cd 9F       		.byte	0x9f
 15225 02ce 32000000 		.4byte	.LVL79
 15226 02d2 5C010000 		.4byte	.LVL108
 15227 02d6 0C00     		.2byte	0xc
 15228 02d8 78       		.byte	0x78
 15229 02d9 7F       		.sleb128 -1
 15230 02da 08       		.byte	0x8
 15231 02db FF       		.byte	0xff
 15232 02dc 1E       		.byte	0x1e
 15233 02dd 03       		.byte	0x3
 15234 02de 00000000 		.4byte	selectors
 15235 02e2 22       		.byte	0x22
 15236 02e3 9F       		.byte	0x9f
 15237 02e4 00000000 		.4byte	0
 15238 02e8 00000000 		.4byte	0
 15239              	.LLST19:
 15240 02ec 44000000 		.4byte	.LVL80
 15241 02f0 48000000 		.4byte	.LVL81
 15242 02f4 0200     		.2byte	0x2
 15243 02f6 30       		.byte	0x30
 15244 02f7 9F       		.byte	0x9f
 15245 02f8 48000000 		.4byte	.LVL81
 15246 02fc C6000000 		.4byte	.LVL93
 15247 0300 0100     		.2byte	0x1
 15248 0302 54       		.byte	0x54
 15249 0303 00000000 		.4byte	0
 15250 0307 00000000 		.4byte	0
 15251              	.LLST20:
 15252 030b 02000000 		.4byte	.LVL109
 15253 030f 06000000 		.4byte	.LVL110
 15254 0313 0200     		.2byte	0x2
 15255 0315 30       		.byte	0x30
 15256 0316 9F       		.byte	0x9f
 15257 0317 06000000 		.4byte	.LVL110
 15258 031b 14000000 		.4byte	.LVL112
 15259 031f 0100     		.2byte	0x1
 15260 0321 54       		.byte	0x54
 15261 0322 16000000 		.4byte	.LVL113
 15262 0326 36000000 		.4byte	.LVL114
 15263 032a 0100     		.2byte	0x1
ARM GAS  C:\Users\FRANKL~1\AppData\Local\Temp\ccebBo1q.s 			page 307


 15264 032c 54       		.byte	0x54
 15265 032d 00000000 		.4byte	0
 15266 0331 00000000 		.4byte	0
 15267              	.LLST21:
 15268 0335 00000000 		.4byte	.LVL115
 15269 0339 04000000 		.4byte	.LVL116
 15270 033d 0100     		.2byte	0x1
 15271 033f 50       		.byte	0x50
 15272 0340 04000000 		.4byte	.LVL116
 15273 0344 06000000 		.4byte	.LVL117
 15274 0348 0400     		.2byte	0x4
 15275 034a F3       		.byte	0xf3
 15276 034b 01       		.uleb128 0x1
 15277 034c 50       		.byte	0x50
 15278 034d 9F       		.byte	0x9f
 15279 034e 06000000 		.4byte	.LVL117
 15280 0352 1C000000 		.4byte	.LVL119
 15281 0356 0100     		.2byte	0x1
 15282 0358 53       		.byte	0x53
 15283 0359 00000000 		.4byte	0
 15284 035d 00000000 		.4byte	0
 15285              	.LLST22:
 15286 0361 00000000 		.4byte	.LVL115
 15287 0365 06000000 		.4byte	.LVL117
 15288 0369 0100     		.2byte	0x1
 15289 036b 51       		.byte	0x51
 15290 036c 06000000 		.4byte	.LVL117
 15291 0370 0C000000 		.4byte	.LVL118
 15292 0374 0300     		.2byte	0x3
 15293 0376 71       		.byte	0x71
 15294 0377 7F       		.sleb128 -1
 15295 0378 9F       		.byte	0x9f
 15296 0379 0C000000 		.4byte	.LVL118
 15297 037d 2C000000 		.4byte	.LFE73
 15298 0381 0600     		.2byte	0x6
 15299 0383 F3       		.byte	0xf3
 15300 0384 01       		.uleb128 0x1
 15301 0385 51       		.byte	0x51
 15302 0386 31       		.byte	0x31
 15303 0387 1C       		.byte	0x1c
 15304 0388 9F       		.byte	0x9f
 15305 0389 00000000 		.4byte	0
 15306 038d 00000000 		.4byte	0
 15307              	.LLST23:
 15308 0391 00000000 		.4byte	.LVL121
 15309 0395 02000000 		.4byte	.LVL122
 15310 0399 0100     		.2byte	0x1
 15311 039b 50       		.byte	0x50
 15312 039c 02000000 		.4byte	.LVL122
 15313 03a0 04000000 		.4byte	.LVL123
 15314 03a4 0400     		.2byte	0x4
 15315 03a6 F3       		.byte	0xf3
 15316 03a7 01       		.uleb128 0x1
 15317 03a8 50       		.byte	0x50
 15318 03a9 9F       		.byte	0x9f
 15319 03aa 04000000 		.4byte	.LVL123
 15320 03ae 26000000 		.4byte	.LVL128
ARM GAS  C:\Users\FRANKL~1\AppData\Local\Temp\ccebBo1q.s 			page 308


 15321 03b2 0100     		.2byte	0x1
 15322 03b4 50       		.byte	0x50
 15323 03b5 30000000 		.4byte	.LVL130
 15324 03b9 32000000 		.4byte	.LFE74
 15325 03bd 0100     		.2byte	0x1
 15326 03bf 50       		.byte	0x50
 15327 03c0 00000000 		.4byte	0
 15328 03c4 00000000 		.4byte	0
 15329              	.LLST24:
 15330 03c8 00000000 		.4byte	.LVL121
 15331 03cc 04000000 		.4byte	.LVL123
 15332 03d0 0100     		.2byte	0x1
 15333 03d2 51       		.byte	0x51
 15334 03d3 04000000 		.4byte	.LVL123
 15335 03d7 2D000000 		.4byte	.LVL129-1
 15336 03db 0300     		.2byte	0x3
 15337 03dd 71       		.byte	0x71
 15338 03de 7F       		.sleb128 -1
 15339 03df 9F       		.byte	0x9f
 15340 03e0 2D000000 		.4byte	.LVL129-1
 15341 03e4 30000000 		.4byte	.LVL130
 15342 03e8 0600     		.2byte	0x6
 15343 03ea F3       		.byte	0xf3
 15344 03eb 01       		.uleb128 0x1
 15345 03ec 51       		.byte	0x51
 15346 03ed 31       		.byte	0x31
 15347 03ee 1C       		.byte	0x1c
 15348 03ef 9F       		.byte	0x9f
 15349 03f0 30000000 		.4byte	.LVL130
 15350 03f4 32000000 		.4byte	.LFE74
 15351 03f8 0300     		.2byte	0x3
 15352 03fa 71       		.byte	0x71
 15353 03fb 7F       		.sleb128 -1
 15354 03fc 9F       		.byte	0x9f
 15355 03fd 00000000 		.4byte	0
 15356 0401 00000000 		.4byte	0
 15357              	.LLST25:
 15358 0405 12000000 		.4byte	.LVL124
 15359 0409 16000000 		.4byte	.LVL125
 15360 040d 0200     		.2byte	0x2
 15361 040f 30       		.byte	0x30
 15362 0410 9F       		.byte	0x9f
 15363 0411 16000000 		.4byte	.LVL125
 15364 0415 1E000000 		.4byte	.LVL126
 15365 0419 0300     		.2byte	0x3
 15366 041b 08       		.byte	0x8
 15367 041c 20       		.byte	0x20
 15368 041d 9F       		.byte	0x9f
 15369 041e 1E000000 		.4byte	.LVL126
 15370 0422 24000000 		.4byte	.LVL127
 15371 0426 0200     		.2byte	0x2
 15372 0428 30       		.byte	0x30
 15373 0429 9F       		.byte	0x9f
 15374 042a 24000000 		.4byte	.LVL127
 15375 042e 2D000000 		.4byte	.LVL129-1
 15376 0432 0100     		.2byte	0x1
 15377 0434 53       		.byte	0x53
ARM GAS  C:\Users\FRANKL~1\AppData\Local\Temp\ccebBo1q.s 			page 309


 15378 0435 00000000 		.4byte	0
 15379 0439 00000000 		.4byte	0
 15380              	.LLST26:
 15381 043d 00000000 		.4byte	.LVL131
 15382 0441 04000000 		.4byte	.LVL132
 15383 0445 0100     		.2byte	0x1
 15384 0447 50       		.byte	0x50
 15385 0448 04000000 		.4byte	.LVL132
 15386 044c 06000000 		.4byte	.LVL133
 15387 0450 0400     		.2byte	0x4
 15388 0452 F3       		.byte	0xf3
 15389 0453 01       		.uleb128 0x1
 15390 0454 50       		.byte	0x50
 15391 0455 9F       		.byte	0x9f
 15392 0456 06000000 		.4byte	.LVL133
 15393 045a 26000000 		.4byte	.LVL139
 15394 045e 0100     		.2byte	0x1
 15395 0460 53       		.byte	0x53
 15396 0461 00000000 		.4byte	0
 15397 0465 00000000 		.4byte	0
 15398              	.LLST27:
 15399 0469 00000000 		.4byte	.LVL131
 15400 046d 06000000 		.4byte	.LVL133
 15401 0471 0100     		.2byte	0x1
 15402 0473 51       		.byte	0x51
 15403 0474 06000000 		.4byte	.LVL133
 15404 0478 0C000000 		.4byte	.LVL134
 15405 047c 0300     		.2byte	0x3
 15406 047e 71       		.byte	0x71
 15407 047f 7F       		.sleb128 -1
 15408 0480 9F       		.byte	0x9f
 15409 0481 0C000000 		.4byte	.LVL134
 15410 0485 40000000 		.4byte	.LFE75
 15411 0489 0600     		.2byte	0x6
 15412 048b F3       		.byte	0xf3
 15413 048c 01       		.uleb128 0x1
 15414 048d 51       		.byte	0x51
 15415 048e 31       		.byte	0x31
 15416 048f 1C       		.byte	0x1c
 15417 0490 9F       		.byte	0x9f
 15418 0491 00000000 		.4byte	0
 15419 0495 00000000 		.4byte	0
 15420              	.LLST28:
 15421 0499 12000000 		.4byte	.LVL135
 15422 049d 16000000 		.4byte	.LVL136
 15423 04a1 0200     		.2byte	0x2
 15424 04a3 30       		.byte	0x30
 15425 04a4 9F       		.byte	0x9f
 15426 04a5 16000000 		.4byte	.LVL136
 15427 04a9 1E000000 		.4byte	.LVL137
 15428 04ad 0300     		.2byte	0x3
 15429 04af 08       		.byte	0x8
 15430 04b0 20       		.byte	0x20
 15431 04b1 9F       		.byte	0x9f
 15432 04b2 1E000000 		.4byte	.LVL137
 15433 04b6 24000000 		.4byte	.LVL138
 15434 04ba 0200     		.2byte	0x2
ARM GAS  C:\Users\FRANKL~1\AppData\Local\Temp\ccebBo1q.s 			page 310


 15435 04bc 30       		.byte	0x30
 15436 04bd 9F       		.byte	0x9f
 15437 04be 24000000 		.4byte	.LVL138
 15438 04c2 2A000000 		.4byte	.LVL140
 15439 04c6 0100     		.2byte	0x1
 15440 04c8 52       		.byte	0x52
 15441 04c9 00000000 		.4byte	0
 15442 04cd 00000000 		.4byte	0
 15443              	.LLST29:
 15444 04d1 00000000 		.4byte	.LVL142
 15445 04d5 04000000 		.4byte	.LVL143
 15446 04d9 0100     		.2byte	0x1
 15447 04db 50       		.byte	0x50
 15448 04dc 04000000 		.4byte	.LVL143
 15449 04e0 06000000 		.4byte	.LVL144
 15450 04e4 0400     		.2byte	0x4
 15451 04e6 F3       		.byte	0xf3
 15452 04e7 01       		.uleb128 0x1
 15453 04e8 50       		.byte	0x50
 15454 04e9 9F       		.byte	0x9f
 15455 04ea 06000000 		.4byte	.LVL144
 15456 04ee 3C000000 		.4byte	.LVL153
 15457 04f2 0100     		.2byte	0x1
 15458 04f4 55       		.byte	0x55
 15459 04f5 00000000 		.4byte	0
 15460 04f9 00000000 		.4byte	0
 15461              	.LLST30:
 15462 04fd 06000000 		.4byte	.LVL144
 15463 0501 0A000000 		.4byte	.LVL145
 15464 0505 0200     		.2byte	0x2
 15465 0507 30       		.byte	0x30
 15466 0508 9F       		.byte	0x9f
 15467 0509 0A000000 		.4byte	.LVL145
 15468 050d 34000000 		.4byte	.LVL151
 15469 0511 0100     		.2byte	0x1
 15470 0513 54       		.byte	0x54
 15471 0514 36000000 		.4byte	.LVL152
 15472 0518 3C000000 		.4byte	.LVL153
 15473 051c 0100     		.2byte	0x1
 15474 051e 54       		.byte	0x54
 15475 051f 00000000 		.4byte	0
 15476 0523 00000000 		.4byte	0
 15477              	.LLST31:
 15478 0527 0A000000 		.4byte	.LVL145
 15479 052b 0E000000 		.4byte	.LVL146
 15480 052f 0200     		.2byte	0x2
 15481 0531 30       		.byte	0x30
 15482 0532 9F       		.byte	0x9f
 15483 0533 0E000000 		.4byte	.LVL146
 15484 0537 16000000 		.4byte	.LVL147
 15485 053b 0300     		.2byte	0x3
 15486 053d 08       		.byte	0x8
 15487 053e 20       		.byte	0x20
 15488 053f 9F       		.byte	0x9f
 15489 0540 16000000 		.4byte	.LVL147
 15490 0544 1C000000 		.4byte	.LVL148
 15491 0548 0200     		.2byte	0x2
ARM GAS  C:\Users\FRANKL~1\AppData\Local\Temp\ccebBo1q.s 			page 311


 15492 054a 30       		.byte	0x30
 15493 054b 9F       		.byte	0x9f
 15494 054c 1C000000 		.4byte	.LVL148
 15495 0550 22000000 		.4byte	.LVL149
 15496 0554 0100     		.2byte	0x1
 15497 0556 53       		.byte	0x53
 15498 0557 00000000 		.4byte	0
 15499 055b 00000000 		.4byte	0
 15500              	.LLST32:
 15501 055f 02000000 		.4byte	.LVL154
 15502 0563 06000000 		.4byte	.LVL155
 15503 0567 0200     		.2byte	0x2
 15504 0569 30       		.byte	0x30
 15505 056a 9F       		.byte	0x9f
 15506 056b 06000000 		.4byte	.LVL155
 15507 056f 28000000 		.4byte	.LVL161
 15508 0573 0100     		.2byte	0x1
 15509 0575 54       		.byte	0x54
 15510 0576 2A000000 		.4byte	.LVL162
 15511 057a 30000000 		.4byte	.LVL163
 15512 057e 0100     		.2byte	0x1
 15513 0580 54       		.byte	0x54
 15514 0581 00000000 		.4byte	0
 15515 0585 00000000 		.4byte	0
 15516              	.LLST33:
 15517 0589 06000000 		.4byte	.LVL155
 15518 058d 16000000 		.4byte	.LVL156
 15519 0591 0100     		.2byte	0x1
 15520 0593 53       		.byte	0x53
 15521 0594 18000000 		.4byte	.LVL157
 15522 0598 1A000000 		.4byte	.LVL158
 15523 059c 0100     		.2byte	0x1
 15524 059e 53       		.byte	0x53
 15525 059f 1C000000 		.4byte	.LVL159
 15526 05a3 25000000 		.4byte	.LVL160-1
 15527 05a7 0100     		.2byte	0x1
 15528 05a9 53       		.byte	0x53
 15529 05aa 00000000 		.4byte	0
 15530 05ae 00000000 		.4byte	0
 15531              	.LLST34:
 15532 05b2 00000000 		.4byte	.LVL164
 15533 05b6 04000000 		.4byte	.LVL165
 15534 05ba 0100     		.2byte	0x1
 15535 05bc 50       		.byte	0x50
 15536 05bd 04000000 		.4byte	.LVL165
 15537 05c1 06000000 		.4byte	.LVL166
 15538 05c5 0400     		.2byte	0x4
 15539 05c7 F3       		.byte	0xf3
 15540 05c8 01       		.uleb128 0x1
 15541 05c9 50       		.byte	0x50
 15542 05ca 9F       		.byte	0x9f
 15543 05cb 06000000 		.4byte	.LVL166
 15544 05cf 23000000 		.4byte	.LVL170-1
 15545 05d3 0100     		.2byte	0x1
 15546 05d5 50       		.byte	0x50
 15547 05d6 00000000 		.4byte	0
 15548 05da 00000000 		.4byte	0
ARM GAS  C:\Users\FRANKL~1\AppData\Local\Temp\ccebBo1q.s 			page 312


 15549              	.LLST35:
 15550 05de 06000000 		.4byte	.LVL166
 15551 05e2 0A000000 		.4byte	.LVL167
 15552 05e6 0200     		.2byte	0x2
 15553 05e8 30       		.byte	0x30
 15554 05e9 9F       		.byte	0x9f
 15555 05ea 0A000000 		.4byte	.LVL167
 15556 05ee 1A000000 		.4byte	.LVL168
 15557 05f2 0100     		.2byte	0x1
 15558 05f4 53       		.byte	0x53
 15559 05f5 1C000000 		.4byte	.LVL169
 15560 05f9 23000000 		.4byte	.LVL170-1
 15561 05fd 0100     		.2byte	0x1
 15562 05ff 53       		.byte	0x53
 15563 0600 00000000 		.4byte	0
 15564 0604 00000000 		.4byte	0
 15565              	.LLST36:
 15566 0608 00000000 		.4byte	.LVL171
 15567 060c 04000000 		.4byte	.LVL172
 15568 0610 0100     		.2byte	0x1
 15569 0612 50       		.byte	0x50
 15570 0613 04000000 		.4byte	.LVL172
 15571 0617 38000000 		.4byte	.LFE79
 15572 061b 0400     		.2byte	0x4
 15573 061d F3       		.byte	0xf3
 15574 061e 01       		.uleb128 0x1
 15575 061f 50       		.byte	0x50
 15576 0620 9F       		.byte	0x9f
 15577 0621 00000000 		.4byte	0
 15578 0625 00000000 		.4byte	0
 15579              	.LLST37:
 15580 0629 02000000 		.4byte	.LVL177
 15581 062d 06000000 		.4byte	.LVL178
 15582 0631 0200     		.2byte	0x2
 15583 0633 31       		.byte	0x31
 15584 0634 9F       		.byte	0x9f
 15585 0635 06000000 		.4byte	.LVL178
 15586 0639 0E000000 		.4byte	.LVL180
 15587 063d 0100     		.2byte	0x1
 15588 063f 54       		.byte	0x54
 15589 0640 10000000 		.4byte	.LVL181
 15590 0644 16000000 		.4byte	.LFE80
 15591 0648 0100     		.2byte	0x1
 15592 064a 54       		.byte	0x54
 15593 064b 00000000 		.4byte	0
 15594 064f 00000000 		.4byte	0
 15595              	.LLST38:
 15596 0653 00000000 		.4byte	.LVL182
 15597 0657 0A000000 		.4byte	.LVL183
 15598 065b 0100     		.2byte	0x1
 15599 065d 50       		.byte	0x50
 15600 065e 0A000000 		.4byte	.LVL183
 15601 0662 0D000000 		.4byte	.LVL184-1
 15602 0666 0500     		.2byte	0x5
 15603 0668 03       		.byte	0x3
 15604 0669 00000000 		.4byte	TIA_Selected_Resistor
 15605 066d 0D000000 		.4byte	.LVL184-1
ARM GAS  C:\Users\FRANKL~1\AppData\Local\Temp\ccebBo1q.s 			page 313


 15606 0671 18000000 		.4byte	.LFE81
 15607 0675 0400     		.2byte	0x4
 15608 0677 F3       		.byte	0xf3
 15609 0678 01       		.uleb128 0x1
 15610 0679 50       		.byte	0x50
 15611 067a 9F       		.byte	0x9f
 15612 067b 00000000 		.4byte	0
 15613 067f 00000000 		.4byte	0
 15614              	.LLST39:
 15615 0683 18000000 		.4byte	.LVL192
 15616 0687 20000000 		.4byte	.LVL193
 15617 068b 0100     		.2byte	0x1
 15618 068d 52       		.byte	0x52
 15619 068e 00000000 		.4byte	0
 15620 0692 00000000 		.4byte	0
 15621              	.LLST40:
 15622 0696 02000000 		.4byte	.LVL188
 15623 069a 06000000 		.4byte	.LVL189
 15624 069e 0200     		.2byte	0x2
 15625 06a0 30       		.byte	0x30
 15626 06a1 9F       		.byte	0x9f
 15627 06a2 06000000 		.4byte	.LVL189
 15628 06a6 30000000 		.4byte	.LVL196
 15629 06aa 0100     		.2byte	0x1
 15630 06ac 55       		.byte	0x55
 15631 06ad 00000000 		.4byte	0
 15632 06b1 00000000 		.4byte	0
 15633              	.LLST41:
 15634 06b5 08000000 		.4byte	.LVL190
 15635 06b9 0C000000 		.4byte	.LVL191
 15636 06bd 0100     		.2byte	0x1
 15637 06bf 56       		.byte	0x56
 15638 06c0 0C000000 		.4byte	.LVL191
 15639 06c4 28000000 		.4byte	.LVL195
 15640 06c8 0100     		.2byte	0x1
 15641 06ca 53       		.byte	0x53
 15642 06cb 00000000 		.4byte	0
 15643 06cf 00000000 		.4byte	0
 15644              	.LLST42:
 15645 06d3 00000000 		.4byte	.LVL197
 15646 06d7 09000000 		.4byte	.LVL198-1
 15647 06db 0100     		.2byte	0x1
 15648 06dd 50       		.byte	0x50
 15649 06de 09000000 		.4byte	.LVL198-1
 15650 06e2 32000000 		.4byte	.LFE85
 15651 06e6 0100     		.2byte	0x1
 15652 06e8 55       		.byte	0x55
 15653 06e9 00000000 		.4byte	0
 15654 06ed 00000000 		.4byte	0
 15655              	.LLST43:
 15656 06f1 00000000 		.4byte	.LVL197
 15657 06f5 09000000 		.4byte	.LVL198-1
 15658 06f9 0100     		.2byte	0x1
 15659 06fb 51       		.byte	0x51
 15660 06fc 09000000 		.4byte	.LVL198-1
 15661 0700 12000000 		.4byte	.LVL199
 15662 0704 0100     		.2byte	0x1
ARM GAS  C:\Users\FRANKL~1\AppData\Local\Temp\ccebBo1q.s 			page 314


 15663 0706 54       		.byte	0x54
 15664 0707 12000000 		.4byte	.LVL199
 15665 070b 2A000000 		.4byte	.LVL200
 15666 070f 0400     		.2byte	0x4
 15667 0711 F3       		.byte	0xf3
 15668 0712 01       		.uleb128 0x1
 15669 0713 51       		.byte	0x51
 15670 0714 9F       		.byte	0x9f
 15671 0715 2A000000 		.4byte	.LVL200
 15672 0719 2C000000 		.4byte	.LVL201
 15673 071d 0100     		.2byte	0x1
 15674 071f 54       		.byte	0x54
 15675 0720 2C000000 		.4byte	.LVL201
 15676 0724 32000000 		.4byte	.LFE85
 15677 0728 0400     		.2byte	0x4
 15678 072a F3       		.byte	0xf3
 15679 072b 01       		.uleb128 0x1
 15680 072c 51       		.byte	0x51
 15681 072d 9F       		.byte	0x9f
 15682 072e 00000000 		.4byte	0
 15683 0732 00000000 		.4byte	0
 15684              	.LLST44:
 15685 0736 00000000 		.4byte	.LVL202
 15686 073a 32000000 		.4byte	.LVL207
 15687 073e 0100     		.2byte	0x1
 15688 0740 50       		.byte	0x50
 15689 0741 32000000 		.4byte	.LVL207
 15690 0745 EE000000 		.4byte	.LVL238
 15691 0749 0300     		.2byte	0x3
 15692 074b 77       		.byte	0x77
 15693 074c C000     		.sleb128 64
 15694 074e EE000000 		.4byte	.LVL238
 15695 0752 F4000000 		.4byte	.LFE86
 15696 0756 0200     		.2byte	0x2
 15697 0758 91       		.byte	0x91
 15698 0759 00       		.sleb128 0
 15699 075a 00000000 		.4byte	0
 15700 075e 00000000 		.4byte	0
 15701              	.LLST45:
 15702 0762 00000000 		.4byte	.LVL202
 15703 0766 32000000 		.4byte	.LVL207
 15704 076a 0100     		.2byte	0x1
 15705 076c 51       		.byte	0x51
 15706 076d 32000000 		.4byte	.LVL207
 15707 0771 EE000000 		.4byte	.LVL238
 15708 0775 0200     		.2byte	0x2
 15709 0777 77       		.byte	0x77
 15710 0778 3C       		.sleb128 60
 15711 0779 EE000000 		.4byte	.LVL238
 15712 077d F4000000 		.4byte	.LFE86
 15713 0781 0200     		.2byte	0x2
 15714 0783 91       		.byte	0x91
 15715 0784 7C       		.sleb128 -4
 15716 0785 00000000 		.4byte	0
 15717 0789 00000000 		.4byte	0
 15718              	.LLST46:
 15719 078d 00000000 		.4byte	.LVL202
ARM GAS  C:\Users\FRANKL~1\AppData\Local\Temp\ccebBo1q.s 			page 315


 15720 0791 32000000 		.4byte	.LVL207
 15721 0795 0100     		.2byte	0x1
 15722 0797 52       		.byte	0x52
 15723 0798 32000000 		.4byte	.LVL207
 15724 079c F4000000 		.4byte	.LFE86
 15725 07a0 0400     		.2byte	0x4
 15726 07a2 F3       		.byte	0xf3
 15727 07a3 01       		.uleb128 0x1
 15728 07a4 52       		.byte	0x52
 15729 07a5 9F       		.byte	0x9f
 15730 07a6 00000000 		.4byte	0
 15731 07aa 00000000 		.4byte	0
 15732              	.LLST47:
 15733 07ae 0C000000 		.4byte	.LVL203
 15734 07b2 32000000 		.4byte	.LVL207
 15735 07b6 0200     		.2byte	0x2
 15736 07b8 30       		.byte	0x30
 15737 07b9 9F       		.byte	0x9f
 15738 07ba 32000000 		.4byte	.LVL207
 15739 07be D8000000 		.4byte	.LVL236
 15740 07c2 0100     		.2byte	0x1
 15741 07c4 5B       		.byte	0x5b
 15742 07c5 D8000000 		.4byte	.LVL236
 15743 07c9 DA000000 		.4byte	.LVL237
 15744 07cd 0100     		.2byte	0x1
 15745 07cf 50       		.byte	0x50
 15746 07d0 DA000000 		.4byte	.LVL237
 15747 07d4 F4000000 		.4byte	.LFE86
 15748 07d8 0100     		.2byte	0x1
 15749 07da 5B       		.byte	0x5b
 15750 07db 00000000 		.4byte	0
 15751 07df 00000000 		.4byte	0
 15752              	.LLST48:
 15753 07e3 0C000000 		.4byte	.LVL203
 15754 07e7 32000000 		.4byte	.LVL207
 15755 07eb 0200     		.2byte	0x2
 15756 07ed 30       		.byte	0x30
 15757 07ee 9F       		.byte	0x9f
 15758 07ef 32000000 		.4byte	.LVL207
 15759 07f3 AC000000 		.4byte	.LVL227
 15760 07f7 0300     		.2byte	0x3
 15761 07f9 77       		.byte	0x77
 15762 07fa CC00     		.sleb128 76
 15763 07fc AC000000 		.4byte	.LVL227
 15764 0800 AE000000 		.4byte	.LVL228
 15765 0804 0100     		.2byte	0x1
 15766 0806 50       		.byte	0x50
 15767 0807 AE000000 		.4byte	.LVL228
 15768 080b EE000000 		.4byte	.LVL238
 15769 080f 0300     		.2byte	0x3
 15770 0811 77       		.byte	0x77
 15771 0812 CC00     		.sleb128 76
 15772 0814 EE000000 		.4byte	.LVL238
 15773 0818 F4000000 		.4byte	.LFE86
 15774 081c 0100     		.2byte	0x1
 15775 081e 53       		.byte	0x53
 15776 081f 00000000 		.4byte	0
ARM GAS  C:\Users\FRANKL~1\AppData\Local\Temp\ccebBo1q.s 			page 316


 15777 0823 00000000 		.4byte	0
 15778              	.LLST49:
 15779 0827 0C000000 		.4byte	.LVL203
 15780 082b 16000000 		.4byte	.LVL204
 15781 082f 0200     		.2byte	0x2
 15782 0831 43       		.byte	0x43
 15783 0832 9F       		.byte	0x9f
 15784 0833 16000000 		.4byte	.LVL204
 15785 0837 F4000000 		.4byte	.LFE86
 15786 083b 0100     		.2byte	0x1
 15787 083d 54       		.byte	0x54
 15788 083e 00000000 		.4byte	0
 15789 0842 00000000 		.4byte	0
 15790              	.LLST50:
 15791 0846 28000000 		.4byte	.LVL206
 15792 084a 32000000 		.4byte	.LVL207
 15793 084e 0200     		.2byte	0x2
 15794 0850 31       		.byte	0x31
 15795 0851 9F       		.byte	0x9f
 15796 0852 32000000 		.4byte	.LVL207
 15797 0856 F4000000 		.4byte	.LFE86
 15798 085a 0100     		.2byte	0x1
 15799 085c 56       		.byte	0x56
 15800 085d 00000000 		.4byte	0
 15801 0861 00000000 		.4byte	0
 15802              	.LLST51:
 15803 0865 64000000 		.4byte	.LVL216
 15804 0869 66000000 		.4byte	.LVL217
 15805 086d 0100     		.2byte	0x1
 15806 086f 50       		.byte	0x50
 15807 0870 66000000 		.4byte	.LVL217
 15808 0874 B4000000 		.4byte	.LVL230
 15809 0878 0100     		.2byte	0x1
 15810 087a 58       		.byte	0x58
 15811 087b 00000000 		.4byte	0
 15812 087f 00000000 		.4byte	0
 15813              	.LLST52:
 15814 0883 32000000 		.4byte	.LVL207
 15815 0887 52000000 		.4byte	.LVL213
 15816 088b 0100     		.2byte	0x1
 15817 088d 58       		.byte	0x58
 15818 088e 56000000 		.4byte	.LVL214
 15819 0892 64000000 		.4byte	.LVL216
 15820 0896 0100     		.2byte	0x1
 15821 0898 58       		.byte	0x58
 15822 0899 00000000 		.4byte	0
 15823 089d 00000000 		.4byte	0
 15824              	.LLST53:
 15825 08a1 00000000 		.4byte	.LVL239
 15826 08a5 12000000 		.4byte	.LVL240
 15827 08a9 0100     		.2byte	0x1
 15828 08ab 50       		.byte	0x50
 15829 08ac 12000000 		.4byte	.LVL240
 15830 08b0 15000000 		.4byte	.LVL241-1
 15831 08b4 0100     		.2byte	0x1
 15832 08b6 52       		.byte	0x52
 15833 08b7 15000000 		.4byte	.LVL241-1
ARM GAS  C:\Users\FRANKL~1\AppData\Local\Temp\ccebBo1q.s 			page 317


 15834 08bb 54000000 		.4byte	.LFE87
 15835 08bf 0400     		.2byte	0x4
 15836 08c1 F3       		.byte	0xf3
 15837 08c2 01       		.uleb128 0x1
 15838 08c3 50       		.byte	0x50
 15839 08c4 9F       		.byte	0x9f
 15840 08c5 00000000 		.4byte	0
 15841 08c9 00000000 		.4byte	0
 15842              	.LLST54:
 15843 08cd 00000000 		.4byte	.LVL245
 15844 08d1 16000000 		.4byte	.LVL247
 15845 08d5 0100     		.2byte	0x1
 15846 08d7 50       		.byte	0x50
 15847 08d8 16000000 		.4byte	.LVL247
 15848 08dc B2000000 		.4byte	.LVL275
 15849 08e0 0200     		.2byte	0x2
 15850 08e2 7D       		.byte	0x7d
 15851 08e3 00       		.sleb128 0
 15852 08e4 B2000000 		.4byte	.LVL275
 15853 08e8 B6000000 		.4byte	.LFE88
 15854 08ec 0200     		.2byte	0x2
 15855 08ee 91       		.byte	0x91
 15856 08ef 50       		.sleb128 -48
 15857 08f0 00000000 		.4byte	0
 15858 08f4 00000000 		.4byte	0
 15859              	.LLST55:
 15860 08f8 00000000 		.4byte	.LVL245
 15861 08fc 16000000 		.4byte	.LVL247
 15862 0900 0100     		.2byte	0x1
 15863 0902 51       		.byte	0x51
 15864 0903 16000000 		.4byte	.LVL247
 15865 0907 B6000000 		.4byte	.LFE88
 15866 090b 0200     		.2byte	0x2
 15867 090d 91       		.byte	0x91
 15868 090e 54       		.sleb128 -44
 15869 090f 00000000 		.4byte	0
 15870 0913 00000000 		.4byte	0
 15871              	.LLST56:
 15872 0917 00000000 		.4byte	.LVL245
 15873 091b 16000000 		.4byte	.LVL247
 15874 091f 0100     		.2byte	0x1
 15875 0921 52       		.byte	0x52
 15876 0922 16000000 		.4byte	.LVL247
 15877 0926 B6000000 		.4byte	.LFE88
 15878 092a 0100     		.2byte	0x1
 15879 092c 5B       		.byte	0x5b
 15880 092d 00000000 		.4byte	0
 15881 0931 00000000 		.4byte	0
 15882              	.LLST57:
 15883 0935 0C000000 		.4byte	.LVL246
 15884 0939 16000000 		.4byte	.LVL247
 15885 093d 0200     		.2byte	0x2
 15886 093f 30       		.byte	0x30
 15887 0940 9F       		.byte	0x9f
 15888 0941 16000000 		.4byte	.LVL247
 15889 0945 84000000 		.4byte	.LVL268
 15890 0949 0100     		.2byte	0x1
ARM GAS  C:\Users\FRANKL~1\AppData\Local\Temp\ccebBo1q.s 			page 318


 15891 094b 55       		.byte	0x55
 15892 094c A0000000 		.4byte	.LVL273
 15893 0950 A2000000 		.4byte	.LVL274
 15894 0954 0100     		.2byte	0x1
 15895 0956 50       		.byte	0x50
 15896 0957 A2000000 		.4byte	.LVL274
 15897 095b B6000000 		.4byte	.LFE88
 15898 095f 0100     		.2byte	0x1
 15899 0961 55       		.byte	0x55
 15900 0962 00000000 		.4byte	0
 15901 0966 00000000 		.4byte	0
 15902              	.LLST58:
 15903 096a 0C000000 		.4byte	.LVL246
 15904 096e 16000000 		.4byte	.LVL247
 15905 0972 0200     		.2byte	0x2
 15906 0974 30       		.byte	0x30
 15907 0975 9F       		.byte	0x9f
 15908 0976 16000000 		.4byte	.LVL247
 15909 097a 74000000 		.4byte	.LVL263
 15910 097e 0100     		.2byte	0x1
 15911 0980 59       		.byte	0x59
 15912 0981 74000000 		.4byte	.LVL263
 15913 0985 76000000 		.4byte	.LVL264
 15914 0989 0100     		.2byte	0x1
 15915 098b 50       		.byte	0x50
 15916 098c 76000000 		.4byte	.LVL264
 15917 0990 B6000000 		.4byte	.LFE88
 15918 0994 0100     		.2byte	0x1
 15919 0996 59       		.byte	0x59
 15920 0997 00000000 		.4byte	0
 15921 099b 00000000 		.4byte	0
 15922              	.LLST59:
 15923 099f 0C000000 		.4byte	.LVL246
 15924 09a3 16000000 		.4byte	.LVL247
 15925 09a7 0200     		.2byte	0x2
 15926 09a9 31       		.byte	0x31
 15927 09aa 9F       		.byte	0x9f
 15928 09ab 16000000 		.4byte	.LVL247
 15929 09af B6000000 		.4byte	.LFE88
 15930 09b3 0100     		.2byte	0x1
 15931 09b5 54       		.byte	0x54
 15932 09b6 00000000 		.4byte	0
 15933 09ba 00000000 		.4byte	0
 15934              	.LLST60:
 15935 09be 2E000000 		.4byte	.LVL252
 15936 09c2 30000000 		.4byte	.LVL253
 15937 09c6 0100     		.2byte	0x1
 15938 09c8 50       		.byte	0x50
 15939 09c9 30000000 		.4byte	.LVL253
 15940 09cd 7C000000 		.4byte	.LVL266
 15941 09d1 0100     		.2byte	0x1
 15942 09d3 57       		.byte	0x57
 15943 09d4 00000000 		.4byte	0
 15944 09d8 00000000 		.4byte	0
 15945              	.LLST61:
 15946 09dc 00000000 		.4byte	.LVL276
 15947 09e0 16000000 		.4byte	.LVL278
ARM GAS  C:\Users\FRANKL~1\AppData\Local\Temp\ccebBo1q.s 			page 319


 15948 09e4 0100     		.2byte	0x1
 15949 09e6 50       		.byte	0x50
 15950 09e7 16000000 		.4byte	.LVL278
 15951 09eb B2000000 		.4byte	.LVL306
 15952 09ef 0200     		.2byte	0x2
 15953 09f1 7D       		.byte	0x7d
 15954 09f2 00       		.sleb128 0
 15955 09f3 B2000000 		.4byte	.LVL306
 15956 09f7 B6000000 		.4byte	.LFE89
 15957 09fb 0200     		.2byte	0x2
 15958 09fd 91       		.byte	0x91
 15959 09fe 50       		.sleb128 -48
 15960 09ff 00000000 		.4byte	0
 15961 0a03 00000000 		.4byte	0
 15962              	.LLST62:
 15963 0a07 00000000 		.4byte	.LVL276
 15964 0a0b 16000000 		.4byte	.LVL278
 15965 0a0f 0100     		.2byte	0x1
 15966 0a11 51       		.byte	0x51
 15967 0a12 16000000 		.4byte	.LVL278
 15968 0a16 B6000000 		.4byte	.LFE89
 15969 0a1a 0200     		.2byte	0x2
 15970 0a1c 91       		.byte	0x91
 15971 0a1d 54       		.sleb128 -44
 15972 0a1e 00000000 		.4byte	0
 15973 0a22 00000000 		.4byte	0
 15974              	.LLST63:
 15975 0a26 00000000 		.4byte	.LVL276
 15976 0a2a 16000000 		.4byte	.LVL278
 15977 0a2e 0100     		.2byte	0x1
 15978 0a30 52       		.byte	0x52
 15979 0a31 16000000 		.4byte	.LVL278
 15980 0a35 B6000000 		.4byte	.LFE89
 15981 0a39 0100     		.2byte	0x1
 15982 0a3b 5B       		.byte	0x5b
 15983 0a3c 00000000 		.4byte	0
 15984 0a40 00000000 		.4byte	0
 15985              	.LLST64:
 15986 0a44 0C000000 		.4byte	.LVL277
 15987 0a48 16000000 		.4byte	.LVL278
 15988 0a4c 0200     		.2byte	0x2
 15989 0a4e 30       		.byte	0x30
 15990 0a4f 9F       		.byte	0x9f
 15991 0a50 16000000 		.4byte	.LVL278
 15992 0a54 84000000 		.4byte	.LVL299
 15993 0a58 0100     		.2byte	0x1
 15994 0a5a 55       		.byte	0x55
 15995 0a5b A0000000 		.4byte	.LVL304
 15996 0a5f A2000000 		.4byte	.LVL305
 15997 0a63 0100     		.2byte	0x1
 15998 0a65 50       		.byte	0x50
 15999 0a66 A2000000 		.4byte	.LVL305
 16000 0a6a B6000000 		.4byte	.LFE89
 16001 0a6e 0100     		.2byte	0x1
 16002 0a70 55       		.byte	0x55
 16003 0a71 00000000 		.4byte	0
 16004 0a75 00000000 		.4byte	0
ARM GAS  C:\Users\FRANKL~1\AppData\Local\Temp\ccebBo1q.s 			page 320


 16005              	.LLST65:
 16006 0a79 0C000000 		.4byte	.LVL277
 16007 0a7d 16000000 		.4byte	.LVL278
 16008 0a81 0200     		.2byte	0x2
 16009 0a83 30       		.byte	0x30
 16010 0a84 9F       		.byte	0x9f
 16011 0a85 16000000 		.4byte	.LVL278
 16012 0a89 74000000 		.4byte	.LVL294
 16013 0a8d 0100     		.2byte	0x1
 16014 0a8f 59       		.byte	0x59
 16015 0a90 74000000 		.4byte	.LVL294
 16016 0a94 76000000 		.4byte	.LVL295
 16017 0a98 0100     		.2byte	0x1
 16018 0a9a 50       		.byte	0x50
 16019 0a9b 76000000 		.4byte	.LVL295
 16020 0a9f B6000000 		.4byte	.LFE89
 16021 0aa3 0100     		.2byte	0x1
 16022 0aa5 59       		.byte	0x59
 16023 0aa6 00000000 		.4byte	0
 16024 0aaa 00000000 		.4byte	0
 16025              	.LLST66:
 16026 0aae 0C000000 		.4byte	.LVL277
 16027 0ab2 16000000 		.4byte	.LVL278
 16028 0ab6 0200     		.2byte	0x2
 16029 0ab8 31       		.byte	0x31
 16030 0ab9 9F       		.byte	0x9f
 16031 0aba 16000000 		.4byte	.LVL278
 16032 0abe B6000000 		.4byte	.LFE89
 16033 0ac2 0100     		.2byte	0x1
 16034 0ac4 54       		.byte	0x54
 16035 0ac5 00000000 		.4byte	0
 16036 0ac9 00000000 		.4byte	0
 16037              	.LLST67:
 16038 0acd 2E000000 		.4byte	.LVL283
 16039 0ad1 30000000 		.4byte	.LVL284
 16040 0ad5 0100     		.2byte	0x1
 16041 0ad7 50       		.byte	0x50
 16042 0ad8 30000000 		.4byte	.LVL284
 16043 0adc 7C000000 		.4byte	.LVL297
 16044 0ae0 0100     		.2byte	0x1
 16045 0ae2 57       		.byte	0x57
 16046 0ae3 00000000 		.4byte	0
 16047 0ae7 00000000 		.4byte	0
 16048              	.LLST68:
 16049 0aeb 00000000 		.4byte	.LVL307
 16050 0aef 16000000 		.4byte	.LVL309
 16051 0af3 0100     		.2byte	0x1
 16052 0af5 50       		.byte	0x50
 16053 0af6 16000000 		.4byte	.LVL309
 16054 0afa 70010000 		.4byte	.LVL358
 16055 0afe 0200     		.2byte	0x2
 16056 0b00 91       		.byte	0x91
 16057 0b01 48       		.sleb128 -56
 16058 0b02 70010000 		.4byte	.LVL358
 16059 0b06 90010000 		.4byte	.LFE90
 16060 0b0a 0200     		.2byte	0x2
 16061 0b0c 7D       		.byte	0x7d
ARM GAS  C:\Users\FRANKL~1\AppData\Local\Temp\ccebBo1q.s 			page 321


 16062 0b0d 48       		.sleb128 -56
 16063 0b0e 00000000 		.4byte	0
 16064 0b12 00000000 		.4byte	0
 16065              	.LLST69:
 16066 0b16 00000000 		.4byte	.LVL307
 16067 0b1a 19000000 		.4byte	.LVL310-1
 16068 0b1e 0100     		.2byte	0x1
 16069 0b20 51       		.byte	0x51
 16070 0b21 19000000 		.4byte	.LVL310-1
 16071 0b25 70010000 		.4byte	.LVL358
 16072 0b29 0200     		.2byte	0x2
 16073 0b2b 91       		.byte	0x91
 16074 0b2c 4C       		.sleb128 -52
 16075 0b2d 70010000 		.4byte	.LVL358
 16076 0b31 90010000 		.4byte	.LFE90
 16077 0b35 0200     		.2byte	0x2
 16078 0b37 7D       		.byte	0x7d
 16079 0b38 4C       		.sleb128 -52
 16080 0b39 00000000 		.4byte	0
 16081 0b3d 00000000 		.4byte	0
 16082              	.LLST70:
 16083 0b41 00000000 		.4byte	.LVL307
 16084 0b45 19000000 		.4byte	.LVL310-1
 16085 0b49 0100     		.2byte	0x1
 16086 0b4b 52       		.byte	0x52
 16087 0b4c 19000000 		.4byte	.LVL310-1
 16088 0b50 70010000 		.4byte	.LVL358
 16089 0b54 0100     		.2byte	0x1
 16090 0b56 5A       		.byte	0x5a
 16091 0b57 70010000 		.4byte	.LVL358
 16092 0b5b 90010000 		.4byte	.LFE90
 16093 0b5f 0400     		.2byte	0x4
 16094 0b61 F3       		.byte	0xf3
 16095 0b62 01       		.uleb128 0x1
 16096 0b63 52       		.byte	0x52
 16097 0b64 9F       		.byte	0x9f
 16098 0b65 00000000 		.4byte	0
 16099 0b69 00000000 		.4byte	0
 16100              	.LLST71:
 16101 0b6d 00000000 		.4byte	.LVL307
 16102 0b71 12000000 		.4byte	.LVL308
 16103 0b75 0100     		.2byte	0x1
 16104 0b77 53       		.byte	0x53
 16105 0b78 12000000 		.4byte	.LVL308
 16106 0b7c 90010000 		.4byte	.LFE90
 16107 0b80 0400     		.2byte	0x4
 16108 0b82 F3       		.byte	0xf3
 16109 0b83 01       		.uleb128 0x1
 16110 0b84 53       		.byte	0x53
 16111 0b85 9F       		.byte	0x9f
 16112 0b86 00000000 		.4byte	0
 16113 0b8a 00000000 		.4byte	0
 16114              	.LLST72:
 16115 0b8e 22000000 		.4byte	.LVL311
 16116 0b92 5C000000 		.4byte	.LVL320
 16117 0b96 0600     		.2byte	0x6
 16118 0b98 9E       		.byte	0x9e
ARM GAS  C:\Users\FRANKL~1\AppData\Local\Temp\ccebBo1q.s 			page 322


 16119 0b99 04       		.uleb128 0x4
 16120 0b9a 00000000 		.4byte	0
 16121 0b9e 78000000 		.4byte	.LVL324
 16122 0ba2 7A000000 		.4byte	.LVL325
 16123 0ba6 0100     		.2byte	0x1
 16124 0ba8 50       		.byte	0x50
 16125 0ba9 7A000000 		.4byte	.LVL325
 16126 0bad 22010000 		.4byte	.LVL347
 16127 0bb1 0100     		.2byte	0x1
 16128 0bb3 54       		.byte	0x54
 16129 0bb4 22010000 		.4byte	.LVL347
 16130 0bb8 2A010000 		.4byte	.LVL348
 16131 0bbc 0600     		.2byte	0x6
 16132 0bbe 9E       		.byte	0x9e
 16133 0bbf 04       		.uleb128 0x4
 16134 0bc0 00000000 		.4byte	0
 16135 0bc4 30010000 		.4byte	.LVL349
 16136 0bc8 60010000 		.4byte	.LVL357
 16137 0bcc 0600     		.2byte	0x6
 16138 0bce 9E       		.byte	0x9e
 16139 0bcf 04       		.uleb128 0x4
 16140 0bd0 00000000 		.4byte	0
 16141 0bd4 00000000 		.4byte	0
 16142 0bd8 00000000 		.4byte	0
 16143              	.LLST73:
 16144 0bdc 22000000 		.4byte	.LVL311
 16145 0be0 5C000000 		.4byte	.LVL320
 16146 0be4 0600     		.2byte	0x6
 16147 0be6 9E       		.byte	0x9e
 16148 0be7 04       		.uleb128 0x4
 16149 0be8 00000000 		.4byte	0
 16150 0bec 5C000000 		.4byte	.LVL320
 16151 0bf0 F0000000 		.4byte	.LVL341
 16152 0bf4 0100     		.2byte	0x1
 16153 0bf6 58       		.byte	0x58
 16154 0bf7 F0000000 		.4byte	.LVL341
 16155 0bfb F2000000 		.4byte	.LVL342
 16156 0bff 0100     		.2byte	0x1
 16157 0c01 50       		.byte	0x50
 16158 0c02 F2000000 		.4byte	.LVL342
 16159 0c06 22010000 		.4byte	.LVL347
 16160 0c0a 0100     		.2byte	0x1
 16161 0c0c 58       		.byte	0x58
 16162 0c0d 22010000 		.4byte	.LVL347
 16163 0c11 2A010000 		.4byte	.LVL348
 16164 0c15 0600     		.2byte	0x6
 16165 0c17 9E       		.byte	0x9e
 16166 0c18 04       		.uleb128 0x4
 16167 0c19 00000000 		.4byte	0
 16168 0c1d 2A010000 		.4byte	.LVL348
 16169 0c21 30010000 		.4byte	.LVL349
 16170 0c25 0100     		.2byte	0x1
 16171 0c27 58       		.byte	0x58
 16172 0c28 30010000 		.4byte	.LVL349
 16173 0c2c 4E010000 		.4byte	.LVL353
 16174 0c30 0600     		.2byte	0x6
 16175 0c32 9E       		.byte	0x9e
ARM GAS  C:\Users\FRANKL~1\AppData\Local\Temp\ccebBo1q.s 			page 323


 16176 0c33 04       		.uleb128 0x4
 16177 0c34 00000000 		.4byte	0
 16178 0c38 4E010000 		.4byte	.LVL353
 16179 0c3c 50010000 		.4byte	.LVL354
 16180 0c40 0100     		.2byte	0x1
 16181 0c42 50       		.byte	0x50
 16182 0c43 50010000 		.4byte	.LVL354
 16183 0c47 70010000 		.4byte	.LVL358
 16184 0c4b 0100     		.2byte	0x1
 16185 0c4d 58       		.byte	0x58
 16186 0c4e 00000000 		.4byte	0
 16187 0c52 00000000 		.4byte	0
 16188              	.LLST74:
 16189 0c56 22000000 		.4byte	.LVL311
 16190 0c5a 5C000000 		.4byte	.LVL320
 16191 0c5e 0600     		.2byte	0x6
 16192 0c60 9E       		.byte	0x9e
 16193 0c61 04       		.uleb128 0x4
 16194 0c62 00000000 		.4byte	0
 16195 0c66 5C000000 		.4byte	.LVL320
 16196 0c6a DE000000 		.4byte	.LVL337
 16197 0c6e 0100     		.2byte	0x1
 16198 0c70 55       		.byte	0x55
 16199 0c71 DE000000 		.4byte	.LVL337
 16200 0c75 E2000000 		.4byte	.LVL338
 16201 0c79 0100     		.2byte	0x1
 16202 0c7b 50       		.byte	0x50
 16203 0c7c E2000000 		.4byte	.LVL338
 16204 0c80 22010000 		.4byte	.LVL347
 16205 0c84 0100     		.2byte	0x1
 16206 0c86 55       		.byte	0x55
 16207 0c87 22010000 		.4byte	.LVL347
 16208 0c8b 2A010000 		.4byte	.LVL348
 16209 0c8f 0600     		.2byte	0x6
 16210 0c91 9E       		.byte	0x9e
 16211 0c92 04       		.uleb128 0x4
 16212 0c93 00000000 		.4byte	0
 16213 0c97 2A010000 		.4byte	.LVL348
 16214 0c9b 30010000 		.4byte	.LVL349
 16215 0c9f 0100     		.2byte	0x1
 16216 0ca1 55       		.byte	0x55
 16217 0ca2 30010000 		.4byte	.LVL349
 16218 0ca6 60010000 		.4byte	.LVL357
 16219 0caa 0600     		.2byte	0x6
 16220 0cac 9E       		.byte	0x9e
 16221 0cad 04       		.uleb128 0x4
 16222 0cae 00000000 		.4byte	0
 16223 0cb2 60010000 		.4byte	.LVL357
 16224 0cb6 70010000 		.4byte	.LVL358
 16225 0cba 0100     		.2byte	0x1
 16226 0cbc 55       		.byte	0x55
 16227 0cbd 70010000 		.4byte	.LVL358
 16228 0cc1 90010000 		.4byte	.LFE90
 16229 0cc5 0200     		.2byte	0x2
 16230 0cc7 73       		.byte	0x73
 16231 0cc8 00       		.sleb128 0
 16232 0cc9 00000000 		.4byte	0
ARM GAS  C:\Users\FRANKL~1\AppData\Local\Temp\ccebBo1q.s 			page 324


 16233 0ccd 00000000 		.4byte	0
 16234              	.LLST75:
 16235 0cd1 2C000000 		.4byte	.LVL312
 16236 0cd5 37000000 		.4byte	.LVL314-1
 16237 0cd9 0200     		.2byte	0x2
 16238 0cdb 72       		.byte	0x72
 16239 0cdc 08       		.sleb128 8
 16240 0cdd 00000000 		.4byte	0
 16241 0ce1 00000000 		.4byte	0
 16242              	.LLST76:
 16243 0ce5 32000000 		.4byte	.LVL313
 16244 0ce9 70010000 		.4byte	.LVL358
 16245 0ced 0100     		.2byte	0x1
 16246 0cef 59       		.byte	0x59
 16247 0cf0 00000000 		.4byte	0
 16248 0cf4 00000000 		.4byte	0
 16249              	.LLST77:
 16250 0cf8 4C000000 		.4byte	.LVL317
 16251 0cfc 52000000 		.4byte	.LVL318
 16252 0d00 0100     		.2byte	0x1
 16253 0d02 50       		.byte	0x50
 16254 0d03 52000000 		.4byte	.LVL318
 16255 0d07 70010000 		.4byte	.LVL358
 16256 0d0b 0200     		.2byte	0x2
 16257 0d0d 91       		.byte	0x91
 16258 0d0e 44       		.sleb128 -60
 16259 0d0f 70010000 		.4byte	.LVL358
 16260 0d13 90010000 		.4byte	.LFE90
 16261 0d17 0200     		.2byte	0x2
 16262 0d19 7D       		.byte	0x7d
 16263 0d1a 44       		.sleb128 -60
 16264 0d1b 00000000 		.4byte	0
 16265 0d1f 00000000 		.4byte	0
 16266              	.LLST78:
 16267 0d23 5C000000 		.4byte	.LVL320
 16268 0d27 22010000 		.4byte	.LVL347
 16269 0d2b 0100     		.2byte	0x1
 16270 0d2d 5B       		.byte	0x5b
 16271 0d2e 2A010000 		.4byte	.LVL348
 16272 0d32 30010000 		.4byte	.LVL349
 16273 0d36 0100     		.2byte	0x1
 16274 0d38 5B       		.byte	0x5b
 16275 0d39 00000000 		.4byte	0
 16276 0d3d 00000000 		.4byte	0
 16277              	.LLST79:
 16278 0d41 08000000 		.4byte	.LVL363
 16279 0d45 1C000000 		.4byte	.LVL366
 16280 0d49 0100     		.2byte	0x1
 16281 0d4b 54       		.byte	0x54
 16282 0d4c 36000000 		.4byte	.LVL372
 16283 0d50 4A000000 		.4byte	.LVL376
 16284 0d54 0100     		.2byte	0x1
 16285 0d56 54       		.byte	0x54
 16286 0d57 00000000 		.4byte	0
 16287 0d5b 00000000 		.4byte	0
 16288              	.LLST80:
 16289 0d5f 0E000000 		.4byte	.LVL364
ARM GAS  C:\Users\FRANKL~1\AppData\Local\Temp\ccebBo1q.s 			page 325


 16290 0d63 3A000000 		.4byte	.LVL373
 16291 0d67 0100     		.2byte	0x1
 16292 0d69 55       		.byte	0x55
 16293 0d6a 3C000000 		.4byte	.LVL374
 16294 0d6e 60000000 		.4byte	.LVL382
 16295 0d72 0100     		.2byte	0x1
 16296 0d74 55       		.byte	0x55
 16297 0d75 00000000 		.4byte	0
 16298 0d79 00000000 		.4byte	0
 16299              	.LLST81:
 16300 0d7d 0E000000 		.4byte	.LVL364
 16301 0d81 1A000000 		.4byte	.LVL365
 16302 0d85 0200     		.2byte	0x2
 16303 0d87 31       		.byte	0x31
 16304 0d88 9F       		.byte	0x9f
 16305 0d89 1A000000 		.4byte	.LVL365
 16306 0d8d 1C000000 		.4byte	.LVL366
 16307 0d91 0100     		.2byte	0x1
 16308 0d93 56       		.byte	0x56
 16309 0d94 3C000000 		.4byte	.LVL374
 16310 0d98 48000000 		.4byte	.LVL375
 16311 0d9c 0200     		.2byte	0x2
 16312 0d9e 31       		.byte	0x31
 16313 0d9f 9F       		.byte	0x9f
 16314 0da0 48000000 		.4byte	.LVL375
 16315 0da4 4A000000 		.4byte	.LVL376
 16316 0da8 0100     		.2byte	0x1
 16317 0daa 56       		.byte	0x56
 16318 0dab 00000000 		.4byte	0
 16319 0daf 00000000 		.4byte	0
 16320              	.LLST82:
 16321 0db3 1A000000 		.4byte	.LVL365
 16322 0db7 2A000000 		.4byte	.LVL369
 16323 0dbb 0100     		.2byte	0x1
 16324 0dbd 54       		.byte	0x54
 16325 0dbe 2C000000 		.4byte	.LVL370
 16326 0dc2 34000000 		.4byte	.LVL371
 16327 0dc6 0100     		.2byte	0x1
 16328 0dc8 54       		.byte	0x54
 16329 0dc9 00000000 		.4byte	0
 16330 0dcd 00000000 		.4byte	0
 16331              	.LLST83:
 16332 0dd1 48000000 		.4byte	.LVL375
 16333 0dd5 58000000 		.4byte	.LVL379
 16334 0dd9 0100     		.2byte	0x1
 16335 0ddb 54       		.byte	0x54
 16336 0ddc 5A000000 		.4byte	.LVL380
 16337 0de0 5E000000 		.4byte	.LVL381
 16338 0de4 0100     		.2byte	0x1
 16339 0de6 54       		.byte	0x54
 16340 0de7 00000000 		.4byte	0
 16341 0deb 00000000 		.4byte	0
 16342              	.LLST84:
 16343 0def 00000000 		.4byte	.LVL398
 16344 0df3 26000000 		.4byte	.LVL401
 16345 0df7 0100     		.2byte	0x1
 16346 0df9 50       		.byte	0x50
ARM GAS  C:\Users\FRANKL~1\AppData\Local\Temp\ccebBo1q.s 			page 326


 16347 0dfa 26000000 		.4byte	.LVL401
 16348 0dfe 78000000 		.4byte	.LFE96
 16349 0e02 0400     		.2byte	0x4
 16350 0e04 F3       		.byte	0xf3
 16351 0e05 01       		.uleb128 0x1
 16352 0e06 50       		.byte	0x50
 16353 0e07 9F       		.byte	0x9f
 16354 0e08 00000000 		.4byte	0
 16355 0e0c 00000000 		.4byte	0
 16356              	.LLST85:
 16357 0e10 16000000 		.4byte	.LVL399
 16358 0e14 6C000000 		.4byte	.LVL417
 16359 0e18 0100     		.2byte	0x1
 16360 0e1a 55       		.byte	0x55
 16361 0e1b 00000000 		.4byte	0
 16362 0e1f 00000000 		.4byte	0
 16363              	.LLST86:
 16364 0e23 16000000 		.4byte	.LVL399
 16365 0e27 22000000 		.4byte	.LVL400
 16366 0e2b 0200     		.2byte	0x2
 16367 0e2d 31       		.byte	0x31
 16368 0e2e 9F       		.byte	0x9f
 16369 0e2f 22000000 		.4byte	.LVL400
 16370 0e33 6C000000 		.4byte	.LVL417
 16371 0e37 0100     		.2byte	0x1
 16372 0e39 56       		.byte	0x56
 16373 0e3a 00000000 		.4byte	0
 16374 0e3e 00000000 		.4byte	0
 16375              	.LLST87:
 16376 0e42 22000000 		.4byte	.LVL400
 16377 0e46 26000000 		.4byte	.LVL401
 16378 0e4a 0100     		.2byte	0x1
 16379 0e4c 55       		.byte	0x55
 16380 0e4d 26000000 		.4byte	.LVL401
 16381 0e51 5C000000 		.4byte	.LVL414
 16382 0e55 0100     		.2byte	0x1
 16383 0e57 57       		.byte	0x57
 16384 0e58 5E000000 		.4byte	.LVL415
 16385 0e5c 6C000000 		.4byte	.LVL417
 16386 0e60 0100     		.2byte	0x1
 16387 0e62 57       		.byte	0x57
 16388 0e63 00000000 		.4byte	0
 16389 0e67 00000000 		.4byte	0
 16390              	.LLST88:
 16391 0e6b 2E000000 		.4byte	.LVL403
 16392 0e6f 3C000000 		.4byte	.LVL406
 16393 0e73 0100     		.2byte	0x1
 16394 0e75 54       		.byte	0x54
 16395 0e76 3E000000 		.4byte	.LVL407
 16396 0e7a 40000000 		.4byte	.LVL408
 16397 0e7e 0100     		.2byte	0x1
 16398 0e80 54       		.byte	0x54
 16399 0e81 42000000 		.4byte	.LVL409
 16400 0e85 54000000 		.4byte	.LVL412
 16401 0e89 0100     		.2byte	0x1
 16402 0e8b 54       		.byte	0x54
 16403 0e8c 00000000 		.4byte	0
ARM GAS  C:\Users\FRANKL~1\AppData\Local\Temp\ccebBo1q.s 			page 327


 16404 0e90 00000000 		.4byte	0
 16405              	.LLST89:
 16406 0e94 00000000 		.4byte	.LVL418
 16407 0e98 26000000 		.4byte	.LVL422
 16408 0e9c 0100     		.2byte	0x1
 16409 0e9e 50       		.byte	0x50
 16410 0e9f 26000000 		.4byte	.LVL422
 16411 0ea3 78000000 		.4byte	.LFE97
 16412 0ea7 0400     		.2byte	0x4
 16413 0ea9 F3       		.byte	0xf3
 16414 0eaa 01       		.uleb128 0x1
 16415 0eab 50       		.byte	0x50
 16416 0eac 9F       		.byte	0x9f
 16417 0ead 00000000 		.4byte	0
 16418 0eb1 00000000 		.4byte	0
 16419              	.LLST90:
 16420 0eb5 10000000 		.4byte	.LVL419
 16421 0eb9 22000000 		.4byte	.LVL421
 16422 0ebd 0200     		.2byte	0x2
 16423 0ebf 31       		.byte	0x31
 16424 0ec0 9F       		.byte	0x9f
 16425 0ec1 22000000 		.4byte	.LVL421
 16426 0ec5 6C000000 		.4byte	.LVL438
 16427 0ec9 0100     		.2byte	0x1
 16428 0ecb 56       		.byte	0x56
 16429 0ecc 00000000 		.4byte	0
 16430 0ed0 00000000 		.4byte	0
 16431              	.LLST91:
 16432 0ed4 16000000 		.4byte	.LVL420
 16433 0ed8 6C000000 		.4byte	.LVL438
 16434 0edc 0100     		.2byte	0x1
 16435 0ede 55       		.byte	0x55
 16436 0edf 00000000 		.4byte	0
 16437 0ee3 00000000 		.4byte	0
 16438              	.LLST92:
 16439 0ee7 22000000 		.4byte	.LVL421
 16440 0eeb 26000000 		.4byte	.LVL422
 16441 0eef 0100     		.2byte	0x1
 16442 0ef1 55       		.byte	0x55
 16443 0ef2 26000000 		.4byte	.LVL422
 16444 0ef6 5C000000 		.4byte	.LVL435
 16445 0efa 0100     		.2byte	0x1
 16446 0efc 57       		.byte	0x57
 16447 0efd 5E000000 		.4byte	.LVL436
 16448 0f01 6C000000 		.4byte	.LVL438
 16449 0f05 0100     		.2byte	0x1
 16450 0f07 57       		.byte	0x57
 16451 0f08 00000000 		.4byte	0
 16452 0f0c 00000000 		.4byte	0
 16453              	.LLST93:
 16454 0f10 2E000000 		.4byte	.LVL424
 16455 0f14 3C000000 		.4byte	.LVL427
 16456 0f18 0100     		.2byte	0x1
 16457 0f1a 54       		.byte	0x54
 16458 0f1b 3E000000 		.4byte	.LVL428
 16459 0f1f 40000000 		.4byte	.LVL429
 16460 0f23 0100     		.2byte	0x1
ARM GAS  C:\Users\FRANKL~1\AppData\Local\Temp\ccebBo1q.s 			page 328


 16461 0f25 54       		.byte	0x54
 16462 0f26 42000000 		.4byte	.LVL430
 16463 0f2a 54000000 		.4byte	.LVL433
 16464 0f2e 0100     		.2byte	0x1
 16465 0f30 54       		.byte	0x54
 16466 0f31 00000000 		.4byte	0
 16467 0f35 00000000 		.4byte	0
 16468              	.LLST94:
 16469 0f39 00000000 		.4byte	.LVL439
 16470 0f3d 0C000000 		.4byte	.LVL440
 16471 0f41 0100     		.2byte	0x1
 16472 0f43 50       		.byte	0x50
 16473 0f44 0C000000 		.4byte	.LVL440
 16474 0f48 B4000000 		.4byte	.LVL464
 16475 0f4c 0100     		.2byte	0x1
 16476 0f4e 57       		.byte	0x57
 16477 0f4f 00000000 		.4byte	0
 16478 0f53 00000000 		.4byte	0
 16479              	.LLST95:
 16480 0f57 0C000000 		.4byte	.LVL440
 16481 0f5b 20000000 		.4byte	.LVL441
 16482 0f5f 0200     		.2byte	0x2
 16483 0f61 31       		.byte	0x31
 16484 0f62 9F       		.byte	0x9f
 16485 0f63 20000000 		.4byte	.LVL441
 16486 0f67 B4000000 		.4byte	.LVL464
 16487 0f6b 0100     		.2byte	0x1
 16488 0f6d 58       		.byte	0x58
 16489 0f6e 00000000 		.4byte	0
 16490 0f72 00000000 		.4byte	0
 16491              	.LLST96:
 16492 0f76 7E000000 		.4byte	.LVL455
 16493 0f7a B0000000 		.4byte	.LVL463
 16494 0f7e 0100     		.2byte	0x1
 16495 0f80 55       		.byte	0x55
 16496 0f81 00000000 		.4byte	0
 16497 0f85 00000000 		.4byte	0
 16498              	.LLST97:
 16499 0f89 86000000 		.4byte	.LVL456
 16500 0f8d B0000000 		.4byte	.LVL463
 16501 0f91 0100     		.2byte	0x1
 16502 0f93 54       		.byte	0x54
 16503 0f94 00000000 		.4byte	0
 16504 0f98 00000000 		.4byte	0
 16505              	.LLST98:
 16506 0f9c 26000000 		.4byte	.LVL442
 16507 0fa0 6E000000 		.4byte	.LVL453
 16508 0fa4 0100     		.2byte	0x1
 16509 0fa6 56       		.byte	0x56
 16510 0fa7 70000000 		.4byte	.LVL454
 16511 0fab B4000000 		.4byte	.LVL464
 16512 0faf 0100     		.2byte	0x1
 16513 0fb1 56       		.byte	0x56
 16514 0fb2 00000000 		.4byte	0
 16515 0fb6 00000000 		.4byte	0
 16516              	.LLST99:
 16517 0fba 3A000000 		.4byte	.LVL444
ARM GAS  C:\Users\FRANKL~1\AppData\Local\Temp\ccebBo1q.s 			page 329


 16518 0fbe 70000000 		.4byte	.LVL454
 16519 0fc2 0100     		.2byte	0x1
 16520 0fc4 55       		.byte	0x55
 16521 0fc5 00000000 		.4byte	0
 16522 0fc9 00000000 		.4byte	0
 16523              	.LLST100:
 16524 0fcd 42000000 		.4byte	.LVL445
 16525 0fd1 70000000 		.4byte	.LVL454
 16526 0fd5 0100     		.2byte	0x1
 16527 0fd7 54       		.byte	0x54
 16528 0fd8 00000000 		.4byte	0
 16529 0fdc 00000000 		.4byte	0
 16530              	.LLST101:
 16531 0fe0 00000000 		.4byte	.LVL465
 16532 0fe4 0A000000 		.4byte	.LVL466
 16533 0fe8 0100     		.2byte	0x1
 16534 0fea 50       		.byte	0x50
 16535 0feb 0A000000 		.4byte	.LVL466
 16536 0fef BA000000 		.4byte	.LVL491
 16537 0ff3 0100     		.2byte	0x1
 16538 0ff5 54       		.byte	0x54
 16539 0ff6 00000000 		.4byte	0
 16540 0ffa 00000000 		.4byte	0
 16541              	.LLST102:
 16542 0ffe 20000000 		.4byte	.LVL468
 16543 1002 26000000 		.4byte	.LVL469
 16544 1006 0100     		.2byte	0x1
 16545 1008 53       		.byte	0x53
 16546 1009 26000000 		.4byte	.LVL469
 16547 100d 2A000000 		.4byte	.LVL470
 16548 1011 0100     		.2byte	0x1
 16549 1013 50       		.byte	0x50
 16550 1014 3A000000 		.4byte	.LVL473
 16551 1018 40000000 		.4byte	.LVL474
 16552 101c 0100     		.2byte	0x1
 16553 101e 53       		.byte	0x53
 16554 101f 40000000 		.4byte	.LVL474
 16555 1023 44000000 		.4byte	.LVL475
 16556 1027 0100     		.2byte	0x1
 16557 1029 50       		.byte	0x50
 16558 102a 52000000 		.4byte	.LVL478
 16559 102e 57000000 		.4byte	.LVL479-1
 16560 1032 0100     		.2byte	0x1
 16561 1034 53       		.byte	0x53
 16562 1035 00000000 		.4byte	0
 16563 1039 00000000 		.4byte	0
 16564              	.LLST103:
 16565 103d 68000000 		.4byte	.LVL480
 16566 1041 AC000000 		.4byte	.LVL487
 16567 1045 0100     		.2byte	0x1
 16568 1047 56       		.byte	0x56
 16569 1048 00000000 		.4byte	0
 16570 104c 00000000 		.4byte	0
 16571              	.LLST104:
 16572 1050 76000000 		.4byte	.LVL481
 16573 1054 B2000000 		.4byte	.LVL488
 16574 1058 0100     		.2byte	0x1
ARM GAS  C:\Users\FRANKL~1\AppData\Local\Temp\ccebBo1q.s 			page 330


 16575 105a 50       		.byte	0x50
 16576 105b 00000000 		.4byte	0
 16577 105f 00000000 		.4byte	0
 16578              	.LLST105:
 16579 1063 88000000 		.4byte	.LVL482
 16580 1067 A0000000 		.4byte	.LVL485
 16581 106b 0100     		.2byte	0x1
 16582 106d 52       		.byte	0x52
 16583 106e 00000000 		.4byte	0
 16584 1072 00000000 		.4byte	0
 16585              	.LLST106:
 16586 1076 96000000 		.4byte	.LVL483
 16587 107a A6000000 		.4byte	.LVL486
 16588 107e 0100     		.2byte	0x1
 16589 1080 53       		.byte	0x53
 16590 1081 00000000 		.4byte	0
 16591 1085 00000000 		.4byte	0
 16592              	.LLST107:
 16593 1089 9A000000 		.4byte	.LVL484
 16594 108d A0000000 		.4byte	.LVL485
 16595 1091 0100     		.2byte	0x1
 16596 1093 51       		.byte	0x51
 16597 1094 A0000000 		.4byte	.LVL485
 16598 1098 A6000000 		.4byte	.LVL486
 16599 109c 0100     		.2byte	0x1
 16600 109e 52       		.byte	0x52
 16601 109f A6000000 		.4byte	.LVL486
 16602 10a3 AC000000 		.4byte	.LVL487
 16603 10a7 0100     		.2byte	0x1
 16604 10a9 53       		.byte	0x53
 16605 10aa AC000000 		.4byte	.LVL487
 16606 10ae B2000000 		.4byte	.LVL488
 16607 10b2 0100     		.2byte	0x1
 16608 10b4 56       		.byte	0x56
 16609 10b5 B2000000 		.4byte	.LVL488
 16610 10b9 B4000000 		.4byte	.LVL489
 16611 10bd 0100     		.2byte	0x1
 16612 10bf 50       		.byte	0x50
 16613 10c0 00000000 		.4byte	0
 16614 10c4 00000000 		.4byte	0
 16615              	.LLST108:
 16616 10c8 00000000 		.4byte	.LVL492
 16617 10cc 0A000000 		.4byte	.LVL493
 16618 10d0 0100     		.2byte	0x1
 16619 10d2 50       		.byte	0x50
 16620 10d3 0A000000 		.4byte	.LVL493
 16621 10d7 BA000000 		.4byte	.LVL518
 16622 10db 0100     		.2byte	0x1
 16623 10dd 54       		.byte	0x54
 16624 10de 00000000 		.4byte	0
 16625 10e2 00000000 		.4byte	0
 16626              	.LLST109:
 16627 10e6 20000000 		.4byte	.LVL495
 16628 10ea 26000000 		.4byte	.LVL496
 16629 10ee 0100     		.2byte	0x1
 16630 10f0 53       		.byte	0x53
 16631 10f1 26000000 		.4byte	.LVL496
ARM GAS  C:\Users\FRANKL~1\AppData\Local\Temp\ccebBo1q.s 			page 331


 16632 10f5 2A000000 		.4byte	.LVL497
 16633 10f9 0100     		.2byte	0x1
 16634 10fb 50       		.byte	0x50
 16635 10fc 3A000000 		.4byte	.LVL500
 16636 1100 40000000 		.4byte	.LVL501
 16637 1104 0100     		.2byte	0x1
 16638 1106 53       		.byte	0x53
 16639 1107 40000000 		.4byte	.LVL501
 16640 110b 44000000 		.4byte	.LVL502
 16641 110f 0100     		.2byte	0x1
 16642 1111 50       		.byte	0x50
 16643 1112 52000000 		.4byte	.LVL505
 16644 1116 57000000 		.4byte	.LVL506-1
 16645 111a 0100     		.2byte	0x1
 16646 111c 53       		.byte	0x53
 16647 111d 00000000 		.4byte	0
 16648 1121 00000000 		.4byte	0
 16649              	.LLST110:
 16650 1125 6E000000 		.4byte	.LVL507
 16651 1129 A0000000 		.4byte	.LVL512
 16652 112d 0100     		.2byte	0x1
 16653 112f 52       		.byte	0x52
 16654 1130 00000000 		.4byte	0
 16655 1134 00000000 		.4byte	0
 16656              	.LLST111:
 16657 1138 7C000000 		.4byte	.LVL508
 16658 113c A6000000 		.4byte	.LVL513
 16659 1140 0100     		.2byte	0x1
 16660 1142 53       		.byte	0x53
 16661 1143 00000000 		.4byte	0
 16662 1147 00000000 		.4byte	0
 16663              	.LLST112:
 16664 114b 88000000 		.4byte	.LVL509
 16665 114f AC000000 		.4byte	.LVL514
 16666 1153 0100     		.2byte	0x1
 16667 1155 56       		.byte	0x56
 16668 1156 00000000 		.4byte	0
 16669 115a 00000000 		.4byte	0
 16670              	.LLST113:
 16671 115e 96000000 		.4byte	.LVL510
 16672 1162 B2000000 		.4byte	.LVL515
 16673 1166 0100     		.2byte	0x1
 16674 1168 50       		.byte	0x50
 16675 1169 00000000 		.4byte	0
 16676 116d 00000000 		.4byte	0
 16677              	.LLST114:
 16678 1171 9A000000 		.4byte	.LVL511
 16679 1175 A0000000 		.4byte	.LVL512
 16680 1179 0100     		.2byte	0x1
 16681 117b 51       		.byte	0x51
 16682 117c A0000000 		.4byte	.LVL512
 16683 1180 A6000000 		.4byte	.LVL513
 16684 1184 0100     		.2byte	0x1
 16685 1186 52       		.byte	0x52
 16686 1187 A6000000 		.4byte	.LVL513
 16687 118b AC000000 		.4byte	.LVL514
 16688 118f 0100     		.2byte	0x1
ARM GAS  C:\Users\FRANKL~1\AppData\Local\Temp\ccebBo1q.s 			page 332


 16689 1191 53       		.byte	0x53
 16690 1192 AC000000 		.4byte	.LVL514
 16691 1196 B2000000 		.4byte	.LVL515
 16692 119a 0100     		.2byte	0x1
 16693 119c 56       		.byte	0x56
 16694 119d B2000000 		.4byte	.LVL515
 16695 11a1 B4000000 		.4byte	.LVL516
 16696 11a5 0100     		.2byte	0x1
 16697 11a7 50       		.byte	0x50
 16698 11a8 00000000 		.4byte	0
 16699 11ac 00000000 		.4byte	0
 16700              	.LLST115:
 16701 11b0 00000000 		.4byte	.LVL519
 16702 11b4 05000000 		.4byte	.LVL520-1
 16703 11b8 0100     		.2byte	0x1
 16704 11ba 50       		.byte	0x50
 16705 11bb 05000000 		.4byte	.LVL520-1
 16706 11bf 38000000 		.4byte	.LFE101
 16707 11c3 0600     		.2byte	0x6
 16708 11c5 F3       		.byte	0xf3
 16709 11c6 03       		.uleb128 0x3
 16710 11c7 F5       		.byte	0xf5
 16711 11c8 00       		.uleb128 0
 16712 11c9 25       		.uleb128 0x25
 16713 11ca 9F       		.byte	0x9f
 16714 11cb 00000000 		.4byte	0
 16715 11cf 00000000 		.4byte	0
 16716              	.LLST116:
 16717 11d3 00000000 		.4byte	.LVL525
 16718 11d7 05000000 		.4byte	.LVL526-1
 16719 11db 0100     		.2byte	0x1
 16720 11dd 50       		.byte	0x50
 16721 11de 05000000 		.4byte	.LVL526-1
 16722 11e2 38000000 		.4byte	.LFE102
 16723 11e6 0600     		.2byte	0x6
 16724 11e8 F3       		.byte	0xf3
 16725 11e9 03       		.uleb128 0x3
 16726 11ea F5       		.byte	0xf5
 16727 11eb 00       		.uleb128 0
 16728 11ec 25       		.uleb128 0x25
 16729 11ed 9F       		.byte	0x9f
 16730 11ee 00000000 		.4byte	0
 16731 11f2 00000000 		.4byte	0
 16732              	.LLST117:
 16733 11f6 00000000 		.4byte	.LVL531
 16734 11fa 07000000 		.4byte	.LVL532-1
 16735 11fe 0100     		.2byte	0x1
 16736 1200 50       		.byte	0x50
 16737 1201 07000000 		.4byte	.LVL532-1
 16738 1205 14000000 		.4byte	.LFE103
 16739 1209 0600     		.2byte	0x6
 16740 120b F3       		.byte	0xf3
 16741 120c 03       		.uleb128 0x3
 16742 120d F5       		.byte	0xf5
 16743 120e 00       		.uleb128 0
 16744 120f 25       		.uleb128 0x25
 16745 1210 9F       		.byte	0x9f
ARM GAS  C:\Users\FRANKL~1\AppData\Local\Temp\ccebBo1q.s 			page 333


 16746 1211 00000000 		.4byte	0
 16747 1215 00000000 		.4byte	0
 16748              	.LLST118:
 16749 1219 00000000 		.4byte	.LVL534
 16750 121d 07000000 		.4byte	.LVL535-1
 16751 1221 0100     		.2byte	0x1
 16752 1223 50       		.byte	0x50
 16753 1224 07000000 		.4byte	.LVL535-1
 16754 1228 14000000 		.4byte	.LFE104
 16755 122c 0600     		.2byte	0x6
 16756 122e F3       		.byte	0xf3
 16757 122f 03       		.uleb128 0x3
 16758 1230 F5       		.byte	0xf5
 16759 1231 00       		.uleb128 0
 16760 1232 25       		.uleb128 0x25
 16761 1233 9F       		.byte	0x9f
 16762 1234 00000000 		.4byte	0
 16763 1238 00000000 		.4byte	0
 16764              	.LLST119:
 16765 123c 00000000 		.4byte	.LVL541
 16766 1240 12000000 		.4byte	.LVL543
 16767 1244 0100     		.2byte	0x1
 16768 1246 50       		.byte	0x50
 16769 1247 12000000 		.4byte	.LVL543
 16770 124b BC000000 		.4byte	.LVL563
 16771 124f 0100     		.2byte	0x1
 16772 1251 57       		.byte	0x57
 16773 1252 BC000000 		.4byte	.LVL563
 16774 1256 D0000000 		.4byte	.LFE106
 16775 125a 0400     		.2byte	0x4
 16776 125c F3       		.byte	0xf3
 16777 125d 01       		.uleb128 0x1
 16778 125e 50       		.byte	0x50
 16779 125f 9F       		.byte	0x9f
 16780 1260 00000000 		.4byte	0
 16781 1264 00000000 		.4byte	0
 16782              	.LLST120:
 16783 1268 0E000000 		.4byte	.LVL542
 16784 126c BC000000 		.4byte	.LVL563
 16785 1270 0100     		.2byte	0x1
 16786 1272 58       		.byte	0x58
 16787 1273 00000000 		.4byte	0
 16788 1277 00000000 		.4byte	0
 16789              	.LLST121:
 16790 127b 22000000 		.4byte	.LVL546
 16791 127f 24000000 		.4byte	.LVL547
 16792 1283 0200     		.2byte	0x2
 16793 1285 30       		.byte	0x30
 16794 1286 9F       		.byte	0x9f
 16795 1287 24000000 		.4byte	.LVL547
 16796 128b 7A000000 		.4byte	.LVL556
 16797 128f 0100     		.2byte	0x1
 16798 1291 54       		.byte	0x54
 16799 1292 7C000000 		.4byte	.LVL557
 16800 1296 8A000000 		.4byte	.LVL559
 16801 129a 0100     		.2byte	0x1
 16802 129c 54       		.byte	0x54
ARM GAS  C:\Users\FRANKL~1\AppData\Local\Temp\ccebBo1q.s 			page 334


 16803 129d 00000000 		.4byte	0
 16804 12a1 00000000 		.4byte	0
 16805              	.LLST122:
 16806 12a5 00000000 		.4byte	.LVL564
 16807 12a9 14000000 		.4byte	.LVL567
 16808 12ad 0100     		.2byte	0x1
 16809 12af 50       		.byte	0x50
 16810 12b0 14000000 		.4byte	.LVL567
 16811 12b4 17000000 		.4byte	.LVL568-1
 16812 12b8 0100     		.2byte	0x1
 16813 12ba 52       		.byte	0x52
 16814 12bb 17000000 		.4byte	.LVL568-1
 16815 12bf 6C000000 		.4byte	.LFE107
 16816 12c3 0400     		.2byte	0x4
 16817 12c5 F3       		.byte	0xf3
 16818 12c6 01       		.uleb128 0x1
 16819 12c7 50       		.byte	0x50
 16820 12c8 9F       		.byte	0x9f
 16821 12c9 00000000 		.4byte	0
 16822 12cd 00000000 		.4byte	0
 16823              	.LLST123:
 16824 12d1 00000000 		.4byte	.LVL564
 16825 12d5 0A000000 		.4byte	.LVL565
 16826 12d9 0100     		.2byte	0x1
 16827 12db 51       		.byte	0x51
 16828 12dc 0A000000 		.4byte	.LVL565
 16829 12e0 6C000000 		.4byte	.LFE107
 16830 12e4 0400     		.2byte	0x4
 16831 12e6 F3       		.byte	0xf3
 16832 12e7 01       		.uleb128 0x1
 16833 12e8 51       		.byte	0x51
 16834 12e9 9F       		.byte	0x9f
 16835 12ea 00000000 		.4byte	0
 16836 12ee 00000000 		.4byte	0
 16837              	.LLST124:
 16838 12f2 00000000 		.4byte	.LVL564
 16839 12f6 12000000 		.4byte	.LVL566
 16840 12fa 0100     		.2byte	0x1
 16841 12fc 52       		.byte	0x52
 16842 12fd 12000000 		.4byte	.LVL566
 16843 1301 6C000000 		.4byte	.LFE107
 16844 1305 0400     		.2byte	0x4
 16845 1307 F3       		.byte	0xf3
 16846 1308 01       		.uleb128 0x1
 16847 1309 52       		.byte	0x52
 16848 130a 9F       		.byte	0x9f
 16849 130b 00000000 		.4byte	0
 16850 130f 00000000 		.4byte	0
 16851              	.LLST125:
 16852 1313 00000000 		.4byte	.LVL578
 16853 1317 08000000 		.4byte	.LVL580
 16854 131b 0100     		.2byte	0x1
 16855 131d 50       		.byte	0x50
 16856 131e 08000000 		.4byte	.LVL580
 16857 1322 1A000000 		.4byte	.LFE108
 16858 1326 0100     		.2byte	0x1
 16859 1328 55       		.byte	0x55
ARM GAS  C:\Users\FRANKL~1\AppData\Local\Temp\ccebBo1q.s 			page 335


 16860 1329 00000000 		.4byte	0
 16861 132d 00000000 		.4byte	0
 16862              	.LLST126:
 16863 1331 04000000 		.4byte	.LVL579
 16864 1335 08000000 		.4byte	.LVL580
 16865 1339 0200     		.2byte	0x2
 16866 133b 30       		.byte	0x30
 16867 133c 9F       		.byte	0x9f
 16868 133d 08000000 		.4byte	.LVL580
 16869 1341 1A000000 		.4byte	.LFE108
 16870 1345 0100     		.2byte	0x1
 16871 1347 54       		.byte	0x54
 16872 1348 00000000 		.4byte	0
 16873 134c 00000000 		.4byte	0
 16874              	.LLST127:
 16875 1350 0E000000 		.4byte	.LVL584
 16876 1354 12000000 		.4byte	.LVL585
 16877 1358 0200     		.2byte	0x2
 16878 135a 30       		.byte	0x30
 16879 135b 9F       		.byte	0x9f
 16880 135c 12000000 		.4byte	.LVL585
 16881 1360 24000000 		.4byte	.LVL588
 16882 1364 0100     		.2byte	0x1
 16883 1366 54       		.byte	0x54
 16884 1367 26000000 		.4byte	.LVL589
 16885 136b 2C000000 		.4byte	.LFE109
 16886 136f 0100     		.2byte	0x1
 16887 1371 54       		.byte	0x54
 16888 1372 00000000 		.4byte	0
 16889 1376 00000000 		.4byte	0
 16890              	.LLST128:
 16891 137a 00000000 		.4byte	.LVL590
 16892 137e 14000000 		.4byte	.LVL591
 16893 1382 0100     		.2byte	0x1
 16894 1384 50       		.byte	0x50
 16895 1385 14000000 		.4byte	.LVL591
 16896 1389 20000000 		.4byte	.LVL593
 16897 138d 0400     		.2byte	0x4
 16898 138f F3       		.byte	0xf3
 16899 1390 01       		.uleb128 0x1
 16900 1391 50       		.byte	0x50
 16901 1392 9F       		.byte	0x9f
 16902 1393 20000000 		.4byte	.LVL593
 16903 1397 22000000 		.4byte	.LVL594
 16904 139b 0100     		.2byte	0x1
 16905 139d 50       		.byte	0x50
 16906 139e 22000000 		.4byte	.LVL594
 16907 13a2 AC000000 		.4byte	.LFE110
 16908 13a6 0400     		.2byte	0x4
 16909 13a8 F3       		.byte	0xf3
 16910 13a9 01       		.uleb128 0x1
 16911 13aa 50       		.byte	0x50
 16912 13ab 9F       		.byte	0x9f
 16913 13ac 00000000 		.4byte	0
 16914 13b0 00000000 		.4byte	0
 16915              	.LLST129:
 16916 13b4 28000000 		.4byte	.LVL596
ARM GAS  C:\Users\FRANKL~1\AppData\Local\Temp\ccebBo1q.s 			page 336


 16917 13b8 98000000 		.4byte	.LVL612
 16918 13bc 0100     		.2byte	0x1
 16919 13be 58       		.byte	0x58
 16920 13bf 9C000000 		.4byte	.LVL613
 16921 13c3 A4000000 		.4byte	.LVL614
 16922 13c7 0100     		.2byte	0x1
 16923 13c9 58       		.byte	0x58
 16924 13ca 00000000 		.4byte	0
 16925 13ce 00000000 		.4byte	0
 16926              	.LLST130:
 16927 13d2 28000000 		.4byte	.LVL596
 16928 13d6 4E000000 		.4byte	.LVL601
 16929 13da 0200     		.2byte	0x2
 16930 13dc 40       		.byte	0x40
 16931 13dd 9F       		.byte	0x9f
 16932 13de 4E000000 		.4byte	.LVL601
 16933 13e2 50000000 		.4byte	.LVL602
 16934 13e6 0100     		.2byte	0x1
 16935 13e8 57       		.byte	0x57
 16936 13e9 00000000 		.4byte	0
 16937 13ed 00000000 		.4byte	0
 16938              	.LLST131:
 16939 13f1 28000000 		.4byte	.LVL596
 16940 13f5 36000000 		.4byte	.LVL597
 16941 13f9 0200     		.2byte	0x2
 16942 13fb 30       		.byte	0x30
 16943 13fc 9F       		.byte	0x9f
 16944 13fd 36000000 		.4byte	.LVL597
 16945 1401 38000000 		.4byte	.LVL598
 16946 1405 0100     		.2byte	0x1
 16947 1407 55       		.byte	0x55
 16948 1408 38000000 		.4byte	.LVL598
 16949 140c 3A000000 		.4byte	.LVL599
 16950 1410 0200     		.2byte	0x2
 16951 1412 30       		.byte	0x30
 16952 1413 9F       		.byte	0x9f
 16953 1414 3A000000 		.4byte	.LVL599
 16954 1418 4A000000 		.4byte	.LVL600
 16955 141c 0100     		.2byte	0x1
 16956 141e 55       		.byte	0x55
 16957 141f 4E000000 		.4byte	.LVL601
 16958 1423 50000000 		.4byte	.LVL602
 16959 1427 0100     		.2byte	0x1
 16960 1429 55       		.byte	0x55
 16961 142a 00000000 		.4byte	0
 16962 142e 00000000 		.4byte	0
 16963              	.LLST132:
 16964 1432 3A000000 		.4byte	.LVL599
 16965 1436 4E000000 		.4byte	.LVL601
 16966 143a 0300     		.2byte	0x3
 16967 143c 09       		.byte	0x9
 16968 143d F0       		.byte	0xf0
 16969 143e 9F       		.byte	0x9f
 16970 143f 4E000000 		.4byte	.LVL601
 16971 1443 50000000 		.4byte	.LVL602
 16972 1447 0100     		.2byte	0x1
 16973 1449 56       		.byte	0x56
ARM GAS  C:\Users\FRANKL~1\AppData\Local\Temp\ccebBo1q.s 			page 337


 16974 144a 00000000 		.4byte	0
 16975 144e 00000000 		.4byte	0
 16976              	.LLST133:
 16977 1452 4E000000 		.4byte	.LVL601
 16978 1456 8E000000 		.4byte	.LVL610
 16979 145a 0100     		.2byte	0x1
 16980 145c 55       		.byte	0x55
 16981 145d 90000000 		.4byte	.LVL611
 16982 1461 9C000000 		.4byte	.LVL613
 16983 1465 0100     		.2byte	0x1
 16984 1467 55       		.byte	0x55
 16985 1468 00000000 		.4byte	0
 16986 146c 00000000 		.4byte	0
 16987              	.LLST134:
 16988 1470 50000000 		.4byte	.LVL602
 16989 1474 82000000 		.4byte	.LVL606
 16990 1478 0100     		.2byte	0x1
 16991 147a 54       		.byte	0x54
 16992 147b 84000000 		.4byte	.LVL607
 16993 147f 86000000 		.4byte	.LVL608
 16994 1483 0100     		.2byte	0x1
 16995 1485 54       		.byte	0x54
 16996 1486 88000000 		.4byte	.LVL609
 16997 148a 90000000 		.4byte	.LVL611
 16998 148e 0100     		.2byte	0x1
 16999 1490 54       		.byte	0x54
 17000 1491 00000000 		.4byte	0
 17001 1495 00000000 		.4byte	0
 17002              	.LLST135:
 17003 1499 00000000 		.4byte	.LVL615
 17004 149d 08000000 		.4byte	.LVL616
 17005 14a1 0100     		.2byte	0x1
 17006 14a3 50       		.byte	0x50
 17007 14a4 08000000 		.4byte	.LVL616
 17008 14a8 84000000 		.4byte	.LFE111
 17009 14ac 0400     		.2byte	0x4
 17010 14ae F3       		.byte	0xf3
 17011 14af 01       		.uleb128 0x1
 17012 14b0 50       		.byte	0x50
 17013 14b1 9F       		.byte	0x9f
 17014 14b2 00000000 		.4byte	0
 17015 14b6 00000000 		.4byte	0
 17016              	.LLST136:
 17017 14ba 0C000000 		.4byte	.LVL617
 17018 14be 12000000 		.4byte	.LVL618
 17019 14c2 0200     		.2byte	0x2
 17020 14c4 30       		.byte	0x30
 17021 14c5 9F       		.byte	0x9f
 17022 14c6 12000000 		.4byte	.LVL618
 17023 14ca 72000000 		.4byte	.LVL630
 17024 14ce 0100     		.2byte	0x1
 17025 14d0 58       		.byte	0x58
 17026 14d1 76000000 		.4byte	.LVL631
 17027 14d5 7E000000 		.4byte	.LVL632
 17028 14d9 0100     		.2byte	0x1
 17029 14db 58       		.byte	0x58
 17030 14dc 00000000 		.4byte	0
ARM GAS  C:\Users\FRANKL~1\AppData\Local\Temp\ccebBo1q.s 			page 338


 17031 14e0 00000000 		.4byte	0
 17032              	.LLST137:
 17033 14e4 12000000 		.4byte	.LVL618
 17034 14e8 28000000 		.4byte	.LVL619
 17035 14ec 0200     		.2byte	0x2
 17036 14ee 40       		.byte	0x40
 17037 14ef 9F       		.byte	0x9f
 17038 14f0 28000000 		.4byte	.LVL619
 17039 14f4 2A000000 		.4byte	.LVL620
 17040 14f8 0100     		.2byte	0x1
 17041 14fa 57       		.byte	0x57
 17042 14fb 00000000 		.4byte	0
 17043 14ff 00000000 		.4byte	0
 17044              	.LLST138:
 17045 1503 12000000 		.4byte	.LVL618
 17046 1507 28000000 		.4byte	.LVL619
 17047 150b 0200     		.2byte	0x2
 17048 150d 30       		.byte	0x30
 17049 150e 9F       		.byte	0x9f
 17050 150f 28000000 		.4byte	.LVL619
 17051 1513 2A000000 		.4byte	.LVL620
 17052 1517 0100     		.2byte	0x1
 17053 1519 55       		.byte	0x55
 17054 151a 00000000 		.4byte	0
 17055 151e 00000000 		.4byte	0
 17056              	.LLST139:
 17057 1522 12000000 		.4byte	.LVL618
 17058 1526 28000000 		.4byte	.LVL619
 17059 152a 0300     		.2byte	0x3
 17060 152c 09       		.byte	0x9
 17061 152d F0       		.byte	0xf0
 17062 152e 9F       		.byte	0x9f
 17063 152f 28000000 		.4byte	.LVL619
 17064 1533 2A000000 		.4byte	.LVL620
 17065 1537 0100     		.2byte	0x1
 17066 1539 56       		.byte	0x56
 17067 153a 00000000 		.4byte	0
 17068 153e 00000000 		.4byte	0
 17069              	.LLST140:
 17070 1542 28000000 		.4byte	.LVL619
 17071 1546 68000000 		.4byte	.LVL628
 17072 154a 0100     		.2byte	0x1
 17073 154c 55       		.byte	0x55
 17074 154d 6A000000 		.4byte	.LVL629
 17075 1551 76000000 		.4byte	.LVL631
 17076 1555 0100     		.2byte	0x1
 17077 1557 55       		.byte	0x55
 17078 1558 00000000 		.4byte	0
 17079 155c 00000000 		.4byte	0
 17080              	.LLST141:
 17081 1560 2A000000 		.4byte	.LVL620
 17082 1564 5C000000 		.4byte	.LVL624
 17083 1568 0100     		.2byte	0x1
 17084 156a 54       		.byte	0x54
 17085 156b 5E000000 		.4byte	.LVL625
 17086 156f 60000000 		.4byte	.LVL626
 17087 1573 0100     		.2byte	0x1
ARM GAS  C:\Users\FRANKL~1\AppData\Local\Temp\ccebBo1q.s 			page 339


 17088 1575 54       		.byte	0x54
 17089 1576 62000000 		.4byte	.LVL627
 17090 157a 6A000000 		.4byte	.LVL629
 17091 157e 0100     		.2byte	0x1
 17092 1580 54       		.byte	0x54
 17093 1581 00000000 		.4byte	0
 17094 1585 00000000 		.4byte	0
 17095              	.LLST142:
 17096 1589 04000000 		.4byte	.LVL633
 17097 158d 10000000 		.4byte	.LVL634
 17098 1591 0200     		.2byte	0x2
 17099 1593 31       		.byte	0x31
 17100 1594 9F       		.byte	0x9f
 17101 1595 10000000 		.4byte	.LVL634
 17102 1599 40000000 		.4byte	.LVL639
 17103 159d 0100     		.2byte	0x1
 17104 159f 54       		.byte	0x54
 17105 15a0 40000000 		.4byte	.LVL639
 17106 15a4 84000000 		.4byte	.LVL647
 17107 15a8 0100     		.2byte	0x1
 17108 15aa 58       		.byte	0x58
 17109 15ab 84000000 		.4byte	.LVL647
 17110 15af 8E000000 		.4byte	.LVL648
 17111 15b3 0100     		.2byte	0x1
 17112 15b5 54       		.byte	0x54
 17113 15b6 00000000 		.4byte	0
 17114 15ba 00000000 		.4byte	0
 17115              	.LLST143:
 17116 15be 04000000 		.4byte	.LVL633
 17117 15c2 10000000 		.4byte	.LVL634
 17118 15c6 0200     		.2byte	0x2
 17119 15c8 30       		.byte	0x30
 17120 15c9 9F       		.byte	0x9f
 17121 15ca 10000000 		.4byte	.LVL634
 17122 15ce 66000000 		.4byte	.LVL643
 17123 15d2 0100     		.2byte	0x1
 17124 15d4 55       		.byte	0x55
 17125 15d5 68000000 		.4byte	.LVL644
 17126 15d9 92000000 		.4byte	.LVL649
 17127 15dd 0100     		.2byte	0x1
 17128 15df 55       		.byte	0x55
 17129 15e0 00000000 		.4byte	0
 17130 15e4 00000000 		.4byte	0
 17131              	.LLST144:
 17132 15e8 04000000 		.4byte	.LVL633
 17133 15ec 10000000 		.4byte	.LVL634
 17134 15f0 0200     		.2byte	0x2
 17135 15f2 30       		.byte	0x30
 17136 15f3 9F       		.byte	0x9f
 17137 15f4 10000000 		.4byte	.LVL634
 17138 15f8 30000000 		.4byte	.LVL637
 17139 15fc 0100     		.2byte	0x1
 17140 15fe 59       		.byte	0x59
 17141 15ff 34000000 		.4byte	.LVL638
 17142 1603 92000000 		.4byte	.LVL649
 17143 1607 0100     		.2byte	0x1
 17144 1609 59       		.byte	0x59
ARM GAS  C:\Users\FRANKL~1\AppData\Local\Temp\ccebBo1q.s 			page 340


 17145 160a 00000000 		.4byte	0
 17146 160e 00000000 		.4byte	0
 17147              	.LLST145:
 17148 1612 04000000 		.4byte	.LVL633
 17149 1616 10000000 		.4byte	.LVL634
 17150 161a 0200     		.2byte	0x2
 17151 161c 30       		.byte	0x30
 17152 161d 9F       		.byte	0x9f
 17153 161e 10000000 		.4byte	.LVL634
 17154 1622 6C000000 		.4byte	.LVL645
 17155 1626 0100     		.2byte	0x1
 17156 1628 56       		.byte	0x56
 17157 1629 6E000000 		.4byte	.LVL646
 17158 162d 92000000 		.4byte	.LVL649
 17159 1631 0100     		.2byte	0x1
 17160 1633 56       		.byte	0x56
 17161 1634 00000000 		.4byte	0
 17162 1638 00000000 		.4byte	0
 17163              	.LLST146:
 17164 163c 04000000 		.4byte	.LVL633
 17165 1640 10000000 		.4byte	.LVL634
 17166 1644 0200     		.2byte	0x2
 17167 1646 30       		.byte	0x30
 17168 1647 9F       		.byte	0x9f
 17169 1648 10000000 		.4byte	.LVL634
 17170 164c 1E000000 		.4byte	.LVL635
 17171 1650 0100     		.2byte	0x1
 17172 1652 57       		.byte	0x57
 17173 1653 20000000 		.4byte	.LVL636
 17174 1657 92000000 		.4byte	.LVL649
 17175 165b 0100     		.2byte	0x1
 17176 165d 57       		.byte	0x57
 17177 165e 00000000 		.4byte	0
 17178 1662 00000000 		.4byte	0
 17179              	.LLST147:
 17180 1666 00000000 		.4byte	.LVL650
 17181 166a 0C000000 		.4byte	.LVL652
 17182 166e 0100     		.2byte	0x1
 17183 1670 50       		.byte	0x50
 17184 1671 0C000000 		.4byte	.LVL652
 17185 1675 90000000 		.4byte	.LFE113
 17186 1679 0400     		.2byte	0x4
 17187 167b F3       		.byte	0xf3
 17188 167c 01       		.uleb128 0x1
 17189 167d 50       		.byte	0x50
 17190 167e 9F       		.byte	0x9f
 17191 167f 00000000 		.4byte	0
 17192 1683 00000000 		.4byte	0
 17193              	.LLST148:
 17194 1687 00000000 		.4byte	.LVL650
 17195 168b 0C000000 		.4byte	.LVL652
 17196 168f 0100     		.2byte	0x1
 17197 1691 51       		.byte	0x51
 17198 1692 0C000000 		.4byte	.LVL652
 17199 1696 90000000 		.4byte	.LFE113
 17200 169a 0400     		.2byte	0x4
 17201 169c F3       		.byte	0xf3
ARM GAS  C:\Users\FRANKL~1\AppData\Local\Temp\ccebBo1q.s 			page 341


 17202 169d 01       		.uleb128 0x1
 17203 169e 51       		.byte	0x51
 17204 169f 9F       		.byte	0x9f
 17205 16a0 00000000 		.4byte	0
 17206 16a4 00000000 		.4byte	0
 17207              	.LLST149:
 17208 16a8 08000000 		.4byte	.LVL651
 17209 16ac 0C000000 		.4byte	.LVL652
 17210 16b0 0200     		.2byte	0x2
 17211 16b2 31       		.byte	0x31
 17212 16b3 9F       		.byte	0x9f
 17213 16b4 0C000000 		.4byte	.LVL652
 17214 16b8 84000000 		.4byte	.LVL666
 17215 16bc 0100     		.2byte	0x1
 17216 16be 54       		.byte	0x54
 17217 16bf 00000000 		.4byte	0
 17218 16c3 00000000 		.4byte	0
 17219              	.LLST150:
 17220 16c7 0C000000 		.4byte	.LVL652
 17221 16cb 7C000000 		.4byte	.LVL665
 17222 16cf 0100     		.2byte	0x1
 17223 16d1 54       		.byte	0x54
 17224 16d2 00000000 		.4byte	0
 17225 16d6 00000000 		.4byte	0
 17226              	.LLST151:
 17227 16da 10000000 		.4byte	.LVL653
 17228 16de 7C000000 		.4byte	.LVL665
 17229 16e2 0100     		.2byte	0x1
 17230 16e4 56       		.byte	0x56
 17231 16e5 00000000 		.4byte	0
 17232 16e9 00000000 		.4byte	0
 17233              	.LLST152:
 17234 16ed 10000000 		.4byte	.LVL653
 17235 16f1 7C000000 		.4byte	.LVL665
 17236 16f5 0200     		.2byte	0x2
 17237 16f7 31       		.byte	0x31
 17238 16f8 9F       		.byte	0x9f
 17239 16f9 00000000 		.4byte	0
 17240 16fd 00000000 		.4byte	0
 17241              	.LLST153:
 17242 1701 10000000 		.4byte	.LVL653
 17243 1705 7C000000 		.4byte	.LVL665
 17244 1709 0200     		.2byte	0x2
 17245 170b 32       		.byte	0x32
 17246 170c 9F       		.byte	0x9f
 17247 170d 00000000 		.4byte	0
 17248 1711 00000000 		.4byte	0
 17249              	.LLST154:
 17250 1715 00000000 		.4byte	.LVL667
 17251 1719 18000000 		.4byte	.LVL668
 17252 171d 0100     		.2byte	0x1
 17253 171f 50       		.byte	0x50
 17254 1720 18000000 		.4byte	.LVL668
 17255 1724 94000000 		.4byte	.LVL682
 17256 1728 0400     		.2byte	0x4
 17257 172a F3       		.byte	0xf3
 17258 172b 01       		.uleb128 0x1
ARM GAS  C:\Users\FRANKL~1\AppData\Local\Temp\ccebBo1q.s 			page 342


 17259 172c 50       		.byte	0x50
 17260 172d 9F       		.byte	0x9f
 17261 172e 94000000 		.4byte	.LVL682
 17262 1732 A4000000 		.4byte	.LFE114
 17263 1736 0100     		.2byte	0x1
 17264 1738 50       		.byte	0x50
 17265 1739 00000000 		.4byte	0
 17266 173d 00000000 		.4byte	0
 17267              	.LLST155:
 17268 1741 00000000 		.4byte	.LVL667
 17269 1745 18000000 		.4byte	.LVL668
 17270 1749 0100     		.2byte	0x1
 17271 174b 51       		.byte	0x51
 17272 174c 18000000 		.4byte	.LVL668
 17273 1750 94000000 		.4byte	.LVL682
 17274 1754 0400     		.2byte	0x4
 17275 1756 F3       		.byte	0xf3
 17276 1757 01       		.uleb128 0x1
 17277 1758 51       		.byte	0x51
 17278 1759 9F       		.byte	0x9f
 17279 175a 94000000 		.4byte	.LVL682
 17280 175e A4000000 		.4byte	.LFE114
 17281 1762 0100     		.2byte	0x1
 17282 1764 51       		.byte	0x51
 17283 1765 00000000 		.4byte	0
 17284 1769 00000000 		.4byte	0
 17285              	.LLST156:
 17286 176d 00000000 		.4byte	.LVL667
 17287 1771 18000000 		.4byte	.LVL668
 17288 1775 0100     		.2byte	0x1
 17289 1777 52       		.byte	0x52
 17290 1778 18000000 		.4byte	.LVL668
 17291 177c 94000000 		.4byte	.LVL682
 17292 1780 0400     		.2byte	0x4
 17293 1782 F3       		.byte	0xf3
 17294 1783 01       		.uleb128 0x1
 17295 1784 52       		.byte	0x52
 17296 1785 9F       		.byte	0x9f
 17297 1786 94000000 		.4byte	.LVL682
 17298 178a A4000000 		.4byte	.LFE114
 17299 178e 0100     		.2byte	0x1
 17300 1790 52       		.byte	0x52
 17301 1791 00000000 		.4byte	0
 17302 1795 00000000 		.4byte	0
 17303              	.LLST157:
 17304 1799 00000000 		.4byte	.LVL667
 17305 179d 18000000 		.4byte	.LVL668
 17306 17a1 0100     		.2byte	0x1
 17307 17a3 53       		.byte	0x53
 17308 17a4 18000000 		.4byte	.LVL668
 17309 17a8 94000000 		.4byte	.LVL682
 17310 17ac 0400     		.2byte	0x4
 17311 17ae F3       		.byte	0xf3
 17312 17af 01       		.uleb128 0x1
 17313 17b0 53       		.byte	0x53
 17314 17b1 9F       		.byte	0x9f
 17315 17b2 94000000 		.4byte	.LVL682
ARM GAS  C:\Users\FRANKL~1\AppData\Local\Temp\ccebBo1q.s 			page 343


 17316 17b6 A4000000 		.4byte	.LFE114
 17317 17ba 0100     		.2byte	0x1
 17318 17bc 53       		.byte	0x53
 17319 17bd 00000000 		.4byte	0
 17320 17c1 00000000 		.4byte	0
 17321              	.LLST158:
 17322 17c5 18000000 		.4byte	.LVL668
 17323 17c9 94000000 		.4byte	.LVL682
 17324 17cd 0100     		.2byte	0x1
 17325 17cf 54       		.byte	0x54
 17326 17d0 00000000 		.4byte	0
 17327 17d4 00000000 		.4byte	0
 17328              	.LLST159:
 17329 17d8 18000000 		.4byte	.LVL668
 17330 17dc 8C000000 		.4byte	.LVL681
 17331 17e0 0100     		.2byte	0x1
 17332 17e2 54       		.byte	0x54
 17333 17e3 00000000 		.4byte	0
 17334 17e7 00000000 		.4byte	0
 17335              	.LLST160:
 17336 17eb 1C000000 		.4byte	.LVL669
 17337 17ef 8C000000 		.4byte	.LVL681
 17338 17f3 0100     		.2byte	0x1
 17339 17f5 56       		.byte	0x56
 17340 17f6 00000000 		.4byte	0
 17341 17fa 00000000 		.4byte	0
 17342              	.LLST161:
 17343 17fe 1C000000 		.4byte	.LVL669
 17344 1802 8C000000 		.4byte	.LVL681
 17345 1806 0200     		.2byte	0x2
 17346 1808 31       		.byte	0x31
 17347 1809 9F       		.byte	0x9f
 17348 180a 00000000 		.4byte	0
 17349 180e 00000000 		.4byte	0
 17350              	.LLST162:
 17351 1812 1C000000 		.4byte	.LVL669
 17352 1816 8C000000 		.4byte	.LVL681
 17353 181a 0200     		.2byte	0x2
 17354 181c 32       		.byte	0x32
 17355 181d 9F       		.byte	0x9f
 17356 181e 00000000 		.4byte	0
 17357 1822 00000000 		.4byte	0
 17358              	.LLST163:
 17359 1826 88000000 		.4byte	.LVL702
 17360 182a 98000000 		.4byte	.LVL703
 17361 182e 0600     		.2byte	0x6
 17362 1830 03       		.byte	0x3
 17363 1831 00000000 		.4byte	USBUART_Receive_Buffer
 17364 1835 9F       		.byte	0x9f
 17365 1836 98000000 		.4byte	.LVL703
 17366 183a 46020000 		.4byte	.LVL746
 17367 183e 0100     		.2byte	0x1
 17368 1840 54       		.byte	0x54
 17369 1841 74020000 		.4byte	.LVL754
 17370 1845 9A020000 		.4byte	.LVL759
 17371 1849 0100     		.2byte	0x1
 17372 184b 54       		.byte	0x54
ARM GAS  C:\Users\FRANKL~1\AppData\Local\Temp\ccebBo1q.s 			page 344


 17373 184c C8020000 		.4byte	.LVL767
 17374 1850 D6020000 		.4byte	.LVL769
 17375 1854 0100     		.2byte	0x1
 17376 1856 54       		.byte	0x54
 17377 1857 9C030000 		.4byte	.LVL777
 17378 185b DE030000 		.4byte	.LVL783
 17379 185f 0100     		.2byte	0x1
 17380 1861 54       		.byte	0x54
 17381 1862 2E040000 		.4byte	.LVL792
 17382 1866 76040000 		.4byte	.LVL798
 17383 186a 0100     		.2byte	0x1
 17384 186c 54       		.byte	0x54
 17385 186d CC040000 		.4byte	.LVL807
 17386 1871 18050000 		.4byte	.LVL813
 17387 1875 0100     		.2byte	0x1
 17388 1877 54       		.byte	0x54
 17389 1878 74050000 		.4byte	.LVL823
 17390 187c 8A050000 		.4byte	.LVL826
 17391 1880 0100     		.2byte	0x1
 17392 1882 54       		.byte	0x54
 17393 1883 D0050000 		.4byte	.LVL836
 17394 1887 E6050000 		.4byte	.LVL839
 17395 188b 0100     		.2byte	0x1
 17396 188d 54       		.byte	0x54
 17397 188e 2C060000 		.4byte	.LVL849
 17398 1892 42060000 		.4byte	.LVL852
 17399 1896 0100     		.2byte	0x1
 17400 1898 54       		.byte	0x54
 17401 1899 88060000 		.4byte	.LVL862
 17402 189d B2060000 		.4byte	.LVL868
 17403 18a1 0100     		.2byte	0x1
 17404 18a3 54       		.byte	0x54
 17405 18a4 1C070000 		.4byte	.LVL873
 17406 18a8 30070000 		.4byte	.LVL876
 17407 18ac 0100     		.2byte	0x1
 17408 18ae 54       		.byte	0x54
 17409 18af 5C070000 		.4byte	.LVL880
 17410 18b3 86070000 		.4byte	.LVL886
 17411 18b7 0100     		.2byte	0x1
 17412 18b9 54       		.byte	0x54
 17413 18ba A6070000 		.4byte	.LVL891
 17414 18be D0070000 		.4byte	.LVL897
 17415 18c2 0100     		.2byte	0x1
 17416 18c4 54       		.byte	0x54
 17417 18c5 F0070000 		.4byte	.LVL902
 17418 18c9 04080000 		.4byte	.LVL905
 17419 18cd 0100     		.2byte	0x1
 17420 18cf 54       		.byte	0x54
 17421 18d0 2C080000 		.4byte	.LVL909
 17422 18d4 52080000 		.4byte	.LVL913
 17423 18d8 0100     		.2byte	0x1
 17424 18da 54       		.byte	0x54
 17425 18db 90080000 		.4byte	.LVL918
 17426 18df E8080000 		.4byte	.LFE116
 17427 18e3 0100     		.2byte	0x1
 17428 18e5 54       		.byte	0x54
 17429 18e6 00000000 		.4byte	0
ARM GAS  C:\Users\FRANKL~1\AppData\Local\Temp\ccebBo1q.s 			page 345


 17430 18ea 00000000 		.4byte	0
 17431              	.LLST164:
 17432 18ee D6000000 		.4byte	.LVL708
 17433 18f2 D9000000 		.4byte	.LVL709-1
 17434 18f6 0100     		.2byte	0x1
 17435 18f8 50       		.byte	0x50
 17436 18f9 00000000 		.4byte	0
 17437 18fd 00000000 		.4byte	0
 17438              	.LLST165:
 17439 1901 4C010000 		.4byte	.LVL720
 17440 1905 51010000 		.4byte	.LVL721-1
 17441 1909 0100     		.2byte	0x1
 17442 190b 50       		.byte	0x50
 17443 190c 00000000 		.4byte	0
 17444 1910 00000000 		.4byte	0
 17445              	.LLST166:
 17446 1914 74010000 		.4byte	.LVL724
 17447 1918 79010000 		.4byte	.LVL725-1
 17448 191c 0100     		.2byte	0x1
 17449 191e 50       		.byte	0x50
 17450 191f 00000000 		.4byte	0
 17451 1923 00000000 		.4byte	0
 17452              	.LLST167:
 17453 1927 9C010000 		.4byte	.LVL728
 17454 192b A1010000 		.4byte	.LVL729-1
 17455 192f 0100     		.2byte	0x1
 17456 1931 50       		.byte	0x50
 17457 1932 00000000 		.4byte	0
 17458 1936 00000000 		.4byte	0
 17459              	.LLST168:
 17460 193a C4010000 		.4byte	.LVL732
 17461 193e C9010000 		.4byte	.LVL733-1
 17462 1942 0100     		.2byte	0x1
 17463 1944 50       		.byte	0x50
 17464 1945 00000000 		.4byte	0
 17465 1949 00000000 		.4byte	0
 17466              	.LLST169:
 17467 194d E0010000 		.4byte	.LVL735
 17468 1951 ED010000 		.4byte	.LVL736-1
 17469 1955 0100     		.2byte	0x1
 17470 1957 50       		.byte	0x50
 17471 1958 00000000 		.4byte	0
 17472 195c 00000000 		.4byte	0
 17473              	.LLST170:
 17474 1960 0A020000 		.4byte	.LVL739
 17475 1964 17020000 		.4byte	.LVL740-1
 17476 1968 0100     		.2byte	0x1
 17477 196a 50       		.byte	0x50
 17478 196b 00000000 		.4byte	0
 17479 196f 00000000 		.4byte	0
 17480              	.LLST171:
 17481 1973 46020000 		.4byte	.LVL746
 17482 1977 49020000 		.4byte	.LVL747-1
 17483 197b 0100     		.2byte	0x1
 17484 197d 50       		.byte	0x50
 17485 197e 49020000 		.4byte	.LVL747-1
 17486 1982 52020000 		.4byte	.LVL749
ARM GAS  C:\Users\FRANKL~1\AppData\Local\Temp\ccebBo1q.s 			page 346


 17487 1986 0100     		.2byte	0x1
 17488 1988 54       		.byte	0x54
 17489 1989 00000000 		.4byte	0
 17490 198d 00000000 		.4byte	0
 17491              	.LLST172:
 17492 1991 9A020000 		.4byte	.LVL759
 17493 1995 9D020000 		.4byte	.LVL760-1
 17494 1999 0100     		.2byte	0x1
 17495 199b 50       		.byte	0x50
 17496 199c 9D020000 		.4byte	.LVL760-1
 17497 19a0 A6020000 		.4byte	.LVL762
 17498 19a4 0100     		.2byte	0x1
 17499 19a6 54       		.byte	0x54
 17500 19a7 00000000 		.4byte	0
 17501 19ab 00000000 		.4byte	0
 17502              	.LLST173:
 17503 19af EC030000 		.4byte	.LVL785
 17504 19b3 2E040000 		.4byte	.LVL792
 17505 19b7 0100     		.2byte	0x1
 17506 19b9 56       		.byte	0x56
 17507 19ba 00000000 		.4byte	0
 17508 19be 00000000 		.4byte	0
 17509              	.LLST174:
 17510 19c2 F6030000 		.4byte	.LVL786
 17511 19c6 FE030000 		.4byte	.LVL787
 17512 19ca 0100     		.2byte	0x1
 17513 19cc 50       		.byte	0x50
 17514 19cd FE030000 		.4byte	.LVL787
 17515 19d1 01040000 		.4byte	.LVL788-1
 17516 19d5 0100     		.2byte	0x1
 17517 19d7 51       		.byte	0x51
 17518 19d8 00000000 		.4byte	0
 17519 19dc 00000000 		.4byte	0
 17520              	.LLST175:
 17521 19e0 84040000 		.4byte	.LVL800
 17522 19e4 CC040000 		.4byte	.LVL807
 17523 19e8 0100     		.2byte	0x1
 17524 19ea 56       		.byte	0x56
 17525 19eb 00000000 		.4byte	0
 17526 19ef 00000000 		.4byte	0
 17527              	.LLST176:
 17528 19f3 8E040000 		.4byte	.LVL801
 17529 19f7 96040000 		.4byte	.LVL802
 17530 19fb 0100     		.2byte	0x1
 17531 19fd 50       		.byte	0x50
 17532 19fe 96040000 		.4byte	.LVL802
 17533 1a02 99040000 		.4byte	.LVL803-1
 17534 1a06 0100     		.2byte	0x1
 17535 1a08 51       		.byte	0x51
 17536 1a09 00000000 		.4byte	0
 17537 1a0d 00000000 		.4byte	0
 17538              	.LLST177:
 17539 1a11 26050000 		.4byte	.LVL815
 17540 1a15 3E050000 		.4byte	.LVL819
 17541 1a19 0100     		.2byte	0x1
 17542 1a1b 56       		.byte	0x56
 17543 1a1c 00000000 		.4byte	0
ARM GAS  C:\Users\FRANKL~1\AppData\Local\Temp\ccebBo1q.s 			page 347


 17544 1a20 00000000 		.4byte	0
 17545              	.LLST178:
 17546 1a24 30050000 		.4byte	.LVL816
 17547 1a28 38050000 		.4byte	.LVL817
 17548 1a2c 0100     		.2byte	0x1
 17549 1a2e 50       		.byte	0x50
 17550 1a2f 38050000 		.4byte	.LVL817
 17551 1a33 3B050000 		.4byte	.LVL818-1
 17552 1a37 0100     		.2byte	0x1
 17553 1a39 51       		.byte	0x51
 17554 1a3a 00000000 		.4byte	0
 17555 1a3e 00000000 		.4byte	0
 17556              	.LLST179:
 17557 1a42 98050000 		.4byte	.LVL828
 17558 1a46 D0050000 		.4byte	.LVL836
 17559 1a4a 0100     		.2byte	0x1
 17560 1a4c 55       		.byte	0x55
 17561 1a4d 00000000 		.4byte	0
 17562 1a51 00000000 		.4byte	0
 17563              	.LLST180:
 17564 1a55 A4050000 		.4byte	.LVL830
 17565 1a59 D0050000 		.4byte	.LVL836
 17566 1a5d 0100     		.2byte	0x1
 17567 1a5f 56       		.byte	0x56
 17568 1a60 00000000 		.4byte	0
 17569 1a64 00000000 		.4byte	0
 17570              	.LLST181:
 17571 1a68 F4050000 		.4byte	.LVL841
 17572 1a6c 2C060000 		.4byte	.LVL849
 17573 1a70 0100     		.2byte	0x1
 17574 1a72 55       		.byte	0x55
 17575 1a73 00000000 		.4byte	0
 17576 1a77 00000000 		.4byte	0
 17577              	.LLST182:
 17578 1a7b 00060000 		.4byte	.LVL843
 17579 1a7f 2C060000 		.4byte	.LVL849
 17580 1a83 0100     		.2byte	0x1
 17581 1a85 56       		.byte	0x56
 17582 1a86 00000000 		.4byte	0
 17583 1a8a 00000000 		.4byte	0
 17584              	.LLST183:
 17585 1a8e 50060000 		.4byte	.LVL854
 17586 1a92 88060000 		.4byte	.LVL862
 17587 1a96 0100     		.2byte	0x1
 17588 1a98 55       		.byte	0x55
 17589 1a99 00000000 		.4byte	0
 17590 1a9d 00000000 		.4byte	0
 17591              	.LLST184:
 17592 1aa1 5C060000 		.4byte	.LVL856
 17593 1aa5 88060000 		.4byte	.LVL862
 17594 1aa9 0100     		.2byte	0x1
 17595 1aab 56       		.byte	0x56
 17596 1aac 00000000 		.4byte	0
 17597 1ab0 00000000 		.4byte	0
 17598              	.LLST185:
 17599 1ab4 AA060000 		.4byte	.LVL866
 17600 1ab8 1C070000 		.4byte	.LVL873
ARM GAS  C:\Users\FRANKL~1\AppData\Local\Temp\ccebBo1q.s 			page 348


 17601 1abc 0100     		.2byte	0x1
 17602 1abe 55       		.byte	0x55
 17603 1abf 00000000 		.4byte	0
 17604 1ac3 00000000 		.4byte	0
 17605              	.LLST186:
 17606 1ac7 7E070000 		.4byte	.LVL884
 17607 1acb A6070000 		.4byte	.LVL891
 17608 1acf 0100     		.2byte	0x1
 17609 1ad1 55       		.byte	0x55
 17610 1ad2 00000000 		.4byte	0
 17611 1ad6 00000000 		.4byte	0
 17612              	.LLST187:
 17613 1ada C8070000 		.4byte	.LVL895
 17614 1ade F0070000 		.4byte	.LVL902
 17615 1ae2 0100     		.2byte	0x1
 17616 1ae4 55       		.byte	0x55
 17617 1ae5 00000000 		.4byte	0
 17618 1ae9 00000000 		.4byte	0
 17619              	.LLST188:
 17620 1aed 4C080000 		.4byte	.LVL912
 17621 1af1 58080000 		.4byte	.LVL914
 17622 1af5 0100     		.2byte	0x1
 17623 1af7 50       		.byte	0x50
 17624 1af8 00000000 		.4byte	0
 17625 1afc 00000000 		.4byte	0
 17626              		.section	.debug_aranges,"",%progbits
 17627 0000 BC010000 		.4byte	0x1bc
 17628 0004 0200     		.2byte	0x2
 17629 0006 00000000 		.4byte	.Ldebug_info0
 17630 000a 04       		.byte	0x4
 17631 000b 00       		.byte	0
 17632 000c 0000     		.2byte	0
 17633 000e 0000     		.2byte	0
 17634 0010 00000000 		.4byte	.LFB64
 17635 0014 18000000 		.4byte	.LFE64-.LFB64
 17636 0018 00000000 		.4byte	.LFB65
 17637 001c 1E000000 		.4byte	.LFE65-.LFB65
 17638 0020 00000000 		.4byte	.LFB115
 17639 0024 B0010000 		.4byte	.LFE115-.LFB115
 17640 0028 00000000 		.4byte	.LFB66
 17641 002c 50000000 		.4byte	.LFE66-.LFB66
 17642 0030 00000000 		.4byte	.LFB67
 17643 0034 24000000 		.4byte	.LFE67-.LFB67
 17644 0038 00000000 		.4byte	.LFB68
 17645 003c 16000000 		.4byte	.LFE68-.LFB68
 17646 0040 00000000 		.4byte	.LFB69
 17647 0044 58000000 		.4byte	.LFE69-.LFB69
 17648 0048 00000000 		.4byte	.LFB70
 17649 004c 32000000 		.4byte	.LFE70-.LFB70
 17650 0050 00000000 		.4byte	.LFB71
 17651 0054 90010000 		.4byte	.LFE71-.LFB71
 17652 0058 00000000 		.4byte	.LFB72
 17653 005c 3C000000 		.4byte	.LFE72-.LFB72
 17654 0060 00000000 		.4byte	.LFB73
 17655 0064 2C000000 		.4byte	.LFE73-.LFB73
 17656 0068 00000000 		.4byte	.LFB74
 17657 006c 32000000 		.4byte	.LFE74-.LFB74
ARM GAS  C:\Users\FRANKL~1\AppData\Local\Temp\ccebBo1q.s 			page 349


 17658 0070 00000000 		.4byte	.LFB75
 17659 0074 40000000 		.4byte	.LFE75-.LFB75
 17660 0078 00000000 		.4byte	.LFB76
 17661 007c 40000000 		.4byte	.LFE76-.LFB76
 17662 0080 00000000 		.4byte	.LFB77
 17663 0084 34000000 		.4byte	.LFE77-.LFB77
 17664 0088 00000000 		.4byte	.LFB78
 17665 008c 2C000000 		.4byte	.LFE78-.LFB78
 17666 0090 00000000 		.4byte	.LFB79
 17667 0094 38000000 		.4byte	.LFE79-.LFB79
 17668 0098 00000000 		.4byte	.LFB80
 17669 009c 16000000 		.4byte	.LFE80-.LFB80
 17670 00a0 00000000 		.4byte	.LFB81
 17671 00a4 18000000 		.4byte	.LFE81-.LFB81
 17672 00a8 00000000 		.4byte	.LFB82
 17673 00ac 18000000 		.4byte	.LFE82-.LFB82
 17674 00b0 00000000 		.4byte	.LFB83
 17675 00b4 14000000 		.4byte	.LFE83-.LFB83
 17676 00b8 00000000 		.4byte	.LFB84
 17677 00bc 32000000 		.4byte	.LFE84-.LFB84
 17678 00c0 00000000 		.4byte	.LFB85
 17679 00c4 32000000 		.4byte	.LFE85-.LFB85
 17680 00c8 00000000 		.4byte	.LFB86
 17681 00cc F4000000 		.4byte	.LFE86-.LFB86
 17682 00d0 00000000 		.4byte	.LFB87
 17683 00d4 54000000 		.4byte	.LFE87-.LFB87
 17684 00d8 00000000 		.4byte	.LFB88
 17685 00dc B6000000 		.4byte	.LFE88-.LFB88
 17686 00e0 00000000 		.4byte	.LFB89
 17687 00e4 B6000000 		.4byte	.LFE89-.LFB89
 17688 00e8 00000000 		.4byte	.LFB90
 17689 00ec 90010000 		.4byte	.LFE90-.LFB90
 17690 00f0 00000000 		.4byte	.LFB91
 17691 00f4 5C000000 		.4byte	.LFE91-.LFB91
 17692 00f8 00000000 		.4byte	.LFB92
 17693 00fc 68000000 		.4byte	.LFE92-.LFB92
 17694 0100 00000000 		.4byte	.LFB93
 17695 0104 30000000 		.4byte	.LFE93-.LFB93
 17696 0108 00000000 		.4byte	.LFB94
 17697 010c 48000000 		.4byte	.LFE94-.LFB94
 17698 0110 00000000 		.4byte	.LFB95
 17699 0114 48000000 		.4byte	.LFE95-.LFB95
 17700 0118 00000000 		.4byte	.LFB96
 17701 011c 78000000 		.4byte	.LFE96-.LFB96
 17702 0120 00000000 		.4byte	.LFB97
 17703 0124 78000000 		.4byte	.LFE97-.LFB97
 17704 0128 00000000 		.4byte	.LFB98
 17705 012c C0000000 		.4byte	.LFE98-.LFB98
 17706 0130 00000000 		.4byte	.LFB99
 17707 0134 C8000000 		.4byte	.LFE99-.LFB99
 17708 0138 00000000 		.4byte	.LFB100
 17709 013c C8000000 		.4byte	.LFE100-.LFB100
 17710 0140 00000000 		.4byte	.LFB101
 17711 0144 38000000 		.4byte	.LFE101-.LFB101
 17712 0148 00000000 		.4byte	.LFB102
 17713 014c 38000000 		.4byte	.LFE102-.LFB102
 17714 0150 00000000 		.4byte	.LFB103
ARM GAS  C:\Users\FRANKL~1\AppData\Local\Temp\ccebBo1q.s 			page 350


 17715 0154 14000000 		.4byte	.LFE103-.LFB103
 17716 0158 00000000 		.4byte	.LFB104
 17717 015c 14000000 		.4byte	.LFE104-.LFB104
 17718 0160 00000000 		.4byte	.LFB105
 17719 0164 1C000000 		.4byte	.LFE105-.LFB105
 17720 0168 00000000 		.4byte	.LFB106
 17721 016c D0000000 		.4byte	.LFE106-.LFB106
 17722 0170 00000000 		.4byte	.LFB107
 17723 0174 6C000000 		.4byte	.LFE107-.LFB107
 17724 0178 00000000 		.4byte	.LFB108
 17725 017c 1A000000 		.4byte	.LFE108-.LFB108
 17726 0180 00000000 		.4byte	.LFB109
 17727 0184 2C000000 		.4byte	.LFE109-.LFB109
 17728 0188 00000000 		.4byte	.LFB110
 17729 018c AC000000 		.4byte	.LFE110-.LFB110
 17730 0190 00000000 		.4byte	.LFB111
 17731 0194 84000000 		.4byte	.LFE111-.LFB111
 17732 0198 00000000 		.4byte	.LFB112
 17733 019c 98000000 		.4byte	.LFE112-.LFB112
 17734 01a0 00000000 		.4byte	.LFB113
 17735 01a4 90000000 		.4byte	.LFE113-.LFB113
 17736 01a8 00000000 		.4byte	.LFB114
 17737 01ac A4000000 		.4byte	.LFE114-.LFB114
 17738 01b0 00000000 		.4byte	.LFB116
 17739 01b4 E8080000 		.4byte	.LFE116-.LFB116
 17740 01b8 00000000 		.4byte	0
 17741 01bc 00000000 		.4byte	0
 17742              		.section	.debug_ranges,"",%progbits
 17743              	.Ldebug_ranges0:
 17744 0000 08000000 		.4byte	.LBB6
 17745 0004 16000000 		.4byte	.LBE6
 17746 0008 1E000000 		.4byte	.LBB7
 17747 000c 22000000 		.4byte	.LBE7
 17748 0010 00000000 		.4byte	0
 17749 0014 00000000 		.4byte	0
 17750 0018 06000000 		.4byte	.LBB17
 17751 001c 1A000000 		.4byte	.LBE17
 17752 0020 1C000000 		.4byte	.LBB18
 17753 0024 20000000 		.4byte	.LBE18
 17754 0028 00000000 		.4byte	0
 17755 002c 00000000 		.4byte	0
 17756 0030 28000000 		.4byte	.LBB23
 17757 0034 2A000000 		.4byte	.LBE23
 17758 0038 30000000 		.4byte	.LBB28
 17759 003c DE000000 		.4byte	.LBE28
 17760 0040 00000000 		.4byte	0
 17761 0044 00000000 		.4byte	0
 17762 0048 32000000 		.4byte	.LBB24
 17763 004c 52000000 		.4byte	.LBE24
 17764 0050 56000000 		.4byte	.LBB27
 17765 0054 D8000000 		.4byte	.LBE27
 17766 0058 00000000 		.4byte	0
 17767 005c 00000000 		.4byte	0
 17768 0060 32000000 		.4byte	.LBB25
 17769 0064 52000000 		.4byte	.LBE25
 17770 0068 56000000 		.4byte	.LBB26
 17771 006c 5A000000 		.4byte	.LBE26
ARM GAS  C:\Users\FRANKL~1\AppData\Local\Temp\ccebBo1q.s 			page 351


 17772 0070 00000000 		.4byte	0
 17773 0074 00000000 		.4byte	0
 17774 0078 0C000000 		.4byte	.LBB29
 17775 007c 0E000000 		.4byte	.LBE29
 17776 0080 14000000 		.4byte	.LBB31
 17777 0084 A6000000 		.4byte	.LBE31
 17778 0088 00000000 		.4byte	0
 17779 008c 00000000 		.4byte	0
 17780 0090 0C000000 		.4byte	.LBB32
 17781 0094 0E000000 		.4byte	.LBE32
 17782 0098 14000000 		.4byte	.LBB34
 17783 009c A6000000 		.4byte	.LBE34
 17784 00a0 00000000 		.4byte	0
 17785 00a4 00000000 		.4byte	0
 17786 00a8 5C000000 		.4byte	.LBB35
 17787 00ac 22010000 		.4byte	.LBE35
 17788 00b0 2A010000 		.4byte	.LBB36
 17789 00b4 30010000 		.4byte	.LBE36
 17790 00b8 00000000 		.4byte	0
 17791 00bc 00000000 		.4byte	0
 17792 00c0 2E000000 		.4byte	.LBB40
 17793 00c4 40000000 		.4byte	.LBE40
 17794 00c8 42000000 		.4byte	.LBB41
 17795 00cc 46000000 		.4byte	.LBE41
 17796 00d0 00000000 		.4byte	0
 17797 00d4 00000000 		.4byte	0
 17798 00d8 2E000000 		.4byte	.LBB43
 17799 00dc 40000000 		.4byte	.LBE43
 17800 00e0 42000000 		.4byte	.LBB44
 17801 00e4 46000000 		.4byte	.LBE44
 17802 00e8 00000000 		.4byte	0
 17803 00ec 00000000 		.4byte	0
 17804 00f0 1A000000 		.4byte	.LBB50
 17805 00f4 20000000 		.4byte	.LBE50
 17806 00f8 28000000 		.4byte	.LBB57
 17807 00fc A0000000 		.4byte	.LBE57
 17808 0100 00000000 		.4byte	0
 17809 0104 00000000 		.4byte	0
 17810 0108 1A000000 		.4byte	.LBB51
 17811 010c 20000000 		.4byte	.LBE51
 17812 0110 28000000 		.4byte	.LBB56
 17813 0114 94000000 		.4byte	.LBE56
 17814 0118 00000000 		.4byte	0
 17815 011c 00000000 		.4byte	0
 17816 0120 1A000000 		.4byte	.LBB52
 17817 0124 20000000 		.4byte	.LBE52
 17818 0128 4E000000 		.4byte	.LBB55
 17819 012c 94000000 		.4byte	.LBE55
 17820 0130 00000000 		.4byte	0
 17821 0134 00000000 		.4byte	0
 17822 0138 50000000 		.4byte	.LBB53
 17823 013c 86000000 		.4byte	.LBE53
 17824 0140 88000000 		.4byte	.LBB54
 17825 0144 8C000000 		.4byte	.LBE54
 17826 0148 00000000 		.4byte	0
 17827 014c 00000000 		.4byte	0
 17828 0150 2A000000 		.4byte	.LBB61
ARM GAS  C:\Users\FRANKL~1\AppData\Local\Temp\ccebBo1q.s 			page 352


 17829 0154 60000000 		.4byte	.LBE61
 17830 0158 62000000 		.4byte	.LBB62
 17831 015c 66000000 		.4byte	.LBE62
 17832 0160 00000000 		.4byte	0
 17833 0164 00000000 		.4byte	0
 17834 0168 00000000 		.4byte	.LFB64
 17835 016c 18000000 		.4byte	.LFE64
 17836 0170 00000000 		.4byte	.LFB65
 17837 0174 1E000000 		.4byte	.LFE65
 17838 0178 00000000 		.4byte	.LFB115
 17839 017c B0010000 		.4byte	.LFE115
 17840 0180 00000000 		.4byte	.LFB66
 17841 0184 50000000 		.4byte	.LFE66
 17842 0188 00000000 		.4byte	.LFB67
 17843 018c 24000000 		.4byte	.LFE67
 17844 0190 00000000 		.4byte	.LFB68
 17845 0194 16000000 		.4byte	.LFE68
 17846 0198 00000000 		.4byte	.LFB69
 17847 019c 58000000 		.4byte	.LFE69
 17848 01a0 00000000 		.4byte	.LFB70
 17849 01a4 32000000 		.4byte	.LFE70
 17850 01a8 00000000 		.4byte	.LFB71
 17851 01ac 90010000 		.4byte	.LFE71
 17852 01b0 00000000 		.4byte	.LFB72
 17853 01b4 3C000000 		.4byte	.LFE72
 17854 01b8 00000000 		.4byte	.LFB73
 17855 01bc 2C000000 		.4byte	.LFE73
 17856 01c0 00000000 		.4byte	.LFB74
 17857 01c4 32000000 		.4byte	.LFE74
 17858 01c8 00000000 		.4byte	.LFB75
 17859 01cc 40000000 		.4byte	.LFE75
 17860 01d0 00000000 		.4byte	.LFB76
 17861 01d4 40000000 		.4byte	.LFE76
 17862 01d8 00000000 		.4byte	.LFB77
 17863 01dc 34000000 		.4byte	.LFE77
 17864 01e0 00000000 		.4byte	.LFB78
 17865 01e4 2C000000 		.4byte	.LFE78
 17866 01e8 00000000 		.4byte	.LFB79
 17867 01ec 38000000 		.4byte	.LFE79
 17868 01f0 00000000 		.4byte	.LFB80
 17869 01f4 16000000 		.4byte	.LFE80
 17870 01f8 00000000 		.4byte	.LFB81
 17871 01fc 18000000 		.4byte	.LFE81
 17872 0200 00000000 		.4byte	.LFB82
 17873 0204 18000000 		.4byte	.LFE82
 17874 0208 00000000 		.4byte	.LFB83
 17875 020c 14000000 		.4byte	.LFE83
 17876 0210 00000000 		.4byte	.LFB84
 17877 0214 32000000 		.4byte	.LFE84
 17878 0218 00000000 		.4byte	.LFB85
 17879 021c 32000000 		.4byte	.LFE85
 17880 0220 00000000 		.4byte	.LFB86
 17881 0224 F4000000 		.4byte	.LFE86
 17882 0228 00000000 		.4byte	.LFB87
 17883 022c 54000000 		.4byte	.LFE87
 17884 0230 00000000 		.4byte	.LFB88
 17885 0234 B6000000 		.4byte	.LFE88
ARM GAS  C:\Users\FRANKL~1\AppData\Local\Temp\ccebBo1q.s 			page 353


 17886 0238 00000000 		.4byte	.LFB89
 17887 023c B6000000 		.4byte	.LFE89
 17888 0240 00000000 		.4byte	.LFB90
 17889 0244 90010000 		.4byte	.LFE90
 17890 0248 00000000 		.4byte	.LFB91
 17891 024c 5C000000 		.4byte	.LFE91
 17892 0250 00000000 		.4byte	.LFB92
 17893 0254 68000000 		.4byte	.LFE92
 17894 0258 00000000 		.4byte	.LFB93
 17895 025c 30000000 		.4byte	.LFE93
 17896 0260 00000000 		.4byte	.LFB94
 17897 0264 48000000 		.4byte	.LFE94
 17898 0268 00000000 		.4byte	.LFB95
 17899 026c 48000000 		.4byte	.LFE95
 17900 0270 00000000 		.4byte	.LFB96
 17901 0274 78000000 		.4byte	.LFE96
 17902 0278 00000000 		.4byte	.LFB97
 17903 027c 78000000 		.4byte	.LFE97
 17904 0280 00000000 		.4byte	.LFB98
 17905 0284 C0000000 		.4byte	.LFE98
 17906 0288 00000000 		.4byte	.LFB99
 17907 028c C8000000 		.4byte	.LFE99
 17908 0290 00000000 		.4byte	.LFB100
 17909 0294 C8000000 		.4byte	.LFE100
 17910 0298 00000000 		.4byte	.LFB101
 17911 029c 38000000 		.4byte	.LFE101
 17912 02a0 00000000 		.4byte	.LFB102
 17913 02a4 38000000 		.4byte	.LFE102
 17914 02a8 00000000 		.4byte	.LFB103
 17915 02ac 14000000 		.4byte	.LFE103
 17916 02b0 00000000 		.4byte	.LFB104
 17917 02b4 14000000 		.4byte	.LFE104
 17918 02b8 00000000 		.4byte	.LFB105
 17919 02bc 1C000000 		.4byte	.LFE105
 17920 02c0 00000000 		.4byte	.LFB106
 17921 02c4 D0000000 		.4byte	.LFE106
 17922 02c8 00000000 		.4byte	.LFB107
 17923 02cc 6C000000 		.4byte	.LFE107
 17924 02d0 00000000 		.4byte	.LFB108
 17925 02d4 1A000000 		.4byte	.LFE108
 17926 02d8 00000000 		.4byte	.LFB109
 17927 02dc 2C000000 		.4byte	.LFE109
 17928 02e0 00000000 		.4byte	.LFB110
 17929 02e4 AC000000 		.4byte	.LFE110
 17930 02e8 00000000 		.4byte	.LFB111
 17931 02ec 84000000 		.4byte	.LFE111
 17932 02f0 00000000 		.4byte	.LFB112
 17933 02f4 98000000 		.4byte	.LFE112
 17934 02f8 00000000 		.4byte	.LFB113
 17935 02fc 90000000 		.4byte	.LFE113
 17936 0300 00000000 		.4byte	.LFB114
 17937 0304 A4000000 		.4byte	.LFE114
 17938 0308 00000000 		.4byte	.LFB116
 17939 030c E8080000 		.4byte	.LFE116
 17940 0310 00000000 		.4byte	0
 17941 0314 00000000 		.4byte	0
 17942              		.section	.debug_line,"",%progbits
ARM GAS  C:\Users\FRANKL~1\AppData\Local\Temp\ccebBo1q.s 			page 354


 17943              	.Ldebug_line0:
 17944 0000 B50E0000 		.section	.debug_str,"MS",%progbits,1
 17944      0200E002 
 17944      00000201 
 17944      FB0E0D00 
 17944      01010101 
 17945              	.LASF58:
 17946 0000 696E7465 		.ascii	"intermediate\000"
 17946      726D6564 
 17946      69617465 
 17946      00
 17947              	.LASF11:
 17948 000d 73697A65 		.ascii	"sizetype\000"
 17948      74797065 
 17948      00
 17949              	.LASF124:
 17950 0016 6162736F 		.ascii	"absolute\000"
 17950      6C757465 
 17950      00
 17951              	.LASF68:
 17952 001f 5449415F 		.ascii	"TIA_Set_Resistor\000"
 17952      5365745F 
 17952      52657369 
 17952      73746F72 
 17952      00
 17953              	.LASF87:
 17954 0030 4144435F 		.ascii	"ADC_Adjust_Range\000"
 17954      41646A75 
 17954      73745F52 
 17954      616E6765 
 17954      00
 17955              	.LASF223:
 17956 0041 4144435F 		.ascii	"ADC_DelSig_1_StartConvert\000"
 17956      44656C53 
 17956      69675F31 
 17956      5F537461 
 17956      7274436F 
 17957              	.LASF38:
 17958 005b 74726965 		.ascii	"tries\000"
 17958      7300
 17959              	.LASF14:
 17960 0061 696E7433 		.ascii	"int32_t\000"
 17960      325F7400 
 17961              	.LASF249:
 17962 0069 4F70616D 		.ascii	"Opamp_1_Start\000"
 17962      705F315F 
 17962      53746172 
 17962      7400
 17963              	.LASF257:
 17964 0077 5449415F 		.ascii	"TIA_resistor\000"
 17964      72657369 
 17964      73746F72 
 17964      00
 17965              	.LASF113:
 17966 0084 4765745F 		.ascii	"Get_Ref\000"
 17966      52656600 
 17967              	.LASF17:
ARM GAS  C:\Users\FRANKL~1\AppData\Local\Temp\ccebBo1q.s 			page 355


 17968 008c 75696E74 		.ascii	"uint32\000"
 17968      333200
 17969              	.LASF25:
 17970 0093 77726974 		.ascii	"write\000"
 17970      6500
 17971              	.LASF108:
 17972 0099 63757272 		.ascii	"currentSD\000"
 17972      656E7453 
 17972      4400
 17973              	.LASF66:
 17974 00a3 436F6E6E 		.ascii	"Connect_Intermediate\000"
 17974      6563745F 
 17974      496E7465 
 17974      726D6564 
 17974      69617465 
 17975              	.LASF89:
 17976 00b8 4144435F 		.ascii	"ADC_Voltage_SD\000"
 17976      566F6C74 
 17976      6167655F 
 17976      534400
 17977              	.LASF151:
 17978 00c7 64697265 		.ascii	"direction\000"
 17978      6374696F 
 17978      6E00
 17979              	.LASF123:
 17980 00d1 5365745F 		.ascii	"Set_Vds_Rel\000"
 17980      5664735F 
 17980      52656C00 
 17981              	.LASF148:
 17982 00dd 56677369 		.ascii	"Vgsi\000"
 17982      00
 17983              	.LASF78:
 17984 00e2 61766572 		.ascii	"average\000"
 17984      61676500 
 17985              	.LASF44:
 17986 00ea 55534255 		.ascii	"USBUARTH_Send\000"
 17986      41525448 
 17986      5F53656E 
 17986      6400
 17987              	.LASF195:
 17988 00f8 5449415F 		.ascii	"TIA_Resistor_Values\000"
 17988      52657369 
 17988      73746F72 
 17988      5F56616C 
 17988      75657300 
 17989              	.LASF218:
 17990 010c 4932435F 		.ascii	"I2C_1_Start\000"
 17990      315F5374 
 17990      61727400 
 17991              	.LASF191:
 17992 0118 55534255 		.ascii	"USBUART_Receive_Buffer\000"
 17992      4152545F 
 17992      52656365 
 17992      6976655F 
 17992      42756666 
 17993              	.LASF187:
 17994 012f 475F4272 		.ascii	"G_Break\000"
ARM GAS  C:\Users\FRANKL~1\AppData\Local\Temp\ccebBo1q.s 			page 356


 17994      65616B00 
 17995              	.LASF164:
 17996 0137 67617465 		.ascii	"gateIndex\000"
 17996      496E6465 
 17996      7800
 17997              	.LASF119:
 17998 0141 5365745F 		.ascii	"Set_Vgs_Raw\000"
 17998      5667735F 
 17998      52617700 
 17999              	.LASF103:
 18000 014d 5449415F 		.ascii	"TIA_Feedback_R\000"
 18000      46656564 
 18000      6261636B 
 18000      5F5200
 18001              	.LASF18:
 18002 015c 696E7438 		.ascii	"int8\000"
 18002      00
 18003              	.LASF200:
 18004 0161 43757272 		.ascii	"Current_Measurement_Sample_Count\000"
 18004      656E745F 
 18004      4D656173 
 18004      7572656D 
 18004      656E745F 
 18005              	.LASF217:
 18006 0182 4932435F 		.ascii	"I2C_1_Stop\000"
 18006      315F5374 
 18006      6F7000
 18007              	.LASF93:
 18008 018d 53415231 		.ascii	"SAR1_Result_Current\000"
 18008      5F526573 
 18008      756C745F 
 18008      43757272 
 18008      656E7400 
 18009              	.LASF64:
 18010 01a1 44697363 		.ascii	"Disconnect_All_Contacts_From_All_Intermediates\000"
 18010      6F6E6E65 
 18010      63745F41 
 18010      6C6C5F43 
 18010      6F6E7461 
 18011              	.LASF110:
 18012 01d0 69737461 		.ascii	"istart\000"
 18012      727400
 18013              	.LASF77:
 18014 01d7 4144435F 		.ascii	"ADC_Measure_uV\000"
 18014      4D656173 
 18014      7572655F 
 18014      755600
 18015              	.LASF102:
 18016 01e6 63757272 		.ascii	"currentStdDev\000"
 18016      656E7453 
 18016      74644465 
 18016      7600
 18017              	.LASF135:
 18018 01f4 5365745F 		.ascii	"Set_Vds_mV\000"
 18018      5664735F 
 18018      6D5600
 18019              	.LASF114:
ARM GAS  C:\Users\FRANKL~1\AppData\Local\Temp\ccebBo1q.s 			page 357


 18020 01ff 72657375 		.ascii	"result\000"
 18020      6C7400
 18021              	.LASF252:
 18022 0206 436F6D6D 		.ascii	"CommunicationInterrupt_StartEx\000"
 18022      756E6963 
 18022      6174696F 
 18022      6E496E74 
 18022      65727275 
 18023              	.LASF8:
 18024 0225 6C6F6E67 		.ascii	"long int\000"
 18024      20696E74 
 18024      00
 18025              	.LASF160:
 18026 022e 72656641 		.ascii	"refArrived\000"
 18026      72726976 
 18026      656400
 18027              	.LASF241:
 18028 0239 55415254 		.ascii	"UART_1_Start\000"
 18028      5F315F53 
 18028      74617274 
 18028      00
 18029              	.LASF96:
 18030 0246 4D656173 		.ascii	"Measure_Current_Vss\000"
 18030      7572655F 
 18030      43757272 
 18030      656E745F 
 18030      56737300 
 18031              	.LASF259:
 18032 025a 73747263 		.ascii	"strchr\000"
 18032      687200
 18033              	.LASF28:
 18034 0261 5232304B 		.ascii	"R20K\000"
 18034      00
 18035              	.LASF258:
 18036 0266 6D61696E 		.ascii	"main\000"
 18036      00
 18037              	.LASF84:
 18038 026b 6D656469 		.ascii	"medianCount\000"
 18038      616E436F 
 18038      756E7400 
 18039              	.LASF235:
 18040 0277 56444143 		.ascii	"VDAC_Vds_SetValue\000"
 18040      5F566473 
 18040      5F536574 
 18040      56616C75 
 18040      6500
 18041              	.LASF7:
 18042 0289 73686F72 		.ascii	"short unsigned int\000"
 18042      7420756E 
 18042      7369676E 
 18042      65642069 
 18042      6E7400
 18043              	.LASF166:
 18044 029c 5363616E 		.ascii	"Scan\000"
 18044      00
 18045              	.LASF253:
 18046 02a1 474E5520 		.ascii	"GNU C11 5.4.1 20160609 (release) [ARM/embedded-5-br"
ARM GAS  C:\Users\FRANKL~1\AppData\Local\Temp\ccebBo1q.s 			page 358


 18046      43313120 
 18046      352E342E 
 18046      31203230 
 18046      31363036 
 18047 02d4 616E6368 		.ascii	"anch revision 237715] -mcpu=cortex-m3 -mthumb -g -O"
 18047      20726576 
 18047      6973696F 
 18047      6E203233 
 18047      37373135 
 18048 0307 67202D66 		.ascii	"g -ffunction-sections -ffat-lto-objects\000"
 18048      66756E63 
 18048      74696F6E 
 18048      2D736563 
 18048      74696F6E 
 18049              	.LASF55:
 18050 032f 53657475 		.ascii	"Setup_Selectors\000"
 18050      705F5365 
 18050      6C656374 
 18050      6F727300 
 18051              	.LASF35:
 18052 033f 52313030 		.ascii	"R1000K\000"
 18052      304B00
 18053              	.LASF229:
 18054 0346 4144435F 		.ascii	"ADC_SAR_1_GetResult16\000"
 18054      5341525F 
 18054      315F4765 
 18054      74526573 
 18054      756C7431 
 18055              	.LASF50:
 18056 035c 53657475 		.ascii	"Setup_Selector_I2C_Struct\000"
 18056      705F5365 
 18056      6C656374 
 18056      6F725F49 
 18056      32435F53 
 18057              	.LASF4:
 18058 0376 7369676E 		.ascii	"signed char\000"
 18058      65642063 
 18058      68617200 
 18059              	.LASF256:
 18060 0382 53656C65 		.ascii	"Selector_I2C_Struct\000"
 18060      63746F72 
 18060      5F493243 
 18060      5F537472 
 18060      75637400 
 18061              	.LASF227:
 18062 0396 4144435F 		.ascii	"ADC_SAR_1_StartConvert\000"
 18062      5341525F 
 18062      315F5374 
 18062      61727443 
 18062      6F6E7665 
 18063              	.LASF5:
 18064 03ad 756E7369 		.ascii	"unsigned char\000"
 18064      676E6564 
 18064      20636861 
 18064      7200
 18065              	.LASF112:
 18066 03bb 696E6372 		.ascii	"increment\000"
ARM GAS  C:\Users\FRANKL~1\AppData\Local\Temp\ccebBo1q.s 			page 359


 18066      656D656E 
 18066      7400
 18067              	.LASF138:
 18068 03c5 63757272 		.ascii	"current_range_resistor\000"
 18068      656E745F 
 18068      72616E67 
 18068      655F7265 
 18068      73697374 
 18069              	.LASF46:
 18070 03dc 55534255 		.ascii	"USBUARTH_GetChar\000"
 18070      41525448 
 18070      5F476574 
 18070      43686172 
 18070      00
 18071              	.LASF180:
 18072 03ed 5667735F 		.ascii	"Vgs_mV\000"
 18072      6D5600
 18073              	.LASF130:
 18074 03f4 5365745F 		.ascii	"Set_Vgs_Rel\000"
 18074      5667735F 
 18074      52656C00 
 18075              	.LASF118:
 18076 0400 76616C75 		.ascii	"value\000"
 18076      6500
 18077              	.LASF12:
 18078 0406 63686172 		.ascii	"char\000"
 18078      00
 18079              	.LASF215:
 18080 040b 4932435F 		.ascii	"I2C_1_MasterStatus\000"
 18080      315F4D61 
 18080      73746572 
 18080      53746174 
 18080      757300
 18081              	.LASF122:
 18082 041e 6E65775F 		.ascii	"new_Vds\000"
 18082      56647300 
 18083              	.LASF86:
 18084 0426 4144435F 		.ascii	"ADC_Result_Current\000"
 18084      52657375 
 18084      6C745F43 
 18084      75727265 
 18084      6E7400
 18085              	.LASF143:
 18086 0439 53415232 		.ascii	"SAR2_SampleCount\000"
 18086      5F53616D 
 18086      706C6543 
 18086      6F756E74 
 18086      00
 18087              	.LASF105:
 18088 044a 756E6974 		.ascii	"unitConversion\000"
 18088      436F6E76 
 18088      65727369 
 18088      6F6E00
 18089              	.LASF32:
 18090 0459 52313230 		.ascii	"R120K\000"
 18090      4B00
 18091              	.LASF234:
ARM GAS  C:\Users\FRANKL~1\AppData\Local\Temp\ccebBo1q.s 			page 360


 18092 045f 4144435F 		.ascii	"ADC_SAR_2_CountsTo_uVolts\000"
 18092      5341525F 
 18092      325F436F 
 18092      756E7473 
 18092      546F5F75 
 18093              	.LASF147:
 18094 0479 4D656173 		.ascii	"Measure_Sweep\000"
 18094      7572655F 
 18094      53776565 
 18094      7000
 18095              	.LASF159:
 18096 0487 72656649 		.ascii	"refIndex\000"
 18096      6E646578 
 18096      00
 18097              	.LASF73:
 18098 0490 61727261 		.ascii	"array\000"
 18098      7900
 18099              	.LASF104:
 18100 0496 5449415F 		.ascii	"TIA_Offset_uV\000"
 18100      4F666673 
 18100      65745F75 
 18100      5600
 18101              	.LASF136:
 18102 04a4 5A65726F 		.ascii	"Zero_All_DACs\000"
 18102      5F416C6C 
 18102      5F444143 
 18102      7300
 18103              	.LASF230:
 18104 04b2 4144435F 		.ascii	"ADC_SAR_1_CountsTo_uVolts\000"
 18104      5341525F 
 18104      315F436F 
 18104      756E7473 
 18104      546F5F75 
 18105              	.LASF42:
 18106 04cc 62756666 		.ascii	"buffer\000"
 18106      657200
 18107              	.LASF97:
 18108 04d3 63757272 		.ascii	"currentAverageIn\000"
 18108      656E7441 
 18108      76657261 
 18108      6765496E 
 18108      00
 18109              	.LASF39:
 18110 04e4 74656D70 		.ascii	"temp_buffer\000"
 18110      5F627566 
 18110      66657200 
 18111              	.LASF29:
 18112 04f0 5233304B 		.ascii	"R30K\000"
 18112      00
 18113              	.LASF226:
 18114 04f5 4144435F 		.ascii	"ADC_DelSig_1_CountsTo_uVolts\000"
 18114      44656C53 
 18114      69675F31 
 18114      5F436F75 
 18114      6E747354 
 18115              	.LASF82:
 18116 0512 4144435F 		.ascii	"ADC_SD\000"
ARM GAS  C:\Users\FRANKL~1\AppData\Local\Temp\ccebBo1q.s 			page 361


 18116      534400
 18117              	.LASF185:
 18118 0519 6E657744 		.ascii	"newData\000"
 18118      61746100 
 18119              	.LASF121:
 18120 0521 6E65775F 		.ascii	"new_Vgs\000"
 18120      56677300 
 18121              	.LASF31:
 18122 0529 5238304B 		.ascii	"R80K\000"
 18122      00
 18123              	.LASF240:
 18124 052e 55534255 		.ascii	"USBUART_Start\000"
 18124      4152545F 
 18124      53746172 
 18124      7400
 18125              	.LASF91:
 18126 053c 5341525F 		.ascii	"SAR_Result\000"
 18126      52657375 
 18126      6C7400
 18127              	.LASF120:
 18128 0547 5365745F 		.ascii	"Set_Ref_Raw\000"
 18128      5265665F 
 18128      52617700 
 18129              	.LASF48:
 18130 0553 6D61784C 		.ascii	"maxLength\000"
 18130      656E6774 
 18130      6800
 18131              	.LASF205:
 18132 055d 55534255 		.ascii	"USBUART_GetAll\000"
 18132      4152545F 
 18132      47657441 
 18132      6C6C00
 18133              	.LASF33:
 18134 056c 52323530 		.ascii	"R250K\000"
 18134      4B00
 18135              	.LASF193:
 18136 0572 5449415F 		.ascii	"TIA_Selected_Resistor\000"
 18136      53656C65 
 18136      63746564 
 18136      5F526573 
 18136      6973746F 
 18137              	.LASF9:
 18138 0588 6C6F6E67 		.ascii	"long unsigned int\000"
 18138      20756E73 
 18138      69676E65 
 18138      6420696E 
 18138      7400
 18139              	.LASF127:
 18140 059a 5667735F 		.ascii	"Vgs_minRefRaw\000"
 18140      6D696E52 
 18140      65665261 
 18140      7700
 18141              	.LASF132:
 18142 05a8 766F6C74 		.ascii	"voltage\000"
 18142      61676500 
 18143              	.LASF57:
 18144 05b0 6368616E 		.ascii	"channel\000"
ARM GAS  C:\Users\FRANKL~1\AppData\Local\Temp\ccebBo1q.s 			page 362


 18144      6E656C00 
 18145              	.LASF236:
 18146 05b8 56444143 		.ascii	"VDAC_Vgs_SetValue\000"
 18146      5F566773 
 18146      5F536574 
 18146      56616C75 
 18146      6500
 18147              	.LASF139:
 18148 05ca 766F6C74 		.ascii	"voltageSD\000"
 18148      61676553 
 18148      4400
 18149              	.LASF92:
 18150 05d4 5341525F 		.ascii	"SAR_SD\000"
 18150      534400
 18151              	.LASF88:
 18152 05db 4144435F 		.ascii	"ADC_Voltage\000"
 18152      566F6C74 
 18152      61676500 
 18153              	.LASF125:
 18154 05e7 5664735F 		.ascii	"Vds_minRefRaw\000"
 18154      6D696E52 
 18154      65665261 
 18154      7700
 18155              	.LASF199:
 18156 05f5 5664735F 		.ascii	"Vds_Index_Goal_Relative\000"
 18156      496E6465 
 18156      785F476F 
 18156      616C5F52 
 18156      656C6174 
 18157              	.LASF219:
 18158 060d 73707269 		.ascii	"sprintf\000"
 18158      6E746600 
 18159              	.LASF111:
 18160 0615 6973746F 		.ascii	"istop\000"
 18160      7000
 18161              	.LASF101:
 18162 061b 63757272 		.ascii	"currentAverage\000"
 18162      656E7441 
 18162      76657261 
 18162      676500
 18163              	.LASF149:
 18164 062a 4D656173 		.ascii	"Measure_Gate_Sweep\000"
 18164      7572655F 
 18164      47617465 
 18164      5F537765 
 18164      657000
 18165              	.LASF176:
 18166 063d 6C6F6361 		.ascii	"location\000"
 18166      74696F6E 
 18166      00
 18167              	.LASF71:
 18168 0646 4144435F 		.ascii	"ADC_Decrease_Range\000"
 18168      44656372 
 18168      65617365 
 18168      5F52616E 
 18168      676500
 18169              	.LASF225:
ARM GAS  C:\Users\FRANKL~1\AppData\Local\Temp\ccebBo1q.s 			page 363


 18170 0659 4144435F 		.ascii	"ADC_DelSig_1_GetResult32\000"
 18170      44656C53 
 18170      69675F31 
 18170      5F476574 
 18170      52657375 
 18171              	.LASF67:
 18172 0672 436F6E6E 		.ascii	"Connect_Intermediates\000"
 18172      6563745F 
 18172      496E7465 
 18172      726D6564 
 18172      69617465 
 18173              	.LASF161:
 18174 0688 67617465 		.ascii	"gateIncrement\000"
 18174      496E6372 
 18174      656D656E 
 18174      7400
 18175              	.LASF2:
 18176 0696 6C6F6E67 		.ascii	"long long int\000"
 18176      206C6F6E 
 18176      6720696E 
 18176      7400
 18177              	.LASF23:
 18178 06a4 73756241 		.ascii	"subAddress\000"
 18178      64647265 
 18178      737300
 18179              	.LASF21:
 18180 06af 646F7562 		.ascii	"double\000"
 18180      6C6500
 18181              	.LASF254:
 18182 06b6 6D61696E 		.ascii	"main.c\000"
 18182      2E6300
 18183              	.LASF94:
 18184 06bd 53415232 		.ascii	"SAR2_Measure_V\000"
 18184      5F4D6561 
 18184      73757265 
 18184      5F5600
 18185              	.LASF239:
 18186 06cc 73736361 		.ascii	"sscanf\000"
 18186      6E6600
 18187              	.LASF244:
 18188 06d3 56444143 		.ascii	"VDAC_Ref_Start\000"
 18188      5F526566 
 18188      5F537461 
 18188      727400
 18189              	.LASF36:
 18190 06e2 55534255 		.ascii	"USBUARTH_DataIsReady\000"
 18190      41525448 
 18190      5F446174 
 18190      61497352 
 18190      65616479 
 18191              	.LASF49:
 18192 06f7 7465726D 		.ascii	"termination\000"
 18192      696E6174 
 18192      696F6E00 
 18193              	.LASF232:
 18194 0703 4144435F 		.ascii	"ADC_SAR_2_IsEndConversion\000"
 18194      5341525F 
ARM GAS  C:\Users\FRANKL~1\AppData\Local\Temp\ccebBo1q.s 			page 364


 18194      325F4973 
 18194      456E6443 
 18194      6F6E7665 
 18195              	.LASF126:
 18196 071d 5664735F 		.ascii	"Vds_maxRefRaw\000"
 18196      6D617852 
 18196      65665261 
 18196      7700
 18197              	.LASF182:
 18198 072b 49544D5F 		.ascii	"ITM_RxBuffer\000"
 18198      52784275 
 18198      66666572 
 18198      00
 18199              	.LASF53:
 18200 0738 73656C65 		.ascii	"selectori\000"
 18200      63746F72 
 18200      6900
 18201              	.LASF197:
 18202 0742 436F6D70 		.ascii	"Compliance_Reached\000"
 18202      6C69616E 
 18202      63655F52 
 18202      65616368 
 18202      656400
 18203              	.LASF80:
 18204 0755 73616D70 		.ascii	"sampleCount\000"
 18204      6C65436F 
 18204      756E7400 
 18205              	.LASF183:
 18206 0761 73656C65 		.ascii	"selectors\000"
 18206      63746F72 
 18206      7300
 18207              	.LASF43:
 18208 076b 636F756E 		.ascii	"count\000"
 18208      7400
 18209              	.LASF26:
 18210 0771 72656164 		.ascii	"read\000"
 18210      00
 18211              	.LASF109:
 18212 0776 48616E64 		.ascii	"Handle_Compliance_Breach\000"
 18212      6C655F43 
 18212      6F6D706C 
 18212      69616E63 
 18212      655F4272 
 18213              	.LASF247:
 18214 078f 4144435F 		.ascii	"ADC_SAR_1_Start\000"
 18214      5341525F 
 18214      315F5374 
 18214      61727400 
 18215              	.LASF1:
 18216 079f 756E7369 		.ascii	"unsigned int\000"
 18216      676E6564 
 18216      20696E74 
 18216      00
 18217              	.LASF154:
 18218 07ac 4D656173 		.ascii	"Measure_Gate_Sweep_New\000"
 18218      7572655F 
 18218      47617465 
ARM GAS  C:\Users\FRANKL~1\AppData\Local\Temp\ccebBo1q.s 			page 365


 18218      5F537765 
 18218      65705F4E 
 18219              	.LASF228:
 18220 07c3 4144435F 		.ascii	"ADC_SAR_1_IsEndConversion\000"
 18220      5341525F 
 18220      315F4973 
 18220      456E6443 
 18220      6F6E7665 
 18221              	.LASF54:
 18222 07dd 55534255 		.ascii	"USBUARTH_Maintain_Configuration\000"
 18222      41525448 
 18222      5F4D6169 
 18222      6E746169 
 18222      6E5F436F 
 18223              	.LASF30:
 18224 07fd 5234304B 		.ascii	"R40K\000"
 18224      00
 18225              	.LASF63:
 18226 0802 44697363 		.ascii	"Disconnect_Contact_From_All_Intermediates\000"
 18226      6F6E6E65 
 18226      63745F43 
 18226      6F6E7461 
 18226      63745F46 
 18227              	.LASF177:
 18228 082c 76677369 		.ascii	"vgsi\000"
 18228      00
 18229              	.LASF98:
 18230 0831 63757272 		.ascii	"currentStdDevIn\000"
 18230      656E7453 
 18230      74644465 
 18230      76496E00 
 18231              	.LASF83:
 18232 0841 6D656469 		.ascii	"medianArraySize\000"
 18232      616E4172 
 18232      72617953 
 18232      697A6500 
 18233              	.LASF224:
 18234 0851 4144435F 		.ascii	"ADC_DelSig_1_IsEndConversion\000"
 18234      44656C53 
 18234      69675F31 
 18234      5F497345 
 18234      6E64436F 
 18235              	.LASF251:
 18236 086e 436F6D6D 		.ascii	"CommunicationTimer_Start\000"
 18236      756E6963 
 18236      6174696F 
 18236      6E54696D 
 18236      65725F53 
 18237              	.LASF210:
 18238 0887 436F6D6D 		.ascii	"CommunicationTimer_ReadStatusRegister\000"
 18238      756E6963 
 18238      6174696F 
 18238      6E54696D 
 18238      65725F52 
 18239              	.LASF100:
 18240 08ad 63757272 		.ascii	"currentNow\000"
 18240      656E744E 
ARM GAS  C:\Users\FRANKL~1\AppData\Local\Temp\ccebBo1q.s 			page 366


 18240      6F7700
 18241              	.LASF107:
 18242 08b8 63757272 		.ascii	"current\000"
 18242      656E7400 
 18243              	.LASF79:
 18244 08c0 7374616E 		.ascii	"standardDeviation\000"
 18244      64617264 
 18244      44657669 
 18244      6174696F 
 18244      6E00
 18245              	.LASF47:
 18246 08d2 55534255 		.ascii	"USBUARTH_Receive_Until\000"
 18246      41525448 
 18246      5F526563 
 18246      65697665 
 18246      5F556E74 
 18247              	.LASF158:
 18248 08e9 656E6452 		.ascii	"endRefIndex\000"
 18248      6566496E 
 18248      64657800 
 18249              	.LASF61:
 18250 08f5 6F666673 		.ascii	"offset\000"
 18250      657400
 18251              	.LASF246:
 18252 08fc 5449415F 		.ascii	"TIA_1_Start\000"
 18252      315F5374 
 18252      61727400 
 18253              	.LASF248:
 18254 0908 4144435F 		.ascii	"ADC_SAR_2_Start\000"
 18254      5341525F 
 18254      325F5374 
 18254      61727400 
 18255              	.LASF65:
 18256 0918 44697363 		.ascii	"Disconnect_All_Contacts_From_Intermediate\000"
 18256      6F6E6E65 
 18256      63745F41 
 18256      6C6C5F43 
 18256      6F6E7461 
 18257              	.LASF233:
 18258 0942 4144435F 		.ascii	"ADC_SAR_2_GetResult16\000"
 18258      5341525F 
 18258      325F4765 
 18258      74526573 
 18258      756C7431 
 18259              	.LASF194:
 18260 0958 5449415F 		.ascii	"TIA_Resistor_Codes\000"
 18260      52657369 
 18260      73746F72 
 18260      5F436F64 
 18260      657300
 18261              	.LASF212:
 18262 096b 55534255 		.ascii	"USBUART_PutData\000"
 18262      4152545F 
 18262      50757444 
 18262      61746100 
 18263              	.LASF179:
 18264 097b 73756363 		.ascii	"success\000"
ARM GAS  C:\Users\FRANKL~1\AppData\Local\Temp\ccebBo1q.s 			page 367


 18264      65737300 
 18265              	.LASF162:
 18266 0983 73746172 		.ascii	"startGateIndex\000"
 18266      74476174 
 18266      65496E64 
 18266      657800
 18267              	.LASF3:
 18268 0992 6C6F6E67 		.ascii	"long double\000"
 18268      20646F75 
 18268      626C6500 
 18269              	.LASF76:
 18270 099e 6D656469 		.ascii	"medianOfArray\000"
 18270      616E4F66 
 18270      41727261 
 18270      7900
 18271              	.LASF243:
 18272 09ac 56444143 		.ascii	"VDAC_Vgs_Start\000"
 18272      5F566773 
 18272      5F537461 
 18272      727400
 18273              	.LASF41:
 18274 09bb 52656365 		.ascii	"ReceiveBuffer\000"
 18274      69766542 
 18274      75666665 
 18274      7200
 18275              	.LASF216:
 18276 09c9 55415254 		.ascii	"UART_1_PutString\000"
 18276      5F315F50 
 18276      75745374 
 18276      72696E67 
 18276      00
 18277              	.LASF192:
 18278 09da 55534255 		.ascii	"USBUART_Rx_Position\000"
 18278      4152545F 
 18278      52785F50 
 18278      6F736974 
 18278      696F6E00 
 18279              	.LASF203:
 18280 09ee 55534255 		.ascii	"USBUART_CDC_Init\000"
 18280      4152545F 
 18280      4344435F 
 18280      496E6974 
 18280      00
 18281              	.LASF134:
 18282 09ff 5365745F 		.ascii	"Set_Vgs_mV\000"
 18282      5667735F 
 18282      6D5600
 18283              	.LASF190:
 18284 0a0a 55415254 		.ascii	"UART_Rx_Position\000"
 18284      5F52785F 
 18284      506F7369 
 18284      74696F6E 
 18284      00
 18285              	.LASF198:
 18286 0a1b 5667735F 		.ascii	"Vgs_Index_Goal_Relative\000"
 18286      496E6465 
 18286      785F476F 
ARM GAS  C:\Users\FRANKL~1\AppData\Local\Temp\ccebBo1q.s 			page 368


 18286      616C5F52 
 18286      656C6174 
 18287              	.LASF90:
 18288 0a33 53415231 		.ascii	"SAR1_Measure_V\000"
 18288      5F4D6561 
 18288      73757265 
 18288      5F5600
 18289              	.LASF184:
 18290 0a42 5472616E 		.ascii	"TransmitBuffer\000"
 18290      736D6974 
 18290      42756666 
 18290      657200
 18291              	.LASF150:
 18292 0a51 6C6F6F70 		.ascii	"loop\000"
 18292      00
 18293              	.LASF168:
 18294 0a56 64657669 		.ascii	"device\000"
 18294      636500
 18295              	.LASF74:
 18296 0a5d 73697A65 		.ascii	"size\000"
 18296      00
 18297              	.LASF62:
 18298 0a62 44697363 		.ascii	"Disconnect_Contact_From_Intermediate\000"
 18298      6F6E6E65 
 18298      63745F43 
 18298      6F6E7461 
 18298      63745F46 
 18299              	.LASF10:
 18300 0a87 6C6F6E67 		.ascii	"long long unsigned int\000"
 18300      206C6F6E 
 18300      6720756E 
 18300      7369676E 
 18300      65642069 
 18301              	.LASF189:
 18302 0a9e 55415254 		.ascii	"UART_Receive_Buffer\000"
 18302      5F526563 
 18302      65697665 
 18302      5F427566 
 18302      66657200 
 18303              	.LASF72:
 18304 0ab2 736F7274 		.ascii	"sortArray\000"
 18304      41727261 
 18304      7900
 18305              	.LASF196:
 18306 0abc 5449415F 		.ascii	"TIA_Offsets_uV\000"
 18306      4F666673 
 18306      6574735F 
 18306      755600
 18307              	.LASF204:
 18308 0acb 55534255 		.ascii	"USBUART_DataIsReady\000"
 18308      4152545F 
 18308      44617461 
 18308      49735265 
 18308      61647900 
 18309              	.LASF140:
 18310 0adf 4D656173 		.ascii	"Measure\000"
 18310      75726500 
ARM GAS  C:\Users\FRANKL~1\AppData\Local\Temp\ccebBo1q.s 			page 369


 18311              	.LASF181:
 18312 0ae7 5664735F 		.ascii	"Vds_mV\000"
 18312      6D5600
 18313              	.LASF60:
 18314 0aee 636F6E74 		.ascii	"contact\000"
 18314      61637400 
 18315              	.LASF175:
 18316 0af6 73746F70 		.ascii	"stopDevice\000"
 18316      44657669 
 18316      636500
 18317              	.LASF22:
 18318 0b01 72656738 		.ascii	"reg8\000"
 18318      00
 18319              	.LASF152:
 18320 0b06 4D656173 		.ascii	"Measure_Wide_Gate_Sweep\000"
 18320      7572655F 
 18320      57696465 
 18320      5F476174 
 18320      655F5377 
 18321              	.LASF40:
 18322 0b1e 74656D70 		.ascii	"temp_count\000"
 18322      5F636F75 
 18322      6E7400
 18323              	.LASF237:
 18324 0b29 56444143 		.ascii	"VDAC_Ref_SetValue\000"
 18324      5F526566 
 18324      5F536574 
 18324      56616C75 
 18324      6500
 18325              	.LASF174:
 18326 0b3b 73746172 		.ascii	"startDevice\000"
 18326      74446576 
 18326      69636500 
 18327              	.LASF202:
 18328 0b47 55534255 		.ascii	"USBUART_GetConfiguration\000"
 18328      4152545F 
 18328      47657443 
 18328      6F6E6669 
 18328      67757261 
 18329              	.LASF69:
 18330 0b60 72657369 		.ascii	"resistor\000"
 18330      73746F72 
 18330      00
 18331              	.LASF173:
 18332 0b69 5363616E 		.ascii	"Scan_Range\000"
 18332      5F52616E 
 18332      676500
 18333              	.LASF141:
 18334 0b74 64656C74 		.ascii	"deltaSigmaSampleCount\000"
 18334      61536967 
 18334      6D615361 
 18334      6D706C65 
 18334      436F756E 
 18335              	.LASF106:
 18336 0b8a 41745F43 		.ascii	"At_Compliance\000"
 18336      6F6D706C 
 18336      69616E63 
ARM GAS  C:\Users\FRANKL~1\AppData\Local\Temp\ccebBo1q.s 			page 370


 18336      6500
 18337              	.LASF133:
 18338 0b98 5365745F 		.ascii	"Set_Vds\000"
 18338      56647300 
 18339              	.LASF81:
 18340 0ba0 4144435F 		.ascii	"ADC_Result\000"
 18340      52657375 
 18340      6C7400
 18341              	.LASF37:
 18342 0bab 436F6D6D 		.ascii	"CommunicationHandlerISR\000"
 18342      756E6963 
 18342      6174696F 
 18342      6E48616E 
 18342      646C6572 
 18343              	.LASF70:
 18344 0bc3 4144435F 		.ascii	"ADC_Increase_Range\000"
 18344      496E6372 
 18344      65617365 
 18344      5F52616E 
 18344      676500
 18345              	.LASF52:
 18346 0bd6 55706461 		.ascii	"Update_Selector\000"
 18346      74655F53 
 18346      656C6563 
 18346      746F7200 
 18347              	.LASF206:
 18348 0be6 73747273 		.ascii	"strstr\000"
 18348      747200
 18349              	.LASF99:
 18350 0bed 63686563 		.ascii	"checkCompliance\000"
 18350      6B436F6D 
 18350      706C6961 
 18350      6E636500 
 18351              	.LASF186:
 18352 0bfd 475F5374 		.ascii	"G_Stop\000"
 18352      6F7000
 18353              	.LASF255:
 18354 0c04 433A5C55 		.ascii	"C:\\Users\\FranklinLab_PC_1\\Documents\\Python Scri"
 18354      73657273 
 18354      5C467261 
 18354      6E6B6C69 
 18354      6E4C6162 
 18355 0c33 7074735C 		.ascii	"pts\\CNT_IV\\PSoC\\Layout 2_14\\Version 4_Full\\Mas"
 18355      434E545F 
 18355      49565C50 
 18355      536F435C 
 18355      4C61796F 
 18356 0c61 7465725C 		.ascii	"ter\\Master 1\\Design01.cydsn\000"
 18356      4D617374 
 18356      65722031 
 18356      5C446573 
 18356      69676E30 
 18357              	.LASF15:
 18358 0c7d 75696E74 		.ascii	"uint8\000"
 18358      3800
 18359              	.LASF220:
 18360 0c83 4932435F 		.ascii	"I2C_1_MasterClearStatus\000"
ARM GAS  C:\Users\FRANKL~1\AppData\Local\Temp\ccebBo1q.s 			page 371


 18360      315F4D61 
 18360      73746572 
 18360      436C6561 
 18360      72537461 
 18361              	.LASF165:
 18362 0c9b 67617465 		.ascii	"gateArrived\000"
 18362      41727269 
 18362      76656400 
 18363              	.LASF188:
 18364 0ca7 475F5061 		.ascii	"G_Pause\000"
 18364      75736500 
 18365              	.LASF238:
 18366 0caf 73747274 		.ascii	"strtol\000"
 18366      6F6C00
 18367              	.LASF45:
 18368 0cb6 55534255 		.ascii	"USBUARTH_Receive\000"
 18368      41525448 
 18368      5F526563 
 18368      65697665 
 18368      00
 18369              	.LASF6:
 18370 0cc7 73686F72 		.ascii	"short int\000"
 18370      7420696E 
 18370      7400
 18371              	.LASF146:
 18372 0cd1 4D656173 		.ascii	"Measure_Multiple\000"
 18372      7572655F 
 18372      4D756C74 
 18372      69706C65 
 18372      00
 18373              	.LASF207:
 18374 0ce2 55415254 		.ascii	"UART_1_GetRxBufferSize\000"
 18374      5F315F47 
 18374      65745278 
 18374      42756666 
 18374      65725369 
 18375              	.LASF59:
 18376 0cf9 436F6E6E 		.ascii	"Connect_Contact_To_Intermediate\000"
 18376      6563745F 
 18376      436F6E74 
 18376      6163745F 
 18376      546F5F49 
 18377              	.LASF128:
 18378 0d19 5667735F 		.ascii	"Vgs_maxRefRaw\000"
 18378      6D617852 
 18378      65665261 
 18378      7700
 18379              	.LASF116:
 18380 0d27 4765745F 		.ascii	"Get_Vds\000"
 18380      56647300 
 18381              	.LASF201:
 18382 0d2f 55534255 		.ascii	"USBUART_IsConfigurationChanged\000"
 18382      4152545F 
 18382      4973436F 
 18382      6E666967 
 18382      75726174 
 18383              	.LASF208:
ARM GAS  C:\Users\FRANKL~1\AppData\Local\Temp\ccebBo1q.s 			page 372


 18384 0d4e 55415254 		.ascii	"UART_1_GetChar\000"
 18384      5F315F47 
 18384      65744368 
 18384      617200
 18385              	.LASF27:
 18386 0d5d 62757341 		.ascii	"busAddress\000"
 18386      64647265 
 18386      737300
 18387              	.LASF131:
 18388 0d68 5365745F 		.ascii	"Set_Vgs\000"
 18388      56677300 
 18389              	.LASF156:
 18390 0d70 72656649 		.ascii	"refIncrement\000"
 18390      6E637265 
 18390      6D656E74 
 18390      00
 18391              	.LASF213:
 18392 0d7d 55534255 		.ascii	"USBUART_GetChar\000"
 18392      4152545F 
 18392      47657443 
 18392      68617200 
 18393              	.LASF95:
 18394 0d8d 53415232 		.ascii	"SAR2_Result_Current\000"
 18394      5F526573 
 18394      756C745F 
 18394      43757272 
 18394      656E7400 
 18395              	.LASF221:
 18396 0da1 4932435F 		.ascii	"I2C_1_MasterWriteBuf\000"
 18396      315F4D61 
 18396      73746572 
 18396      57726974 
 18396      65427566 
 18397              	.LASF155:
 18398 0db6 72656654 		.ascii	"refTurn\000"
 18398      75726E00 
 18399              	.LASF214:
 18400 0dbe 7374726C 		.ascii	"strlen\000"
 18400      656E00
 18401              	.LASF169:
 18402 0dc5 636F6E74 		.ascii	"contact1\000"
 18402      61637431 
 18402      00
 18403              	.LASF170:
 18404 0dce 636F6E74 		.ascii	"contact2\000"
 18404      61637432 
 18404      00
 18405              	.LASF19:
 18406 0dd7 696E7431 		.ascii	"int16\000"
 18406      3600
 18407              	.LASF142:
 18408 0ddd 53415231 		.ascii	"SAR1_SampleCount\000"
 18408      5F53616D 
 18408      706C6543 
 18408      6F756E74 
 18408      00
 18409              	.LASF137:
ARM GAS  C:\Users\FRANKL~1\AppData\Local\Temp\ccebBo1q.s 			page 373


 18410 0dee 43616C69 		.ascii	"Calibrate_ADC_Offset\000"
 18410      62726174 
 18410      655F4144 
 18410      435F4F66 
 18410      66736574 
 18411              	.LASF129:
 18412 0e03 6E657752 		.ascii	"newRefRaw\000"
 18412      65665261 
 18412      7700
 18413              	.LASF163:
 18414 0e0d 656E6447 		.ascii	"endGateIndex\000"
 18414      61746549 
 18414      6E646578 
 18414      00
 18415              	.LASF209:
 18416 0e1a 436F6D6D 		.ascii	"CommunicationInterrupt_ClearPending\000"
 18416      756E6963 
 18416      6174696F 
 18416      6E496E74 
 18416      65727275 
 18417              	.LASF145:
 18418 0e3e 49647353 		.ascii	"IdsSDAmps\000"
 18418      44416D70 
 18418      7300
 18419              	.LASF250:
 18420 0e48 43794465 		.ascii	"CyDelay\000"
 18420      6C617900 
 18421              	.LASF56:
 18422 0e50 436F6E6E 		.ascii	"Connect_Channel_On_Intermediate\000"
 18422      6563745F 
 18422      4368616E 
 18422      6E656C5F 
 18422      4F6E5F49 
 18423              	.LASF34:
 18424 0e70 52353030 		.ascii	"R500K\000"
 18424      4B00
 18425              	.LASF115:
 18426 0e76 4765745F 		.ascii	"Get_Vgs\000"
 18426      56677300 
 18427              	.LASF144:
 18428 0e7e 49647341 		.ascii	"IdsAverageAmps\000"
 18428      76657261 
 18428      6765416D 
 18428      707300
 18429              	.LASF0:
 18430 0e8d 666C6F61 		.ascii	"float\000"
 18430      7400
 18431              	.LASF171:
 18432 0e93 696E7465 		.ascii	"intermediate1\000"
 18432      726D6564 
 18432      69617465 
 18432      3100
 18433              	.LASF172:
 18434 0ea1 696E7465 		.ascii	"intermediate2\000"
 18434      726D6564 
 18434      69617465 
 18434      3200
ARM GAS  C:\Users\FRANKL~1\AppData\Local\Temp\ccebBo1q.s 			page 374


 18435              	.LASF20:
 18436 0eaf 696E7433 		.ascii	"int32\000"
 18436      3200
 18437              	.LASF13:
 18438 0eb5 5F5F696E 		.ascii	"__int32_t\000"
 18438      7433325F 
 18438      7400
 18439              	.LASF51:
 18440 0ebf 73656C65 		.ascii	"selector\000"
 18440      63746F72 
 18440      00
 18441              	.LASF117:
 18442 0ec8 5365745F 		.ascii	"Set_Vds_Raw\000"
 18442      5664735F 
 18442      52617700 
 18443              	.LASF75:
 18444 0ed4 74656D70 		.ascii	"temp\000"
 18444      00
 18445              	.LASF85:
 18446 0ed9 6D656469 		.ascii	"medianArray\000"
 18446      616E4172 
 18446      72617900 
 18447              	.LASF153:
 18448 0ee5 73706565 		.ascii	"speed\000"
 18448      6400
 18449              	.LASF178:
 18450 0eeb 76647369 		.ascii	"vdsi\000"
 18450      00
 18451              	.LASF260:
 18452 0ef0 5F5F6275 		.ascii	"__builtin_strchr\000"
 18452      696C7469 
 18452      6E5F7374 
 18452      72636872 
 18452      00
 18453              	.LASF24:
 18454 0f01 64617461 		.ascii	"data\000"
 18454      00
 18455              	.LASF222:
 18456 0f06 5449415F 		.ascii	"TIA_1_SetResFB\000"
 18456      315F5365 
 18456      74526573 
 18456      464200
 18457              	.LASF245:
 18458 0f15 4144435F 		.ascii	"ADC_DelSig_1_Start\000"
 18458      44656C53 
 18458      69675F31 
 18458      5F537461 
 18458      727400
 18459              	.LASF16:
 18460 0f28 75696E74 		.ascii	"uint16\000"
 18460      313600
 18461              	.LASF167:
 18462 0f2f 77696465 		.ascii	"wide\000"
 18462      00
 18463              	.LASF231:
 18464 0f34 4144435F 		.ascii	"ADC_SAR_2_StartConvert\000"
 18464      5341525F 
ARM GAS  C:\Users\FRANKL~1\AppData\Local\Temp\ccebBo1q.s 			page 375


 18464      325F5374 
 18464      61727443 
 18464      6F6E7665 
 18465              	.LASF157:
 18466 0f4b 73746172 		.ascii	"startRefIndex\000"
 18466      74526566 
 18466      496E6465 
 18466      7800
 18467              	.LASF242:
 18468 0f59 56444143 		.ascii	"VDAC_Vds_Start\000"
 18468      5F566473 
 18468      5F537461 
 18468      727400
 18469              	.LASF211:
 18470 0f68 55534255 		.ascii	"USBUART_CDCIsReady\000"
 18470      4152545F 
 18470      43444349 
 18470      73526561 
 18470      647900
 18471              		.ident	"GCC: (GNU Tools for ARM Embedded Processors) 5.4.1 20160609 (release) [ARM/embedded-5-bran
