ARM GAS  C:\Users\FRANKL~1\AppData\Local\Temp\ccba5qpo.s 			page 1


   1              		.syntax unified
   2              		.cpu cortex-m3
   3              		.fpu softvfp
   4              		.eabi_attribute 20, 1
   5              		.eabi_attribute 21, 1
   6              		.eabi_attribute 23, 3
   7              		.eabi_attribute 24, 1
   8              		.eabi_attribute 25, 1
   9              		.eabi_attribute 26, 1
  10              		.eabi_attribute 30, 1
  11              		.eabi_attribute 34, 1
  12              		.eabi_attribute 18, 4
  13              		.thumb
  14              		.syntax unified
  15              		.file	"main.c"
  16              		.text
  17              	.Ltext0:
  18              		.cfi_sections	.debug_frame
  19              		.syntax unified
  20              		.global _printf_float
  21              		.thumb
  22              		.syntax unified
  23              		.section	.text.USBUARTH_Maintain_Configuration,"ax",%progbits
  24              		.align	2
  25              		.global	USBUARTH_Maintain_Configuration
  26              		.thumb
  27              		.thumb_func
  28              		.type	USBUARTH_Maintain_Configuration, %function
  29              	USBUARTH_Maintain_Configuration:
  30              	.LFB64:
  31              		.file 1 "USBUART_Helpers.h"
   1:USBUART_Helpers.h **** #include "project.h"
   2:USBUART_Helpers.h **** #include "stdio.h"
   3:USBUART_Helpers.h **** 
   4:USBUART_Helpers.h **** #if defined (__GNUC__)
   5:USBUART_Helpers.h **** 	/* Add an explicit reference to the floating point printf library */
   6:USBUART_Helpers.h **** 	/* to allow usage of the floating point conversion specifiers. */
   7:USBUART_Helpers.h **** 	/* This is not linked in by default with the newlib-nano library. */
   8:USBUART_Helpers.h **** 	asm (".global _printf_float");
   9:USBUART_Helpers.h **** #endif
  10:USBUART_Helpers.h **** 
  11:USBUART_Helpers.h **** // The buffer size is equal to the maximum packet size of the IN and OUT bulk endpoints.
  12:USBUART_Helpers.h **** #define USBUART_BUFFER_SIZE	(64u)
  13:USBUART_Helpers.h **** #define LINE_STR_LENGTH		(20u)
  14:USBUART_Helpers.h **** 
  15:USBUART_Helpers.h **** 
  16:USBUART_Helpers.h **** void USBUARTH_Maintain_Configuration() {
  32              		.loc 1 16 0
  33              		.cfi_startproc
  34              		@ args = 0, pretend = 0, frame = 0
  35              		@ frame_needed = 0, uses_anonymous_args = 0
  36 0000 08B5     		push	{r3, lr}
  37              		.cfi_def_cfa_offset 8
  38              		.cfi_offset 3, -8
  39              		.cfi_offset 14, -4
  40              	.LVL0:
  17:USBUART_Helpers.h **** 	unsigned long tries = 0;
ARM GAS  C:\Users\FRANKL~1\AppData\Local\Temp\ccba5qpo.s 			page 2


  18:USBUART_Helpers.h **** 	
  19:USBUART_Helpers.h **** 	do {
  20:USBUART_Helpers.h **** 		// Host can send double SET_INTERFACE request.
  21:USBUART_Helpers.h **** 		if (USBUART_IsConfigurationChanged()) {
  41              		.loc 1 21 0
  42 0002 FFF7FEFF 		bl	USBUART_IsConfigurationChanged
  43              	.LVL1:
  44 0006 20B1     		cbz	r0, .L2
  22:USBUART_Helpers.h **** 			// Initialize IN endpoints when device is configured.
  23:USBUART_Helpers.h **** 			if (USBUART_GetConfiguration()) {
  45              		.loc 1 23 0
  46 0008 FFF7FEFF 		bl	USBUART_GetConfiguration
  47              	.LVL2:
  48 000c 08B1     		cbz	r0, .L2
  24:USBUART_Helpers.h **** 				// Enumeration is done, enable OUT endpoint to receive data from host.
  25:USBUART_Helpers.h **** 				USBUART_CDC_Init();
  49              		.loc 1 25 0
  50 000e FFF7FEFF 		bl	USBUART_CDC_Init
  51              	.LVL3:
  52              	.L2:
  26:USBUART_Helpers.h **** 			}
  27:USBUART_Helpers.h **** 		}
  28:USBUART_Helpers.h **** 		
  29:USBUART_Helpers.h **** 		tries++;
  30:USBUART_Helpers.h **** 	// Keep trying until USB CDC device is configured
  31:USBUART_Helpers.h **** 	} while (!USBUART_GetConfiguration() && tries < 1);
  53              		.loc 1 31 0
  54 0012 FFF7FEFF 		bl	USBUART_GetConfiguration
  55              	.LVL4:
  56 0016 08BD     		pop	{r3, pc}
  57              		.cfi_endproc
  58              	.LFE64:
  59              		.size	USBUARTH_Maintain_Configuration, .-USBUARTH_Maintain_Configuration
  60              		.section	.text.USBUARTH_DataIsReady,"ax",%progbits
  61              		.align	2
  62              		.global	USBUARTH_DataIsReady
  63              		.thumb
  64              		.thumb_func
  65              		.type	USBUARTH_DataIsReady, %function
  66              	USBUARTH_DataIsReady:
  67              	.LFB65:
  32:USBUART_Helpers.h **** }
  33:USBUART_Helpers.h **** 
  34:USBUART_Helpers.h **** uint8 USBUARTH_DataIsReady() {
  68              		.loc 1 34 0
  69              		.cfi_startproc
  70              		@ args = 0, pretend = 0, frame = 0
  71              		@ frame_needed = 0, uses_anonymous_args = 0
  72 0000 08B5     		push	{r3, lr}
  73              		.cfi_def_cfa_offset 8
  74              		.cfi_offset 3, -8
  75              		.cfi_offset 14, -4
  35:USBUART_Helpers.h **** 	USBUARTH_Maintain_Configuration();
  76              		.loc 1 35 0
  77 0002 FFF7FEFF 		bl	USBUARTH_Maintain_Configuration
  78              	.LVL5:
  36:USBUART_Helpers.h **** 	
ARM GAS  C:\Users\FRANKL~1\AppData\Local\Temp\ccba5qpo.s 			page 3


  37:USBUART_Helpers.h **** 	return USBUART_GetConfiguration() && USBUART_DataIsReady();
  79              		.loc 1 37 0
  80 0006 FFF7FEFF 		bl	USBUART_GetConfiguration
  81              	.LVL6:
  82 000a 20B1     		cbz	r0, .L6
  83              		.loc 1 37 0 is_stmt 0 discriminator 1
  84 000c FFF7FEFF 		bl	USBUART_DataIsReady
  85              	.LVL7:
  86 0010 18B1     		cbz	r0, .L7
  87              		.loc 1 37 0
  88 0012 0120     		movs	r0, #1
  89 0014 08BD     		pop	{r3, pc}
  90              	.L6:
  91 0016 0020     		movs	r0, #0
  92 0018 08BD     		pop	{r3, pc}
  93              	.L7:
  94 001a 0020     		movs	r0, #0
  38:USBUART_Helpers.h **** }
  95              		.loc 1 38 0 is_stmt 1
  96 001c 08BD     		pop	{r3, pc}
  97              		.cfi_endproc
  98              	.LFE65:
  99              		.size	USBUARTH_DataIsReady, .-USBUARTH_DataIsReady
 100 001e 00BF     		.section	.text.CommunicationHandlerISR,"ax",%progbits
 101              		.align	2
 102              		.global	CommunicationHandlerISR
 103              		.thumb
 104              		.thumb_func
 105              		.type	CommunicationHandlerISR, %function
 106              	CommunicationHandlerISR:
 107              	.LFB112:
 108              		.file 2 "main.c"
   1:main.c        **** #include <stdlib.h>
   2:main.c        **** #include <stdio.h>
   3:main.c        **** #include "project.h"
   4:main.c        **** #include "USBUART_Helpers.h"
   5:main.c        **** 
   6:main.c        **** 
   7:main.c        **** struct Selector_I2C_Struct {
   8:main.c        **** 	struct {
   9:main.c        **** 		uint8 subAddress;
  10:main.c        **** 		uint8 data[126];
  11:main.c        **** 	} write;
  12:main.c        **** 	struct {
  13:main.c        **** 		uint8 subAddress;
  14:main.c        **** 		uint8 data[126];
  15:main.c        **** 	} read;
  16:main.c        **** 	uint8 busAddress;
  17:main.c        **** };
  18:main.c        **** 
  19:main.c        **** 
  20:main.c        **** // Globals ----------------------------------------------
  21:main.c        **** #define SELECTOR_COUNT (4u)
  22:main.c        **** #define INTERMEDIATE_COUNT (4u)
  23:main.c        **** #define CONTACT_COUNT (64u)
  24:main.c        **** #define CHANNEL_COUNT (34u)
  25:main.c        **** #define CONTACT_CONNECT_CODE (0xC0u)
ARM GAS  C:\Users\FRANKL~1\AppData\Local\Temp\ccba5qpo.s 			page 4


  26:main.c        **** #define CONTACT_DISCONNECT_CODE (0xD1u)
  27:main.c        **** #define COMPLIANCE_CURRENT_LIMIT (10e-6)
  28:main.c        **** 
  29:main.c        **** struct Selector_I2C_Struct selectors[SELECTOR_COUNT];
  30:main.c        **** char TransmitBuffer[USBUART_BUFFER_SIZE];
  31:main.c        **** 
  32:main.c        **** volatile uint8 newData = 0;
  33:main.c        **** volatile uint8 G_Stop = 0;
  34:main.c        **** volatile uint8 G_Break = 0;
  35:main.c        **** volatile uint8 G_Pause = 0;
  36:main.c        **** 
  37:main.c        **** volatile char UART_Receive_Buffer[USBUART_BUFFER_SIZE];
  38:main.c        **** volatile uint8 UART_Rx_Position;
  39:main.c        **** 
  40:main.c        **** volatile char USBUART_Receive_Buffer[USBUART_BUFFER_SIZE];
  41:main.c        **** volatile uint8 USBUART_Rx_Position;
  42:main.c        **** 
  43:main.c        **** enum TIA_resistor {R20K, R30K, R40K, R80K, R120K, R250K, R500K, R1000K};
  44:main.c        **** uint8 TIA_Selected_Resistor = R1000K;
  45:main.c        **** 
  46:main.c        **** uint8 TIA_Resistor_Codes[8] = {TIA_1_RES_FEEDBACK_20K, TIA_1_RES_FEEDBACK_30K, TIA_1_RES_FEEDBACK_4
  47:main.c        **** float TIA_Resistor_Values[8] = {20e3, 30e3, 40e3, 80e3, 120e3, 250e3, 500e3, 1e6};
  48:main.c        **** int32 TIA_Offsets_uV[8] = {0, 0, 0, 0, 0, 0, 0, 0};
  49:main.c        **** 
  50:main.c        **** uint8 Compliance_Reached;
  51:main.c        **** int16 Vgs_Index_Goal_Relative;
  52:main.c        **** int16 Vds_Index_Goal_Relative;
  53:main.c        **** 
  54:main.c        **** uint32 Current_Measurement_Sample_Count;
  55:main.c        **** 
  56:main.c        **** void Setup_Selector_I2C_Struct(struct Selector_I2C_Struct *selector) {
  57:main.c        **** 	selector->write.subAddress = 1;
  58:main.c        **** 	selector->read.subAddress = sizeof(selector->write) + 1;
  59:main.c        **** 	
  60:main.c        **** 	for (uint16 i = 0; i < sizeof(selector->write.data); i++) {
  61:main.c        **** 		selector->write.data[i] = i + 6;
  62:main.c        **** 	}
  63:main.c        **** 	for (uint16 i = 0; i < sizeof(selector->read.data); i++) {
  64:main.c        **** 		selector->read.data[i] = 0xbe;
  65:main.c        **** 	}
  66:main.c        **** }
  67:main.c        **** 
  68:main.c        **** void Update_Selector(uint8 selectori) {
  69:main.c        **** 	sprintf(TransmitBuffer, "Updating Selector %u\r\n", selectori + 1);
  70:main.c        **** 	USBUARTH_Send(TransmitBuffer, strlen(TransmitBuffer));
  71:main.c        **** 	UART_1_PutString(TransmitBuffer);
  72:main.c        **** 	
  73:main.c        **** 	struct Selector_I2C_Struct* selector = &selectors[selectori];
  74:main.c        **** 	
  75:main.c        **** 	I2C_1_MasterClearStatus();
  76:main.c        **** 	I2C_1_MasterWriteBuf(selector->busAddress, (uint8 *) &selector->write, sizeof(selector->write), I2
  77:main.c        **** 	for (uint32 i = 0; i < 4e5; i++) {
  78:main.c        **** 		if ((I2C_1_MasterStatus() & I2C_1_MSTAT_WR_CMPLT)) break;
  79:main.c        **** 		if (i >= 4e5 - 1) {
  80:main.c        **** 			sprintf(TransmitBuffer, "I2C Transfer Error! Type: Timeout\r\n");
  81:main.c        **** 			USBUARTH_Send(TransmitBuffer, strlen(TransmitBuffer));
  82:main.c        **** 			UART_1_PutString(TransmitBuffer);
ARM GAS  C:\Users\FRANKL~1\AppData\Local\Temp\ccba5qpo.s 			page 5


  83:main.c        **** 			I2C_1_Stop();
  84:main.c        **** 			I2C_1_Start();
  85:main.c        **** 		}
  86:main.c        **** 	}
  87:main.c        **** 	
  88:main.c        **** 	// I2C_1_MasterClearStatus();
  89:main.c        **** 	// I2C_1_MasterWriteBuf(selector->busAddress, (uint8 *) &selector->read.subAddress, 1, I2C_1_MODE_
  90:main.c        **** 	// for (uint32 i - 0; i < 4e5; i++) {
  91:main.c        **** 	// 	if ((I2C_1_MasterStatus() & I2C_1_MSTAT_WR_CMPLT)) break;
  92:main.c        **** 	// }
  93:main.c        **** 	
  94:main.c        **** 	// I2C_1_MasterReadBuf(selector->busAddress, (uint8 *) &selector->read.data, sizeof(selector->read
  95:main.c        **** 	// for (uint32 i - 0; i < 4e5; i++) {
  96:main.c        **** 	// 	if ((I2C_1_MasterStatus() & I2C_1_MSTAT_RD_CMPLT)) break;
  97:main.c        **** 	// }
  98:main.c        **** 	
  99:main.c        **** 	if (I2C_1_MasterStatus() & I2C_1_MSTAT_ERR_XFER) {
 100:main.c        **** 		sprintf(TransmitBuffer, "I2C Transfer Error! ");
 101:main.c        **** 		USBUARTH_Send(TransmitBuffer, strlen(TransmitBuffer));
 102:main.c        **** 		UART_1_PutString(TransmitBuffer);
 103:main.c        **** 		
 104:main.c        **** 		if (I2C_1_MasterStatus() & I2C_1_MSTAT_ERR_ADDR_NAK) {
 105:main.c        **** 			sprintf(TransmitBuffer, "Type: NAK");
 106:main.c        **** 			USBUARTH_Send(TransmitBuffer, strlen(TransmitBuffer));
 107:main.c        **** 			UART_1_PutString(TransmitBuffer);
 108:main.c        **** 		}
 109:main.c        **** 		
 110:main.c        **** 		sprintf(TransmitBuffer, "\r\n");
 111:main.c        **** 		USBUARTH_Send(TransmitBuffer, strlen(TransmitBuffer));
 112:main.c        **** 		UART_1_PutString(TransmitBuffer);
 113:main.c        **** 	}
 114:main.c        **** 	
 115:main.c        **** 	sprintf(TransmitBuffer, "Updated Selector %u\r\n", selectori + 1);
 116:main.c        **** 	USBUARTH_Send(TransmitBuffer, strlen(TransmitBuffer));
 117:main.c        **** 	UART_1_PutString(TransmitBuffer);
 118:main.c        **** }
 119:main.c        **** 
 120:main.c        **** void Setup_Selectors() {
 121:main.c        **** 	for (uint8 i = 0; i < SELECTOR_COUNT; i++) Setup_Selector_I2C_Struct(&selectors[i]);
 122:main.c        **** 	
 123:main.c        **** 	selectors[0].busAddress = 0x66;
 124:main.c        **** 	selectors[1].busAddress = 0x11;
 125:main.c        **** 	selectors[2].busAddress = 0x44;
 126:main.c        **** 	selectors[3].busAddress = 0x22;
 127:main.c        **** }
 128:main.c        **** 
 129:main.c        **** void Connect_Channel_On_Intermediate(uint8 channel, uint8 intermediate) {
 130:main.c        **** 	channel--;
 131:main.c        **** 	intermediate--;
 132:main.c        **** 	
 133:main.c        **** 	if (channel >= CHANNEL_COUNT) return;
 134:main.c        **** 	if (intermediate >= INTERMEDIATE_COUNT) return;
 135:main.c        **** 	
 136:main.c        **** 	selectors[intermediate].write.data[channel] = CONTACT_CONNECT_CODE;
 137:main.c        **** 	Update_Selector(intermediate);
 138:main.c        **** }
 139:main.c        **** 
ARM GAS  C:\Users\FRANKL~1\AppData\Local\Temp\ccba5qpo.s 			page 6


 140:main.c        **** void Connect_Contact_To_Intermediate(uint8 contact, uint8 intermediate) {
 141:main.c        **** 	contact--;
 142:main.c        **** 	intermediate--;
 143:main.c        **** 	
 144:main.c        **** 	if (contact >= CONTACT_COUNT) return;
 145:main.c        **** 	if (intermediate >= INTERMEDIATE_COUNT) return;
 146:main.c        **** 	
 147:main.c        **** 	uint8 offset = 0;
 148:main.c        **** 	if (intermediate >= INTERMEDIATE_COUNT/2) {
 149:main.c        **** 		offset = CONTACT_COUNT/2;
 150:main.c        **** 		if (contact < CONTACT_COUNT/2) return;
 151:main.c        **** 	} else {
 152:main.c        **** 		if (contact >= CONTACT_COUNT/2) return;
 153:main.c        **** 	}
 154:main.c        **** 	
 155:main.c        **** 	Connect_Channel_On_Intermediate(contact - offset + 1, intermediate + 1);
 156:main.c        **** }
 157:main.c        **** 
 158:main.c        **** void Disconnect_Contact_From_Intermediate(uint8 contact, uint8 intermediate) {
 159:main.c        **** 	contact--;
 160:main.c        **** 	intermediate--;
 161:main.c        **** 	
 162:main.c        **** 	if (contact >= CONTACT_COUNT) return;
 163:main.c        **** 	if (intermediate >= INTERMEDIATE_COUNT) return;
 164:main.c        **** 	
 165:main.c        **** 	uint8 offset = 0;
 166:main.c        **** 	if (intermediate >= INTERMEDIATE_COUNT/2) {
 167:main.c        **** 		offset = CONTACT_COUNT/2;
 168:main.c        **** 		if (contact < CONTACT_COUNT/2) return;
 169:main.c        **** 	} else {
 170:main.c        **** 		if (contact >= CONTACT_COUNT/2) return;
 171:main.c        **** 	}
 172:main.c        **** 	
 173:main.c        **** 	selectors[intermediate].write.data[contact - offset] = CONTACT_DISCONNECT_CODE;
 174:main.c        **** 	
 175:main.c        **** 	Update_Selector(intermediate);
 176:main.c        **** }
 177:main.c        **** 
 178:main.c        **** void Disconnect_Contact_From_All_Intermediates(uint8 contact) {
 179:main.c        **** 	contact--;
 180:main.c        **** 	
 181:main.c        **** 	for (uint8 intermediate = 0; intermediate < INTERMEDIATE_COUNT; intermediate++) {
 182:main.c        **** 		
 183:main.c        **** 		uint8 offset = 0;
 184:main.c        **** 		if (intermediate >= INTERMEDIATE_COUNT/2) {
 185:main.c        **** 			offset = CONTACT_COUNT/2;
 186:main.c        **** 			if (contact < CONTACT_COUNT/2) continue;
 187:main.c        **** 		} else {
 188:main.c        **** 			if (contact >= CONTACT_COUNT/2) continue;
 189:main.c        **** 		}
 190:main.c        **** 		
 191:main.c        **** 		selectors[intermediate].write.data[contact - offset] = CONTACT_DISCONNECT_CODE;
 192:main.c        **** 		
 193:main.c        **** 		Update_Selector(intermediate);
 194:main.c        **** 	}
 195:main.c        **** }
 196:main.c        **** 
ARM GAS  C:\Users\FRANKL~1\AppData\Local\Temp\ccba5qpo.s 			page 7


 197:main.c        **** void Disconnect_All_Contacts_From_All_Intermediates() {
 198:main.c        **** 	for (uint8 intermediate = 0; intermediate < INTERMEDIATE_COUNT/**//2; intermediate++) {
 199:main.c        **** 		for (uint8 contact = 0; contact < CONTACT_COUNT/2; contact++) {
 200:main.c        **** 			selectors[intermediate].write.data[contact] = CONTACT_DISCONNECT_CODE;
 201:main.c        **** 		}
 202:main.c        **** 		
 203:main.c        **** 		Update_Selector(intermediate);
 204:main.c        **** 	}
 205:main.c        **** }
 206:main.c        **** 
 207:main.c        **** void Disconnect_All_Contacts_From_Intermediate(uint8 intermediate) {
 208:main.c        **** 	intermediate--;
 209:main.c        **** 	
 210:main.c        **** 	for (uint8 contact = 0; contact < CONTACT_COUNT/2; contact++) {
 211:main.c        **** 		selectors[intermediate].write.data[contact] = CONTACT_DISCONNECT_CODE;
 212:main.c        **** 	}
 213:main.c        **** 	
 214:main.c        **** 	Update_Selector(intermediate);
 215:main.c        **** }
 216:main.c        **** 
 217:main.c        **** void Connect_Intermediate(uint8 intermediate) {
 218:main.c        **** 	switch (intermediate) {
 219:main.c        **** 		case 1: Connect_Channel_On_Intermediate(33, 1); break;
 220:main.c        **** 		case 2: Connect_Channel_On_Intermediate(33, 2); break;
 221:main.c        **** 		case 3: Connect_Channel_On_Intermediate(33, 3); break;
 222:main.c        **** 		case 4: Connect_Channel_On_Intermediate(33, 4); break;
 223:main.c        **** 		default: return;
 224:main.c        **** 	}
 225:main.c        **** }
 226:main.c        **** 
 227:main.c        **** void Connect_Intermediates() {
 228:main.c        **** 	for (uint8 i = 1; i <= INTERMEDIATE_COUNT/**//2; i++) {
 229:main.c        **** 		Connect_Intermediate(i);
 230:main.c        **** 	}
 231:main.c        **** }
 232:main.c        **** 
 233:main.c        **** void TIA_Set_Resistor(uint8 resistor) {
 234:main.c        **** 	TIA_Selected_Resistor = resistor;
 235:main.c        **** 	TIA_1_SetResFB(TIA_Resistor_Codes[resistor]);
 236:main.c        **** }
 237:main.c        **** 
 238:main.c        **** void ADC_Increase_Range() {
 239:main.c        **** 	switch(TIA_Selected_Resistor) {
 240:main.c        **** 		case R20K: 	 break;
 241:main.c        **** 		case R30K: 	 TIA_Set_Resistor(R20K); break;
 242:main.c        **** 		case R40K:	 TIA_Set_Resistor(R30K); break;
 243:main.c        **** 		case R80K:	 TIA_Set_Resistor(R40K); break;
 244:main.c        **** 		case R120K:	 TIA_Set_Resistor(R80K); break;
 245:main.c        **** 		case R250K:	 TIA_Set_Resistor(R120K); break;
 246:main.c        **** 		case R500K:	 TIA_Set_Resistor(R250K); break;
 247:main.c        **** 		case R1000K: TIA_Set_Resistor(R500K); break;
 248:main.c        **** 		default: return;
 249:main.c        **** 	}
 250:main.c        **** }
 251:main.c        **** 
 252:main.c        **** void ADC_Decrease_Range() {
 253:main.c        **** 	switch(TIA_Selected_Resistor) {
ARM GAS  C:\Users\FRANKL~1\AppData\Local\Temp\ccba5qpo.s 			page 8


 254:main.c        **** 		case R20K: 	 TIA_Set_Resistor(R30K); break;
 255:main.c        **** 		case R30K: 	 TIA_Set_Resistor(R40K); break;
 256:main.c        **** 		case R40K:	 TIA_Set_Resistor(R80K); break;
 257:main.c        **** 		case R80K:	 TIA_Set_Resistor(R120K); break;
 258:main.c        **** 		case R120K:	 TIA_Set_Resistor(R250K); break;
 259:main.c        **** 		case R250K:	 TIA_Set_Resistor(R500K); break;
 260:main.c        **** 		case R500K:	 TIA_Set_Resistor(R1000K); break;
 261:main.c        **** 		case R1000K: break;
 262:main.c        **** 		default: return;
 263:main.c        **** 	}
 264:main.c        **** }
 265:main.c        **** 
 266:main.c        **** // Measure Delta-Sigma ADC
 267:main.c        **** void ADC_Measure_uV(int32* average, int32* standardDeviation, uint32 sampleCount) {
 268:main.c        **** 	int32 ADC_Result = 0;
 269:main.c        **** 	int32 ADC_SD = 0;
 270:main.c        **** 	
 271:main.c        **** 	for (uint32 i = 1; i <= sampleCount; i++) {
 272:main.c        **** 		ADC_DelSig_1_StartConvert();
 273:main.c        **** 		while (!ADC_DelSig_1_IsEndConversion(ADC_DelSig_1_RETURN_STATUS));
 274:main.c        **** 		//int16 ADC_Result = ADC_DelSig_1_CountsTo_mVolts(ADC_DelSig_1_GetResult16());
 275:main.c        **** 		int32 ADC_Result_Current = ADC_DelSig_1_CountsTo_uVolts(ADC_DelSig_1_GetResult32());
 276:main.c        **** 		
 277:main.c        **** 		ADC_SD += (float)(i-1)/(float)(i)*(ADC_Result_Current - ADC_Result)*(ADC_Result_Current - ADC_Res
 278:main.c        **** 		ADC_Result += ((float)ADC_Result_Current - (float)ADC_Result)/(float)i;
 279:main.c        **** 	}
 280:main.c        **** 	
 281:main.c        **** 	*average = ADC_Result;
 282:main.c        **** 	*standardDeviation = ADC_SD;
 283:main.c        **** }
 284:main.c        **** 
 285:main.c        **** // Measure SAR1 ADC
 286:main.c        **** void SAR1_Measure_V(int32* average, int32* standardDeviation, uint32 sampleCount) {
 287:main.c        **** 	int32 SAR_Result = 0;
 288:main.c        **** 	int32 SAR_SD = 0;
 289:main.c        **** 	
 290:main.c        **** 	for (uint32 i = 1; i <= sampleCount; i++) {
 291:main.c        **** 		ADC_SAR_1_StartConvert();
 292:main.c        **** 		while (!ADC_SAR_1_IsEndConversion(ADC_SAR_1_RETURN_STATUS));
 293:main.c        **** 		
 294:main.c        **** 		int32 SAR1_Result_Current = ADC_SAR_1_CountsTo_uVolts(ADC_SAR_1_GetResult16());
 295:main.c        **** 		
 296:main.c        **** 		SAR_SD += (float)(i-1)/(float)(i)*(SAR1_Result_Current - SAR_Result)*(SAR1_Result_Current - SAR_R
 297:main.c        **** 		SAR_Result += ((float)SAR1_Result_Current - (float)SAR_Result)/(float)i;
 298:main.c        **** 	}
 299:main.c        **** 	
 300:main.c        **** 	*average = SAR_Result;
 301:main.c        **** 	*standardDeviation = SAR_SD;
 302:main.c        **** }
 303:main.c        **** 
 304:main.c        **** // Measure SAR2 ADC
 305:main.c        **** void SAR2_Measure_V(int32* average, int32* standardDeviation, uint32 sampleCount) {
 306:main.c        **** 	int32 SAR_Result = 0;
 307:main.c        **** 	int32 SAR_SD = 0;
 308:main.c        **** 	
 309:main.c        **** 	for (uint32 i = 1; i <= sampleCount; i++) {
 310:main.c        **** 		ADC_SAR_2_StartConvert();
ARM GAS  C:\Users\FRANKL~1\AppData\Local\Temp\ccba5qpo.s 			page 9


 311:main.c        **** 		while (!ADC_SAR_2_IsEndConversion(ADC_SAR_2_RETURN_STATUS));
 312:main.c        **** 		
 313:main.c        **** 		int32 SAR2_Result_Current = ADC_SAR_2_CountsTo_uVolts(ADC_SAR_2_GetResult16());
 314:main.c        **** 		
 315:main.c        **** 		SAR_SD += (float)(i-1)/(float)(i)*(SAR2_Result_Current - SAR_Result)*(SAR2_Result_Current - SAR_R
 316:main.c        **** 		SAR_Result += ((float)SAR2_Result_Current - (float)SAR_Result)/(float)i;
 317:main.c        **** 	}
 318:main.c        **** 	
 319:main.c        **** 	*average = SAR_Result;
 320:main.c        **** 	*standardDeviation = SAR_SD;
 321:main.c        **** }
 322:main.c        **** 
 323:main.c        **** // Measure current and compare it to some compliance value
 324:main.c        **** void Measure_Current_Vss(float* currentAverageIn, float* currentStdDevIn, uint32 sampleCount) {
 325:main.c        **** 	Compliance_Reached = 0;
 326:main.c        **** 	
 327:main.c        **** 	// Voltage and its standard deviation (in uV)
 328:main.c        **** 	int32 voltage = 0;
 329:main.c        **** 	int32 voltageSD = 0;
 330:main.c        **** 	
 331:main.c        **** 	// Current and its standard deviation (in A)
 332:main.c        **** 	float currentNow = 0;
 333:main.c        **** 	
 334:main.c        **** 	float currentAverage = 0;
 335:main.c        **** 	float currentStdDev = 0;
 336:main.c        **** 	
 337:main.c        **** 	float TIA_Feedback_R = TIA_Resistor_Values[TIA_Selected_Resistor];
 338:main.c        **** 	float unitConversion = -1.0e-6/TIA_Feedback_R;
 339:main.c        **** 	
 340:main.c        **** 	// Allow for the first measurement (normally not correct) to take place
 341:main.c        **** 	ADC_Measure_uV(&voltage, &voltageSD, 3);
 342:main.c        **** 	
 343:main.c        **** 	// Now take the real measurement
 344:main.c        **** 	for (uint32 i = 1; i <= sampleCount; i++) {
 345:main.c        **** 		ADC_Measure_uV(&voltage, &voltageSD, 1);
 346:main.c        **** 		
 347:main.c        **** 		currentNow = unitConversion*voltage;
 348:main.c        **** 		
 349:main.c        **** 		if (abs(currentNow) > COMPLIANCE_CURRENT_LIMIT) {
 350:main.c        **** 			Compliance_Reached += 1;
 351:main.c        **** 			break;
 352:main.c        **** 		} else {
 353:main.c        **** 			Compliance_Reached = 0;
 354:main.c        **** 		}
 355:main.c        **** 		
 356:main.c        **** 		currentStdDev += ((float)i-1.0)/(float)(i)*(currentNow - currentAverage)*(currentNow - currentAve
 357:main.c        **** 		currentAverage += (currentNow - currentAverage)/(float)i;
 358:main.c        **** 	}
 359:main.c        **** 	
 360:main.c        **** 	*currentAverageIn = currentAverage;
 361:main.c        **** 	*currentStdDevIn = currentStdDev;
 362:main.c        **** }
 363:main.c        **** 
 364:main.c        **** uint8 At_Compliance() {
 365:main.c        **** 	Compliance_Reached = 0;
 366:main.c        **** 	
 367:main.c        **** 	float current = 0;
ARM GAS  C:\Users\FRANKL~1\AppData\Local\Temp\ccba5qpo.s 			page 10


 368:main.c        **** 	float currentSD = 0;
 369:main.c        **** 	
 370:main.c        **** 	Measure_Current_Vss(&current, &currentSD, 3);
 371:main.c        **** 	
 372:main.c        **** 	if (abs(current) > COMPLIANCE_CURRENT_LIMIT) {
 373:main.c        **** 		Compliance_Reached = 1;
 374:main.c        **** 		return 1;
 375:main.c        **** 	}
 376:main.c        **** 	
 377:main.c        **** 	return 0;
 378:main.c        **** }
 379:main.c        **** 
 380:main.c        **** void Handle_Compliance_Breach() {
 381:main.c        **** 	uint8 istart = VDAC_Vds_Data;
 382:main.c        **** 	uint8 istop = VDAC_Ref_Data;
 383:main.c        **** 	int8 increment = 1;
 384:main.c        **** 	if (istart < istop) increment = -1;
 385:main.c        **** 	
 386:main.c        **** 	for (uint8 i = istart; i != istop; i += increment) {
 387:main.c        **** 		VDAC_Vds_SetValue(i);
 388:main.c        **** 		
 389:main.c        **** 		if (!At_Compliance()) return;
 390:main.c        **** 	}
 391:main.c        **** 	
 392:main.c        **** 	istart = VDAC_Vgs_Data;
 393:main.c        **** 	istop = VDAC_Ref_Data;
 394:main.c        **** 	increment = 1;
 395:main.c        **** 	if (istart < istop) increment = -1;
 396:main.c        **** 	
 397:main.c        **** 	for (uint8 i = istart; i != istop; i += increment) {
 398:main.c        **** 		VDAC_Vgs_SetValue(i);
 399:main.c        **** 		
 400:main.c        **** 		if (!At_Compliance()) return;
 401:main.c        **** 	}
 402:main.c        **** 	
 403:main.c        **** 	// To do: Should disconnect something or take some other action at this point since still at compl
 404:main.c        **** }
 405:main.c        **** 
 406:main.c        **** // Get the reference voltage in volts
 407:main.c        **** float Get_Ref() {
 408:main.c        **** 	float result = 4.080/255.0*VDAC_Ref_Data;
 409:main.c        **** 	if (VDAC_Ref_CR0 & (VDAC_Ref_RANGE_1V & VDAC_Ref_RANGE_MASK)) {
 410:main.c        **** 		result = 1.020/255.0*VDAC_Ref_Data;
 411:main.c        **** 	}
 412:main.c        **** 	return result;
 413:main.c        **** }
 414:main.c        **** 
 415:main.c        **** // Get Vgs in volts
 416:main.c        **** float Get_Vgs() {
 417:main.c        **** 	float result = 4.080/255.0*VDAC_Vgs_Data - Get_Ref();
 418:main.c        **** 	if (VDAC_Vgs_CR0 & (VDAC_Vgs_RANGE_1V & VDAC_Vgs_RANGE_MASK)) {
 419:main.c        **** 		result = 1.020/255.0*VDAC_Vgs_Data - Get_Ref();
 420:main.c        **** 	}
 421:main.c        **** 	return result;
 422:main.c        **** }
 423:main.c        **** 
 424:main.c        **** // Get Vds in volts
ARM GAS  C:\Users\FRANKL~1\AppData\Local\Temp\ccba5qpo.s 			page 11


 425:main.c        **** float Get_Vds() {
 426:main.c        **** 	float result = 4.080/255.0*VDAC_Vds_Data - Get_Ref();
 427:main.c        **** 	if (VDAC_Vds_CR0 & (VDAC_Vds_RANGE_1V & VDAC_Vds_RANGE_MASK)) {
 428:main.c        **** 		result = 1.020/255.0*VDAC_Vds_Data - Get_Ref();
 429:main.c        **** 	}
 430:main.c        **** 	return result;
 431:main.c        **** }
 432:main.c        **** 
 433:main.c        **** 
 434:main.c        **** // ****************************
 435:main.c        **** // Set the raw value of Vds
 436:main.c        **** void Set_Vds_Raw(uint8 value) {
 437:main.c        **** 	Vds_Index_Goal_Relative = (int16)value - (int16)VDAC_Ref_Data;
 438:main.c        **** 	
 439:main.c        **** 	uint8 istart = VDAC_Vds_Data;
 440:main.c        **** 	int8 increment = 1;
 441:main.c        **** 	if (istart > value) increment = -1;
 442:main.c        **** 	
 443:main.c        **** 	for (uint8 i = 0; i != value; i += increment) {
 444:main.c        **** 		if (At_Compliance()) {
 445:main.c        **** 			for (uint8 j = i; j != istart; j -= increment) {
 446:main.c        **** 				VDAC_Vds_SetValue(j);
 447:main.c        **** 				
 448:main.c        **** 				if (!At_Compliance()) return;
 449:main.c        **** 			}
 450:main.c        **** 			if (At_Compliance()) {
 451:main.c        **** 				Handle_Compliance_Breach();
 452:main.c        **** 				return;
 453:main.c        **** 			}
 454:main.c        **** 		}
 455:main.c        **** 		
 456:main.c        **** 		VDAC_Vds_SetValue(i);
 457:main.c        **** 	}
 458:main.c        **** }
 459:main.c        **** 
 460:main.c        **** // Set the raw value of Vgs
 461:main.c        **** void Set_Vgs_Raw(uint8 value) {
 462:main.c        **** 	Vgs_Index_Goal_Relative = (int16)value - (int16)VDAC_Ref_Data;
 463:main.c        **** 	
 464:main.c        **** 	int8 increment = 1;
 465:main.c        **** 	uint8 istart = VDAC_Vgs_Data;
 466:main.c        **** 	if (value < istart) increment = -1;
 467:main.c        **** 	
 468:main.c        **** 	for (uint8 i = istart; i != value; i += increment) {
 469:main.c        **** 		if (At_Compliance()) {
 470:main.c        **** 			for (uint8 j = i; j != istart; j -= increment) {
 471:main.c        **** 				VDAC_Vgs_SetValue(j);
 472:main.c        **** 				
 473:main.c        **** 				if (!At_Compliance()) return;
 474:main.c        **** 			}
 475:main.c        **** 			if (At_Compliance()) {
 476:main.c        **** 				Handle_Compliance_Breach();
 477:main.c        **** 				return;
 478:main.c        **** 			}
 479:main.c        **** 		}
 480:main.c        **** 		
 481:main.c        **** 		VDAC_Vgs_SetValue(i);
ARM GAS  C:\Users\FRANKL~1\AppData\Local\Temp\ccba5qpo.s 			page 12


 482:main.c        **** 	}
 483:main.c        **** }
 484:main.c        **** 
 485:main.c        **** // Set the raw value of the reference voltage
 486:main.c        **** void Set_Ref_Raw(uint8 value) {
 487:main.c        **** 	if (value < 6) value = 6;
 488:main.c        **** 	
 489:main.c        **** 	int8 increment = 1;
 490:main.c        **** 	if (value < VDAC_Ref_Data) increment = -1;
 491:main.c        **** 	
 492:main.c        **** 	for (uint8 i = VDAC_Ref_Data; i != value; i += increment) {
 493:main.c        **** 		
 494:main.c        **** 		if (At_Compliance()) return;
 495:main.c        **** 		
 496:main.c        **** 		int16 new_Vgs = (int16)i + Vgs_Index_Goal_Relative;
 497:main.c        **** 		int16 new_Vds = (int16)i + Vds_Index_Goal_Relative;
 498:main.c        **** 		
 499:main.c        **** 		if (new_Vgs > 255) new_Vgs = 255;
 500:main.c        **** 		if (new_Vds > 255) new_Vds = 255;
 501:main.c        **** 		
 502:main.c        **** 		if (new_Vgs < 0) new_Vgs = 0;
 503:main.c        **** 		if (new_Vds < 0) new_Vds = 0;
 504:main.c        **** 		
 505:main.c        **** 		VDAC_Ref_SetValue(i);
 506:main.c        **** 		VDAC_Vgs_SetValue(new_Vgs);
 507:main.c        **** 		VDAC_Vds_SetValue(new_Vds);
 508:main.c        **** 	}
 509:main.c        **** }
 510:main.c        **** // ****************************
 511:main.c        **** 
 512:main.c        **** // Set Vds and move the reference voltage if necessary
 513:main.c        **** void Set_Vds_Rel(int16 value) {
 514:main.c        **** 	if (value > 255) value = 255;
 515:main.c        **** 	if (value < -255) value = -255;
 516:main.c        **** 	
 517:main.c        **** 	int16 absolute = (int16)value + (int16)VDAC_Ref_Data;
 518:main.c        **** 	
 519:main.c        **** 	if (absolute > 255) {
 520:main.c        **** 		Set_Ref_Raw(VDAC_Ref_Data - (absolute - 255));
 521:main.c        **** 		Set_Vds_Raw(255);
 522:main.c        **** 	} else if (absolute < 0) {
 523:main.c        **** 		Set_Ref_Raw(VDAC_Ref_Data - absolute);
 524:main.c        **** 		Set_Vds_Raw(0);
 525:main.c        **** 	} else {
 526:main.c        **** 		Set_Vds_Raw(absolute);
 527:main.c        **** 	}
 528:main.c        **** 	
 529:main.c        **** 	Vds_Index_Goal_Relative = (int16)value;
 530:main.c        **** 	
 531:main.c        **** 	uint16 Vds_minRefRaw = Vds_Index_Goal_Relative > 0? 0: -Vds_Index_Goal_Relative;
 532:main.c        **** 	uint16 Vds_maxRefRaw = Vds_Index_Goal_Relative > 0? 255 - Vds_Index_Goal_Relative: 255;
 533:main.c        **** 	uint16 Vgs_minRefRaw = Vgs_Index_Goal_Relative > 0? 0: -Vgs_Index_Goal_Relative;
 534:main.c        **** 	uint16 Vgs_maxRefRaw = Vgs_Index_Goal_Relative > 0? 255 - Vgs_Index_Goal_Relative: 255;
 535:main.c        **** 	
 536:main.c        **** 	uint16 newRefRaw = VDAC_Ref_Data;
 537:main.c        **** 	
 538:main.c        **** 	if (newRefRaw < Vgs_minRefRaw) newRefRaw = Vgs_minRefRaw;
ARM GAS  C:\Users\FRANKL~1\AppData\Local\Temp\ccba5qpo.s 			page 13


 539:main.c        **** 	if (newRefRaw > Vgs_maxRefRaw) newRefRaw = Vgs_maxRefRaw;
 540:main.c        **** 	if (newRefRaw < Vds_minRefRaw) newRefRaw = Vds_minRefRaw;
 541:main.c        **** 	if (newRefRaw > Vds_maxRefRaw) newRefRaw = Vds_maxRefRaw;
 542:main.c        **** 	
 543:main.c        **** 	Set_Ref_Raw(newRefRaw);
 544:main.c        **** }
 545:main.c        **** 
 546:main.c        **** // Set Vgs and move the reference voltage if necessary
 547:main.c        **** void Set_Vgs_Rel(int16 value) {
 548:main.c        **** 	if (value > 255) value = 255;
 549:main.c        **** 	if (value < -255) value = -255;
 550:main.c        **** 	
 551:main.c        **** 	int16 absolute = (int16)value + (int16)VDAC_Ref_Data;
 552:main.c        **** 	
 553:main.c        **** 	if (absolute > 255) {
 554:main.c        **** 		Set_Ref_Raw(VDAC_Ref_Data - (absolute - 255));
 555:main.c        **** 		Set_Vgs_Raw(255);
 556:main.c        **** 	} else if (absolute < 0) {
 557:main.c        **** 		Set_Ref_Raw(VDAC_Ref_Data - absolute);
 558:main.c        **** 		Set_Vgs_Raw(0);
 559:main.c        **** 	} else {
 560:main.c        **** 		Set_Vgs_Raw(absolute);
 561:main.c        **** 	}
 562:main.c        **** 	
 563:main.c        **** 	Vgs_Index_Goal_Relative = (int16)value;
 564:main.c        **** 	
 565:main.c        **** 	uint16 Vds_minRefRaw = Vds_Index_Goal_Relative > 0? 0: -Vds_Index_Goal_Relative;
 566:main.c        **** 	uint16 Vds_maxRefRaw = Vds_Index_Goal_Relative > 0? 255 - Vds_Index_Goal_Relative: 255;
 567:main.c        **** 	uint16 Vgs_minRefRaw = Vgs_Index_Goal_Relative > 0? 0: -Vgs_Index_Goal_Relative;
 568:main.c        **** 	uint16 Vgs_maxRefRaw = Vgs_Index_Goal_Relative > 0? 255 - Vgs_Index_Goal_Relative: 255;
 569:main.c        **** 	
 570:main.c        **** 	uint16 newRefRaw = VDAC_Ref_Data;
 571:main.c        **** 	
 572:main.c        **** 	if (newRefRaw < Vds_minRefRaw) newRefRaw = Vds_minRefRaw;
 573:main.c        **** 	if (newRefRaw > Vds_maxRefRaw) newRefRaw = Vds_maxRefRaw;
 574:main.c        **** 	if (newRefRaw < Vgs_minRefRaw) newRefRaw = Vgs_minRefRaw;
 575:main.c        **** 	if (newRefRaw > Vgs_maxRefRaw) newRefRaw = Vgs_maxRefRaw;
 576:main.c        **** 	
 577:main.c        **** 	Set_Ref_Raw(newRefRaw);
 578:main.c        **** }
 579:main.c        **** // ****************************
 580:main.c        **** 
 581:main.c        **** // Set Vgs by volts (good for readability, but requires passing floats)
 582:main.c        **** void Set_Vgs(float voltage) {
 583:main.c        **** 	Set_Vgs_Rel((voltage/4.080)*255.0);
 584:main.c        **** }
 585:main.c        **** 
 586:main.c        **** // Set Vds by volts (good for readability, but requires passing floats)
 587:main.c        **** void Set_Vds(float voltage) {
 588:main.c        **** 	Set_Vds_Rel((voltage/4.080)*255.0);
 589:main.c        **** }
 590:main.c        **** // ****************************
 591:main.c        **** 
 592:main.c        **** // Set Vgs by mV (good for passing in integers instead of floats)
 593:main.c        **** void Set_Vgs_mV(float mV) {
 594:main.c        **** 	Set_Vgs(mV/1000.0);
 595:main.c        **** }
ARM GAS  C:\Users\FRANKL~1\AppData\Local\Temp\ccba5qpo.s 			page 14


 596:main.c        **** 
 597:main.c        **** // Set Vds by mV (good for passing in integers instead of floats)
 598:main.c        **** void Set_Vds_mV(float mV) {
 599:main.c        **** 	Set_Vds(mV/1000.0);
 600:main.c        **** }
 601:main.c        **** // ****************************
 602:main.c        **** 
 603:main.c        **** // Set Vgs and Vds to 0
 604:main.c        **** void Zero_All_DACs() {
 605:main.c        **** 	Set_Vds_Raw(0);
 606:main.c        **** 	Set_Vgs_Raw(0);
 607:main.c        **** 	
 608:main.c        **** 	VDAC_Vds_SetValue(0);
 609:main.c        **** 	VDAC_Vgs_SetValue(0);
 610:main.c        **** }
 611:main.c        **** 
 612:main.c        **** void Calibrate_ADC_Offset(uint32 sampleCount) {
 613:main.c        **** 	uint8 current_range_resistor = TIA_Selected_Resistor;
 614:main.c        **** 	
 615:main.c        **** 	// Zero the DACs
 616:main.c        **** 	Set_Vds(0);
 617:main.c        **** 	Set_Vgs(0);
 618:main.c        **** 	
 619:main.c        **** 	// Voltage and its standard deviation (in uV)
 620:main.c        **** 	int32 voltage = 0;
 621:main.c        **** 	int32 voltageSD = 0;
 622:main.c        **** 	
 623:main.c        **** 	// Measure ADC offset voltages
 624:main.c        **** 	for (uint8 i = R20K; i <= R1000K; i++) {
 625:main.c        **** 		TIA_Set_Resistor(i);
 626:main.c        **** 		// Take a few measurements to discard any problems with the initial measurements
 627:main.c        **** 		ADC_Measure_uV(&voltage, &voltageSD, 3);
 628:main.c        **** 		ADC_Measure_uV(&voltage, &voltageSD, sampleCount);
 629:main.c        **** 		TIA_Offsets_uV[i] = -voltage;
 630:main.c        **** 		sprintf(TransmitBuffer, "# Offset %e Ohm: %li uV\r\n", TIA_Resistor_Values[i], -voltage);
 631:main.c        **** 		USBUARTH_Send(TransmitBuffer, strlen(TransmitBuffer));
 632:main.c        **** 		UART_1_PutString(TransmitBuffer);
 633:main.c        **** 	}
 634:main.c        **** 	
 635:main.c        **** 	// Reset TIA Resistor
 636:main.c        **** 	TIA_Set_Resistor(current_range_resistor);
 637:main.c        **** 	
 638:main.c        **** 	sprintf(TransmitBuffer, "# Calibrated ADC Offsets\r\n");
 639:main.c        **** 	USBUARTH_Send(TransmitBuffer, strlen(TransmitBuffer));
 640:main.c        **** 	UART_1_PutString(TransmitBuffer);
 641:main.c        **** }
 642:main.c        **** 
 643:main.c        **** // Take a measurement of the system (Id - from delta-sigma ADC, Vgs, Vds, SAR1 ADC, SAR2 ADC)
 644:main.c        **** void Measure(uint32 deltaSigmaSampleCount, uint32 SAR1_SampleCount, uint32 SAR2_SampleCount) {
 645:main.c        **** 	int32 ADC_Voltage = 0;
 646:main.c        **** 	int32 ADC_Voltage_SD = 0;
 647:main.c        **** 	
 648:main.c        **** 	ADC_Measure_uV(&ADC_Voltage, &ADC_Voltage_SD, deltaSigmaSampleCount);
 649:main.c        **** 	
 650:main.c        **** 	float TIA_Feedback_R = TIA_Resistor_Values[TIA_Selected_Resistor];
 651:main.c        **** 	int32 TIA_Offset_uV = TIA_Offsets_uV[TIA_Selected_Resistor];
 652:main.c        **** 	float unitConversion = -1.0e-6/TIA_Feedback_R;
ARM GAS  C:\Users\FRANKL~1\AppData\Local\Temp\ccba5qpo.s 			page 15


 653:main.c        **** 	
 654:main.c        **** 	float IdsAverageAmps = unitConversion * (ADC_Voltage + TIA_Offset_uV);
 655:main.c        **** 	
 656:main.c        **** 	//ADC_SAR_1_StartConvert();
 657:main.c        **** 	//ADC_SAR_2_StartConvert();
 658:main.c        **** 	//while (!ADC_SAR_1_IsEndConversion(ADC_SAR_1_RETURN_STATUS));
 659:main.c        **** 	//while (!ADC_SAR_2_IsEndConversion(ADC_SAR_2_RETURN_STATUS));
 660:main.c        **** 	//float SAR1 = ADC_SAR_1_CountsTo_Volts(ADC_SAR_1_GetResult16());
 661:main.c        **** 	//float SAR2 = ADC_SAR_2_CountsTo_Volts(ADC_SAR_2_GetResult16());
 662:main.c        **** 	
 663:main.c        **** 	int32 SAR1_Average = 0;
 664:main.c        **** 	int32 SAR1_SD = 0;
 665:main.c        **** 	int32 SAR2_Average = 0;
 666:main.c        **** 	int32 SAR2_SD = 0;
 667:main.c        **** 
 668:main.c        **** 	SAR1_Measure_V(&SAR1_Average, &SAR1_SD, SAR1_SampleCount);
 669:main.c        **** 	SAR2_Measure_V(&SAR2_Average, &SAR2_SD, SAR2_SampleCount);
 670:main.c        **** 
 671:main.c        **** 	float SAR1 = 1e-6*SAR1_Average;
 672:main.c        **** 	float SAR2 = 1e-6*SAR2_Average;
 673:main.c        **** 
 674:main.c        **** 	sprintf(TransmitBuffer, "[%e,%f,%f,%f,%u]\r\n", IdsAverageAmps, Get_Vgs(), Get_Vds(), SAR1, VDAC_R
 675:main.c        **** 	USBUARTH_Send(TransmitBuffer, strlen(TransmitBuffer));
 676:main.c        **** 	UART_1_PutString(TransmitBuffer);
 677:main.c        **** }
 678:main.c        **** 
 679:main.c        **** // Repeatedly take measurements of the system
 680:main.c        **** void Measure_Multiple(uint32 n) {
 681:main.c        **** 	for (uint32 i = 0; i < n; i++) {
 682:main.c        **** 		Measure(100, 1, 10);
 683:main.c        **** 	}
 684:main.c        **** }
 685:main.c        **** 
 686:main.c        **** // Take a basic gate sweep (hardcoded voltages, hardcoded number of data points)
 687:main.c        **** void Measure_Sweep() {
 688:main.c        **** 	VDAC_Vds_SetValue(90);
 689:main.c        **** 	VDAC_Vgs_SetValue(254);
 690:main.c        **** 	
 691:main.c        **** 	for (uint16 Vgsi = 0; Vgsi < 256; Vgsi++) {
 692:main.c        **** 		VDAC_Vgs_SetValue(Vgsi);
 693:main.c        **** 		Measure(100, 1, 1);
 694:main.c        **** 	}
 695:main.c        **** }
 696:main.c        **** 
 697:main.c        **** void Measure_Gate_Sweep(uint8 loop) {
 698:main.c        **** 	
 699:main.c        **** 	if (Vds_Index_Goal_Relative > 0) {
 700:main.c        **** 		Set_Ref_Raw(254 - Vds_Index_Goal_Relative);
 701:main.c        **** 	} else {
 702:main.c        **** 		Set_Ref_Raw(254);
 703:main.c        **** 	}
 704:main.c        **** 	
 705:main.c        **** 	int8 speed = 16;
 706:main.c        **** 	
 707:main.c        **** 	for (uint8 l = 0; l <= loop; l++) {
 708:main.c        **** 		int8 direction = 1*speed;
 709:main.c        **** 		uint8 istart = 0;
ARM GAS  C:\Users\FRANKL~1\AppData\Local\Temp\ccba5qpo.s 			page 16


 710:main.c        **** 		if (Vds_Index_Goal_Relative < 0) {
 711:main.c        **** 			istart = -Vds_Index_Goal_Relative;
 712:main.c        **** 		}
 713:main.c        **** 		
 714:main.c        **** 		uint8 istop = 256-speed;
 715:main.c        **** 		
 716:main.c        **** 		if (l%2 == 1) {
 717:main.c        **** 			direction = -1*speed;
 718:main.c        **** 			istart = 256-speed;
 719:main.c        **** 			istop = 0;
 720:main.c        **** 		}
 721:main.c        **** 		
 722:main.c        **** 		for (uint8 i = istart; i != istop; i += direction) {
 723:main.c        **** 			for (uint8 j = 0; j <= 1; j++) {
 724:main.c        **** 				if (j == 1) Set_Ref_Raw(254 - i + 1);
 725:main.c        **** 				Set_Vgs_Raw(i);
 726:main.c        **** 				
 727:main.c        **** 				Measure(33, 1, 1);
 728:main.c        **** 				
 729:main.c        **** 				if (G_Stop) break;
 730:main.c        **** 				while (G_Pause);
 731:main.c        **** 			}
 732:main.c        **** 		}
 733:main.c        **** 	}
 734:main.c        **** }
 735:main.c        **** 
 736:main.c        **** void Measure_Wide_Gate_Sweep(uint8 loop) {
 737:main.c        **** 	Set_Ref_Raw(254);
 738:main.c        **** 	
 739:main.c        **** 	int8 speed = 16;
 740:main.c        **** 	
 741:main.c        **** 	for (uint8 l = 0; l <= loop; l++) {
 742:main.c        **** 		int8 direction = 1*speed;
 743:main.c        **** 		uint8 istart = 0;
 744:main.c        **** 		uint8 istop = 256-speed;
 745:main.c        **** 		
 746:main.c        **** 		if (l%2 == 1) {
 747:main.c        **** 			direction = -1*speed;
 748:main.c        **** 			istart = 256-speed;
 749:main.c        **** 			istop = 0;
 750:main.c        **** 		}
 751:main.c        **** 		
 752:main.c        **** 		for (uint8 i = istart; i != istop; i += direction) {
 753:main.c        **** 			for (uint8 j = 0; j <= 1; j++) {
 754:main.c        **** 				
 755:main.c        **** 				if (j == 1) Set_Ref_Raw(254 - i + 1);
 756:main.c        **** 				Set_Vgs_Raw(i);
 757:main.c        **** 				
 758:main.c        **** 				Measure(33, 1, 1);
 759:main.c        **** 				
 760:main.c        **** 				if (G_Stop) break;
 761:main.c        **** 				while (G_Pause);
 762:main.c        **** 			}
 763:main.c        **** 		}
 764:main.c        **** 	}
 765:main.c        **** }
 766:main.c        **** 
ARM GAS  C:\Users\FRANKL~1\AppData\Local\Temp\ccba5qpo.s 			page 17


 767:main.c        **** void Measure_Gate_Sweep_New() {
 768:main.c        **** 	uint8 refTurn = 1;
 769:main.c        **** 	int8 refIncrement = 1;
 770:main.c        **** 	uint8 startRefIndex = 0;
 771:main.c        **** 	uint8 endRefIndex = 0;
 772:main.c        **** 	uint8 refIndex = startRefIndex;
 773:main.c        **** 	uint8 refArrived = 0;
 774:main.c        **** 	
 775:main.c        **** 	int8 gateIncrement = 1;
 776:main.c        **** 	uint8 startGateIndex = 0;
 777:main.c        **** 	uint8 endGateIndex = 0;
 778:main.c        **** 	uint8 gateIndex = startGateIndex;
 779:main.c        **** 	uint8 gateArrived = 0;
 780:main.c        **** 	
 781:main.c        **** 	
 782:main.c        **** 	while (!gateArrived || !refArrived) {
 783:main.c        **** 		gateArrived = abs(gateIndex-endGateIndex) < abs(gateIncrement);
 784:main.c        **** 		refArrived = abs(refIndex-endRefIndex) < abs(refIncrement);
 785:main.c        **** 		
 786:main.c        **** 		refTurn = !refTurn;
 787:main.c        **** 		
 788:main.c        **** 		if (refTurn && refArrived) continue;
 789:main.c        **** 		if (!refTurn && gateArrived) continue;
 790:main.c        **** 		
 791:main.c        **** 		Set_Ref_Raw(refIndex);
 792:main.c        **** 		Set_Vgs_Raw(gateIndex);
 793:main.c        **** 		
 794:main.c        **** 		Measure(100, 1, 1);
 795:main.c        **** 		
 796:main.c        **** 		if (refTurn) {
 797:main.c        **** 			refIndex += refIncrement;
 798:main.c        **** 		} else {
 799:main.c        **** 			gateIndex += gateIncrement;
 800:main.c        **** 		}
 801:main.c        **** 		
 802:main.c        **** 		if (G_Stop) break;
 803:main.c        **** 		while (G_Pause);
 804:main.c        **** 	}
 805:main.c        **** }
 806:main.c        **** 
 807:main.c        **** void Scan(uint8 wide, uint8 loop) {
 808:main.c        **** 	for (uint8 device = 1; device <= CONTACT_COUNT/**//2; device++) {
 809:main.c        **** 		uint8 contact1 = device;
 810:main.c        **** 		uint8 contact2 = device + 1;
 811:main.c        **** 		uint8 intermediate1 = 1;
 812:main.c        **** 		uint8 intermediate2 = 2;
 813:main.c        **** 		
 814:main.c        **** 		Disconnect_All_Contacts_From_All_Intermediates();
 815:main.c        **** 		Zero_All_DACs();
 816:main.c        **** 		Connect_Intermediates();
 817:main.c        **** 		Connect_Contact_To_Intermediate(contact1, intermediate1);
 818:main.c        **** 		Connect_Contact_To_Intermediate(contact2, intermediate2);
 819:main.c        **** 		
 820:main.c        **** 		sprintf(TransmitBuffer, "\r\n%u\r\n", device);
 821:main.c        **** 		USBUARTH_Send(TransmitBuffer, strlen(TransmitBuffer));
 822:main.c        **** 		UART_1_PutString(TransmitBuffer);
 823:main.c        **** 		
ARM GAS  C:\Users\FRANKL~1\AppData\Local\Temp\ccba5qpo.s 			page 18


 824:main.c        **** 		if (wide) {
 825:main.c        **** 			Measure_Wide_Gate_Sweep(loop);
 826:main.c        **** 		} else {
 827:main.c        **** 			Measure_Gate_Sweep(loop);
 828:main.c        **** 		}
 829:main.c        **** 		
 830:main.c        **** 		if (G_Break || G_Stop) break;
 831:main.c        **** 		while (G_Pause);
 832:main.c        **** 	}
 833:main.c        **** }
 834:main.c        **** 
 835:main.c        **** void Scan_Range(uint8 startDevice, uint8 stopDevice, uint8 wide, uint8 loop) {
 836:main.c        **** 	if (startDevice >= CONTACT_COUNT) return;
 837:main.c        **** 	if (stopDevice >= CONTACT_COUNT) return;
 838:main.c        **** 	
 839:main.c        **** 	for (uint8 device = startDevice; device <= stopDevice; device++) {
 840:main.c        **** 		uint8 contact1 = device;
 841:main.c        **** 		uint8 contact2 = device + 1;
 842:main.c        **** 		uint8 intermediate1 = 1;
 843:main.c        **** 		uint8 intermediate2 = 2;
 844:main.c        **** 		
 845:main.c        **** 		Disconnect_All_Contacts_From_All_Intermediates();
 846:main.c        **** 		Zero_All_DACs();
 847:main.c        **** 		Connect_Intermediates();
 848:main.c        **** 		Connect_Contact_To_Intermediate(contact1, intermediate1);
 849:main.c        **** 		Connect_Contact_To_Intermediate(contact2, intermediate2);
 850:main.c        **** 		
 851:main.c        **** 		sprintf(TransmitBuffer, "\r\n%u\r\n", device);
 852:main.c        **** 		USBUARTH_Send(TransmitBuffer, strlen(TransmitBuffer));
 853:main.c        **** 		UART_1_PutString(TransmitBuffer);
 854:main.c        **** 		
 855:main.c        **** 		if (wide) {
 856:main.c        **** 			Measure_Wide_Gate_Sweep(loop);
 857:main.c        **** 		} else {
 858:main.c        **** 			Measure_Gate_Sweep(loop);
 859:main.c        **** 		}
 860:main.c        **** 		
 861:main.c        **** 		if (G_Break || G_Stop) break;
 862:main.c        **** 		while (G_Pause);
 863:main.c        **** 	}
 864:main.c        **** }
 865:main.c        **** 
 866:main.c        **** CY_ISR (CommunicationHandlerISR) {
 109              		.loc 2 866 0
 110              		.cfi_startproc
 111              		@ args = 0, pretend = 0, frame = 64
 112              		@ frame_needed = 0, uses_anonymous_args = 0
 113 0000 30B5     		push	{r4, r5, lr}
 114              		.cfi_def_cfa_offset 12
 115              		.cfi_offset 4, -12
 116              		.cfi_offset 5, -8
 117              		.cfi_offset 14, -4
 118 0002 91B0     		sub	sp, sp, #68
 119              		.cfi_def_cfa_offset 80
 867:main.c        **** 	if (USBUARTH_DataIsReady()) {
 120              		.loc 2 867 0
 121 0004 FFF7FEFF 		bl	USBUARTH_DataIsReady
ARM GAS  C:\Users\FRANKL~1\AppData\Local\Temp\ccba5qpo.s 			page 19


 122              	.LVL8:
 123 0008 0028     		cmp	r0, #0
 124 000a 37D0     		beq	.L10
 125              	.LBB2:
 868:main.c        **** 		// USBUARTH_Receive_Until(UART_Receive_Buffer, USBUART_BUFFER_SIZE, "\r");
 869:main.c        **** 		
 870:main.c        **** 		char temp_buffer[USBUART_BUFFER_SIZE];
 871:main.c        **** 		uint8 temp_count = USBUART_GetAll((uint8*) temp_buffer);
 126              		.loc 2 871 0
 127 000c 6846     		mov	r0, sp
 128 000e FFF7FEFF 		bl	USBUART_GetAll
 129              	.LVL9:
 130 0012 C0B2     		uxtb	r0, r0
 131              	.LVL10:
 132              	.LBB3:
 872:main.c        **** 		
 873:main.c        **** 		for (uint8 i = 0; i < temp_count; i++) {
 133              		.loc 2 873 0
 134 0014 0023     		movs	r3, #0
 135 0016 2EE0     		b	.L11
 136              	.LVL11:
 137              	.L17:
 138              	.LBB4:
 874:main.c        **** 			char c = temp_buffer[i];
 139              		.loc 2 874 0
 140 0018 10AA     		add	r2, sp, #64
 141 001a 1A44     		add	r2, r2, r3
 142 001c 12F8402C 		ldrb	r2, [r2, #-64]	@ zero_extendqisi2
 143              	.LVL12:
 875:main.c        **** 			
 876:main.c        **** 			USBUART_Receive_Buffer[USBUART_Rx_Position] = c;
 144              		.loc 2 876 0
 145 0020 5949     		ldr	r1, .L31
 146 0022 0978     		ldrb	r1, [r1]	@ zero_extendqisi2
 147 0024 C9B2     		uxtb	r1, r1
 148 0026 594C     		ldr	r4, .L31+4
 149 0028 6254     		strb	r2, [r4, r1]
 877:main.c        **** 			
 878:main.c        **** 			// sprintf(TransmitBuffer, "USB: %c\r\n", USBUART_Receive_Buffer[USBUART_Rx_Position]);
 879:main.c        **** 			// UART_1_PutString(TransmitBuffer);
 880:main.c        **** 			
 881:main.c        **** 			if (c == '\r' || c == '\n' || c == '!') {
 150              		.loc 2 881 0
 151 002a 0D2A     		cmp	r2, #13
 152 002c 03D0     		beq	.L12
 153              		.loc 2 881 0 is_stmt 0 discriminator 1
 154 002e 0A2A     		cmp	r2, #10
 155 0030 01D0     		beq	.L12
 156              		.loc 2 881 0 discriminator 2
 157 0032 212A     		cmp	r2, #33
 158 0034 10D1     		bne	.L13
 159              	.L12:
 882:main.c        **** 				USBUART_Receive_Buffer[USBUART_Rx_Position] = 0;
 160              		.loc 2 882 0 is_stmt 1
 161 0036 5449     		ldr	r1, .L31
 162 0038 0A78     		ldrb	r2, [r1]	@ zero_extendqisi2
 163              	.LVL13:
ARM GAS  C:\Users\FRANKL~1\AppData\Local\Temp\ccba5qpo.s 			page 20


 164 003a D2B2     		uxtb	r2, r2
 165 003c 0025     		movs	r5, #0
 166 003e 534C     		ldr	r4, .L31+4
 167 0040 A554     		strb	r5, [r4, r2]
 883:main.c        **** 				if (USBUART_Rx_Position) newData = 1;
 168              		.loc 2 883 0
 169 0042 0A78     		ldrb	r2, [r1]	@ zero_extendqisi2
 170 0044 12F0FF0F 		tst	r2, #255
 171 0048 02D0     		beq	.L14
 172              		.loc 2 883 0 is_stmt 0 discriminator 1
 173 004a 0121     		movs	r1, #1
 174 004c 504A     		ldr	r2, .L31+8
 175 004e 1170     		strb	r1, [r2]
 176              	.L14:
 884:main.c        **** 				USBUART_Rx_Position = 0;
 177              		.loc 2 884 0 is_stmt 1
 178 0050 0021     		movs	r1, #0
 179 0052 4D4A     		ldr	r2, .L31
 180 0054 1170     		strb	r1, [r2]
 181 0056 04E0     		b	.L15
 182              	.LVL14:
 183              	.L13:
 885:main.c        **** 			} else {
 886:main.c        **** 				USBUART_Rx_Position++;
 184              		.loc 2 886 0
 185 0058 4B49     		ldr	r1, .L31
 186 005a 0A78     		ldrb	r2, [r1]	@ zero_extendqisi2
 187              	.LVL15:
 188 005c 0132     		adds	r2, r2, #1
 189 005e D2B2     		uxtb	r2, r2
 190 0060 0A70     		strb	r2, [r1]
 191              	.L15:
 887:main.c        **** 			}
 888:main.c        **** 			
 889:main.c        **** 			if (USBUART_Rx_Position >= USBUART_BUFFER_SIZE) USBUART_Rx_Position = 0;
 192              		.loc 2 889 0
 193 0062 494A     		ldr	r2, .L31
 194 0064 1278     		ldrb	r2, [r2]	@ zero_extendqisi2
 195 0066 D2B2     		uxtb	r2, r2
 196 0068 3F2A     		cmp	r2, #63
 197 006a 02D9     		bls	.L16
 198              		.loc 2 889 0 is_stmt 0 discriminator 1
 199 006c 0021     		movs	r1, #0
 200 006e 464A     		ldr	r2, .L31
 201 0070 1170     		strb	r1, [r2]
 202              	.L16:
 203              	.LBE4:
 873:main.c        **** 			char c = temp_buffer[i];
 204              		.loc 2 873 0 is_stmt 1 discriminator 2
 205 0072 0133     		adds	r3, r3, #1
 206              	.LVL16:
 207 0074 DBB2     		uxtb	r3, r3
 208              	.LVL17:
 209              	.L11:
 873:main.c        **** 			char c = temp_buffer[i];
 210              		.loc 2 873 0 is_stmt 0 discriminator 1
 211 0076 8342     		cmp	r3, r0
ARM GAS  C:\Users\FRANKL~1\AppData\Local\Temp\ccba5qpo.s 			page 21


 212 0078 CED3     		bcc	.L17
 213 007a 3AE0     		b	.L18
 214              	.LVL18:
 215              	.L10:
 216              	.LBE3:
 217              	.LBE2:
 890:main.c        **** 		}
 891:main.c        **** 	} else
 892:main.c        **** 	if (UART_1_GetRxBufferSize()) {
 218              		.loc 2 892 0 is_stmt 1
 219 007c FFF7FEFF 		bl	UART_1_GetRxBufferSize
 220              	.LVL19:
 221 0080 0028     		cmp	r0, #0
 222 0082 36D0     		beq	.L18
 893:main.c        **** 		UART_Receive_Buffer[UART_Rx_Position] = UART_1_GetChar();
 223              		.loc 2 893 0
 224 0084 434D     		ldr	r5, .L31+12
 225 0086 2C78     		ldrb	r4, [r5]	@ zero_extendqisi2
 226 0088 E4B2     		uxtb	r4, r4
 227 008a FFF7FEFF 		bl	UART_1_GetChar
 228              	.LVL20:
 229 008e 424A     		ldr	r2, .L31+16
 230 0090 1055     		strb	r0, [r2, r4]
 894:main.c        **** 		
 895:main.c        **** 		if (UART_Receive_Buffer[UART_Rx_Position] == '\r' || UART_Receive_Buffer[UART_Rx_Position] == '\n
 231              		.loc 2 895 0
 232 0092 2B78     		ldrb	r3, [r5]	@ zero_extendqisi2
 233 0094 DBB2     		uxtb	r3, r3
 234 0096 D35C     		ldrb	r3, [r2, r3]	@ zero_extendqisi2
 235 0098 DBB2     		uxtb	r3, r3
 236 009a 0D2B     		cmp	r3, #13
 237 009c 0BD0     		beq	.L19
 238              		.loc 2 895 0 is_stmt 0 discriminator 1
 239 009e 2B78     		ldrb	r3, [r5]	@ zero_extendqisi2
 240 00a0 DBB2     		uxtb	r3, r3
 241 00a2 D35C     		ldrb	r3, [r2, r3]	@ zero_extendqisi2
 242 00a4 DBB2     		uxtb	r3, r3
 243 00a6 0A2B     		cmp	r3, #10
 244 00a8 05D0     		beq	.L19
 245              		.loc 2 895 0 discriminator 2
 246 00aa 2B78     		ldrb	r3, [r5]	@ zero_extendqisi2
 247 00ac DBB2     		uxtb	r3, r3
 248 00ae D35C     		ldrb	r3, [r2, r3]	@ zero_extendqisi2
 249 00b0 DBB2     		uxtb	r3, r3
 250 00b2 212B     		cmp	r3, #33
 251 00b4 10D1     		bne	.L20
 252              	.L19:
 896:main.c        **** 			UART_Receive_Buffer[UART_Rx_Position] = 0;
 253              		.loc 2 896 0 is_stmt 1
 254 00b6 374A     		ldr	r2, .L31+12
 255 00b8 1378     		ldrb	r3, [r2]	@ zero_extendqisi2
 256 00ba DBB2     		uxtb	r3, r3
 257 00bc 0020     		movs	r0, #0
 258 00be 3649     		ldr	r1, .L31+16
 259 00c0 C854     		strb	r0, [r1, r3]
 897:main.c        **** 			if (UART_Rx_Position) newData = 2;
 260              		.loc 2 897 0
ARM GAS  C:\Users\FRANKL~1\AppData\Local\Temp\ccba5qpo.s 			page 22


 261 00c2 1378     		ldrb	r3, [r2]	@ zero_extendqisi2
 262 00c4 13F0FF0F 		tst	r3, #255
 263 00c8 02D0     		beq	.L21
 264              		.loc 2 897 0 is_stmt 0 discriminator 1
 265 00ca 0222     		movs	r2, #2
 266 00cc 304B     		ldr	r3, .L31+8
 267 00ce 1A70     		strb	r2, [r3]
 268              	.L21:
 898:main.c        **** 			UART_Rx_Position = 0;
 269              		.loc 2 898 0 is_stmt 1
 270 00d0 0022     		movs	r2, #0
 271 00d2 304B     		ldr	r3, .L31+12
 272 00d4 1A70     		strb	r2, [r3]
 273 00d6 04E0     		b	.L22
 274              	.L20:
 899:main.c        **** 		} else {
 900:main.c        **** 			UART_Rx_Position++;
 275              		.loc 2 900 0
 276 00d8 2E4A     		ldr	r2, .L31+12
 277 00da 1378     		ldrb	r3, [r2]	@ zero_extendqisi2
 278 00dc 0133     		adds	r3, r3, #1
 279 00de DBB2     		uxtb	r3, r3
 280 00e0 1370     		strb	r3, [r2]
 281              	.L22:
 901:main.c        **** 		}
 902:main.c        **** 		
 903:main.c        **** 		if (UART_Rx_Position >= USBUART_BUFFER_SIZE) UART_Rx_Position = 0;
 282              		.loc 2 903 0
 283 00e2 2C4B     		ldr	r3, .L31+12
 284 00e4 1B78     		ldrb	r3, [r3]	@ zero_extendqisi2
 285 00e6 DBB2     		uxtb	r3, r3
 286 00e8 3F2B     		cmp	r3, #63
 287 00ea 02D9     		bls	.L18
 288              		.loc 2 903 0 is_stmt 0 discriminator 1
 289 00ec 0022     		movs	r2, #0
 290 00ee 294B     		ldr	r3, .L31+12
 291 00f0 1A70     		strb	r2, [r3]
 292              	.L18:
 904:main.c        **** 	}
 905:main.c        **** 	
 906:main.c        **** 	if (newData) {
 293              		.loc 2 906 0 is_stmt 1
 294 00f2 274B     		ldr	r3, .L31+8
 295 00f4 1B78     		ldrb	r3, [r3]	@ zero_extendqisi2
 296 00f6 13F0FF0F 		tst	r3, #255
 297 00fa 3FD0     		beq	.L23
 298              	.LVL21:
 299              	.LBB5:
 907:main.c        **** 		char* ReceiveBuffer = &USBUART_Receive_Buffer[0];
 908:main.c        **** 		if (newData == 2) ReceiveBuffer = &UART_Receive_Buffer[0];
 300              		.loc 2 908 0
 301 00fc 244B     		ldr	r3, .L31+8
 302 00fe 1B78     		ldrb	r3, [r3]	@ zero_extendqisi2
 303 0100 DBB2     		uxtb	r3, r3
 304 0102 022B     		cmp	r3, #2
 305 0104 01D0     		beq	.L29
 907:main.c        **** 		char* ReceiveBuffer = &USBUART_Receive_Buffer[0];
ARM GAS  C:\Users\FRANKL~1\AppData\Local\Temp\ccba5qpo.s 			page 23


 306              		.loc 2 907 0
 307 0106 214C     		ldr	r4, .L31+4
 308 0108 00E0     		b	.L24
 309              	.L29:
 310              		.loc 2 908 0
 311 010a 234C     		ldr	r4, .L31+16
 312              	.L24:
 313              	.LVL22:
 909:main.c        **** 		
 910:main.c        **** 		if (strstr(ReceiveBuffer, "stop ") == &ReceiveBuffer[0]) {
 314              		.loc 2 910 0
 315 010c 2349     		ldr	r1, .L31+20
 316 010e 2046     		mov	r0, r4
 317 0110 FFF7FEFF 		bl	strstr
 318              	.LVL23:
 319 0114 8442     		cmp	r4, r0
 320 0116 05D1     		bne	.L25
 911:main.c        **** 			G_Stop = 1;
 321              		.loc 2 911 0
 322 0118 1D4B     		ldr	r3, .L31+8
 323 011a 0122     		movs	r2, #1
 324 011c 5A70     		strb	r2, [r3, #1]
 912:main.c        **** 			newData = 0;
 325              		.loc 2 912 0
 326 011e 0022     		movs	r2, #0
 327 0120 1A70     		strb	r2, [r3]
 328 0122 2BE0     		b	.L23
 329              	.L25:
 913:main.c        **** 		} else 
 914:main.c        **** 		if (strstr(ReceiveBuffer, "break ") == &ReceiveBuffer[0]) {
 330              		.loc 2 914 0
 331 0124 1E49     		ldr	r1, .L31+24
 332 0126 2046     		mov	r0, r4
 333 0128 FFF7FEFF 		bl	strstr
 334              	.LVL24:
 335 012c 8442     		cmp	r4, r0
 336 012e 05D1     		bne	.L26
 915:main.c        **** 			G_Break = 1;
 337              		.loc 2 915 0
 338 0130 174B     		ldr	r3, .L31+8
 339 0132 0122     		movs	r2, #1
 340 0134 9A70     		strb	r2, [r3, #2]
 916:main.c        **** 			newData = 0;
 341              		.loc 2 916 0
 342 0136 0022     		movs	r2, #0
 343 0138 1A70     		strb	r2, [r3]
 344 013a 1FE0     		b	.L23
 345              	.L26:
 917:main.c        **** 		} else 
 918:main.c        **** 		if (strstr(ReceiveBuffer, "pause ") == &ReceiveBuffer[0]) {
 346              		.loc 2 918 0
 347 013c 1949     		ldr	r1, .L31+28
 348 013e 2046     		mov	r0, r4
 349 0140 FFF7FEFF 		bl	strstr
 350              	.LVL25:
 351 0144 8442     		cmp	r4, r0
 352 0146 05D1     		bne	.L27
ARM GAS  C:\Users\FRANKL~1\AppData\Local\Temp\ccba5qpo.s 			page 24


 919:main.c        **** 			G_Pause = 1;
 353              		.loc 2 919 0
 354 0148 114B     		ldr	r3, .L31+8
 355 014a 0122     		movs	r2, #1
 356 014c DA70     		strb	r2, [r3, #3]
 920:main.c        **** 			newData = 0;
 357              		.loc 2 920 0
 358 014e 0022     		movs	r2, #0
 359 0150 1A70     		strb	r2, [r3]
 360 0152 13E0     		b	.L23
 361              	.L27:
 921:main.c        **** 		} else 
 922:main.c        **** 		if (strstr(ReceiveBuffer, "resume ") == &ReceiveBuffer[0]) {
 362              		.loc 2 922 0
 363 0154 1449     		ldr	r1, .L31+32
 364 0156 2046     		mov	r0, r4
 365 0158 FFF7FEFF 		bl	strstr
 366              	.LVL26:
 367 015c 8442     		cmp	r4, r0
 368 015e 04D1     		bne	.L28
 923:main.c        **** 			G_Pause = 0;
 369              		.loc 2 923 0
 370 0160 0B4B     		ldr	r3, .L31+8
 371 0162 0022     		movs	r2, #0
 372 0164 DA70     		strb	r2, [r3, #3]
 924:main.c        **** 			newData = 0;
 373              		.loc 2 924 0
 374 0166 1A70     		strb	r2, [r3]
 375 0168 08E0     		b	.L23
 376              	.L28:
 925:main.c        **** 		} else 
 926:main.c        **** 		if (strstr(ReceiveBuffer, "tristate ") == &ReceiveBuffer[0]) {
 377              		.loc 2 926 0
 378 016a 1049     		ldr	r1, .L31+36
 379 016c 2046     		mov	r0, r4
 380 016e FFF7FEFF 		bl	strstr
 381              	.LVL27:
 382 0172 8442     		cmp	r4, r0
 383 0174 02D1     		bne	.L23
 927:main.c        **** 			// To do
 928:main.c        **** 			newData = 0;
 384              		.loc 2 928 0
 385 0176 0022     		movs	r2, #0
 386 0178 054B     		ldr	r3, .L31+8
 387 017a 1A70     		strb	r2, [r3]
 388              	.LVL28:
 389              	.L23:
 390              	.LBE5:
 929:main.c        **** 		}
 930:main.c        **** 	}
 931:main.c        **** 	
 932:main.c        **** 	CommunicationInterrupt_ClearPending();
 391              		.loc 2 932 0
 392 017c FFF7FEFF 		bl	CommunicationInterrupt_ClearPending
 393              	.LVL29:
 933:main.c        **** 	CommunicationTimer_ReadStatusRegister();
 394              		.loc 2 933 0
ARM GAS  C:\Users\FRANKL~1\AppData\Local\Temp\ccba5qpo.s 			page 25


 395 0180 FFF7FEFF 		bl	CommunicationTimer_ReadStatusRegister
 396              	.LVL30:
 934:main.c        **** }
 397              		.loc 2 934 0
 398 0184 11B0     		add	sp, sp, #68
 399              		.cfi_def_cfa_offset 12
 400              		@ sp needed
 401 0186 30BD     		pop	{r4, r5, pc}
 402              	.L32:
 403              		.align	2
 404              	.L31:
 405 0188 00000000 		.word	USBUART_Rx_Position
 406 018c 00000000 		.word	USBUART_Receive_Buffer
 407 0190 00000000 		.word	.LANCHOR0
 408 0194 00000000 		.word	UART_Rx_Position
 409 0198 00000000 		.word	UART_Receive_Buffer
 410 019c 00000000 		.word	.LC0
 411 01a0 08000000 		.word	.LC1
 412 01a4 10000000 		.word	.LC2
 413 01a8 18000000 		.word	.LC3
 414 01ac 20000000 		.word	.LC4
 415              		.cfi_endproc
 416              	.LFE112:
 417              		.size	CommunicationHandlerISR, .-CommunicationHandlerISR
 418              		.section	.text.USBUARTH_Send,"ax",%progbits
 419              		.align	2
 420              		.global	USBUARTH_Send
 421              		.thumb
 422              		.thumb_func
 423              		.type	USBUARTH_Send, %function
 424              	USBUARTH_Send:
 425              	.LFB66:
  39:USBUART_Helpers.h **** 
  40:USBUART_Helpers.h **** 
  41:USBUART_Helpers.h **** uint8 USBUARTH_Send(char* buffer, uint16 count) {
 426              		.loc 1 41 0
 427              		.cfi_startproc
 428              		@ args = 0, pretend = 0, frame = 0
 429              		@ frame_needed = 0, uses_anonymous_args = 0
 430              	.LVL31:
  42:USBUART_Helpers.h **** 	if (count > 0) {
 431              		.loc 1 42 0
 432 0000 49B9     		cbnz	r1, .L39
  43:USBUART_Helpers.h **** 		// Wait until component is ready to send data to host.
  44:USBUART_Helpers.h **** 		for (uint32 tries = 0; tries < 10; tries++) {
  45:USBUART_Helpers.h **** 			USBUARTH_Maintain_Configuration();
  46:USBUART_Helpers.h **** 			if (USBUART_CDCIsReady()) break;
  47:USBUART_Helpers.h **** 		}
  48:USBUART_Helpers.h ****         
  49:USBUART_Helpers.h **** 		if (!USBUART_CDCIsReady()) return 0;
  50:USBUART_Helpers.h **** 		
  51:USBUART_Helpers.h **** 		// Send data to host
  52:USBUART_Helpers.h **** 		USBUART_PutData((uint8*) buffer, count);
  53:USBUART_Helpers.h **** 		
  54:USBUART_Helpers.h **** 		/* If the last sent packet is exactly the maximum packet 
  55:USBUART_Helpers.h **** 		*  size, it is followed by a zero-length packet to assure
  56:USBUART_Helpers.h **** 		*  that the end of the segment is properly identified by 
ARM GAS  C:\Users\FRANKL~1\AppData\Local\Temp\ccba5qpo.s 			page 26


  57:USBUART_Helpers.h **** 		*  the terminal.
  58:USBUART_Helpers.h **** 		*/
  59:USBUART_Helpers.h **** 		if (USBUART_BUFFER_SIZE == count) {
  60:USBUART_Helpers.h **** 			// Wait until component is ready to send data to PC.
  61:USBUART_Helpers.h **** 			while (!USBUART_CDCIsReady());
  62:USBUART_Helpers.h ****             
  63:USBUART_Helpers.h **** 			// Send zero-length packet to PC.
  64:USBUART_Helpers.h **** 			USBUART_PutData(NULL, 0);
  65:USBUART_Helpers.h **** 		}
  66:USBUART_Helpers.h **** 	}
  67:USBUART_Helpers.h **** 	
  68:USBUART_Helpers.h **** 	return 1;
 433              		.loc 1 68 0
 434 0002 0123     		movs	r3, #1
  69:USBUART_Helpers.h **** }
 435              		.loc 1 69 0
 436 0004 1846     		mov	r0, r3
 437              	.LVL32:
 438 0006 7047     		bx	lr
 439              	.LVL33:
 440              	.L37:
 441              		.cfi_def_cfa_offset 16
 442              		.cfi_offset 4, -16
 443              		.cfi_offset 5, -12
 444              		.cfi_offset 6, -8
 445              		.cfi_offset 14, -4
 446              	.LBB6:
  45:USBUART_Helpers.h **** 			if (USBUART_CDCIsReady()) break;
 447              		.loc 1 45 0
 448 0008 FFF7FEFF 		bl	USBUARTH_Maintain_Configuration
 449              	.LVL34:
  46:USBUART_Helpers.h **** 		}
 450              		.loc 1 46 0
 451 000c FFF7FEFF 		bl	USBUART_CDCIsReady
 452              	.LVL35:
 453 0010 38B9     		cbnz	r0, .L36
  44:USBUART_Helpers.h **** 			USBUARTH_Maintain_Configuration();
 454              		.loc 1 44 0 discriminator 2
 455 0012 0134     		adds	r4, r4, #1
 456              	.LVL36:
 457 0014 03E0     		b	.L34
 458              	.LVL37:
 459              	.L39:
 460              		.cfi_def_cfa_offset 0
 461              		.cfi_restore 4
 462              		.cfi_restore 5
 463              		.cfi_restore 6
 464              		.cfi_restore 14
 465              	.LBE6:
  41:USBUART_Helpers.h **** 	if (count > 0) {
 466              		.loc 1 41 0
 467 0016 70B5     		push	{r4, r5, r6, lr}
 468              		.cfi_def_cfa_offset 16
 469              		.cfi_offset 4, -16
 470              		.cfi_offset 5, -12
 471              		.cfi_offset 6, -8
 472              		.cfi_offset 14, -4
ARM GAS  C:\Users\FRANKL~1\AppData\Local\Temp\ccba5qpo.s 			page 27


 473 0018 0D46     		mov	r5, r1
 474 001a 0646     		mov	r6, r0
 475 001c 0024     		movs	r4, #0
 476              	.LVL38:
 477              	.L34:
 478              	.LBB7:
  44:USBUART_Helpers.h **** 			USBUARTH_Maintain_Configuration();
 479              		.loc 1 44 0 discriminator 1
 480 001e 092C     		cmp	r4, #9
 481 0020 F2D9     		bls	.L37
 482              	.L36:
 483              	.LBE7:
  49:USBUART_Helpers.h **** 		
 484              		.loc 1 49 0
 485 0022 FFF7FEFF 		bl	USBUART_CDCIsReady
 486              	.LVL39:
 487 0026 0346     		mov	r3, r0
 488 0028 80B1     		cbz	r0, .L35
  52:USBUART_Helpers.h **** 		
 489              		.loc 1 52 0
 490 002a 2946     		mov	r1, r5
 491 002c 3046     		mov	r0, r6
 492 002e FFF7FEFF 		bl	USBUART_PutData
 493              	.LVL40:
  59:USBUART_Helpers.h **** 			// Wait until component is ready to send data to PC.
 494              		.loc 1 59 0
 495 0032 402D     		cmp	r5, #64
 496 0034 09D1     		bne	.L40
 497              	.L38:
  61:USBUART_Helpers.h ****             
 498              		.loc 1 61 0 discriminator 1
 499 0036 FFF7FEFF 		bl	USBUART_CDCIsReady
 500              	.LVL41:
 501 003a 0028     		cmp	r0, #0
 502 003c FBD0     		beq	.L38
  64:USBUART_Helpers.h **** 		}
 503              		.loc 1 64 0
 504 003e 0021     		movs	r1, #0
 505 0040 0846     		mov	r0, r1
 506 0042 FFF7FEFF 		bl	USBUART_PutData
 507              	.LVL42:
  68:USBUART_Helpers.h **** }
 508              		.loc 1 68 0
 509 0046 0123     		movs	r3, #1
 510 0048 00E0     		b	.L35
 511              	.L40:
 512 004a 0123     		movs	r3, #1
 513              	.L35:
 514              		.loc 1 69 0
 515 004c 1846     		mov	r0, r3
 516 004e 70BD     		pop	{r4, r5, r6, pc}
 517              		.cfi_endproc
 518              	.LFE66:
 519              		.size	USBUARTH_Send, .-USBUARTH_Send
 520              		.section	.text.USBUARTH_Receive,"ax",%progbits
 521              		.align	2
 522              		.global	USBUARTH_Receive
ARM GAS  C:\Users\FRANKL~1\AppData\Local\Temp\ccba5qpo.s 			page 28


 523              		.thumb
 524              		.thumb_func
 525              		.type	USBUARTH_Receive, %function
 526              	USBUARTH_Receive:
 527              	.LFB67:
  70:USBUART_Helpers.h **** 
  71:USBUART_Helpers.h **** uint8 USBUARTH_Receive(char* buffer, uint16* count) {
 528              		.loc 1 71 0
 529              		.cfi_startproc
 530              		@ args = 0, pretend = 0, frame = 0
 531              		@ frame_needed = 0, uses_anonymous_args = 0
 532              	.LVL43:
 533 0000 38B5     		push	{r3, r4, r5, lr}
 534              		.cfi_def_cfa_offset 16
 535              		.cfi_offset 3, -16
 536              		.cfi_offset 4, -12
 537              		.cfi_offset 5, -8
 538              		.cfi_offset 14, -4
 539 0002 0446     		mov	r4, r0
 540 0004 0D46     		mov	r5, r1
  72:USBUART_Helpers.h **** 	// Wait for input data from host
  73:USBUART_Helpers.h **** 	while (!USBUART_DataIsReady()) USBUARTH_Maintain_Configuration();
 541              		.loc 1 73 0
 542 0006 01E0     		b	.L43
 543              	.LVL44:
 544              	.L44:
 545              		.loc 1 73 0 is_stmt 0 discriminator 2
 546 0008 FFF7FEFF 		bl	USBUARTH_Maintain_Configuration
 547              	.LVL45:
 548              	.L43:
 549              		.loc 1 73 0 discriminator 1
 550 000c FFF7FEFF 		bl	USBUART_DataIsReady
 551              	.LVL46:
 552 0010 0028     		cmp	r0, #0
 553 0012 F9D0     		beq	.L44
  74:USBUART_Helpers.h **** 	
  75:USBUART_Helpers.h **** 	// Read received data and re-enable OUT endpoint.
  76:USBUART_Helpers.h **** 	*count = USBUART_GetAll((uint8*) buffer);
 554              		.loc 1 76 0 is_stmt 1
 555 0014 2046     		mov	r0, r4
 556 0016 FFF7FEFF 		bl	USBUART_GetAll
 557              	.LVL47:
 558 001a 2880     		strh	r0, [r5]	@ movhi
  77:USBUART_Helpers.h **** 	
  78:USBUART_Helpers.h **** 	buffer[*count] = 0;
 559              		.loc 1 78 0
 560 001c 0023     		movs	r3, #0
 561 001e 2354     		strb	r3, [r4, r0]
  79:USBUART_Helpers.h **** 	
  80:USBUART_Helpers.h **** 	return 1u;
  81:USBUART_Helpers.h **** }
 562              		.loc 1 81 0
 563 0020 0120     		movs	r0, #1
 564 0022 38BD     		pop	{r3, r4, r5, pc}
 565              		.cfi_endproc
 566              	.LFE67:
 567              		.size	USBUARTH_Receive, .-USBUARTH_Receive
ARM GAS  C:\Users\FRANKL~1\AppData\Local\Temp\ccba5qpo.s 			page 29


 568              		.section	.text.USBUARTH_GetChar,"ax",%progbits
 569              		.align	2
 570              		.global	USBUARTH_GetChar
 571              		.thumb
 572              		.thumb_func
 573              		.type	USBUARTH_GetChar, %function
 574              	USBUARTH_GetChar:
 575              	.LFB68:
  82:USBUART_Helpers.h **** 
  83:USBUART_Helpers.h **** char USBUARTH_GetChar() {
 576              		.loc 1 83 0
 577              		.cfi_startproc
 578              		@ args = 0, pretend = 0, frame = 0
 579              		@ frame_needed = 0, uses_anonymous_args = 0
 580 0000 08B5     		push	{r3, lr}
 581              		.cfi_def_cfa_offset 8
 582              		.cfi_offset 3, -8
 583              		.cfi_offset 14, -4
  84:USBUART_Helpers.h **** 	while (!USBUART_DataIsReady()) USBUARTH_Maintain_Configuration();
 584              		.loc 1 84 0
 585 0002 01E0     		b	.L47
 586              	.L48:
 587              		.loc 1 84 0 is_stmt 0 discriminator 2
 588 0004 FFF7FEFF 		bl	USBUARTH_Maintain_Configuration
 589              	.LVL48:
 590              	.L47:
 591              		.loc 1 84 0 discriminator 1
 592 0008 FFF7FEFF 		bl	USBUART_DataIsReady
 593              	.LVL49:
 594 000c 0028     		cmp	r0, #0
 595 000e F9D0     		beq	.L48
  85:USBUART_Helpers.h **** 	
  86:USBUART_Helpers.h **** 	return USBUART_GetChar();
 596              		.loc 1 86 0 is_stmt 1
 597 0010 FFF7FEFF 		bl	USBUART_GetChar
 598              	.LVL50:
  87:USBUART_Helpers.h **** }
 599              		.loc 1 87 0
 600 0014 08BD     		pop	{r3, pc}
 601              		.cfi_endproc
 602              	.LFE68:
 603              		.size	USBUARTH_GetChar, .-USBUARTH_GetChar
 604 0016 00BF     		.section	.text.USBUARTH_Receive_Until,"ax",%progbits
 605              		.align	2
 606              		.global	USBUARTH_Receive_Until
 607              		.thumb
 608              		.thumb_func
 609              		.type	USBUARTH_Receive_Until, %function
 610              	USBUARTH_Receive_Until:
 611              	.LFB69:
  88:USBUART_Helpers.h **** 
  89:USBUART_Helpers.h **** uint8 USBUARTH_Receive_Until(char* buffer, uint16 maxLength, const char* termination) {
 612              		.loc 1 89 0
 613              		.cfi_startproc
 614              		@ args = 0, pretend = 0, frame = 0
 615              		@ frame_needed = 0, uses_anonymous_args = 0
 616              	.LVL51:
ARM GAS  C:\Users\FRANKL~1\AppData\Local\Temp\ccba5qpo.s 			page 30


 617 0000 2DE9F041 		push	{r4, r5, r6, r7, r8, lr}
 618              		.cfi_def_cfa_offset 24
 619              		.cfi_offset 4, -24
 620              		.cfi_offset 5, -20
 621              		.cfi_offset 6, -16
 622              		.cfi_offset 7, -12
 623              		.cfi_offset 8, -8
 624              		.cfi_offset 14, -4
 625 0004 0546     		mov	r5, r0
 626 0006 0E46     		mov	r6, r1
 627 0008 1746     		mov	r7, r2
 628              	.LVL52:
 629              	.LBB8:
  90:USBUART_Helpers.h **** 	for (uint16 i = 0; i < maxLength; i++) {
 630              		.loc 1 90 0
 631 000a 0023     		movs	r3, #0
 632 000c 03E0     		b	.L51
 633              	.LVL53:
 634              	.L52:
  91:USBUART_Helpers.h **** 		buffer[i] = 0;
 635              		.loc 1 91 0 discriminator 3
 636 000e 0022     		movs	r2, #0
 637 0010 EA54     		strb	r2, [r5, r3]
  90:USBUART_Helpers.h **** 	for (uint16 i = 0; i < maxLength; i++) {
 638              		.loc 1 90 0 discriminator 3
 639 0012 0133     		adds	r3, r3, #1
 640              	.LVL54:
 641 0014 9BB2     		uxth	r3, r3
 642              	.LVL55:
 643              	.L51:
  90:USBUART_Helpers.h **** 	for (uint16 i = 0; i < maxLength; i++) {
 644              		.loc 1 90 0 is_stmt 0 discriminator 1
 645 0016 B342     		cmp	r3, r6
 646 0018 F9D3     		bcc	.L52
 647 001a 0024     		movs	r4, #0
 648 001c 16E0     		b	.L53
 649              	.LVL56:
 650              	.L56:
 651              	.LBE8:
 652              	.LBB9:
  92:USBUART_Helpers.h **** 	}
  93:USBUART_Helpers.h **** 	
  94:USBUART_Helpers.h **** 	for (uint16 i = 0; i < maxLength - 1; i++) {
  95:USBUART_Helpers.h **** 		buffer[i] = USBUARTH_GetChar();
 653              		.loc 1 95 0 is_stmt 1
 654 001e FFF7FEFF 		bl	USBUARTH_GetChar
 655              	.LVL57:
 656 0022 2855     		strb	r0, [r5, r4]
  96:USBUART_Helpers.h **** 		buffer[i+1] = 0;
 657              		.loc 1 96 0
 658 0024 631C     		adds	r3, r4, #1
 659 0026 0022     		movs	r2, #0
 660 0028 EA54     		strb	r2, [r5, r3]
  97:USBUART_Helpers.h **** 		
  98:USBUART_Helpers.h **** 		if (strstr(buffer, termination)) {
 661              		.loc 1 98 0
 662 002a 3946     		mov	r1, r7
ARM GAS  C:\Users\FRANKL~1\AppData\Local\Temp\ccba5qpo.s 			page 31


 663 002c 2846     		mov	r0, r5
 664 002e FFF7FEFF 		bl	strstr
 665              	.LVL58:
 666 0032 48B1     		cbz	r0, .L54
  99:USBUART_Helpers.h **** 			buffer[i + 1 - strlen(termination)] = 0;
 667              		.loc 1 99 0
 668 0034 3846     		mov	r0, r7
 669 0036 FFF7FEFF 		bl	strlen
 670              	.LVL59:
 671 003a 201A     		subs	r0, r4, r0
 672 003c 0130     		adds	r0, r0, #1
 673 003e 0023     		movs	r3, #0
 674 0040 2B54     		strb	r3, [r5, r0]
 100:USBUART_Helpers.h **** 			return 1;
 675              		.loc 1 100 0
 676 0042 0120     		movs	r0, #1
 677 0044 BDE8F081 		pop	{r4, r5, r6, r7, r8, pc}
 678              	.LVL60:
 679              	.L54:
  94:USBUART_Helpers.h **** 		buffer[i] = USBUARTH_GetChar();
 680              		.loc 1 94 0 discriminator 2
 681 0048 0134     		adds	r4, r4, #1
 682              	.LVL61:
 683 004a A4B2     		uxth	r4, r4
 684              	.LVL62:
 685              	.L53:
  94:USBUART_Helpers.h **** 		buffer[i] = USBUARTH_GetChar();
 686              		.loc 1 94 0 is_stmt 0 discriminator 1
 687 004c 731E     		subs	r3, r6, #1
 688 004e 9C42     		cmp	r4, r3
 689 0050 E5DB     		blt	.L56
 690              	.LBE9:
 101:USBUART_Helpers.h **** 		}
 102:USBUART_Helpers.h **** 	}
 103:USBUART_Helpers.h **** 	
 104:USBUART_Helpers.h **** 	return 0;
 691              		.loc 1 104 0 is_stmt 1
 692 0052 0020     		movs	r0, #0
 105:USBUART_Helpers.h **** }
 693              		.loc 1 105 0
 694 0054 BDE8F081 		pop	{r4, r5, r6, r7, r8, pc}
 695              		.cfi_endproc
 696              	.LFE69:
 697              		.size	USBUARTH_Receive_Until, .-USBUARTH_Receive_Until
 698              		.section	.text.Setup_Selector_I2C_Struct,"ax",%progbits
 699              		.align	2
 700              		.global	Setup_Selector_I2C_Struct
 701              		.thumb
 702              		.thumb_func
 703              		.type	Setup_Selector_I2C_Struct, %function
 704              	Setup_Selector_I2C_Struct:
 705              	.LFB70:
  56:main.c        **** 	selector->write.subAddress = 1;
 706              		.loc 2 56 0
 707              		.cfi_startproc
 708              		@ args = 0, pretend = 0, frame = 0
 709              		@ frame_needed = 0, uses_anonymous_args = 0
ARM GAS  C:\Users\FRANKL~1\AppData\Local\Temp\ccba5qpo.s 			page 32


 710              		@ link register save eliminated.
 711              	.LVL63:
  57:main.c        **** 	selector->read.subAddress = sizeof(selector->write) + 1;
 712              		.loc 2 57 0
 713 0000 0123     		movs	r3, #1
 714 0002 0370     		strb	r3, [r0]
  58:main.c        **** 	
 715              		.loc 2 58 0
 716 0004 8023     		movs	r3, #128
 717 0006 80F87F30 		strb	r3, [r0, #127]
 718              	.LVL64:
 719              	.LBB10:
  60:main.c        **** 		selector->write.data[i] = i + 6;
 720              		.loc 2 60 0
 721 000a 0023     		movs	r3, #0
 722 000c 04E0     		b	.L59
 723              	.LVL65:
 724              	.L60:
  61:main.c        **** 	}
 725              		.loc 2 61 0 discriminator 3
 726 000e C218     		adds	r2, r0, r3
 727 0010 991D     		adds	r1, r3, #6
 728 0012 5170     		strb	r1, [r2, #1]
  60:main.c        **** 		selector->write.data[i] = i + 6;
 729              		.loc 2 60 0 discriminator 3
 730 0014 0133     		adds	r3, r3, #1
 731              	.LVL66:
 732 0016 9BB2     		uxth	r3, r3
 733              	.LVL67:
 734              	.L59:
  60:main.c        **** 		selector->write.data[i] = i + 6;
 735              		.loc 2 60 0 is_stmt 0 discriminator 1
 736 0018 7D2B     		cmp	r3, #125
 737 001a F8D9     		bls	.L60
 738 001c 0023     		movs	r3, #0
 739              	.LVL68:
 740 001e 05E0     		b	.L61
 741              	.LVL69:
 742              	.L62:
 743              	.LBE10:
 744              	.LBB11:
  64:main.c        **** 	}
 745              		.loc 2 64 0 is_stmt 1 discriminator 3
 746 0020 C218     		adds	r2, r0, r3
 747 0022 BE21     		movs	r1, #190
 748 0024 82F88010 		strb	r1, [r2, #128]
  63:main.c        **** 		selector->read.data[i] = 0xbe;
 749              		.loc 2 63 0 discriminator 3
 750 0028 0133     		adds	r3, r3, #1
 751              	.LVL70:
 752 002a 9BB2     		uxth	r3, r3
 753              	.LVL71:
 754              	.L61:
  63:main.c        **** 		selector->read.data[i] = 0xbe;
 755              		.loc 2 63 0 is_stmt 0 discriminator 1
 756 002c 7D2B     		cmp	r3, #125
 757 002e F7D9     		bls	.L62
ARM GAS  C:\Users\FRANKL~1\AppData\Local\Temp\ccba5qpo.s 			page 33


 758              	.LBE11:
  66:main.c        **** 
 759              		.loc 2 66 0 is_stmt 1
 760 0030 7047     		bx	lr
 761              		.cfi_endproc
 762              	.LFE70:
 763              		.size	Setup_Selector_I2C_Struct, .-Setup_Selector_I2C_Struct
 764              		.global	__aeabi_dcmpge
 765              		.global	__aeabi_ui2d
 766              		.global	__aeabi_dcmplt
 767 0032 00BF     		.section	.text.Update_Selector,"ax",%progbits
 768              		.align	2
 769              		.global	Update_Selector
 770              		.thumb
 771              		.thumb_func
 772              		.type	Update_Selector, %function
 773              	Update_Selector:
 774              	.LFB71:
  68:main.c        **** 	sprintf(TransmitBuffer, "Updating Selector %u\r\n", selectori + 1);
 775              		.loc 2 68 0
 776              		.cfi_startproc
 777              		@ args = 0, pretend = 0, frame = 0
 778              		@ frame_needed = 0, uses_anonymous_args = 0
 779              	.LVL72:
 780 0000 2DE9F041 		push	{r4, r5, r6, r7, r8, lr}
 781              		.cfi_def_cfa_offset 24
 782              		.cfi_offset 4, -24
 783              		.cfi_offset 5, -20
 784              		.cfi_offset 6, -16
 785              		.cfi_offset 7, -12
 786              		.cfi_offset 8, -8
 787              		.cfi_offset 14, -4
 788 0004 0446     		mov	r4, r0
  69:main.c        **** 	USBUARTH_Send(TransmitBuffer, strlen(TransmitBuffer));
 789              		.loc 2 69 0
 790 0006 00F10108 		add	r8, r0, #1
 791 000a 594D     		ldr	r5, .L74+16
 792 000c 4246     		mov	r2, r8
 793 000e 5949     		ldr	r1, .L74+20
 794 0010 2846     		mov	r0, r5
 795              	.LVL73:
 796 0012 FFF7FEFF 		bl	sprintf
 797              	.LVL74:
  70:main.c        **** 	UART_1_PutString(TransmitBuffer);
 798              		.loc 2 70 0
 799 0016 2846     		mov	r0, r5
 800 0018 FFF7FEFF 		bl	strlen
 801              	.LVL75:
 802 001c 81B2     		uxth	r1, r0
 803 001e 2846     		mov	r0, r5
 804 0020 FFF7FEFF 		bl	USBUARTH_Send
 805              	.LVL76:
  71:main.c        **** 	
 806              		.loc 2 71 0
 807 0024 2846     		mov	r0, r5
 808 0026 FFF7FEFF 		bl	UART_1_PutString
 809              	.LVL77:
ARM GAS  C:\Users\FRANKL~1\AppData\Local\Temp\ccba5qpo.s 			page 34


  75:main.c        **** 	I2C_1_MasterWriteBuf(selector->busAddress, (uint8 *) &selector->write, sizeof(selector->write), I2
 810              		.loc 2 75 0
 811 002a FFF7FEFF 		bl	I2C_1_MasterClearStatus
 812              	.LVL78:
  76:main.c        **** 	for (uint32 i = 0; i < 4e5; i++) {
 813              		.loc 2 76 0
 814 002e C4EB0424 		rsb	r4, r4, r4, lsl #8
 815              	.LVL79:
 816 0032 514B     		ldr	r3, .L74+24
 817 0034 1C44     		add	r4, r4, r3
 818 0036 0023     		movs	r3, #0
 819 0038 7F22     		movs	r2, #127
 820 003a 2146     		mov	r1, r4
 821 003c 94F8FE00 		ldrb	r0, [r4, #254]	@ zero_extendqisi2
 822 0040 FFF7FEFF 		bl	I2C_1_MasterWriteBuf
 823              	.LVL80:
 824              	.LBB12:
  77:main.c        **** 		if ((I2C_1_MasterStatus() & I2C_1_MSTAT_WR_CMPLT)) break;
 825              		.loc 2 77 0
 826 0044 0024     		movs	r4, #0
 827 0046 2CE0     		b	.L64
 828              	.LVL81:
 829              	.L69:
  78:main.c        **** 		if (i >= 4e5 - 1) {
 830              		.loc 2 78 0
 831 0048 FFF7FEFF 		bl	I2C_1_MasterStatus
 832              	.LVL82:
 833 004c 10F0020F 		tst	r0, #2
 834 0050 33D1     		bne	.L65
  79:main.c        **** 			sprintf(TransmitBuffer, "I2C Transfer Error! Type: Timeout\r\n");
 835              		.loc 2 79 0
 836 0052 43A3     		adr	r3, .L74
 837 0054 D3E90023 		ldrd	r2, [r3]
 838 0058 3046     		mov	r0, r6
 839 005a 3946     		mov	r1, r7
 840 005c FFF7FEFF 		bl	__aeabi_dcmpge
 841              	.LVL83:
 842 0060 F0B1     		cbz	r0, .L66
  80:main.c        **** 			USBUARTH_Send(TransmitBuffer, strlen(TransmitBuffer));
 843              		.loc 2 80 0
 844 0062 464F     		ldr	r7, .L74+28
 845 0064 424D     		ldr	r5, .L74+16
 846 0066 07F1200E 		add	lr, r7, #32
 847              	.L68:
 848 006a 3E46     		mov	r6, r7
 849 006c 0FCE     		ldmia	r6!, {r0, r1, r2, r3}
 850 006e 2860     		str	r0, [r5]	@ unaligned
 851 0070 6960     		str	r1, [r5, #4]	@ unaligned
 852 0072 AA60     		str	r2, [r5, #8]	@ unaligned
 853 0074 EB60     		str	r3, [r5, #12]	@ unaligned
 854 0076 3746     		mov	r7, r6
 855 0078 1035     		adds	r5, r5, #16
 856 007a 7645     		cmp	r6, lr
 857 007c F5D1     		bne	.L68
 858 007e 3068     		ldr	r0, [r6]	@ unaligned
 859 0080 2860     		str	r0, [r5]	@ unaligned
  81:main.c        **** 			UART_1_PutString(TransmitBuffer);
ARM GAS  C:\Users\FRANKL~1\AppData\Local\Temp\ccba5qpo.s 			page 35


 860              		.loc 2 81 0
 861 0082 3B4D     		ldr	r5, .L74+16
 862 0084 2846     		mov	r0, r5
 863 0086 FFF7FEFF 		bl	strlen
 864              	.LVL84:
 865 008a 81B2     		uxth	r1, r0
 866 008c 2846     		mov	r0, r5
 867 008e FFF7FEFF 		bl	USBUARTH_Send
 868              	.LVL85:
  82:main.c        **** 			I2C_1_Stop();
 869              		.loc 2 82 0
 870 0092 2846     		mov	r0, r5
 871 0094 FFF7FEFF 		bl	UART_1_PutString
 872              	.LVL86:
  83:main.c        **** 			I2C_1_Start();
 873              		.loc 2 83 0
 874 0098 FFF7FEFF 		bl	I2C_1_Stop
 875              	.LVL87:
  84:main.c        **** 		}
 876              		.loc 2 84 0
 877 009c FFF7FEFF 		bl	I2C_1_Start
 878              	.LVL88:
 879              	.L66:
  77:main.c        **** 		if ((I2C_1_MasterStatus() & I2C_1_MSTAT_WR_CMPLT)) break;
 880              		.loc 2 77 0 discriminator 2
 881 00a0 0134     		adds	r4, r4, #1
 882              	.LVL89:
 883              	.L64:
  77:main.c        **** 		if ((I2C_1_MasterStatus() & I2C_1_MSTAT_WR_CMPLT)) break;
 884              		.loc 2 77 0 is_stmt 0 discriminator 1
 885 00a2 2046     		mov	r0, r4
 886 00a4 FFF7FEFF 		bl	__aeabi_ui2d
 887              	.LVL90:
 888 00a8 0646     		mov	r6, r0
 889 00aa 0F46     		mov	r7, r1
 890 00ac 2EA3     		adr	r3, .L74+8
 891 00ae D3E90023 		ldrd	r2, [r3]
 892 00b2 FFF7FEFF 		bl	__aeabi_dcmplt
 893              	.LVL91:
 894 00b6 0028     		cmp	r0, #0
 895 00b8 C6D1     		bne	.L69
 896              	.L65:
 897              	.LBE12:
  99:main.c        **** 		sprintf(TransmitBuffer, "I2C Transfer Error! ");
 898              		.loc 2 99 0 is_stmt 1
 899 00ba FFF7FEFF 		bl	I2C_1_MasterStatus
 900              	.LVL92:
 901 00be 10F0800F 		tst	r0, #128
 902 00c2 39D0     		beq	.L70
 100:main.c        **** 		USBUARTH_Send(TransmitBuffer, strlen(TransmitBuffer));
 903              		.loc 2 100 0
 904 00c4 2A4C     		ldr	r4, .L74+16
 905              	.LVL93:
 906 00c6 2E4D     		ldr	r5, .L74+32
 907 00c8 0FCD     		ldmia	r5!, {r0, r1, r2, r3}
 908 00ca 2060     		str	r0, [r4]	@ unaligned
 909 00cc 6160     		str	r1, [r4, #4]	@ unaligned
ARM GAS  C:\Users\FRANKL~1\AppData\Local\Temp\ccba5qpo.s 			page 36


 910 00ce A260     		str	r2, [r4, #8]	@ unaligned
 911 00d0 E360     		str	r3, [r4, #12]	@ unaligned
 912 00d2 2868     		ldr	r0, [r5]	@ unaligned
 913 00d4 2061     		str	r0, [r4, #16]	@ unaligned
 914 00d6 2B79     		ldrb	r3, [r5, #4]	@ zero_extendqisi2
 915 00d8 2375     		strb	r3, [r4, #20]
 101:main.c        **** 		UART_1_PutString(TransmitBuffer);
 916              		.loc 2 101 0
 917 00da 2046     		mov	r0, r4
 918 00dc FFF7FEFF 		bl	strlen
 919              	.LVL94:
 920 00e0 81B2     		uxth	r1, r0
 921 00e2 2046     		mov	r0, r4
 922 00e4 FFF7FEFF 		bl	USBUARTH_Send
 923              	.LVL95:
 102:main.c        **** 		
 924              		.loc 2 102 0
 925 00e8 2046     		mov	r0, r4
 926 00ea FFF7FEFF 		bl	UART_1_PutString
 927              	.LVL96:
 104:main.c        **** 			sprintf(TransmitBuffer, "Type: NAK");
 928              		.loc 2 104 0
 929 00ee FFF7FEFF 		bl	I2C_1_MasterStatus
 930              	.LVL97:
 931 00f2 10F0200F 		tst	r0, #32
 932 00f6 0FD0     		beq	.L71
 105:main.c        **** 			USBUARTH_Send(TransmitBuffer, strlen(TransmitBuffer));
 933              		.loc 2 105 0
 934 00f8 224B     		ldr	r3, .L74+36
 935 00fa 03CB     		ldmia	r3!, {r0, r1}
 936 00fc 2060     		str	r0, [r4]	@ unaligned
 937 00fe 6160     		str	r1, [r4, #4]	@ unaligned
 938 0100 1B88     		ldrh	r3, [r3]	@ unaligned
 939 0102 2381     		strh	r3, [r4, #8]	@ unaligned
 106:main.c        **** 			UART_1_PutString(TransmitBuffer);
 940              		.loc 2 106 0
 941 0104 2046     		mov	r0, r4
 942 0106 FFF7FEFF 		bl	strlen
 943              	.LVL98:
 944 010a 81B2     		uxth	r1, r0
 945 010c 2046     		mov	r0, r4
 946 010e FFF7FEFF 		bl	USBUARTH_Send
 947              	.LVL99:
 107:main.c        **** 		}
 948              		.loc 2 107 0
 949 0112 2046     		mov	r0, r4
 950 0114 FFF7FEFF 		bl	UART_1_PutString
 951              	.LVL100:
 952              	.L71:
 110:main.c        **** 		USBUARTH_Send(TransmitBuffer, strlen(TransmitBuffer));
 953              		.loc 2 110 0
 954 0118 154C     		ldr	r4, .L74+16
 955 011a 1B4B     		ldr	r3, .L74+40
 956 011c 1A88     		ldrh	r2, [r3]	@ unaligned
 957 011e 9B78     		ldrb	r3, [r3, #2]	@ zero_extendqisi2
 958 0120 2280     		strh	r2, [r4]	@ unaligned
 959 0122 A370     		strb	r3, [r4, #2]
ARM GAS  C:\Users\FRANKL~1\AppData\Local\Temp\ccba5qpo.s 			page 37


 111:main.c        **** 		UART_1_PutString(TransmitBuffer);
 960              		.loc 2 111 0
 961 0124 2046     		mov	r0, r4
 962 0126 FFF7FEFF 		bl	strlen
 963              	.LVL101:
 964 012a 81B2     		uxth	r1, r0
 965 012c 2046     		mov	r0, r4
 966 012e FFF7FEFF 		bl	USBUARTH_Send
 967              	.LVL102:
 112:main.c        **** 	}
 968              		.loc 2 112 0
 969 0132 2046     		mov	r0, r4
 970 0134 FFF7FEFF 		bl	UART_1_PutString
 971              	.LVL103:
 972              	.L70:
 115:main.c        **** 	USBUARTH_Send(TransmitBuffer, strlen(TransmitBuffer));
 973              		.loc 2 115 0
 974 0138 0D4C     		ldr	r4, .L74+16
 975 013a 4246     		mov	r2, r8
 976 013c 1349     		ldr	r1, .L74+44
 977 013e 2046     		mov	r0, r4
 978 0140 FFF7FEFF 		bl	sprintf
 979              	.LVL104:
 116:main.c        **** 	UART_1_PutString(TransmitBuffer);
 980              		.loc 2 116 0
 981 0144 2046     		mov	r0, r4
 982 0146 FFF7FEFF 		bl	strlen
 983              	.LVL105:
 984 014a 81B2     		uxth	r1, r0
 985 014c 2046     		mov	r0, r4
 986 014e FFF7FEFF 		bl	USBUARTH_Send
 987              	.LVL106:
 117:main.c        **** }
 988              		.loc 2 117 0
 989 0152 2046     		mov	r0, r4
 990 0154 FFF7FEFF 		bl	UART_1_PutString
 991              	.LVL107:
 992 0158 BDE8F081 		pop	{r4, r5, r6, r7, r8, pc}
 993              	.LVL108:
 994              	.L75:
 995 015c AFF30080 		.align	3
 996              	.L74:
 997 0160 00000000 		.word	0
 998 0164 FC691841 		.word	1092119036
 999 0168 00000000 		.word	0
 1000 016c 006A1841 		.word	1092119040
 1001 0170 00000000 		.word	TransmitBuffer
 1002 0174 2C000000 		.word	.LC5
 1003 0178 00000000 		.word	selectors
 1004 017c 44000000 		.word	.LC6
 1005 0180 68000000 		.word	.LC7
 1006 0184 80000000 		.word	.LC8
 1007 0188 8C000000 		.word	.LC9
 1008 018c 90000000 		.word	.LC10
 1009              		.cfi_endproc
 1010              	.LFE71:
 1011              		.size	Update_Selector, .-Update_Selector
ARM GAS  C:\Users\FRANKL~1\AppData\Local\Temp\ccba5qpo.s 			page 38


 1012              		.section	.text.Setup_Selectors,"ax",%progbits
 1013              		.align	2
 1014              		.global	Setup_Selectors
 1015              		.thumb
 1016              		.thumb_func
 1017              		.type	Setup_Selectors, %function
 1018              	Setup_Selectors:
 1019              	.LFB72:
 120:main.c        **** 	for (uint8 i = 0; i < SELECTOR_COUNT; i++) Setup_Selector_I2C_Struct(&selectors[i]);
 1020              		.loc 2 120 0
 1021              		.cfi_startproc
 1022              		@ args = 0, pretend = 0, frame = 0
 1023              		@ frame_needed = 0, uses_anonymous_args = 0
 1024 0000 10B5     		push	{r4, lr}
 1025              		.cfi_def_cfa_offset 8
 1026              		.cfi_offset 4, -8
 1027              		.cfi_offset 14, -4
 1028              	.LVL109:
 1029              	.LBB13:
 121:main.c        **** 	
 1030              		.loc 2 121 0
 1031 0002 0024     		movs	r4, #0
 1032 0004 07E0     		b	.L77
 1033              	.LVL110:
 1034              	.L78:
 121:main.c        **** 	
 1035              		.loc 2 121 0 is_stmt 0 discriminator 3
 1036 0006 C4EB0423 		rsb	r3, r4, r4, lsl #8
 1037 000a 0B48     		ldr	r0, .L80
 1038 000c 1844     		add	r0, r0, r3
 1039 000e FFF7FEFF 		bl	Setup_Selector_I2C_Struct
 1040              	.LVL111:
 1041 0012 0134     		adds	r4, r4, #1
 1042              	.LVL112:
 1043 0014 E4B2     		uxtb	r4, r4
 1044              	.LVL113:
 1045              	.L77:
 121:main.c        **** 	
 1046              		.loc 2 121 0 discriminator 1
 1047 0016 032C     		cmp	r4, #3
 1048 0018 F5D9     		bls	.L78
 1049              	.LBE13:
 123:main.c        **** 	selectors[1].busAddress = 0x11;
 1050              		.loc 2 123 0 is_stmt 1
 1051 001a 074B     		ldr	r3, .L80
 1052 001c 6622     		movs	r2, #102
 1053 001e 83F8FE20 		strb	r2, [r3, #254]
 124:main.c        **** 	selectors[2].busAddress = 0x44;
 1054              		.loc 2 124 0
 1055 0022 1122     		movs	r2, #17
 1056 0024 83F8FD21 		strb	r2, [r3, #509]
 125:main.c        **** 	selectors[3].busAddress = 0x22;
 1057              		.loc 2 125 0
 1058 0028 4422     		movs	r2, #68
 1059 002a 83F8FC22 		strb	r2, [r3, #764]
 126:main.c        **** }
 1060              		.loc 2 126 0
ARM GAS  C:\Users\FRANKL~1\AppData\Local\Temp\ccba5qpo.s 			page 39


 1061 002e 2222     		movs	r2, #34
 1062 0030 83F8FB23 		strb	r2, [r3, #1019]
 1063 0034 10BD     		pop	{r4, pc}
 1064              	.LVL114:
 1065              	.L81:
 1066 0036 00BF     		.align	2
 1067              	.L80:
 1068 0038 00000000 		.word	selectors
 1069              		.cfi_endproc
 1070              	.LFE72:
 1071              		.size	Setup_Selectors, .-Setup_Selectors
 1072              		.section	.text.Connect_Channel_On_Intermediate,"ax",%progbits
 1073              		.align	2
 1074              		.global	Connect_Channel_On_Intermediate
 1075              		.thumb
 1076              		.thumb_func
 1077              		.type	Connect_Channel_On_Intermediate, %function
 1078              	Connect_Channel_On_Intermediate:
 1079              	.LFB73:
 129:main.c        **** 	channel--;
 1080              		.loc 2 129 0
 1081              		.cfi_startproc
 1082              		@ args = 0, pretend = 0, frame = 0
 1083              		@ frame_needed = 0, uses_anonymous_args = 0
 1084              	.LVL115:
 1085 0000 08B5     		push	{r3, lr}
 1086              		.cfi_def_cfa_offset 8
 1087              		.cfi_offset 3, -8
 1088              		.cfi_offset 14, -4
 130:main.c        **** 	intermediate--;
 1089              		.loc 2 130 0
 1090 0002 0138     		subs	r0, r0, #1
 1091              	.LVL116:
 1092 0004 C3B2     		uxtb	r3, r0
 1093              	.LVL117:
 133:main.c        **** 	if (intermediate >= INTERMEDIATE_COUNT) return;
 1094              		.loc 2 133 0
 1095 0006 212B     		cmp	r3, #33
 1096 0008 0CD8     		bhi	.L82
 1097 000a 0139     		subs	r1, r1, #1
 1098              	.LVL118:
 1099 000c C8B2     		uxtb	r0, r1
 134:main.c        **** 	
 1100              		.loc 2 134 0
 1101 000e 0328     		cmp	r0, #3
 1102 0010 08D8     		bhi	.L82
 136:main.c        **** 	Update_Selector(intermediate);
 1103              		.loc 2 136 0
 1104 0012 C0EB0022 		rsb	r2, r0, r0, lsl #8
 1105 0016 0449     		ldr	r1, .L85
 1106 0018 0A44     		add	r2, r2, r1
 1107 001a 1344     		add	r3, r3, r2
 1108              	.LVL119:
 1109 001c C022     		movs	r2, #192
 1110 001e 5A70     		strb	r2, [r3, #1]
 137:main.c        **** }
 1111              		.loc 2 137 0
ARM GAS  C:\Users\FRANKL~1\AppData\Local\Temp\ccba5qpo.s 			page 40


 1112 0020 FFF7FEFF 		bl	Update_Selector
 1113              	.LVL120:
 1114              	.L82:
 1115 0024 08BD     		pop	{r3, pc}
 1116              	.L86:
 1117 0026 00BF     		.align	2
 1118              	.L85:
 1119 0028 00000000 		.word	selectors
 1120              		.cfi_endproc
 1121              	.LFE73:
 1122              		.size	Connect_Channel_On_Intermediate, .-Connect_Channel_On_Intermediate
 1123              		.section	.text.Connect_Contact_To_Intermediate,"ax",%progbits
 1124              		.align	2
 1125              		.global	Connect_Contact_To_Intermediate
 1126              		.thumb
 1127              		.thumb_func
 1128              		.type	Connect_Contact_To_Intermediate, %function
 1129              	Connect_Contact_To_Intermediate:
 1130              	.LFB74:
 140:main.c        **** 	contact--;
 1131              		.loc 2 140 0
 1132              		.cfi_startproc
 1133              		@ args = 0, pretend = 0, frame = 0
 1134              		@ frame_needed = 0, uses_anonymous_args = 0
 1135              	.LVL121:
 141:main.c        **** 	intermediate--;
 1136              		.loc 2 141 0
 1137 0000 0138     		subs	r0, r0, #1
 1138              	.LVL122:
 1139 0002 C0B2     		uxtb	r0, r0
 1140              	.LVL123:
 144:main.c        **** 	if (intermediate >= INTERMEDIATE_COUNT) return;
 1141              		.loc 2 144 0
 1142 0004 3F28     		cmp	r0, #63
 1143 0006 13D8     		bhi	.L92
 140:main.c        **** 	contact--;
 1144              		.loc 2 140 0
 1145 0008 08B5     		push	{r3, lr}
 1146              		.cfi_def_cfa_offset 8
 1147              		.cfi_offset 3, -8
 1148              		.cfi_offset 14, -4
 1149 000a 4B1E     		subs	r3, r1, #1
 1150 000c DBB2     		uxtb	r3, r3
 145:main.c        **** 	
 1151              		.loc 2 145 0
 1152 000e 032B     		cmp	r3, #3
 1153 0010 0DD8     		bhi	.L87
 1154              	.LVL124:
 148:main.c        **** 		offset = CONTACT_COUNT/2;
 1155              		.loc 2 148 0
 1156 0012 012B     		cmp	r3, #1
 1157 0014 03D9     		bls	.L89
 1158              	.LVL125:
 150:main.c        **** 	} else {
 1159              		.loc 2 150 0
 1160 0016 1F28     		cmp	r0, #31
 1161 0018 09D9     		bls	.L87
ARM GAS  C:\Users\FRANKL~1\AppData\Local\Temp\ccba5qpo.s 			page 41


 149:main.c        **** 		if (contact < CONTACT_COUNT/2) return;
 1162              		.loc 2 149 0
 1163 001a 2023     		movs	r3, #32
 1164 001c 02E0     		b	.L90
 1165              	.LVL126:
 1166              	.L89:
 152:main.c        **** 	}
 1167              		.loc 2 152 0
 1168 001e 1F28     		cmp	r0, #31
 1169 0020 05D8     		bhi	.L87
 147:main.c        **** 	if (intermediate >= INTERMEDIATE_COUNT/2) {
 1170              		.loc 2 147 0
 1171 0022 0023     		movs	r3, #0
 1172              	.LVL127:
 1173              	.L90:
 155:main.c        **** }
 1174              		.loc 2 155 0
 1175 0024 C01A     		subs	r0, r0, r3
 1176              	.LVL128:
 1177 0026 0130     		adds	r0, r0, #1
 1178 0028 C0B2     		uxtb	r0, r0
 1179 002a FFF7FEFF 		bl	Connect_Channel_On_Intermediate
 1180              	.LVL129:
 1181              	.L87:
 1182 002e 08BD     		pop	{r3, pc}
 1183              	.LVL130:
 1184              	.L92:
 1185              		.cfi_def_cfa_offset 0
 1186              		.cfi_restore 3
 1187              		.cfi_restore 14
 1188 0030 7047     		bx	lr
 1189              		.cfi_endproc
 1190              	.LFE74:
 1191              		.size	Connect_Contact_To_Intermediate, .-Connect_Contact_To_Intermediate
 1192 0032 00BF     		.section	.text.Disconnect_Contact_From_Intermediate,"ax",%progbits
 1193              		.align	2
 1194              		.global	Disconnect_Contact_From_Intermediate
 1195              		.thumb
 1196              		.thumb_func
 1197              		.type	Disconnect_Contact_From_Intermediate, %function
 1198              	Disconnect_Contact_From_Intermediate:
 1199              	.LFB75:
 158:main.c        **** 	contact--;
 1200              		.loc 2 158 0
 1201              		.cfi_startproc
 1202              		@ args = 0, pretend = 0, frame = 0
 1203              		@ frame_needed = 0, uses_anonymous_args = 0
 1204              	.LVL131:
 1205 0000 08B5     		push	{r3, lr}
 1206              		.cfi_def_cfa_offset 8
 1207              		.cfi_offset 3, -8
 1208              		.cfi_offset 14, -4
 159:main.c        **** 	intermediate--;
 1209              		.loc 2 159 0
 1210 0002 0138     		subs	r0, r0, #1
 1211              	.LVL132:
 1212 0004 C3B2     		uxtb	r3, r0
ARM GAS  C:\Users\FRANKL~1\AppData\Local\Temp\ccba5qpo.s 			page 42


 1213              	.LVL133:
 162:main.c        **** 	if (intermediate >= INTERMEDIATE_COUNT) return;
 1214              		.loc 2 162 0
 1215 0006 3F2B     		cmp	r3, #63
 1216 0008 16D8     		bhi	.L93
 1217 000a 0139     		subs	r1, r1, #1
 1218              	.LVL134:
 1219 000c C8B2     		uxtb	r0, r1
 163:main.c        **** 	
 1220              		.loc 2 163 0
 1221 000e 0328     		cmp	r0, #3
 1222 0010 12D8     		bhi	.L93
 1223              	.LVL135:
 166:main.c        **** 		offset = CONTACT_COUNT/2;
 1224              		.loc 2 166 0
 1225 0012 0128     		cmp	r0, #1
 1226 0014 03D9     		bls	.L95
 1227              	.LVL136:
 168:main.c        **** 	} else {
 1228              		.loc 2 168 0
 1229 0016 1F2B     		cmp	r3, #31
 1230 0018 0ED9     		bls	.L93
 167:main.c        **** 		if (contact < CONTACT_COUNT/2) return;
 1231              		.loc 2 167 0
 1232 001a 2022     		movs	r2, #32
 1233 001c 02E0     		b	.L96
 1234              	.LVL137:
 1235              	.L95:
 170:main.c        **** 	}
 1236              		.loc 2 170 0
 1237 001e 1F2B     		cmp	r3, #31
 1238 0020 0AD8     		bhi	.L93
 165:main.c        **** 	if (intermediate >= INTERMEDIATE_COUNT/2) {
 1239              		.loc 2 165 0
 1240 0022 0022     		movs	r2, #0
 1241              	.LVL138:
 1242              	.L96:
 173:main.c        **** 	
 1243              		.loc 2 173 0
 1244 0024 9B1A     		subs	r3, r3, r2
 1245              	.LVL139:
 1246 0026 C0EB0022 		rsb	r2, r0, r0, lsl #8
 1247              	.LVL140:
 1248 002a 0449     		ldr	r1, .L98
 1249 002c 0A44     		add	r2, r2, r1
 1250 002e 1344     		add	r3, r3, r2
 1251 0030 D122     		movs	r2, #209
 1252 0032 5A70     		strb	r2, [r3, #1]
 175:main.c        **** }
 1253              		.loc 2 175 0
 1254 0034 FFF7FEFF 		bl	Update_Selector
 1255              	.LVL141:
 1256              	.L93:
 1257 0038 08BD     		pop	{r3, pc}
 1258              	.L99:
 1259 003a 00BF     		.align	2
 1260              	.L98:
ARM GAS  C:\Users\FRANKL~1\AppData\Local\Temp\ccba5qpo.s 			page 43


 1261 003c 00000000 		.word	selectors
 1262              		.cfi_endproc
 1263              	.LFE75:
 1264              		.size	Disconnect_Contact_From_Intermediate, .-Disconnect_Contact_From_Intermediate
 1265              		.section	.text.Disconnect_Contact_From_All_Intermediates,"ax",%progbits
 1266              		.align	2
 1267              		.global	Disconnect_Contact_From_All_Intermediates
 1268              		.thumb
 1269              		.thumb_func
 1270              		.type	Disconnect_Contact_From_All_Intermediates, %function
 1271              	Disconnect_Contact_From_All_Intermediates:
 1272              	.LFB76:
 178:main.c        **** 	contact--;
 1273              		.loc 2 178 0
 1274              		.cfi_startproc
 1275              		@ args = 0, pretend = 0, frame = 0
 1276              		@ frame_needed = 0, uses_anonymous_args = 0
 1277              	.LVL142:
 1278 0000 38B5     		push	{r3, r4, r5, lr}
 1279              		.cfi_def_cfa_offset 16
 1280              		.cfi_offset 3, -16
 1281              		.cfi_offset 4, -12
 1282              		.cfi_offset 5, -8
 1283              		.cfi_offset 14, -4
 179:main.c        **** 	
 1284              		.loc 2 179 0
 1285 0002 0138     		subs	r0, r0, #1
 1286              	.LVL143:
 1287 0004 C5B2     		uxtb	r5, r0
 1288              	.LVL144:
 1289              	.LBB14:
 181:main.c        **** 		
 1290              		.loc 2 181 0
 1291 0006 0024     		movs	r4, #0
 1292 0008 15E0     		b	.L101
 1293              	.LVL145:
 1294              	.L105:
 1295              	.LBB15:
 184:main.c        **** 			offset = CONTACT_COUNT/2;
 1296              		.loc 2 184 0
 1297 000a 012C     		cmp	r4, #1
 1298 000c 03D9     		bls	.L102
 1299              	.LVL146:
 186:main.c        **** 		} else {
 1300              		.loc 2 186 0
 1301 000e 1F2D     		cmp	r5, #31
 1302 0010 0FD9     		bls	.L103
 185:main.c        **** 			if (contact < CONTACT_COUNT/2) continue;
 1303              		.loc 2 185 0
 1304 0012 2023     		movs	r3, #32
 1305 0014 02E0     		b	.L104
 1306              	.LVL147:
 1307              	.L102:
 188:main.c        **** 		}
 1308              		.loc 2 188 0
 1309 0016 1F2D     		cmp	r5, #31
 1310 0018 0BD8     		bhi	.L103
ARM GAS  C:\Users\FRANKL~1\AppData\Local\Temp\ccba5qpo.s 			page 44


 183:main.c        **** 		if (intermediate >= INTERMEDIATE_COUNT/2) {
 1311              		.loc 2 183 0
 1312 001a 0023     		movs	r3, #0
 1313              	.LVL148:
 1314              	.L104:
 191:main.c        **** 		
 1315              		.loc 2 191 0
 1316 001c EA1A     		subs	r2, r5, r3
 1317 001e C4EB0423 		rsb	r3, r4, r4, lsl #8
 1318              	.LVL149:
 1319 0022 0649     		ldr	r1, .L107
 1320 0024 0B44     		add	r3, r3, r1
 1321 0026 1344     		add	r3, r3, r2
 1322 0028 D122     		movs	r2, #209
 1323 002a 5A70     		strb	r2, [r3, #1]
 193:main.c        **** 	}
 1324              		.loc 2 193 0
 1325 002c 2046     		mov	r0, r4
 1326 002e FFF7FEFF 		bl	Update_Selector
 1327              	.LVL150:
 1328              	.L103:
 1329              	.LBE15:
 181:main.c        **** 		
 1330              		.loc 2 181 0 discriminator 2
 1331 0032 0134     		adds	r4, r4, #1
 1332              	.LVL151:
 1333 0034 E4B2     		uxtb	r4, r4
 1334              	.LVL152:
 1335              	.L101:
 181:main.c        **** 		
 1336              		.loc 2 181 0 is_stmt 0 discriminator 1
 1337 0036 032C     		cmp	r4, #3
 1338 0038 E7D9     		bls	.L105
 1339              	.LBE14:
 195:main.c        **** 
 1340              		.loc 2 195 0 is_stmt 1
 1341 003a 38BD     		pop	{r3, r4, r5, pc}
 1342              	.LVL153:
 1343              	.L108:
 1344              		.align	2
 1345              	.L107:
 1346 003c 00000000 		.word	selectors
 1347              		.cfi_endproc
 1348              	.LFE76:
 1349              		.size	Disconnect_Contact_From_All_Intermediates, .-Disconnect_Contact_From_All_Intermediates
 1350              		.section	.text.Disconnect_All_Contacts_From_All_Intermediates,"ax",%progbits
 1351              		.align	2
 1352              		.global	Disconnect_All_Contacts_From_All_Intermediates
 1353              		.thumb
 1354              		.thumb_func
 1355              		.type	Disconnect_All_Contacts_From_All_Intermediates, %function
 1356              	Disconnect_All_Contacts_From_All_Intermediates:
 1357              	.LFB77:
 197:main.c        **** 	for (uint8 intermediate = 0; intermediate < INTERMEDIATE_COUNT/**//2; intermediate++) {
 1358              		.loc 2 197 0
 1359              		.cfi_startproc
 1360              		@ args = 0, pretend = 0, frame = 0
ARM GAS  C:\Users\FRANKL~1\AppData\Local\Temp\ccba5qpo.s 			page 45


 1361              		@ frame_needed = 0, uses_anonymous_args = 0
 1362 0000 10B5     		push	{r4, lr}
 1363              		.cfi_def_cfa_offset 8
 1364              		.cfi_offset 4, -8
 1365              		.cfi_offset 14, -4
 1366              	.LVL154:
 1367              	.LBB16:
 198:main.c        **** 		for (uint8 contact = 0; contact < CONTACT_COUNT/2; contact++) {
 1368              		.loc 2 198 0
 1369 0002 0024     		movs	r4, #0
 1370 0004 11E0     		b	.L110
 1371              	.LVL155:
 1372              	.L111:
 1373              	.LBB17:
 200:main.c        **** 		}
 1374              		.loc 2 200 0 discriminator 3
 1375 0006 C4EB0422 		rsb	r2, r4, r4, lsl #8
 1376 000a 0949     		ldr	r1, .L115
 1377 000c 0A44     		add	r2, r2, r1
 1378 000e 1A44     		add	r2, r2, r3
 1379 0010 D121     		movs	r1, #209
 1380 0012 5170     		strb	r1, [r2, #1]
 199:main.c        **** 			selectors[intermediate].write.data[contact] = CONTACT_DISCONNECT_CODE;
 1381              		.loc 2 199 0 discriminator 3
 1382 0014 0133     		adds	r3, r3, #1
 1383              	.LVL156:
 1384 0016 DBB2     		uxtb	r3, r3
 1385              	.LVL157:
 1386 0018 00E0     		b	.L112
 1387              	.LVL158:
 1388              	.L113:
 1389              	.LBE17:
 1390 001a 0023     		movs	r3, #0
 1391              	.L112:
 1392              	.LVL159:
 1393              	.LBB18:
 199:main.c        **** 			selectors[intermediate].write.data[contact] = CONTACT_DISCONNECT_CODE;
 1394              		.loc 2 199 0 is_stmt 0 discriminator 1
 1395 001c 1F2B     		cmp	r3, #31
 1396 001e F2D9     		bls	.L111
 1397              	.LBE18:
 203:main.c        **** 	}
 1398              		.loc 2 203 0 is_stmt 1 discriminator 2
 1399 0020 2046     		mov	r0, r4
 1400 0022 FFF7FEFF 		bl	Update_Selector
 1401              	.LVL160:
 198:main.c        **** 		for (uint8 contact = 0; contact < CONTACT_COUNT/2; contact++) {
 1402              		.loc 2 198 0 discriminator 2
 1403 0026 0134     		adds	r4, r4, #1
 1404              	.LVL161:
 1405 0028 E4B2     		uxtb	r4, r4
 1406              	.LVL162:
 1407              	.L110:
 198:main.c        **** 		for (uint8 contact = 0; contact < CONTACT_COUNT/2; contact++) {
 1408              		.loc 2 198 0 is_stmt 0 discriminator 1
 1409 002a 012C     		cmp	r4, #1
 1410 002c F5D9     		bls	.L113
ARM GAS  C:\Users\FRANKL~1\AppData\Local\Temp\ccba5qpo.s 			page 46


 1411              	.LBE16:
 205:main.c        **** 
 1412              		.loc 2 205 0 is_stmt 1
 1413 002e 10BD     		pop	{r4, pc}
 1414              	.LVL163:
 1415              	.L116:
 1416              		.align	2
 1417              	.L115:
 1418 0030 00000000 		.word	selectors
 1419              		.cfi_endproc
 1420              	.LFE77:
 1421              		.size	Disconnect_All_Contacts_From_All_Intermediates, .-Disconnect_All_Contacts_From_All_Intermedi
 1422              		.section	.text.Disconnect_All_Contacts_From_Intermediate,"ax",%progbits
 1423              		.align	2
 1424              		.global	Disconnect_All_Contacts_From_Intermediate
 1425              		.thumb
 1426              		.thumb_func
 1427              		.type	Disconnect_All_Contacts_From_Intermediate, %function
 1428              	Disconnect_All_Contacts_From_Intermediate:
 1429              	.LFB78:
 207:main.c        **** 	intermediate--;
 1430              		.loc 2 207 0
 1431              		.cfi_startproc
 1432              		@ args = 0, pretend = 0, frame = 0
 1433              		@ frame_needed = 0, uses_anonymous_args = 0
 1434              	.LVL164:
 1435 0000 08B5     		push	{r3, lr}
 1436              		.cfi_def_cfa_offset 8
 1437              		.cfi_offset 3, -8
 1438              		.cfi_offset 14, -4
 208:main.c        **** 	
 1439              		.loc 2 208 0
 1440 0002 0138     		subs	r0, r0, #1
 1441              	.LVL165:
 1442 0004 C0B2     		uxtb	r0, r0
 1443              	.LVL166:
 1444              	.LBB19:
 210:main.c        **** 		selectors[intermediate].write.data[contact] = CONTACT_DISCONNECT_CODE;
 1445              		.loc 2 210 0
 1446 0006 0023     		movs	r3, #0
 1447 0008 08E0     		b	.L118
 1448              	.LVL167:
 1449              	.L119:
 211:main.c        **** 	}
 1450              		.loc 2 211 0 discriminator 3
 1451 000a C0EB0022 		rsb	r2, r0, r0, lsl #8
 1452 000e 0649     		ldr	r1, .L121
 1453 0010 0A44     		add	r2, r2, r1
 1454 0012 1A44     		add	r2, r2, r3
 1455 0014 D121     		movs	r1, #209
 1456 0016 5170     		strb	r1, [r2, #1]
 210:main.c        **** 		selectors[intermediate].write.data[contact] = CONTACT_DISCONNECT_CODE;
 1457              		.loc 2 210 0 discriminator 3
 1458 0018 0133     		adds	r3, r3, #1
 1459              	.LVL168:
 1460 001a DBB2     		uxtb	r3, r3
 1461              	.LVL169:
ARM GAS  C:\Users\FRANKL~1\AppData\Local\Temp\ccba5qpo.s 			page 47


 1462              	.L118:
 210:main.c        **** 		selectors[intermediate].write.data[contact] = CONTACT_DISCONNECT_CODE;
 1463              		.loc 2 210 0 is_stmt 0 discriminator 1
 1464 001c 1F2B     		cmp	r3, #31
 1465 001e F4D9     		bls	.L119
 1466              	.LBE19:
 214:main.c        **** }
 1467              		.loc 2 214 0 is_stmt 1
 1468 0020 FFF7FEFF 		bl	Update_Selector
 1469              	.LVL170:
 1470 0024 08BD     		pop	{r3, pc}
 1471              	.L122:
 1472 0026 00BF     		.align	2
 1473              	.L121:
 1474 0028 00000000 		.word	selectors
 1475              		.cfi_endproc
 1476              	.LFE78:
 1477              		.size	Disconnect_All_Contacts_From_Intermediate, .-Disconnect_All_Contacts_From_Intermediate
 1478              		.section	.text.Connect_Intermediate,"ax",%progbits
 1479              		.align	2
 1480              		.global	Connect_Intermediate
 1481              		.thumb
 1482              		.thumb_func
 1483              		.type	Connect_Intermediate, %function
 1484              	Connect_Intermediate:
 1485              	.LFB79:
 217:main.c        **** 	switch (intermediate) {
 1486              		.loc 2 217 0
 1487              		.cfi_startproc
 1488              		@ args = 0, pretend = 0, frame = 0
 1489              		@ frame_needed = 0, uses_anonymous_args = 0
 1490              	.LVL171:
 1491 0000 08B5     		push	{r3, lr}
 1492              		.cfi_def_cfa_offset 8
 1493              		.cfi_offset 3, -8
 1494              		.cfi_offset 14, -4
 218:main.c        **** 		case 1: Connect_Channel_On_Intermediate(33, 1); break;
 1495              		.loc 2 218 0
 1496 0002 0138     		subs	r0, r0, #1
 1497              	.LVL172:
 1498 0004 0328     		cmp	r0, #3
 1499 0006 16D8     		bhi	.L123
 1500 0008 DFE800F0 		tbb	[pc, r0]
 1501              	.L126:
 1502 000c 02       		.byte	(.L125-.L126)/2
 1503 000d 07       		.byte	(.L127-.L126)/2
 1504 000e 0C       		.byte	(.L128-.L126)/2
 1505 000f 11       		.byte	(.L129-.L126)/2
 1506              		.p2align 1
 1507              	.L125:
 219:main.c        **** 		case 2: Connect_Channel_On_Intermediate(33, 2); break;
 1508              		.loc 2 219 0
 1509 0010 0121     		movs	r1, #1
 1510 0012 2120     		movs	r0, #33
 1511 0014 FFF7FEFF 		bl	Connect_Channel_On_Intermediate
 1512              	.LVL173:
 1513 0018 08BD     		pop	{r3, pc}
ARM GAS  C:\Users\FRANKL~1\AppData\Local\Temp\ccba5qpo.s 			page 48


 1514              	.L127:
 220:main.c        **** 		case 3: Connect_Channel_On_Intermediate(33, 3); break;
 1515              		.loc 2 220 0
 1516 001a 0221     		movs	r1, #2
 1517 001c 2120     		movs	r0, #33
 1518 001e FFF7FEFF 		bl	Connect_Channel_On_Intermediate
 1519              	.LVL174:
 1520 0022 08BD     		pop	{r3, pc}
 1521              	.L128:
 221:main.c        **** 		case 4: Connect_Channel_On_Intermediate(33, 4); break;
 1522              		.loc 2 221 0
 1523 0024 0321     		movs	r1, #3
 1524 0026 2120     		movs	r0, #33
 1525 0028 FFF7FEFF 		bl	Connect_Channel_On_Intermediate
 1526              	.LVL175:
 1527 002c 08BD     		pop	{r3, pc}
 1528              	.L129:
 222:main.c        **** 		default: return;
 1529              		.loc 2 222 0
 1530 002e 0421     		movs	r1, #4
 1531 0030 2120     		movs	r0, #33
 1532 0032 FFF7FEFF 		bl	Connect_Channel_On_Intermediate
 1533              	.LVL176:
 1534              	.L123:
 1535 0036 08BD     		pop	{r3, pc}
 1536              		.cfi_endproc
 1537              	.LFE79:
 1538              		.size	Connect_Intermediate, .-Connect_Intermediate
 1539              		.section	.text.Connect_Intermediates,"ax",%progbits
 1540              		.align	2
 1541              		.global	Connect_Intermediates
 1542              		.thumb
 1543              		.thumb_func
 1544              		.type	Connect_Intermediates, %function
 1545              	Connect_Intermediates:
 1546              	.LFB80:
 227:main.c        **** 	for (uint8 i = 1; i <= INTERMEDIATE_COUNT/**//2; i++) {
 1547              		.loc 2 227 0
 1548              		.cfi_startproc
 1549              		@ args = 0, pretend = 0, frame = 0
 1550              		@ frame_needed = 0, uses_anonymous_args = 0
 1551 0000 10B5     		push	{r4, lr}
 1552              		.cfi_def_cfa_offset 8
 1553              		.cfi_offset 4, -8
 1554              		.cfi_offset 14, -4
 1555              	.LVL177:
 1556              	.LBB20:
 228:main.c        **** 		Connect_Intermediate(i);
 1557              		.loc 2 228 0
 1558 0002 0124     		movs	r4, #1
 1559 0004 04E0     		b	.L132
 1560              	.LVL178:
 1561              	.L133:
 229:main.c        **** 	}
 1562              		.loc 2 229 0 discriminator 3
 1563 0006 2046     		mov	r0, r4
 1564 0008 FFF7FEFF 		bl	Connect_Intermediate
ARM GAS  C:\Users\FRANKL~1\AppData\Local\Temp\ccba5qpo.s 			page 49


 1565              	.LVL179:
 228:main.c        **** 		Connect_Intermediate(i);
 1566              		.loc 2 228 0 discriminator 3
 1567 000c 0134     		adds	r4, r4, #1
 1568              	.LVL180:
 1569 000e E4B2     		uxtb	r4, r4
 1570              	.LVL181:
 1571              	.L132:
 228:main.c        **** 		Connect_Intermediate(i);
 1572              		.loc 2 228 0 is_stmt 0 discriminator 1
 1573 0010 022C     		cmp	r4, #2
 1574 0012 F8D9     		bls	.L133
 1575              	.LBE20:
 231:main.c        **** 
 1576              		.loc 2 231 0 is_stmt 1
 1577 0014 10BD     		pop	{r4, pc}
 1578              		.cfi_endproc
 1579              	.LFE80:
 1580              		.size	Connect_Intermediates, .-Connect_Intermediates
 1581 0016 00BF     		.section	.text.TIA_Set_Resistor,"ax",%progbits
 1582              		.align	2
 1583              		.global	TIA_Set_Resistor
 1584              		.thumb
 1585              		.thumb_func
 1586              		.type	TIA_Set_Resistor, %function
 1587              	TIA_Set_Resistor:
 1588              	.LFB81:
 233:main.c        **** 	TIA_Selected_Resistor = resistor;
 1589              		.loc 2 233 0
 1590              		.cfi_startproc
 1591              		@ args = 0, pretend = 0, frame = 0
 1592              		@ frame_needed = 0, uses_anonymous_args = 0
 1593              	.LVL182:
 1594 0000 08B5     		push	{r3, lr}
 1595              		.cfi_def_cfa_offset 8
 1596              		.cfi_offset 3, -8
 1597              		.cfi_offset 14, -4
 234:main.c        **** 	TIA_1_SetResFB(TIA_Resistor_Codes[resistor]);
 1598              		.loc 2 234 0
 1599 0002 034B     		ldr	r3, .L137
 1600 0004 1870     		strb	r0, [r3]
 235:main.c        **** }
 1601              		.loc 2 235 0
 1602 0006 1844     		add	r0, r0, r3
 1603              	.LVL183:
 1604 0008 0079     		ldrb	r0, [r0, #4]	@ zero_extendqisi2
 1605 000a FFF7FEFF 		bl	TIA_1_SetResFB
 1606              	.LVL184:
 1607 000e 08BD     		pop	{r3, pc}
 1608              	.L138:
 1609              		.align	2
 1610              	.L137:
 1611 0010 00000000 		.word	.LANCHOR1
 1612              		.cfi_endproc
 1613              	.LFE81:
 1614              		.size	TIA_Set_Resistor, .-TIA_Set_Resistor
 1615              		.section	.text.ADC_Increase_Range,"ax",%progbits
ARM GAS  C:\Users\FRANKL~1\AppData\Local\Temp\ccba5qpo.s 			page 50


 1616              		.align	2
 1617              		.global	ADC_Increase_Range
 1618              		.thumb
 1619              		.thumb_func
 1620              		.type	ADC_Increase_Range, %function
 1621              	ADC_Increase_Range:
 1622              	.LFB82:
 238:main.c        **** 	switch(TIA_Selected_Resistor) {
 1623              		.loc 2 238 0
 1624              		.cfi_startproc
 1625              		@ args = 0, pretend = 0, frame = 0
 1626              		@ frame_needed = 0, uses_anonymous_args = 0
 1627 0000 08B5     		push	{r3, lr}
 1628              		.cfi_def_cfa_offset 8
 1629              		.cfi_offset 3, -8
 1630              		.cfi_offset 14, -4
 239:main.c        **** 		case R20K: 	 break;
 1631              		.loc 2 239 0
 1632 0002 134B     		ldr	r3, .L150
 1633 0004 1B78     		ldrb	r3, [r3]	@ zero_extendqisi2
 1634 0006 013B     		subs	r3, r3, #1
 1635 0008 062B     		cmp	r3, #6
 1636 000a 20D8     		bhi	.L139
 1637 000c DFE803F0 		tbb	[pc, r3]
 1638              	.L142:
 1639 0010 04       		.byte	(.L141-.L142)/2
 1640 0011 08       		.byte	(.L143-.L142)/2
 1641 0012 0C       		.byte	(.L144-.L142)/2
 1642 0013 10       		.byte	(.L145-.L142)/2
 1643 0014 14       		.byte	(.L146-.L142)/2
 1644 0015 18       		.byte	(.L147-.L142)/2
 1645 0016 1C       		.byte	(.L148-.L142)/2
 1646 0017 00       		.p2align 1
 1647              	.L141:
 241:main.c        **** 		case R40K:	 TIA_Set_Resistor(R30K); break;
 1648              		.loc 2 241 0
 1649 0018 0020     		movs	r0, #0
 1650 001a FFF7FEFF 		bl	TIA_Set_Resistor
 1651              	.LVL185:
 1652 001e 08BD     		pop	{r3, pc}
 1653              	.L143:
 242:main.c        **** 		case R80K:	 TIA_Set_Resistor(R40K); break;
 1654              		.loc 2 242 0
 1655 0020 0120     		movs	r0, #1
 1656 0022 FFF7FEFF 		bl	TIA_Set_Resistor
 1657              	.LVL186:
 1658 0026 08BD     		pop	{r3, pc}
 1659              	.L144:
 243:main.c        **** 		case R120K:	 TIA_Set_Resistor(R80K); break;
 1660              		.loc 2 243 0
 1661 0028 0220     		movs	r0, #2
 1662 002a FFF7FEFF 		bl	TIA_Set_Resistor
 1663              	.LVL187:
 1664 002e 08BD     		pop	{r3, pc}
 1665              	.L145:
 244:main.c        **** 		case R250K:	 TIA_Set_Resistor(R120K); break;
 1666              		.loc 2 244 0
ARM GAS  C:\Users\FRANKL~1\AppData\Local\Temp\ccba5qpo.s 			page 51


 1667 0030 0320     		movs	r0, #3
 1668 0032 FFF7FEFF 		bl	TIA_Set_Resistor
 1669              	.LVL188:
 1670 0036 08BD     		pop	{r3, pc}
 1671              	.L146:
 245:main.c        **** 		case R500K:	 TIA_Set_Resistor(R250K); break;
 1672              		.loc 2 245 0
 1673 0038 0420     		movs	r0, #4
 1674 003a FFF7FEFF 		bl	TIA_Set_Resistor
 1675              	.LVL189:
 1676 003e 08BD     		pop	{r3, pc}
 1677              	.L147:
 246:main.c        **** 		case R1000K: TIA_Set_Resistor(R500K); break;
 1678              		.loc 2 246 0
 1679 0040 0520     		movs	r0, #5
 1680 0042 FFF7FEFF 		bl	TIA_Set_Resistor
 1681              	.LVL190:
 1682 0046 08BD     		pop	{r3, pc}
 1683              	.L148:
 247:main.c        **** 		default: return;
 1684              		.loc 2 247 0
 1685 0048 0620     		movs	r0, #6
 1686 004a FFF7FEFF 		bl	TIA_Set_Resistor
 1687              	.LVL191:
 1688              	.L139:
 1689 004e 08BD     		pop	{r3, pc}
 1690              	.L151:
 1691              		.align	2
 1692              	.L150:
 1693 0050 00000000 		.word	.LANCHOR1
 1694              		.cfi_endproc
 1695              	.LFE82:
 1696              		.size	ADC_Increase_Range, .-ADC_Increase_Range
 1697              		.section	.text.ADC_Decrease_Range,"ax",%progbits
 1698              		.align	2
 1699              		.global	ADC_Decrease_Range
 1700              		.thumb
 1701              		.thumb_func
 1702              		.type	ADC_Decrease_Range, %function
 1703              	ADC_Decrease_Range:
 1704              	.LFB83:
 252:main.c        **** 	switch(TIA_Selected_Resistor) {
 1705              		.loc 2 252 0
 1706              		.cfi_startproc
 1707              		@ args = 0, pretend = 0, frame = 0
 1708              		@ frame_needed = 0, uses_anonymous_args = 0
 1709 0000 08B5     		push	{r3, lr}
 1710              		.cfi_def_cfa_offset 8
 1711              		.cfi_offset 3, -8
 1712              		.cfi_offset 14, -4
 253:main.c        **** 		case R20K: 	 TIA_Set_Resistor(R30K); break;
 1713              		.loc 2 253 0
 1714 0002 134B     		ldr	r3, .L163
 1715 0004 1B78     		ldrb	r3, [r3]	@ zero_extendqisi2
 1716 0006 062B     		cmp	r3, #6
 1717 0008 20D8     		bhi	.L152
 1718 000a DFE803F0 		tbb	[pc, r3]
ARM GAS  C:\Users\FRANKL~1\AppData\Local\Temp\ccba5qpo.s 			page 52


 1719              	.L155:
 1720 000e 04       		.byte	(.L154-.L155)/2
 1721 000f 08       		.byte	(.L156-.L155)/2
 1722 0010 0C       		.byte	(.L157-.L155)/2
 1723 0011 10       		.byte	(.L158-.L155)/2
 1724 0012 14       		.byte	(.L159-.L155)/2
 1725 0013 18       		.byte	(.L160-.L155)/2
 1726 0014 1C       		.byte	(.L161-.L155)/2
 1727 0015 00       		.p2align 1
 1728              	.L154:
 254:main.c        **** 		case R30K: 	 TIA_Set_Resistor(R40K); break;
 1729              		.loc 2 254 0
 1730 0016 0120     		movs	r0, #1
 1731 0018 FFF7FEFF 		bl	TIA_Set_Resistor
 1732              	.LVL192:
 1733 001c 08BD     		pop	{r3, pc}
 1734              	.L156:
 255:main.c        **** 		case R40K:	 TIA_Set_Resistor(R80K); break;
 1735              		.loc 2 255 0
 1736 001e 0220     		movs	r0, #2
 1737 0020 FFF7FEFF 		bl	TIA_Set_Resistor
 1738              	.LVL193:
 1739 0024 08BD     		pop	{r3, pc}
 1740              	.L157:
 256:main.c        **** 		case R80K:	 TIA_Set_Resistor(R120K); break;
 1741              		.loc 2 256 0
 1742 0026 0320     		movs	r0, #3
 1743 0028 FFF7FEFF 		bl	TIA_Set_Resistor
 1744              	.LVL194:
 1745 002c 08BD     		pop	{r3, pc}
 1746              	.L158:
 257:main.c        **** 		case R120K:	 TIA_Set_Resistor(R250K); break;
 1747              		.loc 2 257 0
 1748 002e 0420     		movs	r0, #4
 1749 0030 FFF7FEFF 		bl	TIA_Set_Resistor
 1750              	.LVL195:
 1751 0034 08BD     		pop	{r3, pc}
 1752              	.L159:
 258:main.c        **** 		case R250K:	 TIA_Set_Resistor(R500K); break;
 1753              		.loc 2 258 0
 1754 0036 0520     		movs	r0, #5
 1755 0038 FFF7FEFF 		bl	TIA_Set_Resistor
 1756              	.LVL196:
 1757 003c 08BD     		pop	{r3, pc}
 1758              	.L160:
 259:main.c        **** 		case R500K:	 TIA_Set_Resistor(R1000K); break;
 1759              		.loc 2 259 0
 1760 003e 0620     		movs	r0, #6
 1761 0040 FFF7FEFF 		bl	TIA_Set_Resistor
 1762              	.LVL197:
 1763 0044 08BD     		pop	{r3, pc}
 1764              	.L161:
 260:main.c        **** 		case R1000K: break;
 1765              		.loc 2 260 0
 1766 0046 0720     		movs	r0, #7
 1767 0048 FFF7FEFF 		bl	TIA_Set_Resistor
 1768              	.LVL198:
ARM GAS  C:\Users\FRANKL~1\AppData\Local\Temp\ccba5qpo.s 			page 53


 1769              	.L152:
 1770 004c 08BD     		pop	{r3, pc}
 1771              	.L164:
 1772 004e 00BF     		.align	2
 1773              	.L163:
 1774 0050 00000000 		.word	.LANCHOR1
 1775              		.cfi_endproc
 1776              	.LFE83:
 1777              		.size	ADC_Decrease_Range, .-ADC_Decrease_Range
 1778              		.global	__aeabi_ui2f
 1779              		.global	__aeabi_fdiv
 1780              		.global	__aeabi_i2f
 1781              		.global	__aeabi_fmul
 1782              		.global	__aeabi_fadd
 1783              		.global	__aeabi_f2iz
 1784              		.global	__aeabi_fsub
 1785              		.section	.text.ADC_Measure_uV,"ax",%progbits
 1786              		.align	2
 1787              		.global	ADC_Measure_uV
 1788              		.thumb
 1789              		.thumb_func
 1790              		.type	ADC_Measure_uV, %function
 1791              	ADC_Measure_uV:
 1792              	.LFB84:
 267:main.c        **** 	int32 ADC_Result = 0;
 1793              		.loc 2 267 0
 1794              		.cfi_startproc
 1795              		@ args = 0, pretend = 0, frame = 8
 1796              		@ frame_needed = 0, uses_anonymous_args = 0
 1797              	.LVL199:
 1798 0000 2DE9F04F 		push	{r4, r5, r6, r7, r8, r9, r10, fp, lr}
 1799              		.cfi_def_cfa_offset 36
 1800              		.cfi_offset 4, -36
 1801              		.cfi_offset 5, -32
 1802              		.cfi_offset 6, -28
 1803              		.cfi_offset 7, -24
 1804              		.cfi_offset 8, -20
 1805              		.cfi_offset 9, -16
 1806              		.cfi_offset 10, -12
 1807              		.cfi_offset 11, -8
 1808              		.cfi_offset 14, -4
 1809 0004 83B0     		sub	sp, sp, #12
 1810              		.cfi_def_cfa_offset 48
 1811 0006 0090     		str	r0, [sp]
 1812 0008 0191     		str	r1, [sp, #4]
 1813 000a 9346     		mov	fp, r2
 1814              	.LVL200:
 1815              	.LBB21:
 271:main.c        **** 		ADC_DelSig_1_StartConvert();
 1816              		.loc 2 271 0
 1817 000c 0124     		movs	r4, #1
 1818              	.LBE21:
 269:main.c        **** 	
 1819              		.loc 2 269 0
 1820 000e 4FF00009 		mov	r9, #0
 268:main.c        **** 	int32 ADC_SD = 0;
 1821              		.loc 2 268 0
ARM GAS  C:\Users\FRANKL~1\AppData\Local\Temp\ccba5qpo.s 			page 54


 1822 0012 4D46     		mov	r5, r9
 1823              	.LBB23:
 271:main.c        **** 		ADC_DelSig_1_StartConvert();
 1824              		.loc 2 271 0
 1825 0014 45E0     		b	.L166
 1826              	.LVL201:
 1827              	.L168:
 1828              	.LBB22:
 272:main.c        **** 		while (!ADC_DelSig_1_IsEndConversion(ADC_DelSig_1_RETURN_STATUS));
 1829              		.loc 2 272 0
 1830 0016 FFF7FEFF 		bl	ADC_DelSig_1_StartConvert
 1831              	.LVL202:
 1832              	.L167:
 273:main.c        **** 		//int16 ADC_Result = ADC_DelSig_1_CountsTo_mVolts(ADC_DelSig_1_GetResult16());
 1833              		.loc 2 273 0 discriminator 1
 1834 001a 0120     		movs	r0, #1
 1835 001c FFF7FEFF 		bl	ADC_DelSig_1_IsEndConversion
 1836              	.LVL203:
 1837 0020 0028     		cmp	r0, #0
 1838 0022 FAD0     		beq	.L167
 275:main.c        **** 		
 1839              		.loc 2 275 0 discriminator 2
 1840 0024 FFF7FEFF 		bl	ADC_DelSig_1_GetResult32
 1841              	.LVL204:
 1842 0028 FFF7FEFF 		bl	ADC_DelSig_1_CountsTo_uVolts
 1843              	.LVL205:
 1844 002c 0746     		mov	r7, r0
 1845              	.LVL206:
 277:main.c        **** 		ADC_Result += ((float)ADC_Result_Current - (float)ADC_Result)/(float)i;
 1846              		.loc 2 277 0 discriminator 2
 1847 002e 601E     		subs	r0, r4, #1
 1848              	.LVL207:
 1849 0030 FFF7FEFF 		bl	__aeabi_ui2f
 1850              	.LVL208:
 1851 0034 8046     		mov	r8, r0
 1852 0036 2046     		mov	r0, r4
 1853 0038 FFF7FEFF 		bl	__aeabi_ui2f
 1854              	.LVL209:
 1855 003c 0646     		mov	r6, r0
 1856 003e 0146     		mov	r1, r0
 1857 0040 4046     		mov	r0, r8
 1858 0042 FFF7FEFF 		bl	__aeabi_fdiv
 1859              	.LVL210:
 1860 0046 8246     		mov	r10, r0
 1861 0048 781B     		subs	r0, r7, r5
 1862 004a FFF7FEFF 		bl	__aeabi_i2f
 1863              	.LVL211:
 1864 004e 8046     		mov	r8, r0
 1865 0050 0146     		mov	r1, r0
 1866 0052 5046     		mov	r0, r10
 1867 0054 FFF7FEFF 		bl	__aeabi_fmul
 1868              	.LVL212:
 1869 0058 0146     		mov	r1, r0
 1870 005a 4046     		mov	r0, r8
 1871 005c FFF7FEFF 		bl	__aeabi_fmul
 1872              	.LVL213:
 1873 0060 8046     		mov	r8, r0
ARM GAS  C:\Users\FRANKL~1\AppData\Local\Temp\ccba5qpo.s 			page 55


 1874 0062 4846     		mov	r0, r9
 1875 0064 FFF7FEFF 		bl	__aeabi_i2f
 1876              	.LVL214:
 1877 0068 4146     		mov	r1, r8
 1878 006a FFF7FEFF 		bl	__aeabi_fadd
 1879              	.LVL215:
 1880 006e FFF7FEFF 		bl	__aeabi_f2iz
 1881              	.LVL216:
 1882 0072 8146     		mov	r9, r0
 1883              	.LVL217:
 278:main.c        **** 	}
 1884              		.loc 2 278 0 discriminator 2
 1885 0074 3846     		mov	r0, r7
 1886              	.LVL218:
 1887 0076 FFF7FEFF 		bl	__aeabi_i2f
 1888              	.LVL219:
 1889 007a 0746     		mov	r7, r0
 1890              	.LVL220:
 1891 007c 2846     		mov	r0, r5
 1892 007e FFF7FEFF 		bl	__aeabi_i2f
 1893              	.LVL221:
 1894 0082 0546     		mov	r5, r0
 1895              	.LVL222:
 1896 0084 0146     		mov	r1, r0
 1897 0086 3846     		mov	r0, r7
 1898 0088 FFF7FEFF 		bl	__aeabi_fsub
 1899              	.LVL223:
 1900 008c 3146     		mov	r1, r6
 1901 008e FFF7FEFF 		bl	__aeabi_fdiv
 1902              	.LVL224:
 1903 0092 0146     		mov	r1, r0
 1904 0094 2846     		mov	r0, r5
 1905 0096 FFF7FEFF 		bl	__aeabi_fadd
 1906              	.LVL225:
 1907 009a FFF7FEFF 		bl	__aeabi_f2iz
 1908              	.LVL226:
 1909 009e 0546     		mov	r5, r0
 1910              	.LVL227:
 1911              	.LBE22:
 271:main.c        **** 		ADC_DelSig_1_StartConvert();
 1912              		.loc 2 271 0 discriminator 2
 1913 00a0 0134     		adds	r4, r4, #1
 1914              	.LVL228:
 1915              	.L166:
 271:main.c        **** 		ADC_DelSig_1_StartConvert();
 1916              		.loc 2 271 0 is_stmt 0 discriminator 1
 1917 00a2 5C45     		cmp	r4, fp
 1918 00a4 B7D9     		bls	.L168
 1919              	.LBE23:
 281:main.c        **** 	*standardDeviation = ADC_SD;
 1920              		.loc 2 281 0 is_stmt 1
 1921 00a6 009B     		ldr	r3, [sp]
 1922 00a8 1D60     		str	r5, [r3]
 282:main.c        **** }
 1923              		.loc 2 282 0
 1924 00aa 019B     		ldr	r3, [sp, #4]
 1925 00ac C3F80090 		str	r9, [r3]
ARM GAS  C:\Users\FRANKL~1\AppData\Local\Temp\ccba5qpo.s 			page 56


 283:main.c        **** 
 1926              		.loc 2 283 0
 1927 00b0 03B0     		add	sp, sp, #12
 1928              		.cfi_def_cfa_offset 36
 1929              	.LVL229:
 1930              		@ sp needed
 1931 00b2 BDE8F08F 		pop	{r4, r5, r6, r7, r8, r9, r10, fp, pc}
 1932              		.cfi_endproc
 1933              	.LFE84:
 1934              		.size	ADC_Measure_uV, .-ADC_Measure_uV
 1935 00b6 00BF     		.section	.text.SAR1_Measure_V,"ax",%progbits
 1936              		.align	2
 1937              		.global	SAR1_Measure_V
 1938              		.thumb
 1939              		.thumb_func
 1940              		.type	SAR1_Measure_V, %function
 1941              	SAR1_Measure_V:
 1942              	.LFB85:
 286:main.c        **** 	int32 SAR_Result = 0;
 1943              		.loc 2 286 0
 1944              		.cfi_startproc
 1945              		@ args = 0, pretend = 0, frame = 8
 1946              		@ frame_needed = 0, uses_anonymous_args = 0
 1947              	.LVL230:
 1948 0000 2DE9F04F 		push	{r4, r5, r6, r7, r8, r9, r10, fp, lr}
 1949              		.cfi_def_cfa_offset 36
 1950              		.cfi_offset 4, -36
 1951              		.cfi_offset 5, -32
 1952              		.cfi_offset 6, -28
 1953              		.cfi_offset 7, -24
 1954              		.cfi_offset 8, -20
 1955              		.cfi_offset 9, -16
 1956              		.cfi_offset 10, -12
 1957              		.cfi_offset 11, -8
 1958              		.cfi_offset 14, -4
 1959 0004 83B0     		sub	sp, sp, #12
 1960              		.cfi_def_cfa_offset 48
 1961 0006 0090     		str	r0, [sp]
 1962 0008 0191     		str	r1, [sp, #4]
 1963 000a 9346     		mov	fp, r2
 1964              	.LVL231:
 1965              	.LBB24:
 290:main.c        **** 		ADC_SAR_1_StartConvert();
 1966              		.loc 2 290 0
 1967 000c 0124     		movs	r4, #1
 1968              	.LBE24:
 288:main.c        **** 	
 1969              		.loc 2 288 0
 1970 000e 4FF00009 		mov	r9, #0
 287:main.c        **** 	int32 SAR_SD = 0;
 1971              		.loc 2 287 0
 1972 0012 4D46     		mov	r5, r9
 1973              	.LBB26:
 290:main.c        **** 		ADC_SAR_1_StartConvert();
 1974              		.loc 2 290 0
 1975 0014 45E0     		b	.L171
 1976              	.LVL232:
ARM GAS  C:\Users\FRANKL~1\AppData\Local\Temp\ccba5qpo.s 			page 57


 1977              	.L173:
 1978              	.LBB25:
 291:main.c        **** 		while (!ADC_SAR_1_IsEndConversion(ADC_SAR_1_RETURN_STATUS));
 1979              		.loc 2 291 0
 1980 0016 FFF7FEFF 		bl	ADC_SAR_1_StartConvert
 1981              	.LVL233:
 1982              	.L172:
 292:main.c        **** 		
 1983              		.loc 2 292 0 discriminator 1
 1984 001a 0120     		movs	r0, #1
 1985 001c FFF7FEFF 		bl	ADC_SAR_1_IsEndConversion
 1986              	.LVL234:
 1987 0020 0028     		cmp	r0, #0
 1988 0022 FAD0     		beq	.L172
 294:main.c        **** 		
 1989              		.loc 2 294 0 discriminator 2
 1990 0024 FFF7FEFF 		bl	ADC_SAR_1_GetResult16
 1991              	.LVL235:
 1992 0028 FFF7FEFF 		bl	ADC_SAR_1_CountsTo_uVolts
 1993              	.LVL236:
 1994 002c 0746     		mov	r7, r0
 1995              	.LVL237:
 296:main.c        **** 		SAR_Result += ((float)SAR1_Result_Current - (float)SAR_Result)/(float)i;
 1996              		.loc 2 296 0 discriminator 2
 1997 002e 601E     		subs	r0, r4, #1
 1998              	.LVL238:
 1999 0030 FFF7FEFF 		bl	__aeabi_ui2f
 2000              	.LVL239:
 2001 0034 8046     		mov	r8, r0
 2002 0036 2046     		mov	r0, r4
 2003 0038 FFF7FEFF 		bl	__aeabi_ui2f
 2004              	.LVL240:
 2005 003c 0646     		mov	r6, r0
 2006 003e 0146     		mov	r1, r0
 2007 0040 4046     		mov	r0, r8
 2008 0042 FFF7FEFF 		bl	__aeabi_fdiv
 2009              	.LVL241:
 2010 0046 8246     		mov	r10, r0
 2011 0048 781B     		subs	r0, r7, r5
 2012 004a FFF7FEFF 		bl	__aeabi_i2f
 2013              	.LVL242:
 2014 004e 8046     		mov	r8, r0
 2015 0050 0146     		mov	r1, r0
 2016 0052 5046     		mov	r0, r10
 2017 0054 FFF7FEFF 		bl	__aeabi_fmul
 2018              	.LVL243:
 2019 0058 0146     		mov	r1, r0
 2020 005a 4046     		mov	r0, r8
 2021 005c FFF7FEFF 		bl	__aeabi_fmul
 2022              	.LVL244:
 2023 0060 8046     		mov	r8, r0
 2024 0062 4846     		mov	r0, r9
 2025 0064 FFF7FEFF 		bl	__aeabi_i2f
 2026              	.LVL245:
 2027 0068 4146     		mov	r1, r8
 2028 006a FFF7FEFF 		bl	__aeabi_fadd
 2029              	.LVL246:
ARM GAS  C:\Users\FRANKL~1\AppData\Local\Temp\ccba5qpo.s 			page 58


 2030 006e FFF7FEFF 		bl	__aeabi_f2iz
 2031              	.LVL247:
 2032 0072 8146     		mov	r9, r0
 2033              	.LVL248:
 297:main.c        **** 	}
 2034              		.loc 2 297 0 discriminator 2
 2035 0074 3846     		mov	r0, r7
 2036              	.LVL249:
 2037 0076 FFF7FEFF 		bl	__aeabi_i2f
 2038              	.LVL250:
 2039 007a 0746     		mov	r7, r0
 2040              	.LVL251:
 2041 007c 2846     		mov	r0, r5
 2042 007e FFF7FEFF 		bl	__aeabi_i2f
 2043              	.LVL252:
 2044 0082 0546     		mov	r5, r0
 2045              	.LVL253:
 2046 0084 0146     		mov	r1, r0
 2047 0086 3846     		mov	r0, r7
 2048 0088 FFF7FEFF 		bl	__aeabi_fsub
 2049              	.LVL254:
 2050 008c 3146     		mov	r1, r6
 2051 008e FFF7FEFF 		bl	__aeabi_fdiv
 2052              	.LVL255:
 2053 0092 0146     		mov	r1, r0
 2054 0094 2846     		mov	r0, r5
 2055 0096 FFF7FEFF 		bl	__aeabi_fadd
 2056              	.LVL256:
 2057 009a FFF7FEFF 		bl	__aeabi_f2iz
 2058              	.LVL257:
 2059 009e 0546     		mov	r5, r0
 2060              	.LVL258:
 2061              	.LBE25:
 290:main.c        **** 		ADC_SAR_1_StartConvert();
 2062              		.loc 2 290 0 discriminator 2
 2063 00a0 0134     		adds	r4, r4, #1
 2064              	.LVL259:
 2065              	.L171:
 290:main.c        **** 		ADC_SAR_1_StartConvert();
 2066              		.loc 2 290 0 is_stmt 0 discriminator 1
 2067 00a2 5C45     		cmp	r4, fp
 2068 00a4 B7D9     		bls	.L173
 2069              	.LBE26:
 300:main.c        **** 	*standardDeviation = SAR_SD;
 2070              		.loc 2 300 0 is_stmt 1
 2071 00a6 009B     		ldr	r3, [sp]
 2072 00a8 1D60     		str	r5, [r3]
 301:main.c        **** }
 2073              		.loc 2 301 0
 2074 00aa 019B     		ldr	r3, [sp, #4]
 2075 00ac C3F80090 		str	r9, [r3]
 302:main.c        **** 
 2076              		.loc 2 302 0
 2077 00b0 03B0     		add	sp, sp, #12
 2078              		.cfi_def_cfa_offset 36
 2079              	.LVL260:
 2080              		@ sp needed
ARM GAS  C:\Users\FRANKL~1\AppData\Local\Temp\ccba5qpo.s 			page 59


 2081 00b2 BDE8F08F 		pop	{r4, r5, r6, r7, r8, r9, r10, fp, pc}
 2082              		.cfi_endproc
 2083              	.LFE85:
 2084              		.size	SAR1_Measure_V, .-SAR1_Measure_V
 2085 00b6 00BF     		.section	.text.SAR2_Measure_V,"ax",%progbits
 2086              		.align	2
 2087              		.global	SAR2_Measure_V
 2088              		.thumb
 2089              		.thumb_func
 2090              		.type	SAR2_Measure_V, %function
 2091              	SAR2_Measure_V:
 2092              	.LFB86:
 305:main.c        **** 	int32 SAR_Result = 0;
 2093              		.loc 2 305 0
 2094              		.cfi_startproc
 2095              		@ args = 0, pretend = 0, frame = 8
 2096              		@ frame_needed = 0, uses_anonymous_args = 0
 2097              	.LVL261:
 2098 0000 2DE9F04F 		push	{r4, r5, r6, r7, r8, r9, r10, fp, lr}
 2099              		.cfi_def_cfa_offset 36
 2100              		.cfi_offset 4, -36
 2101              		.cfi_offset 5, -32
 2102              		.cfi_offset 6, -28
 2103              		.cfi_offset 7, -24
 2104              		.cfi_offset 8, -20
 2105              		.cfi_offset 9, -16
 2106              		.cfi_offset 10, -12
 2107              		.cfi_offset 11, -8
 2108              		.cfi_offset 14, -4
 2109 0004 83B0     		sub	sp, sp, #12
 2110              		.cfi_def_cfa_offset 48
 2111 0006 0090     		str	r0, [sp]
 2112 0008 0191     		str	r1, [sp, #4]
 2113 000a 9346     		mov	fp, r2
 2114              	.LVL262:
 2115              	.LBB27:
 309:main.c        **** 		ADC_SAR_2_StartConvert();
 2116              		.loc 2 309 0
 2117 000c 0124     		movs	r4, #1
 2118              	.LBE27:
 307:main.c        **** 	
 2119              		.loc 2 307 0
 2120 000e 4FF00009 		mov	r9, #0
 306:main.c        **** 	int32 SAR_SD = 0;
 2121              		.loc 2 306 0
 2122 0012 4D46     		mov	r5, r9
 2123              	.LBB29:
 309:main.c        **** 		ADC_SAR_2_StartConvert();
 2124              		.loc 2 309 0
 2125 0014 45E0     		b	.L176
 2126              	.LVL263:
 2127              	.L178:
 2128              	.LBB28:
 310:main.c        **** 		while (!ADC_SAR_2_IsEndConversion(ADC_SAR_2_RETURN_STATUS));
 2129              		.loc 2 310 0
 2130 0016 FFF7FEFF 		bl	ADC_SAR_2_StartConvert
 2131              	.LVL264:
ARM GAS  C:\Users\FRANKL~1\AppData\Local\Temp\ccba5qpo.s 			page 60


 2132              	.L177:
 311:main.c        **** 		
 2133              		.loc 2 311 0 discriminator 1
 2134 001a 0120     		movs	r0, #1
 2135 001c FFF7FEFF 		bl	ADC_SAR_2_IsEndConversion
 2136              	.LVL265:
 2137 0020 0028     		cmp	r0, #0
 2138 0022 FAD0     		beq	.L177
 313:main.c        **** 		
 2139              		.loc 2 313 0 discriminator 2
 2140 0024 FFF7FEFF 		bl	ADC_SAR_2_GetResult16
 2141              	.LVL266:
 2142 0028 FFF7FEFF 		bl	ADC_SAR_2_CountsTo_uVolts
 2143              	.LVL267:
 2144 002c 0746     		mov	r7, r0
 2145              	.LVL268:
 315:main.c        **** 		SAR_Result += ((float)SAR2_Result_Current - (float)SAR_Result)/(float)i;
 2146              		.loc 2 315 0 discriminator 2
 2147 002e 601E     		subs	r0, r4, #1
 2148              	.LVL269:
 2149 0030 FFF7FEFF 		bl	__aeabi_ui2f
 2150              	.LVL270:
 2151 0034 8046     		mov	r8, r0
 2152 0036 2046     		mov	r0, r4
 2153 0038 FFF7FEFF 		bl	__aeabi_ui2f
 2154              	.LVL271:
 2155 003c 0646     		mov	r6, r0
 2156 003e 0146     		mov	r1, r0
 2157 0040 4046     		mov	r0, r8
 2158 0042 FFF7FEFF 		bl	__aeabi_fdiv
 2159              	.LVL272:
 2160 0046 8246     		mov	r10, r0
 2161 0048 781B     		subs	r0, r7, r5
 2162 004a FFF7FEFF 		bl	__aeabi_i2f
 2163              	.LVL273:
 2164 004e 8046     		mov	r8, r0
 2165 0050 0146     		mov	r1, r0
 2166 0052 5046     		mov	r0, r10
 2167 0054 FFF7FEFF 		bl	__aeabi_fmul
 2168              	.LVL274:
 2169 0058 0146     		mov	r1, r0
 2170 005a 4046     		mov	r0, r8
 2171 005c FFF7FEFF 		bl	__aeabi_fmul
 2172              	.LVL275:
 2173 0060 8046     		mov	r8, r0
 2174 0062 4846     		mov	r0, r9
 2175 0064 FFF7FEFF 		bl	__aeabi_i2f
 2176              	.LVL276:
 2177 0068 4146     		mov	r1, r8
 2178 006a FFF7FEFF 		bl	__aeabi_fadd
 2179              	.LVL277:
 2180 006e FFF7FEFF 		bl	__aeabi_f2iz
 2181              	.LVL278:
 2182 0072 8146     		mov	r9, r0
 2183              	.LVL279:
 316:main.c        **** 	}
 2184              		.loc 2 316 0 discriminator 2
ARM GAS  C:\Users\FRANKL~1\AppData\Local\Temp\ccba5qpo.s 			page 61


 2185 0074 3846     		mov	r0, r7
 2186              	.LVL280:
 2187 0076 FFF7FEFF 		bl	__aeabi_i2f
 2188              	.LVL281:
 2189 007a 0746     		mov	r7, r0
 2190              	.LVL282:
 2191 007c 2846     		mov	r0, r5
 2192 007e FFF7FEFF 		bl	__aeabi_i2f
 2193              	.LVL283:
 2194 0082 0546     		mov	r5, r0
 2195              	.LVL284:
 2196 0084 0146     		mov	r1, r0
 2197 0086 3846     		mov	r0, r7
 2198 0088 FFF7FEFF 		bl	__aeabi_fsub
 2199              	.LVL285:
 2200 008c 3146     		mov	r1, r6
 2201 008e FFF7FEFF 		bl	__aeabi_fdiv
 2202              	.LVL286:
 2203 0092 0146     		mov	r1, r0
 2204 0094 2846     		mov	r0, r5
 2205 0096 FFF7FEFF 		bl	__aeabi_fadd
 2206              	.LVL287:
 2207 009a FFF7FEFF 		bl	__aeabi_f2iz
 2208              	.LVL288:
 2209 009e 0546     		mov	r5, r0
 2210              	.LVL289:
 2211              	.LBE28:
 309:main.c        **** 		ADC_SAR_2_StartConvert();
 2212              		.loc 2 309 0 discriminator 2
 2213 00a0 0134     		adds	r4, r4, #1
 2214              	.LVL290:
 2215              	.L176:
 309:main.c        **** 		ADC_SAR_2_StartConvert();
 2216              		.loc 2 309 0 is_stmt 0 discriminator 1
 2217 00a2 5C45     		cmp	r4, fp
 2218 00a4 B7D9     		bls	.L178
 2219              	.LBE29:
 319:main.c        **** 	*standardDeviation = SAR_SD;
 2220              		.loc 2 319 0 is_stmt 1
 2221 00a6 009B     		ldr	r3, [sp]
 2222 00a8 1D60     		str	r5, [r3]
 320:main.c        **** }
 2223              		.loc 2 320 0
 2224 00aa 019B     		ldr	r3, [sp, #4]
 2225 00ac C3F80090 		str	r9, [r3]
 321:main.c        **** 
 2226              		.loc 2 321 0
 2227 00b0 03B0     		add	sp, sp, #12
 2228              		.cfi_def_cfa_offset 36
 2229              	.LVL291:
 2230              		@ sp needed
 2231 00b2 BDE8F08F 		pop	{r4, r5, r6, r7, r8, r9, r10, fp, pc}
 2232              		.cfi_endproc
 2233              	.LFE86:
 2234              		.size	SAR2_Measure_V, .-SAR2_Measure_V
 2235              		.global	__aeabi_f2d
 2236              		.global	__aeabi_ddiv
ARM GAS  C:\Users\FRANKL~1\AppData\Local\Temp\ccba5qpo.s 			page 62


 2237              		.global	__aeabi_d2f
 2238              		.global	__aeabi_i2d
 2239              		.global	__aeabi_dcmpgt
 2240              		.global	__aeabi_dsub
 2241              		.global	__aeabi_dmul
 2242              		.global	__aeabi_dadd
 2243 00b6 00BF     		.section	.text.Measure_Current_Vss,"ax",%progbits
 2244              		.align	2
 2245              		.global	Measure_Current_Vss
 2246              		.thumb
 2247              		.thumb_func
 2248              		.type	Measure_Current_Vss, %function
 2249              	Measure_Current_Vss:
 2250              	.LFB87:
 324:main.c        **** 	Compliance_Reached = 0;
 2251              		.loc 2 324 0
 2252              		.cfi_startproc
 2253              		@ args = 0, pretend = 0, frame = 32
 2254              		@ frame_needed = 0, uses_anonymous_args = 0
 2255              	.LVL292:
 2256 0000 2DE9F04F 		push	{r4, r5, r6, r7, r8, r9, r10, fp, lr}
 2257              		.cfi_def_cfa_offset 36
 2258              		.cfi_offset 4, -36
 2259              		.cfi_offset 5, -32
 2260              		.cfi_offset 6, -28
 2261              		.cfi_offset 7, -24
 2262              		.cfi_offset 8, -20
 2263              		.cfi_offset 9, -16
 2264              		.cfi_offset 10, -12
 2265              		.cfi_offset 11, -8
 2266              		.cfi_offset 14, -4
 2267 0004 89B0     		sub	sp, sp, #36
 2268              		.cfi_def_cfa_offset 72
 2269 0006 0490     		str	r0, [sp, #16]
 2270 0008 0591     		str	r1, [sp, #20]
 2271 000a 9346     		mov	fp, r2
 325:main.c        **** 	
 2272              		.loc 2 325 0
 2273 000c 0023     		movs	r3, #0
 2274 000e 4A4A     		ldr	r2, .L189+16
 2275              	.LVL293:
 2276 0010 1370     		strb	r3, [r2]
 328:main.c        **** 	int32 voltageSD = 0;
 2277              		.loc 2 328 0
 2278 0012 0793     		str	r3, [sp, #28]
 329:main.c        **** 	
 2279              		.loc 2 329 0
 2280 0014 08AC     		add	r4, sp, #32
 2281 0016 44F8083D 		str	r3, [r4, #-8]!
 2282              	.LVL294:
 337:main.c        **** 	float unitConversion = -1.0e-6/TIA_Feedback_R;
 2283              		.loc 2 337 0
 2284 001a 484B     		ldr	r3, .L189+20
 2285 001c 1A78     		ldrb	r2, [r3]	@ zero_extendqisi2
 2286 001e 03EB8203 		add	r3, r3, r2, lsl #2
 2287              	.LVL295:
 338:main.c        **** 	
ARM GAS  C:\Users\FRANKL~1\AppData\Local\Temp\ccba5qpo.s 			page 63


 2288              		.loc 2 338 0
 2289 0022 D868     		ldr	r0, [r3, #12]	@ float
 2290              	.LVL296:
 2291 0024 FFF7FEFF 		bl	__aeabi_f2d
 2292              	.LVL297:
 2293 0028 0246     		mov	r2, r0
 2294 002a 0B46     		mov	r3, r1
 2295 002c 3EA1     		adr	r1, .L189
 2296 002e D1E90001 		ldrd	r0, [r1]
 2297 0032 FFF7FEFF 		bl	__aeabi_ddiv
 2298              	.LVL298:
 2299 0036 FFF7FEFF 		bl	__aeabi_d2f
 2300              	.LVL299:
 2301 003a 0390     		str	r0, [sp, #12]	@ float
 2302              	.LVL300:
 341:main.c        **** 	
 2303              		.loc 2 341 0
 2304 003c 0322     		movs	r2, #3
 2305 003e 2146     		mov	r1, r4
 2306 0040 07A8     		add	r0, sp, #28
 2307              	.LVL301:
 2308 0042 FFF7FEFF 		bl	ADC_Measure_uV
 2309              	.LVL302:
 2310              	.LBB30:
 344:main.c        **** 		ADC_Measure_uV(&voltage, &voltageSD, 1);
 2311              		.loc 2 344 0
 2312 0046 0124     		movs	r4, #1
 2313              	.LBE30:
 335:main.c        **** 	
 2314              		.loc 2 335 0
 2315 0048 4FF00008 		mov	r8, #0
 334:main.c        **** 	float currentStdDev = 0;
 2316              		.loc 2 334 0
 2317 004c C146     		mov	r9, r8
 2318              	.LBB31:
 344:main.c        **** 		ADC_Measure_uV(&voltage, &voltageSD, 1);
 2319              		.loc 2 344 0
 2320 004e 5EE0     		b	.L181
 2321              	.LVL303:
 2322              	.L185:
 345:main.c        **** 		
 2323              		.loc 2 345 0
 2324 0050 0122     		movs	r2, #1
 2325 0052 06A9     		add	r1, sp, #24
 2326 0054 07A8     		add	r0, sp, #28
 2327 0056 FFF7FEFF 		bl	ADC_Measure_uV
 2328              	.LVL304:
 347:main.c        **** 		
 2329              		.loc 2 347 0
 2330 005a 0798     		ldr	r0, [sp, #28]
 2331 005c FFF7FEFF 		bl	__aeabi_i2f
 2332              	.LVL305:
 2333 0060 0146     		mov	r1, r0
 2334 0062 0398     		ldr	r0, [sp, #12]	@ float
 2335 0064 FFF7FEFF 		bl	__aeabi_fmul
 2336              	.LVL306:
 2337 0068 0546     		mov	r5, r0
ARM GAS  C:\Users\FRANKL~1\AppData\Local\Temp\ccba5qpo.s 			page 64


 2338              	.LVL307:
 349:main.c        **** 			Compliance_Reached += 1;
 2339              		.loc 2 349 0
 2340 006a FFF7FEFF 		bl	__aeabi_f2iz
 2341              	.LVL308:
 2342 006e 0028     		cmp	r0, #0
 2343 0070 B8BF     		it	lt
 2344 0072 4042     		rsblt	r0, r0, #0
 2345 0074 FFF7FEFF 		bl	__aeabi_i2d
 2346              	.LVL309:
 2347 0078 2DA3     		adr	r3, .L189+8
 2348 007a D3E90023 		ldrd	r2, [r3]
 2349 007e FFF7FEFF 		bl	__aeabi_dcmpgt
 2350              	.LVL310:
 2351 0082 20B1     		cbz	r0, .L187
 350:main.c        **** 			break;
 2352              		.loc 2 350 0
 2353 0084 2C4A     		ldr	r2, .L189+16
 2354 0086 1378     		ldrb	r3, [r2]	@ zero_extendqisi2
 2355 0088 0133     		adds	r3, r3, #1
 2356 008a 1370     		strb	r3, [r2]
 351:main.c        **** 		} else {
 2357              		.loc 2 351 0
 2358 008c 41E0     		b	.L184
 2359              	.L187:
 353:main.c        **** 		}
 2360              		.loc 2 353 0 discriminator 2
 2361 008e 0022     		movs	r2, #0
 2362 0090 294B     		ldr	r3, .L189+16
 2363 0092 1A70     		strb	r2, [r3]
 356:main.c        **** 		currentAverage += (currentNow - currentAverage)/(float)i;
 2364              		.loc 2 356 0 discriminator 2
 2365 0094 2046     		mov	r0, r4
 2366 0096 FFF7FEFF 		bl	__aeabi_ui2f
 2367              	.LVL311:
 2368 009a 8246     		mov	r10, r0
 2369 009c FFF7FEFF 		bl	__aeabi_f2d
 2370              	.LVL312:
 2371 00a0 0646     		mov	r6, r0
 2372 00a2 0F46     		mov	r7, r1
 2373 00a4 0022     		movs	r2, #0
 2374 00a6 264B     		ldr	r3, .L189+24
 2375 00a8 FFF7FEFF 		bl	__aeabi_dsub
 2376              	.LVL313:
 2377 00ac 3246     		mov	r2, r6
 2378 00ae 3B46     		mov	r3, r7
 2379 00b0 FFF7FEFF 		bl	__aeabi_ddiv
 2380              	.LVL314:
 2381 00b4 CDE90001 		strd	r0, [sp]
 2382 00b8 4946     		mov	r1, r9
 2383 00ba 2846     		mov	r0, r5
 2384 00bc FFF7FEFF 		bl	__aeabi_fsub
 2385              	.LVL315:
 2386 00c0 0546     		mov	r5, r0
 2387              	.LVL316:
 2388 00c2 FFF7FEFF 		bl	__aeabi_f2d
 2389              	.LVL317:
ARM GAS  C:\Users\FRANKL~1\AppData\Local\Temp\ccba5qpo.s 			page 65


 2390 00c6 0646     		mov	r6, r0
 2391 00c8 0F46     		mov	r7, r1
 2392 00ca 0246     		mov	r2, r0
 2393 00cc 0B46     		mov	r3, r1
 2394 00ce DDE90001 		ldrd	r0, [sp]
 2395 00d2 FFF7FEFF 		bl	__aeabi_dmul
 2396              	.LVL318:
 2397 00d6 0246     		mov	r2, r0
 2398 00d8 0B46     		mov	r3, r1
 2399 00da 3046     		mov	r0, r6
 2400 00dc 3946     		mov	r1, r7
 2401 00de FFF7FEFF 		bl	__aeabi_dmul
 2402              	.LVL319:
 2403 00e2 0646     		mov	r6, r0
 2404 00e4 0F46     		mov	r7, r1
 2405 00e6 4046     		mov	r0, r8
 2406 00e8 FFF7FEFF 		bl	__aeabi_f2d
 2407              	.LVL320:
 2408 00ec 3246     		mov	r2, r6
 2409 00ee 3B46     		mov	r3, r7
 2410 00f0 FFF7FEFF 		bl	__aeabi_dadd
 2411              	.LVL321:
 2412 00f4 FFF7FEFF 		bl	__aeabi_d2f
 2413              	.LVL322:
 2414 00f8 8046     		mov	r8, r0
 2415              	.LVL323:
 357:main.c        **** 	}
 2416              		.loc 2 357 0 discriminator 2
 2417 00fa 5146     		mov	r1, r10
 2418 00fc 2846     		mov	r0, r5
 2419              	.LVL324:
 2420 00fe FFF7FEFF 		bl	__aeabi_fdiv
 2421              	.LVL325:
 2422 0102 0146     		mov	r1, r0
 2423 0104 4846     		mov	r0, r9
 2424 0106 FFF7FEFF 		bl	__aeabi_fadd
 2425              	.LVL326:
 2426 010a 8146     		mov	r9, r0
 2427              	.LVL327:
 344:main.c        **** 		ADC_Measure_uV(&voltage, &voltageSD, 1);
 2428              		.loc 2 344 0 discriminator 2
 2429 010c 0134     		adds	r4, r4, #1
 2430              	.LVL328:
 2431              	.L181:
 344:main.c        **** 		ADC_Measure_uV(&voltage, &voltageSD, 1);
 2432              		.loc 2 344 0 is_stmt 0 discriminator 1
 2433 010e 5C45     		cmp	r4, fp
 2434 0110 9ED9     		bls	.L185
 2435              	.L184:
 2436              	.LBE31:
 360:main.c        **** 	*currentStdDevIn = currentStdDev;
 2437              		.loc 2 360 0 is_stmt 1
 2438 0112 049B     		ldr	r3, [sp, #16]
 2439 0114 C3F80090 		str	r9, [r3]	@ float
 361:main.c        **** }
 2440              		.loc 2 361 0
 2441 0118 059B     		ldr	r3, [sp, #20]
ARM GAS  C:\Users\FRANKL~1\AppData\Local\Temp\ccba5qpo.s 			page 66


 2442 011a C3F80080 		str	r8, [r3]	@ float
 362:main.c        **** 
 2443              		.loc 2 362 0
 2444 011e 09B0     		add	sp, sp, #36
 2445              		.cfi_def_cfa_offset 36
 2446              		@ sp needed
 2447 0120 BDE8F08F 		pop	{r4, r5, r6, r7, r8, r9, r10, fp, pc}
 2448              	.LVL329:
 2449              	.L190:
 2450 0124 AFF30080 		.align	3
 2451              	.L189:
 2452 0128 8DEDB5A0 		.word	-1598689907
 2453 012c F7C6B0BE 		.word	-1095710985
 2454 0130 F168E388 		.word	-1998362383
 2455 0134 B5F8E43E 		.word	1055193269
 2456 0138 00000000 		.word	Compliance_Reached
 2457 013c 00000000 		.word	.LANCHOR1
 2458 0140 0000F03F 		.word	1072693248
 2459              		.cfi_endproc
 2460              	.LFE87:
 2461              		.size	Measure_Current_Vss, .-Measure_Current_Vss
 2462              		.section	.text.At_Compliance,"ax",%progbits
 2463              		.align	2
 2464              		.global	At_Compliance
 2465              		.thumb
 2466              		.thumb_func
 2467              		.type	At_Compliance, %function
 2468              	At_Compliance:
 2469              	.LFB88:
 364:main.c        **** 	Compliance_Reached = 0;
 2470              		.loc 2 364 0
 2471              		.cfi_startproc
 2472              		@ args = 0, pretend = 0, frame = 8
 2473              		@ frame_needed = 0, uses_anonymous_args = 0
 2474 0000 00B5     		push	{lr}
 2475              		.cfi_def_cfa_offset 4
 2476              		.cfi_offset 14, -4
 2477 0002 83B0     		sub	sp, sp, #12
 2478              		.cfi_def_cfa_offset 16
 365:main.c        **** 	
 2479              		.loc 2 365 0
 2480 0004 0022     		movs	r2, #0
 2481 0006 124B     		ldr	r3, .L198+8
 2482 0008 1A70     		strb	r2, [r3]
 367:main.c        **** 	float currentSD = 0;
 2483              		.loc 2 367 0
 2484 000a 0023     		movs	r3, #0
 2485 000c 0193     		str	r3, [sp, #4]	@ float
 368:main.c        **** 	
 2486              		.loc 2 368 0
 2487 000e 02A9     		add	r1, sp, #8
 2488 0010 41F8083D 		str	r3, [r1, #-8]!	@ float
 370:main.c        **** 	
 2489              		.loc 2 370 0
 2490 0014 0322     		movs	r2, #3
 2491 0016 01A8     		add	r0, sp, #4
 2492 0018 FFF7FEFF 		bl	Measure_Current_Vss
ARM GAS  C:\Users\FRANKL~1\AppData\Local\Temp\ccba5qpo.s 			page 67


 2493              	.LVL330:
 372:main.c        **** 		Compliance_Reached = 1;
 2494              		.loc 2 372 0
 2495 001c 0198     		ldr	r0, [sp, #4]	@ float
 2496 001e FFF7FEFF 		bl	__aeabi_f2iz
 2497              	.LVL331:
 2498 0022 0028     		cmp	r0, #0
 2499 0024 B8BF     		it	lt
 2500 0026 4042     		rsblt	r0, r0, #0
 2501 0028 FFF7FEFF 		bl	__aeabi_i2d
 2502              	.LVL332:
 2503 002c 06A3     		adr	r3, .L198
 2504 002e D3E90023 		ldrd	r2, [r3]
 2505 0032 FFF7FEFF 		bl	__aeabi_dcmpgt
 2506              	.LVL333:
 2507 0036 18B1     		cbz	r0, .L196
 373:main.c        **** 		return 1;
 2508              		.loc 2 373 0
 2509 0038 0120     		movs	r0, #1
 2510 003a 054B     		ldr	r3, .L198+8
 2511 003c 1870     		strb	r0, [r3]
 374:main.c        **** 	}
 2512              		.loc 2 374 0
 2513 003e 00E0     		b	.L192
 2514              	.L196:
 377:main.c        **** }
 2515              		.loc 2 377 0
 2516 0040 0020     		movs	r0, #0
 2517              	.L192:
 378:main.c        **** 
 2518              		.loc 2 378 0
 2519 0042 03B0     		add	sp, sp, #12
 2520              		.cfi_def_cfa_offset 4
 2521              		@ sp needed
 2522 0044 5DF804FB 		ldr	pc, [sp], #4
 2523              	.L199:
 2524              		.align	3
 2525              	.L198:
 2526 0048 F168E388 		.word	-1998362383
 2527 004c B5F8E43E 		.word	1055193269
 2528 0050 00000000 		.word	Compliance_Reached
 2529              		.cfi_endproc
 2530              	.LFE88:
 2531              		.size	At_Compliance, .-At_Compliance
 2532              		.section	.text.Handle_Compliance_Breach,"ax",%progbits
 2533              		.align	2
 2534              		.global	Handle_Compliance_Breach
 2535              		.thumb
 2536              		.thumb_func
 2537              		.type	Handle_Compliance_Breach, %function
 2538              	Handle_Compliance_Breach:
 2539              	.LFB89:
 380:main.c        **** 	uint8 istart = VDAC_Vds_Data;
 2540              		.loc 2 380 0
 2541              		.cfi_startproc
 2542              		@ args = 0, pretend = 0, frame = 0
 2543              		@ frame_needed = 0, uses_anonymous_args = 0
ARM GAS  C:\Users\FRANKL~1\AppData\Local\Temp\ccba5qpo.s 			page 68


 2544 0000 70B5     		push	{r4, r5, r6, lr}
 2545              		.cfi_def_cfa_offset 16
 2546              		.cfi_offset 4, -16
 2547              		.cfi_offset 5, -12
 2548              		.cfi_offset 6, -8
 2549              		.cfi_offset 14, -4
 381:main.c        **** 	uint8 istop = VDAC_Ref_Data;
 2550              		.loc 2 381 0
 2551 0002 174B     		ldr	r3, .L211
 2552 0004 1C78     		ldrb	r4, [r3]	@ zero_extendqisi2
 2553 0006 E4B2     		uxtb	r4, r4
 2554              	.LVL334:
 382:main.c        **** 	int8 increment = 1;
 2555              		.loc 2 382 0
 2556 0008 0233     		adds	r3, r3, #2
 2557 000a 1D78     		ldrb	r5, [r3]	@ zero_extendqisi2
 2558 000c EDB2     		uxtb	r5, r5
 2559              	.LVL335:
 384:main.c        **** 	
 2560              		.loc 2 384 0
 2561 000e AC42     		cmp	r4, r5
 2562 0010 01D3     		bcc	.L208
 383:main.c        **** 	if (istart < istop) increment = -1;
 2563              		.loc 2 383 0
 2564 0012 0126     		movs	r6, #1
 2565 0014 0AE0     		b	.L202
 2566              	.L208:
 384:main.c        **** 	
 2567              		.loc 2 384 0
 2568 0016 4FF0FF36 		mov	r6, #-1
 2569              	.LVL336:
 2570              	.LBB32:
 386:main.c        **** 		VDAC_Vds_SetValue(i);
 2571              		.loc 2 386 0
 2572 001a 07E0     		b	.L202
 2573              	.LVL337:
 2574              	.L204:
 387:main.c        **** 		
 2575              		.loc 2 387 0
 2576 001c 2046     		mov	r0, r4
 2577 001e FFF7FEFF 		bl	VDAC_Vds_SetValue
 2578              	.LVL338:
 389:main.c        **** 	}
 2579              		.loc 2 389 0
 2580 0022 FFF7FEFF 		bl	At_Compliance
 2581              	.LVL339:
 2582 0026 D0B1     		cbz	r0, .L200
 386:main.c        **** 		VDAC_Vds_SetValue(i);
 2583              		.loc 2 386 0 discriminator 2
 2584 0028 3444     		add	r4, r4, r6
 2585              	.LVL340:
 2586 002a E4B2     		uxtb	r4, r4
 2587              	.LVL341:
 2588              	.L202:
 386:main.c        **** 		VDAC_Vds_SetValue(i);
 2589              		.loc 2 386 0 is_stmt 0 discriminator 1
 2590 002c AC42     		cmp	r4, r5
ARM GAS  C:\Users\FRANKL~1\AppData\Local\Temp\ccba5qpo.s 			page 69


 2591 002e F5D1     		bne	.L204
 2592              	.LBE32:
 392:main.c        **** 	istop = VDAC_Ref_Data;
 2593              		.loc 2 392 0 is_stmt 1
 2594 0030 0C4B     		ldr	r3, .L211+4
 2595 0032 1C78     		ldrb	r4, [r3]	@ zero_extendqisi2
 2596              	.LVL342:
 2597 0034 E4B2     		uxtb	r4, r4
 2598              	.LVL343:
 393:main.c        **** 	increment = 1;
 2599              		.loc 2 393 0
 2600 0036 013B     		subs	r3, r3, #1
 2601 0038 1D78     		ldrb	r5, [r3]	@ zero_extendqisi2
 2602              	.LVL344:
 2603 003a EDB2     		uxtb	r5, r5
 2604              	.LVL345:
 395:main.c        **** 	
 2605              		.loc 2 395 0
 2606 003c AC42     		cmp	r4, r5
 2607 003e 01D3     		bcc	.L209
 394:main.c        **** 	if (istart < istop) increment = -1;
 2608              		.loc 2 394 0
 2609 0040 0126     		movs	r6, #1
 2610 0042 0AE0     		b	.L206
 2611              	.L209:
 395:main.c        **** 	
 2612              		.loc 2 395 0
 2613 0044 4FF0FF36 		mov	r6, #-1
 2614              	.LVL346:
 2615              	.LBB33:
 397:main.c        **** 		VDAC_Vgs_SetValue(i);
 2616              		.loc 2 397 0
 2617 0048 07E0     		b	.L206
 2618              	.LVL347:
 2619              	.L207:
 398:main.c        **** 		
 2620              		.loc 2 398 0
 2621 004a 2046     		mov	r0, r4
 2622 004c FFF7FEFF 		bl	VDAC_Vgs_SetValue
 2623              	.LVL348:
 400:main.c        **** 	}
 2624              		.loc 2 400 0
 2625 0050 FFF7FEFF 		bl	At_Compliance
 2626              	.LVL349:
 2627 0054 18B1     		cbz	r0, .L200
 397:main.c        **** 		VDAC_Vgs_SetValue(i);
 2628              		.loc 2 397 0 discriminator 2
 2629 0056 3444     		add	r4, r4, r6
 2630              	.LVL350:
 2631 0058 E4B2     		uxtb	r4, r4
 2632              	.LVL351:
 2633              	.L206:
 397:main.c        **** 		VDAC_Vgs_SetValue(i);
 2634              		.loc 2 397 0 is_stmt 0 discriminator 1
 2635 005a AC42     		cmp	r4, r5
 2636 005c F5D1     		bne	.L207
 2637              	.LVL352:
ARM GAS  C:\Users\FRANKL~1\AppData\Local\Temp\ccba5qpo.s 			page 70


 2638              	.L200:
 2639 005e 70BD     		pop	{r4, r5, r6, pc}
 2640              	.LVL353:
 2641              	.L212:
 2642              		.align	2
 2643              	.L211:
 2644 0060 805B0040 		.word	1073765248
 2645 0064 835B0040 		.word	1073765251
 2646              	.LBE33:
 2647              		.cfi_endproc
 2648              	.LFE89:
 2649              		.size	Handle_Compliance_Breach, .-Handle_Compliance_Breach
 2650              		.section	.text.Get_Ref,"ax",%progbits
 2651              		.align	2
 2652              		.global	Get_Ref
 2653              		.thumb
 2654              		.thumb_func
 2655              		.type	Get_Ref, %function
 2656              	Get_Ref:
 2657              	.LFB90:
 407:main.c        **** 	float result = 4.080/255.0*VDAC_Ref_Data;
 2658              		.loc 2 407 0 is_stmt 1
 2659              		.cfi_startproc
 2660              		@ args = 0, pretend = 0, frame = 0
 2661              		@ frame_needed = 0, uses_anonymous_args = 0
 2662 0000 08B5     		push	{r3, lr}
 2663              		.cfi_def_cfa_offset 8
 2664              		.cfi_offset 3, -8
 2665              		.cfi_offset 14, -4
 408:main.c        **** 	if (VDAC_Ref_CR0 & (VDAC_Ref_RANGE_1V & VDAC_Ref_RANGE_MASK)) {
 2666              		.loc 2 408 0
 2667 0002 094B     		ldr	r3, .L215+8
 2668 0004 1878     		ldrb	r0, [r3]	@ zero_extendqisi2
 2669 0006 FFF7FEFF 		bl	__aeabi_i2d
 2670              	.LVL354:
 2671 000a 05A3     		adr	r3, .L215
 2672 000c D3E90023 		ldrd	r2, [r3]
 2673 0010 FFF7FEFF 		bl	__aeabi_dmul
 2674              	.LVL355:
 2675 0014 FFF7FEFF 		bl	__aeabi_d2f
 2676              	.LVL356:
 409:main.c        **** 		result = 1.020/255.0*VDAC_Ref_Data;
 2677              		.loc 2 409 0
 2678 0018 044B     		ldr	r3, .L215+12
 2679 001a 1B78     		ldrb	r3, [r3]	@ zero_extendqisi2
 413:main.c        **** 
 2680              		.loc 2 413 0
 2681 001c 08BD     		pop	{r3, pc}
 2682              	.L216:
 2683 001e 00BF     		.align	3
 2684              	.L215:
 2685 0020 FCA9F1D2 		.word	-755914244
 2686 0024 4D62903F 		.word	1066426957
 2687 0028 825B0040 		.word	1073765250
 2688 002c 28580040 		.word	1073764392
 2689              		.cfi_endproc
 2690              	.LFE90:
ARM GAS  C:\Users\FRANKL~1\AppData\Local\Temp\ccba5qpo.s 			page 71


 2691              		.size	Get_Ref, .-Get_Ref
 2692              		.section	.text.Get_Vgs,"ax",%progbits
 2693              		.align	2
 2694              		.global	Get_Vgs
 2695              		.thumb
 2696              		.thumb_func
 2697              		.type	Get_Vgs, %function
 2698              	Get_Vgs:
 2699              	.LFB91:
 416:main.c        **** 	float result = 4.080/255.0*VDAC_Vgs_Data - Get_Ref();
 2700              		.loc 2 416 0
 2701              		.cfi_startproc
 2702              		@ args = 0, pretend = 0, frame = 0
 2703              		@ frame_needed = 0, uses_anonymous_args = 0
 2704 0000 38B5     		push	{r3, r4, r5, lr}
 2705              		.cfi_def_cfa_offset 16
 2706              		.cfi_offset 3, -16
 2707              		.cfi_offset 4, -12
 2708              		.cfi_offset 5, -8
 2709              		.cfi_offset 14, -4
 417:main.c        **** 	if (VDAC_Vgs_CR0 & (VDAC_Vgs_RANGE_1V & VDAC_Vgs_RANGE_MASK)) {
 2710              		.loc 2 417 0
 2711 0002 0F4B     		ldr	r3, .L219+8
 2712 0004 1878     		ldrb	r0, [r3]	@ zero_extendqisi2
 2713 0006 FFF7FEFF 		bl	__aeabi_i2d
 2714              	.LVL357:
 2715 000a 0BA3     		adr	r3, .L219
 2716 000c D3E90023 		ldrd	r2, [r3]
 2717 0010 FFF7FEFF 		bl	__aeabi_dmul
 2718              	.LVL358:
 2719 0014 0446     		mov	r4, r0
 2720 0016 0D46     		mov	r5, r1
 2721 0018 FFF7FEFF 		bl	Get_Ref
 2722              	.LVL359:
 2723 001c FFF7FEFF 		bl	__aeabi_f2d
 2724              	.LVL360:
 2725 0020 0246     		mov	r2, r0
 2726 0022 0B46     		mov	r3, r1
 2727 0024 2046     		mov	r0, r4
 2728 0026 2946     		mov	r1, r5
 2729 0028 FFF7FEFF 		bl	__aeabi_dsub
 2730              	.LVL361:
 2731 002c FFF7FEFF 		bl	__aeabi_d2f
 2732              	.LVL362:
 418:main.c        **** 		result = 1.020/255.0*VDAC_Vgs_Data - Get_Ref();
 2733              		.loc 2 418 0
 2734 0030 044B     		ldr	r3, .L219+12
 2735 0032 1B78     		ldrb	r3, [r3]	@ zero_extendqisi2
 422:main.c        **** 
 2736              		.loc 2 422 0
 2737 0034 38BD     		pop	{r3, r4, r5, pc}
 2738              	.L220:
 2739 0036 00BF     		.align	3
 2740              	.L219:
 2741 0038 FCA9F1D2 		.word	-755914244
 2742 003c 4D62903F 		.word	1066426957
 2743 0040 835B0040 		.word	1073765251
ARM GAS  C:\Users\FRANKL~1\AppData\Local\Temp\ccba5qpo.s 			page 72


 2744 0044 2C580040 		.word	1073764396
 2745              		.cfi_endproc
 2746              	.LFE91:
 2747              		.size	Get_Vgs, .-Get_Vgs
 2748              		.section	.text.Get_Vds,"ax",%progbits
 2749              		.align	2
 2750              		.global	Get_Vds
 2751              		.thumb
 2752              		.thumb_func
 2753              		.type	Get_Vds, %function
 2754              	Get_Vds:
 2755              	.LFB92:
 425:main.c        **** 	float result = 4.080/255.0*VDAC_Vds_Data - Get_Ref();
 2756              		.loc 2 425 0
 2757              		.cfi_startproc
 2758              		@ args = 0, pretend = 0, frame = 0
 2759              		@ frame_needed = 0, uses_anonymous_args = 0
 2760 0000 38B5     		push	{r3, r4, r5, lr}
 2761              		.cfi_def_cfa_offset 16
 2762              		.cfi_offset 3, -16
 2763              		.cfi_offset 4, -12
 2764              		.cfi_offset 5, -8
 2765              		.cfi_offset 14, -4
 426:main.c        **** 	if (VDAC_Vds_CR0 & (VDAC_Vds_RANGE_1V & VDAC_Vds_RANGE_MASK)) {
 2766              		.loc 2 426 0
 2767 0002 0F4B     		ldr	r3, .L223+8
 2768 0004 1878     		ldrb	r0, [r3]	@ zero_extendqisi2
 2769 0006 FFF7FEFF 		bl	__aeabi_i2d
 2770              	.LVL363:
 2771 000a 0BA3     		adr	r3, .L223
 2772 000c D3E90023 		ldrd	r2, [r3]
 2773 0010 FFF7FEFF 		bl	__aeabi_dmul
 2774              	.LVL364:
 2775 0014 0446     		mov	r4, r0
 2776 0016 0D46     		mov	r5, r1
 2777 0018 FFF7FEFF 		bl	Get_Ref
 2778              	.LVL365:
 2779 001c FFF7FEFF 		bl	__aeabi_f2d
 2780              	.LVL366:
 2781 0020 0246     		mov	r2, r0
 2782 0022 0B46     		mov	r3, r1
 2783 0024 2046     		mov	r0, r4
 2784 0026 2946     		mov	r1, r5
 2785 0028 FFF7FEFF 		bl	__aeabi_dsub
 2786              	.LVL367:
 2787 002c FFF7FEFF 		bl	__aeabi_d2f
 2788              	.LVL368:
 427:main.c        **** 		result = 1.020/255.0*VDAC_Vds_Data - Get_Ref();
 2789              		.loc 2 427 0
 2790 0030 044B     		ldr	r3, .L223+12
 2791 0032 1B78     		ldrb	r3, [r3]	@ zero_extendqisi2
 431:main.c        **** 
 2792              		.loc 2 431 0
 2793 0034 38BD     		pop	{r3, r4, r5, pc}
 2794              	.L224:
 2795 0036 00BF     		.align	3
 2796              	.L223:
ARM GAS  C:\Users\FRANKL~1\AppData\Local\Temp\ccba5qpo.s 			page 73


 2797 0038 FCA9F1D2 		.word	-755914244
 2798 003c 4D62903F 		.word	1066426957
 2799 0040 805B0040 		.word	1073765248
 2800 0044 20580040 		.word	1073764384
 2801              		.cfi_endproc
 2802              	.LFE92:
 2803              		.size	Get_Vds, .-Get_Vds
 2804              		.section	.text.Set_Vds_Raw,"ax",%progbits
 2805              		.align	2
 2806              		.global	Set_Vds_Raw
 2807              		.thumb
 2808              		.thumb_func
 2809              		.type	Set_Vds_Raw, %function
 2810              	Set_Vds_Raw:
 2811              	.LFB93:
 436:main.c        **** 	Vds_Index_Goal_Relative = (int16)value - (int16)VDAC_Ref_Data;
 2812              		.loc 2 436 0
 2813              		.cfi_startproc
 2814              		@ args = 0, pretend = 0, frame = 0
 2815              		@ frame_needed = 0, uses_anonymous_args = 0
 2816              	.LVL369:
 2817 0000 2DE9F041 		push	{r4, r5, r6, r7, r8, lr}
 2818              		.cfi_def_cfa_offset 24
 2819              		.cfi_offset 4, -24
 2820              		.cfi_offset 5, -20
 2821              		.cfi_offset 6, -16
 2822              		.cfi_offset 7, -12
 2823              		.cfi_offset 8, -8
 2824              		.cfi_offset 14, -4
 2825 0004 8046     		mov	r8, r0
 437:main.c        **** 	
 2826              		.loc 2 437 0
 2827 0006 184B     		ldr	r3, .L236
 2828 0008 1B78     		ldrb	r3, [r3]	@ zero_extendqisi2
 2829 000a C31A     		subs	r3, r0, r3
 2830 000c 174A     		ldr	r2, .L236+4
 2831 000e 1380     		strh	r3, [r2]	@ movhi
 439:main.c        **** 	int8 increment = 1;
 2832              		.loc 2 439 0
 2833 0010 174B     		ldr	r3, .L236+8
 2834 0012 1D78     		ldrb	r5, [r3]	@ zero_extendqisi2
 2835 0014 EDB2     		uxtb	r5, r5
 2836              	.LVL370:
 441:main.c        **** 	
 2837              		.loc 2 441 0
 2838 0016 A842     		cmp	r0, r5
 2839 0018 01D3     		bcc	.L233
 440:main.c        **** 	if (istart > value) increment = -1;
 2840              		.loc 2 440 0
 2841 001a 0126     		movs	r6, #1
 2842 001c 01E0     		b	.L226
 2843              	.L233:
 441:main.c        **** 	
 2844              		.loc 2 441 0
 2845 001e 4FF0FF36 		mov	r6, #-1
 2846              	.L226:
 2847              	.LVL371:
ARM GAS  C:\Users\FRANKL~1\AppData\Local\Temp\ccba5qpo.s 			page 74


 2848              	.LBB34:
 443:main.c        **** 		if (At_Compliance()) {
 2849              		.loc 2 443 0
 2850 0022 0027     		movs	r7, #0
 2851 0024 1BE0     		b	.L227
 2852              	.LVL372:
 2853              	.L232:
 444:main.c        **** 			for (uint8 j = i; j != istart; j -= increment) {
 2854              		.loc 2 444 0
 2855 0026 FFF7FEFF 		bl	At_Compliance
 2856              	.LVL373:
 2857 002a 48B9     		cbnz	r0, .L234
 2858 002c 12E0     		b	.L229
 2859              	.LVL374:
 2860              	.L231:
 2861              	.LBB35:
 446:main.c        **** 				
 2862              		.loc 2 446 0
 2863 002e 2046     		mov	r0, r4
 2864 0030 FFF7FEFF 		bl	VDAC_Vds_SetValue
 2865              	.LVL375:
 448:main.c        **** 			}
 2866              		.loc 2 448 0
 2867 0034 FFF7FEFF 		bl	At_Compliance
 2868              	.LVL376:
 2869 0038 98B1     		cbz	r0, .L225
 445:main.c        **** 				VDAC_Vds_SetValue(j);
 2870              		.loc 2 445 0 discriminator 2
 2871 003a A41B     		subs	r4, r4, r6
 2872              	.LVL377:
 2873 003c E4B2     		uxtb	r4, r4
 2874              	.LVL378:
 2875 003e 00E0     		b	.L228
 2876              	.LVL379:
 2877              	.L234:
 2878              	.LBE35:
 2879 0040 3C46     		mov	r4, r7
 2880              	.L228:
 2881              	.LVL380:
 2882              	.LBB36:
 445:main.c        **** 				VDAC_Vds_SetValue(j);
 2883              		.loc 2 445 0 is_stmt 0 discriminator 1
 2884 0042 AC42     		cmp	r4, r5
 2885 0044 F3D1     		bne	.L231
 2886              	.LBE36:
 450:main.c        **** 				Handle_Compliance_Breach();
 2887              		.loc 2 450 0 is_stmt 1
 2888 0046 FFF7FEFF 		bl	At_Compliance
 2889              	.LVL381:
 2890 004a 18B1     		cbz	r0, .L229
 451:main.c        **** 				return;
 2891              		.loc 2 451 0
 2892 004c FFF7FEFF 		bl	Handle_Compliance_Breach
 2893              	.LVL382:
 452:main.c        **** 			}
 2894              		.loc 2 452 0
 2895 0050 BDE8F081 		pop	{r4, r5, r6, r7, r8, pc}
ARM GAS  C:\Users\FRANKL~1\AppData\Local\Temp\ccba5qpo.s 			page 75


 2896              	.LVL383:
 2897              	.L229:
 456:main.c        **** 	}
 2898              		.loc 2 456 0 discriminator 2
 2899 0054 3846     		mov	r0, r7
 2900 0056 FFF7FEFF 		bl	VDAC_Vds_SetValue
 2901              	.LVL384:
 443:main.c        **** 		if (At_Compliance()) {
 2902              		.loc 2 443 0 discriminator 2
 2903 005a 3744     		add	r7, r7, r6
 2904              	.LVL385:
 2905 005c FFB2     		uxtb	r7, r7
 2906              	.LVL386:
 2907              	.L227:
 443:main.c        **** 		if (At_Compliance()) {
 2908              		.loc 2 443 0 is_stmt 0 discriminator 1
 2909 005e 4745     		cmp	r7, r8
 2910 0060 E1D1     		bne	.L232
 2911              	.L225:
 2912 0062 BDE8F081 		pop	{r4, r5, r6, r7, r8, pc}
 2913              	.LVL387:
 2914              	.L237:
 2915 0066 00BF     		.align	2
 2916              	.L236:
 2917 0068 825B0040 		.word	1073765250
 2918 006c 00000000 		.word	Vds_Index_Goal_Relative
 2919 0070 805B0040 		.word	1073765248
 2920              	.LBE34:
 2921              		.cfi_endproc
 2922              	.LFE93:
 2923              		.size	Set_Vds_Raw, .-Set_Vds_Raw
 2924              		.section	.text.Set_Vgs_Raw,"ax",%progbits
 2925              		.align	2
 2926              		.global	Set_Vgs_Raw
 2927              		.thumb
 2928              		.thumb_func
 2929              		.type	Set_Vgs_Raw, %function
 2930              	Set_Vgs_Raw:
 2931              	.LFB94:
 461:main.c        **** 	Vgs_Index_Goal_Relative = (int16)value - (int16)VDAC_Ref_Data;
 2932              		.loc 2 461 0 is_stmt 1
 2933              		.cfi_startproc
 2934              		@ args = 0, pretend = 0, frame = 0
 2935              		@ frame_needed = 0, uses_anonymous_args = 0
 2936              	.LVL388:
 2937 0000 2DE9F041 		push	{r4, r5, r6, r7, r8, lr}
 2938              		.cfi_def_cfa_offset 24
 2939              		.cfi_offset 4, -24
 2940              		.cfi_offset 5, -20
 2941              		.cfi_offset 6, -16
 2942              		.cfi_offset 7, -12
 2943              		.cfi_offset 8, -8
 2944              		.cfi_offset 14, -4
 2945 0004 8046     		mov	r8, r0
 462:main.c        **** 	
 2946              		.loc 2 462 0
 2947 0006 184B     		ldr	r3, .L249
ARM GAS  C:\Users\FRANKL~1\AppData\Local\Temp\ccba5qpo.s 			page 76


 2948 0008 1B78     		ldrb	r3, [r3]	@ zero_extendqisi2
 2949 000a C31A     		subs	r3, r0, r3
 2950 000c 174A     		ldr	r2, .L249+4
 2951 000e 1380     		strh	r3, [r2]	@ movhi
 2952              	.LVL389:
 465:main.c        **** 	if (value < istart) increment = -1;
 2953              		.loc 2 465 0
 2954 0010 174B     		ldr	r3, .L249+8
 2955 0012 1D78     		ldrb	r5, [r3]	@ zero_extendqisi2
 2956 0014 EDB2     		uxtb	r5, r5
 2957              	.LVL390:
 466:main.c        **** 	
 2958              		.loc 2 466 0
 2959 0016 A842     		cmp	r0, r5
 2960 0018 01D3     		bcc	.L246
 464:main.c        **** 	uint8 istart = VDAC_Vgs_Data;
 2961              		.loc 2 464 0
 2962 001a 0126     		movs	r6, #1
 2963 001c 01E0     		b	.L239
 2964              	.L246:
 466:main.c        **** 	
 2965              		.loc 2 466 0
 2966 001e 4FF0FF36 		mov	r6, #-1
 2967              	.L239:
 2968              	.LVL391:
 2969              	.LBB37:
 468:main.c        **** 		if (At_Compliance()) {
 2970              		.loc 2 468 0
 2971 0022 2F46     		mov	r7, r5
 2972 0024 1BE0     		b	.L240
 2973              	.LVL392:
 2974              	.L245:
 469:main.c        **** 			for (uint8 j = i; j != istart; j -= increment) {
 2975              		.loc 2 469 0
 2976 0026 FFF7FEFF 		bl	At_Compliance
 2977              	.LVL393:
 2978 002a 48B9     		cbnz	r0, .L247
 2979 002c 12E0     		b	.L242
 2980              	.LVL394:
 2981              	.L244:
 2982              	.LBB38:
 471:main.c        **** 				
 2983              		.loc 2 471 0
 2984 002e 2046     		mov	r0, r4
 2985 0030 FFF7FEFF 		bl	VDAC_Vgs_SetValue
 2986              	.LVL395:
 473:main.c        **** 			}
 2987              		.loc 2 473 0
 2988 0034 FFF7FEFF 		bl	At_Compliance
 2989              	.LVL396:
 2990 0038 98B1     		cbz	r0, .L238
 470:main.c        **** 				VDAC_Vgs_SetValue(j);
 2991              		.loc 2 470 0 discriminator 2
 2992 003a A41B     		subs	r4, r4, r6
 2993              	.LVL397:
 2994 003c E4B2     		uxtb	r4, r4
 2995              	.LVL398:
ARM GAS  C:\Users\FRANKL~1\AppData\Local\Temp\ccba5qpo.s 			page 77


 2996 003e 00E0     		b	.L241
 2997              	.LVL399:
 2998              	.L247:
 2999              	.LBE38:
 3000 0040 3C46     		mov	r4, r7
 3001              	.L241:
 3002              	.LVL400:
 3003              	.LBB39:
 470:main.c        **** 				VDAC_Vgs_SetValue(j);
 3004              		.loc 2 470 0 is_stmt 0 discriminator 1
 3005 0042 AC42     		cmp	r4, r5
 3006 0044 F3D1     		bne	.L244
 3007              	.LBE39:
 475:main.c        **** 				Handle_Compliance_Breach();
 3008              		.loc 2 475 0 is_stmt 1
 3009 0046 FFF7FEFF 		bl	At_Compliance
 3010              	.LVL401:
 3011 004a 18B1     		cbz	r0, .L242
 476:main.c        **** 				return;
 3012              		.loc 2 476 0
 3013 004c FFF7FEFF 		bl	Handle_Compliance_Breach
 3014              	.LVL402:
 477:main.c        **** 			}
 3015              		.loc 2 477 0
 3016 0050 BDE8F081 		pop	{r4, r5, r6, r7, r8, pc}
 3017              	.LVL403:
 3018              	.L242:
 481:main.c        **** 	}
 3019              		.loc 2 481 0 discriminator 2
 3020 0054 3846     		mov	r0, r7
 3021 0056 FFF7FEFF 		bl	VDAC_Vgs_SetValue
 3022              	.LVL404:
 468:main.c        **** 		if (At_Compliance()) {
 3023              		.loc 2 468 0 discriminator 2
 3024 005a 3744     		add	r7, r7, r6
 3025              	.LVL405:
 3026 005c FFB2     		uxtb	r7, r7
 3027              	.LVL406:
 3028              	.L240:
 468:main.c        **** 		if (At_Compliance()) {
 3029              		.loc 2 468 0 is_stmt 0 discriminator 1
 3030 005e 4745     		cmp	r7, r8
 3031 0060 E1D1     		bne	.L245
 3032              	.L238:
 3033 0062 BDE8F081 		pop	{r4, r5, r6, r7, r8, pc}
 3034              	.LVL407:
 3035              	.L250:
 3036 0066 00BF     		.align	2
 3037              	.L249:
 3038 0068 825B0040 		.word	1073765250
 3039 006c 00000000 		.word	Vgs_Index_Goal_Relative
 3040 0070 835B0040 		.word	1073765251
 3041              	.LBE37:
 3042              		.cfi_endproc
 3043              	.LFE94:
 3044              		.size	Set_Vgs_Raw, .-Set_Vgs_Raw
 3045              		.section	.text.Set_Ref_Raw,"ax",%progbits
ARM GAS  C:\Users\FRANKL~1\AppData\Local\Temp\ccba5qpo.s 			page 78


 3046              		.align	2
 3047              		.global	Set_Ref_Raw
 3048              		.thumb
 3049              		.thumb_func
 3050              		.type	Set_Ref_Raw, %function
 3051              	Set_Ref_Raw:
 3052              	.LFB95:
 486:main.c        **** 	if (value < 6) value = 6;
 3053              		.loc 2 486 0 is_stmt 1
 3054              		.cfi_startproc
 3055              		@ args = 0, pretend = 0, frame = 0
 3056              		@ frame_needed = 0, uses_anonymous_args = 0
 3057              	.LVL408:
 3058 0000 2DE9F041 		push	{r4, r5, r6, r7, r8, lr}
 3059              		.cfi_def_cfa_offset 24
 3060              		.cfi_offset 4, -24
 3061              		.cfi_offset 5, -20
 3062              		.cfi_offset 6, -16
 3063              		.cfi_offset 7, -12
 3064              		.cfi_offset 8, -8
 3065              		.cfi_offset 14, -4
 3066 0004 0746     		mov	r7, r0
 487:main.c        **** 	
 3067              		.loc 2 487 0
 3068 0006 0528     		cmp	r0, #5
 3069 0008 00D8     		bhi	.L252
 3070 000a 0627     		movs	r7, #6
 3071              	.L252:
 3072              	.LVL409:
 490:main.c        **** 	
 3073              		.loc 2 490 0
 3074 000c 1A4B     		ldr	r3, .L268
 3075 000e 1B78     		ldrb	r3, [r3]	@ zero_extendqisi2
 3076 0010 DBB2     		uxtb	r3, r3
 3077 0012 9F42     		cmp	r7, r3
 3078 0014 02D3     		bcc	.L262
 489:main.c        **** 	if (value < VDAC_Ref_Data) increment = -1;
 3079              		.loc 2 489 0
 3080 0016 4FF00108 		mov	r8, #1
 3081 001a 01E0     		b	.L253
 3082              	.L262:
 490:main.c        **** 	
 3083              		.loc 2 490 0
 3084 001c 4FF0FF38 		mov	r8, #-1
 3085              	.L253:
 3086              	.LVL410:
 3087              	.LBB40:
 492:main.c        **** 		
 3088              		.loc 2 492 0
 3089 0020 154B     		ldr	r3, .L268
 3090 0022 1E78     		ldrb	r6, [r3]	@ zero_extendqisi2
 3091 0024 F6B2     		uxtb	r6, r6
 3092              	.LVL411:
 3093 0026 22E0     		b	.L254
 3094              	.L260:
 3095              	.LBB41:
 494:main.c        **** 		
ARM GAS  C:\Users\FRANKL~1\AppData\Local\Temp\ccba5qpo.s 			page 79


 3096              		.loc 2 494 0
 3097 0028 FFF7FEFF 		bl	At_Compliance
 3098              	.LVL412:
 3099 002c 08BB     		cbnz	r0, .L251
 496:main.c        **** 		int16 new_Vds = (int16)i + Vds_Index_Goal_Relative;
 3100              		.loc 2 496 0
 3101 002e B4B2     		uxth	r4, r6
 3102 0030 124B     		ldr	r3, .L268+4
 3103 0032 1D88     		ldrh	r5, [r3]
 3104 0034 2544     		add	r5, r5, r4
 3105 0036 2DB2     		sxth	r5, r5
 3106              	.LVL413:
 497:main.c        **** 		
 3107              		.loc 2 497 0
 3108 0038 114B     		ldr	r3, .L268+8
 3109 003a 1B88     		ldrh	r3, [r3]
 3110 003c 1C44     		add	r4, r4, r3
 3111 003e 24B2     		sxth	r4, r4
 3112              	.LVL414:
 499:main.c        **** 		if (new_Vds > 255) new_Vds = 255;
 3113              		.loc 2 499 0
 3114 0040 FF2D     		cmp	r5, #255
 3115 0042 00DD     		ble	.L256
 3116 0044 FF25     		movs	r5, #255
 3117              	.LVL415:
 3118              	.L256:
 500:main.c        **** 		
 3119              		.loc 2 500 0
 3120 0046 FF2C     		cmp	r4, #255
 3121 0048 00DD     		ble	.L257
 3122 004a FF24     		movs	r4, #255
 3123              	.LVL416:
 3124              	.L257:
 502:main.c        **** 		if (new_Vds < 0) new_Vds = 0;
 3125              		.loc 2 502 0
 3126 004c 002D     		cmp	r5, #0
 3127 004e 00DA     		bge	.L258
 3128 0050 0025     		movs	r5, #0
 3129              	.LVL417:
 3130              	.L258:
 503:main.c        **** 		
 3131              		.loc 2 503 0
 3132 0052 002C     		cmp	r4, #0
 3133 0054 00DA     		bge	.L259
 3134 0056 0024     		movs	r4, #0
 3135              	.LVL418:
 3136              	.L259:
 505:main.c        **** 		VDAC_Vgs_SetValue(new_Vgs);
 3137              		.loc 2 505 0 discriminator 2
 3138 0058 3046     		mov	r0, r6
 3139 005a FFF7FEFF 		bl	VDAC_Ref_SetValue
 3140              	.LVL419:
 506:main.c        **** 		VDAC_Vds_SetValue(new_Vds);
 3141              		.loc 2 506 0 discriminator 2
 3142 005e E8B2     		uxtb	r0, r5
 3143 0060 FFF7FEFF 		bl	VDAC_Vgs_SetValue
 3144              	.LVL420:
ARM GAS  C:\Users\FRANKL~1\AppData\Local\Temp\ccba5qpo.s 			page 80


 507:main.c        **** 	}
 3145              		.loc 2 507 0 discriminator 2
 3146 0064 E0B2     		uxtb	r0, r4
 3147 0066 FFF7FEFF 		bl	VDAC_Vds_SetValue
 3148              	.LVL421:
 3149              	.LBE41:
 492:main.c        **** 		
 3150              		.loc 2 492 0 discriminator 2
 3151 006a 4644     		add	r6, r6, r8
 3152              	.LVL422:
 3153 006c F6B2     		uxtb	r6, r6
 3154              	.LVL423:
 3155              	.L254:
 492:main.c        **** 		
 3156              		.loc 2 492 0 is_stmt 0 discriminator 1
 3157 006e B742     		cmp	r7, r6
 3158 0070 DAD1     		bne	.L260
 3159              	.L251:
 3160 0072 BDE8F081 		pop	{r4, r5, r6, r7, r8, pc}
 3161              	.LVL424:
 3162              	.L269:
 3163 0076 00BF     		.align	2
 3164              	.L268:
 3165 0078 825B0040 		.word	1073765250
 3166 007c 00000000 		.word	Vgs_Index_Goal_Relative
 3167 0080 00000000 		.word	Vds_Index_Goal_Relative
 3168              	.LBE40:
 3169              		.cfi_endproc
 3170              	.LFE95:
 3171              		.size	Set_Ref_Raw, .-Set_Ref_Raw
 3172              		.section	.text.Set_Vds_Rel,"ax",%progbits
 3173              		.align	2
 3174              		.global	Set_Vds_Rel
 3175              		.thumb
 3176              		.thumb_func
 3177              		.type	Set_Vds_Rel, %function
 3178              	Set_Vds_Rel:
 3179              	.LFB96:
 513:main.c        **** 	if (value > 255) value = 255;
 3180              		.loc 2 513 0 is_stmt 1
 3181              		.cfi_startproc
 3182              		@ args = 0, pretend = 0, frame = 0
 3183              		@ frame_needed = 0, uses_anonymous_args = 0
 3184              	.LVL425:
 3185 0000 70B5     		push	{r4, r5, r6, lr}
 3186              		.cfi_def_cfa_offset 16
 3187              		.cfi_offset 4, -16
 3188              		.cfi_offset 5, -12
 3189              		.cfi_offset 6, -8
 3190              		.cfi_offset 14, -4
 3191 0002 0446     		mov	r4, r0
 514:main.c        **** 	if (value < -255) value = -255;
 3192              		.loc 2 514 0
 3193 0004 FF28     		cmp	r0, #255
 3194 0006 00DD     		ble	.L271
 3195 0008 FF24     		movs	r4, #255
 3196              	.L271:
ARM GAS  C:\Users\FRANKL~1\AppData\Local\Temp\ccba5qpo.s 			page 81


 3197              	.LVL426:
 515:main.c        **** 	
 3198              		.loc 2 515 0
 3199 000a 14F1FF0F 		cmn	r4, #255
 3200 000e 01DA     		bge	.L272
 3201 0010 6FF0FE04 		mvn	r4, #254
 3202              	.LVL427:
 3203              	.L272:
 517:main.c        **** 	
 3204              		.loc 2 517 0
 3205 0014 294B     		ldr	r3, .L291
 3206 0016 1878     		ldrb	r0, [r3]	@ zero_extendqisi2
 3207 0018 A5B2     		uxth	r5, r4
 3208 001a 2844     		add	r0, r0, r5
 3209 001c 80B2     		uxth	r0, r0
 3210 001e 03B2     		sxth	r3, r0
 3211              	.LVL428:
 519:main.c        **** 		Set_Ref_Raw(VDAC_Ref_Data - (absolute - 255));
 3212              		.loc 2 519 0
 3213 0020 FF2B     		cmp	r3, #255
 3214 0022 0ADD     		ble	.L273
 520:main.c        **** 		Set_Vds_Raw(255);
 3215              		.loc 2 520 0
 3216 0024 254B     		ldr	r3, .L291
 3217              	.LVL429:
 3218 0026 1B78     		ldrb	r3, [r3]	@ zero_extendqisi2
 3219 0028 181A     		subs	r0, r3, r0
 3220              	.LVL430:
 3221 002a 0138     		subs	r0, r0, #1
 3222 002c C0B2     		uxtb	r0, r0
 3223 002e FFF7FEFF 		bl	Set_Ref_Raw
 3224              	.LVL431:
 521:main.c        **** 	} else if (absolute < 0) {
 3225              		.loc 2 521 0
 3226 0032 FF20     		movs	r0, #255
 3227 0034 FFF7FEFF 		bl	Set_Vds_Raw
 3228              	.LVL432:
 3229 0038 0EE0     		b	.L274
 3230              	.LVL433:
 3231              	.L273:
 522:main.c        **** 		Set_Ref_Raw(VDAC_Ref_Data - absolute);
 3232              		.loc 2 522 0
 3233 003a 002B     		cmp	r3, #0
 3234 003c 09DA     		bge	.L275
 523:main.c        **** 		Set_Vds_Raw(0);
 3235              		.loc 2 523 0
 3236 003e 1F4B     		ldr	r3, .L291
 3237              	.LVL434:
 3238 0040 1B78     		ldrb	r3, [r3]	@ zero_extendqisi2
 3239 0042 181A     		subs	r0, r3, r0
 3240              	.LVL435:
 3241 0044 C0B2     		uxtb	r0, r0
 3242 0046 FFF7FEFF 		bl	Set_Ref_Raw
 3243              	.LVL436:
 524:main.c        **** 	} else {
 3244              		.loc 2 524 0
 3245 004a 0020     		movs	r0, #0
ARM GAS  C:\Users\FRANKL~1\AppData\Local\Temp\ccba5qpo.s 			page 82


 3246 004c FFF7FEFF 		bl	Set_Vds_Raw
 3247              	.LVL437:
 3248 0050 02E0     		b	.L274
 3249              	.LVL438:
 3250              	.L275:
 526:main.c        **** 	}
 3251              		.loc 2 526 0
 3252 0052 C0B2     		uxtb	r0, r0
 3253 0054 FFF7FEFF 		bl	Set_Vds_Raw
 3254              	.LVL439:
 3255              	.L274:
 529:main.c        **** 	
 3256              		.loc 2 529 0
 3257 0058 194B     		ldr	r3, .L291+4
 3258 005a 1C80     		strh	r4, [r3]	@ movhi
 531:main.c        **** 	uint16 Vds_maxRefRaw = Vds_Index_Goal_Relative > 0? 255 - Vds_Index_Goal_Relative: 255;
 3259              		.loc 2 531 0
 3260 005c 002C     		cmp	r4, #0
 3261 005e 02DC     		bgt	.L286
 531:main.c        **** 	uint16 Vds_maxRefRaw = Vds_Index_Goal_Relative > 0? 255 - Vds_Index_Goal_Relative: 255;
 3262              		.loc 2 531 0 is_stmt 0 discriminator 1
 3263 0060 6E42     		negs	r6, r5
 3264 0062 B6B2     		uxth	r6, r6
 3265 0064 00E0     		b	.L276
 3266              	.L286:
 531:main.c        **** 	uint16 Vds_maxRefRaw = Vds_Index_Goal_Relative > 0? 255 - Vds_Index_Goal_Relative: 255;
 3267              		.loc 2 531 0
 3268 0066 0026     		movs	r6, #0
 3269              	.L276:
 3270              	.LVL440:
 532:main.c        **** 	uint16 Vgs_minRefRaw = Vgs_Index_Goal_Relative > 0? 0: -Vgs_Index_Goal_Relative;
 3271              		.loc 2 532 0 is_stmt 1 discriminator 4
 3272 0068 002C     		cmp	r4, #0
 3273 006a 03DD     		ble	.L287
 532:main.c        **** 	uint16 Vgs_minRefRaw = Vgs_Index_Goal_Relative > 0? 0: -Vgs_Index_Goal_Relative;
 3274              		.loc 2 532 0 is_stmt 0 discriminator 1
 3275 006c C5F1FF00 		rsb	r0, r5, #255
 3276 0070 80B2     		uxth	r0, r0
 3277 0072 00E0     		b	.L277
 3278              	.L287:
 532:main.c        **** 	uint16 Vgs_minRefRaw = Vgs_Index_Goal_Relative > 0? 0: -Vgs_Index_Goal_Relative;
 3279              		.loc 2 532 0
 3280 0074 FF20     		movs	r0, #255
 3281              	.L277:
 3282              	.LVL441:
 533:main.c        **** 	uint16 Vgs_maxRefRaw = Vgs_Index_Goal_Relative > 0? 255 - Vgs_Index_Goal_Relative: 255;
 3283              		.loc 2 533 0 is_stmt 1 discriminator 4
 3284 0076 134B     		ldr	r3, .L291+8
 3285 0078 B3F90030 		ldrsh	r3, [r3]
 3286 007c 002B     		cmp	r3, #0
 3287 007e 02DC     		bgt	.L288
 533:main.c        **** 	uint16 Vgs_maxRefRaw = Vgs_Index_Goal_Relative > 0? 255 - Vgs_Index_Goal_Relative: 255;
 3288              		.loc 2 533 0 is_stmt 0 discriminator 1
 3289 0080 5A42     		negs	r2, r3
 3290 0082 92B2     		uxth	r2, r2
 3291 0084 00E0     		b	.L278
 3292              	.L288:
ARM GAS  C:\Users\FRANKL~1\AppData\Local\Temp\ccba5qpo.s 			page 83


 533:main.c        **** 	uint16 Vgs_maxRefRaw = Vgs_Index_Goal_Relative > 0? 255 - Vgs_Index_Goal_Relative: 255;
 3293              		.loc 2 533 0
 3294 0086 0022     		movs	r2, #0
 3295              	.L278:
 3296              	.LVL442:
 534:main.c        **** 	
 3297              		.loc 2 534 0 is_stmt 1 discriminator 4
 3298 0088 002B     		cmp	r3, #0
 3299 008a 03DD     		ble	.L289
 534:main.c        **** 	
 3300              		.loc 2 534 0 is_stmt 0 discriminator 1
 3301 008c C3F1FF03 		rsb	r3, r3, #255
 3302 0090 9BB2     		uxth	r3, r3
 3303 0092 00E0     		b	.L279
 3304              	.L289:
 534:main.c        **** 	
 3305              		.loc 2 534 0
 3306 0094 FF23     		movs	r3, #255
 3307              	.L279:
 3308              	.LVL443:
 536:main.c        **** 	
 3309              		.loc 2 536 0 is_stmt 1 discriminator 4
 3310 0096 0949     		ldr	r1, .L291
 3311 0098 0978     		ldrb	r1, [r1]	@ zero_extendqisi2
 3312              	.LVL444:
 538:main.c        **** 	if (newRefRaw > Vgs_maxRefRaw) newRefRaw = Vgs_maxRefRaw;
 3313              		.loc 2 538 0 discriminator 4
 3314 009a 8A42     		cmp	r2, r1
 3315 009c 00D8     		bhi	.L280
 536:main.c        **** 	
 3316              		.loc 2 536 0
 3317 009e 0A46     		mov	r2, r1
 3318              	.LVL445:
 3319              	.L280:
 539:main.c        **** 	if (newRefRaw < Vds_minRefRaw) newRefRaw = Vds_minRefRaw;
 3320              		.loc 2 539 0
 3321 00a0 9A42     		cmp	r2, r3
 3322 00a2 00D8     		bhi	.L281
 3323 00a4 1346     		mov	r3, r2
 3324              	.LVL446:
 3325              	.L281:
 540:main.c        **** 	if (newRefRaw > Vds_maxRefRaw) newRefRaw = Vds_maxRefRaw;
 3326              		.loc 2 540 0
 3327 00a6 B342     		cmp	r3, r6
 3328 00a8 00D3     		bcc	.L282
 3329 00aa 1E46     		mov	r6, r3
 3330              	.LVL447:
 3331              	.L282:
 541:main.c        **** 	
 3332              		.loc 2 541 0
 3333 00ac 8642     		cmp	r6, r0
 3334 00ae 00D8     		bhi	.L283
 3335 00b0 3046     		mov	r0, r6
 3336              	.LVL448:
 3337              	.L283:
 543:main.c        **** }
 3338              		.loc 2 543 0
ARM GAS  C:\Users\FRANKL~1\AppData\Local\Temp\ccba5qpo.s 			page 84


 3339 00b2 C0B2     		uxtb	r0, r0
 3340              	.LVL449:
 3341 00b4 FFF7FEFF 		bl	Set_Ref_Raw
 3342              	.LVL450:
 3343 00b8 70BD     		pop	{r4, r5, r6, pc}
 3344              	.LVL451:
 3345              	.L292:
 3346 00ba 00BF     		.align	2
 3347              	.L291:
 3348 00bc 825B0040 		.word	1073765250
 3349 00c0 00000000 		.word	Vds_Index_Goal_Relative
 3350 00c4 00000000 		.word	Vgs_Index_Goal_Relative
 3351              		.cfi_endproc
 3352              	.LFE96:
 3353              		.size	Set_Vds_Rel, .-Set_Vds_Rel
 3354              		.section	.text.Set_Vgs_Rel,"ax",%progbits
 3355              		.align	2
 3356              		.global	Set_Vgs_Rel
 3357              		.thumb
 3358              		.thumb_func
 3359              		.type	Set_Vgs_Rel, %function
 3360              	Set_Vgs_Rel:
 3361              	.LFB97:
 547:main.c        **** 	if (value > 255) value = 255;
 3362              		.loc 2 547 0
 3363              		.cfi_startproc
 3364              		@ args = 0, pretend = 0, frame = 0
 3365              		@ frame_needed = 0, uses_anonymous_args = 0
 3366              	.LVL452:
 3367 0000 70B5     		push	{r4, r5, r6, lr}
 3368              		.cfi_def_cfa_offset 16
 3369              		.cfi_offset 4, -16
 3370              		.cfi_offset 5, -12
 3371              		.cfi_offset 6, -8
 3372              		.cfi_offset 14, -4
 3373 0002 0446     		mov	r4, r0
 548:main.c        **** 	if (value < -255) value = -255;
 3374              		.loc 2 548 0
 3375 0004 FF28     		cmp	r0, #255
 3376 0006 00DD     		ble	.L294
 3377 0008 FF24     		movs	r4, #255
 3378              	.L294:
 3379              	.LVL453:
 549:main.c        **** 	
 3380              		.loc 2 549 0
 3381 000a 14F1FF0F 		cmn	r4, #255
 3382 000e 01DA     		bge	.L295
 3383 0010 6FF0FE04 		mvn	r4, #254
 3384              	.LVL454:
 3385              	.L295:
 551:main.c        **** 	
 3386              		.loc 2 551 0
 3387 0014 294B     		ldr	r3, .L314
 3388 0016 1878     		ldrb	r0, [r3]	@ zero_extendqisi2
 3389 0018 A5B2     		uxth	r5, r4
 3390 001a 2844     		add	r0, r0, r5
 3391 001c 80B2     		uxth	r0, r0
ARM GAS  C:\Users\FRANKL~1\AppData\Local\Temp\ccba5qpo.s 			page 85


 3392 001e 03B2     		sxth	r3, r0
 3393              	.LVL455:
 553:main.c        **** 		Set_Ref_Raw(VDAC_Ref_Data - (absolute - 255));
 3394              		.loc 2 553 0
 3395 0020 FF2B     		cmp	r3, #255
 3396 0022 0ADD     		ble	.L296
 554:main.c        **** 		Set_Vgs_Raw(255);
 3397              		.loc 2 554 0
 3398 0024 254B     		ldr	r3, .L314
 3399              	.LVL456:
 3400 0026 1B78     		ldrb	r3, [r3]	@ zero_extendqisi2
 3401 0028 181A     		subs	r0, r3, r0
 3402              	.LVL457:
 3403 002a 0138     		subs	r0, r0, #1
 3404 002c C0B2     		uxtb	r0, r0
 3405 002e FFF7FEFF 		bl	Set_Ref_Raw
 3406              	.LVL458:
 555:main.c        **** 	} else if (absolute < 0) {
 3407              		.loc 2 555 0
 3408 0032 FF20     		movs	r0, #255
 3409 0034 FFF7FEFF 		bl	Set_Vgs_Raw
 3410              	.LVL459:
 3411 0038 0EE0     		b	.L297
 3412              	.LVL460:
 3413              	.L296:
 556:main.c        **** 		Set_Ref_Raw(VDAC_Ref_Data - absolute);
 3414              		.loc 2 556 0
 3415 003a 002B     		cmp	r3, #0
 3416 003c 09DA     		bge	.L298
 557:main.c        **** 		Set_Vgs_Raw(0);
 3417              		.loc 2 557 0
 3418 003e 1F4B     		ldr	r3, .L314
 3419              	.LVL461:
 3420 0040 1B78     		ldrb	r3, [r3]	@ zero_extendqisi2
 3421 0042 181A     		subs	r0, r3, r0
 3422              	.LVL462:
 3423 0044 C0B2     		uxtb	r0, r0
 3424 0046 FFF7FEFF 		bl	Set_Ref_Raw
 3425              	.LVL463:
 558:main.c        **** 	} else {
 3426              		.loc 2 558 0
 3427 004a 0020     		movs	r0, #0
 3428 004c FFF7FEFF 		bl	Set_Vgs_Raw
 3429              	.LVL464:
 3430 0050 02E0     		b	.L297
 3431              	.LVL465:
 3432              	.L298:
 560:main.c        **** 	}
 3433              		.loc 2 560 0
 3434 0052 C0B2     		uxtb	r0, r0
 3435 0054 FFF7FEFF 		bl	Set_Vgs_Raw
 3436              	.LVL466:
 3437              	.L297:
 563:main.c        **** 	
 3438              		.loc 2 563 0
 3439 0058 194B     		ldr	r3, .L314+4
 3440 005a 1C80     		strh	r4, [r3]	@ movhi
ARM GAS  C:\Users\FRANKL~1\AppData\Local\Temp\ccba5qpo.s 			page 86


 565:main.c        **** 	uint16 Vds_maxRefRaw = Vds_Index_Goal_Relative > 0? 255 - Vds_Index_Goal_Relative: 255;
 3441              		.loc 2 565 0
 3442 005c 194B     		ldr	r3, .L314+8
 3443 005e B3F90030 		ldrsh	r3, [r3]
 3444 0062 002B     		cmp	r3, #0
 3445 0064 02DC     		bgt	.L309
 565:main.c        **** 	uint16 Vds_maxRefRaw = Vds_Index_Goal_Relative > 0? 255 - Vds_Index_Goal_Relative: 255;
 3446              		.loc 2 565 0 is_stmt 0 discriminator 1
 3447 0066 5A42     		negs	r2, r3
 3448 0068 92B2     		uxth	r2, r2
 3449 006a 00E0     		b	.L299
 3450              	.L309:
 565:main.c        **** 	uint16 Vds_maxRefRaw = Vds_Index_Goal_Relative > 0? 255 - Vds_Index_Goal_Relative: 255;
 3451              		.loc 2 565 0
 3452 006c 0022     		movs	r2, #0
 3453              	.L299:
 3454              	.LVL467:
 566:main.c        **** 	uint16 Vgs_minRefRaw = Vgs_Index_Goal_Relative > 0? 0: -Vgs_Index_Goal_Relative;
 3455              		.loc 2 566 0 is_stmt 1 discriminator 4
 3456 006e 002B     		cmp	r3, #0
 3457 0070 03DD     		ble	.L310
 566:main.c        **** 	uint16 Vgs_minRefRaw = Vgs_Index_Goal_Relative > 0? 0: -Vgs_Index_Goal_Relative;
 3458              		.loc 2 566 0 is_stmt 0 discriminator 1
 3459 0072 C3F1FF03 		rsb	r3, r3, #255
 3460 0076 9BB2     		uxth	r3, r3
 3461 0078 00E0     		b	.L300
 3462              	.L310:
 566:main.c        **** 	uint16 Vgs_minRefRaw = Vgs_Index_Goal_Relative > 0? 0: -Vgs_Index_Goal_Relative;
 3463              		.loc 2 566 0
 3464 007a FF23     		movs	r3, #255
 3465              	.L300:
 3466              	.LVL468:
 567:main.c        **** 	uint16 Vgs_maxRefRaw = Vgs_Index_Goal_Relative > 0? 255 - Vgs_Index_Goal_Relative: 255;
 3467              		.loc 2 567 0 is_stmt 1 discriminator 4
 3468 007c 002C     		cmp	r4, #0
 3469 007e 02DC     		bgt	.L311
 567:main.c        **** 	uint16 Vgs_maxRefRaw = Vgs_Index_Goal_Relative > 0? 255 - Vgs_Index_Goal_Relative: 255;
 3470              		.loc 2 567 0 is_stmt 0 discriminator 1
 3471 0080 6E42     		negs	r6, r5
 3472 0082 B6B2     		uxth	r6, r6
 3473 0084 00E0     		b	.L301
 3474              	.L311:
 567:main.c        **** 	uint16 Vgs_maxRefRaw = Vgs_Index_Goal_Relative > 0? 255 - Vgs_Index_Goal_Relative: 255;
 3475              		.loc 2 567 0
 3476 0086 0026     		movs	r6, #0
 3477              	.L301:
 3478              	.LVL469:
 568:main.c        **** 	
 3479              		.loc 2 568 0 is_stmt 1 discriminator 4
 3480 0088 002C     		cmp	r4, #0
 3481 008a 03DD     		ble	.L312
 568:main.c        **** 	
 3482              		.loc 2 568 0 is_stmt 0 discriminator 1
 3483 008c C5F1FF00 		rsb	r0, r5, #255
 3484 0090 80B2     		uxth	r0, r0
 3485 0092 00E0     		b	.L302
 3486              	.L312:
ARM GAS  C:\Users\FRANKL~1\AppData\Local\Temp\ccba5qpo.s 			page 87


 568:main.c        **** 	
 3487              		.loc 2 568 0
 3488 0094 FF20     		movs	r0, #255
 3489              	.L302:
 3490              	.LVL470:
 570:main.c        **** 	
 3491              		.loc 2 570 0 is_stmt 1 discriminator 4
 3492 0096 0949     		ldr	r1, .L314
 3493 0098 0978     		ldrb	r1, [r1]	@ zero_extendqisi2
 3494              	.LVL471:
 572:main.c        **** 	if (newRefRaw > Vds_maxRefRaw) newRefRaw = Vds_maxRefRaw;
 3495              		.loc 2 572 0 discriminator 4
 3496 009a 8A42     		cmp	r2, r1
 3497 009c 00D8     		bhi	.L303
 570:main.c        **** 	
 3498              		.loc 2 570 0
 3499 009e 0A46     		mov	r2, r1
 3500              	.LVL472:
 3501              	.L303:
 573:main.c        **** 	if (newRefRaw < Vgs_minRefRaw) newRefRaw = Vgs_minRefRaw;
 3502              		.loc 2 573 0
 3503 00a0 9A42     		cmp	r2, r3
 3504 00a2 00D8     		bhi	.L304
 3505 00a4 1346     		mov	r3, r2
 3506              	.LVL473:
 3507              	.L304:
 574:main.c        **** 	if (newRefRaw > Vgs_maxRefRaw) newRefRaw = Vgs_maxRefRaw;
 3508              		.loc 2 574 0
 3509 00a6 B342     		cmp	r3, r6
 3510 00a8 00D3     		bcc	.L305
 3511 00aa 1E46     		mov	r6, r3
 3512              	.LVL474:
 3513              	.L305:
 575:main.c        **** 	
 3514              		.loc 2 575 0
 3515 00ac 8642     		cmp	r6, r0
 3516 00ae 00D8     		bhi	.L306
 3517 00b0 3046     		mov	r0, r6
 3518              	.LVL475:
 3519              	.L306:
 577:main.c        **** }
 3520              		.loc 2 577 0
 3521 00b2 C0B2     		uxtb	r0, r0
 3522              	.LVL476:
 3523 00b4 FFF7FEFF 		bl	Set_Ref_Raw
 3524              	.LVL477:
 3525 00b8 70BD     		pop	{r4, r5, r6, pc}
 3526              	.LVL478:
 3527              	.L315:
 3528 00ba 00BF     		.align	2
 3529              	.L314:
 3530 00bc 825B0040 		.word	1073765250
 3531 00c0 00000000 		.word	Vgs_Index_Goal_Relative
 3532 00c4 00000000 		.word	Vds_Index_Goal_Relative
 3533              		.cfi_endproc
 3534              	.LFE97:
 3535              		.size	Set_Vgs_Rel, .-Set_Vgs_Rel
ARM GAS  C:\Users\FRANKL~1\AppData\Local\Temp\ccba5qpo.s 			page 88


 3536              		.global	__aeabi_d2iz
 3537              		.section	.text.Set_Vgs,"ax",%progbits
 3538              		.align	2
 3539              		.global	Set_Vgs
 3540              		.thumb
 3541              		.thumb_func
 3542              		.type	Set_Vgs, %function
 3543              	Set_Vgs:
 3544              	.LFB98:
 582:main.c        **** 	Set_Vgs_Rel((voltage/4.080)*255.0);
 3545              		.loc 2 582 0
 3546              		.cfi_startproc
 3547              		@ args = 0, pretend = 0, frame = 0
 3548              		@ frame_needed = 0, uses_anonymous_args = 0
 3549              	.LVL479:
 3550 0000 08B5     		push	{r3, lr}
 3551              		.cfi_def_cfa_offset 8
 3552              		.cfi_offset 3, -8
 3553              		.cfi_offset 14, -4
 583:main.c        **** }
 3554              		.loc 2 583 0
 3555 0002 FFF7FEFF 		bl	__aeabi_f2d
 3556              	.LVL480:
 3557 0006 08A3     		adr	r3, .L318
 3558 0008 D3E90023 		ldrd	r2, [r3]
 3559 000c FFF7FEFF 		bl	__aeabi_ddiv
 3560              	.LVL481:
 3561 0010 07A3     		adr	r3, .L318+8
 3562 0012 D3E90023 		ldrd	r2, [r3]
 3563 0016 FFF7FEFF 		bl	__aeabi_dmul
 3564              	.LVL482:
 3565 001a FFF7FEFF 		bl	__aeabi_d2iz
 3566              	.LVL483:
 3567 001e 00B2     		sxth	r0, r0
 3568 0020 FFF7FEFF 		bl	Set_Vgs_Rel
 3569              	.LVL484:
 3570 0024 08BD     		pop	{r3, pc}
 3571              	.L319:
 3572 0026 00BF     		.align	3
 3573              	.L318:
 3574 0028 52B81E85 		.word	-2061584302
 3575 002c EB511040 		.word	1074811371
 3576 0030 00000000 		.word	0
 3577 0034 00E06F40 		.word	1081073664
 3578              		.cfi_endproc
 3579              	.LFE98:
 3580              		.size	Set_Vgs, .-Set_Vgs
 3581              		.section	.text.Set_Vds,"ax",%progbits
 3582              		.align	2
 3583              		.global	Set_Vds
 3584              		.thumb
 3585              		.thumb_func
 3586              		.type	Set_Vds, %function
 3587              	Set_Vds:
 3588              	.LFB99:
 587:main.c        **** 	Set_Vds_Rel((voltage/4.080)*255.0);
 3589              		.loc 2 587 0
ARM GAS  C:\Users\FRANKL~1\AppData\Local\Temp\ccba5qpo.s 			page 89


 3590              		.cfi_startproc
 3591              		@ args = 0, pretend = 0, frame = 0
 3592              		@ frame_needed = 0, uses_anonymous_args = 0
 3593              	.LVL485:
 3594 0000 08B5     		push	{r3, lr}
 3595              		.cfi_def_cfa_offset 8
 3596              		.cfi_offset 3, -8
 3597              		.cfi_offset 14, -4
 588:main.c        **** }
 3598              		.loc 2 588 0
 3599 0002 FFF7FEFF 		bl	__aeabi_f2d
 3600              	.LVL486:
 3601 0006 08A3     		adr	r3, .L322
 3602 0008 D3E90023 		ldrd	r2, [r3]
 3603 000c FFF7FEFF 		bl	__aeabi_ddiv
 3604              	.LVL487:
 3605 0010 07A3     		adr	r3, .L322+8
 3606 0012 D3E90023 		ldrd	r2, [r3]
 3607 0016 FFF7FEFF 		bl	__aeabi_dmul
 3608              	.LVL488:
 3609 001a FFF7FEFF 		bl	__aeabi_d2iz
 3610              	.LVL489:
 3611 001e 00B2     		sxth	r0, r0
 3612 0020 FFF7FEFF 		bl	Set_Vds_Rel
 3613              	.LVL490:
 3614 0024 08BD     		pop	{r3, pc}
 3615              	.L323:
 3616 0026 00BF     		.align	3
 3617              	.L322:
 3618 0028 52B81E85 		.word	-2061584302
 3619 002c EB511040 		.word	1074811371
 3620 0030 00000000 		.word	0
 3621 0034 00E06F40 		.word	1081073664
 3622              		.cfi_endproc
 3623              	.LFE99:
 3624              		.size	Set_Vds, .-Set_Vds
 3625              		.section	.text.Set_Vgs_mV,"ax",%progbits
 3626              		.align	2
 3627              		.global	Set_Vgs_mV
 3628              		.thumb
 3629              		.thumb_func
 3630              		.type	Set_Vgs_mV, %function
 3631              	Set_Vgs_mV:
 3632              	.LFB100:
 593:main.c        **** 	Set_Vgs(mV/1000.0);
 3633              		.loc 2 593 0
 3634              		.cfi_startproc
 3635              		@ args = 0, pretend = 0, frame = 0
 3636              		@ frame_needed = 0, uses_anonymous_args = 0
 3637              	.LVL491:
 3638 0000 08B5     		push	{r3, lr}
 3639              		.cfi_def_cfa_offset 8
 3640              		.cfi_offset 3, -8
 3641              		.cfi_offset 14, -4
 594:main.c        **** }
 3642              		.loc 2 594 0
 3643 0002 0349     		ldr	r1, .L326
ARM GAS  C:\Users\FRANKL~1\AppData\Local\Temp\ccba5qpo.s 			page 90


 3644 0004 FFF7FEFF 		bl	__aeabi_fdiv
 3645              	.LVL492:
 3646 0008 FFF7FEFF 		bl	Set_Vgs
 3647              	.LVL493:
 3648 000c 08BD     		pop	{r3, pc}
 3649              	.L327:
 3650 000e 00BF     		.align	2
 3651              	.L326:
 3652 0010 00007A44 		.word	1148846080
 3653              		.cfi_endproc
 3654              	.LFE100:
 3655              		.size	Set_Vgs_mV, .-Set_Vgs_mV
 3656              		.section	.text.Set_Vds_mV,"ax",%progbits
 3657              		.align	2
 3658              		.global	Set_Vds_mV
 3659              		.thumb
 3660              		.thumb_func
 3661              		.type	Set_Vds_mV, %function
 3662              	Set_Vds_mV:
 3663              	.LFB101:
 598:main.c        **** 	Set_Vds(mV/1000.0);
 3664              		.loc 2 598 0
 3665              		.cfi_startproc
 3666              		@ args = 0, pretend = 0, frame = 0
 3667              		@ frame_needed = 0, uses_anonymous_args = 0
 3668              	.LVL494:
 3669 0000 08B5     		push	{r3, lr}
 3670              		.cfi_def_cfa_offset 8
 3671              		.cfi_offset 3, -8
 3672              		.cfi_offset 14, -4
 599:main.c        **** }
 3673              		.loc 2 599 0
 3674 0002 0349     		ldr	r1, .L330
 3675 0004 FFF7FEFF 		bl	__aeabi_fdiv
 3676              	.LVL495:
 3677 0008 FFF7FEFF 		bl	Set_Vds
 3678              	.LVL496:
 3679 000c 08BD     		pop	{r3, pc}
 3680              	.L331:
 3681 000e 00BF     		.align	2
 3682              	.L330:
 3683 0010 00007A44 		.word	1148846080
 3684              		.cfi_endproc
 3685              	.LFE101:
 3686              		.size	Set_Vds_mV, .-Set_Vds_mV
 3687              		.section	.text.Zero_All_DACs,"ax",%progbits
 3688              		.align	2
 3689              		.global	Zero_All_DACs
 3690              		.thumb
 3691              		.thumb_func
 3692              		.type	Zero_All_DACs, %function
 3693              	Zero_All_DACs:
 3694              	.LFB102:
 604:main.c        **** 	Set_Vds_Raw(0);
 3695              		.loc 2 604 0
 3696              		.cfi_startproc
 3697              		@ args = 0, pretend = 0, frame = 0
ARM GAS  C:\Users\FRANKL~1\AppData\Local\Temp\ccba5qpo.s 			page 91


 3698              		@ frame_needed = 0, uses_anonymous_args = 0
 3699 0000 08B5     		push	{r3, lr}
 3700              		.cfi_def_cfa_offset 8
 3701              		.cfi_offset 3, -8
 3702              		.cfi_offset 14, -4
 605:main.c        **** 	Set_Vgs_Raw(0);
 3703              		.loc 2 605 0
 3704 0002 0020     		movs	r0, #0
 3705 0004 FFF7FEFF 		bl	Set_Vds_Raw
 3706              	.LVL497:
 606:main.c        **** 	
 3707              		.loc 2 606 0
 3708 0008 0020     		movs	r0, #0
 3709 000a FFF7FEFF 		bl	Set_Vgs_Raw
 3710              	.LVL498:
 608:main.c        **** 	VDAC_Vgs_SetValue(0);
 3711              		.loc 2 608 0
 3712 000e 0020     		movs	r0, #0
 3713 0010 FFF7FEFF 		bl	VDAC_Vds_SetValue
 3714              	.LVL499:
 609:main.c        **** }
 3715              		.loc 2 609 0
 3716 0014 0020     		movs	r0, #0
 3717 0016 FFF7FEFF 		bl	VDAC_Vgs_SetValue
 3718              	.LVL500:
 3719 001a 08BD     		pop	{r3, pc}
 3720              		.cfi_endproc
 3721              	.LFE102:
 3722              		.size	Zero_All_DACs, .-Zero_All_DACs
 3723              		.section	.text.Calibrate_ADC_Offset,"ax",%progbits
 3724              		.align	2
 3725              		.global	Calibrate_ADC_Offset
 3726              		.thumb
 3727              		.thumb_func
 3728              		.type	Calibrate_ADC_Offset, %function
 3729              	Calibrate_ADC_Offset:
 3730              	.LFB103:
 612:main.c        **** 	uint8 current_range_resistor = TIA_Selected_Resistor;
 3731              		.loc 2 612 0
 3732              		.cfi_startproc
 3733              		@ args = 0, pretend = 0, frame = 8
 3734              		@ frame_needed = 0, uses_anonymous_args = 0
 3735              	.LVL501:
 3736 0000 2DE9F041 		push	{r4, r5, r6, r7, r8, lr}
 3737              		.cfi_def_cfa_offset 24
 3738              		.cfi_offset 4, -24
 3739              		.cfi_offset 5, -20
 3740              		.cfi_offset 6, -16
 3741              		.cfi_offset 7, -12
 3742              		.cfi_offset 8, -8
 3743              		.cfi_offset 14, -4
 3744 0004 84B0     		sub	sp, sp, #16
 3745              		.cfi_def_cfa_offset 40
 3746 0006 0746     		mov	r7, r0
 613:main.c        **** 	
 3747              		.loc 2 613 0
 3748 0008 2C4B     		ldr	r3, .L338
ARM GAS  C:\Users\FRANKL~1\AppData\Local\Temp\ccba5qpo.s 			page 92


 3749 000a 93F80080 		ldrb	r8, [r3]	@ zero_extendqisi2
 3750              	.LVL502:
 616:main.c        **** 	Set_Vgs(0);
 3751              		.loc 2 616 0
 3752 000e 0024     		movs	r4, #0
 3753 0010 2046     		mov	r0, r4
 3754              	.LVL503:
 3755 0012 FFF7FEFF 		bl	Set_Vds
 3756              	.LVL504:
 617:main.c        **** 	
 3757              		.loc 2 617 0
 3758 0016 2046     		mov	r0, r4
 3759 0018 FFF7FEFF 		bl	Set_Vgs
 3760              	.LVL505:
 620:main.c        **** 	int32 voltageSD = 0;
 3761              		.loc 2 620 0
 3762 001c 0024     		movs	r4, #0
 3763 001e 0394     		str	r4, [sp, #12]
 621:main.c        **** 	
 3764              		.loc 2 621 0
 3765 0020 0294     		str	r4, [sp, #8]
 3766              	.LVL506:
 3767              	.LBB42:
 624:main.c        **** 		TIA_Set_Resistor(i);
 3768              		.loc 2 624 0
 3769 0022 2BE0     		b	.L335
 3770              	.LVL507:
 3771              	.L336:
 625:main.c        **** 		// Take a few measurements to discard any problems with the initial measurements
 3772              		.loc 2 625 0 discriminator 3
 3773 0024 2046     		mov	r0, r4
 3774 0026 FFF7FEFF 		bl	TIA_Set_Resistor
 3775              	.LVL508:
 627:main.c        **** 		ADC_Measure_uV(&voltage, &voltageSD, sampleCount);
 3776              		.loc 2 627 0 discriminator 3
 3777 002a 0322     		movs	r2, #3
 3778 002c 02A9     		add	r1, sp, #8
 3779 002e 03A8     		add	r0, sp, #12
 3780 0030 FFF7FEFF 		bl	ADC_Measure_uV
 3781              	.LVL509:
 628:main.c        **** 		TIA_Offsets_uV[i] = -voltage;
 3782              		.loc 2 628 0 discriminator 3
 3783 0034 3A46     		mov	r2, r7
 3784 0036 02A9     		add	r1, sp, #8
 3785 0038 03A8     		add	r0, sp, #12
 3786 003a FFF7FEFF 		bl	ADC_Measure_uV
 3787              	.LVL510:
 629:main.c        **** 		sprintf(TransmitBuffer, "# Offset %e Ohm: %li uV\r\n", TIA_Resistor_Values[i], -voltage);
 3788              		.loc 2 629 0 discriminator 3
 3789 003e 039E     		ldr	r6, [sp, #12]
 3790 0040 7642     		negs	r6, r6
 3791 0042 A300     		lsls	r3, r4, #2
 3792 0044 1E4A     		ldr	r2, .L338+4
 3793 0046 1A44     		add	r2, r2, r3
 3794 0048 5660     		str	r6, [r2, #4]
 630:main.c        **** 		USBUARTH_Send(TransmitBuffer, strlen(TransmitBuffer));
 3795              		.loc 2 630 0 discriminator 3
ARM GAS  C:\Users\FRANKL~1\AppData\Local\Temp\ccba5qpo.s 			page 93


 3796 004a 1C4A     		ldr	r2, .L338
 3797 004c 1344     		add	r3, r3, r2
 3798 004e D868     		ldr	r0, [r3, #12]	@ float
 3799 0050 FFF7FEFF 		bl	__aeabi_f2d
 3800              	.LVL511:
 3801 0054 1B4D     		ldr	r5, .L338+8
 3802 0056 0096     		str	r6, [sp]
 3803 0058 0246     		mov	r2, r0
 3804 005a 0B46     		mov	r3, r1
 3805 005c 1A49     		ldr	r1, .L338+12
 3806 005e 2846     		mov	r0, r5
 3807 0060 FFF7FEFF 		bl	sprintf
 3808              	.LVL512:
 631:main.c        **** 		UART_1_PutString(TransmitBuffer);
 3809              		.loc 2 631 0 discriminator 3
 3810 0064 2846     		mov	r0, r5
 3811 0066 FFF7FEFF 		bl	strlen
 3812              	.LVL513:
 3813 006a 81B2     		uxth	r1, r0
 3814 006c 2846     		mov	r0, r5
 3815 006e FFF7FEFF 		bl	USBUARTH_Send
 3816              	.LVL514:
 632:main.c        **** 	}
 3817              		.loc 2 632 0 discriminator 3
 3818 0072 2846     		mov	r0, r5
 3819 0074 FFF7FEFF 		bl	UART_1_PutString
 3820              	.LVL515:
 624:main.c        **** 		TIA_Set_Resistor(i);
 3821              		.loc 2 624 0 discriminator 3
 3822 0078 0134     		adds	r4, r4, #1
 3823              	.LVL516:
 3824 007a E4B2     		uxtb	r4, r4
 3825              	.LVL517:
 3826              	.L335:
 624:main.c        **** 		TIA_Set_Resistor(i);
 3827              		.loc 2 624 0 is_stmt 0 discriminator 1
 3828 007c 072C     		cmp	r4, #7
 3829 007e D1D9     		bls	.L336
 3830              	.LBE42:
 636:main.c        **** 	
 3831              		.loc 2 636 0 is_stmt 1
 3832 0080 4046     		mov	r0, r8
 3833 0082 FFF7FEFF 		bl	TIA_Set_Resistor
 3834              	.LVL518:
 638:main.c        **** 	USBUARTH_Send(TransmitBuffer, strlen(TransmitBuffer));
 3835              		.loc 2 638 0
 3836 0086 0F4D     		ldr	r5, .L338+8
 3837 0088 104C     		ldr	r4, .L338+16
 3838              	.LVL519:
 3839 008a 0FCC     		ldmia	r4!, {r0, r1, r2, r3}
 3840 008c 2860     		str	r0, [r5]	@ unaligned
 3841 008e 6960     		str	r1, [r5, #4]	@ unaligned
 3842 0090 AA60     		str	r2, [r5, #8]	@ unaligned
 3843 0092 EB60     		str	r3, [r5, #12]	@ unaligned
 3844 0094 03CC     		ldmia	r4!, {r0, r1}
 3845 0096 2861     		str	r0, [r5, #16]	@ unaligned
 3846 0098 6961     		str	r1, [r5, #20]	@ unaligned
ARM GAS  C:\Users\FRANKL~1\AppData\Local\Temp\ccba5qpo.s 			page 94


 3847 009a 2288     		ldrh	r2, [r4]	@ unaligned
 3848 009c A378     		ldrb	r3, [r4, #2]	@ zero_extendqisi2
 3849 009e 2A83     		strh	r2, [r5, #24]	@ unaligned
 3850 00a0 AB76     		strb	r3, [r5, #26]
 639:main.c        **** 	UART_1_PutString(TransmitBuffer);
 3851              		.loc 2 639 0
 3852 00a2 2846     		mov	r0, r5
 3853 00a4 FFF7FEFF 		bl	strlen
 3854              	.LVL520:
 3855 00a8 81B2     		uxth	r1, r0
 3856 00aa 2846     		mov	r0, r5
 3857 00ac FFF7FEFF 		bl	USBUARTH_Send
 3858              	.LVL521:
 640:main.c        **** }
 3859              		.loc 2 640 0
 3860 00b0 2846     		mov	r0, r5
 3861 00b2 FFF7FEFF 		bl	UART_1_PutString
 3862              	.LVL522:
 641:main.c        **** 
 3863              		.loc 2 641 0
 3864 00b6 04B0     		add	sp, sp, #16
 3865              		.cfi_def_cfa_offset 24
 3866              		@ sp needed
 3867 00b8 BDE8F081 		pop	{r4, r5, r6, r7, r8, pc}
 3868              	.LVL523:
 3869              	.L339:
 3870              		.align	2
 3871              	.L338:
 3872 00bc 00000000 		.word	.LANCHOR1
 3873 00c0 00000000 		.word	.LANCHOR0
 3874 00c4 00000000 		.word	TransmitBuffer
 3875 00c8 A8000000 		.word	.LC11
 3876 00cc C4000000 		.word	.LC12
 3877              		.cfi_endproc
 3878              	.LFE103:
 3879              		.size	Calibrate_ADC_Offset, .-Calibrate_ADC_Offset
 3880              		.section	.text.Measure,"ax",%progbits
 3881              		.align	2
 3882              		.global	Measure
 3883              		.thumb
 3884              		.thumb_func
 3885              		.type	Measure, %function
 3886              	Measure:
 3887              	.LFB104:
 644:main.c        **** 	int32 ADC_Voltage = 0;
 3888              		.loc 2 644 0
 3889              		.cfi_startproc
 3890              		@ args = 0, pretend = 0, frame = 24
 3891              		@ frame_needed = 0, uses_anonymous_args = 0
 3892              	.LVL524:
 3893 0000 2DE9F047 		push	{r4, r5, r6, r7, r8, r9, r10, lr}
 3894              		.cfi_def_cfa_offset 32
 3895              		.cfi_offset 4, -32
 3896              		.cfi_offset 5, -28
 3897              		.cfi_offset 6, -24
 3898              		.cfi_offset 7, -20
 3899              		.cfi_offset 8, -16
ARM GAS  C:\Users\FRANKL~1\AppData\Local\Temp\ccba5qpo.s 			page 95


 3900              		.cfi_offset 9, -12
 3901              		.cfi_offset 10, -8
 3902              		.cfi_offset 14, -4
 3903 0004 8EB0     		sub	sp, sp, #56
 3904              		.cfi_def_cfa_offset 88
 3905 0006 0E46     		mov	r6, r1
 3906 0008 1546     		mov	r5, r2
 645:main.c        **** 	int32 ADC_Voltage_SD = 0;
 3907              		.loc 2 645 0
 3908 000a 0024     		movs	r4, #0
 3909 000c 0D94     		str	r4, [sp, #52]
 646:main.c        **** 	
 3910              		.loc 2 646 0
 3911 000e 0EA9     		add	r1, sp, #56
 3912              	.LVL525:
 3913 0010 41F8084D 		str	r4, [r1, #-8]!
 648:main.c        **** 	
 3914              		.loc 2 648 0
 3915 0014 0246     		mov	r2, r0
 3916              	.LVL526:
 3917 0016 0DA8     		add	r0, sp, #52
 3918              	.LVL527:
 3919 0018 FFF7FEFF 		bl	ADC_Measure_uV
 3920              	.LVL528:
 650:main.c        **** 	int32 TIA_Offset_uV = TIA_Offsets_uV[TIA_Selected_Resistor];
 3921              		.loc 2 650 0
 3922 001c 384A     		ldr	r2, .L342+16
 3923 001e 1378     		ldrb	r3, [r2]	@ zero_extendqisi2
 3924 0020 9B00     		lsls	r3, r3, #2
 3925 0022 1A44     		add	r2, r2, r3
 3926              	.LVL529:
 651:main.c        **** 	float unitConversion = -1.0e-6/TIA_Feedback_R;
 3927              		.loc 2 651 0
 3928 0024 3749     		ldr	r1, .L342+20
 3929 0026 0B44     		add	r3, r3, r1
 3930 0028 D3F80480 		ldr	r8, [r3, #4]
 3931              	.LVL530:
 652:main.c        **** 	
 3932              		.loc 2 652 0
 3933 002c D068     		ldr	r0, [r2, #12]	@ float
 3934 002e FFF7FEFF 		bl	__aeabi_f2d
 3935              	.LVL531:
 3936 0032 0246     		mov	r2, r0
 3937 0034 0B46     		mov	r3, r1
 3938 0036 2EA1     		adr	r1, .L342
 3939 0038 D1E90001 		ldrd	r0, [r1]
 3940 003c FFF7FEFF 		bl	__aeabi_ddiv
 3941              	.LVL532:
 3942 0040 FFF7FEFF 		bl	__aeabi_d2f
 3943              	.LVL533:
 3944 0044 0746     		mov	r7, r0
 3945              	.LVL534:
 654:main.c        **** 	
 3946              		.loc 2 654 0
 3947 0046 0D98     		ldr	r0, [sp, #52]
 3948              	.LVL535:
 3949 0048 4044     		add	r0, r0, r8
ARM GAS  C:\Users\FRANKL~1\AppData\Local\Temp\ccba5qpo.s 			page 96


 3950 004a FFF7FEFF 		bl	__aeabi_i2f
 3951              	.LVL536:
 3952 004e 0146     		mov	r1, r0
 3953 0050 3846     		mov	r0, r7
 3954 0052 FFF7FEFF 		bl	__aeabi_fmul
 3955              	.LVL537:
 3956 0056 0746     		mov	r7, r0
 3957              	.LVL538:
 663:main.c        **** 	int32 SAR1_SD = 0;
 3958              		.loc 2 663 0
 3959 0058 0B94     		str	r4, [sp, #44]
 664:main.c        **** 	int32 SAR2_Average = 0;
 3960              		.loc 2 664 0
 3961 005a 0A94     		str	r4, [sp, #40]
 665:main.c        **** 	int32 SAR2_SD = 0;
 3962              		.loc 2 665 0
 3963 005c 0994     		str	r4, [sp, #36]
 666:main.c        **** 
 3964              		.loc 2 666 0
 3965 005e 0894     		str	r4, [sp, #32]
 668:main.c        **** 	SAR2_Measure_V(&SAR2_Average, &SAR2_SD, SAR2_SampleCount);
 3966              		.loc 2 668 0
 3967 0060 3246     		mov	r2, r6
 3968 0062 0AA9     		add	r1, sp, #40
 3969 0064 0BA8     		add	r0, sp, #44
 3970              	.LVL539:
 3971 0066 FFF7FEFF 		bl	SAR1_Measure_V
 3972              	.LVL540:
 669:main.c        **** 
 3973              		.loc 2 669 0
 3974 006a 2A46     		mov	r2, r5
 3975 006c 08A9     		add	r1, sp, #32
 3976 006e 09A8     		add	r0, sp, #36
 3977 0070 FFF7FEFF 		bl	SAR2_Measure_V
 3978              	.LVL541:
 671:main.c        **** 	float SAR2 = 1e-6*SAR2_Average;
 3979              		.loc 2 671 0
 3980 0074 0B98     		ldr	r0, [sp, #44]
 3981 0076 FFF7FEFF 		bl	__aeabi_i2d
 3982              	.LVL542:
 3983 007a 1FA3     		adr	r3, .L342+8
 3984 007c D3E90023 		ldrd	r2, [r3]
 3985 0080 FFF7FEFF 		bl	__aeabi_dmul
 3986              	.LVL543:
 3987 0084 FFF7FEFF 		bl	__aeabi_d2f
 3988              	.LVL544:
 3989 0088 8246     		mov	r10, r0
 3990              	.LVL545:
 674:main.c        **** 	USBUARTH_Send(TransmitBuffer, strlen(TransmitBuffer));
 3991              		.loc 2 674 0
 3992 008a FFF7FEFF 		bl	Get_Vgs
 3993              	.LVL546:
 3994 008e 8046     		mov	r8, r0
 3995              	.LVL547:
 3996 0090 FFF7FEFF 		bl	Get_Vds
 3997              	.LVL548:
 3998 0094 8146     		mov	r9, r0
ARM GAS  C:\Users\FRANKL~1\AppData\Local\Temp\ccba5qpo.s 			page 97


 3999 0096 1C4B     		ldr	r3, .L342+24
 4000 0098 1D78     		ldrb	r5, [r3]	@ zero_extendqisi2
 4001              	.LVL549:
 4002 009a EDB2     		uxtb	r5, r5
 4003 009c 3846     		mov	r0, r7
 4004 009e FFF7FEFF 		bl	__aeabi_f2d
 4005              	.LVL550:
 4006 00a2 0646     		mov	r6, r0
 4007              	.LVL551:
 4008 00a4 0F46     		mov	r7, r1
 4009              	.LVL552:
 4010 00a6 194C     		ldr	r4, .L342+28
 4011 00a8 0695     		str	r5, [sp, #24]
 4012 00aa 5046     		mov	r0, r10
 4013 00ac FFF7FEFF 		bl	__aeabi_f2d
 4014              	.LVL553:
 4015 00b0 CDE90401 		strd	r0, [sp, #16]
 4016 00b4 4846     		mov	r0, r9
 4017 00b6 FFF7FEFF 		bl	__aeabi_f2d
 4018              	.LVL554:
 4019 00ba CDE90201 		strd	r0, [sp, #8]
 4020 00be 4046     		mov	r0, r8
 4021 00c0 FFF7FEFF 		bl	__aeabi_f2d
 4022              	.LVL555:
 4023 00c4 CDE90001 		strd	r0, [sp]
 4024 00c8 3246     		mov	r2, r6
 4025 00ca 3B46     		mov	r3, r7
 4026 00cc 1049     		ldr	r1, .L342+32
 4027 00ce 2046     		mov	r0, r4
 4028 00d0 FFF7FEFF 		bl	sprintf
 4029              	.LVL556:
 675:main.c        **** 	UART_1_PutString(TransmitBuffer);
 4030              		.loc 2 675 0
 4031 00d4 2046     		mov	r0, r4
 4032 00d6 FFF7FEFF 		bl	strlen
 4033              	.LVL557:
 4034 00da 81B2     		uxth	r1, r0
 4035 00dc 2046     		mov	r0, r4
 4036 00de FFF7FEFF 		bl	USBUARTH_Send
 4037              	.LVL558:
 676:main.c        **** }
 4038              		.loc 2 676 0
 4039 00e2 2046     		mov	r0, r4
 4040 00e4 FFF7FEFF 		bl	UART_1_PutString
 4041              	.LVL559:
 677:main.c        **** 
 4042              		.loc 2 677 0
 4043 00e8 0EB0     		add	sp, sp, #56
 4044              		.cfi_def_cfa_offset 32
 4045              		@ sp needed
 4046 00ea BDE8F087 		pop	{r4, r5, r6, r7, r8, r9, r10, pc}
 4047              	.LVL560:
 4048              	.L343:
 4049 00ee 00BF     		.align	3
 4050              	.L342:
 4051 00f0 8DEDB5A0 		.word	-1598689907
 4052 00f4 F7C6B0BE 		.word	-1095710985
ARM GAS  C:\Users\FRANKL~1\AppData\Local\Temp\ccba5qpo.s 			page 98


 4053 00f8 8DEDB5A0 		.word	-1598689907
 4054 00fc F7C6B03E 		.word	1051772663
 4055 0100 00000000 		.word	.LANCHOR1
 4056 0104 00000000 		.word	.LANCHOR0
 4057 0108 825B0040 		.word	1073765250
 4058 010c 00000000 		.word	TransmitBuffer
 4059 0110 E0000000 		.word	.LC13
 4060              		.cfi_endproc
 4061              	.LFE104:
 4062              		.size	Measure, .-Measure
 4063              		.section	.text.Measure_Multiple,"ax",%progbits
 4064              		.align	2
 4065              		.global	Measure_Multiple
 4066              		.thumb
 4067              		.thumb_func
 4068              		.type	Measure_Multiple, %function
 4069              	Measure_Multiple:
 4070              	.LFB105:
 680:main.c        **** 	for (uint32 i = 0; i < n; i++) {
 4071              		.loc 2 680 0
 4072              		.cfi_startproc
 4073              		@ args = 0, pretend = 0, frame = 0
 4074              		@ frame_needed = 0, uses_anonymous_args = 0
 4075              	.LVL561:
 4076 0000 38B5     		push	{r3, r4, r5, lr}
 4077              		.cfi_def_cfa_offset 16
 4078              		.cfi_offset 3, -16
 4079              		.cfi_offset 4, -12
 4080              		.cfi_offset 5, -8
 4081              		.cfi_offset 14, -4
 4082 0002 0546     		mov	r5, r0
 4083              	.LVL562:
 4084              	.LBB43:
 681:main.c        **** 		Measure(100, 1, 10);
 4085              		.loc 2 681 0
 4086 0004 0024     		movs	r4, #0
 4087 0006 05E0     		b	.L345
 4088              	.LVL563:
 4089              	.L346:
 682:main.c        **** 	}
 4090              		.loc 2 682 0 discriminator 3
 4091 0008 0A22     		movs	r2, #10
 4092 000a 0121     		movs	r1, #1
 4093 000c 6420     		movs	r0, #100
 4094 000e FFF7FEFF 		bl	Measure
 4095              	.LVL564:
 681:main.c        **** 		Measure(100, 1, 10);
 4096              		.loc 2 681 0 discriminator 3
 4097 0012 0134     		adds	r4, r4, #1
 4098              	.LVL565:
 4099              	.L345:
 681:main.c        **** 		Measure(100, 1, 10);
 4100              		.loc 2 681 0 is_stmt 0 discriminator 1
 4101 0014 AC42     		cmp	r4, r5
 4102 0016 F7D3     		bcc	.L346
 4103              	.LBE43:
 684:main.c        **** 
ARM GAS  C:\Users\FRANKL~1\AppData\Local\Temp\ccba5qpo.s 			page 99


 4104              		.loc 2 684 0 is_stmt 1
 4105 0018 38BD     		pop	{r3, r4, r5, pc}
 4106              		.cfi_endproc
 4107              	.LFE105:
 4108              		.size	Measure_Multiple, .-Measure_Multiple
 4109 001a 00BF     		.section	.text.Measure_Sweep,"ax",%progbits
 4110              		.align	2
 4111              		.global	Measure_Sweep
 4112              		.thumb
 4113              		.thumb_func
 4114              		.type	Measure_Sweep, %function
 4115              	Measure_Sweep:
 4116              	.LFB106:
 687:main.c        **** 	VDAC_Vds_SetValue(90);
 4117              		.loc 2 687 0
 4118              		.cfi_startproc
 4119              		@ args = 0, pretend = 0, frame = 0
 4120              		@ frame_needed = 0, uses_anonymous_args = 0
 4121 0000 10B5     		push	{r4, lr}
 4122              		.cfi_def_cfa_offset 8
 4123              		.cfi_offset 4, -8
 4124              		.cfi_offset 14, -4
 688:main.c        **** 	VDAC_Vgs_SetValue(254);
 4125              		.loc 2 688 0
 4126 0002 5A20     		movs	r0, #90
 4127 0004 FFF7FEFF 		bl	VDAC_Vds_SetValue
 4128              	.LVL566:
 689:main.c        **** 	
 4129              		.loc 2 689 0
 4130 0008 FE20     		movs	r0, #254
 4131 000a FFF7FEFF 		bl	VDAC_Vgs_SetValue
 4132              	.LVL567:
 4133              	.LBB44:
 691:main.c        **** 		VDAC_Vgs_SetValue(Vgsi);
 4134              		.loc 2 691 0
 4135 000e 0024     		movs	r4, #0
 4136 0010 09E0     		b	.L349
 4137              	.LVL568:
 4138              	.L350:
 692:main.c        **** 		Measure(100, 1, 1);
 4139              		.loc 2 692 0 discriminator 3
 4140 0012 E0B2     		uxtb	r0, r4
 4141 0014 FFF7FEFF 		bl	VDAC_Vgs_SetValue
 4142              	.LVL569:
 693:main.c        **** 	}
 4143              		.loc 2 693 0 discriminator 3
 4144 0018 0122     		movs	r2, #1
 4145 001a 1146     		mov	r1, r2
 4146 001c 6420     		movs	r0, #100
 4147 001e FFF7FEFF 		bl	Measure
 4148              	.LVL570:
 691:main.c        **** 		VDAC_Vgs_SetValue(Vgsi);
 4149              		.loc 2 691 0 discriminator 3
 4150 0022 0134     		adds	r4, r4, #1
 4151              	.LVL571:
 4152 0024 A4B2     		uxth	r4, r4
 4153              	.LVL572:
ARM GAS  C:\Users\FRANKL~1\AppData\Local\Temp\ccba5qpo.s 			page 100


 4154              	.L349:
 691:main.c        **** 		VDAC_Vgs_SetValue(Vgsi);
 4155              		.loc 2 691 0 is_stmt 0 discriminator 1
 4156 0026 FF2C     		cmp	r4, #255
 4157 0028 F3D9     		bls	.L350
 4158              	.LBE44:
 695:main.c        **** 
 4159              		.loc 2 695 0 is_stmt 1
 4160 002a 10BD     		pop	{r4, pc}
 4161              		.cfi_endproc
 4162              	.LFE106:
 4163              		.size	Measure_Sweep, .-Measure_Sweep
 4164              		.section	.text.Measure_Gate_Sweep,"ax",%progbits
 4165              		.align	2
 4166              		.global	Measure_Gate_Sweep
 4167              		.thumb
 4168              		.thumb_func
 4169              		.type	Measure_Gate_Sweep, %function
 4170              	Measure_Gate_Sweep:
 4171              	.LFB107:
 697:main.c        **** 	
 4172              		.loc 2 697 0
 4173              		.cfi_startproc
 4174              		@ args = 0, pretend = 0, frame = 0
 4175              		@ frame_needed = 0, uses_anonymous_args = 0
 4176              	.LVL573:
 4177 0000 2DE9F843 		push	{r3, r4, r5, r6, r7, r8, r9, lr}
 4178              		.cfi_def_cfa_offset 32
 4179              		.cfi_offset 3, -32
 4180              		.cfi_offset 4, -28
 4181              		.cfi_offset 5, -24
 4182              		.cfi_offset 6, -20
 4183              		.cfi_offset 7, -16
 4184              		.cfi_offset 8, -12
 4185              		.cfi_offset 9, -8
 4186              		.cfi_offset 14, -4
 4187 0004 8146     		mov	r9, r0
 699:main.c        **** 		Set_Ref_Raw(254 - Vds_Index_Goal_Relative);
 4188              		.loc 2 699 0
 4189 0006 274B     		ldr	r3, .L369
 4190 0008 B3F90030 		ldrsh	r3, [r3]
 4191 000c 002B     		cmp	r3, #0
 4192 000e 07DD     		ble	.L353
 700:main.c        **** 	} else {
 4193              		.loc 2 700 0
 4194 0010 C3F1FE00 		rsb	r0, r3, #254
 4195              	.LVL574:
 4196 0014 C0B2     		uxtb	r0, r0
 4197 0016 FFF7FEFF 		bl	Set_Ref_Raw
 4198              	.LVL575:
 4199              	.L355:
 4200              	.LBB45:
 4201              	.LBB46:
 4202              	.LBB47:
 4203 001a 4FF00008 		mov	r8, #0
 4204 001e 3DE0     		b	.L354
 4205              	.LVL576:
ARM GAS  C:\Users\FRANKL~1\AppData\Local\Temp\ccba5qpo.s 			page 101


 4206              	.L353:
 4207              	.LBE47:
 4208              	.LBE46:
 4209              	.LBE45:
 702:main.c        **** 	}
 4210              		.loc 2 702 0
 4211 0020 FE20     		movs	r0, #254
 4212              	.LVL577:
 4213 0022 FFF7FEFF 		bl	Set_Ref_Raw
 4214              	.LVL578:
 4215 0026 F8E7     		b	.L355
 4216              	.LVL579:
 4217              	.L364:
 4218              	.LBB52:
 4219              	.LBB51:
 710:main.c        **** 			istart = -Vds_Index_Goal_Relative;
 4220              		.loc 2 710 0
 4221 0028 1E4B     		ldr	r3, .L369
 4222 002a B3F90030 		ldrsh	r3, [r3]
 4223 002e 002B     		cmp	r3, #0
 4224 0030 02DA     		bge	.L365
 711:main.c        **** 		}
 4225              		.loc 2 711 0
 4226 0032 5B42     		negs	r3, r3
 4227 0034 DDB2     		uxtb	r5, r3
 4228              	.LVL580:
 4229 0036 00E0     		b	.L356
 4230              	.LVL581:
 4231              	.L365:
 709:main.c        **** 		if (Vds_Index_Goal_Relative < 0) {
 4232              		.loc 2 709 0
 4233 0038 0025     		movs	r5, #0
 4234              	.LVL582:
 4235              	.L356:
 716:main.c        **** 			direction = -1*speed;
 4236              		.loc 2 716 0
 4237 003a 18F0010F 		tst	r8, #1
 4238 003e 02D1     		bne	.L366
 714:main.c        **** 		
 4239              		.loc 2 714 0
 4240 0040 F026     		movs	r6, #240
 708:main.c        **** 		uint8 istart = 0;
 4241              		.loc 2 708 0
 4242 0042 1027     		movs	r7, #16
 4243 0044 24E0     		b	.L358
 4244              	.L366:
 719:main.c        **** 		}
 4245              		.loc 2 719 0
 4246 0046 0026     		movs	r6, #0
 718:main.c        **** 			istop = 0;
 4247              		.loc 2 718 0
 4248 0048 F025     		movs	r5, #240
 4249              	.LVL583:
 717:main.c        **** 			istart = 256-speed;
 4250              		.loc 2 717 0
 4251 004a 6FF00F07 		mvn	r7, #15
 4252              	.LVL584:
ARM GAS  C:\Users\FRANKL~1\AppData\Local\Temp\ccba5qpo.s 			page 102


 4253              	.LBB50:
 722:main.c        **** 			for (uint8 j = 0; j <= 1; j++) {
 4254              		.loc 2 722 0
 4255 004e 1FE0     		b	.L358
 4256              	.LVL585:
 4257              	.L362:
 4258              	.LBB48:
 724:main.c        **** 				Set_Vgs_Raw(i);
 4259              		.loc 2 724 0
 4260 0050 012C     		cmp	r4, #1
 4261 0052 03D1     		bne	.L359
 724:main.c        **** 				Set_Vgs_Raw(i);
 4262              		.loc 2 724 0 is_stmt 0 discriminator 1
 4263 0054 E843     		mvns	r0, r5
 4264 0056 C0B2     		uxtb	r0, r0
 4265 0058 FFF7FEFF 		bl	Set_Ref_Raw
 4266              	.LVL586:
 4267              	.L359:
 725:main.c        **** 				
 4268              		.loc 2 725 0 is_stmt 1
 4269 005c 2846     		mov	r0, r5
 4270 005e FFF7FEFF 		bl	Set_Vgs_Raw
 4271              	.LVL587:
 727:main.c        **** 				
 4272              		.loc 2 727 0
 4273 0062 0122     		movs	r2, #1
 4274 0064 1146     		mov	r1, r2
 4275 0066 2120     		movs	r0, #33
 4276 0068 FFF7FEFF 		bl	Measure
 4277              	.LVL588:
 729:main.c        **** 				while (G_Pause);
 4278              		.loc 2 729 0
 4279 006c 0E4B     		ldr	r3, .L369+4
 4280 006e 5B78     		ldrb	r3, [r3, #1]	@ zero_extendqisi2
 4281 0070 13F0FF0F 		tst	r3, #255
 4282 0074 0AD1     		bne	.L360
 4283              	.L361:
 730:main.c        **** 			}
 4284              		.loc 2 730 0 discriminator 1
 4285 0076 0C4B     		ldr	r3, .L369+4
 4286 0078 DB78     		ldrb	r3, [r3, #3]	@ zero_extendqisi2
 4287 007a 13F0FF0F 		tst	r3, #255
 4288 007e FAD1     		bne	.L361
 723:main.c        **** 				if (j == 1) Set_Ref_Raw(254 - i + 1);
 4289              		.loc 2 723 0 discriminator 2
 4290 0080 0134     		adds	r4, r4, #1
 4291              	.LVL589:
 4292 0082 E4B2     		uxtb	r4, r4
 4293              	.LVL590:
 4294 0084 00E0     		b	.L363
 4295              	.LVL591:
 4296              	.L367:
 4297              	.LBE48:
 4298 0086 0024     		movs	r4, #0
 4299              	.L363:
 4300              	.LVL592:
 4301              	.LBB49:
ARM GAS  C:\Users\FRANKL~1\AppData\Local\Temp\ccba5qpo.s 			page 103


 723:main.c        **** 				if (j == 1) Set_Ref_Raw(254 - i + 1);
 4302              		.loc 2 723 0 is_stmt 0 discriminator 1
 4303 0088 012C     		cmp	r4, #1
 4304 008a E1D9     		bls	.L362
 4305              	.L360:
 4306              	.LBE49:
 722:main.c        **** 			for (uint8 j = 0; j <= 1; j++) {
 4307              		.loc 2 722 0 is_stmt 1 discriminator 2
 4308 008c 3D44     		add	r5, r5, r7
 4309              	.LVL593:
 4310 008e EDB2     		uxtb	r5, r5
 4311              	.LVL594:
 4312              	.L358:
 722:main.c        **** 			for (uint8 j = 0; j <= 1; j++) {
 4313              		.loc 2 722 0 is_stmt 0 discriminator 1
 4314 0090 AE42     		cmp	r6, r5
 4315 0092 F8D1     		bne	.L367
 4316              	.LBE50:
 4317              	.LBE51:
 707:main.c        **** 		int8 direction = 1*speed;
 4318              		.loc 2 707 0 is_stmt 1 discriminator 2
 4319 0094 08F10108 		add	r8, r8, #1
 4320              	.LVL595:
 4321 0098 5FFA88F8 		uxtb	r8, r8
 4322              	.LVL596:
 4323              	.L354:
 707:main.c        **** 		int8 direction = 1*speed;
 4324              		.loc 2 707 0 is_stmt 0 discriminator 1
 4325 009c C845     		cmp	r8, r9
 4326 009e C3D9     		bls	.L364
 4327              	.LBE52:
 734:main.c        **** 
 4328              		.loc 2 734 0 is_stmt 1
 4329 00a0 BDE8F883 		pop	{r3, r4, r5, r6, r7, r8, r9, pc}
 4330              	.LVL597:
 4331              	.L370:
 4332              		.align	2
 4333              	.L369:
 4334 00a4 00000000 		.word	Vds_Index_Goal_Relative
 4335 00a8 00000000 		.word	.LANCHOR0
 4336              		.cfi_endproc
 4337              	.LFE107:
 4338              		.size	Measure_Gate_Sweep, .-Measure_Gate_Sweep
 4339              		.section	.text.Measure_Wide_Gate_Sweep,"ax",%progbits
 4340              		.align	2
 4341              		.global	Measure_Wide_Gate_Sweep
 4342              		.thumb
 4343              		.thumb_func
 4344              		.type	Measure_Wide_Gate_Sweep, %function
 4345              	Measure_Wide_Gate_Sweep:
 4346              	.LFB108:
 736:main.c        **** 	Set_Ref_Raw(254);
 4347              		.loc 2 736 0
 4348              		.cfi_startproc
 4349              		@ args = 0, pretend = 0, frame = 0
 4350              		@ frame_needed = 0, uses_anonymous_args = 0
 4351              	.LVL598:
ARM GAS  C:\Users\FRANKL~1\AppData\Local\Temp\ccba5qpo.s 			page 104


 4352 0000 2DE9F843 		push	{r3, r4, r5, r6, r7, r8, r9, lr}
 4353              		.cfi_def_cfa_offset 32
 4354              		.cfi_offset 3, -32
 4355              		.cfi_offset 4, -28
 4356              		.cfi_offset 5, -24
 4357              		.cfi_offset 6, -20
 4358              		.cfi_offset 7, -16
 4359              		.cfi_offset 8, -12
 4360              		.cfi_offset 9, -8
 4361              		.cfi_offset 14, -4
 4362 0004 8146     		mov	r9, r0
 737:main.c        **** 	
 4363              		.loc 2 737 0
 4364 0006 FE20     		movs	r0, #254
 4365              	.LVL599:
 4366 0008 FFF7FEFF 		bl	Set_Ref_Raw
 4367              	.LVL600:
 4368              	.LBB53:
 741:main.c        **** 		int8 direction = 1*speed;
 4369              		.loc 2 741 0
 4370 000c 4FF00008 		mov	r8, #0
 4371 0010 31E0     		b	.L372
 4372              	.LVL601:
 4373              	.L380:
 4374              	.LBB54:
 746:main.c        **** 			direction = -1*speed;
 4375              		.loc 2 746 0
 4376 0012 18F0010F 		tst	r8, #1
 4377 0016 03D1     		bne	.L381
 744:main.c        **** 		
 4378              		.loc 2 744 0
 4379 0018 F026     		movs	r6, #240
 743:main.c        **** 		uint8 istop = 256-speed;
 4380              		.loc 2 743 0
 4381 001a 0025     		movs	r5, #0
 742:main.c        **** 		uint8 istart = 0;
 4382              		.loc 2 742 0
 4383 001c 1027     		movs	r7, #16
 4384 001e 24E0     		b	.L374
 4385              	.L381:
 749:main.c        **** 		}
 4386              		.loc 2 749 0
 4387 0020 0026     		movs	r6, #0
 748:main.c        **** 			istop = 0;
 4388              		.loc 2 748 0
 4389 0022 F025     		movs	r5, #240
 747:main.c        **** 			istart = 256-speed;
 4390              		.loc 2 747 0
 4391 0024 6FF00F07 		mvn	r7, #15
 4392              	.LVL602:
 4393              	.LBB55:
 752:main.c        **** 			for (uint8 j = 0; j <= 1; j++) {
 4394              		.loc 2 752 0
 4395 0028 1FE0     		b	.L374
 4396              	.LVL603:
 4397              	.L378:
 4398              	.LBB56:
ARM GAS  C:\Users\FRANKL~1\AppData\Local\Temp\ccba5qpo.s 			page 105


 755:main.c        **** 				Set_Vgs_Raw(i);
 4399              		.loc 2 755 0
 4400 002a 012C     		cmp	r4, #1
 4401 002c 03D1     		bne	.L375
 755:main.c        **** 				Set_Vgs_Raw(i);
 4402              		.loc 2 755 0 is_stmt 0 discriminator 1
 4403 002e E843     		mvns	r0, r5
 4404 0030 C0B2     		uxtb	r0, r0
 4405 0032 FFF7FEFF 		bl	Set_Ref_Raw
 4406              	.LVL604:
 4407              	.L375:
 756:main.c        **** 				
 4408              		.loc 2 756 0 is_stmt 1
 4409 0036 2846     		mov	r0, r5
 4410 0038 FFF7FEFF 		bl	Set_Vgs_Raw
 4411              	.LVL605:
 758:main.c        **** 				
 4412              		.loc 2 758 0
 4413 003c 0122     		movs	r2, #1
 4414 003e 1146     		mov	r1, r2
 4415 0040 2120     		movs	r0, #33
 4416 0042 FFF7FEFF 		bl	Measure
 4417              	.LVL606:
 760:main.c        **** 				while (G_Pause);
 4418              		.loc 2 760 0
 4419 0046 0E4B     		ldr	r3, .L384
 4420 0048 5B78     		ldrb	r3, [r3, #1]	@ zero_extendqisi2
 4421 004a 13F0FF0F 		tst	r3, #255
 4422 004e 0AD1     		bne	.L376
 4423              	.L377:
 761:main.c        **** 			}
 4424              		.loc 2 761 0 discriminator 1
 4425 0050 0B4B     		ldr	r3, .L384
 4426 0052 DB78     		ldrb	r3, [r3, #3]	@ zero_extendqisi2
 4427 0054 13F0FF0F 		tst	r3, #255
 4428 0058 FAD1     		bne	.L377
 753:main.c        **** 				
 4429              		.loc 2 753 0 discriminator 2
 4430 005a 0134     		adds	r4, r4, #1
 4431              	.LVL607:
 4432 005c E4B2     		uxtb	r4, r4
 4433              	.LVL608:
 4434 005e 00E0     		b	.L379
 4435              	.LVL609:
 4436              	.L382:
 4437              	.LBE56:
 4438 0060 0024     		movs	r4, #0
 4439              	.L379:
 4440              	.LVL610:
 4441              	.LBB57:
 753:main.c        **** 				
 4442              		.loc 2 753 0 is_stmt 0 discriminator 1
 4443 0062 012C     		cmp	r4, #1
 4444 0064 E1D9     		bls	.L378
 4445              	.L376:
 4446              	.LBE57:
 752:main.c        **** 			for (uint8 j = 0; j <= 1; j++) {
ARM GAS  C:\Users\FRANKL~1\AppData\Local\Temp\ccba5qpo.s 			page 106


 4447              		.loc 2 752 0 is_stmt 1 discriminator 2
 4448 0066 3D44     		add	r5, r5, r7
 4449              	.LVL611:
 4450 0068 EDB2     		uxtb	r5, r5
 4451              	.LVL612:
 4452              	.L374:
 752:main.c        **** 			for (uint8 j = 0; j <= 1; j++) {
 4453              		.loc 2 752 0 is_stmt 0 discriminator 1
 4454 006a AE42     		cmp	r6, r5
 4455 006c F8D1     		bne	.L382
 4456              	.LBE55:
 4457              	.LBE54:
 741:main.c        **** 		int8 direction = 1*speed;
 4458              		.loc 2 741 0 is_stmt 1 discriminator 2
 4459 006e 08F10108 		add	r8, r8, #1
 4460              	.LVL613:
 4461 0072 5FFA88F8 		uxtb	r8, r8
 4462              	.LVL614:
 4463              	.L372:
 741:main.c        **** 		int8 direction = 1*speed;
 4464              		.loc 2 741 0 is_stmt 0 discriminator 1
 4465 0076 C845     		cmp	r8, r9
 4466 0078 CBD9     		bls	.L380
 4467              	.LBE53:
 765:main.c        **** 
 4468              		.loc 2 765 0 is_stmt 1
 4469 007a BDE8F883 		pop	{r3, r4, r5, r6, r7, r8, r9, pc}
 4470              	.LVL615:
 4471              	.L385:
 4472 007e 00BF     		.align	2
 4473              	.L384:
 4474 0080 00000000 		.word	.LANCHOR0
 4475              		.cfi_endproc
 4476              	.LFE108:
 4477              		.size	Measure_Wide_Gate_Sweep, .-Measure_Wide_Gate_Sweep
 4478              		.section	.text.Measure_Gate_Sweep_New,"ax",%progbits
 4479              		.align	2
 4480              		.global	Measure_Gate_Sweep_New
 4481              		.thumb
 4482              		.thumb_func
 4483              		.type	Measure_Gate_Sweep_New, %function
 4484              	Measure_Gate_Sweep_New:
 4485              	.LFB109:
 767:main.c        **** 	uint8 refTurn = 1;
 4486              		.loc 2 767 0
 4487              		.cfi_startproc
 4488              		@ args = 0, pretend = 0, frame = 0
 4489              		@ frame_needed = 0, uses_anonymous_args = 0
