ARM GAS  C:\Users\FRANKL~1\AppData\Local\Temp\ccnobXgu.s 			page 1


   1              		.syntax unified
   2              		.cpu cortex-m3
   3              		.fpu softvfp
   4              		.eabi_attribute 20, 1
   5              		.eabi_attribute 21, 1
   6              		.eabi_attribute 23, 3
   7              		.eabi_attribute 24, 1
   8              		.eabi_attribute 25, 1
   9              		.eabi_attribute 26, 1
  10              		.eabi_attribute 30, 1
  11              		.eabi_attribute 34, 1
  12              		.eabi_attribute 18, 4
  13              		.thumb
  14              		.syntax unified
  15              		.file	"main.c"
  16              		.text
  17              	.Ltext0:
  18              		.cfi_sections	.debug_frame
  19              		.syntax unified
  20              		.global _printf_float
  21              		.thumb
  22              		.syntax unified
  23              		.section	.text.USBUARTH_Maintain_Configuration,"ax",%progbits
  24              		.align	2
  25              		.global	USBUARTH_Maintain_Configuration
  26              		.thumb
  27              		.thumb_func
  28              		.type	USBUARTH_Maintain_Configuration, %function
  29              	USBUARTH_Maintain_Configuration:
  30              	.LFB64:
  31              		.file 1 "USBUART_Helpers.h"
   1:USBUART_Helpers.h **** #include "project.h"
   2:USBUART_Helpers.h **** #include "stdio.h"
   3:USBUART_Helpers.h **** 
   4:USBUART_Helpers.h **** #if defined (__GNUC__)
   5:USBUART_Helpers.h **** 	/* Add an explicit reference to the floating point printf library */
   6:USBUART_Helpers.h **** 	/* to allow usage of the floating point conversion specifiers. */
   7:USBUART_Helpers.h **** 	/* This is not linked in by default with the newlib-nano library. */
   8:USBUART_Helpers.h **** 	asm (".global _printf_float");
   9:USBUART_Helpers.h **** #endif
  10:USBUART_Helpers.h **** 
  11:USBUART_Helpers.h **** // The buffer size is equal to the maximum packet size of the IN and OUT bulk endpoints.
  12:USBUART_Helpers.h **** #define USBUART_BUFFER_SIZE	(64u)
  13:USBUART_Helpers.h **** #define LINE_STR_LENGTH		(20u)
  14:USBUART_Helpers.h **** 
  15:USBUART_Helpers.h **** 
  16:USBUART_Helpers.h **** void USBUARTH_Maintain_Configuration() {
  32              		.loc 1 16 0
  33              		.cfi_startproc
  34              		@ args = 0, pretend = 0, frame = 0
  35              		@ frame_needed = 0, uses_anonymous_args = 0
  36 0000 08B5     		push	{r3, lr}
  37              		.cfi_def_cfa_offset 8
  38              		.cfi_offset 3, -8
  39              		.cfi_offset 14, -4
  40              	.LVL0:
  17:USBUART_Helpers.h **** 	unsigned long tries = 0;
ARM GAS  C:\Users\FRANKL~1\AppData\Local\Temp\ccnobXgu.s 			page 2


  18:USBUART_Helpers.h **** 	
  19:USBUART_Helpers.h **** 	do {
  20:USBUART_Helpers.h **** 		// Host can send double SET_INTERFACE request.
  21:USBUART_Helpers.h **** 		if (USBUART_IsConfigurationChanged()) {
  41              		.loc 1 21 0
  42 0002 FFF7FEFF 		bl	USBUART_IsConfigurationChanged
  43              	.LVL1:
  44 0006 20B1     		cbz	r0, .L2
  22:USBUART_Helpers.h **** 			// Initialize IN endpoints when device is configured.
  23:USBUART_Helpers.h **** 			if (USBUART_GetConfiguration()) {
  45              		.loc 1 23 0
  46 0008 FFF7FEFF 		bl	USBUART_GetConfiguration
  47              	.LVL2:
  48 000c 08B1     		cbz	r0, .L2
  24:USBUART_Helpers.h **** 				// Enumeration is done, enable OUT endpoint to receive data from host.
  25:USBUART_Helpers.h **** 				USBUART_CDC_Init();
  49              		.loc 1 25 0
  50 000e FFF7FEFF 		bl	USBUART_CDC_Init
  51              	.LVL3:
  52              	.L2:
  26:USBUART_Helpers.h **** 			}
  27:USBUART_Helpers.h **** 		}
  28:USBUART_Helpers.h **** 		
  29:USBUART_Helpers.h **** 		tries++;
  30:USBUART_Helpers.h **** 	// Keep trying until USB CDC device is configured
  31:USBUART_Helpers.h **** 	} while (!USBUART_GetConfiguration() && tries < 1);
  53              		.loc 1 31 0
  54 0012 FFF7FEFF 		bl	USBUART_GetConfiguration
  55              	.LVL4:
  56 0016 08BD     		pop	{r3, pc}
  57              		.cfi_endproc
  58              	.LFE64:
  59              		.size	USBUARTH_Maintain_Configuration, .-USBUARTH_Maintain_Configuration
  60              		.section	.text.USBUARTH_DataIsReady,"ax",%progbits
  61              		.align	2
  62              		.global	USBUARTH_DataIsReady
  63              		.thumb
  64              		.thumb_func
  65              		.type	USBUARTH_DataIsReady, %function
  66              	USBUARTH_DataIsReady:
  67              	.LFB65:
  32:USBUART_Helpers.h **** }
  33:USBUART_Helpers.h **** 
  34:USBUART_Helpers.h **** uint8 USBUARTH_DataIsReady() {
  68              		.loc 1 34 0
  69              		.cfi_startproc
  70              		@ args = 0, pretend = 0, frame = 0
  71              		@ frame_needed = 0, uses_anonymous_args = 0
  72 0000 08B5     		push	{r3, lr}
  73              		.cfi_def_cfa_offset 8
  74              		.cfi_offset 3, -8
  75              		.cfi_offset 14, -4
  35:USBUART_Helpers.h **** 	USBUARTH_Maintain_Configuration();
  76              		.loc 1 35 0
  77 0002 FFF7FEFF 		bl	USBUARTH_Maintain_Configuration
  78              	.LVL5:
  36:USBUART_Helpers.h **** 	
ARM GAS  C:\Users\FRANKL~1\AppData\Local\Temp\ccnobXgu.s 			page 3


  37:USBUART_Helpers.h **** 	return USBUART_GetConfiguration() && USBUART_DataIsReady();
  79              		.loc 1 37 0
  80 0006 FFF7FEFF 		bl	USBUART_GetConfiguration
  81              	.LVL6:
  82 000a 20B1     		cbz	r0, .L6
  83              		.loc 1 37 0 is_stmt 0 discriminator 1
  84 000c FFF7FEFF 		bl	USBUART_DataIsReady
  85              	.LVL7:
  86 0010 18B1     		cbz	r0, .L7
  87              		.loc 1 37 0
  88 0012 0120     		movs	r0, #1
  89 0014 08BD     		pop	{r3, pc}
  90              	.L6:
  91 0016 0020     		movs	r0, #0
  92 0018 08BD     		pop	{r3, pc}
  93              	.L7:
  94 001a 0020     		movs	r0, #0
  38:USBUART_Helpers.h **** }
  95              		.loc 1 38 0 is_stmt 1
  96 001c 08BD     		pop	{r3, pc}
  97              		.cfi_endproc
  98              	.LFE65:
  99              		.size	USBUARTH_DataIsReady, .-USBUARTH_DataIsReady
 100 001e 00BF     		.section	.text.CommunicationHandlerISR,"ax",%progbits
 101              		.align	2
 102              		.global	CommunicationHandlerISR
 103              		.thumb
 104              		.thumb_func
 105              		.type	CommunicationHandlerISR, %function
 106              	CommunicationHandlerISR:
 107              	.LFB108:
 108              		.file 2 "main.c"
   1:main.c        **** #include <stdlib.h>
   2:main.c        **** #include <stdio.h>
   3:main.c        **** #include "project.h"
   4:main.c        **** #include "USBUART_Helpers.h"
   5:main.c        **** 
   6:main.c        **** 
   7:main.c        **** struct Selector_I2C_Struct {
   8:main.c        **** 	struct {
   9:main.c        **** 		uint8 subAddress;
  10:main.c        **** 		uint8 data[126];
  11:main.c        **** 	} write;
  12:main.c        **** 	struct {
  13:main.c        **** 		uint8 subAddress;
  14:main.c        **** 		uint8 data[126];
  15:main.c        **** 	} read;
  16:main.c        **** 	uint8 busAddress;
  17:main.c        **** };
  18:main.c        **** 
  19:main.c        **** 
  20:main.c        **** // Globals ----------------------------------------------
  21:main.c        **** #define SELECTOR_COUNT (4u)
  22:main.c        **** #define INTERMEDIATE_COUNT (4u)
  23:main.c        **** #define CONTACT_COUNT (64u)
  24:main.c        **** #define CHANNEL_COUNT (34u)
  25:main.c        **** #define CONTACT_CONNECT_CODE (0xC0u)
ARM GAS  C:\Users\FRANKL~1\AppData\Local\Temp\ccnobXgu.s 			page 4


  26:main.c        **** #define CONTACT_DISCONNECT_CODE (0xD1u)
  27:main.c        **** #define COMPLIANCE_CURRENT_LIMIT (10e-6)
  28:main.c        **** 
  29:main.c        **** struct Selector_I2C_Struct selectors[SELECTOR_COUNT];
  30:main.c        **** char TransmitBuffer[USBUART_BUFFER_SIZE];
  31:main.c        **** 
  32:main.c        **** volatile uint8 newData = 0;
  33:main.c        **** volatile uint8 G_Stop = 0;
  34:main.c        **** volatile uint8 G_Break = 0;
  35:main.c        **** volatile uint8 G_Pause = 0;
  36:main.c        **** 
  37:main.c        **** volatile char UART_Receive_Buffer[USBUART_BUFFER_SIZE];
  38:main.c        **** volatile uint8 UART_Rx_Position;
  39:main.c        **** 
  40:main.c        **** volatile char USBUART_Receive_Buffer[USBUART_BUFFER_SIZE];
  41:main.c        **** volatile uint8 USBUART_Rx_Position;
  42:main.c        **** 
  43:main.c        **** uint8 Compliance_Reached;
  44:main.c        **** int16 Vgs_Index_Goal_Relative;
  45:main.c        **** int16 Vds_Index_Goal_Relative;
  46:main.c        **** 
  47:main.c        **** uint32 Current_Measurement_Sample_Count;
  48:main.c        **** 
  49:main.c        **** void Setup_Selector_I2C_Struct(struct Selector_I2C_Struct *selector) {
  50:main.c        **** 	selector->write.subAddress = 1;
  51:main.c        **** 	selector->read.subAddress = sizeof(selector->write) + 1;
  52:main.c        **** 	
  53:main.c        **** 	for (uint16 i = 0; i < sizeof(selector->write.data); i++) {
  54:main.c        **** 		selector->write.data[i] = i + 6;
  55:main.c        **** 	}
  56:main.c        **** 	for (uint16 i = 0; i < sizeof(selector->read.data); i++) {
  57:main.c        **** 		selector->read.data[i] = 0xbe;
  58:main.c        **** 	}
  59:main.c        **** }
  60:main.c        **** 
  61:main.c        **** void Update_Selector(uint8 selectori) {
  62:main.c        **** 	sprintf(TransmitBuffer, "Updating Selector %u\r\n", selectori + 1);
  63:main.c        **** 	USBUARTH_Send(TransmitBuffer, strlen(TransmitBuffer));
  64:main.c        **** 	UART_1_PutString(TransmitBuffer);
  65:main.c        **** 	
  66:main.c        **** 	struct Selector_I2C_Struct* selector = &selectors[selectori];
  67:main.c        **** 	
  68:main.c        **** 	I2C_1_MasterClearStatus();
  69:main.c        **** 	I2C_1_MasterWriteBuf(selector->busAddress, (uint8 *) &selector->write, sizeof(selector->write), I2
  70:main.c        **** 	for (uint32 i = 0; i < 4e5; i++) {
  71:main.c        **** 		if ((I2C_1_MasterStatus() & I2C_1_MSTAT_WR_CMPLT)) break;
  72:main.c        **** 		if (i >= 4e5 - 1) {
  73:main.c        **** 			sprintf(TransmitBuffer, "I2C Transfer Error! Type: Timeout\r\n");
  74:main.c        **** 			USBUARTH_Send(TransmitBuffer, strlen(TransmitBuffer));
  75:main.c        **** 			UART_1_PutString(TransmitBuffer);
  76:main.c        **** 			I2C_1_Stop();
  77:main.c        **** 			I2C_1_Start();
  78:main.c        **** 		}
  79:main.c        **** 	}
  80:main.c        **** 	
  81:main.c        **** 	// I2C_1_MasterClearStatus();
  82:main.c        **** 	// I2C_1_MasterWriteBuf(selector->busAddress, (uint8 *) &selector->read.subAddress, 1, I2C_1_MODE_
ARM GAS  C:\Users\FRANKL~1\AppData\Local\Temp\ccnobXgu.s 			page 5


  83:main.c        **** 	// for (uint32 i - 0; i < 4e5; i++) {
  84:main.c        **** 	// 	if ((I2C_1_MasterStatus() & I2C_1_MSTAT_WR_CMPLT)) break;
  85:main.c        **** 	// }
  86:main.c        **** 	
  87:main.c        **** 	// I2C_1_MasterReadBuf(selector->busAddress, (uint8 *) &selector->read.data, sizeof(selector->read
  88:main.c        **** 	// for (uint32 i - 0; i < 4e5; i++) {
  89:main.c        **** 	// 	if ((I2C_1_MasterStatus() & I2C_1_MSTAT_RD_CMPLT)) break;
  90:main.c        **** 	// }
  91:main.c        **** 	
  92:main.c        **** 	if (I2C_1_MasterStatus() & I2C_1_MSTAT_ERR_XFER) {
  93:main.c        **** 		sprintf(TransmitBuffer, "I2C Transfer Error! ");
  94:main.c        **** 		USBUARTH_Send(TransmitBuffer, strlen(TransmitBuffer));
  95:main.c        **** 		UART_1_PutString(TransmitBuffer);
  96:main.c        **** 		
  97:main.c        **** 		if (I2C_1_MasterStatus() & I2C_1_MSTAT_ERR_ADDR_NAK) {
  98:main.c        **** 			sprintf(TransmitBuffer, "Type: NAK");
  99:main.c        **** 			USBUARTH_Send(TransmitBuffer, strlen(TransmitBuffer));
 100:main.c        **** 			UART_1_PutString(TransmitBuffer);
 101:main.c        **** 		}
 102:main.c        **** 		
 103:main.c        **** 		sprintf(TransmitBuffer, "\r\n");
 104:main.c        **** 		USBUARTH_Send(TransmitBuffer, strlen(TransmitBuffer));
 105:main.c        **** 		UART_1_PutString(TransmitBuffer);
 106:main.c        **** 	}
 107:main.c        **** 	
 108:main.c        **** 	sprintf(TransmitBuffer, "Updated Selector %u\r\n", selectori + 1);
 109:main.c        **** 	USBUARTH_Send(TransmitBuffer, strlen(TransmitBuffer));
 110:main.c        **** 	UART_1_PutString(TransmitBuffer);
 111:main.c        **** }
 112:main.c        **** 
 113:main.c        **** void Setup_Selectors() {
 114:main.c        **** 	for (uint8 i = 0; i < SELECTOR_COUNT; i++) Setup_Selector_I2C_Struct(&selectors[i]);
 115:main.c        **** 	
 116:main.c        **** 	selectors[0].busAddress = 0x66;
 117:main.c        **** 	selectors[1].busAddress = 0x11;
 118:main.c        **** 	selectors[2].busAddress = 0x44;
 119:main.c        **** 	selectors[3].busAddress = 0x22;
 120:main.c        **** }
 121:main.c        **** 
 122:main.c        **** void Connect_Channel_On_Intermediate(uint8 channel, uint8 intermediate) {
 123:main.c        **** 	channel--;
 124:main.c        **** 	intermediate--;
 125:main.c        **** 	
 126:main.c        **** 	if (channel >= CHANNEL_COUNT) return;
 127:main.c        **** 	if (intermediate >= INTERMEDIATE_COUNT) return;
 128:main.c        **** 	
 129:main.c        **** 	selectors[intermediate].write.data[channel] = CONTACT_CONNECT_CODE;
 130:main.c        **** 	Update_Selector(intermediate);
 131:main.c        **** }
 132:main.c        **** 
 133:main.c        **** void Connect_Contact_To_Intermediate(uint8 contact, uint8 intermediate) {
 134:main.c        **** 	contact--;
 135:main.c        **** 	intermediate--;
 136:main.c        **** 	
 137:main.c        **** 	if (contact >= CONTACT_COUNT) return;
 138:main.c        **** 	if (intermediate >= INTERMEDIATE_COUNT) return;
 139:main.c        **** 	
ARM GAS  C:\Users\FRANKL~1\AppData\Local\Temp\ccnobXgu.s 			page 6


 140:main.c        **** 	uint8 offset = 0;
 141:main.c        **** 	if (intermediate >= INTERMEDIATE_COUNT/2) {
 142:main.c        **** 		offset = CONTACT_COUNT/2;
 143:main.c        **** 		if (contact < CONTACT_COUNT/2) return;
 144:main.c        **** 	} else {
 145:main.c        **** 		if (contact >= CONTACT_COUNT/2) return;
 146:main.c        **** 	}
 147:main.c        **** 	
 148:main.c        **** 	Connect_Channel_On_Intermediate(contact - offset + 1, intermediate + 1);
 149:main.c        **** }
 150:main.c        **** 
 151:main.c        **** void Disconnect_Contact_From_Intermediate(uint8 contact, uint8 intermediate) {
 152:main.c        **** 	contact--;
 153:main.c        **** 	intermediate--;
 154:main.c        **** 	
 155:main.c        **** 	if (contact >= CONTACT_COUNT) return;
 156:main.c        **** 	if (intermediate >= INTERMEDIATE_COUNT) return;
 157:main.c        **** 	
 158:main.c        **** 	uint8 offset = 0;
 159:main.c        **** 	if (intermediate >= INTERMEDIATE_COUNT/2) {
 160:main.c        **** 		offset = CONTACT_COUNT/2;
 161:main.c        **** 		if (contact < CONTACT_COUNT/2) return;
 162:main.c        **** 	} else {
 163:main.c        **** 		if (contact >= CONTACT_COUNT/2) return;
 164:main.c        **** 	}
 165:main.c        **** 	
 166:main.c        **** 	selectors[intermediate].write.data[contact - offset] = CONTACT_DISCONNECT_CODE;
 167:main.c        **** 	
 168:main.c        **** 	Update_Selector(intermediate);
 169:main.c        **** }
 170:main.c        **** 
 171:main.c        **** void Disconnect_Contact_From_All_Intermediates(uint8 contact) {
 172:main.c        **** 	contact--;
 173:main.c        **** 	
 174:main.c        **** 	for (uint8 intermediate = 0; intermediate < INTERMEDIATE_COUNT; intermediate++) {
 175:main.c        **** 		
 176:main.c        **** 		uint8 offset = 0;
 177:main.c        **** 		if (intermediate >= INTERMEDIATE_COUNT/2) {
 178:main.c        **** 			offset = CONTACT_COUNT/2;
 179:main.c        **** 			if (contact < CONTACT_COUNT/2) continue;
 180:main.c        **** 		} else {
 181:main.c        **** 			if (contact >= CONTACT_COUNT/2) continue;
 182:main.c        **** 		}
 183:main.c        **** 		
 184:main.c        **** 		selectors[intermediate].write.data[contact - offset] = CONTACT_DISCONNECT_CODE;
 185:main.c        **** 		
 186:main.c        **** 		Update_Selector(intermediate);
 187:main.c        **** 	}
 188:main.c        **** }
 189:main.c        **** 
 190:main.c        **** void Disconnect_All_Contacts_From_All_Intermediates() {
 191:main.c        **** 	for (uint8 intermediate = 0; intermediate < INTERMEDIATE_COUNT/**//2; intermediate++) {
 192:main.c        **** 		for (uint8 contact = 0; contact < CONTACT_COUNT/2; contact++) {
 193:main.c        **** 			selectors[intermediate].write.data[contact] = CONTACT_DISCONNECT_CODE;
 194:main.c        **** 		}
 195:main.c        **** 		
 196:main.c        **** 		Update_Selector(intermediate);
ARM GAS  C:\Users\FRANKL~1\AppData\Local\Temp\ccnobXgu.s 			page 7


 197:main.c        **** 	}
 198:main.c        **** }
 199:main.c        **** 
 200:main.c        **** void Disconnect_All_Contacts_From_Intermediate(uint8 intermediate) {
 201:main.c        **** 	intermediate--;
 202:main.c        **** 	
 203:main.c        **** 	for (uint8 contact = 0; contact < CONTACT_COUNT/2; contact++) {
 204:main.c        **** 		selectors[intermediate].write.data[contact] = CONTACT_DISCONNECT_CODE;
 205:main.c        **** 	}
 206:main.c        **** 	
 207:main.c        **** 	Update_Selector(intermediate);
 208:main.c        **** }
 209:main.c        **** 
 210:main.c        **** void Connect_Intermediate(uint8 intermediate) {
 211:main.c        **** 	switch (intermediate) {
 212:main.c        **** 		case 1: Connect_Channel_On_Intermediate(33, 1); break;
 213:main.c        **** 		case 2: Connect_Channel_On_Intermediate(33, 2); break;
 214:main.c        **** 		case 3: Connect_Channel_On_Intermediate(33, 3); break;
 215:main.c        **** 		case 4: Connect_Channel_On_Intermediate(33, 4); break;
 216:main.c        **** 		default: return;
 217:main.c        **** 	}
 218:main.c        **** }
 219:main.c        **** 
 220:main.c        **** void Connect_Intermediates() {
 221:main.c        **** 	for (uint8 i = 1; i <= INTERMEDIATE_COUNT/**//2; i++) {
 222:main.c        **** 		Connect_Intermediate(i);
 223:main.c        **** 	}
 224:main.c        **** }
 225:main.c        **** 
 226:main.c        **** // Measure Delta-Sigma ADC
 227:main.c        **** void ADC_Measure_uV(int32* average, int32* standardDeviation, uint32 sampleCount) {
 228:main.c        **** 	int32 ADC_Result = 0;
 229:main.c        **** 	int32 ADC_SD = 0;
 230:main.c        **** 	
 231:main.c        **** 	for (uint32 i = 1; i <= sampleCount; i++) {
 232:main.c        **** 		ADC_DelSig_1_StartConvert();
 233:main.c        **** 		while (!ADC_DelSig_1_IsEndConversion(ADC_DelSig_1_RETURN_STATUS));
 234:main.c        **** 		//int16 ADC_Result = ADC_DelSig_1_CountsTo_mVolts(ADC_DelSig_1_GetResult16());
 235:main.c        **** 		int32 ADC_Result_Current = ADC_DelSig_1_CountsTo_uVolts(ADC_DelSig_1_GetResult32());
 236:main.c        **** 		
 237:main.c        **** 		ADC_SD += (float)(i-1)/(float)(i)*(ADC_Result_Current - ADC_Result)*(ADC_Result_Current - ADC_Res
 238:main.c        **** 		ADC_Result += ((float)ADC_Result_Current - (float)ADC_Result)/(float)i;
 239:main.c        **** 	}
 240:main.c        **** 	
 241:main.c        **** 	*average = ADC_Result;
 242:main.c        **** 	*standardDeviation = ADC_SD;
 243:main.c        **** }
 244:main.c        **** 
 245:main.c        **** // Measure SAR1 ADC
 246:main.c        **** void SAR1_Measure_V(int32* average, int32* standardDeviation, uint32 sampleCount) {
 247:main.c        **** 	int32 SAR_Result = 0;
 248:main.c        **** 	int32 SAR_SD = 0;
 249:main.c        **** 	
 250:main.c        **** 	for (uint32 i = 1; i <= sampleCount; i++) {
 251:main.c        **** 		ADC_SAR_1_StartConvert();
 252:main.c        **** 		while (!ADC_SAR_1_IsEndConversion(ADC_SAR_1_RETURN_STATUS));
 253:main.c        **** 		
ARM GAS  C:\Users\FRANKL~1\AppData\Local\Temp\ccnobXgu.s 			page 8


 254:main.c        **** 		int32 SAR1_Result_Current = ADC_SAR_1_CountsTo_uVolts(ADC_SAR_1_GetResult16());
 255:main.c        **** 		
 256:main.c        **** 		SAR_SD += (float)(i-1)/(float)(i)*(SAR1_Result_Current - SAR_Result)*(SAR1_Result_Current - SAR_R
 257:main.c        **** 		SAR_Result += ((float)SAR1_Result_Current - (float)SAR_Result)/(float)i;
 258:main.c        **** 	}
 259:main.c        **** 	
 260:main.c        **** 	*average = SAR_Result;
 261:main.c        **** 	*standardDeviation = SAR_SD;
 262:main.c        **** }
 263:main.c        **** 
 264:main.c        **** // Measure SAR2 ADC
 265:main.c        **** void SAR2_Measure_V(int32* average, int32* standardDeviation, uint32 sampleCount) {
 266:main.c        **** 	int32 SAR_Result = 0;
 267:main.c        **** 	int32 SAR_SD = 0;
 268:main.c        **** 	
 269:main.c        **** 	for (uint32 i = 1; i <= sampleCount; i++) {
 270:main.c        **** 		ADC_SAR_2_StartConvert();
 271:main.c        **** 		while (!ADC_SAR_2_IsEndConversion(ADC_SAR_2_RETURN_STATUS));
 272:main.c        **** 		
 273:main.c        **** 		int32 SAR2_Result_Current = ADC_SAR_2_CountsTo_uVolts(ADC_SAR_2_GetResult16());
 274:main.c        **** 		
 275:main.c        **** 		SAR_SD += (float)(i-1)/(float)(i)*(SAR2_Result_Current - SAR_Result)*(SAR2_Result_Current - SAR_R
 276:main.c        **** 		SAR_Result += ((float)SAR2_Result_Current - (float)SAR_Result)/(float)i;
 277:main.c        **** 	}
 278:main.c        **** 	
 279:main.c        **** 	*average = SAR_Result;
 280:main.c        **** 	*standardDeviation = SAR_SD;
 281:main.c        **** }
 282:main.c        **** 
 283:main.c        **** // Measure current and compare it to some compliance value
 284:main.c        **** void Measure_Current_Vss(float* currentAverageIn, float* currentStdDevIn, uint32 sampleCount) {
 285:main.c        **** 	Compliance_Reached = 0;
 286:main.c        **** 	
 287:main.c        **** 	// Voltage and its standard deviation (in uV)
 288:main.c        **** 	int32 voltage = 0;
 289:main.c        **** 	int32 voltageSD = 0;
 290:main.c        **** 	
 291:main.c        **** 	// Current and its standard deviation (in A)
 292:main.c        **** 	float currentNow = 0;
 293:main.c        **** 	
 294:main.c        **** 	float currentAverage = 0;
 295:main.c        **** 	float currentStdDev = 0;
 296:main.c        **** 	
 297:main.c        **** 	float TIA_Feedback_R = 20e3;
 298:main.c        **** 	float unitConversion = -1.0e-6/TIA_Feedback_R;
 299:main.c        **** 	
 300:main.c        **** 	// Allow for the first measurement (normally not correct) to take place
 301:main.c        **** 	ADC_Measure_uV(&voltage, &voltageSD, 3);
 302:main.c        **** 	
 303:main.c        **** 	// Now take the real measurement
 304:main.c        **** 	for (uint32 i = 1; i <= sampleCount; i++) {
 305:main.c        **** 		ADC_Measure_uV(&voltage, &voltageSD, 1);
 306:main.c        **** 		
 307:main.c        **** 		currentNow = unitConversion*voltage;
 308:main.c        **** 		
 309:main.c        **** 		if (abs(currentNow) > COMPLIANCE_CURRENT_LIMIT) {
 310:main.c        **** 			Compliance_Reached += 1;
ARM GAS  C:\Users\FRANKL~1\AppData\Local\Temp\ccnobXgu.s 			page 9


 311:main.c        **** 			break;
 312:main.c        **** 		} else {
 313:main.c        **** 			Compliance_Reached = 0;
 314:main.c        **** 		}
 315:main.c        **** 		
 316:main.c        **** 		currentStdDev += ((float)i-1.0)/(float)(i)*(currentNow - currentAverage)*(currentNow - currentAve
 317:main.c        **** 		currentAverage += (currentNow - currentAverage)/(float)i;
 318:main.c        **** 	}
 319:main.c        **** 	
 320:main.c        **** 	*currentAverageIn = currentAverage;
 321:main.c        **** 	*currentStdDevIn = currentStdDev;
 322:main.c        **** }
 323:main.c        **** 
 324:main.c        **** uint8 At_Compliance() {
 325:main.c        **** 	Compliance_Reached = 0;
 326:main.c        **** 	
 327:main.c        **** 	float current = 0;
 328:main.c        **** 	float currentSD = 0;
 329:main.c        **** 	
 330:main.c        **** 	Measure_Current_Vss(&current, &currentSD, 3);
 331:main.c        **** 	
 332:main.c        **** 	if (abs(current) > COMPLIANCE_CURRENT_LIMIT) {
 333:main.c        **** 		Compliance_Reached = 1;
 334:main.c        **** 		return 1;
 335:main.c        **** 	}
 336:main.c        **** 	
 337:main.c        **** 	return 0;
 338:main.c        **** }
 339:main.c        **** 
 340:main.c        **** void Handle_Compliance_Breach() {
 341:main.c        **** 	uint8 istart = VDAC_Vds_Data;
 342:main.c        **** 	uint8 istop = VDAC_Ref_Data;
 343:main.c        **** 	int8 increment = 1;
 344:main.c        **** 	if (istart < istop) increment = -1;
 345:main.c        **** 	
 346:main.c        **** 	for (uint8 i = istart; i != istop; i += increment) {
 347:main.c        **** 		VDAC_Vds_SetValue(i);
 348:main.c        **** 		
 349:main.c        **** 		if (!At_Compliance()) return;
 350:main.c        **** 	}
 351:main.c        **** 	
 352:main.c        **** 	istart = VDAC_Vgs_Data;
 353:main.c        **** 	istop = VDAC_Ref_Data;
 354:main.c        **** 	increment = 1;
 355:main.c        **** 	if (istart < istop) increment = -1;
 356:main.c        **** 	
 357:main.c        **** 	for (uint8 i = istart; i != istop; i += increment) {
 358:main.c        **** 		VDAC_Vgs_SetValue(i);
 359:main.c        **** 		
 360:main.c        **** 		if (!At_Compliance()) return;
 361:main.c        **** 	}
 362:main.c        **** 	
 363:main.c        **** 	// To do: Should disconnect something or take some other action at this point since still at compl
 364:main.c        **** }
 365:main.c        **** 
 366:main.c        **** // Get the reference voltage in volts
 367:main.c        **** float Get_Ref() {
ARM GAS  C:\Users\FRANKL~1\AppData\Local\Temp\ccnobXgu.s 			page 10


 368:main.c        **** 	float result = 4.080/255.0*VDAC_Ref_Data;
 369:main.c        **** 	if (VDAC_Ref_CR0 & (VDAC_Ref_RANGE_1V & VDAC_Ref_RANGE_MASK)) {
 370:main.c        **** 		result = 1.020/255.0*VDAC_Ref_Data;
 371:main.c        **** 	}
 372:main.c        **** 	return result;
 373:main.c        **** }
 374:main.c        **** 
 375:main.c        **** // Get Vgs in volts
 376:main.c        **** float Get_Vgs() {
 377:main.c        **** 	float result = 4.080/255.0*VDAC_Vgs_Data - Get_Ref();
 378:main.c        **** 	if (VDAC_Vgs_CR0 & (VDAC_Vgs_RANGE_1V & VDAC_Vgs_RANGE_MASK)) {
 379:main.c        **** 		result = 1.020/255.0*VDAC_Vgs_Data - Get_Ref();
 380:main.c        **** 	}
 381:main.c        **** 	return result;
 382:main.c        **** }
 383:main.c        **** 
 384:main.c        **** // Get Vds in volts
 385:main.c        **** float Get_Vds() {
 386:main.c        **** 	float result = 4.080/255.0*VDAC_Vds_Data - Get_Ref();
 387:main.c        **** 	if (VDAC_Vds_CR0 & (VDAC_Vds_RANGE_1V & VDAC_Vds_RANGE_MASK)) {
 388:main.c        **** 		result = 1.020/255.0*VDAC_Vds_Data - Get_Ref();
 389:main.c        **** 	}
 390:main.c        **** 	return result;
 391:main.c        **** }
 392:main.c        **** 
 393:main.c        **** 
 394:main.c        **** // ****************************
 395:main.c        **** // Set the raw value of Vds
 396:main.c        **** void Set_Vds_Raw(uint8 value) {
 397:main.c        **** 	Vds_Index_Goal_Relative = (int16)value - (int16)VDAC_Ref_Data;
 398:main.c        **** 	
 399:main.c        **** 	uint8 istart = VDAC_Vds_Data;
 400:main.c        **** 	int8 increment = 1;
 401:main.c        **** 	if (istart > value) increment = -1;
 402:main.c        **** 	
 403:main.c        **** 	for (uint8 i = 0; i != value; i += increment) {
 404:main.c        **** 		if (At_Compliance()) {
 405:main.c        **** 			for (uint8 j = i; j != istart; j -= increment) {
 406:main.c        **** 				VDAC_Vds_SetValue(j);
 407:main.c        **** 				
 408:main.c        **** 				if (!At_Compliance()) return;
 409:main.c        **** 			}
 410:main.c        **** 			if (At_Compliance()) {
 411:main.c        **** 				Handle_Compliance_Breach();
 412:main.c        **** 				return;
 413:main.c        **** 			}
 414:main.c        **** 		}
 415:main.c        **** 		
 416:main.c        **** 		VDAC_Vds_SetValue(i);
 417:main.c        **** 	}
 418:main.c        **** }
 419:main.c        **** 
 420:main.c        **** // Set the raw value of Vgs
 421:main.c        **** void Set_Vgs_Raw(uint8 value) {
 422:main.c        **** 	Vgs_Index_Goal_Relative = (int16)value - (int16)VDAC_Ref_Data;
 423:main.c        **** 	
 424:main.c        **** 	int8 increment = 1;
ARM GAS  C:\Users\FRANKL~1\AppData\Local\Temp\ccnobXgu.s 			page 11


 425:main.c        **** 	uint8 istart = VDAC_Vgs_Data;
 426:main.c        **** 	if (value < istart) increment = -1;
 427:main.c        **** 	
 428:main.c        **** 	for (uint8 i = istart; i != value; i += increment) {
 429:main.c        **** 		if (At_Compliance()) {
 430:main.c        **** 			for (uint8 j = i; j != istart; j -= increment) {
 431:main.c        **** 				VDAC_Vgs_SetValue(j);
 432:main.c        **** 				
 433:main.c        **** 				if (!At_Compliance()) return;
 434:main.c        **** 			}
 435:main.c        **** 			if (At_Compliance()) {
 436:main.c        **** 				Handle_Compliance_Breach();
 437:main.c        **** 				return;
 438:main.c        **** 			}
 439:main.c        **** 		}
 440:main.c        **** 		
 441:main.c        **** 		VDAC_Vgs_SetValue(i);
 442:main.c        **** 	}
 443:main.c        **** }
 444:main.c        **** 
 445:main.c        **** // Set the raw value of the reference voltage
 446:main.c        **** void Set_Ref_Raw(uint8 value) {
 447:main.c        **** 	if (value < 6) value = 6;
 448:main.c        **** 	
 449:main.c        **** 	int8 increment = 1;
 450:main.c        **** 	if (value < VDAC_Ref_Data) increment = -1;
 451:main.c        **** 	
 452:main.c        **** 	for (uint8 i = VDAC_Ref_Data; i != value; i += increment) {
 453:main.c        **** 		
 454:main.c        **** 		if (At_Compliance()) return;
 455:main.c        **** 		
 456:main.c        **** 		int16 new_Vgs = (int16)i + Vgs_Index_Goal_Relative;
 457:main.c        **** 		int16 new_Vds = (int16)i + Vds_Index_Goal_Relative;
 458:main.c        **** 		
 459:main.c        **** 		if (new_Vgs > 255) new_Vgs = 255;
 460:main.c        **** 		if (new_Vds > 255) new_Vds = 255;
 461:main.c        **** 		
 462:main.c        **** 		if (new_Vgs < 0) new_Vgs = 0;
 463:main.c        **** 		if (new_Vds < 0) new_Vds = 0;
 464:main.c        **** 		
 465:main.c        **** 		VDAC_Ref_SetValue(i);
 466:main.c        **** 		VDAC_Vgs_SetValue(new_Vgs);
 467:main.c        **** 		VDAC_Vds_SetValue(new_Vds);
 468:main.c        **** 	}
 469:main.c        **** }
 470:main.c        **** // ****************************
 471:main.c        **** 
 472:main.c        **** // Set Vds and move the reference voltage if necessary
 473:main.c        **** void Set_Vds_Rel(int16 value) {
 474:main.c        **** 	if (value > 255) value = 255;
 475:main.c        **** 	if (value < -255) value = -255;
 476:main.c        **** 	
 477:main.c        **** 	int16 absolute = (int16)value + (int16)VDAC_Ref_Data;
 478:main.c        **** 	
 479:main.c        **** 	if (absolute > 255) {
 480:main.c        **** 		Set_Ref_Raw(VDAC_Ref_Data - (absolute - 255));
 481:main.c        **** 		Set_Vds_Raw(255);
ARM GAS  C:\Users\FRANKL~1\AppData\Local\Temp\ccnobXgu.s 			page 12


 482:main.c        **** 	} else if (absolute < 0) {
 483:main.c        **** 		Set_Ref_Raw(VDAC_Ref_Data - absolute);
 484:main.c        **** 		Set_Vds_Raw(0);
 485:main.c        **** 	} else {
 486:main.c        **** 		Set_Vds_Raw(absolute);
 487:main.c        **** 	}
 488:main.c        **** 	
 489:main.c        **** 	Vds_Index_Goal_Relative = (int16)value;
 490:main.c        **** 	
 491:main.c        **** 	uint16 Vds_minRefRaw = Vds_Index_Goal_Relative > 0? 0: -Vds_Index_Goal_Relative;
 492:main.c        **** 	uint16 Vds_maxRefRaw = Vds_Index_Goal_Relative > 0? 255 - Vds_Index_Goal_Relative: 255;
 493:main.c        **** 	uint16 Vgs_minRefRaw = Vgs_Index_Goal_Relative > 0? 0: -Vgs_Index_Goal_Relative;
 494:main.c        **** 	uint16 Vgs_maxRefRaw = Vgs_Index_Goal_Relative > 0? 255 - Vgs_Index_Goal_Relative: 255;
 495:main.c        **** 	
 496:main.c        **** 	uint16 newRefRaw = VDAC_Ref_Data;
 497:main.c        **** 	
 498:main.c        **** 	if (newRefRaw < Vgs_minRefRaw) newRefRaw = Vgs_minRefRaw;
 499:main.c        **** 	if (newRefRaw > Vgs_maxRefRaw) newRefRaw = Vgs_maxRefRaw;
 500:main.c        **** 	if (newRefRaw < Vds_minRefRaw) newRefRaw = Vds_minRefRaw;
 501:main.c        **** 	if (newRefRaw > Vds_maxRefRaw) newRefRaw = Vds_maxRefRaw;
 502:main.c        **** 	
 503:main.c        **** 	Set_Ref_Raw(newRefRaw);
 504:main.c        **** }
 505:main.c        **** 
 506:main.c        **** // Set Vgs and move the reference voltage if necessary
 507:main.c        **** void Set_Vgs_Rel(int16 value) {
 508:main.c        **** 	if (value > 255) value = 255;
 509:main.c        **** 	if (value < -255) value = -255;
 510:main.c        **** 	
 511:main.c        **** 	int16 absolute = (int16)value + (int16)VDAC_Ref_Data;
 512:main.c        **** 	
 513:main.c        **** 	if (absolute > 255) {
 514:main.c        **** 		Set_Ref_Raw(VDAC_Ref_Data - (absolute - 255));
 515:main.c        **** 		Set_Vgs_Raw(255);
 516:main.c        **** 	} else if (absolute < 0) {
 517:main.c        **** 		Set_Ref_Raw(VDAC_Ref_Data - absolute);
 518:main.c        **** 		Set_Vgs_Raw(0);
 519:main.c        **** 	} else {
 520:main.c        **** 		Set_Vgs_Raw(absolute);
 521:main.c        **** 	}
 522:main.c        **** 	
 523:main.c        **** 	Vgs_Index_Goal_Relative = (int16)value;
 524:main.c        **** 	
 525:main.c        **** 	uint16 Vds_minRefRaw = Vds_Index_Goal_Relative > 0? 0: -Vds_Index_Goal_Relative;
 526:main.c        **** 	uint16 Vds_maxRefRaw = Vds_Index_Goal_Relative > 0? 255 - Vds_Index_Goal_Relative: 255;
 527:main.c        **** 	uint16 Vgs_minRefRaw = Vgs_Index_Goal_Relative > 0? 0: -Vgs_Index_Goal_Relative;
 528:main.c        **** 	uint16 Vgs_maxRefRaw = Vgs_Index_Goal_Relative > 0? 255 - Vgs_Index_Goal_Relative: 255;
 529:main.c        **** 	
 530:main.c        **** 	uint16 newRefRaw = VDAC_Ref_Data;
 531:main.c        **** 	
 532:main.c        **** 	if (newRefRaw < Vds_minRefRaw) newRefRaw = Vds_minRefRaw;
 533:main.c        **** 	if (newRefRaw > Vds_maxRefRaw) newRefRaw = Vds_maxRefRaw;
 534:main.c        **** 	if (newRefRaw < Vgs_minRefRaw) newRefRaw = Vgs_minRefRaw;
 535:main.c        **** 	if (newRefRaw > Vgs_maxRefRaw) newRefRaw = Vgs_maxRefRaw;
 536:main.c        **** 	
 537:main.c        **** 	Set_Ref_Raw(newRefRaw);
 538:main.c        **** }
ARM GAS  C:\Users\FRANKL~1\AppData\Local\Temp\ccnobXgu.s 			page 13


 539:main.c        **** // ****************************
 540:main.c        **** 
 541:main.c        **** // Set Vgs by volts (good for readability, but requires passing floats)
 542:main.c        **** void Set_Vgs(float voltage) {
 543:main.c        **** 	Set_Vgs_Rel((voltage/4.080)*255.0);
 544:main.c        **** }
 545:main.c        **** 
 546:main.c        **** // Set Vds by volts (good for readability, but requires passing floats)
 547:main.c        **** void Set_Vds(float voltage) {
 548:main.c        **** 	Set_Vds_Rel((voltage/4.080)*255.0);
 549:main.c        **** }
 550:main.c        **** // ****************************
 551:main.c        **** 
 552:main.c        **** // Set Vgs by mV (good for passing in integers instead of floats)
 553:main.c        **** void Set_Vgs_mV(float mV) {
 554:main.c        **** 	Set_Vgs(mV/1000.0);
 555:main.c        **** }
 556:main.c        **** 
 557:main.c        **** // Set Vds by mV (good for passing in integers instead of floats)
 558:main.c        **** void Set_Vds_mV(float mV) {
 559:main.c        **** 	Set_Vds(mV/1000.0);
 560:main.c        **** }
 561:main.c        **** // ****************************
 562:main.c        **** 
 563:main.c        **** // Set Vgs and Vds to 0
 564:main.c        **** void Zero_All_DACs() {
 565:main.c        **** 	Set_Vds_Raw(0);
 566:main.c        **** 	Set_Vgs_Raw(0);
 567:main.c        **** 	
 568:main.c        **** 	VDAC_Vds_SetValue(0);
 569:main.c        **** 	VDAC_Vgs_SetValue(0);
 570:main.c        **** }
 571:main.c        **** 
 572:main.c        **** // Take a measurement of the system (Id - from delta-sigma ADC, Vgs, Vds, SAR1 ADC, SAR2 ADC)
 573:main.c        **** void Measure(uint32 deltaSigmaSampleCount, uint32 SAR1_SampleCount, uint32 SAR2_SampleCount) {
 574:main.c        **** 	int32 IdsAverage = 0;
 575:main.c        **** 	int32 IdsStandardDeviation = 0;
 576:main.c        **** 	
 577:main.c        **** 	ADC_Measure_uV(&IdsAverage, &IdsStandardDeviation, deltaSigmaSampleCount);
 578:main.c        **** 	
 579:main.c        **** 	float IdsAverageAmps = -1e-6/20e3*IdsAverage;
 580:main.c        **** 	
 581:main.c        **** 	//ADC_SAR_1_StartConvert();
 582:main.c        **** 	//ADC_SAR_2_StartConvert();
 583:main.c        **** 	//while (!ADC_SAR_1_IsEndConversion(ADC_SAR_1_RETURN_STATUS));
 584:main.c        **** 	//while (!ADC_SAR_2_IsEndConversion(ADC_SAR_2_RETURN_STATUS));
 585:main.c        **** 	//float SAR1 = ADC_SAR_1_CountsTo_Volts(ADC_SAR_1_GetResult16());
 586:main.c        **** 	//float SAR2 = ADC_SAR_2_CountsTo_Volts(ADC_SAR_2_GetResult16());
 587:main.c        **** 	
 588:main.c        **** 	int32 SAR1_Average = 0;
 589:main.c        **** 	int32 SAR1_SD = 0;
 590:main.c        **** 	int32 SAR2_Average = 0;
 591:main.c        **** 	int32 SAR2_SD = 0;
 592:main.c        **** 
 593:main.c        **** 	SAR1_Measure_V(&SAR1_Average, &SAR1_SD, SAR1_SampleCount);
 594:main.c        **** 	SAR2_Measure_V(&SAR2_Average, &SAR2_SD, SAR2_SampleCount);
 595:main.c        **** 
ARM GAS  C:\Users\FRANKL~1\AppData\Local\Temp\ccnobXgu.s 			page 14


 596:main.c        **** 	float SAR1 = 1e-6*SAR1_Average;
 597:main.c        **** 	float SAR2 = 1e-6*SAR2_Average;
 598:main.c        **** 
 599:main.c        **** 	sprintf(TransmitBuffer, "[%e,%f,%f,%f,%u]\r\n", IdsAverageAmps, Get_Vgs(), Get_Vds(), SAR1, VDAC_R
 600:main.c        **** 	USBUARTH_Send(TransmitBuffer, strlen(TransmitBuffer));
 601:main.c        **** 	UART_1_PutString(TransmitBuffer);
 602:main.c        **** }
 603:main.c        **** 
 604:main.c        **** // Repeatedly take measurements of the system
 605:main.c        **** void Measure_Multiple(uint32 n) {
 606:main.c        **** 	for (uint32 i = 0; i < n; i++) {
 607:main.c        **** 		Measure(100, 1, 10);
 608:main.c        **** 	}
 609:main.c        **** }
 610:main.c        **** 
 611:main.c        **** // Take a basic gate sweep (hardcoded voltages, hardcoded number of data points)
 612:main.c        **** void Measure_Sweep() {
 613:main.c        **** 	VDAC_Vds_SetValue(90);
 614:main.c        **** 	VDAC_Vgs_SetValue(254);
 615:main.c        **** 	
 616:main.c        **** 	for (uint16 Vgsi = 0; Vgsi < 256; Vgsi++) {
 617:main.c        **** 		VDAC_Vgs_SetValue(Vgsi);
 618:main.c        **** 		Measure(100, 1, 1);
 619:main.c        **** 	}
 620:main.c        **** }
 621:main.c        **** 
 622:main.c        **** void Measure_Gate_Sweep(uint8 loop) {
 623:main.c        **** 	
 624:main.c        **** 	if (Vds_Index_Goal_Relative > 0) {
 625:main.c        **** 		Set_Ref_Raw(254 - Vds_Index_Goal_Relative);
 626:main.c        **** 	} else {
 627:main.c        **** 		Set_Ref_Raw(254);
 628:main.c        **** 	}
 629:main.c        **** 	
 630:main.c        **** 	int8 speed = 16;
 631:main.c        **** 	
 632:main.c        **** 	for (uint8 l = 0; l <= loop; l++) {
 633:main.c        **** 		int8 direction = 1*speed;
 634:main.c        **** 		uint8 istart = 0;
 635:main.c        **** 		if (Vds_Index_Goal_Relative < 0) {
 636:main.c        **** 			istart = -Vds_Index_Goal_Relative;
 637:main.c        **** 		}
 638:main.c        **** 		
 639:main.c        **** 		uint8 istop = 256-speed;
 640:main.c        **** 		
 641:main.c        **** 		if (l%2 == 1) {
 642:main.c        **** 			direction = -1*speed;
 643:main.c        **** 			istart = 256-speed;
 644:main.c        **** 			istop = 0;
 645:main.c        **** 		}
 646:main.c        **** 		
 647:main.c        **** 		for (uint8 i = istart; i != istop; i += direction) {
 648:main.c        **** 			for (uint8 j = 0; j <= 1; j++) {
 649:main.c        **** 				if (j == 1) Set_Ref_Raw(254 - i + 1);
 650:main.c        **** 				Set_Vgs_Raw(i);
 651:main.c        **** 				
 652:main.c        **** 				Measure(33, 1, 1);
ARM GAS  C:\Users\FRANKL~1\AppData\Local\Temp\ccnobXgu.s 			page 15


 653:main.c        **** 				
 654:main.c        **** 				if (G_Stop) break;
 655:main.c        **** 				while (G_Pause);
 656:main.c        **** 			}
 657:main.c        **** 		}
 658:main.c        **** 	}
 659:main.c        **** }
 660:main.c        **** 
 661:main.c        **** void Measure_Wide_Gate_Sweep(uint8 loop) {
 662:main.c        **** 	Set_Ref_Raw(254);
 663:main.c        **** 	
 664:main.c        **** 	int8 speed = 16;
 665:main.c        **** 	
 666:main.c        **** 	for (uint8 l = 0; l <= loop; l++) {
 667:main.c        **** 		int8 direction = 1*speed;
 668:main.c        **** 		uint8 istart = 0;
 669:main.c        **** 		uint8 istop = 256-speed;
 670:main.c        **** 		
 671:main.c        **** 		if (l%2 == 1) {
 672:main.c        **** 			direction = -1*speed;
 673:main.c        **** 			istart = 256-speed;
 674:main.c        **** 			istop = 0;
 675:main.c        **** 		}
 676:main.c        **** 		
 677:main.c        **** 		for (uint8 i = istart; i != istop; i += direction) {
 678:main.c        **** 			for (uint8 j = 0; j <= 1; j++) {
 679:main.c        **** 				
 680:main.c        **** 				if (j == 1) Set_Ref_Raw(254 - i + 1);
 681:main.c        **** 				Set_Vgs_Raw(i);
 682:main.c        **** 				
 683:main.c        **** 				Measure(33, 1, 1);
 684:main.c        **** 				
 685:main.c        **** 				if (G_Stop) break;
 686:main.c        **** 				while (G_Pause);
 687:main.c        **** 			}
 688:main.c        **** 		}
 689:main.c        **** 	}
 690:main.c        **** }
 691:main.c        **** 
 692:main.c        **** void Measure_Gate_Sweep_New() {
 693:main.c        **** 	uint8 refTurn = 1;
 694:main.c        **** 	int8 refIncrement = 1;
 695:main.c        **** 	uint8 startRefIndex = 0;
 696:main.c        **** 	uint8 endRefIndex = 0;
 697:main.c        **** 	uint8 refIndex = startRefIndex;
 698:main.c        **** 	uint8 refArrived = 0;
 699:main.c        **** 	
 700:main.c        **** 	int8 gateIncrement = 1;
 701:main.c        **** 	uint8 startGateIndex = 0;
 702:main.c        **** 	uint8 endGateIndex = 0;
 703:main.c        **** 	uint8 gateIndex = startGateIndex;
 704:main.c        **** 	uint8 gateArrived = 0;
 705:main.c        **** 	
 706:main.c        **** 	
 707:main.c        **** 	while (!gateArrived || !refArrived) {
 708:main.c        **** 		gateArrived = abs(gateIndex-endGateIndex) < abs(gateIncrement);
 709:main.c        **** 		refArrived = abs(refIndex-endRefIndex) < abs(refIncrement);
ARM GAS  C:\Users\FRANKL~1\AppData\Local\Temp\ccnobXgu.s 			page 16


 710:main.c        **** 		
 711:main.c        **** 		refTurn = !refTurn;
 712:main.c        **** 		
 713:main.c        **** 		if (refTurn && refArrived) continue;
 714:main.c        **** 		if (!refTurn && gateArrived) continue;
 715:main.c        **** 		
 716:main.c        **** 		Set_Ref_Raw(refIndex);
 717:main.c        **** 		Set_Vgs_Raw(gateIndex);
 718:main.c        **** 		
 719:main.c        **** 		Measure(100, 1, 1);
 720:main.c        **** 		
 721:main.c        **** 		if (refTurn) {
 722:main.c        **** 			refIndex += refIncrement;
 723:main.c        **** 		} else {
 724:main.c        **** 			gateIndex += gateIncrement;
 725:main.c        **** 		}
 726:main.c        **** 		
 727:main.c        **** 		if (G_Stop) break;
 728:main.c        **** 		while (G_Pause);
 729:main.c        **** 	}
 730:main.c        **** }
 731:main.c        **** 
 732:main.c        **** void Scan(uint8 wide, uint8 loop) {
 733:main.c        **** 	for (uint8 device = 1; device <= CONTACT_COUNT/**//2; device++) {
 734:main.c        **** 		uint8 contact1 = device;
 735:main.c        **** 		uint8 contact2 = device + 1;
 736:main.c        **** 		uint8 intermediate1 = 1;
 737:main.c        **** 		uint8 intermediate2 = 2;
 738:main.c        **** 		
 739:main.c        **** 		Disconnect_All_Contacts_From_All_Intermediates();
 740:main.c        **** 		Zero_All_DACs();
 741:main.c        **** 		Connect_Intermediates();
 742:main.c        **** 		Connect_Contact_To_Intermediate(contact1, intermediate1);
 743:main.c        **** 		Connect_Contact_To_Intermediate(contact2, intermediate2);
 744:main.c        **** 		
 745:main.c        **** 		sprintf(TransmitBuffer, "\r\n%u\r\n", device);
 746:main.c        **** 		USBUARTH_Send(TransmitBuffer, strlen(TransmitBuffer));
 747:main.c        **** 		UART_1_PutString(TransmitBuffer);
 748:main.c        **** 		
 749:main.c        **** 		if (wide) {
 750:main.c        **** 			Measure_Wide_Gate_Sweep(loop);
 751:main.c        **** 		} else {
 752:main.c        **** 			Measure_Gate_Sweep(loop);
 753:main.c        **** 		}
 754:main.c        **** 		
 755:main.c        **** 		if (G_Break || G_Stop) break;
 756:main.c        **** 		while (G_Pause);
 757:main.c        **** 	}
 758:main.c        **** }
 759:main.c        **** 
 760:main.c        **** void Scan_Range(uint8 startDevice, uint8 stopDevice, uint8 wide, uint8 loop) {
 761:main.c        **** 	if (startDevice >= CONTACT_COUNT) return;
 762:main.c        **** 	if (stopDevice >= CONTACT_COUNT) return;
 763:main.c        **** 	
 764:main.c        **** 	for (uint8 device = startDevice; device <= stopDevice; device++) {
 765:main.c        **** 		uint8 contact1 = device;
 766:main.c        **** 		uint8 contact2 = device + 1;
ARM GAS  C:\Users\FRANKL~1\AppData\Local\Temp\ccnobXgu.s 			page 17


 767:main.c        **** 		uint8 intermediate1 = 1;
 768:main.c        **** 		uint8 intermediate2 = 2;
 769:main.c        **** 		
 770:main.c        **** 		Disconnect_All_Contacts_From_All_Intermediates();
 771:main.c        **** 		Zero_All_DACs();
 772:main.c        **** 		Connect_Intermediates();
 773:main.c        **** 		Connect_Contact_To_Intermediate(contact1, intermediate1);
 774:main.c        **** 		Connect_Contact_To_Intermediate(contact2, intermediate2);
 775:main.c        **** 		
 776:main.c        **** 		sprintf(TransmitBuffer, "\r\n%u\r\n", device);
 777:main.c        **** 		USBUARTH_Send(TransmitBuffer, strlen(TransmitBuffer));
 778:main.c        **** 		UART_1_PutString(TransmitBuffer);
 779:main.c        **** 		
 780:main.c        **** 		if (wide) {
 781:main.c        **** 			Measure_Wide_Gate_Sweep(loop);
 782:main.c        **** 		} else {
 783:main.c        **** 			Measure_Gate_Sweep(loop);
 784:main.c        **** 		}
 785:main.c        **** 		
 786:main.c        **** 		if (G_Break || G_Stop) break;
 787:main.c        **** 		while (G_Pause);
 788:main.c        **** 	}
 789:main.c        **** }
 790:main.c        **** 
 791:main.c        **** CY_ISR (CommunicationHandlerISR) {
 109              		.loc 2 791 0
 110              		.cfi_startproc
 111              		@ args = 0, pretend = 0, frame = 64
 112              		@ frame_needed = 0, uses_anonymous_args = 0
 113 0000 30B5     		push	{r4, r5, lr}
 114              		.cfi_def_cfa_offset 12
 115              		.cfi_offset 4, -12
 116              		.cfi_offset 5, -8
 117              		.cfi_offset 14, -4
 118 0002 91B0     		sub	sp, sp, #68
 119              		.cfi_def_cfa_offset 80
 792:main.c        **** 	if (USBUARTH_DataIsReady()) {
 120              		.loc 2 792 0
 121 0004 FFF7FEFF 		bl	USBUARTH_DataIsReady
 122              	.LVL8:
 123 0008 0028     		cmp	r0, #0
 124 000a 37D0     		beq	.L10
 125              	.LBB2:
 793:main.c        **** 		// USBUARTH_Receive_Until(UART_Receive_Buffer, USBUART_BUFFER_SIZE, "\r");
 794:main.c        **** 		
 795:main.c        **** 		char temp_buffer[USBUART_BUFFER_SIZE];
 796:main.c        **** 		uint8 temp_count = USBUART_GetAll((uint8*) temp_buffer);
 126              		.loc 2 796 0
 127 000c 6846     		mov	r0, sp
 128 000e FFF7FEFF 		bl	USBUART_GetAll
 129              	.LVL9:
 130 0012 C0B2     		uxtb	r0, r0
 131              	.LVL10:
 132              	.LBB3:
 797:main.c        **** 		
 798:main.c        **** 		for (uint8 i = 0; i < temp_count; i++) {
 133              		.loc 2 798 0
ARM GAS  C:\Users\FRANKL~1\AppData\Local\Temp\ccnobXgu.s 			page 18


 134 0014 0023     		movs	r3, #0
 135 0016 2EE0     		b	.L11
 136              	.LVL11:
 137              	.L17:
 138              	.LBB4:
 799:main.c        **** 			char c = temp_buffer[i];
 139              		.loc 2 799 0
 140 0018 10AA     		add	r2, sp, #64
 141 001a 1A44     		add	r2, r2, r3
 142 001c 12F8402C 		ldrb	r2, [r2, #-64]	@ zero_extendqisi2
 143              	.LVL12:
 800:main.c        **** 			
 801:main.c        **** 			USBUART_Receive_Buffer[USBUART_Rx_Position] = c;
 144              		.loc 2 801 0
 145 0020 5949     		ldr	r1, .L31
 146 0022 0978     		ldrb	r1, [r1]	@ zero_extendqisi2
 147 0024 C9B2     		uxtb	r1, r1
 148 0026 594C     		ldr	r4, .L31+4
 149 0028 6254     		strb	r2, [r4, r1]
 802:main.c        **** 			
 803:main.c        **** 			// sprintf(TransmitBuffer, "USB: %c\r\n", USBUART_Receive_Buffer[USBUART_Rx_Position]);
 804:main.c        **** 			// UART_1_PutString(TransmitBuffer);
 805:main.c        **** 			
 806:main.c        **** 			if (c == '\r' || c == '\n' || c == '!') {
 150              		.loc 2 806 0
 151 002a 0D2A     		cmp	r2, #13
 152 002c 03D0     		beq	.L12
 153              		.loc 2 806 0 is_stmt 0 discriminator 1
 154 002e 0A2A     		cmp	r2, #10
 155 0030 01D0     		beq	.L12
 156              		.loc 2 806 0 discriminator 2
 157 0032 212A     		cmp	r2, #33
 158 0034 10D1     		bne	.L13
 159              	.L12:
 807:main.c        **** 				USBUART_Receive_Buffer[USBUART_Rx_Position] = 0;
 160              		.loc 2 807 0 is_stmt 1
 161 0036 5449     		ldr	r1, .L31
 162 0038 0A78     		ldrb	r2, [r1]	@ zero_extendqisi2
 163              	.LVL13:
 164 003a D2B2     		uxtb	r2, r2
 165 003c 0025     		movs	r5, #0
 166 003e 534C     		ldr	r4, .L31+4
 167 0040 A554     		strb	r5, [r4, r2]
 808:main.c        **** 				if (USBUART_Rx_Position) newData = 1;
 168              		.loc 2 808 0
 169 0042 0A78     		ldrb	r2, [r1]	@ zero_extendqisi2
 170 0044 12F0FF0F 		tst	r2, #255
 171 0048 02D0     		beq	.L14
 172              		.loc 2 808 0 is_stmt 0 discriminator 1
 173 004a 0121     		movs	r1, #1
 174 004c 504A     		ldr	r2, .L31+8
 175 004e 1170     		strb	r1, [r2]
 176              	.L14:
 809:main.c        **** 				USBUART_Rx_Position = 0;
 177              		.loc 2 809 0 is_stmt 1
 178 0050 0021     		movs	r1, #0
 179 0052 4D4A     		ldr	r2, .L31
ARM GAS  C:\Users\FRANKL~1\AppData\Local\Temp\ccnobXgu.s 			page 19


 180 0054 1170     		strb	r1, [r2]
 181 0056 04E0     		b	.L15
 182              	.LVL14:
 183              	.L13:
 810:main.c        **** 			} else {
 811:main.c        **** 				USBUART_Rx_Position++;
 184              		.loc 2 811 0
 185 0058 4B49     		ldr	r1, .L31
 186 005a 0A78     		ldrb	r2, [r1]	@ zero_extendqisi2
 187              	.LVL15:
 188 005c 0132     		adds	r2, r2, #1
 189 005e D2B2     		uxtb	r2, r2
 190 0060 0A70     		strb	r2, [r1]
 191              	.L15:
 812:main.c        **** 			}
 813:main.c        **** 			
 814:main.c        **** 			if (USBUART_Rx_Position >= USBUART_BUFFER_SIZE) USBUART_Rx_Position = 0;
 192              		.loc 2 814 0
 193 0062 494A     		ldr	r2, .L31
 194 0064 1278     		ldrb	r2, [r2]	@ zero_extendqisi2
 195 0066 D2B2     		uxtb	r2, r2
 196 0068 3F2A     		cmp	r2, #63
 197 006a 02D9     		bls	.L16
 198              		.loc 2 814 0 is_stmt 0 discriminator 1
 199 006c 0021     		movs	r1, #0
 200 006e 464A     		ldr	r2, .L31
 201 0070 1170     		strb	r1, [r2]
 202              	.L16:
 203              	.LBE4:
 798:main.c        **** 			char c = temp_buffer[i];
 204              		.loc 2 798 0 is_stmt 1 discriminator 2
 205 0072 0133     		adds	r3, r3, #1
 206              	.LVL16:
 207 0074 DBB2     		uxtb	r3, r3
 208              	.LVL17:
 209              	.L11:
 798:main.c        **** 			char c = temp_buffer[i];
 210              		.loc 2 798 0 is_stmt 0 discriminator 1
 211 0076 8342     		cmp	r3, r0
 212 0078 CED3     		bcc	.L17
 213 007a 3AE0     		b	.L18
 214              	.LVL18:
 215              	.L10:
 216              	.LBE3:
 217              	.LBE2:
 815:main.c        **** 		}
 816:main.c        **** 	} else
 817:main.c        **** 	if (UART_1_GetRxBufferSize()) {
 218              		.loc 2 817 0 is_stmt 1
 219 007c FFF7FEFF 		bl	UART_1_GetRxBufferSize
 220              	.LVL19:
 221 0080 0028     		cmp	r0, #0
 222 0082 36D0     		beq	.L18
 818:main.c        **** 		UART_Receive_Buffer[UART_Rx_Position] = UART_1_GetChar();
 223              		.loc 2 818 0
 224 0084 434D     		ldr	r5, .L31+12
 225 0086 2C78     		ldrb	r4, [r5]	@ zero_extendqisi2
ARM GAS  C:\Users\FRANKL~1\AppData\Local\Temp\ccnobXgu.s 			page 20


 226 0088 E4B2     		uxtb	r4, r4
 227 008a FFF7FEFF 		bl	UART_1_GetChar
 228              	.LVL20:
 229 008e 424A     		ldr	r2, .L31+16
 230 0090 1055     		strb	r0, [r2, r4]
 819:main.c        **** 		
 820:main.c        **** 		if (UART_Receive_Buffer[UART_Rx_Position] == '\r' || UART_Receive_Buffer[UART_Rx_Position] == '\n
 231              		.loc 2 820 0
 232 0092 2B78     		ldrb	r3, [r5]	@ zero_extendqisi2
 233 0094 DBB2     		uxtb	r3, r3
 234 0096 D35C     		ldrb	r3, [r2, r3]	@ zero_extendqisi2
 235 0098 DBB2     		uxtb	r3, r3
 236 009a 0D2B     		cmp	r3, #13
 237 009c 0BD0     		beq	.L19
 238              		.loc 2 820 0 is_stmt 0 discriminator 1
 239 009e 2B78     		ldrb	r3, [r5]	@ zero_extendqisi2
 240 00a0 DBB2     		uxtb	r3, r3
 241 00a2 D35C     		ldrb	r3, [r2, r3]	@ zero_extendqisi2
 242 00a4 DBB2     		uxtb	r3, r3
 243 00a6 0A2B     		cmp	r3, #10
 244 00a8 05D0     		beq	.L19
 245              		.loc 2 820 0 discriminator 2
 246 00aa 2B78     		ldrb	r3, [r5]	@ zero_extendqisi2
 247 00ac DBB2     		uxtb	r3, r3
 248 00ae D35C     		ldrb	r3, [r2, r3]	@ zero_extendqisi2
 249 00b0 DBB2     		uxtb	r3, r3
 250 00b2 212B     		cmp	r3, #33
 251 00b4 10D1     		bne	.L20
 252              	.L19:
 821:main.c        **** 			UART_Receive_Buffer[UART_Rx_Position] = 0;
 253              		.loc 2 821 0 is_stmt 1
 254 00b6 374A     		ldr	r2, .L31+12
 255 00b8 1378     		ldrb	r3, [r2]	@ zero_extendqisi2
 256 00ba DBB2     		uxtb	r3, r3
 257 00bc 0020     		movs	r0, #0
 258 00be 3649     		ldr	r1, .L31+16
 259 00c0 C854     		strb	r0, [r1, r3]
 822:main.c        **** 			if (UART_Rx_Position) newData = 2;
 260              		.loc 2 822 0
 261 00c2 1378     		ldrb	r3, [r2]	@ zero_extendqisi2
 262 00c4 13F0FF0F 		tst	r3, #255
 263 00c8 02D0     		beq	.L21
 264              		.loc 2 822 0 is_stmt 0 discriminator 1
 265 00ca 0222     		movs	r2, #2
 266 00cc 304B     		ldr	r3, .L31+8
 267 00ce 1A70     		strb	r2, [r3]
 268              	.L21:
 823:main.c        **** 			UART_Rx_Position = 0;
 269              		.loc 2 823 0 is_stmt 1
 270 00d0 0022     		movs	r2, #0
 271 00d2 304B     		ldr	r3, .L31+12
 272 00d4 1A70     		strb	r2, [r3]
 273 00d6 04E0     		b	.L22
 274              	.L20:
 824:main.c        **** 		} else {
 825:main.c        **** 			UART_Rx_Position++;
 275              		.loc 2 825 0
ARM GAS  C:\Users\FRANKL~1\AppData\Local\Temp\ccnobXgu.s 			page 21


 276 00d8 2E4A     		ldr	r2, .L31+12
 277 00da 1378     		ldrb	r3, [r2]	@ zero_extendqisi2
 278 00dc 0133     		adds	r3, r3, #1
 279 00de DBB2     		uxtb	r3, r3
 280 00e0 1370     		strb	r3, [r2]
 281              	.L22:
 826:main.c        **** 		}
 827:main.c        **** 		
 828:main.c        **** 		if (UART_Rx_Position >= USBUART_BUFFER_SIZE) UART_Rx_Position = 0;
 282              		.loc 2 828 0
 283 00e2 2C4B     		ldr	r3, .L31+12
 284 00e4 1B78     		ldrb	r3, [r3]	@ zero_extendqisi2
 285 00e6 DBB2     		uxtb	r3, r3
 286 00e8 3F2B     		cmp	r3, #63
 287 00ea 02D9     		bls	.L18
 288              		.loc 2 828 0 is_stmt 0 discriminator 1
 289 00ec 0022     		movs	r2, #0
 290 00ee 294B     		ldr	r3, .L31+12
 291 00f0 1A70     		strb	r2, [r3]
 292              	.L18:
 829:main.c        **** 	}
 830:main.c        **** 	
 831:main.c        **** 	if (newData) {
 293              		.loc 2 831 0 is_stmt 1
 294 00f2 274B     		ldr	r3, .L31+8
 295 00f4 1B78     		ldrb	r3, [r3]	@ zero_extendqisi2
 296 00f6 13F0FF0F 		tst	r3, #255
 297 00fa 3FD0     		beq	.L23
 298              	.LVL21:
 299              	.LBB5:
 832:main.c        **** 		char* ReceiveBuffer = &USBUART_Receive_Buffer[0];
 833:main.c        **** 		if (newData == 2) ReceiveBuffer = &UART_Receive_Buffer[0];
 300              		.loc 2 833 0
 301 00fc 244B     		ldr	r3, .L31+8
 302 00fe 1B78     		ldrb	r3, [r3]	@ zero_extendqisi2
 303 0100 DBB2     		uxtb	r3, r3
 304 0102 022B     		cmp	r3, #2
 305 0104 01D0     		beq	.L29
 832:main.c        **** 		char* ReceiveBuffer = &USBUART_Receive_Buffer[0];
 306              		.loc 2 832 0
 307 0106 214C     		ldr	r4, .L31+4
 308 0108 00E0     		b	.L24
 309              	.L29:
 310              		.loc 2 833 0
 311 010a 234C     		ldr	r4, .L31+16
 312              	.L24:
 313              	.LVL22:
 834:main.c        **** 		
 835:main.c        **** 		if (strstr(ReceiveBuffer, "stop ") == &ReceiveBuffer[0]) {
 314              		.loc 2 835 0
 315 010c 2349     		ldr	r1, .L31+20
 316 010e 2046     		mov	r0, r4
 317 0110 FFF7FEFF 		bl	strstr
 318              	.LVL23:
 319 0114 8442     		cmp	r4, r0
 320 0116 05D1     		bne	.L25
 836:main.c        **** 			G_Stop = 1;
ARM GAS  C:\Users\FRANKL~1\AppData\Local\Temp\ccnobXgu.s 			page 22


 321              		.loc 2 836 0
 322 0118 1D4B     		ldr	r3, .L31+8
 323 011a 0122     		movs	r2, #1
 324 011c 5A70     		strb	r2, [r3, #1]
 837:main.c        **** 			newData = 0;
 325              		.loc 2 837 0
 326 011e 0022     		movs	r2, #0
 327 0120 1A70     		strb	r2, [r3]
 328 0122 2BE0     		b	.L23
 329              	.L25:
 838:main.c        **** 		} else 
 839:main.c        **** 		if (strstr(ReceiveBuffer, "break ") == &ReceiveBuffer[0]) {
 330              		.loc 2 839 0
 331 0124 1E49     		ldr	r1, .L31+24
 332 0126 2046     		mov	r0, r4
 333 0128 FFF7FEFF 		bl	strstr
 334              	.LVL24:
 335 012c 8442     		cmp	r4, r0
 336 012e 05D1     		bne	.L26
 840:main.c        **** 			G_Break = 1;
 337              		.loc 2 840 0
 338 0130 174B     		ldr	r3, .L31+8
 339 0132 0122     		movs	r2, #1
 340 0134 9A70     		strb	r2, [r3, #2]
 841:main.c        **** 			newData = 0;
 341              		.loc 2 841 0
 342 0136 0022     		movs	r2, #0
 343 0138 1A70     		strb	r2, [r3]
 344 013a 1FE0     		b	.L23
 345              	.L26:
 842:main.c        **** 		} else 
 843:main.c        **** 		if (strstr(ReceiveBuffer, "pause ") == &ReceiveBuffer[0]) {
 346              		.loc 2 843 0
 347 013c 1949     		ldr	r1, .L31+28
 348 013e 2046     		mov	r0, r4
 349 0140 FFF7FEFF 		bl	strstr
 350              	.LVL25:
 351 0144 8442     		cmp	r4, r0
 352 0146 05D1     		bne	.L27
 844:main.c        **** 			G_Pause = 1;
 353              		.loc 2 844 0
 354 0148 114B     		ldr	r3, .L31+8
 355 014a 0122     		movs	r2, #1
 356 014c DA70     		strb	r2, [r3, #3]
 845:main.c        **** 			newData = 0;
 357              		.loc 2 845 0
 358 014e 0022     		movs	r2, #0
 359 0150 1A70     		strb	r2, [r3]
 360 0152 13E0     		b	.L23
 361              	.L27:
 846:main.c        **** 		} else 
 847:main.c        **** 		if (strstr(ReceiveBuffer, "resume ") == &ReceiveBuffer[0]) {
 362              		.loc 2 847 0
 363 0154 1449     		ldr	r1, .L31+32
 364 0156 2046     		mov	r0, r4
 365 0158 FFF7FEFF 		bl	strstr
 366              	.LVL26:
ARM GAS  C:\Users\FRANKL~1\AppData\Local\Temp\ccnobXgu.s 			page 23


 367 015c 8442     		cmp	r4, r0
 368 015e 04D1     		bne	.L28
 848:main.c        **** 			G_Pause = 0;
 369              		.loc 2 848 0
 370 0160 0B4B     		ldr	r3, .L31+8
 371 0162 0022     		movs	r2, #0
 372 0164 DA70     		strb	r2, [r3, #3]
 849:main.c        **** 			newData = 0;
 373              		.loc 2 849 0
 374 0166 1A70     		strb	r2, [r3]
 375 0168 08E0     		b	.L23
 376              	.L28:
 850:main.c        **** 		} else 
 851:main.c        **** 		if (strstr(ReceiveBuffer, "tristate ") == &ReceiveBuffer[0]) {
 377              		.loc 2 851 0
 378 016a 1049     		ldr	r1, .L31+36
 379 016c 2046     		mov	r0, r4
 380 016e FFF7FEFF 		bl	strstr
 381              	.LVL27:
 382 0172 8442     		cmp	r4, r0
 383 0174 02D1     		bne	.L23
 852:main.c        **** 			// To do
 853:main.c        **** 			newData = 0;
 384              		.loc 2 853 0
 385 0176 0022     		movs	r2, #0
 386 0178 054B     		ldr	r3, .L31+8
 387 017a 1A70     		strb	r2, [r3]
 388              	.LVL28:
 389              	.L23:
 390              	.LBE5:
 854:main.c        **** 		}
 855:main.c        **** 	}
 856:main.c        **** 	
 857:main.c        **** 	CommunicationInterrupt_ClearPending();
 391              		.loc 2 857 0
 392 017c FFF7FEFF 		bl	CommunicationInterrupt_ClearPending
 393              	.LVL29:
 858:main.c        **** 	CommunicationTimer_ReadStatusRegister();
 394              		.loc 2 858 0
 395 0180 FFF7FEFF 		bl	CommunicationTimer_ReadStatusRegister
 396              	.LVL30:
 859:main.c        **** }
 397              		.loc 2 859 0
 398 0184 11B0     		add	sp, sp, #68
 399              		.cfi_def_cfa_offset 12
 400              		@ sp needed
 401 0186 30BD     		pop	{r4, r5, pc}
 402              	.L32:
 403              		.align	2
 404              	.L31:
 405 0188 00000000 		.word	USBUART_Rx_Position
 406 018c 00000000 		.word	USBUART_Receive_Buffer
 407 0190 00000000 		.word	.LANCHOR0
 408 0194 00000000 		.word	UART_Rx_Position
 409 0198 00000000 		.word	UART_Receive_Buffer
 410 019c 00000000 		.word	.LC0
 411 01a0 08000000 		.word	.LC1
ARM GAS  C:\Users\FRANKL~1\AppData\Local\Temp\ccnobXgu.s 			page 24


 412 01a4 10000000 		.word	.LC2
 413 01a8 18000000 		.word	.LC3
 414 01ac 20000000 		.word	.LC4
 415              		.cfi_endproc
 416              	.LFE108:
 417              		.size	CommunicationHandlerISR, .-CommunicationHandlerISR
 418              		.section	.text.USBUARTH_Send,"ax",%progbits
 419              		.align	2
 420              		.global	USBUARTH_Send
 421              		.thumb
 422              		.thumb_func
 423              		.type	USBUARTH_Send, %function
 424              	USBUARTH_Send:
 425              	.LFB66:
  39:USBUART_Helpers.h **** 
  40:USBUART_Helpers.h **** 
  41:USBUART_Helpers.h **** uint8 USBUARTH_Send(char* buffer, uint16 count) {
 426              		.loc 1 41 0
 427              		.cfi_startproc
 428              		@ args = 0, pretend = 0, frame = 0
 429              		@ frame_needed = 0, uses_anonymous_args = 0
 430              	.LVL31:
  42:USBUART_Helpers.h **** 	if (count > 0) {
 431              		.loc 1 42 0
 432 0000 49B9     		cbnz	r1, .L39
  43:USBUART_Helpers.h **** 		// Wait until component is ready to send data to host.
  44:USBUART_Helpers.h **** 		for (uint32 tries = 0; tries < 10; tries++) {
  45:USBUART_Helpers.h **** 			USBUARTH_Maintain_Configuration();
  46:USBUART_Helpers.h **** 			if (USBUART_CDCIsReady()) break;
  47:USBUART_Helpers.h **** 		}
  48:USBUART_Helpers.h ****         
  49:USBUART_Helpers.h **** 		if (!USBUART_CDCIsReady()) return 0;
  50:USBUART_Helpers.h **** 		
  51:USBUART_Helpers.h **** 		// Send data to host
  52:USBUART_Helpers.h **** 		USBUART_PutData((uint8*) buffer, count);
  53:USBUART_Helpers.h **** 		
  54:USBUART_Helpers.h **** 		/* If the last sent packet is exactly the maximum packet 
  55:USBUART_Helpers.h **** 		*  size, it is followed by a zero-length packet to assure
  56:USBUART_Helpers.h **** 		*  that the end of the segment is properly identified by 
  57:USBUART_Helpers.h **** 		*  the terminal.
  58:USBUART_Helpers.h **** 		*/
  59:USBUART_Helpers.h **** 		if (USBUART_BUFFER_SIZE == count) {
  60:USBUART_Helpers.h **** 			// Wait until component is ready to send data to PC.
  61:USBUART_Helpers.h **** 			while (!USBUART_CDCIsReady());
  62:USBUART_Helpers.h ****             
  63:USBUART_Helpers.h **** 			// Send zero-length packet to PC.
  64:USBUART_Helpers.h **** 			USBUART_PutData(NULL, 0);
  65:USBUART_Helpers.h **** 		}
  66:USBUART_Helpers.h **** 	}
  67:USBUART_Helpers.h **** 	
  68:USBUART_Helpers.h **** 	return 1;
 433              		.loc 1 68 0
 434 0002 0123     		movs	r3, #1
  69:USBUART_Helpers.h **** }
 435              		.loc 1 69 0
 436 0004 1846     		mov	r0, r3
 437              	.LVL32:
ARM GAS  C:\Users\FRANKL~1\AppData\Local\Temp\ccnobXgu.s 			page 25


 438 0006 7047     		bx	lr
 439              	.LVL33:
 440              	.L37:
 441              		.cfi_def_cfa_offset 16
 442              		.cfi_offset 4, -16
 443              		.cfi_offset 5, -12
 444              		.cfi_offset 6, -8
 445              		.cfi_offset 14, -4
 446              	.LBB6:
  45:USBUART_Helpers.h **** 			if (USBUART_CDCIsReady()) break;
 447              		.loc 1 45 0
 448 0008 FFF7FEFF 		bl	USBUARTH_Maintain_Configuration
 449              	.LVL34:
  46:USBUART_Helpers.h **** 		}
 450              		.loc 1 46 0
 451 000c FFF7FEFF 		bl	USBUART_CDCIsReady
 452              	.LVL35:
 453 0010 38B9     		cbnz	r0, .L36
  44:USBUART_Helpers.h **** 			USBUARTH_Maintain_Configuration();
 454              		.loc 1 44 0 discriminator 2
 455 0012 0134     		adds	r4, r4, #1
 456              	.LVL36:
 457 0014 03E0     		b	.L34
 458              	.LVL37:
 459              	.L39:
 460              		.cfi_def_cfa_offset 0
 461              		.cfi_restore 4
 462              		.cfi_restore 5
 463              		.cfi_restore 6
 464              		.cfi_restore 14
 465              	.LBE6:
  41:USBUART_Helpers.h **** 	if (count > 0) {
 466              		.loc 1 41 0
 467 0016 70B5     		push	{r4, r5, r6, lr}
 468              		.cfi_def_cfa_offset 16
 469              		.cfi_offset 4, -16
 470              		.cfi_offset 5, -12
 471              		.cfi_offset 6, -8
 472              		.cfi_offset 14, -4
 473 0018 0D46     		mov	r5, r1
 474 001a 0646     		mov	r6, r0
 475 001c 0024     		movs	r4, #0
 476              	.LVL38:
 477              	.L34:
 478              	.LBB7:
  44:USBUART_Helpers.h **** 			USBUARTH_Maintain_Configuration();
 479              		.loc 1 44 0 discriminator 1
 480 001e 092C     		cmp	r4, #9
 481 0020 F2D9     		bls	.L37
 482              	.L36:
 483              	.LBE7:
  49:USBUART_Helpers.h **** 		
 484              		.loc 1 49 0
 485 0022 FFF7FEFF 		bl	USBUART_CDCIsReady
 486              	.LVL39:
 487 0026 0346     		mov	r3, r0
 488 0028 80B1     		cbz	r0, .L35
ARM GAS  C:\Users\FRANKL~1\AppData\Local\Temp\ccnobXgu.s 			page 26


  52:USBUART_Helpers.h **** 		
 489              		.loc 1 52 0
 490 002a 2946     		mov	r1, r5
 491 002c 3046     		mov	r0, r6
 492 002e FFF7FEFF 		bl	USBUART_PutData
 493              	.LVL40:
  59:USBUART_Helpers.h **** 			// Wait until component is ready to send data to PC.
 494              		.loc 1 59 0
 495 0032 402D     		cmp	r5, #64
 496 0034 09D1     		bne	.L40
 497              	.L38:
  61:USBUART_Helpers.h ****             
 498              		.loc 1 61 0 discriminator 1
 499 0036 FFF7FEFF 		bl	USBUART_CDCIsReady
 500              	.LVL41:
 501 003a 0028     		cmp	r0, #0
 502 003c FBD0     		beq	.L38
  64:USBUART_Helpers.h **** 		}
 503              		.loc 1 64 0
 504 003e 0021     		movs	r1, #0
 505 0040 0846     		mov	r0, r1
 506 0042 FFF7FEFF 		bl	USBUART_PutData
 507              	.LVL42:
  68:USBUART_Helpers.h **** }
 508              		.loc 1 68 0
 509 0046 0123     		movs	r3, #1
 510 0048 00E0     		b	.L35
 511              	.L40:
 512 004a 0123     		movs	r3, #1
 513              	.L35:
 514              		.loc 1 69 0
 515 004c 1846     		mov	r0, r3
 516 004e 70BD     		pop	{r4, r5, r6, pc}
 517              		.cfi_endproc
 518              	.LFE66:
 519              		.size	USBUARTH_Send, .-USBUARTH_Send
 520              		.section	.text.USBUARTH_Receive,"ax",%progbits
 521              		.align	2
 522              		.global	USBUARTH_Receive
 523              		.thumb
 524              		.thumb_func
 525              		.type	USBUARTH_Receive, %function
 526              	USBUARTH_Receive:
 527              	.LFB67:
  70:USBUART_Helpers.h **** 
  71:USBUART_Helpers.h **** uint8 USBUARTH_Receive(char* buffer, uint16* count) {
 528              		.loc 1 71 0
 529              		.cfi_startproc
 530              		@ args = 0, pretend = 0, frame = 0
 531              		@ frame_needed = 0, uses_anonymous_args = 0
 532              	.LVL43:
 533 0000 38B5     		push	{r3, r4, r5, lr}
 534              		.cfi_def_cfa_offset 16
 535              		.cfi_offset 3, -16
 536              		.cfi_offset 4, -12
 537              		.cfi_offset 5, -8
 538              		.cfi_offset 14, -4
ARM GAS  C:\Users\FRANKL~1\AppData\Local\Temp\ccnobXgu.s 			page 27


 539 0002 0446     		mov	r4, r0
 540 0004 0D46     		mov	r5, r1
  72:USBUART_Helpers.h **** 	// Wait for input data from host
  73:USBUART_Helpers.h **** 	while (!USBUART_DataIsReady()) USBUARTH_Maintain_Configuration();
 541              		.loc 1 73 0
 542 0006 01E0     		b	.L43
 543              	.LVL44:
 544              	.L44:
 545              		.loc 1 73 0 is_stmt 0 discriminator 2
 546 0008 FFF7FEFF 		bl	USBUARTH_Maintain_Configuration
 547              	.LVL45:
 548              	.L43:
 549              		.loc 1 73 0 discriminator 1
 550 000c FFF7FEFF 		bl	USBUART_DataIsReady
 551              	.LVL46:
 552 0010 0028     		cmp	r0, #0
 553 0012 F9D0     		beq	.L44
  74:USBUART_Helpers.h **** 	
  75:USBUART_Helpers.h **** 	// Read received data and re-enable OUT endpoint.
  76:USBUART_Helpers.h **** 	*count = USBUART_GetAll((uint8*) buffer);
 554              		.loc 1 76 0 is_stmt 1
 555 0014 2046     		mov	r0, r4
 556 0016 FFF7FEFF 		bl	USBUART_GetAll
 557              	.LVL47:
 558 001a 2880     		strh	r0, [r5]	@ movhi
  77:USBUART_Helpers.h **** 	
  78:USBUART_Helpers.h **** 	buffer[*count] = 0;
 559              		.loc 1 78 0
 560 001c 0023     		movs	r3, #0
 561 001e 2354     		strb	r3, [r4, r0]
  79:USBUART_Helpers.h **** 	
  80:USBUART_Helpers.h **** 	return 1u;
  81:USBUART_Helpers.h **** }
 562              		.loc 1 81 0
 563 0020 0120     		movs	r0, #1
 564 0022 38BD     		pop	{r3, r4, r5, pc}
 565              		.cfi_endproc
 566              	.LFE67:
 567              		.size	USBUARTH_Receive, .-USBUARTH_Receive
 568              		.section	.text.USBUARTH_GetChar,"ax",%progbits
 569              		.align	2
 570              		.global	USBUARTH_GetChar
 571              		.thumb
 572              		.thumb_func
 573              		.type	USBUARTH_GetChar, %function
 574              	USBUARTH_GetChar:
 575              	.LFB68:
  82:USBUART_Helpers.h **** 
  83:USBUART_Helpers.h **** char USBUARTH_GetChar() {
 576              		.loc 1 83 0
 577              		.cfi_startproc
 578              		@ args = 0, pretend = 0, frame = 0
 579              		@ frame_needed = 0, uses_anonymous_args = 0
 580 0000 08B5     		push	{r3, lr}
 581              		.cfi_def_cfa_offset 8
 582              		.cfi_offset 3, -8
 583              		.cfi_offset 14, -4
ARM GAS  C:\Users\FRANKL~1\AppData\Local\Temp\ccnobXgu.s 			page 28


  84:USBUART_Helpers.h **** 	while (!USBUART_DataIsReady()) USBUARTH_Maintain_Configuration();
 584              		.loc 1 84 0
 585 0002 01E0     		b	.L47
 586              	.L48:
 587              		.loc 1 84 0 is_stmt 0 discriminator 2
 588 0004 FFF7FEFF 		bl	USBUARTH_Maintain_Configuration
 589              	.LVL48:
 590              	.L47:
 591              		.loc 1 84 0 discriminator 1
 592 0008 FFF7FEFF 		bl	USBUART_DataIsReady
 593              	.LVL49:
 594 000c 0028     		cmp	r0, #0
 595 000e F9D0     		beq	.L48
  85:USBUART_Helpers.h **** 	
  86:USBUART_Helpers.h **** 	return USBUART_GetChar();
 596              		.loc 1 86 0 is_stmt 1
 597 0010 FFF7FEFF 		bl	USBUART_GetChar
 598              	.LVL50:
  87:USBUART_Helpers.h **** }
 599              		.loc 1 87 0
 600 0014 08BD     		pop	{r3, pc}
 601              		.cfi_endproc
 602              	.LFE68:
 603              		.size	USBUARTH_GetChar, .-USBUARTH_GetChar
 604 0016 00BF     		.section	.text.USBUARTH_Receive_Until,"ax",%progbits
 605              		.align	2
 606              		.global	USBUARTH_Receive_Until
 607              		.thumb
 608              		.thumb_func
 609              		.type	USBUARTH_Receive_Until, %function
 610              	USBUARTH_Receive_Until:
 611              	.LFB69:
  88:USBUART_Helpers.h **** 
  89:USBUART_Helpers.h **** uint8 USBUARTH_Receive_Until(char* buffer, uint16 maxLength, const char* termination) {
 612              		.loc 1 89 0
 613              		.cfi_startproc
 614              		@ args = 0, pretend = 0, frame = 0
 615              		@ frame_needed = 0, uses_anonymous_args = 0
 616              	.LVL51:
 617 0000 2DE9F041 		push	{r4, r5, r6, r7, r8, lr}
 618              		.cfi_def_cfa_offset 24
 619              		.cfi_offset 4, -24
 620              		.cfi_offset 5, -20
 621              		.cfi_offset 6, -16
 622              		.cfi_offset 7, -12
 623              		.cfi_offset 8, -8
 624              		.cfi_offset 14, -4
 625 0004 0546     		mov	r5, r0
 626 0006 0E46     		mov	r6, r1
 627 0008 1746     		mov	r7, r2
 628              	.LVL52:
 629              	.LBB8:
  90:USBUART_Helpers.h **** 	for (uint16 i = 0; i < maxLength; i++) {
 630              		.loc 1 90 0
 631 000a 0023     		movs	r3, #0
 632 000c 03E0     		b	.L51
 633              	.LVL53:
ARM GAS  C:\Users\FRANKL~1\AppData\Local\Temp\ccnobXgu.s 			page 29


 634              	.L52:
  91:USBUART_Helpers.h **** 		buffer[i] = 0;
 635              		.loc 1 91 0 discriminator 3
 636 000e 0022     		movs	r2, #0
 637 0010 EA54     		strb	r2, [r5, r3]
  90:USBUART_Helpers.h **** 	for (uint16 i = 0; i < maxLength; i++) {
 638              		.loc 1 90 0 discriminator 3
 639 0012 0133     		adds	r3, r3, #1
 640              	.LVL54:
 641 0014 9BB2     		uxth	r3, r3
 642              	.LVL55:
 643              	.L51:
  90:USBUART_Helpers.h **** 	for (uint16 i = 0; i < maxLength; i++) {
 644              		.loc 1 90 0 is_stmt 0 discriminator 1
 645 0016 B342     		cmp	r3, r6
 646 0018 F9D3     		bcc	.L52
 647 001a 0024     		movs	r4, #0
 648 001c 16E0     		b	.L53
 649              	.LVL56:
 650              	.L56:
 651              	.LBE8:
 652              	.LBB9:
  92:USBUART_Helpers.h **** 	}
  93:USBUART_Helpers.h **** 	
  94:USBUART_Helpers.h **** 	for (uint16 i = 0; i < maxLength - 1; i++) {
  95:USBUART_Helpers.h **** 		buffer[i] = USBUARTH_GetChar();
 653              		.loc 1 95 0 is_stmt 1
 654 001e FFF7FEFF 		bl	USBUARTH_GetChar
 655              	.LVL57:
 656 0022 2855     		strb	r0, [r5, r4]
  96:USBUART_Helpers.h **** 		buffer[i+1] = 0;
 657              		.loc 1 96 0
 658 0024 631C     		adds	r3, r4, #1
 659 0026 0022     		movs	r2, #0
 660 0028 EA54     		strb	r2, [r5, r3]
  97:USBUART_Helpers.h **** 		
  98:USBUART_Helpers.h **** 		if (strstr(buffer, termination)) {
 661              		.loc 1 98 0
 662 002a 3946     		mov	r1, r7
 663 002c 2846     		mov	r0, r5
 664 002e FFF7FEFF 		bl	strstr
 665              	.LVL58:
 666 0032 48B1     		cbz	r0, .L54
  99:USBUART_Helpers.h **** 			buffer[i + 1 - strlen(termination)] = 0;
 667              		.loc 1 99 0
 668 0034 3846     		mov	r0, r7
 669 0036 FFF7FEFF 		bl	strlen
 670              	.LVL59:
 671 003a 201A     		subs	r0, r4, r0
 672 003c 0130     		adds	r0, r0, #1
 673 003e 0023     		movs	r3, #0
 674 0040 2B54     		strb	r3, [r5, r0]
 100:USBUART_Helpers.h **** 			return 1;
 675              		.loc 1 100 0
 676 0042 0120     		movs	r0, #1
 677 0044 BDE8F081 		pop	{r4, r5, r6, r7, r8, pc}
 678              	.LVL60:
ARM GAS  C:\Users\FRANKL~1\AppData\Local\Temp\ccnobXgu.s 			page 30


 679              	.L54:
  94:USBUART_Helpers.h **** 		buffer[i] = USBUARTH_GetChar();
 680              		.loc 1 94 0 discriminator 2
 681 0048 0134     		adds	r4, r4, #1
 682              	.LVL61:
 683 004a A4B2     		uxth	r4, r4
 684              	.LVL62:
 685              	.L53:
  94:USBUART_Helpers.h **** 		buffer[i] = USBUARTH_GetChar();
 686              		.loc 1 94 0 is_stmt 0 discriminator 1
 687 004c 731E     		subs	r3, r6, #1
 688 004e 9C42     		cmp	r4, r3
 689 0050 E5DB     		blt	.L56
 690              	.LBE9:
 101:USBUART_Helpers.h **** 		}
 102:USBUART_Helpers.h **** 	}
 103:USBUART_Helpers.h **** 	
 104:USBUART_Helpers.h **** 	return 0;
 691              		.loc 1 104 0 is_stmt 1
 692 0052 0020     		movs	r0, #0
 105:USBUART_Helpers.h **** }
 693              		.loc 1 105 0
 694 0054 BDE8F081 		pop	{r4, r5, r6, r7, r8, pc}
 695              		.cfi_endproc
 696              	.LFE69:
 697              		.size	USBUARTH_Receive_Until, .-USBUARTH_Receive_Until
 698              		.section	.text.Setup_Selector_I2C_Struct,"ax",%progbits
 699              		.align	2
 700              		.global	Setup_Selector_I2C_Struct
 701              		.thumb
 702              		.thumb_func
 703              		.type	Setup_Selector_I2C_Struct, %function
 704              	Setup_Selector_I2C_Struct:
 705              	.LFB70:
  49:main.c        **** 	selector->write.subAddress = 1;
 706              		.loc 2 49 0
 707              		.cfi_startproc
 708              		@ args = 0, pretend = 0, frame = 0
 709              		@ frame_needed = 0, uses_anonymous_args = 0
 710              		@ link register save eliminated.
 711              	.LVL63:
  50:main.c        **** 	selector->read.subAddress = sizeof(selector->write) + 1;
 712              		.loc 2 50 0
 713 0000 0123     		movs	r3, #1
 714 0002 0370     		strb	r3, [r0]
  51:main.c        **** 	
 715              		.loc 2 51 0
 716 0004 8023     		movs	r3, #128
 717 0006 80F87F30 		strb	r3, [r0, #127]
 718              	.LVL64:
 719              	.LBB10:
  53:main.c        **** 		selector->write.data[i] = i + 6;
 720              		.loc 2 53 0
 721 000a 0023     		movs	r3, #0
 722 000c 04E0     		b	.L59
 723              	.LVL65:
 724              	.L60:
ARM GAS  C:\Users\FRANKL~1\AppData\Local\Temp\ccnobXgu.s 			page 31


  54:main.c        **** 	}
 725              		.loc 2 54 0 discriminator 3
 726 000e C218     		adds	r2, r0, r3
 727 0010 991D     		adds	r1, r3, #6
 728 0012 5170     		strb	r1, [r2, #1]
  53:main.c        **** 		selector->write.data[i] = i + 6;
 729              		.loc 2 53 0 discriminator 3
 730 0014 0133     		adds	r3, r3, #1
 731              	.LVL66:
 732 0016 9BB2     		uxth	r3, r3
 733              	.LVL67:
 734              	.L59:
  53:main.c        **** 		selector->write.data[i] = i + 6;
 735              		.loc 2 53 0 is_stmt 0 discriminator 1
 736 0018 7D2B     		cmp	r3, #125
 737 001a F8D9     		bls	.L60
 738 001c 0023     		movs	r3, #0
 739              	.LVL68:
 740 001e 05E0     		b	.L61
 741              	.LVL69:
 742              	.L62:
 743              	.LBE10:
 744              	.LBB11:
  57:main.c        **** 	}
 745              		.loc 2 57 0 is_stmt 1 discriminator 3
 746 0020 C218     		adds	r2, r0, r3
 747 0022 BE21     		movs	r1, #190
 748 0024 82F88010 		strb	r1, [r2, #128]
  56:main.c        **** 		selector->read.data[i] = 0xbe;
 749              		.loc 2 56 0 discriminator 3
 750 0028 0133     		adds	r3, r3, #1
 751              	.LVL70:
 752 002a 9BB2     		uxth	r3, r3
 753              	.LVL71:
 754              	.L61:
  56:main.c        **** 		selector->read.data[i] = 0xbe;
 755              		.loc 2 56 0 is_stmt 0 discriminator 1
 756 002c 7D2B     		cmp	r3, #125
 757 002e F7D9     		bls	.L62
 758              	.LBE11:
  59:main.c        **** 
 759              		.loc 2 59 0 is_stmt 1
 760 0030 7047     		bx	lr
 761              		.cfi_endproc
 762              	.LFE70:
 763              		.size	Setup_Selector_I2C_Struct, .-Setup_Selector_I2C_Struct
 764              		.global	__aeabi_dcmpge
 765              		.global	__aeabi_ui2d
 766              		.global	__aeabi_dcmplt
 767 0032 00BF     		.section	.text.Update_Selector,"ax",%progbits
 768              		.align	2
 769              		.global	Update_Selector
 770              		.thumb
 771              		.thumb_func
 772              		.type	Update_Selector, %function
 773              	Update_Selector:
 774              	.LFB71:
ARM GAS  C:\Users\FRANKL~1\AppData\Local\Temp\ccnobXgu.s 			page 32


  61:main.c        **** 	sprintf(TransmitBuffer, "Updating Selector %u\r\n", selectori + 1);
 775              		.loc 2 61 0
 776              		.cfi_startproc
 777              		@ args = 0, pretend = 0, frame = 0
 778              		@ frame_needed = 0, uses_anonymous_args = 0
 779              	.LVL72:
 780 0000 2DE9F041 		push	{r4, r5, r6, r7, r8, lr}
 781              		.cfi_def_cfa_offset 24
 782              		.cfi_offset 4, -24
 783              		.cfi_offset 5, -20
 784              		.cfi_offset 6, -16
 785              		.cfi_offset 7, -12
 786              		.cfi_offset 8, -8
 787              		.cfi_offset 14, -4
 788 0004 0446     		mov	r4, r0
  62:main.c        **** 	USBUARTH_Send(TransmitBuffer, strlen(TransmitBuffer));
 789              		.loc 2 62 0
 790 0006 00F10108 		add	r8, r0, #1
 791 000a 594D     		ldr	r5, .L74+16
 792 000c 4246     		mov	r2, r8
 793 000e 5949     		ldr	r1, .L74+20
 794 0010 2846     		mov	r0, r5
 795              	.LVL73:
 796 0012 FFF7FEFF 		bl	sprintf
 797              	.LVL74:
  63:main.c        **** 	UART_1_PutString(TransmitBuffer);
 798              		.loc 2 63 0
 799 0016 2846     		mov	r0, r5
 800 0018 FFF7FEFF 		bl	strlen
 801              	.LVL75:
 802 001c 81B2     		uxth	r1, r0
 803 001e 2846     		mov	r0, r5
 804 0020 FFF7FEFF 		bl	USBUARTH_Send
 805              	.LVL76:
  64:main.c        **** 	
 806              		.loc 2 64 0
 807 0024 2846     		mov	r0, r5
 808 0026 FFF7FEFF 		bl	UART_1_PutString
 809              	.LVL77:
  68:main.c        **** 	I2C_1_MasterWriteBuf(selector->busAddress, (uint8 *) &selector->write, sizeof(selector->write), I2
 810              		.loc 2 68 0
 811 002a FFF7FEFF 		bl	I2C_1_MasterClearStatus
 812              	.LVL78:
  69:main.c        **** 	for (uint32 i = 0; i < 4e5; i++) {
 813              		.loc 2 69 0
 814 002e C4EB0424 		rsb	r4, r4, r4, lsl #8
 815              	.LVL79:
 816 0032 514B     		ldr	r3, .L74+24
 817 0034 1C44     		add	r4, r4, r3
 818 0036 0023     		movs	r3, #0
 819 0038 7F22     		movs	r2, #127
 820 003a 2146     		mov	r1, r4
 821 003c 94F8FE00 		ldrb	r0, [r4, #254]	@ zero_extendqisi2
 822 0040 FFF7FEFF 		bl	I2C_1_MasterWriteBuf
 823              	.LVL80:
 824              	.LBB12:
  70:main.c        **** 		if ((I2C_1_MasterStatus() & I2C_1_MSTAT_WR_CMPLT)) break;
ARM GAS  C:\Users\FRANKL~1\AppData\Local\Temp\ccnobXgu.s 			page 33


 825              		.loc 2 70 0
 826 0044 0024     		movs	r4, #0
 827 0046 2CE0     		b	.L64
 828              	.LVL81:
 829              	.L69:
  71:main.c        **** 		if (i >= 4e5 - 1) {
 830              		.loc 2 71 0
 831 0048 FFF7FEFF 		bl	I2C_1_MasterStatus
 832              	.LVL82:
 833 004c 10F0020F 		tst	r0, #2
 834 0050 33D1     		bne	.L65
  72:main.c        **** 			sprintf(TransmitBuffer, "I2C Transfer Error! Type: Timeout\r\n");
 835              		.loc 2 72 0
 836 0052 43A3     		adr	r3, .L74
 837 0054 D3E90023 		ldrd	r2, [r3]
 838 0058 3046     		mov	r0, r6
 839 005a 3946     		mov	r1, r7
 840 005c FFF7FEFF 		bl	__aeabi_dcmpge
 841              	.LVL83:
 842 0060 F0B1     		cbz	r0, .L66
  73:main.c        **** 			USBUARTH_Send(TransmitBuffer, strlen(TransmitBuffer));
 843              		.loc 2 73 0
 844 0062 464F     		ldr	r7, .L74+28
 845 0064 424D     		ldr	r5, .L74+16
 846 0066 07F1200E 		add	lr, r7, #32
 847              	.L68:
 848 006a 3E46     		mov	r6, r7
 849 006c 0FCE     		ldmia	r6!, {r0, r1, r2, r3}
 850 006e 2860     		str	r0, [r5]	@ unaligned
 851 0070 6960     		str	r1, [r5, #4]	@ unaligned
 852 0072 AA60     		str	r2, [r5, #8]	@ unaligned
 853 0074 EB60     		str	r3, [r5, #12]	@ unaligned
 854 0076 3746     		mov	r7, r6
 855 0078 1035     		adds	r5, r5, #16
 856 007a 7645     		cmp	r6, lr
 857 007c F5D1     		bne	.L68
 858 007e 3068     		ldr	r0, [r6]	@ unaligned
 859 0080 2860     		str	r0, [r5]	@ unaligned
  74:main.c        **** 			UART_1_PutString(TransmitBuffer);
 860              		.loc 2 74 0
 861 0082 3B4D     		ldr	r5, .L74+16
 862 0084 2846     		mov	r0, r5
 863 0086 FFF7FEFF 		bl	strlen
 864              	.LVL84:
 865 008a 81B2     		uxth	r1, r0
 866 008c 2846     		mov	r0, r5
 867 008e FFF7FEFF 		bl	USBUARTH_Send
 868              	.LVL85:
  75:main.c        **** 			I2C_1_Stop();
 869              		.loc 2 75 0
 870 0092 2846     		mov	r0, r5
 871 0094 FFF7FEFF 		bl	UART_1_PutString
 872              	.LVL86:
  76:main.c        **** 			I2C_1_Start();
 873              		.loc 2 76 0
 874 0098 FFF7FEFF 		bl	I2C_1_Stop
 875              	.LVL87:
ARM GAS  C:\Users\FRANKL~1\AppData\Local\Temp\ccnobXgu.s 			page 34


  77:main.c        **** 		}
 876              		.loc 2 77 0
 877 009c FFF7FEFF 		bl	I2C_1_Start
 878              	.LVL88:
 879              	.L66:
  70:main.c        **** 		if ((I2C_1_MasterStatus() & I2C_1_MSTAT_WR_CMPLT)) break;
 880              		.loc 2 70 0 discriminator 2
 881 00a0 0134     		adds	r4, r4, #1
 882              	.LVL89:
 883              	.L64:
  70:main.c        **** 		if ((I2C_1_MasterStatus() & I2C_1_MSTAT_WR_CMPLT)) break;
 884              		.loc 2 70 0 is_stmt 0 discriminator 1
 885 00a2 2046     		mov	r0, r4
 886 00a4 FFF7FEFF 		bl	__aeabi_ui2d
 887              	.LVL90:
 888 00a8 0646     		mov	r6, r0
 889 00aa 0F46     		mov	r7, r1
 890 00ac 2EA3     		adr	r3, .L74+8
 891 00ae D3E90023 		ldrd	r2, [r3]
 892 00b2 FFF7FEFF 		bl	__aeabi_dcmplt
 893              	.LVL91:
 894 00b6 0028     		cmp	r0, #0
 895 00b8 C6D1     		bne	.L69
 896              	.L65:
 897              	.LBE12:
  92:main.c        **** 		sprintf(TransmitBuffer, "I2C Transfer Error! ");
 898              		.loc 2 92 0 is_stmt 1
 899 00ba FFF7FEFF 		bl	I2C_1_MasterStatus
 900              	.LVL92:
 901 00be 10F0800F 		tst	r0, #128
 902 00c2 39D0     		beq	.L70
  93:main.c        **** 		USBUARTH_Send(TransmitBuffer, strlen(TransmitBuffer));
 903              		.loc 2 93 0
 904 00c4 2A4C     		ldr	r4, .L74+16
 905              	.LVL93:
 906 00c6 2E4D     		ldr	r5, .L74+32
 907 00c8 0FCD     		ldmia	r5!, {r0, r1, r2, r3}
 908 00ca 2060     		str	r0, [r4]	@ unaligned
 909 00cc 6160     		str	r1, [r4, #4]	@ unaligned
 910 00ce A260     		str	r2, [r4, #8]	@ unaligned
 911 00d0 E360     		str	r3, [r4, #12]	@ unaligned
 912 00d2 2868     		ldr	r0, [r5]	@ unaligned
 913 00d4 2061     		str	r0, [r4, #16]	@ unaligned
 914 00d6 2B79     		ldrb	r3, [r5, #4]	@ zero_extendqisi2
 915 00d8 2375     		strb	r3, [r4, #20]
  94:main.c        **** 		UART_1_PutString(TransmitBuffer);
 916              		.loc 2 94 0
 917 00da 2046     		mov	r0, r4
 918 00dc FFF7FEFF 		bl	strlen
 919              	.LVL94:
 920 00e0 81B2     		uxth	r1, r0
 921 00e2 2046     		mov	r0, r4
 922 00e4 FFF7FEFF 		bl	USBUARTH_Send
 923              	.LVL95:
  95:main.c        **** 		
 924              		.loc 2 95 0
 925 00e8 2046     		mov	r0, r4
ARM GAS  C:\Users\FRANKL~1\AppData\Local\Temp\ccnobXgu.s 			page 35


 926 00ea FFF7FEFF 		bl	UART_1_PutString
 927              	.LVL96:
  97:main.c        **** 			sprintf(TransmitBuffer, "Type: NAK");
 928              		.loc 2 97 0
 929 00ee FFF7FEFF 		bl	I2C_1_MasterStatus
 930              	.LVL97:
 931 00f2 10F0200F 		tst	r0, #32
 932 00f6 0FD0     		beq	.L71
  98:main.c        **** 			USBUARTH_Send(TransmitBuffer, strlen(TransmitBuffer));
 933              		.loc 2 98 0
 934 00f8 224B     		ldr	r3, .L74+36
 935 00fa 03CB     		ldmia	r3!, {r0, r1}
 936 00fc 2060     		str	r0, [r4]	@ unaligned
 937 00fe 6160     		str	r1, [r4, #4]	@ unaligned
 938 0100 1B88     		ldrh	r3, [r3]	@ unaligned
 939 0102 2381     		strh	r3, [r4, #8]	@ unaligned
  99:main.c        **** 			UART_1_PutString(TransmitBuffer);
 940              		.loc 2 99 0
 941 0104 2046     		mov	r0, r4
 942 0106 FFF7FEFF 		bl	strlen
 943              	.LVL98:
 944 010a 81B2     		uxth	r1, r0
 945 010c 2046     		mov	r0, r4
 946 010e FFF7FEFF 		bl	USBUARTH_Send
 947              	.LVL99:
 100:main.c        **** 		}
 948              		.loc 2 100 0
 949 0112 2046     		mov	r0, r4
 950 0114 FFF7FEFF 		bl	UART_1_PutString
 951              	.LVL100:
 952              	.L71:
 103:main.c        **** 		USBUARTH_Send(TransmitBuffer, strlen(TransmitBuffer));
 953              		.loc 2 103 0
 954 0118 154C     		ldr	r4, .L74+16
 955 011a 1B4B     		ldr	r3, .L74+40
 956 011c 1A88     		ldrh	r2, [r3]	@ unaligned
 957 011e 9B78     		ldrb	r3, [r3, #2]	@ zero_extendqisi2
 958 0120 2280     		strh	r2, [r4]	@ unaligned
 959 0122 A370     		strb	r3, [r4, #2]
 104:main.c        **** 		UART_1_PutString(TransmitBuffer);
 960              		.loc 2 104 0
 961 0124 2046     		mov	r0, r4
 962 0126 FFF7FEFF 		bl	strlen
 963              	.LVL101:
 964 012a 81B2     		uxth	r1, r0
 965 012c 2046     		mov	r0, r4
 966 012e FFF7FEFF 		bl	USBUARTH_Send
 967              	.LVL102:
 105:main.c        **** 	}
 968              		.loc 2 105 0
 969 0132 2046     		mov	r0, r4
 970 0134 FFF7FEFF 		bl	UART_1_PutString
 971              	.LVL103:
 972              	.L70:
 108:main.c        **** 	USBUARTH_Send(TransmitBuffer, strlen(TransmitBuffer));
 973              		.loc 2 108 0
 974 0138 0D4C     		ldr	r4, .L74+16
ARM GAS  C:\Users\FRANKL~1\AppData\Local\Temp\ccnobXgu.s 			page 36


 975 013a 4246     		mov	r2, r8
 976 013c 1349     		ldr	r1, .L74+44
 977 013e 2046     		mov	r0, r4
 978 0140 FFF7FEFF 		bl	sprintf
 979              	.LVL104:
 109:main.c        **** 	UART_1_PutString(TransmitBuffer);
 980              		.loc 2 109 0
 981 0144 2046     		mov	r0, r4
 982 0146 FFF7FEFF 		bl	strlen
 983              	.LVL105:
 984 014a 81B2     		uxth	r1, r0
 985 014c 2046     		mov	r0, r4
 986 014e FFF7FEFF 		bl	USBUARTH_Send
 987              	.LVL106:
 110:main.c        **** }
 988              		.loc 2 110 0
 989 0152 2046     		mov	r0, r4
 990 0154 FFF7FEFF 		bl	UART_1_PutString
 991              	.LVL107:
 992 0158 BDE8F081 		pop	{r4, r5, r6, r7, r8, pc}
 993              	.LVL108:
 994              	.L75:
 995 015c AFF30080 		.align	3
 996              	.L74:
 997 0160 00000000 		.word	0
 998 0164 FC691841 		.word	1092119036
 999 0168 00000000 		.word	0
 1000 016c 006A1841 		.word	1092119040
 1001 0170 00000000 		.word	TransmitBuffer
 1002 0174 2C000000 		.word	.LC5
 1003 0178 00000000 		.word	selectors
 1004 017c 44000000 		.word	.LC6
 1005 0180 68000000 		.word	.LC7
 1006 0184 80000000 		.word	.LC8
 1007 0188 8C000000 		.word	.LC9
 1008 018c 90000000 		.word	.LC10
 1009              		.cfi_endproc
 1010              	.LFE71:
 1011              		.size	Update_Selector, .-Update_Selector
 1012              		.section	.text.Setup_Selectors,"ax",%progbits
 1013              		.align	2
 1014              		.global	Setup_Selectors
 1015              		.thumb
 1016              		.thumb_func
 1017              		.type	Setup_Selectors, %function
 1018              	Setup_Selectors:
 1019              	.LFB72:
 113:main.c        **** 	for (uint8 i = 0; i < SELECTOR_COUNT; i++) Setup_Selector_I2C_Struct(&selectors[i]);
 1020              		.loc 2 113 0
 1021              		.cfi_startproc
 1022              		@ args = 0, pretend = 0, frame = 0
 1023              		@ frame_needed = 0, uses_anonymous_args = 0
 1024 0000 10B5     		push	{r4, lr}
 1025              		.cfi_def_cfa_offset 8
 1026              		.cfi_offset 4, -8
 1027              		.cfi_offset 14, -4
 1028              	.LVL109:
ARM GAS  C:\Users\FRANKL~1\AppData\Local\Temp\ccnobXgu.s 			page 37


 1029              	.LBB13:
 114:main.c        **** 	
 1030              		.loc 2 114 0
 1031 0002 0024     		movs	r4, #0
 1032 0004 07E0     		b	.L77
 1033              	.LVL110:
 1034              	.L78:
 114:main.c        **** 	
 1035              		.loc 2 114 0 is_stmt 0 discriminator 3
 1036 0006 C4EB0423 		rsb	r3, r4, r4, lsl #8
 1037 000a 0B48     		ldr	r0, .L80
 1038 000c 1844     		add	r0, r0, r3
 1039 000e FFF7FEFF 		bl	Setup_Selector_I2C_Struct
 1040              	.LVL111:
 1041 0012 0134     		adds	r4, r4, #1
 1042              	.LVL112:
 1043 0014 E4B2     		uxtb	r4, r4
 1044              	.LVL113:
 1045              	.L77:
 114:main.c        **** 	
 1046              		.loc 2 114 0 discriminator 1
 1047 0016 032C     		cmp	r4, #3
 1048 0018 F5D9     		bls	.L78
 1049              	.LBE13:
 116:main.c        **** 	selectors[1].busAddress = 0x11;
 1050              		.loc 2 116 0 is_stmt 1
 1051 001a 074B     		ldr	r3, .L80
 1052 001c 6622     		movs	r2, #102
 1053 001e 83F8FE20 		strb	r2, [r3, #254]
 117:main.c        **** 	selectors[2].busAddress = 0x44;
 1054              		.loc 2 117 0
 1055 0022 1122     		movs	r2, #17
 1056 0024 83F8FD21 		strb	r2, [r3, #509]
 118:main.c        **** 	selectors[3].busAddress = 0x22;
 1057              		.loc 2 118 0
 1058 0028 4422     		movs	r2, #68
 1059 002a 83F8FC22 		strb	r2, [r3, #764]
 119:main.c        **** }
 1060              		.loc 2 119 0
 1061 002e 2222     		movs	r2, #34
 1062 0030 83F8FB23 		strb	r2, [r3, #1019]
 1063 0034 10BD     		pop	{r4, pc}
 1064              	.LVL114:
 1065              	.L81:
 1066 0036 00BF     		.align	2
 1067              	.L80:
 1068 0038 00000000 		.word	selectors
 1069              		.cfi_endproc
 1070              	.LFE72:
 1071              		.size	Setup_Selectors, .-Setup_Selectors
 1072              		.section	.text.Connect_Channel_On_Intermediate,"ax",%progbits
 1073              		.align	2
 1074              		.global	Connect_Channel_On_Intermediate
 1075              		.thumb
 1076              		.thumb_func
 1077              		.type	Connect_Channel_On_Intermediate, %function
 1078              	Connect_Channel_On_Intermediate:
ARM GAS  C:\Users\FRANKL~1\AppData\Local\Temp\ccnobXgu.s 			page 38


 1079              	.LFB73:
 122:main.c        **** 	channel--;
 1080              		.loc 2 122 0
 1081              		.cfi_startproc
 1082              		@ args = 0, pretend = 0, frame = 0
 1083              		@ frame_needed = 0, uses_anonymous_args = 0
 1084              	.LVL115:
 1085 0000 08B5     		push	{r3, lr}
 1086              		.cfi_def_cfa_offset 8
 1087              		.cfi_offset 3, -8
 1088              		.cfi_offset 14, -4
 123:main.c        **** 	intermediate--;
 1089              		.loc 2 123 0
 1090 0002 0138     		subs	r0, r0, #1
 1091              	.LVL116:
 1092 0004 C3B2     		uxtb	r3, r0
 1093              	.LVL117:
 126:main.c        **** 	if (intermediate >= INTERMEDIATE_COUNT) return;
 1094              		.loc 2 126 0
 1095 0006 212B     		cmp	r3, #33
 1096 0008 0CD8     		bhi	.L82
 1097 000a 0139     		subs	r1, r1, #1
 1098              	.LVL118:
 1099 000c C8B2     		uxtb	r0, r1
 127:main.c        **** 	
 1100              		.loc 2 127 0
 1101 000e 0328     		cmp	r0, #3
 1102 0010 08D8     		bhi	.L82
 129:main.c        **** 	Update_Selector(intermediate);
 1103              		.loc 2 129 0
 1104 0012 C0EB0022 		rsb	r2, r0, r0, lsl #8
 1105 0016 0449     		ldr	r1, .L85
 1106 0018 0A44     		add	r2, r2, r1
 1107 001a 1344     		add	r3, r3, r2
 1108              	.LVL119:
 1109 001c C022     		movs	r2, #192
 1110 001e 5A70     		strb	r2, [r3, #1]
 130:main.c        **** }
 1111              		.loc 2 130 0
 1112 0020 FFF7FEFF 		bl	Update_Selector
 1113              	.LVL120:
 1114              	.L82:
 1115 0024 08BD     		pop	{r3, pc}
 1116              	.L86:
 1117 0026 00BF     		.align	2
 1118              	.L85:
 1119 0028 00000000 		.word	selectors
 1120              		.cfi_endproc
 1121              	.LFE73:
 1122              		.size	Connect_Channel_On_Intermediate, .-Connect_Channel_On_Intermediate
 1123              		.section	.text.Connect_Contact_To_Intermediate,"ax",%progbits
 1124              		.align	2
 1125              		.global	Connect_Contact_To_Intermediate
 1126              		.thumb
 1127              		.thumb_func
 1128              		.type	Connect_Contact_To_Intermediate, %function
 1129              	Connect_Contact_To_Intermediate:
ARM GAS  C:\Users\FRANKL~1\AppData\Local\Temp\ccnobXgu.s 			page 39


 1130              	.LFB74:
 133:main.c        **** 	contact--;
 1131              		.loc 2 133 0
 1132              		.cfi_startproc
 1133              		@ args = 0, pretend = 0, frame = 0
 1134              		@ frame_needed = 0, uses_anonymous_args = 0
 1135              	.LVL121:
 134:main.c        **** 	intermediate--;
 1136              		.loc 2 134 0
 1137 0000 0138     		subs	r0, r0, #1
 1138              	.LVL122:
 1139 0002 C0B2     		uxtb	r0, r0
 1140              	.LVL123:
 137:main.c        **** 	if (intermediate >= INTERMEDIATE_COUNT) return;
 1141              		.loc 2 137 0
 1142 0004 3F28     		cmp	r0, #63
 1143 0006 13D8     		bhi	.L92
 133:main.c        **** 	contact--;
 1144              		.loc 2 133 0
 1145 0008 08B5     		push	{r3, lr}
 1146              		.cfi_def_cfa_offset 8
 1147              		.cfi_offset 3, -8
 1148              		.cfi_offset 14, -4
 1149 000a 4B1E     		subs	r3, r1, #1
 1150 000c DBB2     		uxtb	r3, r3
 138:main.c        **** 	
 1151              		.loc 2 138 0
 1152 000e 032B     		cmp	r3, #3
 1153 0010 0DD8     		bhi	.L87
 1154              	.LVL124:
 141:main.c        **** 		offset = CONTACT_COUNT/2;
 1155              		.loc 2 141 0
 1156 0012 012B     		cmp	r3, #1
 1157 0014 03D9     		bls	.L89
 1158              	.LVL125:
 143:main.c        **** 	} else {
 1159              		.loc 2 143 0
 1160 0016 1F28     		cmp	r0, #31
 1161 0018 09D9     		bls	.L87
 142:main.c        **** 		if (contact < CONTACT_COUNT/2) return;
 1162              		.loc 2 142 0
 1163 001a 2023     		movs	r3, #32
 1164 001c 02E0     		b	.L90
 1165              	.LVL126:
 1166              	.L89:
 145:main.c        **** 	}
 1167              		.loc 2 145 0
 1168 001e 1F28     		cmp	r0, #31
 1169 0020 05D8     		bhi	.L87
 140:main.c        **** 	if (intermediate >= INTERMEDIATE_COUNT/2) {
 1170              		.loc 2 140 0
 1171 0022 0023     		movs	r3, #0
 1172              	.LVL127:
 1173              	.L90:
 148:main.c        **** }
 1174              		.loc 2 148 0
 1175 0024 C01A     		subs	r0, r0, r3
ARM GAS  C:\Users\FRANKL~1\AppData\Local\Temp\ccnobXgu.s 			page 40


 1176              	.LVL128:
 1177 0026 0130     		adds	r0, r0, #1
 1178 0028 C0B2     		uxtb	r0, r0
 1179 002a FFF7FEFF 		bl	Connect_Channel_On_Intermediate
 1180              	.LVL129:
 1181              	.L87:
 1182 002e 08BD     		pop	{r3, pc}
 1183              	.LVL130:
 1184              	.L92:
 1185              		.cfi_def_cfa_offset 0
 1186              		.cfi_restore 3
 1187              		.cfi_restore 14
 1188 0030 7047     		bx	lr
 1189              		.cfi_endproc
 1190              	.LFE74:
 1191              		.size	Connect_Contact_To_Intermediate, .-Connect_Contact_To_Intermediate
 1192 0032 00BF     		.section	.text.Disconnect_Contact_From_Intermediate,"ax",%progbits
 1193              		.align	2
 1194              		.global	Disconnect_Contact_From_Intermediate
 1195              		.thumb
 1196              		.thumb_func
 1197              		.type	Disconnect_Contact_From_Intermediate, %function
 1198              	Disconnect_Contact_From_Intermediate:
 1199              	.LFB75:
 151:main.c        **** 	contact--;
 1200              		.loc 2 151 0
 1201              		.cfi_startproc
 1202              		@ args = 0, pretend = 0, frame = 0
 1203              		@ frame_needed = 0, uses_anonymous_args = 0
 1204              	.LVL131:
 1205 0000 08B5     		push	{r3, lr}
 1206              		.cfi_def_cfa_offset 8
 1207              		.cfi_offset 3, -8
 1208              		.cfi_offset 14, -4
 152:main.c        **** 	intermediate--;
 1209              		.loc 2 152 0
 1210 0002 0138     		subs	r0, r0, #1
 1211              	.LVL132:
 1212 0004 C3B2     		uxtb	r3, r0
 1213              	.LVL133:
 155:main.c        **** 	if (intermediate >= INTERMEDIATE_COUNT) return;
 1214              		.loc 2 155 0
 1215 0006 3F2B     		cmp	r3, #63
 1216 0008 16D8     		bhi	.L93
 1217 000a 0139     		subs	r1, r1, #1
 1218              	.LVL134:
 1219 000c C8B2     		uxtb	r0, r1
 156:main.c        **** 	
 1220              		.loc 2 156 0
 1221 000e 0328     		cmp	r0, #3
 1222 0010 12D8     		bhi	.L93
 1223              	.LVL135:
 159:main.c        **** 		offset = CONTACT_COUNT/2;
 1224              		.loc 2 159 0
 1225 0012 0128     		cmp	r0, #1
 1226 0014 03D9     		bls	.L95
 1227              	.LVL136:
ARM GAS  C:\Users\FRANKL~1\AppData\Local\Temp\ccnobXgu.s 			page 41


 161:main.c        **** 	} else {
 1228              		.loc 2 161 0
 1229 0016 1F2B     		cmp	r3, #31
 1230 0018 0ED9     		bls	.L93
 160:main.c        **** 		if (contact < CONTACT_COUNT/2) return;
 1231              		.loc 2 160 0
 1232 001a 2022     		movs	r2, #32
 1233 001c 02E0     		b	.L96
 1234              	.LVL137:
 1235              	.L95:
 163:main.c        **** 	}
 1236              		.loc 2 163 0
 1237 001e 1F2B     		cmp	r3, #31
 1238 0020 0AD8     		bhi	.L93
 158:main.c        **** 	if (intermediate >= INTERMEDIATE_COUNT/2) {
 1239              		.loc 2 158 0
 1240 0022 0022     		movs	r2, #0
 1241              	.LVL138:
 1242              	.L96:
 166:main.c        **** 	
 1243              		.loc 2 166 0
 1244 0024 9B1A     		subs	r3, r3, r2
 1245              	.LVL139:
 1246 0026 C0EB0022 		rsb	r2, r0, r0, lsl #8
 1247              	.LVL140:
 1248 002a 0449     		ldr	r1, .L98
 1249 002c 0A44     		add	r2, r2, r1
 1250 002e 1344     		add	r3, r3, r2
 1251 0030 D122     		movs	r2, #209
 1252 0032 5A70     		strb	r2, [r3, #1]
 168:main.c        **** }
 1253              		.loc 2 168 0
 1254 0034 FFF7FEFF 		bl	Update_Selector
 1255              	.LVL141:
 1256              	.L93:
 1257 0038 08BD     		pop	{r3, pc}
 1258              	.L99:
 1259 003a 00BF     		.align	2
 1260              	.L98:
 1261 003c 00000000 		.word	selectors
 1262              		.cfi_endproc
 1263              	.LFE75:
 1264              		.size	Disconnect_Contact_From_Intermediate, .-Disconnect_Contact_From_Intermediate
 1265              		.section	.text.Disconnect_Contact_From_All_Intermediates,"ax",%progbits
 1266              		.align	2
 1267              		.global	Disconnect_Contact_From_All_Intermediates
 1268              		.thumb
 1269              		.thumb_func
 1270              		.type	Disconnect_Contact_From_All_Intermediates, %function
 1271              	Disconnect_Contact_From_All_Intermediates:
 1272              	.LFB76:
 171:main.c        **** 	contact--;
 1273              		.loc 2 171 0
 1274              		.cfi_startproc
 1275              		@ args = 0, pretend = 0, frame = 0
 1276              		@ frame_needed = 0, uses_anonymous_args = 0
 1277              	.LVL142:
ARM GAS  C:\Users\FRANKL~1\AppData\Local\Temp\ccnobXgu.s 			page 42


 1278 0000 38B5     		push	{r3, r4, r5, lr}
 1279              		.cfi_def_cfa_offset 16
 1280              		.cfi_offset 3, -16
 1281              		.cfi_offset 4, -12
 1282              		.cfi_offset 5, -8
 1283              		.cfi_offset 14, -4
 172:main.c        **** 	
 1284              		.loc 2 172 0
 1285 0002 0138     		subs	r0, r0, #1
 1286              	.LVL143:
 1287 0004 C5B2     		uxtb	r5, r0
 1288              	.LVL144:
 1289              	.LBB14:
 174:main.c        **** 		
 1290              		.loc 2 174 0
 1291 0006 0024     		movs	r4, #0
 1292 0008 15E0     		b	.L101
 1293              	.LVL145:
 1294              	.L105:
 1295              	.LBB15:
 177:main.c        **** 			offset = CONTACT_COUNT/2;
 1296              		.loc 2 177 0
 1297 000a 012C     		cmp	r4, #1
 1298 000c 03D9     		bls	.L102
 1299              	.LVL146:
 179:main.c        **** 		} else {
 1300              		.loc 2 179 0
 1301 000e 1F2D     		cmp	r5, #31
 1302 0010 0FD9     		bls	.L103
 178:main.c        **** 			if (contact < CONTACT_COUNT/2) continue;
 1303              		.loc 2 178 0
 1304 0012 2023     		movs	r3, #32
 1305 0014 02E0     		b	.L104
 1306              	.LVL147:
 1307              	.L102:
 181:main.c        **** 		}
 1308              		.loc 2 181 0
 1309 0016 1F2D     		cmp	r5, #31
 1310 0018 0BD8     		bhi	.L103
 176:main.c        **** 		if (intermediate >= INTERMEDIATE_COUNT/2) {
 1311              		.loc 2 176 0
 1312 001a 0023     		movs	r3, #0
 1313              	.LVL148:
 1314              	.L104:
 184:main.c        **** 		
 1315              		.loc 2 184 0
 1316 001c EA1A     		subs	r2, r5, r3
 1317 001e C4EB0423 		rsb	r3, r4, r4, lsl #8
 1318              	.LVL149:
 1319 0022 0649     		ldr	r1, .L107
 1320 0024 0B44     		add	r3, r3, r1
 1321 0026 1344     		add	r3, r3, r2
 1322 0028 D122     		movs	r2, #209
 1323 002a 5A70     		strb	r2, [r3, #1]
 186:main.c        **** 	}
 1324              		.loc 2 186 0
 1325 002c 2046     		mov	r0, r4
ARM GAS  C:\Users\FRANKL~1\AppData\Local\Temp\ccnobXgu.s 			page 43


 1326 002e FFF7FEFF 		bl	Update_Selector
 1327              	.LVL150:
 1328              	.L103:
 1329              	.LBE15:
 174:main.c        **** 		
 1330              		.loc 2 174 0 discriminator 2
 1331 0032 0134     		adds	r4, r4, #1
 1332              	.LVL151:
 1333 0034 E4B2     		uxtb	r4, r4
 1334              	.LVL152:
 1335              	.L101:
 174:main.c        **** 		
 1336              		.loc 2 174 0 is_stmt 0 discriminator 1
 1337 0036 032C     		cmp	r4, #3
 1338 0038 E7D9     		bls	.L105
 1339              	.LBE14:
 188:main.c        **** 
 1340              		.loc 2 188 0 is_stmt 1
 1341 003a 38BD     		pop	{r3, r4, r5, pc}
 1342              	.LVL153:
 1343              	.L108:
 1344              		.align	2
 1345              	.L107:
 1346 003c 00000000 		.word	selectors
 1347              		.cfi_endproc
 1348              	.LFE76:
 1349              		.size	Disconnect_Contact_From_All_Intermediates, .-Disconnect_Contact_From_All_Intermediates
 1350              		.section	.text.Disconnect_All_Contacts_From_All_Intermediates,"ax",%progbits
 1351              		.align	2
 1352              		.global	Disconnect_All_Contacts_From_All_Intermediates
 1353              		.thumb
 1354              		.thumb_func
 1355              		.type	Disconnect_All_Contacts_From_All_Intermediates, %function
 1356              	Disconnect_All_Contacts_From_All_Intermediates:
 1357              	.LFB77:
 190:main.c        **** 	for (uint8 intermediate = 0; intermediate < INTERMEDIATE_COUNT/**//2; intermediate++) {
 1358              		.loc 2 190 0
 1359              		.cfi_startproc
 1360              		@ args = 0, pretend = 0, frame = 0
 1361              		@ frame_needed = 0, uses_anonymous_args = 0
 1362 0000 10B5     		push	{r4, lr}
 1363              		.cfi_def_cfa_offset 8
 1364              		.cfi_offset 4, -8
 1365              		.cfi_offset 14, -4
 1366              	.LVL154:
 1367              	.LBB16:
 191:main.c        **** 		for (uint8 contact = 0; contact < CONTACT_COUNT/2; contact++) {
 1368              		.loc 2 191 0
 1369 0002 0024     		movs	r4, #0
 1370 0004 11E0     		b	.L110
 1371              	.LVL155:
 1372              	.L111:
 1373              	.LBB17:
 193:main.c        **** 		}
 1374              		.loc 2 193 0 discriminator 3
 1375 0006 C4EB0422 		rsb	r2, r4, r4, lsl #8
 1376 000a 0949     		ldr	r1, .L115
ARM GAS  C:\Users\FRANKL~1\AppData\Local\Temp\ccnobXgu.s 			page 44


 1377 000c 0A44     		add	r2, r2, r1
 1378 000e 1A44     		add	r2, r2, r3
 1379 0010 D121     		movs	r1, #209
 1380 0012 5170     		strb	r1, [r2, #1]
 192:main.c        **** 			selectors[intermediate].write.data[contact] = CONTACT_DISCONNECT_CODE;
 1381              		.loc 2 192 0 discriminator 3
 1382 0014 0133     		adds	r3, r3, #1
 1383              	.LVL156:
 1384 0016 DBB2     		uxtb	r3, r3
 1385              	.LVL157:
 1386 0018 00E0     		b	.L112
 1387              	.LVL158:
 1388              	.L113:
 1389              	.LBE17:
 1390 001a 0023     		movs	r3, #0
 1391              	.L112:
 1392              	.LVL159:
 1393              	.LBB18:
 192:main.c        **** 			selectors[intermediate].write.data[contact] = CONTACT_DISCONNECT_CODE;
 1394              		.loc 2 192 0 is_stmt 0 discriminator 1
 1395 001c 1F2B     		cmp	r3, #31
 1396 001e F2D9     		bls	.L111
 1397              	.LBE18:
 196:main.c        **** 	}
 1398              		.loc 2 196 0 is_stmt 1 discriminator 2
 1399 0020 2046     		mov	r0, r4
 1400 0022 FFF7FEFF 		bl	Update_Selector
 1401              	.LVL160:
 191:main.c        **** 		for (uint8 contact = 0; contact < CONTACT_COUNT/2; contact++) {
 1402              		.loc 2 191 0 discriminator 2
 1403 0026 0134     		adds	r4, r4, #1
 1404              	.LVL161:
 1405 0028 E4B2     		uxtb	r4, r4
 1406              	.LVL162:
 1407              	.L110:
 191:main.c        **** 		for (uint8 contact = 0; contact < CONTACT_COUNT/2; contact++) {
 1408              		.loc 2 191 0 is_stmt 0 discriminator 1
 1409 002a 012C     		cmp	r4, #1
 1410 002c F5D9     		bls	.L113
 1411              	.LBE16:
 198:main.c        **** 
 1412              		.loc 2 198 0 is_stmt 1
 1413 002e 10BD     		pop	{r4, pc}
 1414              	.LVL163:
 1415              	.L116:
 1416              		.align	2
 1417              	.L115:
 1418 0030 00000000 		.word	selectors
 1419              		.cfi_endproc
 1420              	.LFE77:
 1421              		.size	Disconnect_All_Contacts_From_All_Intermediates, .-Disconnect_All_Contacts_From_All_Intermedi
 1422              		.section	.text.Disconnect_All_Contacts_From_Intermediate,"ax",%progbits
 1423              		.align	2
 1424              		.global	Disconnect_All_Contacts_From_Intermediate
 1425              		.thumb
 1426              		.thumb_func
 1427              		.type	Disconnect_All_Contacts_From_Intermediate, %function
ARM GAS  C:\Users\FRANKL~1\AppData\Local\Temp\ccnobXgu.s 			page 45


 1428              	Disconnect_All_Contacts_From_Intermediate:
 1429              	.LFB78:
 200:main.c        **** 	intermediate--;
 1430              		.loc 2 200 0
 1431              		.cfi_startproc
 1432              		@ args = 0, pretend = 0, frame = 0
 1433              		@ frame_needed = 0, uses_anonymous_args = 0
 1434              	.LVL164:
 1435 0000 08B5     		push	{r3, lr}
 1436              		.cfi_def_cfa_offset 8
 1437              		.cfi_offset 3, -8
 1438              		.cfi_offset 14, -4
 201:main.c        **** 	
 1439              		.loc 2 201 0
 1440 0002 0138     		subs	r0, r0, #1
 1441              	.LVL165:
 1442 0004 C0B2     		uxtb	r0, r0
 1443              	.LVL166:
 1444              	.LBB19:
 203:main.c        **** 		selectors[intermediate].write.data[contact] = CONTACT_DISCONNECT_CODE;
 1445              		.loc 2 203 0
 1446 0006 0023     		movs	r3, #0
 1447 0008 08E0     		b	.L118
 1448              	.LVL167:
 1449              	.L119:
 204:main.c        **** 	}
 1450              		.loc 2 204 0 discriminator 3
 1451 000a C0EB0022 		rsb	r2, r0, r0, lsl #8
 1452 000e 0649     		ldr	r1, .L121
 1453 0010 0A44     		add	r2, r2, r1
 1454 0012 1A44     		add	r2, r2, r3
 1455 0014 D121     		movs	r1, #209
 1456 0016 5170     		strb	r1, [r2, #1]
 203:main.c        **** 		selectors[intermediate].write.data[contact] = CONTACT_DISCONNECT_CODE;
 1457              		.loc 2 203 0 discriminator 3
 1458 0018 0133     		adds	r3, r3, #1
 1459              	.LVL168:
 1460 001a DBB2     		uxtb	r3, r3
 1461              	.LVL169:
 1462              	.L118:
 203:main.c        **** 		selectors[intermediate].write.data[contact] = CONTACT_DISCONNECT_CODE;
 1463              		.loc 2 203 0 is_stmt 0 discriminator 1
 1464 001c 1F2B     		cmp	r3, #31
 1465 001e F4D9     		bls	.L119
 1466              	.LBE19:
 207:main.c        **** }
 1467              		.loc 2 207 0 is_stmt 1
 1468 0020 FFF7FEFF 		bl	Update_Selector
 1469              	.LVL170:
 1470 0024 08BD     		pop	{r3, pc}
 1471              	.L122:
 1472 0026 00BF     		.align	2
 1473              	.L121:
 1474 0028 00000000 		.word	selectors
 1475              		.cfi_endproc
 1476              	.LFE78:
 1477              		.size	Disconnect_All_Contacts_From_Intermediate, .-Disconnect_All_Contacts_From_Intermediate
ARM GAS  C:\Users\FRANKL~1\AppData\Local\Temp\ccnobXgu.s 			page 46


 1478              		.section	.text.Connect_Intermediate,"ax",%progbits
 1479              		.align	2
 1480              		.global	Connect_Intermediate
 1481              		.thumb
 1482              		.thumb_func
 1483              		.type	Connect_Intermediate, %function
 1484              	Connect_Intermediate:
 1485              	.LFB79:
 210:main.c        **** 	switch (intermediate) {
 1486              		.loc 2 210 0
 1487              		.cfi_startproc
 1488              		@ args = 0, pretend = 0, frame = 0
 1489              		@ frame_needed = 0, uses_anonymous_args = 0
 1490              	.LVL171:
 1491 0000 08B5     		push	{r3, lr}
 1492              		.cfi_def_cfa_offset 8
 1493              		.cfi_offset 3, -8
 1494              		.cfi_offset 14, -4
 211:main.c        **** 		case 1: Connect_Channel_On_Intermediate(33, 1); break;
 1495              		.loc 2 211 0
 1496 0002 0138     		subs	r0, r0, #1
 1497              	.LVL172:
 1498 0004 0328     		cmp	r0, #3
 1499 0006 16D8     		bhi	.L123
 1500 0008 DFE800F0 		tbb	[pc, r0]
 1501              	.L126:
 1502 000c 02       		.byte	(.L125-.L126)/2
 1503 000d 07       		.byte	(.L127-.L126)/2
 1504 000e 0C       		.byte	(.L128-.L126)/2
 1505 000f 11       		.byte	(.L129-.L126)/2
 1506              		.p2align 1
 1507              	.L125:
 212:main.c        **** 		case 2: Connect_Channel_On_Intermediate(33, 2); break;
 1508              		.loc 2 212 0
 1509 0010 0121     		movs	r1, #1
 1510 0012 2120     		movs	r0, #33
 1511 0014 FFF7FEFF 		bl	Connect_Channel_On_Intermediate
 1512              	.LVL173:
 1513 0018 08BD     		pop	{r3, pc}
 1514              	.L127:
 213:main.c        **** 		case 3: Connect_Channel_On_Intermediate(33, 3); break;
 1515              		.loc 2 213 0
 1516 001a 0221     		movs	r1, #2
 1517 001c 2120     		movs	r0, #33
 1518 001e FFF7FEFF 		bl	Connect_Channel_On_Intermediate
 1519              	.LVL174:
 1520 0022 08BD     		pop	{r3, pc}
 1521              	.L128:
 214:main.c        **** 		case 4: Connect_Channel_On_Intermediate(33, 4); break;
 1522              		.loc 2 214 0
 1523 0024 0321     		movs	r1, #3
 1524 0026 2120     		movs	r0, #33
 1525 0028 FFF7FEFF 		bl	Connect_Channel_On_Intermediate
 1526              	.LVL175:
 1527 002c 08BD     		pop	{r3, pc}
 1528              	.L129:
 215:main.c        **** 		default: return;
ARM GAS  C:\Users\FRANKL~1\AppData\Local\Temp\ccnobXgu.s 			page 47


 1529              		.loc 2 215 0
 1530 002e 0421     		movs	r1, #4
 1531 0030 2120     		movs	r0, #33
 1532 0032 FFF7FEFF 		bl	Connect_Channel_On_Intermediate
 1533              	.LVL176:
 1534              	.L123:
 1535 0036 08BD     		pop	{r3, pc}
 1536              		.cfi_endproc
 1537              	.LFE79:
 1538              		.size	Connect_Intermediate, .-Connect_Intermediate
 1539              		.section	.text.Connect_Intermediates,"ax",%progbits
 1540              		.align	2
 1541              		.global	Connect_Intermediates
 1542              		.thumb
 1543              		.thumb_func
 1544              		.type	Connect_Intermediates, %function
 1545              	Connect_Intermediates:
 1546              	.LFB80:
 220:main.c        **** 	for (uint8 i = 1; i <= INTERMEDIATE_COUNT/**//2; i++) {
 1547              		.loc 2 220 0
 1548              		.cfi_startproc
 1549              		@ args = 0, pretend = 0, frame = 0
 1550              		@ frame_needed = 0, uses_anonymous_args = 0
 1551 0000 10B5     		push	{r4, lr}
 1552              		.cfi_def_cfa_offset 8
 1553              		.cfi_offset 4, -8
 1554              		.cfi_offset 14, -4
 1555              	.LVL177:
 1556              	.LBB20:
 221:main.c        **** 		Connect_Intermediate(i);
 1557              		.loc 2 221 0
 1558 0002 0124     		movs	r4, #1
 1559 0004 04E0     		b	.L132
 1560              	.LVL178:
 1561              	.L133:
 222:main.c        **** 	}
 1562              		.loc 2 222 0 discriminator 3
 1563 0006 2046     		mov	r0, r4
 1564 0008 FFF7FEFF 		bl	Connect_Intermediate
 1565              	.LVL179:
 221:main.c        **** 		Connect_Intermediate(i);
 1566              		.loc 2 221 0 discriminator 3
 1567 000c 0134     		adds	r4, r4, #1
 1568              	.LVL180:
 1569 000e E4B2     		uxtb	r4, r4
 1570              	.LVL181:
 1571              	.L132:
 221:main.c        **** 		Connect_Intermediate(i);
 1572              		.loc 2 221 0 is_stmt 0 discriminator 1
 1573 0010 022C     		cmp	r4, #2
 1574 0012 F8D9     		bls	.L133
 1575              	.LBE20:
 224:main.c        **** 
 1576              		.loc 2 224 0 is_stmt 1
 1577 0014 10BD     		pop	{r4, pc}
 1578              		.cfi_endproc
 1579              	.LFE80:
ARM GAS  C:\Users\FRANKL~1\AppData\Local\Temp\ccnobXgu.s 			page 48


 1580              		.size	Connect_Intermediates, .-Connect_Intermediates
 1581              		.global	__aeabi_ui2f
 1582              		.global	__aeabi_fdiv
 1583              		.global	__aeabi_i2f
 1584              		.global	__aeabi_fmul
 1585              		.global	__aeabi_fadd
 1586              		.global	__aeabi_f2iz
 1587              		.global	__aeabi_fsub
 1588              		.section	.text.ADC_Measure_uV,"ax",%progbits
 1589              		.align	2
 1590              		.global	ADC_Measure_uV
 1591              		.thumb
 1592              		.thumb_func
 1593              		.type	ADC_Measure_uV, %function
 1594              	ADC_Measure_uV:
 1595              	.LFB81:
 227:main.c        **** 	int32 ADC_Result = 0;
 1596              		.loc 2 227 0
 1597              		.cfi_startproc
 1598              		@ args = 0, pretend = 0, frame = 8
 1599              		@ frame_needed = 0, uses_anonymous_args = 0
 1600              	.LVL182:
 1601 0000 2DE9F04F 		push	{r4, r5, r6, r7, r8, r9, r10, fp, lr}
 1602              		.cfi_def_cfa_offset 36
 1603              		.cfi_offset 4, -36
 1604              		.cfi_offset 5, -32
 1605              		.cfi_offset 6, -28
 1606              		.cfi_offset 7, -24
 1607              		.cfi_offset 8, -20
 1608              		.cfi_offset 9, -16
 1609              		.cfi_offset 10, -12
 1610              		.cfi_offset 11, -8
 1611              		.cfi_offset 14, -4
 1612 0004 83B0     		sub	sp, sp, #12
 1613              		.cfi_def_cfa_offset 48
 1614 0006 0090     		str	r0, [sp]
 1615 0008 0191     		str	r1, [sp, #4]
 1616 000a 9346     		mov	fp, r2
 1617              	.LVL183:
 1618              	.LBB21:
 231:main.c        **** 		ADC_DelSig_1_StartConvert();
 1619              		.loc 2 231 0
 1620 000c 0124     		movs	r4, #1
 1621              	.LBE21:
 229:main.c        **** 	
 1622              		.loc 2 229 0
 1623 000e 4FF00009 		mov	r9, #0
 228:main.c        **** 	int32 ADC_SD = 0;
 1624              		.loc 2 228 0
 1625 0012 4D46     		mov	r5, r9
 1626              	.LBB23:
 231:main.c        **** 		ADC_DelSig_1_StartConvert();
 1627              		.loc 2 231 0
 1628 0014 45E0     		b	.L136
 1629              	.LVL184:
 1630              	.L138:
 1631              	.LBB22:
ARM GAS  C:\Users\FRANKL~1\AppData\Local\Temp\ccnobXgu.s 			page 49


 232:main.c        **** 		while (!ADC_DelSig_1_IsEndConversion(ADC_DelSig_1_RETURN_STATUS));
 1632              		.loc 2 232 0
 1633 0016 FFF7FEFF 		bl	ADC_DelSig_1_StartConvert
 1634              	.LVL185:
 1635              	.L137:
 233:main.c        **** 		//int16 ADC_Result = ADC_DelSig_1_CountsTo_mVolts(ADC_DelSig_1_GetResult16());
 1636              		.loc 2 233 0 discriminator 1
 1637 001a 0120     		movs	r0, #1
 1638 001c FFF7FEFF 		bl	ADC_DelSig_1_IsEndConversion
 1639              	.LVL186:
 1640 0020 0028     		cmp	r0, #0
 1641 0022 FAD0     		beq	.L137
 235:main.c        **** 		
 1642              		.loc 2 235 0 discriminator 2
 1643 0024 FFF7FEFF 		bl	ADC_DelSig_1_GetResult32
 1644              	.LVL187:
 1645 0028 FFF7FEFF 		bl	ADC_DelSig_1_CountsTo_uVolts
 1646              	.LVL188:
 1647 002c 0746     		mov	r7, r0
 1648              	.LVL189:
 237:main.c        **** 		ADC_Result += ((float)ADC_Result_Current - (float)ADC_Result)/(float)i;
 1649              		.loc 2 237 0 discriminator 2
 1650 002e 601E     		subs	r0, r4, #1
 1651              	.LVL190:
 1652 0030 FFF7FEFF 		bl	__aeabi_ui2f
 1653              	.LVL191:
 1654 0034 8046     		mov	r8, r0
 1655 0036 2046     		mov	r0, r4
 1656 0038 FFF7FEFF 		bl	__aeabi_ui2f
 1657              	.LVL192:
 1658 003c 0646     		mov	r6, r0
 1659 003e 0146     		mov	r1, r0
 1660 0040 4046     		mov	r0, r8
 1661 0042 FFF7FEFF 		bl	__aeabi_fdiv
 1662              	.LVL193:
 1663 0046 8246     		mov	r10, r0
 1664 0048 781B     		subs	r0, r7, r5
 1665 004a FFF7FEFF 		bl	__aeabi_i2f
 1666              	.LVL194:
 1667 004e 8046     		mov	r8, r0
 1668 0050 0146     		mov	r1, r0
 1669 0052 5046     		mov	r0, r10
 1670 0054 FFF7FEFF 		bl	__aeabi_fmul
 1671              	.LVL195:
 1672 0058 0146     		mov	r1, r0
 1673 005a 4046     		mov	r0, r8
 1674 005c FFF7FEFF 		bl	__aeabi_fmul
 1675              	.LVL196:
 1676 0060 8046     		mov	r8, r0
 1677 0062 4846     		mov	r0, r9
 1678 0064 FFF7FEFF 		bl	__aeabi_i2f
 1679              	.LVL197:
 1680 0068 4146     		mov	r1, r8
 1681 006a FFF7FEFF 		bl	__aeabi_fadd
 1682              	.LVL198:
 1683 006e FFF7FEFF 		bl	__aeabi_f2iz
 1684              	.LVL199:
ARM GAS  C:\Users\FRANKL~1\AppData\Local\Temp\ccnobXgu.s 			page 50


 1685 0072 8146     		mov	r9, r0
 1686              	.LVL200:
 238:main.c        **** 	}
 1687              		.loc 2 238 0 discriminator 2
 1688 0074 3846     		mov	r0, r7
 1689              	.LVL201:
 1690 0076 FFF7FEFF 		bl	__aeabi_i2f
 1691              	.LVL202:
 1692 007a 0746     		mov	r7, r0
 1693              	.LVL203:
 1694 007c 2846     		mov	r0, r5
 1695 007e FFF7FEFF 		bl	__aeabi_i2f
 1696              	.LVL204:
 1697 0082 0546     		mov	r5, r0
 1698              	.LVL205:
 1699 0084 0146     		mov	r1, r0
 1700 0086 3846     		mov	r0, r7
 1701 0088 FFF7FEFF 		bl	__aeabi_fsub
 1702              	.LVL206:
 1703 008c 3146     		mov	r1, r6
 1704 008e FFF7FEFF 		bl	__aeabi_fdiv
 1705              	.LVL207:
 1706 0092 0146     		mov	r1, r0
 1707 0094 2846     		mov	r0, r5
 1708 0096 FFF7FEFF 		bl	__aeabi_fadd
 1709              	.LVL208:
 1710 009a FFF7FEFF 		bl	__aeabi_f2iz
 1711              	.LVL209:
 1712 009e 0546     		mov	r5, r0
 1713              	.LVL210:
 1714              	.LBE22:
 231:main.c        **** 		ADC_DelSig_1_StartConvert();
 1715              		.loc 2 231 0 discriminator 2
 1716 00a0 0134     		adds	r4, r4, #1
 1717              	.LVL211:
 1718              	.L136:
 231:main.c        **** 		ADC_DelSig_1_StartConvert();
 1719              		.loc 2 231 0 is_stmt 0 discriminator 1
 1720 00a2 5C45     		cmp	r4, fp
 1721 00a4 B7D9     		bls	.L138
 1722              	.LBE23:
 241:main.c        **** 	*standardDeviation = ADC_SD;
 1723              		.loc 2 241 0 is_stmt 1
 1724 00a6 009B     		ldr	r3, [sp]
 1725 00a8 1D60     		str	r5, [r3]
 242:main.c        **** }
 1726              		.loc 2 242 0
 1727 00aa 019B     		ldr	r3, [sp, #4]
 1728 00ac C3F80090 		str	r9, [r3]
 243:main.c        **** 
 1729              		.loc 2 243 0
 1730 00b0 03B0     		add	sp, sp, #12
 1731              		.cfi_def_cfa_offset 36
 1732              	.LVL212:
 1733              		@ sp needed
 1734 00b2 BDE8F08F 		pop	{r4, r5, r6, r7, r8, r9, r10, fp, pc}
 1735              		.cfi_endproc
ARM GAS  C:\Users\FRANKL~1\AppData\Local\Temp\ccnobXgu.s 			page 51


 1736              	.LFE81:
 1737              		.size	ADC_Measure_uV, .-ADC_Measure_uV
 1738 00b6 00BF     		.section	.text.SAR1_Measure_V,"ax",%progbits
 1739              		.align	2
 1740              		.global	SAR1_Measure_V
 1741              		.thumb
 1742              		.thumb_func
 1743              		.type	SAR1_Measure_V, %function
 1744              	SAR1_Measure_V:
 1745              	.LFB82:
 246:main.c        **** 	int32 SAR_Result = 0;
 1746              		.loc 2 246 0
 1747              		.cfi_startproc
 1748              		@ args = 0, pretend = 0, frame = 8
 1749              		@ frame_needed = 0, uses_anonymous_args = 0
 1750              	.LVL213:
 1751 0000 2DE9F04F 		push	{r4, r5, r6, r7, r8, r9, r10, fp, lr}
 1752              		.cfi_def_cfa_offset 36
 1753              		.cfi_offset 4, -36
 1754              		.cfi_offset 5, -32
 1755              		.cfi_offset 6, -28
 1756              		.cfi_offset 7, -24
 1757              		.cfi_offset 8, -20
 1758              		.cfi_offset 9, -16
 1759              		.cfi_offset 10, -12
 1760              		.cfi_offset 11, -8
 1761              		.cfi_offset 14, -4
 1762 0004 83B0     		sub	sp, sp, #12
 1763              		.cfi_def_cfa_offset 48
 1764 0006 0090     		str	r0, [sp]
 1765 0008 0191     		str	r1, [sp, #4]
 1766 000a 9346     		mov	fp, r2
 1767              	.LVL214:
 1768              	.LBB24:
 250:main.c        **** 		ADC_SAR_1_StartConvert();
 1769              		.loc 2 250 0
 1770 000c 0124     		movs	r4, #1
 1771              	.LBE24:
 248:main.c        **** 	
 1772              		.loc 2 248 0
 1773 000e 4FF00009 		mov	r9, #0
 247:main.c        **** 	int32 SAR_SD = 0;
 1774              		.loc 2 247 0
 1775 0012 4D46     		mov	r5, r9
 1776              	.LBB26:
 250:main.c        **** 		ADC_SAR_1_StartConvert();
 1777              		.loc 2 250 0
 1778 0014 45E0     		b	.L141
 1779              	.LVL215:
 1780              	.L143:
 1781              	.LBB25:
 251:main.c        **** 		while (!ADC_SAR_1_IsEndConversion(ADC_SAR_1_RETURN_STATUS));
 1782              		.loc 2 251 0
 1783 0016 FFF7FEFF 		bl	ADC_SAR_1_StartConvert
 1784              	.LVL216:
 1785              	.L142:
 252:main.c        **** 		
ARM GAS  C:\Users\FRANKL~1\AppData\Local\Temp\ccnobXgu.s 			page 52


 1786              		.loc 2 252 0 discriminator 1
 1787 001a 0120     		movs	r0, #1
 1788 001c FFF7FEFF 		bl	ADC_SAR_1_IsEndConversion
 1789              	.LVL217:
 1790 0020 0028     		cmp	r0, #0
 1791 0022 FAD0     		beq	.L142
 254:main.c        **** 		
 1792              		.loc 2 254 0 discriminator 2
 1793 0024 FFF7FEFF 		bl	ADC_SAR_1_GetResult16
 1794              	.LVL218:
 1795 0028 FFF7FEFF 		bl	ADC_SAR_1_CountsTo_uVolts
 1796              	.LVL219:
 1797 002c 0746     		mov	r7, r0
 1798              	.LVL220:
 256:main.c        **** 		SAR_Result += ((float)SAR1_Result_Current - (float)SAR_Result)/(float)i;
 1799              		.loc 2 256 0 discriminator 2
 1800 002e 601E     		subs	r0, r4, #1
 1801              	.LVL221:
 1802 0030 FFF7FEFF 		bl	__aeabi_ui2f
 1803              	.LVL222:
 1804 0034 8046     		mov	r8, r0
 1805 0036 2046     		mov	r0, r4
 1806 0038 FFF7FEFF 		bl	__aeabi_ui2f
 1807              	.LVL223:
 1808 003c 0646     		mov	r6, r0
 1809 003e 0146     		mov	r1, r0
 1810 0040 4046     		mov	r0, r8
 1811 0042 FFF7FEFF 		bl	__aeabi_fdiv
 1812              	.LVL224:
 1813 0046 8246     		mov	r10, r0
 1814 0048 781B     		subs	r0, r7, r5
 1815 004a FFF7FEFF 		bl	__aeabi_i2f
 1816              	.LVL225:
 1817 004e 8046     		mov	r8, r0
 1818 0050 0146     		mov	r1, r0
 1819 0052 5046     		mov	r0, r10
 1820 0054 FFF7FEFF 		bl	__aeabi_fmul
 1821              	.LVL226:
 1822 0058 0146     		mov	r1, r0
 1823 005a 4046     		mov	r0, r8
 1824 005c FFF7FEFF 		bl	__aeabi_fmul
 1825              	.LVL227:
 1826 0060 8046     		mov	r8, r0
 1827 0062 4846     		mov	r0, r9
 1828 0064 FFF7FEFF 		bl	__aeabi_i2f
 1829              	.LVL228:
 1830 0068 4146     		mov	r1, r8
 1831 006a FFF7FEFF 		bl	__aeabi_fadd
 1832              	.LVL229:
 1833 006e FFF7FEFF 		bl	__aeabi_f2iz
 1834              	.LVL230:
 1835 0072 8146     		mov	r9, r0
 1836              	.LVL231:
 257:main.c        **** 	}
 1837              		.loc 2 257 0 discriminator 2
 1838 0074 3846     		mov	r0, r7
 1839              	.LVL232:
ARM GAS  C:\Users\FRANKL~1\AppData\Local\Temp\ccnobXgu.s 			page 53


 1840 0076 FFF7FEFF 		bl	__aeabi_i2f
 1841              	.LVL233:
 1842 007a 0746     		mov	r7, r0
 1843              	.LVL234:
 1844 007c 2846     		mov	r0, r5
 1845 007e FFF7FEFF 		bl	__aeabi_i2f
 1846              	.LVL235:
 1847 0082 0546     		mov	r5, r0
 1848              	.LVL236:
 1849 0084 0146     		mov	r1, r0
 1850 0086 3846     		mov	r0, r7
 1851 0088 FFF7FEFF 		bl	__aeabi_fsub
 1852              	.LVL237:
 1853 008c 3146     		mov	r1, r6
 1854 008e FFF7FEFF 		bl	__aeabi_fdiv
 1855              	.LVL238:
 1856 0092 0146     		mov	r1, r0
 1857 0094 2846     		mov	r0, r5
 1858 0096 FFF7FEFF 		bl	__aeabi_fadd
 1859              	.LVL239:
 1860 009a FFF7FEFF 		bl	__aeabi_f2iz
 1861              	.LVL240:
 1862 009e 0546     		mov	r5, r0
 1863              	.LVL241:
 1864              	.LBE25:
 250:main.c        **** 		ADC_SAR_1_StartConvert();
 1865              		.loc 2 250 0 discriminator 2
 1866 00a0 0134     		adds	r4, r4, #1
 1867              	.LVL242:
 1868              	.L141:
 250:main.c        **** 		ADC_SAR_1_StartConvert();
 1869              		.loc 2 250 0 is_stmt 0 discriminator 1
 1870 00a2 5C45     		cmp	r4, fp
 1871 00a4 B7D9     		bls	.L143
 1872              	.LBE26:
 260:main.c        **** 	*standardDeviation = SAR_SD;
 1873              		.loc 2 260 0 is_stmt 1
 1874 00a6 009B     		ldr	r3, [sp]
 1875 00a8 1D60     		str	r5, [r3]
 261:main.c        **** }
 1876              		.loc 2 261 0
 1877 00aa 019B     		ldr	r3, [sp, #4]
 1878 00ac C3F80090 		str	r9, [r3]
 262:main.c        **** 
 1879              		.loc 2 262 0
 1880 00b0 03B0     		add	sp, sp, #12
 1881              		.cfi_def_cfa_offset 36
 1882              	.LVL243:
 1883              		@ sp needed
 1884 00b2 BDE8F08F 		pop	{r4, r5, r6, r7, r8, r9, r10, fp, pc}
 1885              		.cfi_endproc
 1886              	.LFE82:
 1887              		.size	SAR1_Measure_V, .-SAR1_Measure_V
 1888 00b6 00BF     		.section	.text.SAR2_Measure_V,"ax",%progbits
 1889              		.align	2
 1890              		.global	SAR2_Measure_V
 1891              		.thumb
ARM GAS  C:\Users\FRANKL~1\AppData\Local\Temp\ccnobXgu.s 			page 54


 1892              		.thumb_func
 1893              		.type	SAR2_Measure_V, %function
 1894              	SAR2_Measure_V:
 1895              	.LFB83:
 265:main.c        **** 	int32 SAR_Result = 0;
 1896              		.loc 2 265 0
 1897              		.cfi_startproc
 1898              		@ args = 0, pretend = 0, frame = 8
 1899              		@ frame_needed = 0, uses_anonymous_args = 0
 1900              	.LVL244:
 1901 0000 2DE9F04F 		push	{r4, r5, r6, r7, r8, r9, r10, fp, lr}
 1902              		.cfi_def_cfa_offset 36
 1903              		.cfi_offset 4, -36
 1904              		.cfi_offset 5, -32
 1905              		.cfi_offset 6, -28
 1906              		.cfi_offset 7, -24
 1907              		.cfi_offset 8, -20
 1908              		.cfi_offset 9, -16
 1909              		.cfi_offset 10, -12
 1910              		.cfi_offset 11, -8
 1911              		.cfi_offset 14, -4
 1912 0004 83B0     		sub	sp, sp, #12
 1913              		.cfi_def_cfa_offset 48
 1914 0006 0090     		str	r0, [sp]
 1915 0008 0191     		str	r1, [sp, #4]
 1916 000a 9346     		mov	fp, r2
 1917              	.LVL245:
 1918              	.LBB27:
 269:main.c        **** 		ADC_SAR_2_StartConvert();
 1919              		.loc 2 269 0
 1920 000c 0124     		movs	r4, #1
 1921              	.LBE27:
 267:main.c        **** 	
 1922              		.loc 2 267 0
 1923 000e 4FF00009 		mov	r9, #0
 266:main.c        **** 	int32 SAR_SD = 0;
 1924              		.loc 2 266 0
 1925 0012 4D46     		mov	r5, r9
 1926              	.LBB29:
 269:main.c        **** 		ADC_SAR_2_StartConvert();
 1927              		.loc 2 269 0
 1928 0014 45E0     		b	.L146
 1929              	.LVL246:
 1930              	.L148:
 1931              	.LBB28:
 270:main.c        **** 		while (!ADC_SAR_2_IsEndConversion(ADC_SAR_2_RETURN_STATUS));
 1932              		.loc 2 270 0
 1933 0016 FFF7FEFF 		bl	ADC_SAR_2_StartConvert
 1934              	.LVL247:
 1935              	.L147:
 271:main.c        **** 		
 1936              		.loc 2 271 0 discriminator 1
 1937 001a 0120     		movs	r0, #1
 1938 001c FFF7FEFF 		bl	ADC_SAR_2_IsEndConversion
 1939              	.LVL248:
 1940 0020 0028     		cmp	r0, #0
 1941 0022 FAD0     		beq	.L147
ARM GAS  C:\Users\FRANKL~1\AppData\Local\Temp\ccnobXgu.s 			page 55


 273:main.c        **** 		
 1942              		.loc 2 273 0 discriminator 2
 1943 0024 FFF7FEFF 		bl	ADC_SAR_2_GetResult16
 1944              	.LVL249:
 1945 0028 FFF7FEFF 		bl	ADC_SAR_2_CountsTo_uVolts
 1946              	.LVL250:
 1947 002c 0746     		mov	r7, r0
 1948              	.LVL251:
 275:main.c        **** 		SAR_Result += ((float)SAR2_Result_Current - (float)SAR_Result)/(float)i;
 1949              		.loc 2 275 0 discriminator 2
 1950 002e 601E     		subs	r0, r4, #1
 1951              	.LVL252:
 1952 0030 FFF7FEFF 		bl	__aeabi_ui2f
 1953              	.LVL253:
 1954 0034 8046     		mov	r8, r0
 1955 0036 2046     		mov	r0, r4
 1956 0038 FFF7FEFF 		bl	__aeabi_ui2f
 1957              	.LVL254:
 1958 003c 0646     		mov	r6, r0
 1959 003e 0146     		mov	r1, r0
 1960 0040 4046     		mov	r0, r8
 1961 0042 FFF7FEFF 		bl	__aeabi_fdiv
 1962              	.LVL255:
 1963 0046 8246     		mov	r10, r0
 1964 0048 781B     		subs	r0, r7, r5
 1965 004a FFF7FEFF 		bl	__aeabi_i2f
 1966              	.LVL256:
 1967 004e 8046     		mov	r8, r0
 1968 0050 0146     		mov	r1, r0
 1969 0052 5046     		mov	r0, r10
 1970 0054 FFF7FEFF 		bl	__aeabi_fmul
 1971              	.LVL257:
 1972 0058 0146     		mov	r1, r0
 1973 005a 4046     		mov	r0, r8
 1974 005c FFF7FEFF 		bl	__aeabi_fmul
 1975              	.LVL258:
 1976 0060 8046     		mov	r8, r0
 1977 0062 4846     		mov	r0, r9
 1978 0064 FFF7FEFF 		bl	__aeabi_i2f
 1979              	.LVL259:
 1980 0068 4146     		mov	r1, r8
 1981 006a FFF7FEFF 		bl	__aeabi_fadd
 1982              	.LVL260:
 1983 006e FFF7FEFF 		bl	__aeabi_f2iz
 1984              	.LVL261:
 1985 0072 8146     		mov	r9, r0
 1986              	.LVL262:
 276:main.c        **** 	}
 1987              		.loc 2 276 0 discriminator 2
 1988 0074 3846     		mov	r0, r7
 1989              	.LVL263:
 1990 0076 FFF7FEFF 		bl	__aeabi_i2f
 1991              	.LVL264:
 1992 007a 0746     		mov	r7, r0
 1993              	.LVL265:
 1994 007c 2846     		mov	r0, r5
 1995 007e FFF7FEFF 		bl	__aeabi_i2f
ARM GAS  C:\Users\FRANKL~1\AppData\Local\Temp\ccnobXgu.s 			page 56


 1996              	.LVL266:
 1997 0082 0546     		mov	r5, r0
 1998              	.LVL267:
 1999 0084 0146     		mov	r1, r0
 2000 0086 3846     		mov	r0, r7
 2001 0088 FFF7FEFF 		bl	__aeabi_fsub
 2002              	.LVL268:
 2003 008c 3146     		mov	r1, r6
 2004 008e FFF7FEFF 		bl	__aeabi_fdiv
 2005              	.LVL269:
 2006 0092 0146     		mov	r1, r0
 2007 0094 2846     		mov	r0, r5
 2008 0096 FFF7FEFF 		bl	__aeabi_fadd
 2009              	.LVL270:
 2010 009a FFF7FEFF 		bl	__aeabi_f2iz
 2011              	.LVL271:
 2012 009e 0546     		mov	r5, r0
 2013              	.LVL272:
 2014              	.LBE28:
 269:main.c        **** 		ADC_SAR_2_StartConvert();
 2015              		.loc 2 269 0 discriminator 2
 2016 00a0 0134     		adds	r4, r4, #1
 2017              	.LVL273:
 2018              	.L146:
 269:main.c        **** 		ADC_SAR_2_StartConvert();
 2019              		.loc 2 269 0 is_stmt 0 discriminator 1
 2020 00a2 5C45     		cmp	r4, fp
 2021 00a4 B7D9     		bls	.L148
 2022              	.LBE29:
 279:main.c        **** 	*standardDeviation = SAR_SD;
 2023              		.loc 2 279 0 is_stmt 1
 2024 00a6 009B     		ldr	r3, [sp]
 2025 00a8 1D60     		str	r5, [r3]
 280:main.c        **** }
 2026              		.loc 2 280 0
 2027 00aa 019B     		ldr	r3, [sp, #4]
 2028 00ac C3F80090 		str	r9, [r3]
 281:main.c        **** 
 2029              		.loc 2 281 0
 2030 00b0 03B0     		add	sp, sp, #12
 2031              		.cfi_def_cfa_offset 36
 2032              	.LVL274:
 2033              		@ sp needed
 2034 00b2 BDE8F08F 		pop	{r4, r5, r6, r7, r8, r9, r10, fp, pc}
 2035              		.cfi_endproc
 2036              	.LFE83:
 2037              		.size	SAR2_Measure_V, .-SAR2_Measure_V
 2038              		.global	__aeabi_i2d
 2039              		.global	__aeabi_dcmpgt
 2040              		.global	__aeabi_f2d
 2041              		.global	__aeabi_dsub
 2042              		.global	__aeabi_ddiv
 2043              		.global	__aeabi_dmul
 2044              		.global	__aeabi_dadd
 2045              		.global	__aeabi_d2f
 2046 00b6 00BF     		.section	.text.Measure_Current_Vss,"ax",%progbits
 2047              		.align	2
ARM GAS  C:\Users\FRANKL~1\AppData\Local\Temp\ccnobXgu.s 			page 57


 2048              		.global	Measure_Current_Vss
 2049              		.thumb
 2050              		.thumb_func
 2051              		.type	Measure_Current_Vss, %function
 2052              	Measure_Current_Vss:
 2053              	.LFB84:
 284:main.c        **** 	Compliance_Reached = 0;
 2054              		.loc 2 284 0
 2055              		.cfi_startproc
 2056              		@ args = 0, pretend = 0, frame = 24
 2057              		@ frame_needed = 0, uses_anonymous_args = 0
 2058              	.LVL275:
 2059 0000 2DE9F04F 		push	{r4, r5, r6, r7, r8, r9, r10, fp, lr}
 2060              		.cfi_def_cfa_offset 36
 2061              		.cfi_offset 4, -36
 2062              		.cfi_offset 5, -32
 2063              		.cfi_offset 6, -28
 2064              		.cfi_offset 7, -24
 2065              		.cfi_offset 8, -20
 2066              		.cfi_offset 9, -16
 2067              		.cfi_offset 10, -12
 2068              		.cfi_offset 11, -8
 2069              		.cfi_offset 14, -4
 2070 0004 87B0     		sub	sp, sp, #28
 2071              		.cfi_def_cfa_offset 64
 2072 0006 0290     		str	r0, [sp, #8]
 2073 0008 0391     		str	r1, [sp, #12]
 2074 000a 9346     		mov	fp, r2
 285:main.c        **** 	
 2075              		.loc 2 285 0
 2076 000c 0023     		movs	r3, #0
 2077 000e 3E4A     		ldr	r2, .L159+8
 2078              	.LVL276:
 2079 0010 1370     		strb	r3, [r2]
 288:main.c        **** 	int32 voltageSD = 0;
 2080              		.loc 2 288 0
 2081 0012 0593     		str	r3, [sp, #20]
 289:main.c        **** 	
 2082              		.loc 2 289 0
 2083 0014 06A9     		add	r1, sp, #24
 2084              	.LVL277:
 2085 0016 41F8083D 		str	r3, [r1, #-8]!
 2086              	.LVL278:
 301:main.c        **** 	
 2087              		.loc 2 301 0
 2088 001a 0322     		movs	r2, #3
 2089 001c 05A8     		add	r0, sp, #20
 2090              	.LVL279:
 2091 001e FFF7FEFF 		bl	ADC_Measure_uV
 2092              	.LVL280:
 2093              	.LBB30:
 304:main.c        **** 		ADC_Measure_uV(&voltage, &voltageSD, 1);
 2094              		.loc 2 304 0
 2095 0022 0124     		movs	r4, #1
 2096              	.LBE30:
 295:main.c        **** 	
 2097              		.loc 2 295 0
ARM GAS  C:\Users\FRANKL~1\AppData\Local\Temp\ccnobXgu.s 			page 58


 2098 0024 4FF00008 		mov	r8, #0
 294:main.c        **** 	float currentStdDev = 0;
 2099              		.loc 2 294 0
 2100 0028 C146     		mov	r9, r8
 2101              	.LBB31:
 304:main.c        **** 		ADC_Measure_uV(&voltage, &voltageSD, 1);
 2102              		.loc 2 304 0
 2103 002a 5DE0     		b	.L151
 2104              	.LVL281:
 2105              	.L155:
 305:main.c        **** 		
 2106              		.loc 2 305 0
 2107 002c 0122     		movs	r2, #1
 2108 002e 04A9     		add	r1, sp, #16
 2109 0030 05A8     		add	r0, sp, #20
 2110 0032 FFF7FEFF 		bl	ADC_Measure_uV
 2111              	.LVL282:
 307:main.c        **** 		
 2112              		.loc 2 307 0
 2113 0036 0598     		ldr	r0, [sp, #20]
 2114 0038 FFF7FEFF 		bl	__aeabi_i2f
 2115              	.LVL283:
 2116 003c 3349     		ldr	r1, .L159+12
 2117 003e FFF7FEFF 		bl	__aeabi_fmul
 2118              	.LVL284:
 2119 0042 0546     		mov	r5, r0
 2120              	.LVL285:
 309:main.c        **** 			Compliance_Reached += 1;
 2121              		.loc 2 309 0
 2122 0044 FFF7FEFF 		bl	__aeabi_f2iz
 2123              	.LVL286:
 2124 0048 0028     		cmp	r0, #0
 2125 004a B8BF     		it	lt
 2126 004c 4042     		rsblt	r0, r0, #0
 2127 004e FFF7FEFF 		bl	__aeabi_i2d
 2128              	.LVL287:
 2129 0052 2BA3     		adr	r3, .L159
 2130 0054 D3E90023 		ldrd	r2, [r3]
 2131 0058 FFF7FEFF 		bl	__aeabi_dcmpgt
 2132              	.LVL288:
 2133 005c 20B1     		cbz	r0, .L157
 310:main.c        **** 			break;
 2134              		.loc 2 310 0
 2135 005e 2A4A     		ldr	r2, .L159+8
 2136 0060 1378     		ldrb	r3, [r2]	@ zero_extendqisi2
 2137 0062 0133     		adds	r3, r3, #1
 2138 0064 1370     		strb	r3, [r2]
 311:main.c        **** 		} else {
 2139              		.loc 2 311 0
 2140 0066 41E0     		b	.L154
 2141              	.L157:
 313:main.c        **** 		}
 2142              		.loc 2 313 0 discriminator 2
 2143 0068 0022     		movs	r2, #0
 2144 006a 274B     		ldr	r3, .L159+8
 2145 006c 1A70     		strb	r2, [r3]
 316:main.c        **** 		currentAverage += (currentNow - currentAverage)/(float)i;
ARM GAS  C:\Users\FRANKL~1\AppData\Local\Temp\ccnobXgu.s 			page 59


 2146              		.loc 2 316 0 discriminator 2
 2147 006e 2046     		mov	r0, r4
 2148 0070 FFF7FEFF 		bl	__aeabi_ui2f
 2149              	.LVL289:
 2150 0074 8246     		mov	r10, r0
 2151 0076 FFF7FEFF 		bl	__aeabi_f2d
 2152              	.LVL290:
 2153 007a 0646     		mov	r6, r0
 2154 007c 0F46     		mov	r7, r1
 2155 007e 0022     		movs	r2, #0
 2156 0080 234B     		ldr	r3, .L159+16
 2157 0082 FFF7FEFF 		bl	__aeabi_dsub
 2158              	.LVL291:
 2159 0086 3246     		mov	r2, r6
 2160 0088 3B46     		mov	r3, r7
 2161 008a FFF7FEFF 		bl	__aeabi_ddiv
 2162              	.LVL292:
 2163 008e CDE90001 		strd	r0, [sp]
 2164 0092 4946     		mov	r1, r9
 2165 0094 2846     		mov	r0, r5
 2166 0096 FFF7FEFF 		bl	__aeabi_fsub
 2167              	.LVL293:
 2168 009a 0546     		mov	r5, r0
 2169              	.LVL294:
 2170 009c FFF7FEFF 		bl	__aeabi_f2d
 2171              	.LVL295:
 2172 00a0 0646     		mov	r6, r0
 2173 00a2 0F46     		mov	r7, r1
 2174 00a4 0246     		mov	r2, r0
 2175 00a6 0B46     		mov	r3, r1
 2176 00a8 DDE90001 		ldrd	r0, [sp]
 2177 00ac FFF7FEFF 		bl	__aeabi_dmul
 2178              	.LVL296:
 2179 00b0 0246     		mov	r2, r0
 2180 00b2 0B46     		mov	r3, r1
 2181 00b4 3046     		mov	r0, r6
 2182 00b6 3946     		mov	r1, r7
 2183 00b8 FFF7FEFF 		bl	__aeabi_dmul
 2184              	.LVL297:
 2185 00bc 0646     		mov	r6, r0
 2186 00be 0F46     		mov	r7, r1
 2187 00c0 4046     		mov	r0, r8
 2188 00c2 FFF7FEFF 		bl	__aeabi_f2d
 2189              	.LVL298:
 2190 00c6 3246     		mov	r2, r6
 2191 00c8 3B46     		mov	r3, r7
 2192 00ca FFF7FEFF 		bl	__aeabi_dadd
 2193              	.LVL299:
 2194 00ce FFF7FEFF 		bl	__aeabi_d2f
 2195              	.LVL300:
 2196 00d2 8046     		mov	r8, r0
 2197              	.LVL301:
 317:main.c        **** 	}
 2198              		.loc 2 317 0 discriminator 2
 2199 00d4 5146     		mov	r1, r10
 2200 00d6 2846     		mov	r0, r5
 2201              	.LVL302:
ARM GAS  C:\Users\FRANKL~1\AppData\Local\Temp\ccnobXgu.s 			page 60


 2202 00d8 FFF7FEFF 		bl	__aeabi_fdiv
 2203              	.LVL303:
 2204 00dc 0146     		mov	r1, r0
 2205 00de 4846     		mov	r0, r9
 2206 00e0 FFF7FEFF 		bl	__aeabi_fadd
 2207              	.LVL304:
 2208 00e4 8146     		mov	r9, r0
 2209              	.LVL305:
 304:main.c        **** 		ADC_Measure_uV(&voltage, &voltageSD, 1);
 2210              		.loc 2 304 0 discriminator 2
 2211 00e6 0134     		adds	r4, r4, #1
 2212              	.LVL306:
 2213              	.L151:
 304:main.c        **** 		ADC_Measure_uV(&voltage, &voltageSD, 1);
 2214              		.loc 2 304 0 is_stmt 0 discriminator 1
 2215 00e8 5C45     		cmp	r4, fp
 2216 00ea 9FD9     		bls	.L155
 2217              	.L154:
 2218              	.LBE31:
 320:main.c        **** 	*currentStdDevIn = currentStdDev;
 2219              		.loc 2 320 0 is_stmt 1
 2220 00ec 029B     		ldr	r3, [sp, #8]
 2221 00ee C3F80090 		str	r9, [r3]	@ float
 321:main.c        **** }
 2222              		.loc 2 321 0
 2223 00f2 039B     		ldr	r3, [sp, #12]
 2224 00f4 C3F80080 		str	r8, [r3]	@ float
 322:main.c        **** 
 2225              		.loc 2 322 0
 2226 00f8 07B0     		add	sp, sp, #28
 2227              		.cfi_def_cfa_offset 36
 2228              		@ sp needed
 2229 00fa BDE8F08F 		pop	{r4, r5, r6, r7, r8, r9, r10, fp, pc}
 2230              	.LVL307:
 2231              	.L160:
 2232 00fe 00BF     		.align	3
 2233              	.L159:
 2234 0100 F168E388 		.word	-1998362383
 2235 0104 B5F8E43E 		.word	1055193269
 2236 0108 00000000 		.word	Compliance_Reached
 2237 010c FFE65BAE 		.word	-1369708801
 2238 0110 0000F03F 		.word	1072693248
 2239              		.cfi_endproc
 2240              	.LFE84:
 2241              		.size	Measure_Current_Vss, .-Measure_Current_Vss
 2242              		.section	.text.At_Compliance,"ax",%progbits
 2243              		.align	2
 2244              		.global	At_Compliance
 2245              		.thumb
 2246              		.thumb_func
 2247              		.type	At_Compliance, %function
 2248              	At_Compliance:
 2249              	.LFB85:
 324:main.c        **** 	Compliance_Reached = 0;
 2250              		.loc 2 324 0
 2251              		.cfi_startproc
 2252              		@ args = 0, pretend = 0, frame = 8
ARM GAS  C:\Users\FRANKL~1\AppData\Local\Temp\ccnobXgu.s 			page 61


 2253              		@ frame_needed = 0, uses_anonymous_args = 0
 2254 0000 00B5     		push	{lr}
 2255              		.cfi_def_cfa_offset 4
 2256              		.cfi_offset 14, -4
 2257 0002 83B0     		sub	sp, sp, #12
 2258              		.cfi_def_cfa_offset 16
 325:main.c        **** 	
 2259              		.loc 2 325 0
 2260 0004 0022     		movs	r2, #0
 2261 0006 124B     		ldr	r3, .L168+8
 2262 0008 1A70     		strb	r2, [r3]
 327:main.c        **** 	float currentSD = 0;
 2263              		.loc 2 327 0
 2264 000a 0023     		movs	r3, #0
 2265 000c 0193     		str	r3, [sp, #4]	@ float
 328:main.c        **** 	
 2266              		.loc 2 328 0
 2267 000e 02A9     		add	r1, sp, #8
 2268 0010 41F8083D 		str	r3, [r1, #-8]!	@ float
 330:main.c        **** 	
 2269              		.loc 2 330 0
 2270 0014 0322     		movs	r2, #3
 2271 0016 01A8     		add	r0, sp, #4
 2272 0018 FFF7FEFF 		bl	Measure_Current_Vss
 2273              	.LVL308:
 332:main.c        **** 		Compliance_Reached = 1;
 2274              		.loc 2 332 0
 2275 001c 0198     		ldr	r0, [sp, #4]	@ float
 2276 001e FFF7FEFF 		bl	__aeabi_f2iz
 2277              	.LVL309:
 2278 0022 0028     		cmp	r0, #0
 2279 0024 B8BF     		it	lt
 2280 0026 4042     		rsblt	r0, r0, #0
 2281 0028 FFF7FEFF 		bl	__aeabi_i2d
 2282              	.LVL310:
 2283 002c 06A3     		adr	r3, .L168
 2284 002e D3E90023 		ldrd	r2, [r3]
 2285 0032 FFF7FEFF 		bl	__aeabi_dcmpgt
 2286              	.LVL311:
 2287 0036 18B1     		cbz	r0, .L166
 333:main.c        **** 		return 1;
 2288              		.loc 2 333 0
 2289 0038 0120     		movs	r0, #1
 2290 003a 054B     		ldr	r3, .L168+8
 2291 003c 1870     		strb	r0, [r3]
 334:main.c        **** 	}
 2292              		.loc 2 334 0
 2293 003e 00E0     		b	.L162
 2294              	.L166:
 337:main.c        **** }
 2295              		.loc 2 337 0
 2296 0040 0020     		movs	r0, #0
 2297              	.L162:
 338:main.c        **** 
 2298              		.loc 2 338 0
 2299 0042 03B0     		add	sp, sp, #12
 2300              		.cfi_def_cfa_offset 4
ARM GAS  C:\Users\FRANKL~1\AppData\Local\Temp\ccnobXgu.s 			page 62


 2301              		@ sp needed
 2302 0044 5DF804FB 		ldr	pc, [sp], #4
 2303              	.L169:
 2304              		.align	3
 2305              	.L168:
 2306 0048 F168E388 		.word	-1998362383
 2307 004c B5F8E43E 		.word	1055193269
 2308 0050 00000000 		.word	Compliance_Reached
 2309              		.cfi_endproc
 2310              	.LFE85:
 2311              		.size	At_Compliance, .-At_Compliance
 2312              		.section	.text.Handle_Compliance_Breach,"ax",%progbits
 2313              		.align	2
 2314              		.global	Handle_Compliance_Breach
 2315              		.thumb
 2316              		.thumb_func
 2317              		.type	Handle_Compliance_Breach, %function
 2318              	Handle_Compliance_Breach:
 2319              	.LFB86:
 340:main.c        **** 	uint8 istart = VDAC_Vds_Data;
 2320              		.loc 2 340 0
 2321              		.cfi_startproc
 2322              		@ args = 0, pretend = 0, frame = 0
 2323              		@ frame_needed = 0, uses_anonymous_args = 0
 2324 0000 70B5     		push	{r4, r5, r6, lr}
 2325              		.cfi_def_cfa_offset 16
 2326              		.cfi_offset 4, -16
 2327              		.cfi_offset 5, -12
 2328              		.cfi_offset 6, -8
 2329              		.cfi_offset 14, -4
 341:main.c        **** 	uint8 istop = VDAC_Ref_Data;
 2330              		.loc 2 341 0
 2331 0002 174B     		ldr	r3, .L181
 2332 0004 1C78     		ldrb	r4, [r3]	@ zero_extendqisi2
 2333 0006 E4B2     		uxtb	r4, r4
 2334              	.LVL312:
 342:main.c        **** 	int8 increment = 1;
 2335              		.loc 2 342 0
 2336 0008 0233     		adds	r3, r3, #2
 2337 000a 1D78     		ldrb	r5, [r3]	@ zero_extendqisi2
 2338 000c EDB2     		uxtb	r5, r5
 2339              	.LVL313:
 344:main.c        **** 	
 2340              		.loc 2 344 0
 2341 000e AC42     		cmp	r4, r5
 2342 0010 01D3     		bcc	.L178
 343:main.c        **** 	if (istart < istop) increment = -1;
 2343              		.loc 2 343 0
 2344 0012 0126     		movs	r6, #1
 2345 0014 0AE0     		b	.L172
 2346              	.L178:
 344:main.c        **** 	
 2347              		.loc 2 344 0
 2348 0016 4FF0FF36 		mov	r6, #-1
 2349              	.LVL314:
 2350              	.LBB32:
 346:main.c        **** 		VDAC_Vds_SetValue(i);
ARM GAS  C:\Users\FRANKL~1\AppData\Local\Temp\ccnobXgu.s 			page 63


 2351              		.loc 2 346 0
 2352 001a 07E0     		b	.L172
 2353              	.LVL315:
 2354              	.L174:
 347:main.c        **** 		
 2355              		.loc 2 347 0
 2356 001c 2046     		mov	r0, r4
 2357 001e FFF7FEFF 		bl	VDAC_Vds_SetValue
 2358              	.LVL316:
 349:main.c        **** 	}
 2359              		.loc 2 349 0
 2360 0022 FFF7FEFF 		bl	At_Compliance
 2361              	.LVL317:
 2362 0026 D0B1     		cbz	r0, .L170
 346:main.c        **** 		VDAC_Vds_SetValue(i);
 2363              		.loc 2 346 0 discriminator 2
 2364 0028 3444     		add	r4, r4, r6
 2365              	.LVL318:
 2366 002a E4B2     		uxtb	r4, r4
 2367              	.LVL319:
 2368              	.L172:
 346:main.c        **** 		VDAC_Vds_SetValue(i);
 2369              		.loc 2 346 0 is_stmt 0 discriminator 1
 2370 002c AC42     		cmp	r4, r5
 2371 002e F5D1     		bne	.L174
 2372              	.LBE32:
 352:main.c        **** 	istop = VDAC_Ref_Data;
 2373              		.loc 2 352 0 is_stmt 1
 2374 0030 0C4B     		ldr	r3, .L181+4
 2375 0032 1C78     		ldrb	r4, [r3]	@ zero_extendqisi2
 2376              	.LVL320:
 2377 0034 E4B2     		uxtb	r4, r4
 2378              	.LVL321:
 353:main.c        **** 	increment = 1;
 2379              		.loc 2 353 0
 2380 0036 013B     		subs	r3, r3, #1
 2381 0038 1D78     		ldrb	r5, [r3]	@ zero_extendqisi2
 2382              	.LVL322:
 2383 003a EDB2     		uxtb	r5, r5
 2384              	.LVL323:
 355:main.c        **** 	
 2385              		.loc 2 355 0
 2386 003c AC42     		cmp	r4, r5
 2387 003e 01D3     		bcc	.L179
 354:main.c        **** 	if (istart < istop) increment = -1;
 2388              		.loc 2 354 0
 2389 0040 0126     		movs	r6, #1
 2390 0042 0AE0     		b	.L176
 2391              	.L179:
 355:main.c        **** 	
 2392              		.loc 2 355 0
 2393 0044 4FF0FF36 		mov	r6, #-1
 2394              	.LVL324:
 2395              	.LBB33:
 357:main.c        **** 		VDAC_Vgs_SetValue(i);
 2396              		.loc 2 357 0
 2397 0048 07E0     		b	.L176
ARM GAS  C:\Users\FRANKL~1\AppData\Local\Temp\ccnobXgu.s 			page 64


 2398              	.LVL325:
 2399              	.L177:
 358:main.c        **** 		
 2400              		.loc 2 358 0
 2401 004a 2046     		mov	r0, r4
 2402 004c FFF7FEFF 		bl	VDAC_Vgs_SetValue
 2403              	.LVL326:
 360:main.c        **** 	}
 2404              		.loc 2 360 0
 2405 0050 FFF7FEFF 		bl	At_Compliance
 2406              	.LVL327:
 2407 0054 18B1     		cbz	r0, .L170
 357:main.c        **** 		VDAC_Vgs_SetValue(i);
 2408              		.loc 2 357 0 discriminator 2
 2409 0056 3444     		add	r4, r4, r6
 2410              	.LVL328:
 2411 0058 E4B2     		uxtb	r4, r4
 2412              	.LVL329:
 2413              	.L176:
 357:main.c        **** 		VDAC_Vgs_SetValue(i);
 2414              		.loc 2 357 0 is_stmt 0 discriminator 1
 2415 005a AC42     		cmp	r4, r5
 2416 005c F5D1     		bne	.L177
 2417              	.LVL330:
 2418              	.L170:
 2419 005e 70BD     		pop	{r4, r5, r6, pc}
 2420              	.LVL331:
 2421              	.L182:
 2422              		.align	2
 2423              	.L181:
 2424 0060 805B0040 		.word	1073765248
 2425 0064 835B0040 		.word	1073765251
 2426              	.LBE33:
 2427              		.cfi_endproc
 2428              	.LFE86:
 2429              		.size	Handle_Compliance_Breach, .-Handle_Compliance_Breach
 2430              		.section	.text.Get_Ref,"ax",%progbits
 2431              		.align	2
 2432              		.global	Get_Ref
 2433              		.thumb
 2434              		.thumb_func
 2435              		.type	Get_Ref, %function
 2436              	Get_Ref:
 2437              	.LFB87:
 367:main.c        **** 	float result = 4.080/255.0*VDAC_Ref_Data;
 2438              		.loc 2 367 0 is_stmt 1
 2439              		.cfi_startproc
 2440              		@ args = 0, pretend = 0, frame = 0
 2441              		@ frame_needed = 0, uses_anonymous_args = 0
 2442 0000 08B5     		push	{r3, lr}
 2443              		.cfi_def_cfa_offset 8
 2444              		.cfi_offset 3, -8
 2445              		.cfi_offset 14, -4
 368:main.c        **** 	if (VDAC_Ref_CR0 & (VDAC_Ref_RANGE_1V & VDAC_Ref_RANGE_MASK)) {
 2446              		.loc 2 368 0
 2447 0002 094B     		ldr	r3, .L185+8
 2448 0004 1878     		ldrb	r0, [r3]	@ zero_extendqisi2
ARM GAS  C:\Users\FRANKL~1\AppData\Local\Temp\ccnobXgu.s 			page 65


 2449 0006 FFF7FEFF 		bl	__aeabi_i2d
 2450              	.LVL332:
 2451 000a 05A3     		adr	r3, .L185
 2452 000c D3E90023 		ldrd	r2, [r3]
 2453 0010 FFF7FEFF 		bl	__aeabi_dmul
 2454              	.LVL333:
 2455 0014 FFF7FEFF 		bl	__aeabi_d2f
 2456              	.LVL334:
 369:main.c        **** 		result = 1.020/255.0*VDAC_Ref_Data;
 2457              		.loc 2 369 0
 2458 0018 044B     		ldr	r3, .L185+12
 2459 001a 1B78     		ldrb	r3, [r3]	@ zero_extendqisi2
 373:main.c        **** 
 2460              		.loc 2 373 0
 2461 001c 08BD     		pop	{r3, pc}
 2462              	.L186:
 2463 001e 00BF     		.align	3
 2464              	.L185:
 2465 0020 FCA9F1D2 		.word	-755914244
 2466 0024 4D62903F 		.word	1066426957
 2467 0028 825B0040 		.word	1073765250
 2468 002c 28580040 		.word	1073764392
 2469              		.cfi_endproc
 2470              	.LFE87:
 2471              		.size	Get_Ref, .-Get_Ref
 2472              		.section	.text.Get_Vgs,"ax",%progbits
 2473              		.align	2
 2474              		.global	Get_Vgs
 2475              		.thumb
 2476              		.thumb_func
 2477              		.type	Get_Vgs, %function
 2478              	Get_Vgs:
 2479              	.LFB88:
 376:main.c        **** 	float result = 4.080/255.0*VDAC_Vgs_Data - Get_Ref();
 2480              		.loc 2 376 0
 2481              		.cfi_startproc
 2482              		@ args = 0, pretend = 0, frame = 0
 2483              		@ frame_needed = 0, uses_anonymous_args = 0
 2484 0000 38B5     		push	{r3, r4, r5, lr}
 2485              		.cfi_def_cfa_offset 16
 2486              		.cfi_offset 3, -16
 2487              		.cfi_offset 4, -12
 2488              		.cfi_offset 5, -8
 2489              		.cfi_offset 14, -4
 377:main.c        **** 	if (VDAC_Vgs_CR0 & (VDAC_Vgs_RANGE_1V & VDAC_Vgs_RANGE_MASK)) {
 2490              		.loc 2 377 0
 2491 0002 0F4B     		ldr	r3, .L189+8
 2492 0004 1878     		ldrb	r0, [r3]	@ zero_extendqisi2
 2493 0006 FFF7FEFF 		bl	__aeabi_i2d
 2494              	.LVL335:
 2495 000a 0BA3     		adr	r3, .L189
 2496 000c D3E90023 		ldrd	r2, [r3]
 2497 0010 FFF7FEFF 		bl	__aeabi_dmul
 2498              	.LVL336:
 2499 0014 0446     		mov	r4, r0
 2500 0016 0D46     		mov	r5, r1
 2501 0018 FFF7FEFF 		bl	Get_Ref
ARM GAS  C:\Users\FRANKL~1\AppData\Local\Temp\ccnobXgu.s 			page 66


 2502              	.LVL337:
 2503 001c FFF7FEFF 		bl	__aeabi_f2d
 2504              	.LVL338:
 2505 0020 0246     		mov	r2, r0
 2506 0022 0B46     		mov	r3, r1
 2507 0024 2046     		mov	r0, r4
 2508 0026 2946     		mov	r1, r5
 2509 0028 FFF7FEFF 		bl	__aeabi_dsub
 2510              	.LVL339:
 2511 002c FFF7FEFF 		bl	__aeabi_d2f
 2512              	.LVL340:
 378:main.c        **** 		result = 1.020/255.0*VDAC_Vgs_Data - Get_Ref();
 2513              		.loc 2 378 0
 2514 0030 044B     		ldr	r3, .L189+12
 2515 0032 1B78     		ldrb	r3, [r3]	@ zero_extendqisi2
 382:main.c        **** 
 2516              		.loc 2 382 0
 2517 0034 38BD     		pop	{r3, r4, r5, pc}
 2518              	.L190:
 2519 0036 00BF     		.align	3
 2520              	.L189:
 2521 0038 FCA9F1D2 		.word	-755914244
 2522 003c 4D62903F 		.word	1066426957
 2523 0040 835B0040 		.word	1073765251
 2524 0044 2C580040 		.word	1073764396
 2525              		.cfi_endproc
 2526              	.LFE88:
 2527              		.size	Get_Vgs, .-Get_Vgs
 2528              		.section	.text.Get_Vds,"ax",%progbits
 2529              		.align	2
 2530              		.global	Get_Vds
 2531              		.thumb
 2532              		.thumb_func
 2533              		.type	Get_Vds, %function
 2534              	Get_Vds:
 2535              	.LFB89:
 385:main.c        **** 	float result = 4.080/255.0*VDAC_Vds_Data - Get_Ref();
 2536              		.loc 2 385 0
 2537              		.cfi_startproc
 2538              		@ args = 0, pretend = 0, frame = 0
 2539              		@ frame_needed = 0, uses_anonymous_args = 0
 2540 0000 38B5     		push	{r3, r4, r5, lr}
 2541              		.cfi_def_cfa_offset 16
 2542              		.cfi_offset 3, -16
 2543              		.cfi_offset 4, -12
 2544              		.cfi_offset 5, -8
 2545              		.cfi_offset 14, -4
 386:main.c        **** 	if (VDAC_Vds_CR0 & (VDAC_Vds_RANGE_1V & VDAC_Vds_RANGE_MASK)) {
 2546              		.loc 2 386 0
 2547 0002 0F4B     		ldr	r3, .L193+8
 2548 0004 1878     		ldrb	r0, [r3]	@ zero_extendqisi2
 2549 0006 FFF7FEFF 		bl	__aeabi_i2d
 2550              	.LVL341:
 2551 000a 0BA3     		adr	r3, .L193
 2552 000c D3E90023 		ldrd	r2, [r3]
 2553 0010 FFF7FEFF 		bl	__aeabi_dmul
 2554              	.LVL342:
ARM GAS  C:\Users\FRANKL~1\AppData\Local\Temp\ccnobXgu.s 			page 67


 2555 0014 0446     		mov	r4, r0
 2556 0016 0D46     		mov	r5, r1
 2557 0018 FFF7FEFF 		bl	Get_Ref
 2558              	.LVL343:
 2559 001c FFF7FEFF 		bl	__aeabi_f2d
 2560              	.LVL344:
 2561 0020 0246     		mov	r2, r0
 2562 0022 0B46     		mov	r3, r1
 2563 0024 2046     		mov	r0, r4
 2564 0026 2946     		mov	r1, r5
 2565 0028 FFF7FEFF 		bl	__aeabi_dsub
 2566              	.LVL345:
 2567 002c FFF7FEFF 		bl	__aeabi_d2f
 2568              	.LVL346:
 387:main.c        **** 		result = 1.020/255.0*VDAC_Vds_Data - Get_Ref();
 2569              		.loc 2 387 0
 2570 0030 044B     		ldr	r3, .L193+12
 2571 0032 1B78     		ldrb	r3, [r3]	@ zero_extendqisi2
 391:main.c        **** 
 2572              		.loc 2 391 0
 2573 0034 38BD     		pop	{r3, r4, r5, pc}
 2574              	.L194:
 2575 0036 00BF     		.align	3
 2576              	.L193:
 2577 0038 FCA9F1D2 		.word	-755914244
 2578 003c 4D62903F 		.word	1066426957
 2579 0040 805B0040 		.word	1073765248
 2580 0044 20580040 		.word	1073764384
 2581              		.cfi_endproc
 2582              	.LFE89:
 2583              		.size	Get_Vds, .-Get_Vds
 2584              		.section	.text.Set_Vds_Raw,"ax",%progbits
 2585              		.align	2
 2586              		.global	Set_Vds_Raw
 2587              		.thumb
 2588              		.thumb_func
 2589              		.type	Set_Vds_Raw, %function
 2590              	Set_Vds_Raw:
 2591              	.LFB90:
 396:main.c        **** 	Vds_Index_Goal_Relative = (int16)value - (int16)VDAC_Ref_Data;
 2592              		.loc 2 396 0
 2593              		.cfi_startproc
 2594              		@ args = 0, pretend = 0, frame = 0
 2595              		@ frame_needed = 0, uses_anonymous_args = 0
 2596              	.LVL347:
 2597 0000 2DE9F041 		push	{r4, r5, r6, r7, r8, lr}
 2598              		.cfi_def_cfa_offset 24
 2599              		.cfi_offset 4, -24
 2600              		.cfi_offset 5, -20
 2601              		.cfi_offset 6, -16
 2602              		.cfi_offset 7, -12
 2603              		.cfi_offset 8, -8
 2604              		.cfi_offset 14, -4
 2605 0004 8046     		mov	r8, r0
 397:main.c        **** 	
 2606              		.loc 2 397 0
 2607 0006 184B     		ldr	r3, .L206
ARM GAS  C:\Users\FRANKL~1\AppData\Local\Temp\ccnobXgu.s 			page 68


 2608 0008 1B78     		ldrb	r3, [r3]	@ zero_extendqisi2
 2609 000a C31A     		subs	r3, r0, r3
 2610 000c 174A     		ldr	r2, .L206+4
 2611 000e 1380     		strh	r3, [r2]	@ movhi
 399:main.c        **** 	int8 increment = 1;
 2612              		.loc 2 399 0
 2613 0010 174B     		ldr	r3, .L206+8
 2614 0012 1D78     		ldrb	r5, [r3]	@ zero_extendqisi2
 2615 0014 EDB2     		uxtb	r5, r5
 2616              	.LVL348:
 401:main.c        **** 	
 2617              		.loc 2 401 0
 2618 0016 A842     		cmp	r0, r5
 2619 0018 01D3     		bcc	.L203
 400:main.c        **** 	if (istart > value) increment = -1;
 2620              		.loc 2 400 0
 2621 001a 0126     		movs	r6, #1
 2622 001c 01E0     		b	.L196
 2623              	.L203:
 401:main.c        **** 	
 2624              		.loc 2 401 0
 2625 001e 4FF0FF36 		mov	r6, #-1
 2626              	.L196:
 2627              	.LVL349:
 2628              	.LBB34:
 403:main.c        **** 		if (At_Compliance()) {
 2629              		.loc 2 403 0
 2630 0022 0027     		movs	r7, #0
 2631 0024 1BE0     		b	.L197
 2632              	.LVL350:
 2633              	.L202:
 404:main.c        **** 			for (uint8 j = i; j != istart; j -= increment) {
 2634              		.loc 2 404 0
 2635 0026 FFF7FEFF 		bl	At_Compliance
 2636              	.LVL351:
 2637 002a 48B9     		cbnz	r0, .L204
 2638 002c 12E0     		b	.L199
 2639              	.LVL352:
 2640              	.L201:
 2641              	.LBB35:
 406:main.c        **** 				
 2642              		.loc 2 406 0
 2643 002e 2046     		mov	r0, r4
 2644 0030 FFF7FEFF 		bl	VDAC_Vds_SetValue
 2645              	.LVL353:
 408:main.c        **** 			}
 2646              		.loc 2 408 0
 2647 0034 FFF7FEFF 		bl	At_Compliance
 2648              	.LVL354:
 2649 0038 98B1     		cbz	r0, .L195
 405:main.c        **** 				VDAC_Vds_SetValue(j);
 2650              		.loc 2 405 0 discriminator 2
 2651 003a A41B     		subs	r4, r4, r6
 2652              	.LVL355:
 2653 003c E4B2     		uxtb	r4, r4
 2654              	.LVL356:
 2655 003e 00E0     		b	.L198
ARM GAS  C:\Users\FRANKL~1\AppData\Local\Temp\ccnobXgu.s 			page 69


 2656              	.LVL357:
 2657              	.L204:
 2658              	.LBE35:
 2659 0040 3C46     		mov	r4, r7
 2660              	.L198:
 2661              	.LVL358:
 2662              	.LBB36:
 405:main.c        **** 				VDAC_Vds_SetValue(j);
 2663              		.loc 2 405 0 is_stmt 0 discriminator 1
 2664 0042 AC42     		cmp	r4, r5
 2665 0044 F3D1     		bne	.L201
 2666              	.LBE36:
 410:main.c        **** 				Handle_Compliance_Breach();
 2667              		.loc 2 410 0 is_stmt 1
 2668 0046 FFF7FEFF 		bl	At_Compliance
 2669              	.LVL359:
 2670 004a 18B1     		cbz	r0, .L199
 411:main.c        **** 				return;
 2671              		.loc 2 411 0
 2672 004c FFF7FEFF 		bl	Handle_Compliance_Breach
 2673              	.LVL360:
 412:main.c        **** 			}
 2674              		.loc 2 412 0
 2675 0050 BDE8F081 		pop	{r4, r5, r6, r7, r8, pc}
 2676              	.LVL361:
 2677              	.L199:
 416:main.c        **** 	}
 2678              		.loc 2 416 0 discriminator 2
 2679 0054 3846     		mov	r0, r7
 2680 0056 FFF7FEFF 		bl	VDAC_Vds_SetValue
 2681              	.LVL362:
 403:main.c        **** 		if (At_Compliance()) {
 2682              		.loc 2 403 0 discriminator 2
 2683 005a 3744     		add	r7, r7, r6
 2684              	.LVL363:
 2685 005c FFB2     		uxtb	r7, r7
 2686              	.LVL364:
 2687              	.L197:
 403:main.c        **** 		if (At_Compliance()) {
 2688              		.loc 2 403 0 is_stmt 0 discriminator 1
 2689 005e 4745     		cmp	r7, r8
 2690 0060 E1D1     		bne	.L202
 2691              	.L195:
 2692 0062 BDE8F081 		pop	{r4, r5, r6, r7, r8, pc}
 2693              	.LVL365:
 2694              	.L207:
 2695 0066 00BF     		.align	2
 2696              	.L206:
 2697 0068 825B0040 		.word	1073765250
 2698 006c 00000000 		.word	Vds_Index_Goal_Relative
 2699 0070 805B0040 		.word	1073765248
 2700              	.LBE34:
 2701              		.cfi_endproc
 2702              	.LFE90:
 2703              		.size	Set_Vds_Raw, .-Set_Vds_Raw
 2704              		.section	.text.Set_Vgs_Raw,"ax",%progbits
 2705              		.align	2
ARM GAS  C:\Users\FRANKL~1\AppData\Local\Temp\ccnobXgu.s 			page 70


 2706              		.global	Set_Vgs_Raw
 2707              		.thumb
 2708              		.thumb_func
 2709              		.type	Set_Vgs_Raw, %function
 2710              	Set_Vgs_Raw:
 2711              	.LFB91:
 421:main.c        **** 	Vgs_Index_Goal_Relative = (int16)value - (int16)VDAC_Ref_Data;
 2712              		.loc 2 421 0 is_stmt 1
 2713              		.cfi_startproc
 2714              		@ args = 0, pretend = 0, frame = 0
 2715              		@ frame_needed = 0, uses_anonymous_args = 0
 2716              	.LVL366:
 2717 0000 2DE9F041 		push	{r4, r5, r6, r7, r8, lr}
 2718              		.cfi_def_cfa_offset 24
 2719              		.cfi_offset 4, -24
 2720              		.cfi_offset 5, -20
 2721              		.cfi_offset 6, -16
 2722              		.cfi_offset 7, -12
 2723              		.cfi_offset 8, -8
 2724              		.cfi_offset 14, -4
 2725 0004 8046     		mov	r8, r0
 422:main.c        **** 	
 2726              		.loc 2 422 0
 2727 0006 184B     		ldr	r3, .L219
 2728 0008 1B78     		ldrb	r3, [r3]	@ zero_extendqisi2
 2729 000a C31A     		subs	r3, r0, r3
 2730 000c 174A     		ldr	r2, .L219+4
 2731 000e 1380     		strh	r3, [r2]	@ movhi
 2732              	.LVL367:
 425:main.c        **** 	if (value < istart) increment = -1;
 2733              		.loc 2 425 0
 2734 0010 174B     		ldr	r3, .L219+8
 2735 0012 1D78     		ldrb	r5, [r3]	@ zero_extendqisi2
 2736 0014 EDB2     		uxtb	r5, r5
 2737              	.LVL368:
 426:main.c        **** 	
 2738              		.loc 2 426 0
 2739 0016 A842     		cmp	r0, r5
 2740 0018 01D3     		bcc	.L216
 424:main.c        **** 	uint8 istart = VDAC_Vgs_Data;
 2741              		.loc 2 424 0
 2742 001a 0126     		movs	r6, #1
 2743 001c 01E0     		b	.L209
 2744              	.L216:
 426:main.c        **** 	
 2745              		.loc 2 426 0
 2746 001e 4FF0FF36 		mov	r6, #-1
 2747              	.L209:
 2748              	.LVL369:
 2749              	.LBB37:
 428:main.c        **** 		if (At_Compliance()) {
 2750              		.loc 2 428 0
 2751 0022 2F46     		mov	r7, r5
 2752 0024 1BE0     		b	.L210
 2753              	.LVL370:
 2754              	.L215:
 429:main.c        **** 			for (uint8 j = i; j != istart; j -= increment) {
ARM GAS  C:\Users\FRANKL~1\AppData\Local\Temp\ccnobXgu.s 			page 71


 2755              		.loc 2 429 0
 2756 0026 FFF7FEFF 		bl	At_Compliance
 2757              	.LVL371:
 2758 002a 48B9     		cbnz	r0, .L217
 2759 002c 12E0     		b	.L212
 2760              	.LVL372:
 2761              	.L214:
 2762              	.LBB38:
 431:main.c        **** 				
 2763              		.loc 2 431 0
 2764 002e 2046     		mov	r0, r4
 2765 0030 FFF7FEFF 		bl	VDAC_Vgs_SetValue
 2766              	.LVL373:
 433:main.c        **** 			}
 2767              		.loc 2 433 0
 2768 0034 FFF7FEFF 		bl	At_Compliance
 2769              	.LVL374:
 2770 0038 98B1     		cbz	r0, .L208
 430:main.c        **** 				VDAC_Vgs_SetValue(j);
 2771              		.loc 2 430 0 discriminator 2
 2772 003a A41B     		subs	r4, r4, r6
 2773              	.LVL375:
 2774 003c E4B2     		uxtb	r4, r4
 2775              	.LVL376:
 2776 003e 00E0     		b	.L211
 2777              	.LVL377:
 2778              	.L217:
 2779              	.LBE38:
 2780 0040 3C46     		mov	r4, r7
 2781              	.L211:
 2782              	.LVL378:
 2783              	.LBB39:
 430:main.c        **** 				VDAC_Vgs_SetValue(j);
 2784              		.loc 2 430 0 is_stmt 0 discriminator 1
 2785 0042 AC42     		cmp	r4, r5
 2786 0044 F3D1     		bne	.L214
 2787              	.LBE39:
 435:main.c        **** 				Handle_Compliance_Breach();
 2788              		.loc 2 435 0 is_stmt 1
 2789 0046 FFF7FEFF 		bl	At_Compliance
 2790              	.LVL379:
 2791 004a 18B1     		cbz	r0, .L212
 436:main.c        **** 				return;
 2792              		.loc 2 436 0
 2793 004c FFF7FEFF 		bl	Handle_Compliance_Breach
 2794              	.LVL380:
 437:main.c        **** 			}
 2795              		.loc 2 437 0
 2796 0050 BDE8F081 		pop	{r4, r5, r6, r7, r8, pc}
 2797              	.LVL381:
 2798              	.L212:
 441:main.c        **** 	}
 2799              		.loc 2 441 0 discriminator 2
 2800 0054 3846     		mov	r0, r7
 2801 0056 FFF7FEFF 		bl	VDAC_Vgs_SetValue
 2802              	.LVL382:
 428:main.c        **** 		if (At_Compliance()) {
ARM GAS  C:\Users\FRANKL~1\AppData\Local\Temp\ccnobXgu.s 			page 72


 2803              		.loc 2 428 0 discriminator 2
 2804 005a 3744     		add	r7, r7, r6
 2805              	.LVL383:
 2806 005c FFB2     		uxtb	r7, r7
 2807              	.LVL384:
 2808              	.L210:
 428:main.c        **** 		if (At_Compliance()) {
 2809              		.loc 2 428 0 is_stmt 0 discriminator 1
 2810 005e 4745     		cmp	r7, r8
 2811 0060 E1D1     		bne	.L215
 2812              	.L208:
 2813 0062 BDE8F081 		pop	{r4, r5, r6, r7, r8, pc}
 2814              	.LVL385:
 2815              	.L220:
 2816 0066 00BF     		.align	2
 2817              	.L219:
 2818 0068 825B0040 		.word	1073765250
 2819 006c 00000000 		.word	Vgs_Index_Goal_Relative
 2820 0070 835B0040 		.word	1073765251
 2821              	.LBE37:
 2822              		.cfi_endproc
 2823              	.LFE91:
 2824              		.size	Set_Vgs_Raw, .-Set_Vgs_Raw
 2825              		.section	.text.Set_Ref_Raw,"ax",%progbits
 2826              		.align	2
 2827              		.global	Set_Ref_Raw
 2828              		.thumb
 2829              		.thumb_func
 2830              		.type	Set_Ref_Raw, %function
 2831              	Set_Ref_Raw:
 2832              	.LFB92:
 446:main.c        **** 	if (value < 6) value = 6;
 2833              		.loc 2 446 0 is_stmt 1
 2834              		.cfi_startproc
 2835              		@ args = 0, pretend = 0, frame = 0
 2836              		@ frame_needed = 0, uses_anonymous_args = 0
 2837              	.LVL386:
 2838 0000 2DE9F041 		push	{r4, r5, r6, r7, r8, lr}
 2839              		.cfi_def_cfa_offset 24
 2840              		.cfi_offset 4, -24
 2841              		.cfi_offset 5, -20
 2842              		.cfi_offset 6, -16
 2843              		.cfi_offset 7, -12
 2844              		.cfi_offset 8, -8
 2845              		.cfi_offset 14, -4
 2846 0004 0746     		mov	r7, r0
 447:main.c        **** 	
 2847              		.loc 2 447 0
 2848 0006 0528     		cmp	r0, #5
 2849 0008 00D8     		bhi	.L222
 2850 000a 0627     		movs	r7, #6
 2851              	.L222:
 2852              	.LVL387:
 450:main.c        **** 	
 2853              		.loc 2 450 0
 2854 000c 1A4B     		ldr	r3, .L238
 2855 000e 1B78     		ldrb	r3, [r3]	@ zero_extendqisi2
ARM GAS  C:\Users\FRANKL~1\AppData\Local\Temp\ccnobXgu.s 			page 73


 2856 0010 DBB2     		uxtb	r3, r3
 2857 0012 9F42     		cmp	r7, r3
 2858 0014 02D3     		bcc	.L232
 449:main.c        **** 	if (value < VDAC_Ref_Data) increment = -1;
 2859              		.loc 2 449 0
 2860 0016 4FF00108 		mov	r8, #1
 2861 001a 01E0     		b	.L223
 2862              	.L232:
 450:main.c        **** 	
 2863              		.loc 2 450 0
 2864 001c 4FF0FF38 		mov	r8, #-1
 2865              	.L223:
 2866              	.LVL388:
 2867              	.LBB40:
 452:main.c        **** 		
 2868              		.loc 2 452 0
 2869 0020 154B     		ldr	r3, .L238
 2870 0022 1E78     		ldrb	r6, [r3]	@ zero_extendqisi2
 2871 0024 F6B2     		uxtb	r6, r6
 2872              	.LVL389:
 2873 0026 22E0     		b	.L224
 2874              	.L230:
 2875              	.LBB41:
 454:main.c        **** 		
 2876              		.loc 2 454 0
 2877 0028 FFF7FEFF 		bl	At_Compliance
 2878              	.LVL390:
 2879 002c 08BB     		cbnz	r0, .L221
 456:main.c        **** 		int16 new_Vds = (int16)i + Vds_Index_Goal_Relative;
 2880              		.loc 2 456 0
 2881 002e B4B2     		uxth	r4, r6
 2882 0030 124B     		ldr	r3, .L238+4
 2883 0032 1D88     		ldrh	r5, [r3]
 2884 0034 2544     		add	r5, r5, r4
 2885 0036 2DB2     		sxth	r5, r5
 2886              	.LVL391:
 457:main.c        **** 		
 2887              		.loc 2 457 0
 2888 0038 114B     		ldr	r3, .L238+8
 2889 003a 1B88     		ldrh	r3, [r3]
 2890 003c 1C44     		add	r4, r4, r3
 2891 003e 24B2     		sxth	r4, r4
 2892              	.LVL392:
 459:main.c        **** 		if (new_Vds > 255) new_Vds = 255;
 2893              		.loc 2 459 0
 2894 0040 FF2D     		cmp	r5, #255
 2895 0042 00DD     		ble	.L226
 2896 0044 FF25     		movs	r5, #255
 2897              	.LVL393:
 2898              	.L226:
 460:main.c        **** 		
 2899              		.loc 2 460 0
 2900 0046 FF2C     		cmp	r4, #255
 2901 0048 00DD     		ble	.L227
 2902 004a FF24     		movs	r4, #255
 2903              	.LVL394:
 2904              	.L227:
ARM GAS  C:\Users\FRANKL~1\AppData\Local\Temp\ccnobXgu.s 			page 74


 462:main.c        **** 		if (new_Vds < 0) new_Vds = 0;
 2905              		.loc 2 462 0
 2906 004c 002D     		cmp	r5, #0
 2907 004e 00DA     		bge	.L228
 2908 0050 0025     		movs	r5, #0
 2909              	.LVL395:
 2910              	.L228:
 463:main.c        **** 		
 2911              		.loc 2 463 0
 2912 0052 002C     		cmp	r4, #0
 2913 0054 00DA     		bge	.L229
 2914 0056 0024     		movs	r4, #0
 2915              	.LVL396:
 2916              	.L229:
 465:main.c        **** 		VDAC_Vgs_SetValue(new_Vgs);
 2917              		.loc 2 465 0 discriminator 2
 2918 0058 3046     		mov	r0, r6
 2919 005a FFF7FEFF 		bl	VDAC_Ref_SetValue
 2920              	.LVL397:
 466:main.c        **** 		VDAC_Vds_SetValue(new_Vds);
 2921              		.loc 2 466 0 discriminator 2
 2922 005e E8B2     		uxtb	r0, r5
 2923 0060 FFF7FEFF 		bl	VDAC_Vgs_SetValue
 2924              	.LVL398:
 467:main.c        **** 	}
 2925              		.loc 2 467 0 discriminator 2
 2926 0064 E0B2     		uxtb	r0, r4
 2927 0066 FFF7FEFF 		bl	VDAC_Vds_SetValue
 2928              	.LVL399:
 2929              	.LBE41:
 452:main.c        **** 		
 2930              		.loc 2 452 0 discriminator 2
 2931 006a 4644     		add	r6, r6, r8
 2932              	.LVL400:
 2933 006c F6B2     		uxtb	r6, r6
 2934              	.LVL401:
 2935              	.L224:
 452:main.c        **** 		
 2936              		.loc 2 452 0 is_stmt 0 discriminator 1
 2937 006e B742     		cmp	r7, r6
 2938 0070 DAD1     		bne	.L230
 2939              	.L221:
 2940 0072 BDE8F081 		pop	{r4, r5, r6, r7, r8, pc}
 2941              	.LVL402:
 2942              	.L239:
 2943 0076 00BF     		.align	2
 2944              	.L238:
 2945 0078 825B0040 		.word	1073765250
 2946 007c 00000000 		.word	Vgs_Index_Goal_Relative
 2947 0080 00000000 		.word	Vds_Index_Goal_Relative
 2948              	.LBE40:
 2949              		.cfi_endproc
 2950              	.LFE92:
 2951              		.size	Set_Ref_Raw, .-Set_Ref_Raw
 2952              		.section	.text.Set_Vds_Rel,"ax",%progbits
 2953              		.align	2
 2954              		.global	Set_Vds_Rel
ARM GAS  C:\Users\FRANKL~1\AppData\Local\Temp\ccnobXgu.s 			page 75


 2955              		.thumb
 2956              		.thumb_func
 2957              		.type	Set_Vds_Rel, %function
 2958              	Set_Vds_Rel:
 2959              	.LFB93:
 473:main.c        **** 	if (value > 255) value = 255;
 2960              		.loc 2 473 0 is_stmt 1
 2961              		.cfi_startproc
 2962              		@ args = 0, pretend = 0, frame = 0
 2963              		@ frame_needed = 0, uses_anonymous_args = 0
 2964              	.LVL403:
 2965 0000 70B5     		push	{r4, r5, r6, lr}
 2966              		.cfi_def_cfa_offset 16
 2967              		.cfi_offset 4, -16
 2968              		.cfi_offset 5, -12
 2969              		.cfi_offset 6, -8
 2970              		.cfi_offset 14, -4
 2971 0002 0446     		mov	r4, r0
 474:main.c        **** 	if (value < -255) value = -255;
 2972              		.loc 2 474 0
 2973 0004 FF28     		cmp	r0, #255
 2974 0006 00DD     		ble	.L241
 2975 0008 FF24     		movs	r4, #255
 2976              	.L241:
 2977              	.LVL404:
 475:main.c        **** 	
 2978              		.loc 2 475 0
 2979 000a 14F1FF0F 		cmn	r4, #255
 2980 000e 01DA     		bge	.L242
 2981 0010 6FF0FE04 		mvn	r4, #254
 2982              	.LVL405:
 2983              	.L242:
 477:main.c        **** 	
 2984              		.loc 2 477 0
 2985 0014 294B     		ldr	r3, .L261
 2986 0016 1878     		ldrb	r0, [r3]	@ zero_extendqisi2
 2987 0018 A5B2     		uxth	r5, r4
 2988 001a 2844     		add	r0, r0, r5
 2989 001c 80B2     		uxth	r0, r0
 2990 001e 03B2     		sxth	r3, r0
 2991              	.LVL406:
 479:main.c        **** 		Set_Ref_Raw(VDAC_Ref_Data - (absolute - 255));
 2992              		.loc 2 479 0
 2993 0020 FF2B     		cmp	r3, #255
 2994 0022 0ADD     		ble	.L243
 480:main.c        **** 		Set_Vds_Raw(255);
 2995              		.loc 2 480 0
 2996 0024 254B     		ldr	r3, .L261
 2997              	.LVL407:
 2998 0026 1B78     		ldrb	r3, [r3]	@ zero_extendqisi2
 2999 0028 181A     		subs	r0, r3, r0
 3000              	.LVL408:
 3001 002a 0138     		subs	r0, r0, #1
 3002 002c C0B2     		uxtb	r0, r0
 3003 002e FFF7FEFF 		bl	Set_Ref_Raw
 3004              	.LVL409:
 481:main.c        **** 	} else if (absolute < 0) {
ARM GAS  C:\Users\FRANKL~1\AppData\Local\Temp\ccnobXgu.s 			page 76


 3005              		.loc 2 481 0
 3006 0032 FF20     		movs	r0, #255
 3007 0034 FFF7FEFF 		bl	Set_Vds_Raw
 3008              	.LVL410:
 3009 0038 0EE0     		b	.L244
 3010              	.LVL411:
 3011              	.L243:
 482:main.c        **** 		Set_Ref_Raw(VDAC_Ref_Data - absolute);
 3012              		.loc 2 482 0
 3013 003a 002B     		cmp	r3, #0
 3014 003c 09DA     		bge	.L245
 483:main.c        **** 		Set_Vds_Raw(0);
 3015              		.loc 2 483 0
 3016 003e 1F4B     		ldr	r3, .L261
 3017              	.LVL412:
 3018 0040 1B78     		ldrb	r3, [r3]	@ zero_extendqisi2
 3019 0042 181A     		subs	r0, r3, r0
 3020              	.LVL413:
 3021 0044 C0B2     		uxtb	r0, r0
 3022 0046 FFF7FEFF 		bl	Set_Ref_Raw
 3023              	.LVL414:
 484:main.c        **** 	} else {
 3024              		.loc 2 484 0
 3025 004a 0020     		movs	r0, #0
 3026 004c FFF7FEFF 		bl	Set_Vds_Raw
 3027              	.LVL415:
 3028 0050 02E0     		b	.L244
 3029              	.LVL416:
 3030              	.L245:
 486:main.c        **** 	}
 3031              		.loc 2 486 0
 3032 0052 C0B2     		uxtb	r0, r0
 3033 0054 FFF7FEFF 		bl	Set_Vds_Raw
 3034              	.LVL417:
 3035              	.L244:
 489:main.c        **** 	
 3036              		.loc 2 489 0
 3037 0058 194B     		ldr	r3, .L261+4
 3038 005a 1C80     		strh	r4, [r3]	@ movhi
 491:main.c        **** 	uint16 Vds_maxRefRaw = Vds_Index_Goal_Relative > 0? 255 - Vds_Index_Goal_Relative: 255;
 3039              		.loc 2 491 0
 3040 005c 002C     		cmp	r4, #0
 3041 005e 02DC     		bgt	.L256
 491:main.c        **** 	uint16 Vds_maxRefRaw = Vds_Index_Goal_Relative > 0? 255 - Vds_Index_Goal_Relative: 255;
 3042              		.loc 2 491 0 is_stmt 0 discriminator 1
 3043 0060 6E42     		negs	r6, r5
 3044 0062 B6B2     		uxth	r6, r6
 3045 0064 00E0     		b	.L246
 3046              	.L256:
 491:main.c        **** 	uint16 Vds_maxRefRaw = Vds_Index_Goal_Relative > 0? 255 - Vds_Index_Goal_Relative: 255;
 3047              		.loc 2 491 0
 3048 0066 0026     		movs	r6, #0
 3049              	.L246:
 3050              	.LVL418:
 492:main.c        **** 	uint16 Vgs_minRefRaw = Vgs_Index_Goal_Relative > 0? 0: -Vgs_Index_Goal_Relative;
 3051              		.loc 2 492 0 is_stmt 1 discriminator 4
 3052 0068 002C     		cmp	r4, #0
ARM GAS  C:\Users\FRANKL~1\AppData\Local\Temp\ccnobXgu.s 			page 77


 3053 006a 03DD     		ble	.L257
 492:main.c        **** 	uint16 Vgs_minRefRaw = Vgs_Index_Goal_Relative > 0? 0: -Vgs_Index_Goal_Relative;
 3054              		.loc 2 492 0 is_stmt 0 discriminator 1
 3055 006c C5F1FF00 		rsb	r0, r5, #255
 3056 0070 80B2     		uxth	r0, r0
 3057 0072 00E0     		b	.L247
 3058              	.L257:
 492:main.c        **** 	uint16 Vgs_minRefRaw = Vgs_Index_Goal_Relative > 0? 0: -Vgs_Index_Goal_Relative;
 3059              		.loc 2 492 0
 3060 0074 FF20     		movs	r0, #255
 3061              	.L247:
 3062              	.LVL419:
 493:main.c        **** 	uint16 Vgs_maxRefRaw = Vgs_Index_Goal_Relative > 0? 255 - Vgs_Index_Goal_Relative: 255;
 3063              		.loc 2 493 0 is_stmt 1 discriminator 4
 3064 0076 134B     		ldr	r3, .L261+8
 3065 0078 B3F90030 		ldrsh	r3, [r3]
 3066 007c 002B     		cmp	r3, #0
 3067 007e 02DC     		bgt	.L258
 493:main.c        **** 	uint16 Vgs_maxRefRaw = Vgs_Index_Goal_Relative > 0? 255 - Vgs_Index_Goal_Relative: 255;
 3068              		.loc 2 493 0 is_stmt 0 discriminator 1
 3069 0080 5A42     		negs	r2, r3
 3070 0082 92B2     		uxth	r2, r2
 3071 0084 00E0     		b	.L248
 3072              	.L258:
 493:main.c        **** 	uint16 Vgs_maxRefRaw = Vgs_Index_Goal_Relative > 0? 255 - Vgs_Index_Goal_Relative: 255;
 3073              		.loc 2 493 0
 3074 0086 0022     		movs	r2, #0
 3075              	.L248:
 3076              	.LVL420:
 494:main.c        **** 	
 3077              		.loc 2 494 0 is_stmt 1 discriminator 4
 3078 0088 002B     		cmp	r3, #0
 3079 008a 03DD     		ble	.L259
 494:main.c        **** 	
 3080              		.loc 2 494 0 is_stmt 0 discriminator 1
 3081 008c C3F1FF03 		rsb	r3, r3, #255
 3082 0090 9BB2     		uxth	r3, r3
 3083 0092 00E0     		b	.L249
 3084              	.L259:
 494:main.c        **** 	
 3085              		.loc 2 494 0
 3086 0094 FF23     		movs	r3, #255
 3087              	.L249:
 3088              	.LVL421:
 496:main.c        **** 	
 3089              		.loc 2 496 0 is_stmt 1 discriminator 4
 3090 0096 0949     		ldr	r1, .L261
 3091 0098 0978     		ldrb	r1, [r1]	@ zero_extendqisi2
 3092              	.LVL422:
 498:main.c        **** 	if (newRefRaw > Vgs_maxRefRaw) newRefRaw = Vgs_maxRefRaw;
 3093              		.loc 2 498 0 discriminator 4
 3094 009a 8A42     		cmp	r2, r1
 3095 009c 00D8     		bhi	.L250
 496:main.c        **** 	
 3096              		.loc 2 496 0
 3097 009e 0A46     		mov	r2, r1
 3098              	.LVL423:
ARM GAS  C:\Users\FRANKL~1\AppData\Local\Temp\ccnobXgu.s 			page 78


 3099              	.L250:
 499:main.c        **** 	if (newRefRaw < Vds_minRefRaw) newRefRaw = Vds_minRefRaw;
 3100              		.loc 2 499 0
 3101 00a0 9A42     		cmp	r2, r3
 3102 00a2 00D8     		bhi	.L251
 3103 00a4 1346     		mov	r3, r2
 3104              	.LVL424:
 3105              	.L251:
 500:main.c        **** 	if (newRefRaw > Vds_maxRefRaw) newRefRaw = Vds_maxRefRaw;
 3106              		.loc 2 500 0
 3107 00a6 B342     		cmp	r3, r6
 3108 00a8 00D3     		bcc	.L252
 3109 00aa 1E46     		mov	r6, r3
 3110              	.LVL425:
 3111              	.L252:
 501:main.c        **** 	
 3112              		.loc 2 501 0
 3113 00ac 8642     		cmp	r6, r0
 3114 00ae 00D8     		bhi	.L253
 3115 00b0 3046     		mov	r0, r6
 3116              	.LVL426:
 3117              	.L253:
 503:main.c        **** }
 3118              		.loc 2 503 0
 3119 00b2 C0B2     		uxtb	r0, r0
 3120              	.LVL427:
 3121 00b4 FFF7FEFF 		bl	Set_Ref_Raw
 3122              	.LVL428:
 3123 00b8 70BD     		pop	{r4, r5, r6, pc}
 3124              	.LVL429:
 3125              	.L262:
 3126 00ba 00BF     		.align	2
 3127              	.L261:
 3128 00bc 825B0040 		.word	1073765250
 3129 00c0 00000000 		.word	Vds_Index_Goal_Relative
 3130 00c4 00000000 		.word	Vgs_Index_Goal_Relative
 3131              		.cfi_endproc
 3132              	.LFE93:
 3133              		.size	Set_Vds_Rel, .-Set_Vds_Rel
 3134              		.section	.text.Set_Vgs_Rel,"ax",%progbits
 3135              		.align	2
 3136              		.global	Set_Vgs_Rel
 3137              		.thumb
 3138              		.thumb_func
 3139              		.type	Set_Vgs_Rel, %function
 3140              	Set_Vgs_Rel:
 3141              	.LFB94:
 507:main.c        **** 	if (value > 255) value = 255;
 3142              		.loc 2 507 0
 3143              		.cfi_startproc
 3144              		@ args = 0, pretend = 0, frame = 0
 3145              		@ frame_needed = 0, uses_anonymous_args = 0
 3146              	.LVL430:
 3147 0000 70B5     		push	{r4, r5, r6, lr}
 3148              		.cfi_def_cfa_offset 16
 3149              		.cfi_offset 4, -16
 3150              		.cfi_offset 5, -12
ARM GAS  C:\Users\FRANKL~1\AppData\Local\Temp\ccnobXgu.s 			page 79


 3151              		.cfi_offset 6, -8
 3152              		.cfi_offset 14, -4
 3153 0002 0446     		mov	r4, r0
 508:main.c        **** 	if (value < -255) value = -255;
 3154              		.loc 2 508 0
 3155 0004 FF28     		cmp	r0, #255
 3156 0006 00DD     		ble	.L264
 3157 0008 FF24     		movs	r4, #255
 3158              	.L264:
 3159              	.LVL431:
 509:main.c        **** 	
 3160              		.loc 2 509 0
 3161 000a 14F1FF0F 		cmn	r4, #255
 3162 000e 01DA     		bge	.L265
 3163 0010 6FF0FE04 		mvn	r4, #254
 3164              	.LVL432:
 3165              	.L265:
 511:main.c        **** 	
 3166              		.loc 2 511 0
 3167 0014 294B     		ldr	r3, .L284
 3168 0016 1878     		ldrb	r0, [r3]	@ zero_extendqisi2
 3169 0018 A5B2     		uxth	r5, r4
 3170 001a 2844     		add	r0, r0, r5
 3171 001c 80B2     		uxth	r0, r0
 3172 001e 03B2     		sxth	r3, r0
 3173              	.LVL433:
 513:main.c        **** 		Set_Ref_Raw(VDAC_Ref_Data - (absolute - 255));
 3174              		.loc 2 513 0
 3175 0020 FF2B     		cmp	r3, #255
 3176 0022 0ADD     		ble	.L266
 514:main.c        **** 		Set_Vgs_Raw(255);
 3177              		.loc 2 514 0
 3178 0024 254B     		ldr	r3, .L284
 3179              	.LVL434:
 3180 0026 1B78     		ldrb	r3, [r3]	@ zero_extendqisi2
 3181 0028 181A     		subs	r0, r3, r0
 3182              	.LVL435:
 3183 002a 0138     		subs	r0, r0, #1
 3184 002c C0B2     		uxtb	r0, r0
 3185 002e FFF7FEFF 		bl	Set_Ref_Raw
 3186              	.LVL436:
 515:main.c        **** 	} else if (absolute < 0) {
 3187              		.loc 2 515 0
 3188 0032 FF20     		movs	r0, #255
 3189 0034 FFF7FEFF 		bl	Set_Vgs_Raw
 3190              	.LVL437:
 3191 0038 0EE0     		b	.L267
 3192              	.LVL438:
 3193              	.L266:
 516:main.c        **** 		Set_Ref_Raw(VDAC_Ref_Data - absolute);
 3194              		.loc 2 516 0
 3195 003a 002B     		cmp	r3, #0
 3196 003c 09DA     		bge	.L268
 517:main.c        **** 		Set_Vgs_Raw(0);
 3197              		.loc 2 517 0
 3198 003e 1F4B     		ldr	r3, .L284
 3199              	.LVL439:
ARM GAS  C:\Users\FRANKL~1\AppData\Local\Temp\ccnobXgu.s 			page 80


 3200 0040 1B78     		ldrb	r3, [r3]	@ zero_extendqisi2
 3201 0042 181A     		subs	r0, r3, r0
 3202              	.LVL440:
 3203 0044 C0B2     		uxtb	r0, r0
 3204 0046 FFF7FEFF 		bl	Set_Ref_Raw
 3205              	.LVL441:
 518:main.c        **** 	} else {
 3206              		.loc 2 518 0
 3207 004a 0020     		movs	r0, #0
 3208 004c FFF7FEFF 		bl	Set_Vgs_Raw
 3209              	.LVL442:
 3210 0050 02E0     		b	.L267
 3211              	.LVL443:
 3212              	.L268:
 520:main.c        **** 	}
 3213              		.loc 2 520 0
 3214 0052 C0B2     		uxtb	r0, r0
 3215 0054 FFF7FEFF 		bl	Set_Vgs_Raw
 3216              	.LVL444:
 3217              	.L267:
 523:main.c        **** 	
 3218              		.loc 2 523 0
 3219 0058 194B     		ldr	r3, .L284+4
 3220 005a 1C80     		strh	r4, [r3]	@ movhi
 525:main.c        **** 	uint16 Vds_maxRefRaw = Vds_Index_Goal_Relative > 0? 255 - Vds_Index_Goal_Relative: 255;
 3221              		.loc 2 525 0
 3222 005c 194B     		ldr	r3, .L284+8
 3223 005e B3F90030 		ldrsh	r3, [r3]
 3224 0062 002B     		cmp	r3, #0
 3225 0064 02DC     		bgt	.L279
 525:main.c        **** 	uint16 Vds_maxRefRaw = Vds_Index_Goal_Relative > 0? 255 - Vds_Index_Goal_Relative: 255;
 3226              		.loc 2 525 0 is_stmt 0 discriminator 1
 3227 0066 5A42     		negs	r2, r3
 3228 0068 92B2     		uxth	r2, r2
 3229 006a 00E0     		b	.L269
 3230              	.L279:
 525:main.c        **** 	uint16 Vds_maxRefRaw = Vds_Index_Goal_Relative > 0? 255 - Vds_Index_Goal_Relative: 255;
 3231              		.loc 2 525 0
 3232 006c 0022     		movs	r2, #0
 3233              	.L269:
 3234              	.LVL445:
 526:main.c        **** 	uint16 Vgs_minRefRaw = Vgs_Index_Goal_Relative > 0? 0: -Vgs_Index_Goal_Relative;
 3235              		.loc 2 526 0 is_stmt 1 discriminator 4
 3236 006e 002B     		cmp	r3, #0
 3237 0070 03DD     		ble	.L280
 526:main.c        **** 	uint16 Vgs_minRefRaw = Vgs_Index_Goal_Relative > 0? 0: -Vgs_Index_Goal_Relative;
 3238              		.loc 2 526 0 is_stmt 0 discriminator 1
 3239 0072 C3F1FF03 		rsb	r3, r3, #255
 3240 0076 9BB2     		uxth	r3, r3
 3241 0078 00E0     		b	.L270
 3242              	.L280:
 526:main.c        **** 	uint16 Vgs_minRefRaw = Vgs_Index_Goal_Relative > 0? 0: -Vgs_Index_Goal_Relative;
 3243              		.loc 2 526 0
 3244 007a FF23     		movs	r3, #255
 3245              	.L270:
 3246              	.LVL446:
 527:main.c        **** 	uint16 Vgs_maxRefRaw = Vgs_Index_Goal_Relative > 0? 255 - Vgs_Index_Goal_Relative: 255;
ARM GAS  C:\Users\FRANKL~1\AppData\Local\Temp\ccnobXgu.s 			page 81


 3247              		.loc 2 527 0 is_stmt 1 discriminator 4
 3248 007c 002C     		cmp	r4, #0
 3249 007e 02DC     		bgt	.L281
 527:main.c        **** 	uint16 Vgs_maxRefRaw = Vgs_Index_Goal_Relative > 0? 255 - Vgs_Index_Goal_Relative: 255;
 3250              		.loc 2 527 0 is_stmt 0 discriminator 1
 3251 0080 6E42     		negs	r6, r5
 3252 0082 B6B2     		uxth	r6, r6
 3253 0084 00E0     		b	.L271
 3254              	.L281:
 527:main.c        **** 	uint16 Vgs_maxRefRaw = Vgs_Index_Goal_Relative > 0? 255 - Vgs_Index_Goal_Relative: 255;
 3255              		.loc 2 527 0
 3256 0086 0026     		movs	r6, #0
 3257              	.L271:
 3258              	.LVL447:
 528:main.c        **** 	
 3259              		.loc 2 528 0 is_stmt 1 discriminator 4
 3260 0088 002C     		cmp	r4, #0
 3261 008a 03DD     		ble	.L282
 528:main.c        **** 	
 3262              		.loc 2 528 0 is_stmt 0 discriminator 1
 3263 008c C5F1FF00 		rsb	r0, r5, #255
 3264 0090 80B2     		uxth	r0, r0
 3265 0092 00E0     		b	.L272
 3266              	.L282:
 528:main.c        **** 	
 3267              		.loc 2 528 0
 3268 0094 FF20     		movs	r0, #255
 3269              	.L272:
 3270              	.LVL448:
 530:main.c        **** 	
 3271              		.loc 2 530 0 is_stmt 1 discriminator 4
 3272 0096 0949     		ldr	r1, .L284
 3273 0098 0978     		ldrb	r1, [r1]	@ zero_extendqisi2
 3274              	.LVL449:
 532:main.c        **** 	if (newRefRaw > Vds_maxRefRaw) newRefRaw = Vds_maxRefRaw;
 3275              		.loc 2 532 0 discriminator 4
 3276 009a 8A42     		cmp	r2, r1
 3277 009c 00D8     		bhi	.L273
 530:main.c        **** 	
 3278              		.loc 2 530 0
 3279 009e 0A46     		mov	r2, r1
 3280              	.LVL450:
 3281              	.L273:
 533:main.c        **** 	if (newRefRaw < Vgs_minRefRaw) newRefRaw = Vgs_minRefRaw;
 3282              		.loc 2 533 0
 3283 00a0 9A42     		cmp	r2, r3
 3284 00a2 00D8     		bhi	.L274
 3285 00a4 1346     		mov	r3, r2
 3286              	.LVL451:
 3287              	.L274:
 534:main.c        **** 	if (newRefRaw > Vgs_maxRefRaw) newRefRaw = Vgs_maxRefRaw;
 3288              		.loc 2 534 0
 3289 00a6 B342     		cmp	r3, r6
 3290 00a8 00D3     		bcc	.L275
 3291 00aa 1E46     		mov	r6, r3
 3292              	.LVL452:
 3293              	.L275:
ARM GAS  C:\Users\FRANKL~1\AppData\Local\Temp\ccnobXgu.s 			page 82


 535:main.c        **** 	
 3294              		.loc 2 535 0
 3295 00ac 8642     		cmp	r6, r0
 3296 00ae 00D8     		bhi	.L276
 3297 00b0 3046     		mov	r0, r6
 3298              	.LVL453:
 3299              	.L276:
 537:main.c        **** }
 3300              		.loc 2 537 0
 3301 00b2 C0B2     		uxtb	r0, r0
 3302              	.LVL454:
 3303 00b4 FFF7FEFF 		bl	Set_Ref_Raw
 3304              	.LVL455:
 3305 00b8 70BD     		pop	{r4, r5, r6, pc}
 3306              	.LVL456:
 3307              	.L285:
 3308 00ba 00BF     		.align	2
 3309              	.L284:
 3310 00bc 825B0040 		.word	1073765250
 3311 00c0 00000000 		.word	Vgs_Index_Goal_Relative
 3312 00c4 00000000 		.word	Vds_Index_Goal_Relative
 3313              		.cfi_endproc
 3314              	.LFE94:
 3315              		.size	Set_Vgs_Rel, .-Set_Vgs_Rel
 3316              		.global	__aeabi_d2iz
 3317              		.section	.text.Set_Vgs,"ax",%progbits
 3318              		.align	2
 3319              		.global	Set_Vgs
 3320              		.thumb
 3321              		.thumb_func
 3322              		.type	Set_Vgs, %function
 3323              	Set_Vgs:
 3324              	.LFB95:
 542:main.c        **** 	Set_Vgs_Rel((voltage/4.080)*255.0);
 3325              		.loc 2 542 0
 3326              		.cfi_startproc
 3327              		@ args = 0, pretend = 0, frame = 0
 3328              		@ frame_needed = 0, uses_anonymous_args = 0
 3329              	.LVL457:
 3330 0000 08B5     		push	{r3, lr}
 3331              		.cfi_def_cfa_offset 8
 3332              		.cfi_offset 3, -8
 3333              		.cfi_offset 14, -4
 543:main.c        **** }
 3334              		.loc 2 543 0
 3335 0002 FFF7FEFF 		bl	__aeabi_f2d
 3336              	.LVL458:
 3337 0006 08A3     		adr	r3, .L288
 3338 0008 D3E90023 		ldrd	r2, [r3]
 3339 000c FFF7FEFF 		bl	__aeabi_ddiv
 3340              	.LVL459:
 3341 0010 07A3     		adr	r3, .L288+8
 3342 0012 D3E90023 		ldrd	r2, [r3]
 3343 0016 FFF7FEFF 		bl	__aeabi_dmul
 3344              	.LVL460:
 3345 001a FFF7FEFF 		bl	__aeabi_d2iz
 3346              	.LVL461:
ARM GAS  C:\Users\FRANKL~1\AppData\Local\Temp\ccnobXgu.s 			page 83


 3347 001e 00B2     		sxth	r0, r0
 3348 0020 FFF7FEFF 		bl	Set_Vgs_Rel
 3349              	.LVL462:
 3350 0024 08BD     		pop	{r3, pc}
 3351              	.L289:
 3352 0026 00BF     		.align	3
 3353              	.L288:
 3354 0028 52B81E85 		.word	-2061584302
 3355 002c EB511040 		.word	1074811371
 3356 0030 00000000 		.word	0
 3357 0034 00E06F40 		.word	1081073664
 3358              		.cfi_endproc
 3359              	.LFE95:
 3360              		.size	Set_Vgs, .-Set_Vgs
 3361              		.section	.text.Set_Vds,"ax",%progbits
 3362              		.align	2
 3363              		.global	Set_Vds
 3364              		.thumb
 3365              		.thumb_func
 3366              		.type	Set_Vds, %function
 3367              	Set_Vds:
 3368              	.LFB96:
 547:main.c        **** 	Set_Vds_Rel((voltage/4.080)*255.0);
 3369              		.loc 2 547 0
 3370              		.cfi_startproc
 3371              		@ args = 0, pretend = 0, frame = 0
 3372              		@ frame_needed = 0, uses_anonymous_args = 0
 3373              	.LVL463:
 3374 0000 08B5     		push	{r3, lr}
 3375              		.cfi_def_cfa_offset 8
 3376              		.cfi_offset 3, -8
 3377              		.cfi_offset 14, -4
 548:main.c        **** }
 3378              		.loc 2 548 0
 3379 0002 FFF7FEFF 		bl	__aeabi_f2d
 3380              	.LVL464:
 3381 0006 08A3     		adr	r3, .L292
 3382 0008 D3E90023 		ldrd	r2, [r3]
 3383 000c FFF7FEFF 		bl	__aeabi_ddiv
 3384              	.LVL465:
 3385 0010 07A3     		adr	r3, .L292+8
 3386 0012 D3E90023 		ldrd	r2, [r3]
 3387 0016 FFF7FEFF 		bl	__aeabi_dmul
 3388              	.LVL466:
 3389 001a FFF7FEFF 		bl	__aeabi_d2iz
 3390              	.LVL467:
 3391 001e 00B2     		sxth	r0, r0
 3392 0020 FFF7FEFF 		bl	Set_Vds_Rel
 3393              	.LVL468:
 3394 0024 08BD     		pop	{r3, pc}
 3395              	.L293:
 3396 0026 00BF     		.align	3
 3397              	.L292:
 3398 0028 52B81E85 		.word	-2061584302
 3399 002c EB511040 		.word	1074811371
 3400 0030 00000000 		.word	0
 3401 0034 00E06F40 		.word	1081073664
ARM GAS  C:\Users\FRANKL~1\AppData\Local\Temp\ccnobXgu.s 			page 84


 3402              		.cfi_endproc
 3403              	.LFE96:
 3404              		.size	Set_Vds, .-Set_Vds
 3405              		.section	.text.Set_Vgs_mV,"ax",%progbits
 3406              		.align	2
 3407              		.global	Set_Vgs_mV
 3408              		.thumb
 3409              		.thumb_func
 3410              		.type	Set_Vgs_mV, %function
 3411              	Set_Vgs_mV:
 3412              	.LFB97:
 553:main.c        **** 	Set_Vgs(mV/1000.0);
 3413              		.loc 2 553 0
 3414              		.cfi_startproc
 3415              		@ args = 0, pretend = 0, frame = 0
 3416              		@ frame_needed = 0, uses_anonymous_args = 0
 3417              	.LVL469:
 3418 0000 08B5     		push	{r3, lr}
 3419              		.cfi_def_cfa_offset 8
 3420              		.cfi_offset 3, -8
 3421              		.cfi_offset 14, -4
 554:main.c        **** }
 3422              		.loc 2 554 0
 3423 0002 0349     		ldr	r1, .L296
 3424 0004 FFF7FEFF 		bl	__aeabi_fdiv
 3425              	.LVL470:
 3426 0008 FFF7FEFF 		bl	Set_Vgs
 3427              	.LVL471:
 3428 000c 08BD     		pop	{r3, pc}
 3429              	.L297:
 3430 000e 00BF     		.align	2
 3431              	.L296:
 3432 0010 00007A44 		.word	1148846080
 3433              		.cfi_endproc
 3434              	.LFE97:
 3435              		.size	Set_Vgs_mV, .-Set_Vgs_mV
 3436              		.section	.text.Set_Vds_mV,"ax",%progbits
 3437              		.align	2
 3438              		.global	Set_Vds_mV
 3439              		.thumb
 3440              		.thumb_func
 3441              		.type	Set_Vds_mV, %function
 3442              	Set_Vds_mV:
 3443              	.LFB98:
 558:main.c        **** 	Set_Vds(mV/1000.0);
 3444              		.loc 2 558 0
 3445              		.cfi_startproc
 3446              		@ args = 0, pretend = 0, frame = 0
 3447              		@ frame_needed = 0, uses_anonymous_args = 0
 3448              	.LVL472:
 3449 0000 08B5     		push	{r3, lr}
 3450              		.cfi_def_cfa_offset 8
 3451              		.cfi_offset 3, -8
 3452              		.cfi_offset 14, -4
 559:main.c        **** }
 3453              		.loc 2 559 0
 3454 0002 0349     		ldr	r1, .L300
ARM GAS  C:\Users\FRANKL~1\AppData\Local\Temp\ccnobXgu.s 			page 85


 3455 0004 FFF7FEFF 		bl	__aeabi_fdiv
 3456              	.LVL473:
 3457 0008 FFF7FEFF 		bl	Set_Vds
 3458              	.LVL474:
 3459 000c 08BD     		pop	{r3, pc}
 3460              	.L301:
 3461 000e 00BF     		.align	2
 3462              	.L300:
 3463 0010 00007A44 		.word	1148846080
 3464              		.cfi_endproc
 3465              	.LFE98:
 3466              		.size	Set_Vds_mV, .-Set_Vds_mV
 3467              		.section	.text.Zero_All_DACs,"ax",%progbits
 3468              		.align	2
 3469              		.global	Zero_All_DACs
 3470              		.thumb
 3471              		.thumb_func
 3472              		.type	Zero_All_DACs, %function
 3473              	Zero_All_DACs:
 3474              	.LFB99:
 564:main.c        **** 	Set_Vds_Raw(0);
 3475              		.loc 2 564 0
 3476              		.cfi_startproc
 3477              		@ args = 0, pretend = 0, frame = 0
 3478              		@ frame_needed = 0, uses_anonymous_args = 0
 3479 0000 08B5     		push	{r3, lr}
 3480              		.cfi_def_cfa_offset 8
 3481              		.cfi_offset 3, -8
 3482              		.cfi_offset 14, -4
 565:main.c        **** 	Set_Vgs_Raw(0);
 3483              		.loc 2 565 0
 3484 0002 0020     		movs	r0, #0
 3485 0004 FFF7FEFF 		bl	Set_Vds_Raw
 3486              	.LVL475:
 566:main.c        **** 	
 3487              		.loc 2 566 0
 3488 0008 0020     		movs	r0, #0
 3489 000a FFF7FEFF 		bl	Set_Vgs_Raw
 3490              	.LVL476:
 568:main.c        **** 	VDAC_Vgs_SetValue(0);
 3491              		.loc 2 568 0
 3492 000e 0020     		movs	r0, #0
 3493 0010 FFF7FEFF 		bl	VDAC_Vds_SetValue
 3494              	.LVL477:
 569:main.c        **** }
 3495              		.loc 2 569 0
 3496 0014 0020     		movs	r0, #0
 3497 0016 FFF7FEFF 		bl	VDAC_Vgs_SetValue
 3498              	.LVL478:
 3499 001a 08BD     		pop	{r3, pc}
 3500              		.cfi_endproc
 3501              	.LFE99:
 3502              		.size	Zero_All_DACs, .-Zero_All_DACs
 3503              		.section	.text.Measure,"ax",%progbits
 3504              		.align	2
 3505              		.global	Measure
 3506              		.thumb
ARM GAS  C:\Users\FRANKL~1\AppData\Local\Temp\ccnobXgu.s 			page 86


 3507              		.thumb_func
 3508              		.type	Measure, %function
 3509              	Measure:
 3510              	.LFB100:
 573:main.c        **** 	int32 IdsAverage = 0;
 3511              		.loc 2 573 0
 3512              		.cfi_startproc
 3513              		@ args = 0, pretend = 0, frame = 24
 3514              		@ frame_needed = 0, uses_anonymous_args = 0
 3515              	.LVL479:
 3516 0000 2DE9F047 		push	{r4, r5, r6, r7, r8, r9, r10, lr}
 3517              		.cfi_def_cfa_offset 32
 3518              		.cfi_offset 4, -32
 3519              		.cfi_offset 5, -28
 3520              		.cfi_offset 6, -24
 3521              		.cfi_offset 7, -20
 3522              		.cfi_offset 8, -16
 3523              		.cfi_offset 9, -12
 3524              		.cfi_offset 10, -8
 3525              		.cfi_offset 14, -4
 3526 0004 8EB0     		sub	sp, sp, #56
 3527              		.cfi_def_cfa_offset 88
 3528 0006 0F46     		mov	r7, r1
 3529 0008 1546     		mov	r5, r2
 574:main.c        **** 	int32 IdsStandardDeviation = 0;
 3530              		.loc 2 574 0
 3531 000a 0024     		movs	r4, #0
 3532 000c 0D94     		str	r4, [sp, #52]
 575:main.c        **** 	
 3533              		.loc 2 575 0
 3534 000e 0EA9     		add	r1, sp, #56
 3535              	.LVL480:
 3536 0010 41F8084D 		str	r4, [r1, #-8]!
 577:main.c        **** 	
 3537              		.loc 2 577 0
 3538 0014 0246     		mov	r2, r0
 3539              	.LVL481:
 3540 0016 0DA8     		add	r0, sp, #52
 3541              	.LVL482:
 3542 0018 FFF7FEFF 		bl	ADC_Measure_uV
 3543              	.LVL483:
 579:main.c        **** 	
 3544              		.loc 2 579 0
 3545 001c 0D98     		ldr	r0, [sp, #52]
 3546 001e FFF7FEFF 		bl	__aeabi_i2d
 3547              	.LVL484:
 3548 0022 29A3     		adr	r3, .L306
 3549 0024 D3E90023 		ldrd	r2, [r3]
 3550 0028 FFF7FEFF 		bl	__aeabi_dmul
 3551              	.LVL485:
 3552 002c FFF7FEFF 		bl	__aeabi_d2f
 3553              	.LVL486:
 3554 0030 0646     		mov	r6, r0
 3555              	.LVL487:
 588:main.c        **** 	int32 SAR1_SD = 0;
 3556              		.loc 2 588 0
 3557 0032 0B94     		str	r4, [sp, #44]
ARM GAS  C:\Users\FRANKL~1\AppData\Local\Temp\ccnobXgu.s 			page 87


 589:main.c        **** 	int32 SAR2_Average = 0;
 3558              		.loc 2 589 0
 3559 0034 0A94     		str	r4, [sp, #40]
 590:main.c        **** 	int32 SAR2_SD = 0;
 3560              		.loc 2 590 0
 3561 0036 0994     		str	r4, [sp, #36]
 591:main.c        **** 
 3562              		.loc 2 591 0
 3563 0038 0894     		str	r4, [sp, #32]
 593:main.c        **** 	SAR2_Measure_V(&SAR2_Average, &SAR2_SD, SAR2_SampleCount);
 3564              		.loc 2 593 0
 3565 003a 3A46     		mov	r2, r7
 3566 003c 0AA9     		add	r1, sp, #40
 3567 003e 0BA8     		add	r0, sp, #44
 3568              	.LVL488:
 3569 0040 FFF7FEFF 		bl	SAR1_Measure_V
 3570              	.LVL489:
 594:main.c        **** 
 3571              		.loc 2 594 0
 3572 0044 2A46     		mov	r2, r5
 3573 0046 08A9     		add	r1, sp, #32
 3574 0048 09A8     		add	r0, sp, #36
 3575 004a FFF7FEFF 		bl	SAR2_Measure_V
 3576              	.LVL490:
 596:main.c        **** 	float SAR2 = 1e-6*SAR2_Average;
 3577              		.loc 2 596 0
 3578 004e 0B98     		ldr	r0, [sp, #44]
 3579 0050 FFF7FEFF 		bl	__aeabi_i2d
 3580              	.LVL491:
 3581 0054 1EA3     		adr	r3, .L306+8
 3582 0056 D3E90023 		ldrd	r2, [r3]
 3583 005a FFF7FEFF 		bl	__aeabi_dmul
 3584              	.LVL492:
 3585 005e FFF7FEFF 		bl	__aeabi_d2f
 3586              	.LVL493:
 3587 0062 8246     		mov	r10, r0
 3588              	.LVL494:
 599:main.c        **** 	USBUARTH_Send(TransmitBuffer, strlen(TransmitBuffer));
 3589              		.loc 2 599 0
 3590 0064 FFF7FEFF 		bl	Get_Vgs
 3591              	.LVL495:
 3592 0068 8046     		mov	r8, r0
 3593 006a FFF7FEFF 		bl	Get_Vds
 3594              	.LVL496:
 3595 006e 8146     		mov	r9, r0
 3596 0070 194B     		ldr	r3, .L306+16
 3597 0072 1D78     		ldrb	r5, [r3]	@ zero_extendqisi2
 3598              	.LVL497:
 3599 0074 EDB2     		uxtb	r5, r5
 3600 0076 3046     		mov	r0, r6
 3601 0078 FFF7FEFF 		bl	__aeabi_f2d
 3602              	.LVL498:
 3603 007c 0646     		mov	r6, r0
 3604              	.LVL499:
 3605 007e 0F46     		mov	r7, r1
 3606              	.LVL500:
 3607 0080 164C     		ldr	r4, .L306+20
ARM GAS  C:\Users\FRANKL~1\AppData\Local\Temp\ccnobXgu.s 			page 88


 3608 0082 0695     		str	r5, [sp, #24]
 3609 0084 5046     		mov	r0, r10
 3610 0086 FFF7FEFF 		bl	__aeabi_f2d
 3611              	.LVL501:
 3612 008a CDE90401 		strd	r0, [sp, #16]
 3613 008e 4846     		mov	r0, r9
 3614 0090 FFF7FEFF 		bl	__aeabi_f2d
 3615              	.LVL502:
 3616 0094 CDE90201 		strd	r0, [sp, #8]
 3617 0098 4046     		mov	r0, r8
 3618 009a FFF7FEFF 		bl	__aeabi_f2d
 3619              	.LVL503:
 3620 009e CDE90001 		strd	r0, [sp]
 3621 00a2 3246     		mov	r2, r6
 3622 00a4 3B46     		mov	r3, r7
 3623 00a6 0E49     		ldr	r1, .L306+24
 3624 00a8 2046     		mov	r0, r4
 3625 00aa FFF7FEFF 		bl	sprintf
 3626              	.LVL504:
 600:main.c        **** 	UART_1_PutString(TransmitBuffer);
 3627              		.loc 2 600 0
 3628 00ae 2046     		mov	r0, r4
 3629 00b0 FFF7FEFF 		bl	strlen
 3630              	.LVL505:
 3631 00b4 81B2     		uxth	r1, r0
 3632 00b6 2046     		mov	r0, r4
 3633 00b8 FFF7FEFF 		bl	USBUARTH_Send
 3634              	.LVL506:
 601:main.c        **** }
 3635              		.loc 2 601 0
 3636 00bc 2046     		mov	r0, r4
 3637 00be FFF7FEFF 		bl	UART_1_PutString
 3638              	.LVL507:
 602:main.c        **** 
 3639              		.loc 2 602 0
 3640 00c2 0EB0     		add	sp, sp, #56
 3641              		.cfi_def_cfa_offset 32
 3642              		@ sp needed
 3643 00c4 BDE8F087 		pop	{r4, r5, r6, r7, r8, r9, r10, pc}
 3644              	.LVL508:
 3645              	.L307:
 3646              		.align	3
 3647              	.L306:
 3648 00c8 BABDD7D9 		.word	-640172614
 3649 00cc DF7CCBBD 		.word	-1110737697
 3650 00d0 8DEDB5A0 		.word	-1598689907
 3651 00d4 F7C6B03E 		.word	1051772663
 3652 00d8 825B0040 		.word	1073765250
 3653 00dc 00000000 		.word	TransmitBuffer
 3654 00e0 A8000000 		.word	.LC11
 3655              		.cfi_endproc
 3656              	.LFE100:
 3657              		.size	Measure, .-Measure
 3658              		.section	.text.Measure_Multiple,"ax",%progbits
 3659              		.align	2
 3660              		.global	Measure_Multiple
 3661              		.thumb
ARM GAS  C:\Users\FRANKL~1\AppData\Local\Temp\ccnobXgu.s 			page 89


 3662              		.thumb_func
 3663              		.type	Measure_Multiple, %function
 3664              	Measure_Multiple:
 3665              	.LFB101:
 605:main.c        **** 	for (uint32 i = 0; i < n; i++) {
 3666              		.loc 2 605 0
 3667              		.cfi_startproc
 3668              		@ args = 0, pretend = 0, frame = 0
 3669              		@ frame_needed = 0, uses_anonymous_args = 0
 3670              	.LVL509:
 3671 0000 38B5     		push	{r3, r4, r5, lr}
 3672              		.cfi_def_cfa_offset 16
 3673              		.cfi_offset 3, -16
 3674              		.cfi_offset 4, -12
 3675              		.cfi_offset 5, -8
 3676              		.cfi_offset 14, -4
 3677 0002 0546     		mov	r5, r0
 3678              	.LVL510:
 3679              	.LBB42:
 606:main.c        **** 		Measure(100, 1, 10);
 3680              		.loc 2 606 0
 3681 0004 0024     		movs	r4, #0
 3682 0006 05E0     		b	.L309
 3683              	.LVL511:
 3684              	.L310:
 607:main.c        **** 	}
 3685              		.loc 2 607 0 discriminator 3
 3686 0008 0A22     		movs	r2, #10
 3687 000a 0121     		movs	r1, #1
 3688 000c 6420     		movs	r0, #100
 3689 000e FFF7FEFF 		bl	Measure
 3690              	.LVL512:
 606:main.c        **** 		Measure(100, 1, 10);
 3691              		.loc 2 606 0 discriminator 3
 3692 0012 0134     		adds	r4, r4, #1
 3693              	.LVL513:
 3694              	.L309:
 606:main.c        **** 		Measure(100, 1, 10);
 3695              		.loc 2 606 0 is_stmt 0 discriminator 1
 3696 0014 AC42     		cmp	r4, r5
 3697 0016 F7D3     		bcc	.L310
 3698              	.LBE42:
 609:main.c        **** 
 3699              		.loc 2 609 0 is_stmt 1
 3700 0018 38BD     		pop	{r3, r4, r5, pc}
 3701              		.cfi_endproc
 3702              	.LFE101:
 3703              		.size	Measure_Multiple, .-Measure_Multiple
 3704 001a 00BF     		.section	.text.Measure_Sweep,"ax",%progbits
 3705              		.align	2
 3706              		.global	Measure_Sweep
 3707              		.thumb
 3708              		.thumb_func
 3709              		.type	Measure_Sweep, %function
 3710              	Measure_Sweep:
 3711              	.LFB102:
 612:main.c        **** 	VDAC_Vds_SetValue(90);
ARM GAS  C:\Users\FRANKL~1\AppData\Local\Temp\ccnobXgu.s 			page 90


 3712              		.loc 2 612 0
 3713              		.cfi_startproc
 3714              		@ args = 0, pretend = 0, frame = 0
 3715              		@ frame_needed = 0, uses_anonymous_args = 0
 3716 0000 10B5     		push	{r4, lr}
 3717              		.cfi_def_cfa_offset 8
 3718              		.cfi_offset 4, -8
 3719              		.cfi_offset 14, -4
 613:main.c        **** 	VDAC_Vgs_SetValue(254);
 3720              		.loc 2 613 0
 3721 0002 5A20     		movs	r0, #90
 3722 0004 FFF7FEFF 		bl	VDAC_Vds_SetValue
 3723              	.LVL514:
 614:main.c        **** 	
 3724              		.loc 2 614 0
 3725 0008 FE20     		movs	r0, #254
 3726 000a FFF7FEFF 		bl	VDAC_Vgs_SetValue
 3727              	.LVL515:
 3728              	.LBB43:
 616:main.c        **** 		VDAC_Vgs_SetValue(Vgsi);
 3729              		.loc 2 616 0
 3730 000e 0024     		movs	r4, #0
 3731 0010 09E0     		b	.L313
 3732              	.LVL516:
 3733              	.L314:
 617:main.c        **** 		Measure(100, 1, 1);
 3734              		.loc 2 617 0 discriminator 3
 3735 0012 E0B2     		uxtb	r0, r4
 3736 0014 FFF7FEFF 		bl	VDAC_Vgs_SetValue
 3737              	.LVL517:
 618:main.c        **** 	}
 3738              		.loc 2 618 0 discriminator 3
 3739 0018 0122     		movs	r2, #1
 3740 001a 1146     		mov	r1, r2
 3741 001c 6420     		movs	r0, #100
 3742 001e FFF7FEFF 		bl	Measure
 3743              	.LVL518:
 616:main.c        **** 		VDAC_Vgs_SetValue(Vgsi);
 3744              		.loc 2 616 0 discriminator 3
 3745 0022 0134     		adds	r4, r4, #1
 3746              	.LVL519:
 3747 0024 A4B2     		uxth	r4, r4
 3748              	.LVL520:
 3749              	.L313:
 616:main.c        **** 		VDAC_Vgs_SetValue(Vgsi);
 3750              		.loc 2 616 0 is_stmt 0 discriminator 1
 3751 0026 FF2C     		cmp	r4, #255
 3752 0028 F3D9     		bls	.L314
 3753              	.LBE43:
 620:main.c        **** 
 3754              		.loc 2 620 0 is_stmt 1
 3755 002a 10BD     		pop	{r4, pc}
 3756              		.cfi_endproc
 3757              	.LFE102:
 3758              		.size	Measure_Sweep, .-Measure_Sweep
 3759              		.section	.text.Measure_Gate_Sweep,"ax",%progbits
 3760              		.align	2
ARM GAS  C:\Users\FRANKL~1\AppData\Local\Temp\ccnobXgu.s 			page 91


 3761              		.global	Measure_Gate_Sweep
 3762              		.thumb
 3763              		.thumb_func
 3764              		.type	Measure_Gate_Sweep, %function
 3765              	Measure_Gate_Sweep:
 3766              	.LFB103:
 622:main.c        **** 	
 3767              		.loc 2 622 0
 3768              		.cfi_startproc
 3769              		@ args = 0, pretend = 0, frame = 0
 3770              		@ frame_needed = 0, uses_anonymous_args = 0
 3771              	.LVL521:
 3772 0000 2DE9F843 		push	{r3, r4, r5, r6, r7, r8, r9, lr}
 3773              		.cfi_def_cfa_offset 32
 3774              		.cfi_offset 3, -32
 3775              		.cfi_offset 4, -28
 3776              		.cfi_offset 5, -24
 3777              		.cfi_offset 6, -20
 3778              		.cfi_offset 7, -16
 3779              		.cfi_offset 8, -12
 3780              		.cfi_offset 9, -8
 3781              		.cfi_offset 14, -4
 3782 0004 8146     		mov	r9, r0
 624:main.c        **** 		Set_Ref_Raw(254 - Vds_Index_Goal_Relative);
 3783              		.loc 2 624 0
 3784 0006 274B     		ldr	r3, .L333
 3785 0008 B3F90030 		ldrsh	r3, [r3]
 3786 000c 002B     		cmp	r3, #0
 3787 000e 07DD     		ble	.L317
 625:main.c        **** 	} else {
 3788              		.loc 2 625 0
 3789 0010 C3F1FE00 		rsb	r0, r3, #254
 3790              	.LVL522:
 3791 0014 C0B2     		uxtb	r0, r0
 3792 0016 FFF7FEFF 		bl	Set_Ref_Raw
 3793              	.LVL523:
 3794              	.L319:
 3795              	.LBB44:
 3796              	.LBB45:
 3797              	.LBB46:
 3798 001a 4FF00008 		mov	r8, #0
 3799 001e 3DE0     		b	.L318
 3800              	.LVL524:
 3801              	.L317:
 3802              	.LBE46:
 3803              	.LBE45:
 3804              	.LBE44:
 627:main.c        **** 	}
 3805              		.loc 2 627 0
 3806 0020 FE20     		movs	r0, #254
 3807              	.LVL525:
 3808 0022 FFF7FEFF 		bl	Set_Ref_Raw
 3809              	.LVL526:
 3810 0026 F8E7     		b	.L319
 3811              	.LVL527:
 3812              	.L328:
 3813              	.LBB51:
ARM GAS  C:\Users\FRANKL~1\AppData\Local\Temp\ccnobXgu.s 			page 92


 3814              	.LBB50:
 635:main.c        **** 			istart = -Vds_Index_Goal_Relative;
 3815              		.loc 2 635 0
 3816 0028 1E4B     		ldr	r3, .L333
 3817 002a B3F90030 		ldrsh	r3, [r3]
 3818 002e 002B     		cmp	r3, #0
 3819 0030 02DA     		bge	.L329
 636:main.c        **** 		}
 3820              		.loc 2 636 0
 3821 0032 5B42     		negs	r3, r3
 3822 0034 DDB2     		uxtb	r5, r3
 3823              	.LVL528:
 3824 0036 00E0     		b	.L320
 3825              	.LVL529:
 3826              	.L329:
 634:main.c        **** 		if (Vds_Index_Goal_Relative < 0) {
 3827              		.loc 2 634 0
 3828 0038 0025     		movs	r5, #0
 3829              	.LVL530:
 3830              	.L320:
 641:main.c        **** 			direction = -1*speed;
 3831              		.loc 2 641 0
 3832 003a 18F0010F 		tst	r8, #1
 3833 003e 02D1     		bne	.L330
 639:main.c        **** 		
 3834              		.loc 2 639 0
 3835 0040 F026     		movs	r6, #240
 633:main.c        **** 		uint8 istart = 0;
 3836              		.loc 2 633 0
 3837 0042 1027     		movs	r7, #16
 3838 0044 24E0     		b	.L322
 3839              	.L330:
 644:main.c        **** 		}
 3840              		.loc 2 644 0
 3841 0046 0026     		movs	r6, #0
 643:main.c        **** 			istop = 0;
 3842              		.loc 2 643 0
 3843 0048 F025     		movs	r5, #240
 3844              	.LVL531:
 642:main.c        **** 			istart = 256-speed;
 3845              		.loc 2 642 0
 3846 004a 6FF00F07 		mvn	r7, #15
 3847              	.LVL532:
 3848              	.LBB49:
 647:main.c        **** 			for (uint8 j = 0; j <= 1; j++) {
 3849              		.loc 2 647 0
 3850 004e 1FE0     		b	.L322
 3851              	.LVL533:
 3852              	.L326:
 3853              	.LBB47:
 649:main.c        **** 				Set_Vgs_Raw(i);
 3854              		.loc 2 649 0
 3855 0050 012C     		cmp	r4, #1
 3856 0052 03D1     		bne	.L323
 649:main.c        **** 				Set_Vgs_Raw(i);
 3857              		.loc 2 649 0 is_stmt 0 discriminator 1
 3858 0054 E843     		mvns	r0, r5
ARM GAS  C:\Users\FRANKL~1\AppData\Local\Temp\ccnobXgu.s 			page 93


 3859 0056 C0B2     		uxtb	r0, r0
 3860 0058 FFF7FEFF 		bl	Set_Ref_Raw
 3861              	.LVL534:
 3862              	.L323:
 650:main.c        **** 				
 3863              		.loc 2 650 0 is_stmt 1
 3864 005c 2846     		mov	r0, r5
 3865 005e FFF7FEFF 		bl	Set_Vgs_Raw
 3866              	.LVL535:
 652:main.c        **** 				
 3867              		.loc 2 652 0
 3868 0062 0122     		movs	r2, #1
 3869 0064 1146     		mov	r1, r2
 3870 0066 2120     		movs	r0, #33
 3871 0068 FFF7FEFF 		bl	Measure
 3872              	.LVL536:
 654:main.c        **** 				while (G_Pause);
 3873              		.loc 2 654 0
 3874 006c 0E4B     		ldr	r3, .L333+4
 3875 006e 5B78     		ldrb	r3, [r3, #1]	@ zero_extendqisi2
 3876 0070 13F0FF0F 		tst	r3, #255
 3877 0074 0AD1     		bne	.L324
 3878              	.L325:
 655:main.c        **** 			}
 3879              		.loc 2 655 0 discriminator 1
 3880 0076 0C4B     		ldr	r3, .L333+4
 3881 0078 DB78     		ldrb	r3, [r3, #3]	@ zero_extendqisi2
 3882 007a 13F0FF0F 		tst	r3, #255
 3883 007e FAD1     		bne	.L325
 648:main.c        **** 				if (j == 1) Set_Ref_Raw(254 - i + 1);
 3884              		.loc 2 648 0 discriminator 2
 3885 0080 0134     		adds	r4, r4, #1
 3886              	.LVL537:
 3887 0082 E4B2     		uxtb	r4, r4
 3888              	.LVL538:
 3889 0084 00E0     		b	.L327
 3890              	.LVL539:
 3891              	.L331:
 3892              	.LBE47:
 3893 0086 0024     		movs	r4, #0
 3894              	.L327:
 3895              	.LVL540:
 3896              	.LBB48:
 648:main.c        **** 				if (j == 1) Set_Ref_Raw(254 - i + 1);
 3897              		.loc 2 648 0 is_stmt 0 discriminator 1
 3898 0088 012C     		cmp	r4, #1
 3899 008a E1D9     		bls	.L326
 3900              	.L324:
 3901              	.LBE48:
 647:main.c        **** 			for (uint8 j = 0; j <= 1; j++) {
 3902              		.loc 2 647 0 is_stmt 1 discriminator 2
 3903 008c 3D44     		add	r5, r5, r7
 3904              	.LVL541:
 3905 008e EDB2     		uxtb	r5, r5
 3906              	.LVL542:
 3907              	.L322:
 647:main.c        **** 			for (uint8 j = 0; j <= 1; j++) {
ARM GAS  C:\Users\FRANKL~1\AppData\Local\Temp\ccnobXgu.s 			page 94


 3908              		.loc 2 647 0 is_stmt 0 discriminator 1
 3909 0090 AE42     		cmp	r6, r5
 3910 0092 F8D1     		bne	.L331
 3911              	.LBE49:
 3912              	.LBE50:
 632:main.c        **** 		int8 direction = 1*speed;
 3913              		.loc 2 632 0 is_stmt 1 discriminator 2
 3914 0094 08F10108 		add	r8, r8, #1
 3915              	.LVL543:
 3916 0098 5FFA88F8 		uxtb	r8, r8
 3917              	.LVL544:
 3918              	.L318:
 632:main.c        **** 		int8 direction = 1*speed;
 3919              		.loc 2 632 0 is_stmt 0 discriminator 1
 3920 009c C845     		cmp	r8, r9
 3921 009e C3D9     		bls	.L328
 3922              	.LBE51:
 659:main.c        **** 
 3923              		.loc 2 659 0 is_stmt 1
 3924 00a0 BDE8F883 		pop	{r3, r4, r5, r6, r7, r8, r9, pc}
 3925              	.LVL545:
 3926              	.L334:
 3927              		.align	2
 3928              	.L333:
 3929 00a4 00000000 		.word	Vds_Index_Goal_Relative
 3930 00a8 00000000 		.word	.LANCHOR0
 3931              		.cfi_endproc
 3932              	.LFE103:
 3933              		.size	Measure_Gate_Sweep, .-Measure_Gate_Sweep
 3934              		.section	.text.Measure_Wide_Gate_Sweep,"ax",%progbits
 3935              		.align	2
 3936              		.global	Measure_Wide_Gate_Sweep
 3937              		.thumb
 3938              		.thumb_func
 3939              		.type	Measure_Wide_Gate_Sweep, %function
 3940              	Measure_Wide_Gate_Sweep:
 3941              	.LFB104:
 661:main.c        **** 	Set_Ref_Raw(254);
 3942              		.loc 2 661 0
 3943              		.cfi_startproc
 3944              		@ args = 0, pretend = 0, frame = 0
 3945              		@ frame_needed = 0, uses_anonymous_args = 0
 3946              	.LVL546:
 3947 0000 2DE9F843 		push	{r3, r4, r5, r6, r7, r8, r9, lr}
 3948              		.cfi_def_cfa_offset 32
 3949              		.cfi_offset 3, -32
 3950              		.cfi_offset 4, -28
 3951              		.cfi_offset 5, -24
 3952              		.cfi_offset 6, -20
 3953              		.cfi_offset 7, -16
 3954              		.cfi_offset 8, -12
 3955              		.cfi_offset 9, -8
 3956              		.cfi_offset 14, -4
 3957 0004 8146     		mov	r9, r0
 662:main.c        **** 	
 3958              		.loc 2 662 0
 3959 0006 FE20     		movs	r0, #254
ARM GAS  C:\Users\FRANKL~1\AppData\Local\Temp\ccnobXgu.s 			page 95


 3960              	.LVL547:
 3961 0008 FFF7FEFF 		bl	Set_Ref_Raw
 3962              	.LVL548:
 3963              	.LBB52:
 666:main.c        **** 		int8 direction = 1*speed;
 3964              		.loc 2 666 0
 3965 000c 4FF00008 		mov	r8, #0
 3966 0010 31E0     		b	.L336
 3967              	.LVL549:
 3968              	.L344:
 3969              	.LBB53:
 671:main.c        **** 			direction = -1*speed;
 3970              		.loc 2 671 0
 3971 0012 18F0010F 		tst	r8, #1
 3972 0016 03D1     		bne	.L345
 669:main.c        **** 		
 3973              		.loc 2 669 0
 3974 0018 F026     		movs	r6, #240
 668:main.c        **** 		uint8 istop = 256-speed;
 3975              		.loc 2 668 0
 3976 001a 0025     		movs	r5, #0
 667:main.c        **** 		uint8 istart = 0;
 3977              		.loc 2 667 0
 3978 001c 1027     		movs	r7, #16
 3979 001e 24E0     		b	.L338
 3980              	.L345:
 674:main.c        **** 		}
 3981              		.loc 2 674 0
 3982 0020 0026     		movs	r6, #0
 673:main.c        **** 			istop = 0;
 3983              		.loc 2 673 0
 3984 0022 F025     		movs	r5, #240
 672:main.c        **** 			istart = 256-speed;
 3985              		.loc 2 672 0
 3986 0024 6FF00F07 		mvn	r7, #15
 3987              	.LVL550:
 3988              	.LBB54:
 677:main.c        **** 			for (uint8 j = 0; j <= 1; j++) {
 3989              		.loc 2 677 0
 3990 0028 1FE0     		b	.L338
 3991              	.LVL551:
 3992              	.L342:
 3993              	.LBB55:
 680:main.c        **** 				Set_Vgs_Raw(i);
 3994              		.loc 2 680 0
 3995 002a 012C     		cmp	r4, #1
 3996 002c 03D1     		bne	.L339
 680:main.c        **** 				Set_Vgs_Raw(i);
 3997              		.loc 2 680 0 is_stmt 0 discriminator 1
 3998 002e E843     		mvns	r0, r5
 3999 0030 C0B2     		uxtb	r0, r0
 4000 0032 FFF7FEFF 		bl	Set_Ref_Raw
 4001              	.LVL552:
 4002              	.L339:
 681:main.c        **** 				
 4003              		.loc 2 681 0 is_stmt 1
 4004 0036 2846     		mov	r0, r5
ARM GAS  C:\Users\FRANKL~1\AppData\Local\Temp\ccnobXgu.s 			page 96


 4005 0038 FFF7FEFF 		bl	Set_Vgs_Raw
 4006              	.LVL553:
 683:main.c        **** 				
 4007              		.loc 2 683 0
 4008 003c 0122     		movs	r2, #1
 4009 003e 1146     		mov	r1, r2
 4010 0040 2120     		movs	r0, #33
 4011 0042 FFF7FEFF 		bl	Measure
 4012              	.LVL554:
 685:main.c        **** 				while (G_Pause);
 4013              		.loc 2 685 0
 4014 0046 0E4B     		ldr	r3, .L348
 4015 0048 5B78     		ldrb	r3, [r3, #1]	@ zero_extendqisi2
 4016 004a 13F0FF0F 		tst	r3, #255
 4017 004e 0AD1     		bne	.L340
 4018              	.L341:
 686:main.c        **** 			}
 4019              		.loc 2 686 0 discriminator 1
 4020 0050 0B4B     		ldr	r3, .L348
 4021 0052 DB78     		ldrb	r3, [r3, #3]	@ zero_extendqisi2
 4022 0054 13F0FF0F 		tst	r3, #255
 4023 0058 FAD1     		bne	.L341
 678:main.c        **** 				
 4024              		.loc 2 678 0 discriminator 2
 4025 005a 0134     		adds	r4, r4, #1
 4026              	.LVL555:
 4027 005c E4B2     		uxtb	r4, r4
 4028              	.LVL556:
 4029 005e 00E0     		b	.L343
 4030              	.LVL557:
 4031              	.L346:
 4032              	.LBE55:
 4033 0060 0024     		movs	r4, #0
 4034              	.L343:
 4035              	.LVL558:
 4036              	.LBB56:
 678:main.c        **** 				
 4037              		.loc 2 678 0 is_stmt 0 discriminator 1
 4038 0062 012C     		cmp	r4, #1
 4039 0064 E1D9     		bls	.L342
 4040              	.L340:
 4041              	.LBE56:
 677:main.c        **** 			for (uint8 j = 0; j <= 1; j++) {
 4042              		.loc 2 677 0 is_stmt 1 discriminator 2
 4043 0066 3D44     		add	r5, r5, r7
 4044              	.LVL559:
 4045 0068 EDB2     		uxtb	r5, r5
 4046              	.LVL560:
 4047              	.L338:
 677:main.c        **** 			for (uint8 j = 0; j <= 1; j++) {
 4048              		.loc 2 677 0 is_stmt 0 discriminator 1
 4049 006a AE42     		cmp	r6, r5
 4050 006c F8D1     		bne	.L346
 4051              	.LBE54:
 4052              	.LBE53:
 666:main.c        **** 		int8 direction = 1*speed;
 4053              		.loc 2 666 0 is_stmt 1 discriminator 2
ARM GAS  C:\Users\FRANKL~1\AppData\Local\Temp\ccnobXgu.s 			page 97


 4054 006e 08F10108 		add	r8, r8, #1
 4055              	.LVL561:
 4056 0072 5FFA88F8 		uxtb	r8, r8
 4057              	.LVL562:
 4058              	.L336:
 666:main.c        **** 		int8 direction = 1*speed;
 4059              		.loc 2 666 0 is_stmt 0 discriminator 1
 4060 0076 C845     		cmp	r8, r9
 4061 0078 CBD9     		bls	.L344
 4062              	.LBE52:
 690:main.c        **** 
 4063              		.loc 2 690 0 is_stmt 1
 4064 007a BDE8F883 		pop	{r3, r4, r5, r6, r7, r8, r9, pc}
 4065              	.LVL563:
 4066              	.L349:
 4067 007e 00BF     		.align	2
 4068              	.L348:
 4069 0080 00000000 		.word	.LANCHOR0
 4070              		.cfi_endproc
 4071              	.LFE104:
 4072              		.size	Measure_Wide_Gate_Sweep, .-Measure_Wide_Gate_Sweep
 4073              		.section	.text.Measure_Gate_Sweep_New,"ax",%progbits
 4074              		.align	2
 4075              		.global	Measure_Gate_Sweep_New
 4076              		.thumb
 4077              		.thumb_func
 4078              		.type	Measure_Gate_Sweep_New, %function
 4079              	Measure_Gate_Sweep_New:
 4080              	.LFB105:
 692:main.c        **** 	uint8 refTurn = 1;
 4081              		.loc 2 692 0
 4082              		.cfi_startproc
 4083              		@ args = 0, pretend = 0, frame = 0
 4084              		@ frame_needed = 0, uses_anonymous_args = 0
 4085 0000 2DE9F843 		push	{r3, r4, r5, r6, r7, r8, r9, lr}
 4086              		.cfi_def_cfa_offset 32
 4087              		.cfi_offset 3, -32
 4088              		.cfi_offset 4, -28
 4089              		.cfi_offset 5, -24
 4090              		.cfi_offset 6, -20
 4091              		.cfi_offset 7, -16
 4092              		.cfi_offset 8, -12
 4093              		.cfi_offset 9, -8
 4094              		.cfi_offset 14, -4
 4095              	.LVL564:
 704:main.c        **** 	
 4096              		.loc 2 704 0
 4097 0004 0027     		movs	r7, #0
 703:main.c        **** 	uint8 gateArrived = 0;
 4098              		.loc 2 703 0
 4099 0006 3E46     		mov	r6, r7
 698:main.c        **** 	
 4100              		.loc 2 698 0
 4101 0008 B946     		mov	r9, r7
 697:main.c        **** 	uint8 refArrived = 0;
 4102              		.loc 2 697 0
 4103 000a 3D46     		mov	r5, r7
ARM GAS  C:\Users\FRANKL~1\AppData\Local\Temp\ccnobXgu.s 			page 98


 693:main.c        **** 	int8 refIncrement = 1;
 4104              		.loc 2 693 0
 4105 000c 0124     		movs	r4, #1
 707:main.c        **** 		gateArrived = abs(gateIndex-endGateIndex) < abs(gateIncrement);
 4106              		.loc 2 707 0
 4107 000e 39E0     		b	.L351
 4108              	.LVL565:
 4109              	.L359:
 708:main.c        **** 		refArrived = abs(refIndex-endRefIndex) < abs(refIncrement);
 4110              		.loc 2 708 0
 4111 0010 86EAE673 		eor	r3, r6, r6, asr #31
 4112 0014 A3EBE673 		sub	r3, r3, r6, asr #31
 4113 0018 002B     		cmp	r3, #0
 4114 001a CCBF     		ite	gt
 4115 001c 0027     		movgt	r7, #0
 4116              	.LVL566:
 4117 001e 0127     		movle	r7, #1
 4118              	.LVL567:
 709:main.c        **** 		
 4119              		.loc 2 709 0
 4120 0020 85EAE572 		eor	r2, r5, r5, asr #31
 4121 0024 A2EBE572 		sub	r2, r2, r5, asr #31
 4122 0028 002A     		cmp	r2, #0
 4123 002a CCBF     		ite	gt
 4124 002c 4FF00009 		movgt	r9, #0
 4125              	.LVL568:
 4126 0030 4FF00109 		movle	r9, #1
 4127              	.LVL569:
 711:main.c        **** 		
 4128              		.loc 2 711 0
 4129 0034 002C     		cmp	r4, #0
 4130 0036 0CBF     		ite	eq
 4131 0038 4FF00108 		moveq	r8, #1
 4132 003c 4FF00008 		movne	r8, #0
 4133              	.LVL570:
 713:main.c        **** 		if (!refTurn && gateArrived) continue;
 4134              		.loc 2 713 0
 4135 0040 01D1     		bne	.L352
 713:main.c        **** 		if (!refTurn && gateArrived) continue;
 4136              		.loc 2 713 0 is_stmt 0 discriminator 1
 4137 0042 002A     		cmp	r2, #0
 4138 0044 1DDD     		ble	.L353
 4139              	.L352:
 714:main.c        **** 		
 4140              		.loc 2 714 0 is_stmt 1
 4141 0046 0CB1     		cbz	r4, .L354
 714:main.c        **** 		
 4142              		.loc 2 714 0 is_stmt 0 discriminator 1
 4143 0048 002B     		cmp	r3, #0
 4144 004a 1ADD     		ble	.L353
 4145              	.L354:
 716:main.c        **** 		Set_Vgs_Raw(gateIndex);
 4146              		.loc 2 716 0 is_stmt 1
 4147 004c 2846     		mov	r0, r5
 4148 004e FFF7FEFF 		bl	Set_Ref_Raw
 4149              	.LVL571:
 717:main.c        **** 		
ARM GAS  C:\Users\FRANKL~1\AppData\Local\Temp\ccnobXgu.s 			page 99


 4150              		.loc 2 717 0
 4151 0052 3046     		mov	r0, r6
 4152 0054 FFF7FEFF 		bl	Set_Vgs_Raw
 4153              	.LVL572:
 719:main.c        **** 		
 4154              		.loc 2 719 0
 4155 0058 0122     		movs	r2, #1
 4156 005a 1146     		mov	r1, r2
 4157 005c 6420     		movs	r0, #100
 4158 005e FFF7FEFF 		bl	Measure
 4159              	.LVL573:
 721:main.c        **** 			refIndex += refIncrement;
 4160              		.loc 2 721 0
 4161 0062 14B9     		cbnz	r4, .L355
 722:main.c        **** 		} else {
 4162              		.loc 2 722 0
 4163 0064 0135     		adds	r5, r5, #1
 4164              	.LVL574:
 4165 0066 EDB2     		uxtb	r5, r5
 4166              	.LVL575:
 4167 0068 01E0     		b	.L356
 4168              	.L355:
 724:main.c        **** 		}
 4169              		.loc 2 724 0
 4170 006a 0136     		adds	r6, r6, #1
 4171              	.LVL576:
 4172 006c F6B2     		uxtb	r6, r6
 4173              	.LVL577:
 4174              	.L356:
 727:main.c        **** 		while (G_Pause);
 4175              		.loc 2 727 0
 4176 006e 094B     		ldr	r3, .L361
 4177 0070 5B78     		ldrb	r3, [r3, #1]	@ zero_extendqisi2
 4178 0072 13F0FF0F 		tst	r3, #255
 4179 0076 0AD1     		bne	.L350
 4180              	.L358:
 728:main.c        **** 	}
 4181              		.loc 2 728 0 discriminator 1
 4182 0078 064B     		ldr	r3, .L361
 4183 007a DB78     		ldrb	r3, [r3, #3]	@ zero_extendqisi2
 4184 007c 13F0FF0F 		tst	r3, #255
 4185 0080 FAD1     		bne	.L358
 4186              	.L353:
 692:main.c        **** 	uint8 refTurn = 1;
 4187              		.loc 2 692 0
 4188 0082 4446     		mov	r4, r8
 4189              	.LVL578:
 4190              	.L351:
 707:main.c        **** 		gateArrived = abs(gateIndex-endGateIndex) < abs(gateIncrement);
 4191              		.loc 2 707 0
 4192 0084 002F     		cmp	r7, #0
 4193 0086 C3D0     		beq	.L359
 707:main.c        **** 		gateArrived = abs(gateIndex-endGateIndex) < abs(gateIncrement);
 4194              		.loc 2 707 0 is_stmt 0 discriminator 1
 4195 0088 B9F1000F 		cmp	r9, #0
 4196 008c C0D0     		beq	.L359
 4197              	.LVL579:
ARM GAS  C:\Users\FRANKL~1\AppData\Local\Temp\ccnobXgu.s 			page 100


 4198              	.L350:
 4199 008e BDE8F883 		pop	{r3, r4, r5, r6, r7, r8, r9, pc}
 4200              	.LVL580:
 4201              	.L362:
 4202 0092 00BF     		.align	2
 4203              	.L361:
 4204 0094 00000000 		.word	.LANCHOR0
 4205              		.cfi_endproc
 4206              	.LFE105:
 4207              		.size	Measure_Gate_Sweep_New, .-Measure_Gate_Sweep_New
 4208              		.section	.text.Scan,"ax",%progbits
 4209              		.align	2
 4210              		.global	Scan
 4211              		.thumb
 4212              		.thumb_func
 4213              		.type	Scan, %function
 4214              	Scan:
 4215              	.LFB106:
 732:main.c        **** 	for (uint8 device = 1; device <= CONTACT_COUNT/**//2; device++) {
 4216              		.loc 2 732 0 is_stmt 1
 4217              		.cfi_startproc
 4218              		@ args = 0, pretend = 0, frame = 0
 4219              		@ frame_needed = 0, uses_anonymous_args = 0
 4220              	.LVL581:
 4221 0000 2DE9F041 		push	{r4, r5, r6, r7, r8, lr}
 4222              		.cfi_def_cfa_offset 24
 4223              		.cfi_offset 4, -24
 4224              		.cfi_offset 5, -20
 4225              		.cfi_offset 6, -16
 4226              		.cfi_offset 7, -12
 4227              		.cfi_offset 8, -8
 4228              		.cfi_offset 14, -4
 4229 0004 0746     		mov	r7, r0
 4230 0006 8846     		mov	r8, r1
 4231              	.LVL582:
 4232              	.LBB57:
 733:main.c        **** 		uint8 contact1 = device;
 4233              		.loc 2 733 0
 4234 0008 0124     		movs	r4, #1
 4235 000a 37E0     		b	.L364
 4236              	.LVL583:
 4237              	.L369:
 4238              	.LBB58:
 735:main.c        **** 		uint8 intermediate1 = 1;
 4239              		.loc 2 735 0
 4240 000c 661C     		adds	r6, r4, #1
 4241 000e F6B2     		uxtb	r6, r6
 4242              	.LVL584:
 739:main.c        **** 		Zero_All_DACs();
 4243              		.loc 2 739 0
 4244 0010 FFF7FEFF 		bl	Disconnect_All_Contacts_From_All_Intermediates
 4245              	.LVL585:
 740:main.c        **** 		Connect_Intermediates();
 4246              		.loc 2 740 0
 4247 0014 FFF7FEFF 		bl	Zero_All_DACs
 4248              	.LVL586:
 741:main.c        **** 		Connect_Contact_To_Intermediate(contact1, intermediate1);
ARM GAS  C:\Users\FRANKL~1\AppData\Local\Temp\ccnobXgu.s 			page 101


 4249              		.loc 2 741 0
 4250 0018 FFF7FEFF 		bl	Connect_Intermediates
 4251              	.LVL587:
 742:main.c        **** 		Connect_Contact_To_Intermediate(contact2, intermediate2);
 4252              		.loc 2 742 0
 4253 001c 0121     		movs	r1, #1
 4254 001e 2046     		mov	r0, r4
 4255 0020 FFF7FEFF 		bl	Connect_Contact_To_Intermediate
 4256              	.LVL588:
 743:main.c        **** 		
 4257              		.loc 2 743 0
 4258 0024 0221     		movs	r1, #2
 4259 0026 3046     		mov	r0, r6
 4260 0028 FFF7FEFF 		bl	Connect_Contact_To_Intermediate
 4261              	.LVL589:
 745:main.c        **** 		USBUARTH_Send(TransmitBuffer, strlen(TransmitBuffer));
 4262              		.loc 2 745 0
 4263 002c 154D     		ldr	r5, .L371
 4264 002e 2246     		mov	r2, r4
 4265 0030 1549     		ldr	r1, .L371+4
 4266 0032 2846     		mov	r0, r5
 4267 0034 FFF7FEFF 		bl	sprintf
 4268              	.LVL590:
 746:main.c        **** 		UART_1_PutString(TransmitBuffer);
 4269              		.loc 2 746 0
 4270 0038 2846     		mov	r0, r5
 4271 003a FFF7FEFF 		bl	strlen
 4272              	.LVL591:
 4273 003e 81B2     		uxth	r1, r0
 4274 0040 2846     		mov	r0, r5
 4275 0042 FFF7FEFF 		bl	USBUARTH_Send
 4276              	.LVL592:
 747:main.c        **** 		
 4277              		.loc 2 747 0
 4278 0046 2846     		mov	r0, r5
 4279 0048 FFF7FEFF 		bl	UART_1_PutString
 4280              	.LVL593:
 749:main.c        **** 			Measure_Wide_Gate_Sweep(loop);
 4281              		.loc 2 749 0
 4282 004c 1FB1     		cbz	r7, .L365
 750:main.c        **** 		} else {
 4283              		.loc 2 750 0
 4284 004e 4046     		mov	r0, r8
 4285 0050 FFF7FEFF 		bl	Measure_Wide_Gate_Sweep
 4286              	.LVL594:
 4287 0054 02E0     		b	.L366
 4288              	.L365:
 752:main.c        **** 		}
 4289              		.loc 2 752 0
 4290 0056 4046     		mov	r0, r8
 4291 0058 FFF7FEFF 		bl	Measure_Gate_Sweep
 4292              	.LVL595:
 4293              	.L366:
 755:main.c        **** 		while (G_Pause);
 4294              		.loc 2 755 0
 4295 005c 0B4B     		ldr	r3, .L371+8
 4296 005e 9B78     		ldrb	r3, [r3, #2]	@ zero_extendqisi2
ARM GAS  C:\Users\FRANKL~1\AppData\Local\Temp\ccnobXgu.s 			page 102


 4297 0060 13F0FF0F 		tst	r3, #255
 4298 0064 0CD1     		bne	.L363
 755:main.c        **** 		while (G_Pause);
 4299              		.loc 2 755 0 is_stmt 0 discriminator 1
 4300 0066 094B     		ldr	r3, .L371+8
 4301 0068 5B78     		ldrb	r3, [r3, #1]	@ zero_extendqisi2
 4302 006a 13F0FF0F 		tst	r3, #255
 4303 006e 07D1     		bne	.L363
 4304              	.L368:
 756:main.c        **** 	}
 4305              		.loc 2 756 0 is_stmt 1 discriminator 1
 4306 0070 064B     		ldr	r3, .L371+8
 4307 0072 DB78     		ldrb	r3, [r3, #3]	@ zero_extendqisi2
 4308 0074 13F0FF0F 		tst	r3, #255
 4309 0078 FAD1     		bne	.L368
 4310              	.LBE58:
 733:main.c        **** 		uint8 contact1 = device;
 4311              		.loc 2 733 0
 4312 007a 3446     		mov	r4, r6
 4313              	.LVL596:
 4314              	.L364:
 733:main.c        **** 		uint8 contact1 = device;
 4315              		.loc 2 733 0 is_stmt 0 discriminator 1
 4316 007c 202C     		cmp	r4, #32
 4317 007e C5D9     		bls	.L369
 4318              	.L363:
 4319 0080 BDE8F081 		pop	{r4, r5, r6, r7, r8, pc}
 4320              	.LVL597:
 4321              	.L372:
 4322              		.align	2
 4323              	.L371:
 4324 0084 00000000 		.word	TransmitBuffer
 4325 0088 BC000000 		.word	.LC12
 4326 008c 00000000 		.word	.LANCHOR0
 4327              	.LBE57:
 4328              		.cfi_endproc
 4329              	.LFE106:
 4330              		.size	Scan, .-Scan
 4331              		.section	.text.Scan_Range,"ax",%progbits
 4332              		.align	2
 4333              		.global	Scan_Range
 4334              		.thumb
 4335              		.thumb_func
 4336              		.type	Scan_Range, %function
 4337              	Scan_Range:
 4338              	.LFB107:
 760:main.c        **** 	if (startDevice >= CONTACT_COUNT) return;
 4339              		.loc 2 760 0 is_stmt 1
 4340              		.cfi_startproc
 4341              		@ args = 0, pretend = 0, frame = 0
 4342              		@ frame_needed = 0, uses_anonymous_args = 0
 4343              	.LVL598:
 761:main.c        **** 	if (stopDevice >= CONTACT_COUNT) return;
 4344              		.loc 2 761 0
 4345 0000 3F28     		cmp	r0, #63
 4346 0002 47D8     		bhi	.L381
 760:main.c        **** 	if (startDevice >= CONTACT_COUNT) return;
ARM GAS  C:\Users\FRANKL~1\AppData\Local\Temp\ccnobXgu.s 			page 103


 4347              		.loc 2 760 0
 4348 0004 2DE9F843 		push	{r3, r4, r5, r6, r7, r8, r9, lr}
 4349              		.cfi_def_cfa_offset 32
 4350              		.cfi_offset 3, -32
 4351              		.cfi_offset 4, -28
 4352              		.cfi_offset 5, -24
 4353              		.cfi_offset 6, -20
 4354              		.cfi_offset 7, -16
 4355              		.cfi_offset 8, -12
 4356              		.cfi_offset 9, -8
 4357              		.cfi_offset 14, -4
 4358 0008 0446     		mov	r4, r0
 4359 000a 0F46     		mov	r7, r1
 4360 000c 9046     		mov	r8, r2
 4361 000e 9946     		mov	r9, r3
 762:main.c        **** 	
 4362              		.loc 2 762 0
 4363 0010 3F29     		cmp	r1, #63
 4364 0012 3BD9     		bls	.L375
 4365 0014 BDE8F883 		pop	{r3, r4, r5, r6, r7, r8, r9, pc}
 4366              	.LVL599:
 4367              	.L379:
 4368              	.LBB59:
 4369              	.LBB60:
 766:main.c        **** 		uint8 intermediate1 = 1;
 4370              		.loc 2 766 0
 4371 0018 661C     		adds	r6, r4, #1
 4372 001a F6B2     		uxtb	r6, r6
 4373              	.LVL600:
 770:main.c        **** 		Zero_All_DACs();
 4374              		.loc 2 770 0
 4375 001c FFF7FEFF 		bl	Disconnect_All_Contacts_From_All_Intermediates
 4376              	.LVL601:
 771:main.c        **** 		Connect_Intermediates();
 4377              		.loc 2 771 0
 4378 0020 FFF7FEFF 		bl	Zero_All_DACs
 4379              	.LVL602:
 772:main.c        **** 		Connect_Contact_To_Intermediate(contact1, intermediate1);
 4380              		.loc 2 772 0
 4381 0024 FFF7FEFF 		bl	Connect_Intermediates
 4382              	.LVL603:
 773:main.c        **** 		Connect_Contact_To_Intermediate(contact2, intermediate2);
 4383              		.loc 2 773 0
 4384 0028 0121     		movs	r1, #1
 4385 002a 2046     		mov	r0, r4
 4386 002c FFF7FEFF 		bl	Connect_Contact_To_Intermediate
 4387              	.LVL604:
 774:main.c        **** 		
 4388              		.loc 2 774 0
 4389 0030 0221     		movs	r1, #2
 4390 0032 3046     		mov	r0, r6
 4391 0034 FFF7FEFF 		bl	Connect_Contact_To_Intermediate
 4392              	.LVL605:
 776:main.c        **** 		USBUARTH_Send(TransmitBuffer, strlen(TransmitBuffer));
 4393              		.loc 2 776 0
 4394 0038 174D     		ldr	r5, .L382
 4395 003a 2246     		mov	r2, r4
ARM GAS  C:\Users\FRANKL~1\AppData\Local\Temp\ccnobXgu.s 			page 104


 4396 003c 1749     		ldr	r1, .L382+4
 4397 003e 2846     		mov	r0, r5
 4398 0040 FFF7FEFF 		bl	sprintf
 4399              	.LVL606:
 777:main.c        **** 		UART_1_PutString(TransmitBuffer);
 4400              		.loc 2 777 0
 4401 0044 2846     		mov	r0, r5
 4402 0046 FFF7FEFF 		bl	strlen
 4403              	.LVL607:
 4404 004a 81B2     		uxth	r1, r0
 4405 004c 2846     		mov	r0, r5
 4406 004e FFF7FEFF 		bl	USBUARTH_Send
 4407              	.LVL608:
 778:main.c        **** 		
 4408              		.loc 2 778 0
 4409 0052 2846     		mov	r0, r5
 4410 0054 FFF7FEFF 		bl	UART_1_PutString
 4411              	.LVL609:
 780:main.c        **** 			Measure_Wide_Gate_Sweep(loop);
 4412              		.loc 2 780 0
 4413 0058 B8F1000F 		cmp	r8, #0
 4414 005c 03D0     		beq	.L376
 781:main.c        **** 		} else {
 4415              		.loc 2 781 0
 4416 005e 4846     		mov	r0, r9
 4417 0060 FFF7FEFF 		bl	Measure_Wide_Gate_Sweep
 4418              	.LVL610:
 4419 0064 02E0     		b	.L377
 4420              	.L376:
 783:main.c        **** 		}
 4421              		.loc 2 783 0
 4422 0066 4846     		mov	r0, r9
 4423 0068 FFF7FEFF 		bl	Measure_Gate_Sweep
 4424              	.LVL611:
 4425              	.L377:
 786:main.c        **** 		while (G_Pause);
 4426              		.loc 2 786 0
 4427 006c 0C4B     		ldr	r3, .L382+8
 4428 006e 9B78     		ldrb	r3, [r3, #2]	@ zero_extendqisi2
 4429 0070 13F0FF0F 		tst	r3, #255
 4430 0074 0CD1     		bne	.L373
 786:main.c        **** 		while (G_Pause);
 4431              		.loc 2 786 0 is_stmt 0 discriminator 1
 4432 0076 0A4B     		ldr	r3, .L382+8
 4433 0078 5B78     		ldrb	r3, [r3, #1]	@ zero_extendqisi2
 4434 007a 13F0FF0F 		tst	r3, #255
 4435 007e 07D1     		bne	.L373
 4436              	.L378:
 787:main.c        **** 	}
 4437              		.loc 2 787 0 is_stmt 1 discriminator 1
 4438 0080 074B     		ldr	r3, .L382+8
 4439 0082 DB78     		ldrb	r3, [r3, #3]	@ zero_extendqisi2
 4440 0084 13F0FF0F 		tst	r3, #255
 4441 0088 FAD1     		bne	.L378
 4442              	.LBE60:
 764:main.c        **** 		uint8 contact1 = device;
 4443              		.loc 2 764 0
ARM GAS  C:\Users\FRANKL~1\AppData\Local\Temp\ccnobXgu.s 			page 105


 4444 008a 3446     		mov	r4, r6
 4445              	.LVL612:
 4446              	.L375:
 764:main.c        **** 		uint8 contact1 = device;
 4447              		.loc 2 764 0 is_stmt 0 discriminator 1
 4448 008c BC42     		cmp	r4, r7
 4449 008e C3D9     		bls	.L379
 4450              	.L373:
 4451 0090 BDE8F883 		pop	{r3, r4, r5, r6, r7, r8, r9, pc}
 4452              	.LVL613:
 4453              	.L381:
 4454              		.cfi_def_cfa_offset 0
 4455              		.cfi_restore 3
 4456              		.cfi_restore 4
 4457              		.cfi_restore 5
 4458              		.cfi_restore 6
 4459              		.cfi_restore 7
 4460              		.cfi_restore 8
 4461              		.cfi_restore 9
 4462              		.cfi_restore 14
 4463 0094 7047     		bx	lr
 4464              	.L383:
 4465 0096 00BF     		.align	2
 4466              	.L382:
 4467 0098 00000000 		.word	TransmitBuffer
 4468 009c BC000000 		.word	.LC12
 4469 00a0 00000000 		.word	.LANCHOR0
 4470              	.LBE59:
 4471              		.cfi_endproc
 4472              	.LFE107:
 4473              		.size	Scan_Range, .-Scan_Range
 4474              		.section	.text.main,"ax",%progbits
 4475              		.align	2
 4476              		.global	main
 4477              		.thumb
 4478              		.thumb_func
 4479              		.type	main, %function
 4480              	main:
 4481              	.LFB109:
 860:main.c        **** 
 861:main.c        **** int main(void) {
 4482              		.loc 2 861 0 is_stmt 1
 4483              		.cfi_startproc
 4484              		@ args = 0, pretend = 0, frame = 8
 4485              		@ frame_needed = 0, uses_anonymous_args = 0
 4486 0000 F0B5     		push	{r4, r5, r6, r7, lr}
 4487              		.cfi_def_cfa_offset 20
 4488              		.cfi_offset 4, -20
 4489              		.cfi_offset 5, -16
 4490              		.cfi_offset 6, -12
 4491              		.cfi_offset 7, -8
 4492              		.cfi_offset 14, -4
 4493 0002 83B0     		sub	sp, sp, #12
 4494              		.cfi_def_cfa_offset 32
 862:main.c        **** 	CyGlobalIntEnable;
 4495              		.loc 2 862 0
 4496              		.syntax unified
ARM GAS  C:\Users\FRANKL~1\AppData\Local\Temp\ccnobXgu.s 			page 106


 4497              	@ 862 "main.c" 1
 4498 0004 62B6     		CPSIE   i
 4499              	@ 0 "" 2
 863:main.c        **** 	
 864:main.c        **** 	Setup_Selectors();
 4500              		.loc 2 864 0
 4501              		.thumb
 4502              		.syntax unified
 4503 0006 FFF7FEFF 		bl	Setup_Selectors
 4504              	.LVL614:
 865:main.c        **** 	
 866:main.c        **** 	USBUART_Start(0u, USBUART_5V_OPERATION);
 4505              		.loc 2 866 0
 4506 000a 0121     		movs	r1, #1
 4507 000c 0020     		movs	r0, #0
 4508 000e FFF7FEFF 		bl	USBUART_Start
 4509              	.LVL615:
 867:main.c        **** 	UART_1_Start();
 4510              		.loc 2 867 0
 4511 0012 FFF7FEFF 		bl	UART_1_Start
 4512              	.LVL616:
 868:main.c        **** 	VDAC_Vds_Start();
 4513              		.loc 2 868 0
 4514 0016 FFF7FEFF 		bl	VDAC_Vds_Start
 4515              	.LVL617:
 869:main.c        **** 	VDAC_Vgs_Start();
 4516              		.loc 2 869 0
 4517 001a FFF7FEFF 		bl	VDAC_Vgs_Start
 4518              	.LVL618:
 870:main.c        **** 	VDAC_Ref_Start();
 4519              		.loc 2 870 0
 4520 001e FFF7FEFF 		bl	VDAC_Ref_Start
 4521              	.LVL619:
 871:main.c        **** 	ADC_DelSig_1_Start();
 4522              		.loc 2 871 0
 4523 0022 FFF7FEFF 		bl	ADC_DelSig_1_Start
 4524              	.LVL620:
 872:main.c        **** 	TIA_1_Start();
 4525              		.loc 2 872 0
 4526 0026 FFF7FEFF 		bl	TIA_1_Start
 4527              	.LVL621:
 873:main.c        **** 	I2C_1_Start();
 4528              		.loc 2 873 0
 4529 002a FFF7FEFF 		bl	I2C_1_Start
 4530              	.LVL622:
 874:main.c        **** 	ADC_SAR_1_Start();
 4531              		.loc 2 874 0
 4532 002e FFF7FEFF 		bl	ADC_SAR_1_Start
 4533              	.LVL623:
 875:main.c        **** 	ADC_SAR_2_Start();
 4534              		.loc 2 875 0
 4535 0032 FFF7FEFF 		bl	ADC_SAR_2_Start
 4536              	.LVL624:
 876:main.c        **** 	
 877:main.c        **** 	CyDelay(1000);
 4537              		.loc 2 877 0
 4538 0036 4FF47A70 		mov	r0, #1000
ARM GAS  C:\Users\FRANKL~1\AppData\Local\Temp\ccnobXgu.s 			page 107


 4539 003a FFF7FEFF 		bl	CyDelay
 4540              	.LVL625:
 878:main.c        **** 	
 879:main.c        **** 	UART_1_PutString("\r\n# Starting\r\n");
 4541              		.loc 2 879 0
 4542 003e B048     		ldr	r0, .L420
 4543 0040 FFF7FEFF 		bl	UART_1_PutString
 4544              	.LVL626:
 880:main.c        **** 	
 881:main.c        **** 	Connect_Intermediates();
 4545              		.loc 2 881 0
 4546 0044 FFF7FEFF 		bl	Connect_Intermediates
 4547              	.LVL627:
 882:main.c        **** 	
 883:main.c        **** 	newData = 0;
 4548              		.loc 2 883 0
 4549 0048 0023     		movs	r3, #0
 4550 004a AE4A     		ldr	r2, .L420+4
 4551 004c 1370     		strb	r3, [r2]
 884:main.c        **** 	UART_Rx_Position = 0;
 4552              		.loc 2 884 0
 4553 004e AE4A     		ldr	r2, .L420+8
 4554 0050 1370     		strb	r3, [r2]
 885:main.c        **** 	USBUART_Rx_Position = 0;
 4555              		.loc 2 885 0
 4556 0052 AE4A     		ldr	r2, .L420+12
 4557 0054 1370     		strb	r3, [r2]
 886:main.c        **** 	
 887:main.c        **** 	CommunicationTimer_Start();
 4558              		.loc 2 887 0
 4559 0056 FFF7FEFF 		bl	CommunicationTimer_Start
 4560              	.LVL628:
 888:main.c        **** 	CommunicationInterrupt_StartEx(CommunicationHandlerISR);
 4561              		.loc 2 888 0
 4562 005a AD48     		ldr	r0, .L420+16
 4563 005c FFF7FEFF 		bl	CommunicationInterrupt_StartEx
 4564              	.LVL629:
 889:main.c        **** 	
 890:main.c        **** 	Current_Measurement_Sample_Count = 100;
 4565              		.loc 2 890 0
 4566 0060 6422     		movs	r2, #100
 4567 0062 AC4B     		ldr	r3, .L420+20
 4568 0064 1A60     		str	r2, [r3]
 4569              	.L386:
 891:main.c        **** 	
 892:main.c        **** 	while (1) {
 893:main.c        **** 		G_Stop = 0;
 4570              		.loc 2 893 0
 4571 0066 A74B     		ldr	r3, .L420+4
 4572 0068 0022     		movs	r2, #0
 4573 006a 5A70     		strb	r2, [r3, #1]
 894:main.c        **** 		G_Break = 0;
 4574              		.loc 2 894 0
 4575 006c 9A70     		strb	r2, [r3, #2]
 895:main.c        **** 		
 896:main.c        **** 		if (newData) {
 4576              		.loc 2 896 0
ARM GAS  C:\Users\FRANKL~1\AppData\Local\Temp\ccnobXgu.s 			page 108


 4577 006e 1B78     		ldrb	r3, [r3]	@ zero_extendqisi2
 4578 0070 13F0FF0F 		tst	r3, #255
 4579 0074 F7D0     		beq	.L386
 4580              	.LVL630:
 4581              	.LBB61:
 897:main.c        **** 			char* ReceiveBuffer = &USBUART_Receive_Buffer[0];
 898:main.c        **** 			if (newData == 2) ReceiveBuffer = &UART_Receive_Buffer[0];
 4582              		.loc 2 898 0
 4583 0076 A34B     		ldr	r3, .L420+4
 4584 0078 1B78     		ldrb	r3, [r3]	@ zero_extendqisi2
 4585 007a DBB2     		uxtb	r3, r3
 4586 007c 022B     		cmp	r3, #2
 4587 007e 01D0     		beq	.L418
 897:main.c        **** 			char* ReceiveBuffer = &USBUART_Receive_Buffer[0];
 4588              		.loc 2 897 0
 4589 0080 A54C     		ldr	r4, .L420+24
 4590 0082 00E0     		b	.L387
 4591              	.L418:
 4592              		.loc 2 898 0
 4593 0084 A54C     		ldr	r4, .L420+28
 4594              	.L387:
 4595              	.LVL631:
 899:main.c        **** 			
 900:main.c        **** 			newData = 0;
 4596              		.loc 2 900 0
 4597 0086 0022     		movs	r2, #0
 4598 0088 9E4B     		ldr	r3, .L420+4
 4599 008a 1A70     		strb	r2, [r3]
 901:main.c        **** 			
 902:main.c        **** 			if (strstr(ReceiveBuffer, "measure ") == &ReceiveBuffer[0]) {
 4600              		.loc 2 902 0
 4601 008c A449     		ldr	r1, .L420+32
 4602 008e 2046     		mov	r0, r4
 4603 0090 FFF7FEFF 		bl	strstr
 4604              	.LVL632:
 4605 0094 8442     		cmp	r4, r0
 4606 0096 05D1     		bne	.L388
 903:main.c        **** 				Measure(100, 1, 10);
 4607              		.loc 2 903 0
 4608 0098 0A22     		movs	r2, #10
 4609 009a 0121     		movs	r1, #1
 4610 009c 6420     		movs	r0, #100
 4611 009e FFF7FEFF 		bl	Measure
 4612              	.LVL633:
 4613 00a2 E0E7     		b	.L386
 4614              	.L388:
 904:main.c        **** 			} else 
 905:main.c        **** 			if (strstr(ReceiveBuffer, "measure-multiple ") == &ReceiveBuffer[0]) {
 4615              		.loc 2 905 0
 4616 00a4 9F49     		ldr	r1, .L420+36
 4617 00a6 2046     		mov	r0, r4
 4618 00a8 FFF7FEFF 		bl	strstr
 4619              	.LVL634:
 4620 00ac 8442     		cmp	r4, r0
 4621 00ae 0CD1     		bne	.L390
 4622              	.LBB62:
 906:main.c        **** 				char* location = strstr(ReceiveBuffer, " ");
ARM GAS  C:\Users\FRANKL~1\AppData\Local\Temp\ccnobXgu.s 			page 109


 4623              		.loc 2 906 0
 4624 00b0 2021     		movs	r1, #32
 4625 00b2 2046     		mov	r0, r4
 4626 00b4 FFF7FEFF 		bl	strchr
 4627              	.LVL635:
 4628 00b8 02A9     		add	r1, sp, #8
 4629 00ba 41F8040D 		str	r0, [r1, #-4]!
 907:main.c        **** 				uint32 n = strtol(location, &location, 10);
 4630              		.loc 2 907 0
 4631 00be 0A22     		movs	r2, #10
 4632 00c0 FFF7FEFF 		bl	strtol
 4633              	.LVL636:
 908:main.c        **** 				
 909:main.c        **** 				Measure_Multiple(n);
 4634              		.loc 2 909 0
 4635 00c4 FFF7FEFF 		bl	Measure_Multiple
 4636              	.LVL637:
 4637              	.LBE62:
 4638 00c8 CDE7     		b	.L386
 4639              	.L390:
 910:main.c        **** 			} else 
 911:main.c        **** 			if (strstr(ReceiveBuffer, "measure-sweep ") == &ReceiveBuffer[0]) {
 4640              		.loc 2 911 0
 4641 00ca 9749     		ldr	r1, .L420+40
 4642 00cc 2046     		mov	r0, r4
 4643 00ce FFF7FEFF 		bl	strstr
 4644              	.LVL638:
 4645 00d2 8442     		cmp	r4, r0
 4646 00d4 02D1     		bne	.L391
 912:main.c        **** 				Measure_Sweep();
 4647              		.loc 2 912 0
 4648 00d6 FFF7FEFF 		bl	Measure_Sweep
 4649              	.LVL639:
 4650 00da C4E7     		b	.L386
 4651              	.L391:
 913:main.c        **** 			} else 
 914:main.c        **** 			if (strstr(ReceiveBuffer, "measure-gate-sweep ") == &ReceiveBuffer[0]) {
 4652              		.loc 2 914 0
 4653 00dc 9349     		ldr	r1, .L420+44
 4654 00de 2046     		mov	r0, r4
 4655 00e0 FFF7FEFF 		bl	strstr
 4656              	.LVL640:
 4657 00e4 8442     		cmp	r4, r0
 4658 00e6 03D1     		bne	.L392
 915:main.c        **** 				Measure_Gate_Sweep(0);
 4659              		.loc 2 915 0
 4660 00e8 0020     		movs	r0, #0
 4661 00ea FFF7FEFF 		bl	Measure_Gate_Sweep
 4662              	.LVL641:
 4663 00ee BAE7     		b	.L386
 4664              	.L392:
 916:main.c        **** 			} else 
 917:main.c        **** 			if (strstr(ReceiveBuffer, "measure-gate-sweep-loop ") == &ReceiveBuffer[0]) {
 4665              		.loc 2 917 0
 4666 00f0 8F49     		ldr	r1, .L420+48
 4667 00f2 2046     		mov	r0, r4
 4668 00f4 FFF7FEFF 		bl	strstr
ARM GAS  C:\Users\FRANKL~1\AppData\Local\Temp\ccnobXgu.s 			page 110


 4669              	.LVL642:
 4670 00f8 8442     		cmp	r4, r0
 4671 00fa 03D1     		bne	.L393
 918:main.c        **** 				Measure_Gate_Sweep(1);
 4672              		.loc 2 918 0
 4673 00fc 0120     		movs	r0, #1
 4674 00fe FFF7FEFF 		bl	Measure_Gate_Sweep
 4675              	.LVL643:
 4676 0102 B0E7     		b	.L386
 4677              	.L393:
 919:main.c        **** 			} else 
 920:main.c        **** 			if (strstr(ReceiveBuffer, "set-vgs-raw ") == &ReceiveBuffer[0]) {
 4678              		.loc 2 920 0
 4679 0104 8B49     		ldr	r1, .L420+52
 4680 0106 2046     		mov	r0, r4
 4681 0108 FFF7FEFF 		bl	strstr
 4682              	.LVL644:
 4683 010c 8442     		cmp	r4, r0
 4684 010e 0DD1     		bne	.L394
 4685              	.LBB63:
 921:main.c        **** 				char* location = strstr(ReceiveBuffer, " ");
 4686              		.loc 2 921 0 discriminator 2
 4687 0110 2021     		movs	r1, #32
 4688 0112 2046     		mov	r0, r4
 4689 0114 FFF7FEFF 		bl	strchr
 4690              	.LVL645:
 4691 0118 02A9     		add	r1, sp, #8
 4692 011a 41F8040D 		str	r0, [r1, #-4]!
 922:main.c        **** 				uint8 vgsi = strtol(location, &location, 10);
 4693              		.loc 2 922 0 discriminator 2
 4694 011e 0A22     		movs	r2, #10
 4695 0120 FFF7FEFF 		bl	strtol
 4696              	.LVL646:
 923:main.c        **** 				
 924:main.c        **** 				Set_Vgs_Raw(vgsi);
 4697              		.loc 2 924 0 discriminator 2
 4698 0124 C0B2     		uxtb	r0, r0
 4699 0126 FFF7FEFF 		bl	Set_Vgs_Raw
 4700              	.LVL647:
 4701              	.LBE63:
 4702 012a 9CE7     		b	.L386
 4703              	.L394:
 925:main.c        **** 			} else 
 926:main.c        **** 			if (strstr(ReceiveBuffer, "set-vds-raw ") == &ReceiveBuffer[0]) {
 4704              		.loc 2 926 0
 4705 012c 8249     		ldr	r1, .L420+56
 4706 012e 2046     		mov	r0, r4
 4707 0130 FFF7FEFF 		bl	strstr
 4708              	.LVL648:
 4709 0134 8442     		cmp	r4, r0
 4710 0136 0DD1     		bne	.L395
 4711              	.LBB64:
 927:main.c        **** 				char* location = strstr(ReceiveBuffer, " ");
 4712              		.loc 2 927 0 discriminator 3
 4713 0138 2021     		movs	r1, #32
 4714 013a 2046     		mov	r0, r4
 4715 013c FFF7FEFF 		bl	strchr
ARM GAS  C:\Users\FRANKL~1\AppData\Local\Temp\ccnobXgu.s 			page 111


 4716              	.LVL649:
 4717 0140 02A9     		add	r1, sp, #8
 4718 0142 41F8040D 		str	r0, [r1, #-4]!
 928:main.c        **** 				uint8 vdsi = strtol(location, &location, 10);
 4719              		.loc 2 928 0 discriminator 3
 4720 0146 0A22     		movs	r2, #10
 4721 0148 FFF7FEFF 		bl	strtol
 4722              	.LVL650:
 929:main.c        **** 				
 930:main.c        **** 				Set_Vds_Raw(vdsi);
 4723              		.loc 2 930 0 discriminator 3
 4724 014c C0B2     		uxtb	r0, r0
 4725 014e FFF7FEFF 		bl	Set_Vds_Raw
 4726              	.LVL651:
 4727              	.LBE64:
 4728 0152 88E7     		b	.L386
 4729              	.L395:
 931:main.c        **** 			} else 
 932:main.c        **** 			if (strstr(ReceiveBuffer, "set-vgs-rel ") == &ReceiveBuffer[0]) {
 4730              		.loc 2 932 0
 4731 0154 7949     		ldr	r1, .L420+60
 4732 0156 2046     		mov	r0, r4
 4733 0158 FFF7FEFF 		bl	strstr
 4734              	.LVL652:
 4735 015c 8442     		cmp	r4, r0
 4736 015e 0DD1     		bne	.L396
 4737              	.LBB65:
 933:main.c        **** 				char* location = strstr(ReceiveBuffer, " ");
 4738              		.loc 2 933 0 discriminator 4
 4739 0160 2021     		movs	r1, #32
 4740 0162 2046     		mov	r0, r4
 4741 0164 FFF7FEFF 		bl	strchr
 4742              	.LVL653:
 4743 0168 02A9     		add	r1, sp, #8
 4744 016a 41F8040D 		str	r0, [r1, #-4]!
 934:main.c        **** 				int8 vgsi = strtol(location, &location, 10);
 4745              		.loc 2 934 0 discriminator 4
 4746 016e 0A22     		movs	r2, #10
 4747 0170 FFF7FEFF 		bl	strtol
 4748              	.LVL654:
 935:main.c        **** 				
 936:main.c        **** 				Set_Vgs_Rel(vgsi);
 4749              		.loc 2 936 0 discriminator 4
 4750 0174 40B2     		sxtb	r0, r0
 4751 0176 FFF7FEFF 		bl	Set_Vgs_Rel
 4752              	.LVL655:
 4753              	.LBE65:
 4754 017a 74E7     		b	.L386
 4755              	.L396:
 937:main.c        **** 			} else 
 938:main.c        **** 			if (strstr(ReceiveBuffer, "set-vds-rel ") == &ReceiveBuffer[0]) {
 4756              		.loc 2 938 0
 4757 017c 7049     		ldr	r1, .L420+64
 4758 017e 2046     		mov	r0, r4
 4759 0180 FFF7FEFF 		bl	strstr
 4760              	.LVL656:
 4761 0184 8442     		cmp	r4, r0
ARM GAS  C:\Users\FRANKL~1\AppData\Local\Temp\ccnobXgu.s 			page 112


 4762 0186 0DD1     		bne	.L397
 4763              	.LBB66:
 939:main.c        **** 				char* location = strstr(ReceiveBuffer, " ");
 4764              		.loc 2 939 0 discriminator 5
 4765 0188 2021     		movs	r1, #32
 4766 018a 2046     		mov	r0, r4
 4767 018c FFF7FEFF 		bl	strchr
 4768              	.LVL657:
 4769 0190 02A9     		add	r1, sp, #8
 4770 0192 41F8040D 		str	r0, [r1, #-4]!
 940:main.c        **** 				int8 vdsi = strtol(location, &location, 10);
 4771              		.loc 2 940 0 discriminator 5
 4772 0196 0A22     		movs	r2, #10
 4773 0198 FFF7FEFF 		bl	strtol
 4774              	.LVL658:
 941:main.c        **** 				
 942:main.c        **** 				Set_Vds_Rel(vdsi);
 4775              		.loc 2 942 0 discriminator 5
 4776 019c 40B2     		sxtb	r0, r0
 4777 019e FFF7FEFF 		bl	Set_Vds_Rel
 4778              	.LVL659:
 4779              	.LBE66:
 4780 01a2 60E7     		b	.L386
 4781              	.L397:
 943:main.c        **** 			} else 
 944:main.c        **** 			if (strstr(ReceiveBuffer, "set-vgs ") == &ReceiveBuffer[0]) {
 4782              		.loc 2 944 0
 4783 01a4 6749     		ldr	r1, .L420+68
 4784 01a6 2046     		mov	r0, r4
 4785 01a8 FFF7FEFF 		bl	strstr
 4786              	.LVL660:
 4787 01ac 8442     		cmp	r4, r0
 4788 01ae 0ED1     		bne	.L398
 4789              	.LBB67:
 945:main.c        **** 				char* location = strstr(ReceiveBuffer, " ");
 4790              		.loc 2 945 0 discriminator 6
 4791 01b0 2021     		movs	r1, #32
 4792 01b2 2046     		mov	r0, r4
 4793 01b4 FFF7FEFF 		bl	strchr
 4794              	.LVL661:
 946:main.c        **** 				float vgs = 0;
 4795              		.loc 2 946 0 discriminator 6
 4796 01b8 02AA     		add	r2, sp, #8
 4797 01ba 0023     		movs	r3, #0
 4798 01bc 42F8043D 		str	r3, [r2, #-4]!	@ float
 947:main.c        **** 				int8 success = sscanf(location, "%f", &vgs);
 4799              		.loc 2 947 0 discriminator 6
 4800 01c0 6149     		ldr	r1, .L420+72
 4801 01c2 FFF7FEFF 		bl	sscanf
 4802              	.LVL662:
 948:main.c        **** 				
 949:main.c        **** 				Set_Vgs(vgs);
 4803              		.loc 2 949 0 discriminator 6
 4804 01c6 0198     		ldr	r0, [sp, #4]	@ float
 4805 01c8 FFF7FEFF 		bl	Set_Vgs
 4806              	.LVL663:
 4807              	.LBE67:
ARM GAS  C:\Users\FRANKL~1\AppData\Local\Temp\ccnobXgu.s 			page 113


 4808 01cc 4BE7     		b	.L386
 4809              	.L398:
 950:main.c        **** 			} else 
 951:main.c        **** 			if (strstr(ReceiveBuffer, "set-vds ") == &ReceiveBuffer[0]) {
 4810              		.loc 2 951 0
 4811 01ce 5F49     		ldr	r1, .L420+76
 4812 01d0 2046     		mov	r0, r4
 4813 01d2 FFF7FEFF 		bl	strstr
 4814              	.LVL664:
 4815 01d6 8442     		cmp	r4, r0
 4816 01d8 0ED1     		bne	.L399
 4817              	.LBB68:
 952:main.c        **** 				char* location = strstr(ReceiveBuffer, " ");
 4818              		.loc 2 952 0 discriminator 7
 4819 01da 2021     		movs	r1, #32
 4820 01dc 2046     		mov	r0, r4
 4821 01de FFF7FEFF 		bl	strchr
 4822              	.LVL665:
 953:main.c        **** 				float vds = 0;
 4823              		.loc 2 953 0 discriminator 7
 4824 01e2 02AA     		add	r2, sp, #8
 4825 01e4 0023     		movs	r3, #0
 4826 01e6 42F8043D 		str	r3, [r2, #-4]!	@ float
 954:main.c        **** 				int8 success = sscanf(location, "%f", &vds);
 4827              		.loc 2 954 0 discriminator 7
 4828 01ea 5749     		ldr	r1, .L420+72
 4829 01ec FFF7FEFF 		bl	sscanf
 4830              	.LVL666:
 955:main.c        **** 				
 956:main.c        **** 				Set_Vds(vds);
 4831              		.loc 2 956 0 discriminator 7
 4832 01f0 0198     		ldr	r0, [sp, #4]	@ float
 4833 01f2 FFF7FEFF 		bl	Set_Vds
 4834              	.LVL667:
 4835              	.LBE68:
 4836 01f6 36E7     		b	.L386
 4837              	.L399:
 957:main.c        **** 			} else 
 958:main.c        **** 			if (strstr(ReceiveBuffer, "set-vgs-mv ") == &ReceiveBuffer[0]) {
 4838              		.loc 2 958 0
 4839 01f8 5549     		ldr	r1, .L420+80
 4840 01fa 2046     		mov	r0, r4
 4841 01fc FFF7FEFF 		bl	strstr
 4842              	.LVL668:
 4843 0200 8442     		cmp	r4, r0
 4844 0202 23D1     		bne	.L400
 4845              	.LBB69:
 959:main.c        **** 				char* location = strstr(ReceiveBuffer, " ");
 4846              		.loc 2 959 0 discriminator 8
 4847 0204 2021     		movs	r1, #32
 4848 0206 2046     		mov	r0, r4
 4849 0208 FFF7FEFF 		bl	strchr
 4850              	.LVL669:
 4851 020c 02A9     		add	r1, sp, #8
 4852 020e 41F8040D 		str	r0, [r1, #-4]!
 960:main.c        **** 				float Vgs_mV = (float)(strtol(location, &location, 10));
 4853              		.loc 2 960 0 discriminator 8
ARM GAS  C:\Users\FRANKL~1\AppData\Local\Temp\ccnobXgu.s 			page 114


 4854 0212 0A22     		movs	r2, #10
 4855 0214 FFF7FEFF 		bl	strtol
 4856              	.LVL670:
 4857 0218 FFF7FEFF 		bl	__aeabi_i2f
 4858              	.LVL671:
 4859 021c 0446     		mov	r4, r0
 4860              	.LVL672:
 961:main.c        **** 				
 962:main.c        **** 				Set_Vgs_mV(Vgs_mV);
 4861              		.loc 2 962 0 discriminator 8
 4862 021e FFF7FEFF 		bl	Set_Vgs_mV
 4863              	.LVL673:
 963:main.c        **** 				
 964:main.c        **** 				sprintf(TransmitBuffer, "# Vgs set to %f mV\r\n", Vgs_mV);
 4864              		.loc 2 964 0 discriminator 8
 4865 0222 2046     		mov	r0, r4
 4866 0224 FFF7FEFF 		bl	__aeabi_f2d
 4867              	.LVL674:
 4868 0228 4A4C     		ldr	r4, .L420+84
 4869              	.LVL675:
 4870 022a 0246     		mov	r2, r0
 4871 022c 0B46     		mov	r3, r1
 4872 022e 4A49     		ldr	r1, .L420+88
 4873 0230 2046     		mov	r0, r4
 4874 0232 FFF7FEFF 		bl	sprintf
 4875              	.LVL676:
 965:main.c        **** 				USBUARTH_Send(TransmitBuffer, strlen(TransmitBuffer));
 4876              		.loc 2 965 0 discriminator 8
 4877 0236 2046     		mov	r0, r4
 4878 0238 FFF7FEFF 		bl	strlen
 4879              	.LVL677:
 4880 023c 81B2     		uxth	r1, r0
 4881 023e 2046     		mov	r0, r4
 4882 0240 FFF7FEFF 		bl	USBUARTH_Send
 4883              	.LVL678:
 966:main.c        **** 				UART_1_PutString(TransmitBuffer);
 4884              		.loc 2 966 0 discriminator 8
 4885 0244 2046     		mov	r0, r4
 4886 0246 FFF7FEFF 		bl	UART_1_PutString
 4887              	.LVL679:
 4888              	.LBE69:
 4889 024a 0CE7     		b	.L386
 4890              	.LVL680:
 4891              	.L400:
 967:main.c        **** 			} else 
 968:main.c        **** 			if (strstr(ReceiveBuffer, "set-vds-mv ") == &ReceiveBuffer[0]) {
 4892              		.loc 2 968 0
 4893 024c 4349     		ldr	r1, .L420+92
 4894 024e 2046     		mov	r0, r4
 4895 0250 FFF7FEFF 		bl	strstr
 4896              	.LVL681:
 4897 0254 8442     		cmp	r4, r0
 4898 0256 23D1     		bne	.L401
 4899              	.LBB70:
 969:main.c        **** 				char* location = strstr(ReceiveBuffer, " ");
 4900              		.loc 2 969 0 discriminator 9
 4901 0258 2021     		movs	r1, #32
ARM GAS  C:\Users\FRANKL~1\AppData\Local\Temp\ccnobXgu.s 			page 115


 4902 025a 2046     		mov	r0, r4
 4903 025c FFF7FEFF 		bl	strchr
 4904              	.LVL682:
 4905 0260 02A9     		add	r1, sp, #8
 4906 0262 41F8040D 		str	r0, [r1, #-4]!
 970:main.c        **** 				float Vds_mV = (float)(strtol(location, &location, 10));
 4907              		.loc 2 970 0 discriminator 9
 4908 0266 0A22     		movs	r2, #10
 4909 0268 FFF7FEFF 		bl	strtol
 4910              	.LVL683:
 4911 026c FFF7FEFF 		bl	__aeabi_i2f
 4912              	.LVL684:
 4913 0270 0446     		mov	r4, r0
 4914              	.LVL685:
 971:main.c        **** 				
 972:main.c        **** 				Set_Vds_mV(Vds_mV);
 4915              		.loc 2 972 0 discriminator 9
 4916 0272 FFF7FEFF 		bl	Set_Vds_mV
 4917              	.LVL686:
 973:main.c        **** 				
 974:main.c        **** 				sprintf(TransmitBuffer, "# Vds set to %f mV\r\n", Vds_mV);
 4918              		.loc 2 974 0 discriminator 9
 4919 0276 2046     		mov	r0, r4
 4920 0278 FFF7FEFF 		bl	__aeabi_f2d
 4921              	.LVL687:
 4922 027c 354C     		ldr	r4, .L420+84
 4923              	.LVL688:
 4924 027e 0246     		mov	r2, r0
 4925 0280 0B46     		mov	r3, r1
 4926 0282 3749     		ldr	r1, .L420+96
 4927 0284 2046     		mov	r0, r4
 4928 0286 FFF7FEFF 		bl	sprintf
 4929              	.LVL689:
 975:main.c        **** 				USBUARTH_Send(TransmitBuffer, strlen(TransmitBuffer));
 4930              		.loc 2 975 0 discriminator 9
 4931 028a 2046     		mov	r0, r4
 4932 028c FFF7FEFF 		bl	strlen
 4933              	.LVL690:
 4934 0290 81B2     		uxth	r1, r0
 4935 0292 2046     		mov	r0, r4
 4936 0294 FFF7FEFF 		bl	USBUARTH_Send
 4937              	.LVL691:
 976:main.c        **** 				UART_1_PutString(TransmitBuffer);
 4938              		.loc 2 976 0 discriminator 9
 4939 0298 2046     		mov	r0, r4
 4940 029a FFF7FEFF 		bl	UART_1_PutString
 4941              	.LVL692:
 4942              	.LBE70:
 4943 029e E2E6     		b	.L386
 4944              	.LVL693:
 4945              	.L401:
 977:main.c        **** 			} else 
 978:main.c        **** 			if (strstr(ReceiveBuffer, "scan ") == &ReceiveBuffer[0]) {
 4946              		.loc 2 978 0
 4947 02a0 3049     		ldr	r1, .L420+100
 4948 02a2 2046     		mov	r0, r4
 4949 02a4 FFF7FEFF 		bl	strstr
ARM GAS  C:\Users\FRANKL~1\AppData\Local\Temp\ccnobXgu.s 			page 116


 4950              	.LVL694:
 4951 02a8 8442     		cmp	r4, r0
 4952 02aa 61D1     		bne	.L402
 979:main.c        **** 				sprintf(TransmitBuffer, "\r\n# Scan Starting\r\n");
 4953              		.loc 2 979 0
 4954 02ac 294C     		ldr	r4, .L420+84
 4955              	.LVL695:
 4956 02ae 2E4D     		ldr	r5, .L420+104
 4957 02b0 0FCD     		ldmia	r5!, {r0, r1, r2, r3}
 4958 02b2 2060     		str	r0, [r4]	@ unaligned
 4959 02b4 6160     		str	r1, [r4, #4]	@ unaligned
 4960 02b6 A260     		str	r2, [r4, #8]	@ unaligned
 4961 02b8 E360     		str	r3, [r4, #12]	@ unaligned
 4962 02ba 2868     		ldr	r0, [r5]	@ unaligned
 4963 02bc 2061     		str	r0, [r4, #16]	@ unaligned
 980:main.c        **** 				USBUARTH_Send(TransmitBuffer, strlen(TransmitBuffer));
 4964              		.loc 2 980 0
 4965 02be 2046     		mov	r0, r4
 4966 02c0 FFF7FEFF 		bl	strlen
 4967              	.LVL696:
 4968 02c4 81B2     		uxth	r1, r0
 4969 02c6 2046     		mov	r0, r4
 4970 02c8 FFF7FEFF 		bl	USBUARTH_Send
 4971              	.LVL697:
 981:main.c        **** 				UART_1_PutString(TransmitBuffer);
 4972              		.loc 2 981 0
 4973 02cc 2046     		mov	r0, r4
 4974 02ce FFF7FEFF 		bl	UART_1_PutString
 4975              	.LVL698:
 982:main.c        **** 				
 983:main.c        **** 				Scan(0, 0);
 4976              		.loc 2 983 0
 4977 02d2 0021     		movs	r1, #0
 4978 02d4 0846     		mov	r0, r1
 4979 02d6 FFF7FEFF 		bl	Scan
 4980              	.LVL699:
 984:main.c        **** 				
 985:main.c        **** 				sprintf(TransmitBuffer, "\r\n# Scan Complete\r\n");
 4981              		.loc 2 985 0
 4982 02da 244D     		ldr	r5, .L420+108
 4983 02dc 0FCD     		ldmia	r5!, {r0, r1, r2, r3}
 4984 02de 2060     		str	r0, [r4]	@ unaligned
 4985 02e0 6160     		str	r1, [r4, #4]	@ unaligned
 4986 02e2 A260     		str	r2, [r4, #8]	@ unaligned
 4987 02e4 E360     		str	r3, [r4, #12]	@ unaligned
 4988 02e6 2868     		ldr	r0, [r5]	@ unaligned
 4989 02e8 2061     		str	r0, [r4, #16]	@ unaligned
 986:main.c        **** 				USBUARTH_Send(TransmitBuffer, strlen(TransmitBuffer));
 4990              		.loc 2 986 0
 4991 02ea 2046     		mov	r0, r4
 4992 02ec FFF7FEFF 		bl	strlen
 4993              	.LVL700:
 4994 02f0 81B2     		uxth	r1, r0
 4995 02f2 2046     		mov	r0, r4
 4996 02f4 FFF7FEFF 		bl	USBUARTH_Send
 4997              	.LVL701:
 987:main.c        **** 				UART_1_PutString(TransmitBuffer);
ARM GAS  C:\Users\FRANKL~1\AppData\Local\Temp\ccnobXgu.s 			page 117


 4998              		.loc 2 987 0
 4999 02f8 2046     		mov	r0, r4
 5000 02fa FFF7FEFF 		bl	UART_1_PutString
 5001              	.LVL702:
 5002 02fe B2E6     		b	.L386
 5003              	.L421:
 5004              		.align	2
 5005              	.L420:
 5006 0300 C4000000 		.word	.LC13
 5007 0304 00000000 		.word	.LANCHOR0
 5008 0308 00000000 		.word	UART_Rx_Position
 5009 030c 00000000 		.word	USBUART_Rx_Position
 5010 0310 00000000 		.word	CommunicationHandlerISR
 5011 0314 00000000 		.word	Current_Measurement_Sample_Count
 5012 0318 00000000 		.word	USBUART_Receive_Buffer
 5013 031c 00000000 		.word	UART_Receive_Buffer
 5014 0320 D4000000 		.word	.LC14
 5015 0324 E0000000 		.word	.LC15
 5016 0328 F4000000 		.word	.LC16
 5017 032c 04010000 		.word	.LC17
 5018 0330 18010000 		.word	.LC18
 5019 0334 34010000 		.word	.LC19
 5020 0338 44010000 		.word	.LC20
 5021 033c 54010000 		.word	.LC21
 5022 0340 64010000 		.word	.LC22
 5023 0344 74010000 		.word	.LC23
 5024 0348 80010000 		.word	.LC24
 5025 034c 84010000 		.word	.LC25
 5026 0350 90010000 		.word	.LC26
 5027 0354 00000000 		.word	TransmitBuffer
 5028 0358 9C010000 		.word	.LC27
 5029 035c B4010000 		.word	.LC28
 5030 0360 C0010000 		.word	.LC29
 5031 0364 D8010000 		.word	.LC30
 5032 0368 E0010000 		.word	.LC31
 5033 036c F4010000 		.word	.LC32
 5034              	.LVL703:
 5035              	.L402:
 988:main.c        **** 			} else 
 989:main.c        **** 			if (strstr(ReceiveBuffer, "scan-range ") == &ReceiveBuffer[0]) {
 5036              		.loc 2 989 0
 5037 0370 CD49     		ldr	r1, .L422
 5038 0372 2046     		mov	r0, r4
 5039 0374 FFF7FEFF 		bl	strstr
 5040              	.LVL704:
 5041 0378 8442     		cmp	r4, r0
 5042 037a 42D1     		bne	.L403
 5043              	.LBB71:
 990:main.c        **** 				sprintf(TransmitBuffer, "\r\n# Scan-Range Starting\r\n");
 5044              		.loc 2 990 0 discriminator 10
 5045 037c CB4D     		ldr	r5, .L422+4
 5046 037e CC4E     		ldr	r6, .L422+8
 5047 0380 0FCE     		ldmia	r6!, {r0, r1, r2, r3}
 5048 0382 2860     		str	r0, [r5]	@ unaligned
 5049 0384 6960     		str	r1, [r5, #4]	@ unaligned
 5050 0386 AA60     		str	r2, [r5, #8]	@ unaligned
 5051 0388 EB60     		str	r3, [r5, #12]	@ unaligned
ARM GAS  C:\Users\FRANKL~1\AppData\Local\Temp\ccnobXgu.s 			page 118


 5052 038a 03CE     		ldmia	r6!, {r0, r1}
 5053 038c 2861     		str	r0, [r5, #16]	@ unaligned
 5054 038e 6961     		str	r1, [r5, #20]	@ unaligned
 5055 0390 3388     		ldrh	r3, [r6]	@ unaligned
 5056 0392 2B83     		strh	r3, [r5, #24]	@ unaligned
 991:main.c        **** 				USBUARTH_Send(TransmitBuffer, strlen(TransmitBuffer));
 5057              		.loc 2 991 0 discriminator 10
 5058 0394 2846     		mov	r0, r5
 5059 0396 FFF7FEFF 		bl	strlen
 5060              	.LVL705:
 5061 039a 81B2     		uxth	r1, r0
 5062 039c 2846     		mov	r0, r5
 5063 039e FFF7FEFF 		bl	USBUARTH_Send
 5064              	.LVL706:
 992:main.c        **** 				UART_1_PutString(TransmitBuffer);
 5065              		.loc 2 992 0 discriminator 10
 5066 03a2 2846     		mov	r0, r5
 5067 03a4 FFF7FEFF 		bl	UART_1_PutString
 5068              	.LVL707:
 993:main.c        **** 				
 994:main.c        **** 				char* location = strstr(ReceiveBuffer, " ");
 5069              		.loc 2 994 0 discriminator 10
 5070 03a8 2021     		movs	r1, #32
 5071 03aa 2046     		mov	r0, r4
 5072 03ac FFF7FEFF 		bl	strchr
 5073              	.LVL708:
 5074 03b0 02AC     		add	r4, sp, #8
 5075              	.LVL709:
 5076 03b2 44F8040D 		str	r0, [r4, #-4]!
 995:main.c        **** 				uint8 startDevice = strtol(location, &location, 10);
 5077              		.loc 2 995 0 discriminator 10
 5078 03b6 0A22     		movs	r2, #10
 5079 03b8 2146     		mov	r1, r4
 5080 03ba FFF7FEFF 		bl	strtol
 5081              	.LVL710:
 5082 03be C6B2     		uxtb	r6, r0
 5083              	.LVL711:
 996:main.c        **** 				uint8 stopDevice = strtol(location, &location, 10);
 5084              		.loc 2 996 0 discriminator 10
 5085 03c0 0A22     		movs	r2, #10
 5086 03c2 2146     		mov	r1, r4
 5087 03c4 0198     		ldr	r0, [sp, #4]
 5088 03c6 FFF7FEFF 		bl	strtol
 5089              	.LVL712:
 997:main.c        **** 				Scan_Range(startDevice, stopDevice, 0, 0);
 5090              		.loc 2 997 0 discriminator 10
 5091 03ca 0023     		movs	r3, #0
 5092 03cc 1A46     		mov	r2, r3
 5093 03ce C1B2     		uxtb	r1, r0
 5094 03d0 3046     		mov	r0, r6
 5095              	.LVL713:
 5096 03d2 FFF7FEFF 		bl	Scan_Range
 5097              	.LVL714:
 998:main.c        **** 				
 999:main.c        **** 				sprintf(TransmitBuffer, "\r\n# Scan Range Complete\r\n");
 5098              		.loc 2 999 0 discriminator 10
 5099 03d6 B74C     		ldr	r4, .L422+12
ARM GAS  C:\Users\FRANKL~1\AppData\Local\Temp\ccnobXgu.s 			page 119


 5100 03d8 0FCC     		ldmia	r4!, {r0, r1, r2, r3}
 5101 03da 2860     		str	r0, [r5]	@ unaligned
 5102 03dc 6960     		str	r1, [r5, #4]	@ unaligned
 5103 03de AA60     		str	r2, [r5, #8]	@ unaligned
 5104 03e0 EB60     		str	r3, [r5, #12]	@ unaligned
 5105 03e2 03CC     		ldmia	r4!, {r0, r1}
 5106 03e4 2861     		str	r0, [r5, #16]	@ unaligned
 5107 03e6 6961     		str	r1, [r5, #20]	@ unaligned
 5108 03e8 2388     		ldrh	r3, [r4]	@ unaligned
 5109 03ea 2B83     		strh	r3, [r5, #24]	@ unaligned
1000:main.c        **** 				USBUARTH_Send(TransmitBuffer, strlen(TransmitBuffer));
 5110              		.loc 2 1000 0 discriminator 10
 5111 03ec 2846     		mov	r0, r5
 5112 03ee FFF7FEFF 		bl	strlen
 5113              	.LVL715:
 5114 03f2 81B2     		uxth	r1, r0
 5115 03f4 2846     		mov	r0, r5
 5116 03f6 FFF7FEFF 		bl	USBUARTH_Send
 5117              	.LVL716:
1001:main.c        **** 				UART_1_PutString(TransmitBuffer);
 5118              		.loc 2 1001 0 discriminator 10
 5119 03fa 2846     		mov	r0, r5
 5120 03fc FFF7FEFF 		bl	UART_1_PutString
 5121              	.LVL717:
 5122              	.LBE71:
 5123 0400 31E6     		b	.L386
 5124              	.LVL718:
 5125              	.L403:
1002:main.c        **** 			} else 
1003:main.c        **** 			if (strstr(ReceiveBuffer, "scan-range-loop ") == &ReceiveBuffer[0]) {
 5126              		.loc 2 1003 0
 5127 0402 AD49     		ldr	r1, .L422+16
 5128 0404 2046     		mov	r0, r4
 5129 0406 FFF7FEFF 		bl	strstr
 5130              	.LVL719:
 5131 040a 8442     		cmp	r4, r0
 5132 040c 48D1     		bne	.L404
 5133              	.LBB72:
1004:main.c        **** 				sprintf(TransmitBuffer, "\r\n# Scan-Range-Loop Starting\r\n");
 5134              		.loc 2 1004 0 discriminator 11
 5135 040e A74D     		ldr	r5, .L422+4
 5136 0410 AA4E     		ldr	r6, .L422+20
 5137 0412 0FCE     		ldmia	r6!, {r0, r1, r2, r3}
 5138 0414 2860     		str	r0, [r5]	@ unaligned
 5139 0416 6960     		str	r1, [r5, #4]	@ unaligned
 5140 0418 AA60     		str	r2, [r5, #8]	@ unaligned
 5141 041a EB60     		str	r3, [r5, #12]	@ unaligned
 5142 041c 07CE     		ldmia	r6!, {r0, r1, r2}
 5143 041e 2861     		str	r0, [r5, #16]	@ unaligned
 5144 0420 6961     		str	r1, [r5, #20]	@ unaligned
 5145 0422 AA61     		str	r2, [r5, #24]	@ unaligned
 5146 0424 3288     		ldrh	r2, [r6]	@ unaligned
 5147 0426 B378     		ldrb	r3, [r6, #2]	@ zero_extendqisi2
 5148 0428 AA83     		strh	r2, [r5, #28]	@ unaligned
 5149 042a AB77     		strb	r3, [r5, #30]
1005:main.c        **** 				USBUARTH_Send(TransmitBuffer, strlen(TransmitBuffer));
 5150              		.loc 2 1005 0 discriminator 11
ARM GAS  C:\Users\FRANKL~1\AppData\Local\Temp\ccnobXgu.s 			page 120


 5151 042c 2846     		mov	r0, r5
 5152 042e FFF7FEFF 		bl	strlen
 5153              	.LVL720:
 5154 0432 81B2     		uxth	r1, r0
 5155 0434 2846     		mov	r0, r5
 5156 0436 FFF7FEFF 		bl	USBUARTH_Send
 5157              	.LVL721:
1006:main.c        **** 				UART_1_PutString(TransmitBuffer);
 5158              		.loc 2 1006 0 discriminator 11
 5159 043a 2846     		mov	r0, r5
 5160 043c FFF7FEFF 		bl	UART_1_PutString
 5161              	.LVL722:
1007:main.c        **** 				
1008:main.c        **** 				char* location = strstr(ReceiveBuffer, " ");
 5162              		.loc 2 1008 0 discriminator 11
 5163 0440 2021     		movs	r1, #32
 5164 0442 2046     		mov	r0, r4
 5165 0444 FFF7FEFF 		bl	strchr
 5166              	.LVL723:
 5167 0448 02AC     		add	r4, sp, #8
 5168              	.LVL724:
 5169 044a 44F8040D 		str	r0, [r4, #-4]!
1009:main.c        **** 				uint8 startDevice = strtol(location, &location, 10);
 5170              		.loc 2 1009 0 discriminator 11
 5171 044e 0A22     		movs	r2, #10
 5172 0450 2146     		mov	r1, r4
 5173 0452 FFF7FEFF 		bl	strtol
 5174              	.LVL725:
 5175 0456 C6B2     		uxtb	r6, r0
 5176              	.LVL726:
1010:main.c        **** 				uint8 stopDevice = strtol(location, &location, 10);
 5177              		.loc 2 1010 0 discriminator 11
 5178 0458 0A22     		movs	r2, #10
 5179 045a 2146     		mov	r1, r4
 5180 045c 0198     		ldr	r0, [sp, #4]
 5181 045e FFF7FEFF 		bl	strtol
 5182              	.LVL727:
1011:main.c        **** 				Scan_Range(startDevice, stopDevice, 0, 1);
 5183              		.loc 2 1011 0 discriminator 11
 5184 0462 0123     		movs	r3, #1
 5185 0464 0022     		movs	r2, #0
 5186 0466 C1B2     		uxtb	r1, r0
 5187 0468 3046     		mov	r0, r6
 5188              	.LVL728:
 5189 046a FFF7FEFF 		bl	Scan_Range
 5190              	.LVL729:
1012:main.c        **** 				
1013:main.c        **** 				sprintf(TransmitBuffer, "\r\n# Scan Range Loop Complete\r\n");
 5191              		.loc 2 1013 0 discriminator 11
 5192 046e 944C     		ldr	r4, .L422+24
 5193 0470 0FCC     		ldmia	r4!, {r0, r1, r2, r3}
 5194 0472 2860     		str	r0, [r5]	@ unaligned
 5195 0474 6960     		str	r1, [r5, #4]	@ unaligned
 5196 0476 AA60     		str	r2, [r5, #8]	@ unaligned
 5197 0478 EB60     		str	r3, [r5, #12]	@ unaligned
 5198 047a 07CC     		ldmia	r4!, {r0, r1, r2}
 5199 047c 2861     		str	r0, [r5, #16]	@ unaligned
ARM GAS  C:\Users\FRANKL~1\AppData\Local\Temp\ccnobXgu.s 			page 121


 5200 047e 6961     		str	r1, [r5, #20]	@ unaligned
 5201 0480 AA61     		str	r2, [r5, #24]	@ unaligned
 5202 0482 2288     		ldrh	r2, [r4]	@ unaligned
 5203 0484 A378     		ldrb	r3, [r4, #2]	@ zero_extendqisi2
 5204 0486 AA83     		strh	r2, [r5, #28]	@ unaligned
 5205 0488 AB77     		strb	r3, [r5, #30]
1014:main.c        **** 				USBUARTH_Send(TransmitBuffer, strlen(TransmitBuffer));
 5206              		.loc 2 1014 0 discriminator 11
 5207 048a 2846     		mov	r0, r5
 5208 048c FFF7FEFF 		bl	strlen
 5209              	.LVL730:
 5210 0490 81B2     		uxth	r1, r0
 5211 0492 2846     		mov	r0, r5
 5212 0494 FFF7FEFF 		bl	USBUARTH_Send
 5213              	.LVL731:
1015:main.c        **** 				UART_1_PutString(TransmitBuffer);
 5214              		.loc 2 1015 0 discriminator 11
 5215 0498 2846     		mov	r0, r5
 5216 049a FFF7FEFF 		bl	UART_1_PutString
 5217              	.LVL732:
 5218              	.LBE72:
 5219 049e E2E5     		b	.L386
 5220              	.LVL733:
 5221              	.L404:
1016:main.c        **** 			} else 
1017:main.c        **** 			if (strstr(ReceiveBuffer, "scan-range-wide-loop ") == &ReceiveBuffer[0]) {
 5222              		.loc 2 1017 0
 5223 04a0 8849     		ldr	r1, .L422+28
 5224 04a2 2046     		mov	r0, r4
 5225 04a4 FFF7FEFF 		bl	strstr
 5226              	.LVL734:
 5227 04a8 8442     		cmp	r4, r0
 5228 04aa 4DD1     		bne	.L405
 5229              	.LBB73:
1018:main.c        **** 				sprintf(TransmitBuffer, "\r\n# Scan-Range-Wide-Loop Starting\r\n");
 5230              		.loc 2 1018 0 discriminator 12
 5231 04ac 864F     		ldr	r7, .L422+32
 5232 04ae 7F4D     		ldr	r5, .L422+4
 5233 04b0 07F1200E 		add	lr, r7, #32
 5234              	.L406:
 5235 04b4 3E46     		mov	r6, r7
 5236 04b6 0FCE     		ldmia	r6!, {r0, r1, r2, r3}
 5237 04b8 2860     		str	r0, [r5]	@ unaligned
 5238 04ba 6960     		str	r1, [r5, #4]	@ unaligned
 5239 04bc AA60     		str	r2, [r5, #8]	@ unaligned
 5240 04be EB60     		str	r3, [r5, #12]	@ unaligned
 5241 04c0 3746     		mov	r7, r6
 5242 04c2 1035     		adds	r5, r5, #16
 5243 04c4 7645     		cmp	r6, lr
 5244 04c6 F5D1     		bne	.L406
 5245 04c8 3068     		ldr	r0, [r6]	@ unaligned
 5246 04ca 2860     		str	r0, [r5]	@ unaligned
1019:main.c        **** 				USBUARTH_Send(TransmitBuffer, strlen(TransmitBuffer));
 5247              		.loc 2 1019 0 discriminator 12
 5248 04cc 774D     		ldr	r5, .L422+4
 5249 04ce 2846     		mov	r0, r5
 5250 04d0 FFF7FEFF 		bl	strlen
ARM GAS  C:\Users\FRANKL~1\AppData\Local\Temp\ccnobXgu.s 			page 122


 5251              	.LVL735:
 5252 04d4 81B2     		uxth	r1, r0
 5253 04d6 2846     		mov	r0, r5
 5254 04d8 FFF7FEFF 		bl	USBUARTH_Send
 5255              	.LVL736:
1020:main.c        **** 				UART_1_PutString(TransmitBuffer);
 5256              		.loc 2 1020 0 discriminator 12
 5257 04dc 2846     		mov	r0, r5
 5258 04de FFF7FEFF 		bl	UART_1_PutString
 5259              	.LVL737:
1021:main.c        **** 				
1022:main.c        **** 				char* location = strstr(ReceiveBuffer, " ");
 5260              		.loc 2 1022 0 discriminator 12
 5261 04e2 2021     		movs	r1, #32
 5262 04e4 2046     		mov	r0, r4
 5263 04e6 FFF7FEFF 		bl	strchr
 5264              	.LVL738:
 5265 04ea 02AC     		add	r4, sp, #8
 5266              	.LVL739:
 5267 04ec 44F8040D 		str	r0, [r4, #-4]!
1023:main.c        **** 				uint8 startDevice = strtol(location, &location, 10);
 5268              		.loc 2 1023 0 discriminator 12
 5269 04f0 0A22     		movs	r2, #10
 5270 04f2 2146     		mov	r1, r4
 5271 04f4 FFF7FEFF 		bl	strtol
 5272              	.LVL740:
 5273 04f8 C6B2     		uxtb	r6, r0
 5274              	.LVL741:
1024:main.c        **** 				uint8 stopDevice = strtol(location, &location, 10);
 5275              		.loc 2 1024 0 discriminator 12
 5276 04fa 0A22     		movs	r2, #10
 5277 04fc 2146     		mov	r1, r4
 5278 04fe 0198     		ldr	r0, [sp, #4]
 5279 0500 FFF7FEFF 		bl	strtol
 5280              	.LVL742:
1025:main.c        **** 				Scan_Range(startDevice, stopDevice, 1, 1);
 5281              		.loc 2 1025 0 discriminator 12
 5282 0504 0123     		movs	r3, #1
 5283 0506 1A46     		mov	r2, r3
 5284 0508 C1B2     		uxtb	r1, r0
 5285 050a 3046     		mov	r0, r6
 5286              	.LVL743:
 5287 050c FFF7FEFF 		bl	Scan_Range
 5288              	.LVL744:
1026:main.c        **** 				
1027:main.c        **** 				sprintf(TransmitBuffer, "\r\n# Scan Range Wide Loop Complete\r\n");
 5289              		.loc 2 1027 0 discriminator 12
 5290 0510 6E4E     		ldr	r6, .L422+36
 5291              	.LVL745:
 5292 0512 2C46     		mov	r4, r5
 5293 0514 06F12007 		add	r7, r6, #32
 5294              	.L407:
 5295 0518 3546     		mov	r5, r6
 5296 051a 0FCD     		ldmia	r5!, {r0, r1, r2, r3}
 5297 051c 2060     		str	r0, [r4]	@ unaligned
 5298 051e 6160     		str	r1, [r4, #4]	@ unaligned
 5299 0520 A260     		str	r2, [r4, #8]	@ unaligned
ARM GAS  C:\Users\FRANKL~1\AppData\Local\Temp\ccnobXgu.s 			page 123


 5300 0522 E360     		str	r3, [r4, #12]	@ unaligned
 5301 0524 2E46     		mov	r6, r5
 5302 0526 1034     		adds	r4, r4, #16
 5303 0528 BD42     		cmp	r5, r7
 5304 052a F5D1     		bne	.L407
 5305 052c 2868     		ldr	r0, [r5]	@ unaligned
 5306 052e 2060     		str	r0, [r4]	@ unaligned
1028:main.c        **** 				USBUARTH_Send(TransmitBuffer, strlen(TransmitBuffer));
 5307              		.loc 2 1028 0 discriminator 12
 5308 0530 5E4C     		ldr	r4, .L422+4
 5309 0532 2046     		mov	r0, r4
 5310 0534 FFF7FEFF 		bl	strlen
 5311              	.LVL746:
 5312 0538 81B2     		uxth	r1, r0
 5313 053a 2046     		mov	r0, r4
 5314 053c FFF7FEFF 		bl	USBUARTH_Send
 5315              	.LVL747:
1029:main.c        **** 				UART_1_PutString(TransmitBuffer);
 5316              		.loc 2 1029 0 discriminator 12
 5317 0540 2046     		mov	r0, r4
 5318 0542 FFF7FEFF 		bl	UART_1_PutString
 5319              	.LVL748:
 5320              	.LBE73:
 5321 0546 8EE5     		b	.L386
 5322              	.LVL749:
 5323              	.L405:
1030:main.c        **** 			} else 
1031:main.c        **** 			if (strstr(ReceiveBuffer, "connect ") == &ReceiveBuffer[0]) {
 5324              		.loc 2 1031 0
 5325 0548 6149     		ldr	r1, .L422+40
 5326 054a 2046     		mov	r0, r4
 5327 054c FFF7FEFF 		bl	strstr
 5328              	.LVL750:
 5329 0550 8442     		cmp	r4, r0
 5330 0552 27D1     		bne	.L408
 5331              	.LBB74:
1032:main.c        **** 				char* location = strstr(ReceiveBuffer, " ");
 5332              		.loc 2 1032 0 discriminator 13
 5333 0554 2021     		movs	r1, #32
 5334 0556 2046     		mov	r0, r4
 5335 0558 FFF7FEFF 		bl	strchr
 5336              	.LVL751:
 5337 055c 02AC     		add	r4, sp, #8
 5338              	.LVL752:
 5339 055e 44F8040D 		str	r0, [r4, #-4]!
1033:main.c        **** 				uint8 contact = strtol(location, &location, 10);
 5340              		.loc 2 1033 0 discriminator 13
 5341 0562 0A22     		movs	r2, #10
 5342 0564 2146     		mov	r1, r4
 5343 0566 FFF7FEFF 		bl	strtol
 5344              	.LVL753:
 5345 056a C5B2     		uxtb	r5, r0
 5346              	.LVL754:
1034:main.c        **** 				uint8 intermediate = strtol(location, &location, 10);
 5347              		.loc 2 1034 0 discriminator 13
 5348 056c 0A22     		movs	r2, #10
 5349 056e 2146     		mov	r1, r4
ARM GAS  C:\Users\FRANKL~1\AppData\Local\Temp\ccnobXgu.s 			page 124


 5350 0570 0198     		ldr	r0, [sp, #4]
 5351 0572 FFF7FEFF 		bl	strtol
 5352              	.LVL755:
 5353 0576 C6B2     		uxtb	r6, r0
 5354              	.LVL756:
1035:main.c        **** 				Connect_Contact_To_Intermediate(contact, intermediate);
 5355              		.loc 2 1035 0 discriminator 13
 5356 0578 3146     		mov	r1, r6
 5357 057a 2846     		mov	r0, r5
 5358 057c FFF7FEFF 		bl	Connect_Contact_To_Intermediate
 5359              	.LVL757:
1036:main.c        **** 				
1037:main.c        **** 				sprintf(TransmitBuffer, "# Connected %u to %u\r\n", contact, intermediate);
 5360              		.loc 2 1037 0 discriminator 13
 5361 0580 4A4C     		ldr	r4, .L422+4
 5362 0582 3346     		mov	r3, r6
 5363 0584 2A46     		mov	r2, r5
 5364 0586 5349     		ldr	r1, .L422+44
 5365 0588 2046     		mov	r0, r4
 5366 058a FFF7FEFF 		bl	sprintf
 5367              	.LVL758:
1038:main.c        **** 				USBUARTH_Send(TransmitBuffer, strlen(TransmitBuffer));
 5368              		.loc 2 1038 0 discriminator 13
 5369 058e 2046     		mov	r0, r4
 5370 0590 FFF7FEFF 		bl	strlen
 5371              	.LVL759:
 5372 0594 81B2     		uxth	r1, r0
 5373 0596 2046     		mov	r0, r4
 5374 0598 FFF7FEFF 		bl	USBUARTH_Send
 5375              	.LVL760:
1039:main.c        **** 				UART_1_PutString(TransmitBuffer);
 5376              		.loc 2 1039 0 discriminator 13
 5377 059c 2046     		mov	r0, r4
 5378 059e FFF7FEFF 		bl	UART_1_PutString
 5379              	.LVL761:
 5380              	.LBE74:
 5381 05a2 60E5     		b	.L386
 5382              	.LVL762:
 5383              	.L408:
1040:main.c        **** 			} else 
1041:main.c        **** 			if (strstr(ReceiveBuffer, "connect-c ") == &ReceiveBuffer[0]) {
 5384              		.loc 2 1041 0
 5385 05a4 4C49     		ldr	r1, .L422+48
 5386 05a6 2046     		mov	r0, r4
 5387 05a8 FFF7FEFF 		bl	strstr
 5388              	.LVL763:
 5389 05ac 8442     		cmp	r4, r0
 5390 05ae 27D1     		bne	.L409
 5391              	.LBB75:
1042:main.c        **** 				char* location = strstr(ReceiveBuffer, " ");
 5392              		.loc 2 1042 0 discriminator 14
 5393 05b0 2021     		movs	r1, #32
 5394 05b2 2046     		mov	r0, r4
 5395 05b4 FFF7FEFF 		bl	strchr
 5396              	.LVL764:
 5397 05b8 02AC     		add	r4, sp, #8
 5398              	.LVL765:
ARM GAS  C:\Users\FRANKL~1\AppData\Local\Temp\ccnobXgu.s 			page 125


 5399 05ba 44F8040D 		str	r0, [r4, #-4]!
1043:main.c        **** 				uint8 channel = strtol(location, &location, 10);
 5400              		.loc 2 1043 0 discriminator 14
 5401 05be 0A22     		movs	r2, #10
 5402 05c0 2146     		mov	r1, r4
 5403 05c2 FFF7FEFF 		bl	strtol
 5404              	.LVL766:
 5405 05c6 C5B2     		uxtb	r5, r0
 5406              	.LVL767:
1044:main.c        **** 				uint8 intermediate = strtol(location, &location, 10);
 5407              		.loc 2 1044 0 discriminator 14
 5408 05c8 0A22     		movs	r2, #10
 5409 05ca 2146     		mov	r1, r4
 5410 05cc 0198     		ldr	r0, [sp, #4]
 5411 05ce FFF7FEFF 		bl	strtol
 5412              	.LVL768:
 5413 05d2 C6B2     		uxtb	r6, r0
 5414              	.LVL769:
1045:main.c        **** 				Connect_Channel_On_Intermediate(channel, intermediate);
 5415              		.loc 2 1045 0 discriminator 14
 5416 05d4 3146     		mov	r1, r6
 5417 05d6 2846     		mov	r0, r5
 5418 05d8 FFF7FEFF 		bl	Connect_Channel_On_Intermediate
 5419              	.LVL770:
1046:main.c        **** 				
1047:main.c        **** 				sprintf(TransmitBuffer, "# Connected channel %u to %u\r\n", channel, intermediate);
 5420              		.loc 2 1047 0 discriminator 14
 5421 05dc 334C     		ldr	r4, .L422+4
 5422 05de 3346     		mov	r3, r6
 5423 05e0 2A46     		mov	r2, r5
 5424 05e2 3E49     		ldr	r1, .L422+52
 5425 05e4 2046     		mov	r0, r4
 5426 05e6 FFF7FEFF 		bl	sprintf
 5427              	.LVL771:
1048:main.c        **** 				USBUARTH_Send(TransmitBuffer, strlen(TransmitBuffer));
 5428              		.loc 2 1048 0 discriminator 14
 5429 05ea 2046     		mov	r0, r4
 5430 05ec FFF7FEFF 		bl	strlen
 5431              	.LVL772:
 5432 05f0 81B2     		uxth	r1, r0
 5433 05f2 2046     		mov	r0, r4
 5434 05f4 FFF7FEFF 		bl	USBUARTH_Send
 5435              	.LVL773:
1049:main.c        **** 				UART_1_PutString(TransmitBuffer);
 5436              		.loc 2 1049 0 discriminator 14
 5437 05f8 2046     		mov	r0, r4
 5438 05fa FFF7FEFF 		bl	UART_1_PutString
 5439              	.LVL774:
 5440              	.LBE75:
 5441 05fe 32E5     		b	.L386
 5442              	.LVL775:
 5443              	.L409:
1050:main.c        **** 			} else 
1051:main.c        **** 			if (strstr(ReceiveBuffer, "disconnect ") == &ReceiveBuffer[0]) {
 5444              		.loc 2 1051 0
 5445 0600 3749     		ldr	r1, .L422+56
 5446 0602 2046     		mov	r0, r4
ARM GAS  C:\Users\FRANKL~1\AppData\Local\Temp\ccnobXgu.s 			page 126


 5447 0604 FFF7FEFF 		bl	strstr
 5448              	.LVL776:
 5449 0608 8442     		cmp	r4, r0
 5450 060a 27D1     		bne	.L410
 5451              	.LBB76:
1052:main.c        **** 				char* location = strstr(ReceiveBuffer, " ");
 5452              		.loc 2 1052 0 discriminator 15
 5453 060c 2021     		movs	r1, #32
 5454 060e 2046     		mov	r0, r4
 5455 0610 FFF7FEFF 		bl	strchr
 5456              	.LVL777:
 5457 0614 02AC     		add	r4, sp, #8
 5458              	.LVL778:
 5459 0616 44F8040D 		str	r0, [r4, #-4]!
1053:main.c        **** 				uint8 contact = strtol(location, &location, 10);
 5460              		.loc 2 1053 0 discriminator 15
 5461 061a 0A22     		movs	r2, #10
 5462 061c 2146     		mov	r1, r4
 5463 061e FFF7FEFF 		bl	strtol
 5464              	.LVL779:
 5465 0622 C5B2     		uxtb	r5, r0
 5466              	.LVL780:
1054:main.c        **** 				uint8 intermediate = strtol(location, &location, 10);
 5467              		.loc 2 1054 0 discriminator 15
 5468 0624 0A22     		movs	r2, #10
 5469 0626 2146     		mov	r1, r4
 5470 0628 0198     		ldr	r0, [sp, #4]
 5471 062a FFF7FEFF 		bl	strtol
 5472              	.LVL781:
 5473 062e C6B2     		uxtb	r6, r0
 5474              	.LVL782:
1055:main.c        **** 				Disconnect_Contact_From_Intermediate(contact, intermediate);
 5475              		.loc 2 1055 0 discriminator 15
 5476 0630 3146     		mov	r1, r6
 5477 0632 2846     		mov	r0, r5
 5478 0634 FFF7FEFF 		bl	Disconnect_Contact_From_Intermediate
 5479              	.LVL783:
1056:main.c        **** 				
1057:main.c        **** 				sprintf(TransmitBuffer, "# Disonnected %u from %u\r\n", contact, intermediate);
 5480              		.loc 2 1057 0 discriminator 15
 5481 0638 1C4C     		ldr	r4, .L422+4
 5482 063a 3346     		mov	r3, r6
 5483 063c 2A46     		mov	r2, r5
 5484 063e 2949     		ldr	r1, .L422+60
 5485 0640 2046     		mov	r0, r4
 5486 0642 FFF7FEFF 		bl	sprintf
 5487              	.LVL784:
1058:main.c        **** 				USBUARTH_Send(TransmitBuffer, strlen(TransmitBuffer));
 5488              		.loc 2 1058 0 discriminator 15
 5489 0646 2046     		mov	r0, r4
 5490 0648 FFF7FEFF 		bl	strlen
 5491              	.LVL785:
 5492 064c 81B2     		uxth	r1, r0
 5493 064e 2046     		mov	r0, r4
 5494 0650 FFF7FEFF 		bl	USBUARTH_Send
 5495              	.LVL786:
1059:main.c        **** 				UART_1_PutString(TransmitBuffer);
ARM GAS  C:\Users\FRANKL~1\AppData\Local\Temp\ccnobXgu.s 			page 127


 5496              		.loc 2 1059 0 discriminator 15
 5497 0654 2046     		mov	r0, r4
 5498 0656 FFF7FEFF 		bl	UART_1_PutString
 5499              	.LVL787:
 5500              	.LBE76:
 5501 065a 04E5     		b	.L386
 5502              	.LVL788:
 5503              	.L410:
1060:main.c        **** 			} else 
1061:main.c        **** 			if (strstr(ReceiveBuffer, "disconnect-all-from ") == &ReceiveBuffer[0]) {
 5504              		.loc 2 1061 0
 5505 065c 2249     		ldr	r1, .L422+64
 5506 065e 2046     		mov	r0, r4
 5507 0660 FFF7FEFF 		bl	strstr
 5508              	.LVL789:
 5509 0664 8442     		cmp	r4, r0
 5510 0666 43D1     		bne	.L411
 5511              	.LBB77:
1062:main.c        **** 				char* location = strstr(ReceiveBuffer, " ");
 5512              		.loc 2 1062 0 discriminator 16
 5513 0668 2021     		movs	r1, #32
 5514 066a 2046     		mov	r0, r4
 5515 066c FFF7FEFF 		bl	strchr
 5516              	.LVL790:
 5517 0670 02A9     		add	r1, sp, #8
 5518 0672 41F8040D 		str	r0, [r1, #-4]!
1063:main.c        **** 				uint8 intermediate = strtol(location, &location, 10);
 5519              		.loc 2 1063 0 discriminator 16
 5520 0676 0A22     		movs	r2, #10
 5521 0678 FFF7FEFF 		bl	strtol
 5522              	.LVL791:
 5523 067c C5B2     		uxtb	r5, r0
 5524              	.LVL792:
1064:main.c        **** 				Disconnect_All_Contacts_From_Intermediate(intermediate);
 5525              		.loc 2 1064 0 discriminator 16
 5526 067e 2846     		mov	r0, r5
 5527 0680 FFF7FEFF 		bl	Disconnect_All_Contacts_From_Intermediate
 5528              	.LVL793:
1065:main.c        **** 				
1066:main.c        **** 				sprintf(TransmitBuffer, "# Disconnected all from  %u\r\n", intermediate);
 5529              		.loc 2 1066 0 discriminator 16
 5530 0684 094C     		ldr	r4, .L422+4
 5531              	.LVL794:
 5532 0686 2A46     		mov	r2, r5
 5533 0688 1849     		ldr	r1, .L422+68
 5534 068a 2046     		mov	r0, r4
 5535 068c FFF7FEFF 		bl	sprintf
 5536              	.LVL795:
1067:main.c        **** 				USBUARTH_Send(TransmitBuffer, strlen(TransmitBuffer));
 5537              		.loc 2 1067 0 discriminator 16
 5538 0690 2046     		mov	r0, r4
 5539 0692 FFF7FEFF 		bl	strlen
 5540              	.LVL796:
 5541 0696 81B2     		uxth	r1, r0
 5542 0698 2046     		mov	r0, r4
 5543 069a FFF7FEFF 		bl	USBUARTH_Send
 5544              	.LVL797:
ARM GAS  C:\Users\FRANKL~1\AppData\Local\Temp\ccnobXgu.s 			page 128


1068:main.c        **** 				UART_1_PutString(TransmitBuffer);
 5545              		.loc 2 1068 0 discriminator 16
 5546 069e 2046     		mov	r0, r4
 5547 06a0 FFF7FEFF 		bl	UART_1_PutString
 5548              	.LVL798:
 5549              	.LBE77:
 5550 06a4 DFE4     		b	.L386
 5551              	.L423:
 5552 06a6 00BF     		.align	2
 5553              	.L422:
 5554 06a8 08020000 		.word	.LC33
 5555 06ac 00000000 		.word	TransmitBuffer
 5556 06b0 14020000 		.word	.LC34
 5557 06b4 30020000 		.word	.LC35
 5558 06b8 4C020000 		.word	.LC36
 5559 06bc 60020000 		.word	.LC37
 5560 06c0 80020000 		.word	.LC38
 5561 06c4 A0020000 		.word	.LC39
 5562 06c8 B8020000 		.word	.LC40
 5563 06cc DC020000 		.word	.LC41
 5564 06d0 00030000 		.word	.LC42
 5565 06d4 0C030000 		.word	.LC43
 5566 06d8 24030000 		.word	.LC44
 5567 06dc 30030000 		.word	.LC45
 5568 06e0 50030000 		.word	.LC46
 5569 06e4 5C030000 		.word	.LC47
 5570 06e8 78030000 		.word	.LC48
 5571 06ec 90030000 		.word	.LC49
 5572              	.LVL799:
 5573              	.L411:
1069:main.c        **** 			} else 
1070:main.c        **** 			if (strstr(ReceiveBuffer, "disconnect-all-from-all ") == &ReceiveBuffer[0]) {
 5574              		.loc 2 1070 0
 5575 06f0 6549     		ldr	r1, .L424
 5576 06f2 2046     		mov	r0, r4
 5577 06f4 FFF7FEFF 		bl	strstr
 5578              	.LVL800:
 5579 06f8 8442     		cmp	r4, r0
 5580 06fa 19D1     		bne	.L412
1071:main.c        **** 				Disconnect_All_Contacts_From_All_Intermediates();
 5581              		.loc 2 1071 0
 5582 06fc FFF7FEFF 		bl	Disconnect_All_Contacts_From_All_Intermediates
 5583              	.LVL801:
1072:main.c        **** 				
1073:main.c        **** 				sprintf(TransmitBuffer, "# Disconnected all from all\r\n");
 5584              		.loc 2 1073 0
 5585 0700 624D     		ldr	r5, .L424+4
 5586 0702 634C     		ldr	r4, .L424+8
 5587              	.LVL802:
 5588 0704 0FCC     		ldmia	r4!, {r0, r1, r2, r3}
 5589 0706 2860     		str	r0, [r5]	@ unaligned
 5590 0708 6960     		str	r1, [r5, #4]	@ unaligned
 5591 070a AA60     		str	r2, [r5, #8]	@ unaligned
 5592 070c EB60     		str	r3, [r5, #12]	@ unaligned
 5593 070e 07CC     		ldmia	r4!, {r0, r1, r2}
 5594 0710 2861     		str	r0, [r5, #16]	@ unaligned
 5595 0712 6961     		str	r1, [r5, #20]	@ unaligned
ARM GAS  C:\Users\FRANKL~1\AppData\Local\Temp\ccnobXgu.s 			page 129


 5596 0714 AA61     		str	r2, [r5, #24]	@ unaligned
 5597 0716 2388     		ldrh	r3, [r4]	@ unaligned
 5598 0718 AB83     		strh	r3, [r5, #28]	@ unaligned
1074:main.c        **** 				USBUARTH_Send(TransmitBuffer, strlen(TransmitBuffer));
 5599              		.loc 2 1074 0
 5600 071a 2846     		mov	r0, r5
 5601 071c FFF7FEFF 		bl	strlen
 5602              	.LVL803:
 5603 0720 81B2     		uxth	r1, r0
 5604 0722 2846     		mov	r0, r5
 5605 0724 FFF7FEFF 		bl	USBUARTH_Send
 5606              	.LVL804:
1075:main.c        **** 				UART_1_PutString(TransmitBuffer);
 5607              		.loc 2 1075 0
 5608 0728 2846     		mov	r0, r5
 5609 072a FFF7FEFF 		bl	UART_1_PutString
 5610              	.LVL805:
 5611 072e 9AE4     		b	.L386
 5612              	.LVL806:
 5613              	.L412:
1076:main.c        **** 			} else 
1077:main.c        **** 			if (strstr(ReceiveBuffer, "disconnect-from-all ") == &ReceiveBuffer[0]) {
 5614              		.loc 2 1077 0
 5615 0730 5849     		ldr	r1, .L424+12
 5616 0732 2046     		mov	r0, r4
 5617 0734 FFF7FEFF 		bl	strstr
 5618              	.LVL807:
 5619 0738 8442     		cmp	r4, r0
 5620 073a 1ED1     		bne	.L413
 5621              	.LBB78:
1078:main.c        **** 				char* location = strstr(ReceiveBuffer, " ");
 5622              		.loc 2 1078 0 discriminator 17
 5623 073c 2021     		movs	r1, #32
 5624 073e 2046     		mov	r0, r4
 5625 0740 FFF7FEFF 		bl	strchr
 5626              	.LVL808:
 5627 0744 02A9     		add	r1, sp, #8
 5628 0746 41F8040D 		str	r0, [r1, #-4]!
1079:main.c        **** 				uint8 contact = strtol(location, &location, 10);
 5629              		.loc 2 1079 0 discriminator 17
 5630 074a 0A22     		movs	r2, #10
 5631 074c FFF7FEFF 		bl	strtol
 5632              	.LVL809:
 5633 0750 C5B2     		uxtb	r5, r0
 5634              	.LVL810:
1080:main.c        **** 				Disconnect_Contact_From_All_Intermediates(contact);
 5635              		.loc 2 1080 0 discriminator 17
 5636 0752 2846     		mov	r0, r5
 5637 0754 FFF7FEFF 		bl	Disconnect_Contact_From_All_Intermediates
 5638              	.LVL811:
1081:main.c        **** 				
1082:main.c        **** 				sprintf(TransmitBuffer, "# Disconnected %u from all\r\n", contact);
 5639              		.loc 2 1082 0 discriminator 17
 5640 0758 4C4C     		ldr	r4, .L424+4
 5641              	.LVL812:
 5642 075a 2A46     		mov	r2, r5
 5643 075c 4E49     		ldr	r1, .L424+16
ARM GAS  C:\Users\FRANKL~1\AppData\Local\Temp\ccnobXgu.s 			page 130


 5644 075e 2046     		mov	r0, r4
 5645 0760 FFF7FEFF 		bl	sprintf
 5646              	.LVL813:
1083:main.c        **** 				USBUARTH_Send(TransmitBuffer, strlen(TransmitBuffer));
 5647              		.loc 2 1083 0 discriminator 17
 5648 0764 2046     		mov	r0, r4
 5649 0766 FFF7FEFF 		bl	strlen
 5650              	.LVL814:
 5651 076a 81B2     		uxth	r1, r0
 5652 076c 2046     		mov	r0, r4
 5653 076e FFF7FEFF 		bl	USBUARTH_Send
 5654              	.LVL815:
1084:main.c        **** 				UART_1_PutString(TransmitBuffer);
 5655              		.loc 2 1084 0 discriminator 17
 5656 0772 2046     		mov	r0, r4
 5657 0774 FFF7FEFF 		bl	UART_1_PutString
 5658              	.LVL816:
 5659              	.LBE78:
 5660 0778 75E4     		b	.L386
 5661              	.LVL817:
 5662              	.L413:
1085:main.c        **** 			} else 
1086:main.c        **** 			if (strstr(ReceiveBuffer, "connect-intermediate ") == &ReceiveBuffer[0]) {
 5663              		.loc 2 1086 0
 5664 077a 4849     		ldr	r1, .L424+20
 5665 077c 2046     		mov	r0, r4
 5666 077e FFF7FEFF 		bl	strstr
 5667              	.LVL818:
 5668 0782 8442     		cmp	r4, r0
 5669 0784 1ED1     		bne	.L414
 5670              	.LBB79:
1087:main.c        **** 				char* location = strstr(ReceiveBuffer, " ");
 5671              		.loc 2 1087 0 discriminator 18
 5672 0786 2021     		movs	r1, #32
 5673 0788 2046     		mov	r0, r4
 5674 078a FFF7FEFF 		bl	strchr
 5675              	.LVL819:
 5676 078e 02A9     		add	r1, sp, #8
 5677 0790 41F8040D 		str	r0, [r1, #-4]!
1088:main.c        **** 				uint8 intermediate = strtol(location, &location, 10);
 5678              		.loc 2 1088 0 discriminator 18
 5679 0794 0A22     		movs	r2, #10
 5680 0796 FFF7FEFF 		bl	strtol
 5681              	.LVL820:
 5682 079a C5B2     		uxtb	r5, r0
 5683              	.LVL821:
1089:main.c        **** 				Connect_Intermediate(intermediate);
 5684              		.loc 2 1089 0 discriminator 18
 5685 079c 2846     		mov	r0, r5
 5686 079e FFF7FEFF 		bl	Connect_Intermediate
 5687              	.LVL822:
1090:main.c        **** 				
1091:main.c        **** 				sprintf(TransmitBuffer, "# Connected intermediate %u\r\n", intermediate);
 5688              		.loc 2 1091 0 discriminator 18
 5689 07a2 3A4C     		ldr	r4, .L424+4
 5690              	.LVL823:
 5691 07a4 2A46     		mov	r2, r5
ARM GAS  C:\Users\FRANKL~1\AppData\Local\Temp\ccnobXgu.s 			page 131


 5692 07a6 3E49     		ldr	r1, .L424+24
 5693 07a8 2046     		mov	r0, r4
 5694 07aa FFF7FEFF 		bl	sprintf
 5695              	.LVL824:
1092:main.c        **** 				USBUARTH_Send(TransmitBuffer, strlen(TransmitBuffer));
 5696              		.loc 2 1092 0 discriminator 18
 5697 07ae 2046     		mov	r0, r4
 5698 07b0 FFF7FEFF 		bl	strlen
 5699              	.LVL825:
 5700 07b4 81B2     		uxth	r1, r0
 5701 07b6 2046     		mov	r0, r4
 5702 07b8 FFF7FEFF 		bl	USBUARTH_Send
 5703              	.LVL826:
1093:main.c        **** 				UART_1_PutString(TransmitBuffer);
 5704              		.loc 2 1093 0 discriminator 18
 5705 07bc 2046     		mov	r0, r4
 5706 07be FFF7FEFF 		bl	UART_1_PutString
 5707              	.LVL827:
 5708              	.LBE79:
 5709 07c2 50E4     		b	.L386
 5710              	.LVL828:
 5711              	.L414:
1094:main.c        **** 			} else 
1095:main.c        **** 			if (strstr(ReceiveBuffer, "connect-intermediates ") == &ReceiveBuffer[0]) {
 5712              		.loc 2 1095 0
 5713 07c4 3749     		ldr	r1, .L424+28
 5714 07c6 2046     		mov	r0, r4
 5715 07c8 FFF7FEFF 		bl	strstr
 5716              	.LVL829:
 5717 07cc 8442     		cmp	r4, r0
 5718 07ce 17D1     		bne	.L415
1096:main.c        **** 				Connect_Intermediates();
 5719              		.loc 2 1096 0
 5720 07d0 FFF7FEFF 		bl	Connect_Intermediates
 5721              	.LVL830:
1097:main.c        **** 				
1098:main.c        **** 				sprintf(TransmitBuffer, "# Connected intermediates\r\n");
 5722              		.loc 2 1098 0
 5723 07d4 2D4D     		ldr	r5, .L424+4
 5724 07d6 344C     		ldr	r4, .L424+32
 5725              	.LVL831:
 5726 07d8 0FCC     		ldmia	r4!, {r0, r1, r2, r3}
 5727 07da 2860     		str	r0, [r5]	@ unaligned
 5728 07dc 6960     		str	r1, [r5, #4]	@ unaligned
 5729 07de AA60     		str	r2, [r5, #8]	@ unaligned
 5730 07e0 EB60     		str	r3, [r5, #12]	@ unaligned
 5731 07e2 07CC     		ldmia	r4!, {r0, r1, r2}
 5732 07e4 2861     		str	r0, [r5, #16]	@ unaligned
 5733 07e6 6961     		str	r1, [r5, #20]	@ unaligned
 5734 07e8 AA61     		str	r2, [r5, #24]	@ unaligned
1099:main.c        **** 				USBUARTH_Send(TransmitBuffer, strlen(TransmitBuffer));
 5735              		.loc 2 1099 0
 5736 07ea 2846     		mov	r0, r5
 5737 07ec FFF7FEFF 		bl	strlen
 5738              	.LVL832:
 5739 07f0 81B2     		uxth	r1, r0
 5740 07f2 2846     		mov	r0, r5
ARM GAS  C:\Users\FRANKL~1\AppData\Local\Temp\ccnobXgu.s 			page 132


 5741 07f4 FFF7FEFF 		bl	USBUARTH_Send
 5742              	.LVL833:
1100:main.c        **** 				UART_1_PutString(TransmitBuffer);
 5743              		.loc 2 1100 0
 5744 07f8 2846     		mov	r0, r5
 5745 07fa FFF7FEFF 		bl	UART_1_PutString
 5746              	.LVL834:
 5747 07fe 32E4     		b	.L386
 5748              	.LVL835:
 5749              	.L415:
1101:main.c        **** 			} else 
1102:main.c        **** 			if (strstr(ReceiveBuffer, "Set_Current_Measurement_Sample_Count ") == &ReceiveBuffer[0]) {
 5750              		.loc 2 1102 0
 5751 0800 2A49     		ldr	r1, .L424+36
 5752 0802 2046     		mov	r0, r4
 5753 0804 FFF7FEFF 		bl	strstr
 5754              	.LVL836:
 5755 0808 8442     		cmp	r4, r0
 5756 080a 2AD1     		bne	.L416
 5757              	.LBB80:
1103:main.c        **** 				char* location = strstr(ReceiveBuffer, " ");
 5758              		.loc 2 1103 0 discriminator 19
 5759 080c 2021     		movs	r1, #32
 5760 080e 2046     		mov	r0, r4
 5761 0810 FFF7FEFF 		bl	strchr
 5762              	.LVL837:
 5763 0814 02A9     		add	r1, sp, #8
 5764 0816 41F8040D 		str	r0, [r1, #-4]!
1104:main.c        **** 				uint32 sampleCount = strtol(location, &location, 10);
 5765              		.loc 2 1104 0 discriminator 19
 5766 081a 0A22     		movs	r2, #10
 5767 081c FFF7FEFF 		bl	strtol
 5768              	.LVL838:
1105:main.c        **** 				
1106:main.c        **** 				Current_Measurement_Sample_Count = sampleCount;
 5769              		.loc 2 1106 0 discriminator 19
 5770 0820 234B     		ldr	r3, .L424+40
 5771 0822 1860     		str	r0, [r3]
1107:main.c        **** 				
1108:main.c        **** 				sprintf(TransmitBuffer, "# Set Current Measurement Sample Count\r\n");
 5772              		.loc 2 1108 0 discriminator 19
 5773 0824 234C     		ldr	r4, .L424+44
 5774              	.LVL839:
 5775 0826 194D     		ldr	r5, .L424+4
 5776 0828 04F12007 		add	r7, r4, #32
 5777              	.LVL840:
 5778              	.L417:
 5779 082c 2646     		mov	r6, r4
 5780 082e 0FCE     		ldmia	r6!, {r0, r1, r2, r3}
 5781 0830 2860     		str	r0, [r5]	@ unaligned
 5782 0832 6960     		str	r1, [r5, #4]	@ unaligned
 5783 0834 AA60     		str	r2, [r5, #8]	@ unaligned
 5784 0836 EB60     		str	r3, [r5, #12]	@ unaligned
 5785 0838 3446     		mov	r4, r6
 5786 083a 1035     		adds	r5, r5, #16
 5787 083c BE42     		cmp	r6, r7
 5788 083e F5D1     		bne	.L417
ARM GAS  C:\Users\FRANKL~1\AppData\Local\Temp\ccnobXgu.s 			page 133


 5789 0840 03CC     		ldmia	r4!, {r0, r1}
 5790 0842 2860     		str	r0, [r5]	@ unaligned
 5791 0844 6960     		str	r1, [r5, #4]	@ unaligned
 5792 0846 2378     		ldrb	r3, [r4]	@ zero_extendqisi2
 5793 0848 2B72     		strb	r3, [r5, #8]
1109:main.c        **** 				USBUARTH_Send(TransmitBuffer, strlen(TransmitBuffer));
 5794              		.loc 2 1109 0 discriminator 19
 5795 084a 104C     		ldr	r4, .L424+4
 5796 084c 2046     		mov	r0, r4
 5797 084e FFF7FEFF 		bl	strlen
 5798              	.LVL841:
 5799 0852 81B2     		uxth	r1, r0
 5800 0854 2046     		mov	r0, r4
 5801 0856 FFF7FEFF 		bl	USBUARTH_Send
 5802              	.LVL842:
1110:main.c        **** 				UART_1_PutString(TransmitBuffer);
 5803              		.loc 2 1110 0 discriminator 19
 5804 085a 2046     		mov	r0, r4
 5805 085c FFF7FEFF 		bl	UART_1_PutString
 5806              	.LVL843:
 5807              	.LBE80:
 5808 0860 01E4     		b	.L386
 5809              	.LVL844:
 5810              	.L416:
1111:main.c        **** 			} else {
1112:main.c        **** 				sprintf(TransmitBuffer, "! Unidentified command: |%s|\r\n", ReceiveBuffer);
 5811              		.loc 2 1112 0
 5812 0862 0A4D     		ldr	r5, .L424+4
 5813 0864 2246     		mov	r2, r4
 5814 0866 1449     		ldr	r1, .L424+48
 5815 0868 2846     		mov	r0, r5
 5816 086a FFF7FEFF 		bl	sprintf
 5817              	.LVL845:
1113:main.c        **** 				USBUARTH_Send(TransmitBuffer, strlen(TransmitBuffer));
 5818              		.loc 2 1113 0
 5819 086e 2846     		mov	r0, r5
 5820 0870 FFF7FEFF 		bl	strlen
 5821              	.LVL846:
 5822 0874 81B2     		uxth	r1, r0
 5823 0876 2846     		mov	r0, r5
 5824 0878 FFF7FEFF 		bl	USBUARTH_Send
 5825              	.LVL847:
1114:main.c        **** 				UART_1_PutString(TransmitBuffer);
 5826              		.loc 2 1114 0
 5827 087c 2846     		mov	r0, r5
 5828 087e FFF7FEFF 		bl	UART_1_PutString
 5829              	.LVL848:
 5830 0882 FFF7F0BB 		b	.L386
 5831              	.L425:
 5832 0886 00BF     		.align	2
 5833              	.L424:
 5834 0888 B0030000 		.word	.LC50
 5835 088c 00000000 		.word	TransmitBuffer
 5836 0890 CC030000 		.word	.LC51
 5837 0894 EC030000 		.word	.LC52
 5838 0898 04040000 		.word	.LC53
 5839 089c 24040000 		.word	.LC54
ARM GAS  C:\Users\FRANKL~1\AppData\Local\Temp\ccnobXgu.s 			page 134


 5840 08a0 3C040000 		.word	.LC55
 5841 08a4 5C040000 		.word	.LC56
 5842 08a8 74040000 		.word	.LC57
 5843 08ac 90040000 		.word	.LC58
 5844 08b0 00000000 		.word	Current_Measurement_Sample_Count
 5845 08b4 B8040000 		.word	.LC59
 5846 08b8 E4040000 		.word	.LC60
 5847              	.LBE61:
 5848              		.cfi_endproc
 5849              	.LFE109:
 5850              		.size	main, .-main
 5851              		.comm	Current_Measurement_Sample_Count,4,4
 5852              		.comm	Vds_Index_Goal_Relative,2,2
 5853              		.comm	Vgs_Index_Goal_Relative,2,2
 5854              		.comm	Compliance_Reached,1,1
 5855              		.comm	USBUART_Rx_Position,1,1
 5856              		.comm	USBUART_Receive_Buffer,64,4
 5857              		.comm	UART_Rx_Position,1,1
 5858              		.comm	UART_Receive_Buffer,64,4
 5859              		.global	G_Pause
 5860              		.global	G_Break
 5861              		.global	G_Stop
 5862              		.global	newData
 5863              		.comm	TransmitBuffer,64,4
 5864              		.comm	selectors,1020,4
 5865              		.section	.rodata.str1.4,"aMS",%progbits,1
 5866              		.align	2
 5867              	.LC0:
 5868 0000 73746F70 		.ascii	"stop \000"
 5868      2000
 5869 0006 0000     		.space	2
 5870              	.LC1:
 5871 0008 62726561 		.ascii	"break \000"
 5871      6B2000
 5872 000f 00       		.space	1
 5873              	.LC2:
 5874 0010 70617573 		.ascii	"pause \000"
 5874      652000
 5875 0017 00       		.space	1
 5876              	.LC3:
 5877 0018 72657375 		.ascii	"resume \000"
 5877      6D652000 
 5878              	.LC4:
 5879 0020 74726973 		.ascii	"tristate \000"
 5879      74617465 
 5879      2000
 5880 002a 0000     		.space	2
 5881              	.LC5:
 5882 002c 55706461 		.ascii	"Updating Selector %u\015\012\000"
 5882      74696E67 
 5882      2053656C 
 5882      6563746F 
 5882      72202575 
 5883 0043 00       		.space	1
 5884              	.LC6:
 5885 0044 49324320 		.ascii	"I2C Transfer Error! Type: Timeout\015\012\000"
 5885      5472616E 
ARM GAS  C:\Users\FRANKL~1\AppData\Local\Temp\ccnobXgu.s 			page 135


 5885      73666572 
 5885      20457272 
 5885      6F722120 
 5886              	.LC7:
 5887 0068 49324320 		.ascii	"I2C Transfer Error! \000"
 5887      5472616E 
 5887      73666572 
 5887      20457272 
 5887      6F722120 
 5888 007d 000000   		.space	3
 5889              	.LC8:
 5890 0080 54797065 		.ascii	"Type: NAK\000"
 5890      3A204E41 
 5890      4B00
 5891 008a 0000     		.space	2
 5892              	.LC9:
 5893 008c 0D0A00   		.ascii	"\015\012\000"
 5894 008f 00       		.space	1
 5895              	.LC10:
 5896 0090 55706461 		.ascii	"Updated Selector %u\015\012\000"
 5896      74656420 
 5896      53656C65 
 5896      63746F72 
 5896      2025750D 
 5897 00a6 0000     		.space	2
 5898              	.LC11:
 5899 00a8 5B25652C 		.ascii	"[%e,%f,%f,%f,%u]\015\012\000"
 5899      25662C25 
 5899      662C2566 
 5899      2C25755D 
 5899      0D0A00
 5900 00bb 00       		.space	1
 5901              	.LC12:
 5902 00bc 0D0A2575 		.ascii	"\015\012%u\015\012\000"
 5902      0D0A00
 5903 00c3 00       		.space	1
 5904              	.LC13:
 5905 00c4 0D0A2320 		.ascii	"\015\012# Starting\015\012\000"
 5905      53746172 
 5905      74696E67 
 5905      0D0A00
 5906 00d3 00       		.space	1
 5907              	.LC14:
 5908 00d4 6D656173 		.ascii	"measure \000"
 5908      75726520 
 5908      00
 5909 00dd 000000   		.space	3
 5910              	.LC15:
 5911 00e0 6D656173 		.ascii	"measure-multiple \000"
 5911      7572652D 
 5911      6D756C74 
 5911      69706C65 
 5911      2000
 5912 00f2 0000     		.space	2
 5913              	.LC16:
 5914 00f4 6D656173 		.ascii	"measure-sweep \000"
 5914      7572652D 
ARM GAS  C:\Users\FRANKL~1\AppData\Local\Temp\ccnobXgu.s 			page 136


 5914      73776565 
 5914      702000
 5915 0103 00       		.space	1
 5916              	.LC17:
 5917 0104 6D656173 		.ascii	"measure-gate-sweep \000"
 5917      7572652D 
 5917      67617465 
 5917      2D737765 
 5917      65702000 
 5918              	.LC18:
 5919 0118 6D656173 		.ascii	"measure-gate-sweep-loop \000"
 5919      7572652D 
 5919      67617465 
 5919      2D737765 
 5919      65702D6C 
 5920 0131 000000   		.space	3
 5921              	.LC19:
 5922 0134 7365742D 		.ascii	"set-vgs-raw \000"
 5922      7667732D 
 5922      72617720 
 5922      00
 5923 0141 000000   		.space	3
 5924              	.LC20:
 5925 0144 7365742D 		.ascii	"set-vds-raw \000"
 5925      7664732D 
 5925      72617720 
 5925      00
 5926 0151 000000   		.space	3
 5927              	.LC21:
 5928 0154 7365742D 		.ascii	"set-vgs-rel \000"
 5928      7667732D 
 5928      72656C20 
 5928      00
 5929 0161 000000   		.space	3
 5930              	.LC22:
 5931 0164 7365742D 		.ascii	"set-vds-rel \000"
 5931      7664732D 
 5931      72656C20 
 5931      00
 5932 0171 000000   		.space	3
 5933              	.LC23:
 5934 0174 7365742D 		.ascii	"set-vgs \000"
 5934      76677320 
 5934      00
 5935 017d 000000   		.space	3
 5936              	.LC24:
 5937 0180 256600   		.ascii	"%f\000"
 5938 0183 00       		.space	1
 5939              	.LC25:
 5940 0184 7365742D 		.ascii	"set-vds \000"
 5940      76647320 
 5940      00
 5941 018d 000000   		.space	3
 5942              	.LC26:
 5943 0190 7365742D 		.ascii	"set-vgs-mv \000"
 5943      7667732D 
 5943      6D762000 
ARM GAS  C:\Users\FRANKL~1\AppData\Local\Temp\ccnobXgu.s 			page 137


 5944              	.LC27:
 5945 019c 23205667 		.ascii	"# Vgs set to %f mV\015\012\000"
 5945      73207365 
 5945      7420746F 
 5945      20256620 
 5945      6D560D0A 
 5946 01b1 000000   		.space	3
 5947              	.LC28:
 5948 01b4 7365742D 		.ascii	"set-vds-mv \000"
 5948      7664732D 
 5948      6D762000 
 5949              	.LC29:
 5950 01c0 23205664 		.ascii	"# Vds set to %f mV\015\012\000"
 5950      73207365 
 5950      7420746F 
 5950      20256620 
 5950      6D560D0A 
 5951 01d5 000000   		.space	3
 5952              	.LC30:
 5953 01d8 7363616E 		.ascii	"scan \000"
 5953      2000
 5954 01de 0000     		.space	2
 5955              	.LC31:
 5956 01e0 0D0A2320 		.ascii	"\015\012# Scan Starting\015\012\000"
 5956      5363616E 
 5956      20537461 
 5956      7274696E 
 5956      670D0A00 
 5957              	.LC32:
 5958 01f4 0D0A2320 		.ascii	"\015\012# Scan Complete\015\012\000"
 5958      5363616E 
 5958      20436F6D 
 5958      706C6574 
 5958      650D0A00 
 5959              	.LC33:
 5960 0208 7363616E 		.ascii	"scan-range \000"
 5960      2D72616E 
 5960      67652000 
 5961              	.LC34:
 5962 0214 0D0A2320 		.ascii	"\015\012# Scan-Range Starting\015\012\000"
 5962      5363616E 
 5962      2D52616E 
 5962      67652053 
 5962      74617274 
 5963 022e 0000     		.space	2
 5964              	.LC35:
 5965 0230 0D0A2320 		.ascii	"\015\012# Scan Range Complete\015\012\000"
 5965      5363616E 
 5965      2052616E 
 5965      67652043 
 5965      6F6D706C 
 5966 024a 0000     		.space	2
 5967              	.LC36:
 5968 024c 7363616E 		.ascii	"scan-range-loop \000"
 5968      2D72616E 
 5968      67652D6C 
 5968      6F6F7020 
ARM GAS  C:\Users\FRANKL~1\AppData\Local\Temp\ccnobXgu.s 			page 138


 5968      00
 5969 025d 000000   		.space	3
 5970              	.LC37:
 5971 0260 0D0A2320 		.ascii	"\015\012# Scan-Range-Loop Starting\015\012\000"
 5971      5363616E 
 5971      2D52616E 
 5971      67652D4C 
 5971      6F6F7020 
 5972 027f 00       		.space	1
 5973              	.LC38:
 5974 0280 0D0A2320 		.ascii	"\015\012# Scan Range Loop Complete\015\012\000"
 5974      5363616E 
 5974      2052616E 
 5974      6765204C 
 5974      6F6F7020 
 5975 029f 00       		.space	1
 5976              	.LC39:
 5977 02a0 7363616E 		.ascii	"scan-range-wide-loop \000"
 5977      2D72616E 
 5977      67652D77 
 5977      6964652D 
 5977      6C6F6F70 
 5978 02b6 0000     		.space	2
 5979              	.LC40:
 5980 02b8 0D0A2320 		.ascii	"\015\012# Scan-Range-Wide-Loop Starting\015\012\000"
 5980      5363616E 
 5980      2D52616E 
 5980      67652D57 
 5980      6964652D 
 5981              	.LC41:
 5982 02dc 0D0A2320 		.ascii	"\015\012# Scan Range Wide Loop Complete\015\012\000"
 5982      5363616E 
 5982      2052616E 
 5982      67652057 
 5982      69646520 
 5983              	.LC42:
 5984 0300 636F6E6E 		.ascii	"connect \000"
 5984      65637420 
 5984      00
 5985 0309 000000   		.space	3
 5986              	.LC43:
 5987 030c 2320436F 		.ascii	"# Connected %u to %u\015\012\000"
 5987      6E6E6563 
 5987      74656420 
 5987      25752074 
 5987      6F202575 
 5988 0323 00       		.space	1
 5989              	.LC44:
 5990 0324 636F6E6E 		.ascii	"connect-c \000"
 5990      6563742D 
 5990      632000
 5991 032f 00       		.space	1
 5992              	.LC45:
 5993 0330 2320436F 		.ascii	"# Connected channel %u to %u\015\012\000"
 5993      6E6E6563 
 5993      74656420 
 5993      6368616E 
ARM GAS  C:\Users\FRANKL~1\AppData\Local\Temp\ccnobXgu.s 			page 139


 5993      6E656C20 
 5994 034f 00       		.space	1
 5995              	.LC46:
 5996 0350 64697363 		.ascii	"disconnect \000"
 5996      6F6E6E65 
 5996      63742000 
 5997              	.LC47:
 5998 035c 23204469 		.ascii	"# Disonnected %u from %u\015\012\000"
 5998      736F6E6E 
 5998      65637465 
 5998      64202575 
 5998      2066726F 
 5999 0377 00       		.space	1
 6000              	.LC48:
 6001 0378 64697363 		.ascii	"disconnect-all-from \000"
 6001      6F6E6E65 
 6001      63742D61 
 6001      6C6C2D66 
 6001      726F6D20 
 6002 038d 000000   		.space	3
 6003              	.LC49:
 6004 0390 23204469 		.ascii	"# Disconnected all from  %u\015\012\000"
 6004      73636F6E 
 6004      6E656374 
 6004      65642061 
 6004      6C6C2066 
 6005 03ae 0000     		.space	2
 6006              	.LC50:
 6007 03b0 64697363 		.ascii	"disconnect-all-from-all \000"
 6007      6F6E6E65 
 6007      63742D61 
 6007      6C6C2D66 
 6007      726F6D2D 
 6008 03c9 000000   		.space	3
 6009              	.LC51:
 6010 03cc 23204469 		.ascii	"# Disconnected all from all\015\012\000"
 6010      73636F6E 
 6010      6E656374 
 6010      65642061 
 6010      6C6C2066 
 6011 03ea 0000     		.space	2
 6012              	.LC52:
 6013 03ec 64697363 		.ascii	"disconnect-from-all \000"
 6013      6F6E6E65 
 6013      63742D66 
 6013      726F6D2D 
 6013      616C6C20 
 6014 0401 000000   		.space	3
 6015              	.LC53:
 6016 0404 23204469 		.ascii	"# Disconnected %u from all\015\012\000"
 6016      73636F6E 
 6016      6E656374 
 6016      65642025 
 6016      75206672 
 6017 0421 000000   		.space	3
 6018              	.LC54:
 6019 0424 636F6E6E 		.ascii	"connect-intermediate \000"
ARM GAS  C:\Users\FRANKL~1\AppData\Local\Temp\ccnobXgu.s 			page 140


 6019      6563742D 
 6019      696E7465 
 6019      726D6564 
 6019      69617465 
 6020 043a 0000     		.space	2
 6021              	.LC55:
 6022 043c 2320436F 		.ascii	"# Connected intermediate %u\015\012\000"
 6022      6E6E6563 
 6022      74656420 
 6022      696E7465 
 6022      726D6564 
 6023 045a 0000     		.space	2
 6024              	.LC56:
 6025 045c 636F6E6E 		.ascii	"connect-intermediates \000"
 6025      6563742D 
 6025      696E7465 
 6025      726D6564 
 6025      69617465 
 6026 0473 00       		.space	1
 6027              	.LC57:
 6028 0474 2320436F 		.ascii	"# Connected intermediates\015\012\000"
 6028      6E6E6563 
 6028      74656420 
 6028      696E7465 
 6028      726D6564 
 6029              	.LC58:
 6030 0490 5365745F 		.ascii	"Set_Current_Measurement_Sample_Count \000"
 6030      43757272 
 6030      656E745F 
 6030      4D656173 
 6030      7572656D 
 6031 04b6 0000     		.space	2
 6032              	.LC59:
 6033 04b8 23205365 		.ascii	"# Set Current Measurement Sample Count\015\012\000"
 6033      74204375 
 6033      7272656E 
 6033      74204D65 
 6033      61737572 
 6034 04e1 000000   		.space	3
 6035              	.LC60:
 6036 04e4 2120556E 		.ascii	"! Unidentified command: |%s|\015\012\000"
 6036      6964656E 
 6036      74696669 
 6036      65642063 
 6036      6F6D6D61 
 6037              		.bss
 6038              		.set	.LANCHOR0,. + 0
 6039              		.type	newData, %object
 6040              		.size	newData, 1
 6041              	newData:
 6042 0000 00       		.space	1
 6043              		.type	G_Stop, %object
 6044              		.size	G_Stop, 1
 6045              	G_Stop:
 6046 0001 00       		.space	1
 6047              		.type	G_Break, %object
 6048              		.size	G_Break, 1
ARM GAS  C:\Users\FRANKL~1\AppData\Local\Temp\ccnobXgu.s 			page 141


 6049              	G_Break:
 6050 0002 00       		.space	1
 6051              		.type	G_Pause, %object
 6052              		.size	G_Pause, 1
 6053              	G_Pause:
 6054 0003 00       		.space	1
 6055              		.text
 6056              	.Letext0:
 6057              		.file 3 "c:\\program files (x86)\\cypress\\psoc creator\\4.1\\psoc creator\\import\\gnu\\arm\\5.4.
 6058              		.file 4 "c:\\program files (x86)\\cypress\\psoc creator\\4.1\\psoc creator\\import\\gnu\\arm\\5.4.
 6059              		.file 5 "Generated_Source\\PSoC5/cytypes.h"
 6060              		.file 6 "Generated_Source\\PSoC5/core_cm3.h"
 6061              		.file 7 "Generated_Source\\PSoC5/USBUART.h"
 6062              		.file 8 "Generated_Source\\PSoC5/USBUART_cdc.h"
 6063              		.file 9 "c:\\program files (x86)\\cypress\\psoc creator\\4.1\\psoc creator\\import\\gnu\\arm\\5.4.
 6064              		.file 10 "Generated_Source\\PSoC5/UART_1.h"
 6065              		.file 11 "Generated_Source\\PSoC5/CommunicationInterrupt.h"
 6066              		.file 12 "Generated_Source\\PSoC5/CommunicationTimer.h"
 6067              		.file 13 "Generated_Source\\PSoC5/I2C_1.h"
 6068              		.file 14 "c:\\program files (x86)\\cypress\\psoc creator\\4.1\\psoc creator\\import\\gnu\\arm\\5.4
 6069              		.file 15 "Generated_Source\\PSoC5/ADC_DelSig_1.h"
 6070              		.file 16 "Generated_Source\\PSoC5/ADC_SAR_1.h"
 6071              		.file 17 "Generated_Source\\PSoC5/ADC_SAR_2.h"
 6072              		.file 18 "Generated_Source\\PSoC5/VDAC_Vds.h"
 6073              		.file 19 "Generated_Source\\PSoC5/VDAC_Vgs.h"
 6074              		.file 20 "Generated_Source\\PSoC5/VDAC_Ref.h"
 6075              		.file 21 "c:\\program files (x86)\\cypress\\psoc creator\\4.1\\psoc creator\\import\\gnu\\arm\\5.4
 6076              		.file 22 "Generated_Source\\PSoC5/TIA_1.h"
 6077              		.file 23 "Generated_Source\\PSoC5/CyLib.h"
 6078              		.file 24 "<built-in>"
 6079              		.section	.debug_info,"",%progbits
 6080              	.Ldebug_info0:
 6081 0000 4E340000 		.4byte	0x344e
 6082 0004 0400     		.2byte	0x4
 6083 0006 00000000 		.4byte	.Ldebug_abbrev0
 6084 000a 04       		.byte	0x4
 6085 000b 01       		.uleb128 0x1
 6086 000c 86090000 		.4byte	.LASF227
 6087 0010 0C       		.byte	0xc
 6088 0011 B1070000 		.4byte	.LASF228
 6089 0015 3A050000 		.4byte	.LASF229
 6090 0019 38010000 		.4byte	.Ldebug_ranges0+0x138
 6091 001d 00000000 		.4byte	0
 6092 0021 00000000 		.4byte	.Ldebug_line0
 6093 0025 02       		.uleb128 0x2
 6094 0026 04       		.byte	0x4
 6095 0027 04       		.byte	0x4
 6096 0028 3E080000 		.4byte	.LASF0
 6097 002c 02       		.uleb128 0x2
 6098 002d 08       		.byte	0x8
 6099 002e 04       		.byte	0x4
 6100 002f 42030000 		.4byte	.LASF1
 6101 0033 03       		.uleb128 0x3
 6102 0034 04       		.byte	0x4
 6103 0035 05       		.byte	0x5
 6104 0036 696E7400 		.ascii	"int\000"
 6105 003a 02       		.uleb128 0x2
ARM GAS  C:\Users\FRANKL~1\AppData\Local\Temp\ccnobXgu.s 			page 142


 6106 003b 04       		.byte	0x4
 6107 003c 07       		.byte	0x7
 6108 003d 32040000 		.4byte	.LASF2
 6109 0041 02       		.uleb128 0x2
 6110 0042 08       		.byte	0x8
 6111 0043 05       		.byte	0x5
 6112 0044 0E020000 		.4byte	.LASF3
 6113 0048 02       		.uleb128 0x2
 6114 0049 08       		.byte	0x8
 6115 004a 04       		.byte	0x4
 6116 004b 8A0A0000 		.4byte	.LASF4
 6117 004f 02       		.uleb128 0x2
 6118 0050 01       		.byte	0x1
 6119 0051 06       		.byte	0x6
 6120 0052 1C020000 		.4byte	.LASF5
 6121 0056 02       		.uleb128 0x2
 6122 0057 01       		.byte	0x1
 6123 0058 08       		.byte	0x8
 6124 0059 BA080000 		.4byte	.LASF6
 6125 005d 02       		.uleb128 0x2
 6126 005e 02       		.byte	0x2
 6127 005f 05       		.byte	0x5
 6128 0060 20060000 		.4byte	.LASF7
 6129 0064 02       		.uleb128 0x2
 6130 0065 02       		.byte	0x2
 6131 0066 07       		.byte	0x7
 6132 0067 1E050000 		.4byte	.LASF8
 6133 006b 04       		.uleb128 0x4
 6134 006c 2A060000 		.4byte	.LASF14
 6135 0070 03       		.byte	0x3
 6136 0071 3F       		.byte	0x3f
 6137 0072 76000000 		.4byte	0x76
 6138 0076 02       		.uleb128 0x2
 6139 0077 04       		.byte	0x4
 6140 0078 05       		.byte	0x5
 6141 0079 D8020000 		.4byte	.LASF9
 6142 007d 02       		.uleb128 0x2
 6143 007e 04       		.byte	0x4
 6144 007f 07       		.byte	0x7
 6145 0080 C0040000 		.4byte	.LASF10
 6146 0084 02       		.uleb128 0x2
 6147 0085 08       		.byte	0x8
 6148 0086 07       		.byte	0x7
 6149 0087 02010000 		.4byte	.LASF11
 6150 008b 02       		.uleb128 0x2
 6151 008c 04       		.byte	0x4
 6152 008d 07       		.byte	0x7
 6153 008e E9060000 		.4byte	.LASF12
 6154 0092 05       		.uleb128 0x5
 6155 0093 04       		.byte	0x4
 6156 0094 98000000 		.4byte	0x98
 6157 0098 02       		.uleb128 0x2
 6158 0099 01       		.byte	0x1
 6159 009a 08       		.byte	0x8
 6160 009b C00A0000 		.4byte	.LASF13
 6161 009f 05       		.uleb128 0x5
 6162 00a0 04       		.byte	0x4
ARM GAS  C:\Users\FRANKL~1\AppData\Local\Temp\ccnobXgu.s 			page 143


 6163 00a1 A5000000 		.4byte	0xa5
 6164 00a5 06       		.uleb128 0x6
 6165 00a6 98000000 		.4byte	0x98
 6166 00aa 04       		.uleb128 0x4
 6167 00ab B2080000 		.4byte	.LASF15
 6168 00af 04       		.byte	0x4
 6169 00b0 2C       		.byte	0x2c
 6170 00b1 6B000000 		.4byte	0x6b
 6171 00b5 07       		.uleb128 0x7
 6172 00b6 1C030000 		.4byte	.LASF16
 6173 00ba 05       		.byte	0x5
 6174 00bb 9201     		.2byte	0x192
 6175 00bd 56000000 		.4byte	0x56
 6176 00c1 07       		.uleb128 0x7
 6177 00c2 D5030000 		.4byte	.LASF17
 6178 00c6 05       		.byte	0x5
 6179 00c7 9301     		.2byte	0x193
 6180 00c9 64000000 		.4byte	0x64
 6181 00cd 07       		.uleb128 0x7
 6182 00ce 76030000 		.4byte	.LASF18
 6183 00d2 05       		.byte	0x5
 6184 00d3 9401     		.2byte	0x194
 6185 00d5 7D000000 		.4byte	0x7d
 6186 00d9 07       		.uleb128 0x7
 6187 00da B3050000 		.4byte	.LASF19
 6188 00de 05       		.byte	0x5
 6189 00df 9501     		.2byte	0x195
 6190 00e1 4F000000 		.4byte	0x4f
 6191 00e5 07       		.uleb128 0x7
 6192 00e6 C00C0000 		.4byte	.LASF20
 6193 00ea 05       		.byte	0x5
 6194 00eb 9601     		.2byte	0x196
 6195 00ed 5D000000 		.4byte	0x5d
 6196 00f1 07       		.uleb128 0x7
 6197 00f2 80020000 		.4byte	.LASF21
 6198 00f6 05       		.byte	0x5
 6199 00f7 9701     		.2byte	0x197
 6200 00f9 76000000 		.4byte	0x76
 6201 00fd 07       		.uleb128 0x7
 6202 00fe 9E080000 		.4byte	.LASF22
 6203 0102 05       		.byte	0x5
 6204 0103 3C02     		.2byte	0x23c
 6205 0105 09010000 		.4byte	0x109
 6206 0109 08       		.uleb128 0x8
 6207 010a B5000000 		.4byte	0xb5
 6208 010e 09       		.uleb128 0x9
 6209 010f 7F       		.byte	0x7f
 6210 0110 02       		.byte	0x2
 6211 0111 08       		.byte	0x8
 6212 0112 2F010000 		.4byte	0x12f
 6213 0116 0A       		.uleb128 0xa
 6214 0117 55070000 		.4byte	.LASF23
 6215 011b 02       		.byte	0x2
 6216 011c 09       		.byte	0x9
 6217 011d B5000000 		.4byte	0xb5
 6218 0121 00       		.byte	0
 6219 0122 0A       		.uleb128 0xa
ARM GAS  C:\Users\FRANKL~1\AppData\Local\Temp\ccnobXgu.s 			page 144


 6220 0123 19050000 		.4byte	.LASF24
 6221 0127 02       		.byte	0x2
 6222 0128 0A       		.byte	0xa
 6223 0129 2F010000 		.4byte	0x12f
 6224 012d 01       		.byte	0x1
 6225 012e 00       		.byte	0
 6226 012f 0B       		.uleb128 0xb
 6227 0130 B5000000 		.4byte	0xb5
 6228 0134 3F010000 		.4byte	0x13f
 6229 0138 0C       		.uleb128 0xc
 6230 0139 8B000000 		.4byte	0x8b
 6231 013d 7D       		.byte	0x7d
 6232 013e 00       		.byte	0
 6233 013f 09       		.uleb128 0x9
 6234 0140 7F       		.byte	0x7f
 6235 0141 02       		.byte	0x2
 6236 0142 0C       		.byte	0xc
 6237 0143 60010000 		.4byte	0x160
 6238 0147 0A       		.uleb128 0xa
 6239 0148 55070000 		.4byte	.LASF23
 6240 014c 02       		.byte	0x2
 6241 014d 0D       		.byte	0xd
 6242 014e B5000000 		.4byte	0xb5
 6243 0152 00       		.byte	0
 6244 0153 0A       		.uleb128 0xa
 6245 0154 19050000 		.4byte	.LASF24
 6246 0158 02       		.byte	0x2
 6247 0159 0E       		.byte	0xe
 6248 015a 2F010000 		.4byte	0x12f
 6249 015e 01       		.byte	0x1
 6250 015f 00       		.byte	0
 6251 0160 0D       		.uleb128 0xd
 6252 0161 110B0000 		.4byte	.LASF230
 6253 0165 FF       		.byte	0xff
 6254 0166 02       		.byte	0x2
 6255 0167 07       		.byte	0x7
 6256 0168 91010000 		.4byte	0x191
 6257 016c 0A       		.uleb128 0xa
 6258 016d 8A060000 		.4byte	.LASF25
 6259 0171 02       		.byte	0x2
 6260 0172 0B       		.byte	0xb
 6261 0173 0E010000 		.4byte	0x10e
 6262 0177 00       		.byte	0
 6263 0178 0A       		.uleb128 0xa
 6264 0179 D90C0000 		.4byte	.LASF26
 6265 017d 02       		.byte	0x2
 6266 017e 0F       		.byte	0xf
 6267 017f 3F010000 		.4byte	0x13f
 6268 0183 7F       		.byte	0x7f
 6269 0184 0A       		.uleb128 0xa
 6270 0185 DC030000 		.4byte	.LASF27
 6271 0189 02       		.byte	0x2
 6272 018a 10       		.byte	0x10
 6273 018b B5000000 		.4byte	0xb5
 6274 018f FE       		.byte	0xfe
 6275 0190 00       		.byte	0
 6276 0191 0E       		.uleb128 0xe
ARM GAS  C:\Users\FRANKL~1\AppData\Local\Temp\ccnobXgu.s 			page 145


 6277 0192 4E020000 		.4byte	.LASF46
 6278 0196 01       		.byte	0x1
 6279 0197 10       		.byte	0x10
 6280 0198 00000000 		.4byte	.LFB64
 6281 019c 18000000 		.4byte	.LFE64-.LFB64
 6282 01a0 01       		.uleb128 0x1
 6283 01a1 9C       		.byte	0x9c
 6284 01a2 DA010000 		.4byte	0x1da
 6285 01a6 0F       		.uleb128 0xf
 6286 01a7 C8080000 		.4byte	.LASF30
 6287 01ab 01       		.byte	0x1
 6288 01ac 11       		.byte	0x11
 6289 01ad 7D000000 		.4byte	0x7d
 6290 01b1 00000000 		.4byte	.LLST0
 6291 01b5 10       		.uleb128 0x10
 6292 01b6 06000000 		.4byte	.LVL1
 6293 01ba 19320000 		.4byte	0x3219
 6294 01be 10       		.uleb128 0x10
 6295 01bf 0C000000 		.4byte	.LVL2
 6296 01c3 25320000 		.4byte	0x3225
 6297 01c7 10       		.uleb128 0x10
 6298 01c8 12000000 		.4byte	.LVL3
 6299 01cc 31320000 		.4byte	0x3231
 6300 01d0 10       		.uleb128 0x10
 6301 01d1 16000000 		.4byte	.LVL4
 6302 01d5 25320000 		.4byte	0x3225
 6303 01d9 00       		.byte	0
 6304 01da 11       		.uleb128 0x11
 6305 01db 0E0D0000 		.4byte	.LASF28
 6306 01df 01       		.byte	0x1
 6307 01e0 22       		.byte	0x22
 6308 01e1 B5000000 		.4byte	0xb5
 6309 01e5 00000000 		.4byte	.LFB65
 6310 01e9 1E000000 		.4byte	.LFE65-.LFB65
 6311 01ed 01       		.uleb128 0x1
 6312 01ee 9C       		.byte	0x9c
 6313 01ef 0F020000 		.4byte	0x20f
 6314 01f3 10       		.uleb128 0x10
 6315 01f4 06000000 		.4byte	.LVL5
 6316 01f8 91010000 		.4byte	0x191
 6317 01fc 10       		.uleb128 0x10
 6318 01fd 0A000000 		.4byte	.LVL6
 6319 0201 25320000 		.4byte	0x3225
 6320 0205 10       		.uleb128 0x10
 6321 0206 10000000 		.4byte	.LVL7
 6322 020a 3C320000 		.4byte	0x323c
 6323 020e 00       		.byte	0
 6324 020f 12       		.uleb128 0x12
 6325 0210 CD0A0000 		.4byte	.LASF29
 6326 0214 02       		.byte	0x2
 6327 0215 1703     		.2byte	0x317
 6328 0217 00000000 		.4byte	.LFB108
 6329 021b B0010000 		.4byte	.LFE108-.LFB108
 6330 021f 01       		.uleb128 0x1
 6331 0220 9C       		.byte	0x9c
 6332 0221 70030000 		.4byte	0x370
 6333 0225 13       		.uleb128 0x13
ARM GAS  C:\Users\FRANKL~1\AppData\Local\Temp\ccnobXgu.s 			page 146


 6334 0226 0C000000 		.4byte	.LBB2
 6335 022a 70000000 		.4byte	.LBE2-.LBB2
 6336 022e 97020000 		.4byte	0x297
 6337 0232 14       		.uleb128 0x14
 6338 0233 B60B0000 		.4byte	.LASF31
 6339 0237 02       		.byte	0x2
 6340 0238 1B03     		.2byte	0x31b
 6341 023a 70030000 		.4byte	0x370
 6342 023e 03       		.uleb128 0x3
 6343 023f 91       		.byte	0x91
 6344 0240 B07F     		.sleb128 -80
 6345 0242 15       		.uleb128 0x15
 6346 0243 B50C0000 		.4byte	.LASF32
 6347 0247 02       		.byte	0x2
 6348 0248 1C03     		.2byte	0x31c
 6349 024a B5000000 		.4byte	0xb5
 6350 024e 20000000 		.4byte	.LLST1
 6351 0252 13       		.uleb128 0x13
 6352 0253 14000000 		.4byte	.LBB3
 6353 0257 68000000 		.4byte	.LBE3-.LBB3
 6354 025b 86020000 		.4byte	0x286
 6355 025f 16       		.uleb128 0x16
 6356 0260 6900     		.ascii	"i\000"
 6357 0262 02       		.byte	0x2
 6358 0263 1E03     		.2byte	0x31e
 6359 0265 B5000000 		.4byte	0xb5
 6360 0269 33000000 		.4byte	.LLST2
 6361 026d 17       		.uleb128 0x17
 6362 026e 18000000 		.4byte	.LBB4
 6363 0272 5A000000 		.4byte	.LBE4-.LBB4
 6364 0276 16       		.uleb128 0x16
 6365 0277 6300     		.ascii	"c\000"
 6366 0279 02       		.byte	0x2
 6367 027a 1F03     		.2byte	0x31f
 6368 027c 98000000 		.4byte	0x98
 6369 0280 5D000000 		.4byte	.LLST3
 6370 0284 00       		.byte	0
 6371 0285 00       		.byte	0
 6372 0286 18       		.uleb128 0x18
 6373 0287 12000000 		.4byte	.LVL9
 6374 028b 47320000 		.4byte	0x3247
 6375 028f 19       		.uleb128 0x19
 6376 0290 01       		.uleb128 0x1
 6377 0291 50       		.byte	0x50
 6378 0292 02       		.uleb128 0x2
 6379 0293 7D       		.byte	0x7d
 6380 0294 00       		.sleb128 0
 6381 0295 00       		.byte	0
 6382 0296 00       		.byte	0
 6383 0297 13       		.uleb128 0x13
 6384 0298 FC000000 		.4byte	.LBB5
 6385 029c 80000000 		.4byte	.LBE5-.LBB5
 6386 02a0 42030000 		.4byte	0x342
 6387 02a4 15       		.uleb128 0x15
 6388 02a5 1F000000 		.4byte	.LASF33
 6389 02a9 02       		.byte	0x2
 6390 02aa 4003     		.2byte	0x340
ARM GAS  C:\Users\FRANKL~1\AppData\Local\Temp\ccnobXgu.s 			page 147


 6391 02ac 92000000 		.4byte	0x92
 6392 02b0 B1000000 		.4byte	.LLST4
 6393 02b4 1A       		.uleb128 0x1a
 6394 02b5 14010000 		.4byte	.LVL23
 6395 02b9 52320000 		.4byte	0x3252
 6396 02bd D1020000 		.4byte	0x2d1
 6397 02c1 19       		.uleb128 0x19
 6398 02c2 01       		.uleb128 0x1
 6399 02c3 50       		.byte	0x50
 6400 02c4 02       		.uleb128 0x2
 6401 02c5 74       		.byte	0x74
 6402 02c6 00       		.sleb128 0
 6403 02c7 19       		.uleb128 0x19
 6404 02c8 01       		.uleb128 0x1
 6405 02c9 51       		.byte	0x51
 6406 02ca 05       		.uleb128 0x5
 6407 02cb 03       		.byte	0x3
 6408 02cc 00000000 		.4byte	.LC0
 6409 02d0 00       		.byte	0
 6410 02d1 1A       		.uleb128 0x1a
 6411 02d2 2C010000 		.4byte	.LVL24
 6412 02d6 52320000 		.4byte	0x3252
 6413 02da EE020000 		.4byte	0x2ee
 6414 02de 19       		.uleb128 0x19
 6415 02df 01       		.uleb128 0x1
 6416 02e0 50       		.byte	0x50
 6417 02e1 02       		.uleb128 0x2
 6418 02e2 74       		.byte	0x74
 6419 02e3 00       		.sleb128 0
 6420 02e4 19       		.uleb128 0x19
 6421 02e5 01       		.uleb128 0x1
 6422 02e6 51       		.byte	0x51
 6423 02e7 05       		.uleb128 0x5
 6424 02e8 03       		.byte	0x3
 6425 02e9 08000000 		.4byte	.LC1
 6426 02ed 00       		.byte	0
 6427 02ee 1A       		.uleb128 0x1a
 6428 02ef 44010000 		.4byte	.LVL25
 6429 02f3 52320000 		.4byte	0x3252
 6430 02f7 0B030000 		.4byte	0x30b
 6431 02fb 19       		.uleb128 0x19
 6432 02fc 01       		.uleb128 0x1
 6433 02fd 50       		.byte	0x50
 6434 02fe 02       		.uleb128 0x2
 6435 02ff 74       		.byte	0x74
 6436 0300 00       		.sleb128 0
 6437 0301 19       		.uleb128 0x19
 6438 0302 01       		.uleb128 0x1
 6439 0303 51       		.byte	0x51
 6440 0304 05       		.uleb128 0x5
 6441 0305 03       		.byte	0x3
 6442 0306 10000000 		.4byte	.LC2
 6443 030a 00       		.byte	0
 6444 030b 1A       		.uleb128 0x1a
 6445 030c 5C010000 		.4byte	.LVL26
 6446 0310 52320000 		.4byte	0x3252
 6447 0314 28030000 		.4byte	0x328
ARM GAS  C:\Users\FRANKL~1\AppData\Local\Temp\ccnobXgu.s 			page 148


 6448 0318 19       		.uleb128 0x19
 6449 0319 01       		.uleb128 0x1
 6450 031a 50       		.byte	0x50
 6451 031b 02       		.uleb128 0x2
 6452 031c 74       		.byte	0x74
 6453 031d 00       		.sleb128 0
 6454 031e 19       		.uleb128 0x19
 6455 031f 01       		.uleb128 0x1
 6456 0320 51       		.byte	0x51
 6457 0321 05       		.uleb128 0x5
 6458 0322 03       		.byte	0x3
 6459 0323 18000000 		.4byte	.LC3
 6460 0327 00       		.byte	0
 6461 0328 18       		.uleb128 0x18
 6462 0329 72010000 		.4byte	.LVL27
 6463 032d 52320000 		.4byte	0x3252
 6464 0331 19       		.uleb128 0x19
 6465 0332 01       		.uleb128 0x1
 6466 0333 50       		.byte	0x50
 6467 0334 02       		.uleb128 0x2
 6468 0335 74       		.byte	0x74
 6469 0336 00       		.sleb128 0
 6470 0337 19       		.uleb128 0x19
 6471 0338 01       		.uleb128 0x1
 6472 0339 51       		.byte	0x51
 6473 033a 05       		.uleb128 0x5
 6474 033b 03       		.byte	0x3
 6475 033c 20000000 		.4byte	.LC4
 6476 0340 00       		.byte	0
 6477 0341 00       		.byte	0
 6478 0342 10       		.uleb128 0x10
 6479 0343 08000000 		.4byte	.LVL8
 6480 0347 DA010000 		.4byte	0x1da
 6481 034b 10       		.uleb128 0x10
 6482 034c 80000000 		.4byte	.LVL19
 6483 0350 5D320000 		.4byte	0x325d
 6484 0354 10       		.uleb128 0x10
 6485 0355 8E000000 		.4byte	.LVL20
 6486 0359 68320000 		.4byte	0x3268
 6487 035d 10       		.uleb128 0x10
 6488 035e 80010000 		.4byte	.LVL29
 6489 0362 73320000 		.4byte	0x3273
 6490 0366 10       		.uleb128 0x10
 6491 0367 84010000 		.4byte	.LVL30
 6492 036b 7E320000 		.4byte	0x327e
 6493 036f 00       		.byte	0
 6494 0370 0B       		.uleb128 0xb
 6495 0371 98000000 		.4byte	0x98
 6496 0375 80030000 		.4byte	0x380
 6497 0379 0C       		.uleb128 0xc
 6498 037a 8B000000 		.4byte	0x8b
 6499 037e 3F       		.byte	0x3f
 6500 037f 00       		.byte	0
 6501 0380 1B       		.uleb128 0x1b
 6502 0381 FA040000 		.4byte	.LASF36
 6503 0385 01       		.byte	0x1
 6504 0386 29       		.byte	0x29
ARM GAS  C:\Users\FRANKL~1\AppData\Local\Temp\ccnobXgu.s 			page 149


 6505 0387 B5000000 		.4byte	0xb5
 6506 038b 00000000 		.4byte	.LFB66
 6507 038f 50000000 		.4byte	.LFE66-.LFB66
 6508 0393 01       		.uleb128 0x1
 6509 0394 9C       		.byte	0x9c
 6510 0395 23040000 		.4byte	0x423
 6511 0399 1C       		.uleb128 0x1c
 6512 039a 300B0000 		.4byte	.LASF34
 6513 039e 01       		.byte	0x1
 6514 039f 29       		.byte	0x29
 6515 03a0 92000000 		.4byte	0x92
 6516 03a4 D4000000 		.4byte	.LLST5
 6517 03a8 1C       		.uleb128 0x1c
 6518 03a9 0A000000 		.4byte	.LASF35
 6519 03ad 01       		.byte	0x1
 6520 03ae 29       		.byte	0x29
 6521 03af C1000000 		.4byte	0xc1
 6522 03b3 16010000 		.4byte	.LLST6
 6523 03b7 1D       		.uleb128 0x1d
 6524 03b8 00000000 		.4byte	.Ldebug_ranges0+0
 6525 03bc E2030000 		.4byte	0x3e2
 6526 03c0 0F       		.uleb128 0xf
 6527 03c1 C8080000 		.4byte	.LASF30
 6528 03c5 01       		.byte	0x1
 6529 03c6 2C       		.byte	0x2c
 6530 03c7 CD000000 		.4byte	0xcd
 6531 03cb 50010000 		.4byte	.LLST7
 6532 03cf 10       		.uleb128 0x10
 6533 03d0 0C000000 		.4byte	.LVL34
 6534 03d4 91010000 		.4byte	0x191
 6535 03d8 10       		.uleb128 0x10
 6536 03d9 10000000 		.4byte	.LVL35
 6537 03dd 89320000 		.4byte	0x3289
 6538 03e1 00       		.byte	0
 6539 03e2 10       		.uleb128 0x10
 6540 03e3 26000000 		.4byte	.LVL39
 6541 03e7 89320000 		.4byte	0x3289
 6542 03eb 1A       		.uleb128 0x1a
 6543 03ec 32000000 		.4byte	.LVL40
 6544 03f0 94320000 		.4byte	0x3294
 6545 03f4 05040000 		.4byte	0x405
 6546 03f8 19       		.uleb128 0x19
 6547 03f9 01       		.uleb128 0x1
 6548 03fa 50       		.byte	0x50
 6549 03fb 02       		.uleb128 0x2
 6550 03fc 76       		.byte	0x76
 6551 03fd 00       		.sleb128 0
 6552 03fe 19       		.uleb128 0x19
 6553 03ff 01       		.uleb128 0x1
 6554 0400 51       		.byte	0x51
 6555 0401 02       		.uleb128 0x2
 6556 0402 75       		.byte	0x75
 6557 0403 00       		.sleb128 0
 6558 0404 00       		.byte	0
 6559 0405 10       		.uleb128 0x10
 6560 0406 3A000000 		.4byte	.LVL41
 6561 040a 89320000 		.4byte	0x3289
ARM GAS  C:\Users\FRANKL~1\AppData\Local\Temp\ccnobXgu.s 			page 150


 6562 040e 18       		.uleb128 0x18
 6563 040f 46000000 		.4byte	.LVL42
 6564 0413 94320000 		.4byte	0x3294
 6565 0417 19       		.uleb128 0x19
 6566 0418 01       		.uleb128 0x1
 6567 0419 50       		.byte	0x50
 6568 041a 01       		.uleb128 0x1
 6569 041b 30       		.byte	0x30
 6570 041c 19       		.uleb128 0x19
 6571 041d 01       		.uleb128 0x1
 6572 041e 51       		.byte	0x51
 6573 041f 01       		.uleb128 0x1
 6574 0420 30       		.byte	0x30
 6575 0421 00       		.byte	0
 6576 0422 00       		.byte	0
 6577 0423 1B       		.uleb128 0x1b
 6578 0424 B50D0000 		.4byte	.LASF37
 6579 0428 01       		.byte	0x1
 6580 0429 47       		.byte	0x47
 6581 042a B5000000 		.4byte	0xb5
 6582 042e 00000000 		.4byte	.LFB67
 6583 0432 24000000 		.4byte	.LFE67-.LFB67
 6584 0436 01       		.uleb128 0x1
 6585 0437 9C       		.byte	0x9c
 6586 0438 7D040000 		.4byte	0x47d
 6587 043c 1C       		.uleb128 0x1c
 6588 043d 300B0000 		.4byte	.LASF34
 6589 0441 01       		.byte	0x1
 6590 0442 47       		.byte	0x47
 6591 0443 92000000 		.4byte	0x92
 6592 0447 6E010000 		.4byte	.LLST8
 6593 044b 1C       		.uleb128 0x1c
 6594 044c 0A000000 		.4byte	.LASF35
 6595 0450 01       		.byte	0x1
 6596 0451 47       		.byte	0x47
 6597 0452 7D040000 		.4byte	0x47d
 6598 0456 8C010000 		.4byte	.LLST9
 6599 045a 10       		.uleb128 0x10
 6600 045b 0C000000 		.4byte	.LVL45
 6601 045f 91010000 		.4byte	0x191
 6602 0463 10       		.uleb128 0x10
 6603 0464 10000000 		.4byte	.LVL46
 6604 0468 3C320000 		.4byte	0x323c
 6605 046c 18       		.uleb128 0x18
 6606 046d 1A000000 		.4byte	.LVL47
 6607 0471 47320000 		.4byte	0x3247
 6608 0475 19       		.uleb128 0x19
 6609 0476 01       		.uleb128 0x1
 6610 0477 50       		.byte	0x50
 6611 0478 02       		.uleb128 0x2
 6612 0479 74       		.byte	0x74
 6613 047a 00       		.sleb128 0
 6614 047b 00       		.byte	0
 6615 047c 00       		.byte	0
 6616 047d 05       		.uleb128 0x5
 6617 047e 04       		.byte	0x4
 6618 047f C1000000 		.4byte	0xc1
ARM GAS  C:\Users\FRANKL~1\AppData\Local\Temp\ccnobXgu.s 			page 151


 6619 0483 11       		.uleb128 0x11
 6620 0484 CE080000 		.4byte	.LASF38
 6621 0488 01       		.byte	0x1
 6622 0489 53       		.byte	0x53
 6623 048a 98000000 		.4byte	0x98
 6624 048e 00000000 		.4byte	.LFB68
 6625 0492 16000000 		.4byte	.LFE68-.LFB68
 6626 0496 01       		.uleb128 0x1
 6627 0497 9C       		.byte	0x9c
 6628 0498 B8040000 		.4byte	0x4b8
 6629 049c 10       		.uleb128 0x10
 6630 049d 08000000 		.4byte	.LVL48
 6631 04a1 91010000 		.4byte	0x191
 6632 04a5 10       		.uleb128 0x10
 6633 04a6 0C000000 		.4byte	.LVL49
 6634 04aa 3C320000 		.4byte	0x323c
 6635 04ae 10       		.uleb128 0x10
 6636 04af 14000000 		.4byte	.LVL50
 6637 04b3 9F320000 		.4byte	0x329f
 6638 04b7 00       		.byte	0
 6639 04b8 1B       		.uleb128 0x1b
 6640 04b9 34060000 		.4byte	.LASF39
 6641 04bd 01       		.byte	0x1
 6642 04be 59       		.byte	0x59
 6643 04bf B5000000 		.4byte	0xb5
 6644 04c3 00000000 		.4byte	.LFB69
 6645 04c7 58000000 		.4byte	.LFE69-.LFB69
 6646 04cb 01       		.uleb128 0x1
 6647 04cc 9C       		.byte	0x9c
 6648 04cd 64050000 		.4byte	0x564
 6649 04d1 1C       		.uleb128 0x1c
 6650 04d2 300B0000 		.4byte	.LASF34
 6651 04d6 01       		.byte	0x1
 6652 04d7 59       		.byte	0x59
 6653 04d8 92000000 		.4byte	0x92
 6654 04dc AA010000 		.4byte	.LLST10
 6655 04e0 1C       		.uleb128 0x1c
 6656 04e1 AB0C0000 		.4byte	.LASF40
 6657 04e5 01       		.byte	0x1
 6658 04e6 59       		.byte	0x59
 6659 04e7 C1000000 		.4byte	0xc1
 6660 04eb C8010000 		.4byte	.LLST11
 6661 04ef 1C       		.uleb128 0x1c
 6662 04f0 04090000 		.4byte	.LASF41
 6663 04f4 01       		.byte	0x1
 6664 04f5 59       		.byte	0x59
 6665 04f6 9F000000 		.4byte	0x9f
 6666 04fa E9010000 		.4byte	.LLST12
 6667 04fe 13       		.uleb128 0x13
 6668 04ff 0A000000 		.4byte	.LBB8
 6669 0503 14000000 		.4byte	.LBE8-.LBB8
 6670 0507 19050000 		.4byte	0x519
 6671 050b 1E       		.uleb128 0x1e
 6672 050c 6900     		.ascii	"i\000"
 6673 050e 01       		.byte	0x1
 6674 050f 5A       		.byte	0x5a
 6675 0510 C1000000 		.4byte	0xc1
ARM GAS  C:\Users\FRANKL~1\AppData\Local\Temp\ccnobXgu.s 			page 152


 6676 0514 07020000 		.4byte	.LLST13
 6677 0518 00       		.byte	0
 6678 0519 17       		.uleb128 0x17
 6679 051a 1E000000 		.4byte	.LBB9
 6680 051e 34000000 		.4byte	.LBE9-.LBB9
 6681 0522 1E       		.uleb128 0x1e
 6682 0523 6900     		.ascii	"i\000"
 6683 0525 01       		.byte	0x1
 6684 0526 5E       		.byte	0x5e
 6685 0527 C1000000 		.4byte	0xc1
 6686 052b 31020000 		.4byte	.LLST14
 6687 052f 10       		.uleb128 0x10
 6688 0530 22000000 		.4byte	.LVL57
 6689 0534 83040000 		.4byte	0x483
 6690 0538 1A       		.uleb128 0x1a
 6691 0539 32000000 		.4byte	.LVL58
 6692 053d 52320000 		.4byte	0x3252
 6693 0541 52050000 		.4byte	0x552
 6694 0545 19       		.uleb128 0x19
 6695 0546 01       		.uleb128 0x1
 6696 0547 50       		.byte	0x50
 6697 0548 02       		.uleb128 0x2
 6698 0549 75       		.byte	0x75
 6699 054a 00       		.sleb128 0
 6700 054b 19       		.uleb128 0x19
 6701 054c 01       		.uleb128 0x1
 6702 054d 51       		.byte	0x51
 6703 054e 02       		.uleb128 0x2
 6704 054f 77       		.byte	0x77
 6705 0550 00       		.sleb128 0
 6706 0551 00       		.byte	0
 6707 0552 18       		.uleb128 0x18
 6708 0553 3A000000 		.4byte	.LVL59
 6709 0557 AA320000 		.4byte	0x32aa
 6710 055b 19       		.uleb128 0x19
 6711 055c 01       		.uleb128 0x1
 6712 055d 50       		.byte	0x50
 6713 055e 02       		.uleb128 0x2
 6714 055f 77       		.byte	0x77
 6715 0560 00       		.sleb128 0
 6716 0561 00       		.byte	0
 6717 0562 00       		.byte	0
 6718 0563 00       		.byte	0
 6719 0564 1F       		.uleb128 0x1f
 6720 0565 E7030000 		.4byte	.LASF42
 6721 0569 02       		.byte	0x2
 6722 056a 31       		.byte	0x31
 6723 056b 00000000 		.4byte	.LFB70
 6724 056f 32000000 		.4byte	.LFE70-.LFB70
 6725 0573 01       		.uleb128 0x1
 6726 0574 9C       		.byte	0x9c
 6727 0575 B9050000 		.4byte	0x5b9
 6728 0579 20       		.uleb128 0x20
 6729 057a 8F0C0000 		.4byte	.LASF43
 6730 057e 02       		.byte	0x2
 6731 057f 31       		.byte	0x31
 6732 0580 B9050000 		.4byte	0x5b9
ARM GAS  C:\Users\FRANKL~1\AppData\Local\Temp\ccnobXgu.s 			page 153


 6733 0584 01       		.uleb128 0x1
 6734 0585 50       		.byte	0x50
 6735 0586 13       		.uleb128 0x13
 6736 0587 0A000000 		.4byte	.LBB10
 6737 058b 16000000 		.4byte	.LBE10-.LBB10
 6738 058f A1050000 		.4byte	0x5a1
 6739 0593 1E       		.uleb128 0x1e
 6740 0594 6900     		.ascii	"i\000"
 6741 0596 02       		.byte	0x2
 6742 0597 35       		.byte	0x35
 6743 0598 C1000000 		.4byte	0xc1
 6744 059c 4F020000 		.4byte	.LLST15
 6745 05a0 00       		.byte	0
 6746 05a1 17       		.uleb128 0x17
 6747 05a2 20000000 		.4byte	.LBB11
 6748 05a6 10000000 		.4byte	.LBE11-.LBB11
 6749 05aa 1E       		.uleb128 0x1e
 6750 05ab 6900     		.ascii	"i\000"
 6751 05ad 02       		.byte	0x2
 6752 05ae 38       		.byte	0x38
 6753 05af C1000000 		.4byte	0xc1
 6754 05b3 79020000 		.4byte	.LLST16
 6755 05b7 00       		.byte	0
 6756 05b8 00       		.byte	0
 6757 05b9 05       		.uleb128 0x5
 6758 05ba 04       		.byte	0x4
 6759 05bb 60010000 		.4byte	0x160
 6760 05bf 21       		.uleb128 0x21
 6761 05c0 9C010000 		.4byte	.LASF44
 6762 05c4 02       		.byte	0x2
 6763 05c5 3D       		.byte	0x3d
 6764 05c6 00000000 		.4byte	.LFB71
 6765 05ca 90010000 		.4byte	.LFE71-.LFB71
 6766 05ce 01       		.uleb128 0x1
 6767 05cf 9C       		.byte	0x9c
 6768 05d0 0D080000 		.4byte	0x80d
 6769 05d4 1C       		.uleb128 0x1c
 6770 05d5 F00C0000 		.4byte	.LASF45
 6771 05d9 02       		.byte	0x2
 6772 05da 3D       		.byte	0x3d
 6773 05db B5000000 		.4byte	0xb5
 6774 05df 97020000 		.4byte	.LLST17
 6775 05e3 0F       		.uleb128 0xf
 6776 05e4 8F0C0000 		.4byte	.LASF43
 6777 05e8 02       		.byte	0x2
 6778 05e9 42       		.byte	0x42
 6779 05ea B9050000 		.4byte	0x5b9
 6780 05ee B8020000 		.4byte	.LLST18
 6781 05f2 13       		.uleb128 0x13
 6782 05f3 44000000 		.4byte	.LBB12
 6783 05f7 76000000 		.4byte	.LBE12-.LBB12
 6784 05fb 64060000 		.4byte	0x664
 6785 05ff 1E       		.uleb128 0x1e
 6786 0600 6900     		.ascii	"i\000"
 6787 0602 02       		.byte	0x2
 6788 0603 46       		.byte	0x46
 6789 0604 CD000000 		.4byte	0xcd
ARM GAS  C:\Users\FRANKL~1\AppData\Local\Temp\ccnobXgu.s 			page 154


 6790 0608 EC020000 		.4byte	.LLST19
 6791 060c 10       		.uleb128 0x10
 6792 060d 4C000000 		.4byte	.LVL82
 6793 0611 B5320000 		.4byte	0x32b5
 6794 0615 1A       		.uleb128 0x1a
 6795 0616 8A000000 		.4byte	.LVL84
 6796 061a AA320000 		.4byte	0x32aa
 6797 061e 29060000 		.4byte	0x629
 6798 0622 19       		.uleb128 0x19
 6799 0623 01       		.uleb128 0x1
 6800 0624 50       		.byte	0x50
 6801 0625 02       		.uleb128 0x2
 6802 0626 75       		.byte	0x75
 6803 0627 00       		.sleb128 0
 6804 0628 00       		.byte	0
 6805 0629 1A       		.uleb128 0x1a
 6806 062a 92000000 		.4byte	.LVL85
 6807 062e 80030000 		.4byte	0x380
 6808 0632 3D060000 		.4byte	0x63d
 6809 0636 19       		.uleb128 0x19
 6810 0637 01       		.uleb128 0x1
 6811 0638 50       		.byte	0x50
 6812 0639 02       		.uleb128 0x2
 6813 063a 75       		.byte	0x75
 6814 063b 00       		.sleb128 0
 6815 063c 00       		.byte	0
 6816 063d 1A       		.uleb128 0x1a
 6817 063e 98000000 		.4byte	.LVL86
 6818 0642 C0320000 		.4byte	0x32c0
 6819 0646 51060000 		.4byte	0x651
 6820 064a 19       		.uleb128 0x19
 6821 064b 01       		.uleb128 0x1
 6822 064c 50       		.byte	0x50
 6823 064d 02       		.uleb128 0x2
 6824 064e 75       		.byte	0x75
 6825 064f 00       		.sleb128 0
 6826 0650 00       		.byte	0
 6827 0651 10       		.uleb128 0x10
 6828 0652 9C000000 		.4byte	.LVL87
 6829 0656 CB320000 		.4byte	0x32cb
 6830 065a 10       		.uleb128 0x10
 6831 065b A0000000 		.4byte	.LVL88
 6832 065f D6320000 		.4byte	0x32d6
 6833 0663 00       		.byte	0
 6834 0664 1A       		.uleb128 0x1a
 6835 0665 16000000 		.4byte	.LVL74
 6836 0669 E1320000 		.4byte	0x32e1
 6837 066d 87060000 		.4byte	0x687
 6838 0671 19       		.uleb128 0x19
 6839 0672 01       		.uleb128 0x1
 6840 0673 50       		.byte	0x50
 6841 0674 02       		.uleb128 0x2
 6842 0675 75       		.byte	0x75
 6843 0676 00       		.sleb128 0
 6844 0677 19       		.uleb128 0x19
 6845 0678 01       		.uleb128 0x1
 6846 0679 51       		.byte	0x51
ARM GAS  C:\Users\FRANKL~1\AppData\Local\Temp\ccnobXgu.s 			page 155


 6847 067a 05       		.uleb128 0x5
 6848 067b 03       		.byte	0x3
 6849 067c 2C000000 		.4byte	.LC5
 6850 0680 19       		.uleb128 0x19
 6851 0681 01       		.uleb128 0x1
 6852 0682 52       		.byte	0x52
 6853 0683 02       		.uleb128 0x2
 6854 0684 78       		.byte	0x78
 6855 0685 00       		.sleb128 0
 6856 0686 00       		.byte	0
 6857 0687 1A       		.uleb128 0x1a
 6858 0688 1C000000 		.4byte	.LVL75
 6859 068c AA320000 		.4byte	0x32aa
 6860 0690 9B060000 		.4byte	0x69b
 6861 0694 19       		.uleb128 0x19
 6862 0695 01       		.uleb128 0x1
 6863 0696 50       		.byte	0x50
 6864 0697 02       		.uleb128 0x2
 6865 0698 75       		.byte	0x75
 6866 0699 00       		.sleb128 0
 6867 069a 00       		.byte	0
 6868 069b 1A       		.uleb128 0x1a
 6869 069c 24000000 		.4byte	.LVL76
 6870 06a0 80030000 		.4byte	0x380
 6871 06a4 AF060000 		.4byte	0x6af
 6872 06a8 19       		.uleb128 0x19
 6873 06a9 01       		.uleb128 0x1
 6874 06aa 50       		.byte	0x50
 6875 06ab 02       		.uleb128 0x2
 6876 06ac 75       		.byte	0x75
 6877 06ad 00       		.sleb128 0
 6878 06ae 00       		.byte	0
 6879 06af 1A       		.uleb128 0x1a
 6880 06b0 2A000000 		.4byte	.LVL77
 6881 06b4 C0320000 		.4byte	0x32c0
 6882 06b8 C3060000 		.4byte	0x6c3
 6883 06bc 19       		.uleb128 0x19
 6884 06bd 01       		.uleb128 0x1
 6885 06be 50       		.byte	0x50
 6886 06bf 02       		.uleb128 0x2
 6887 06c0 75       		.byte	0x75
 6888 06c1 00       		.sleb128 0
 6889 06c2 00       		.byte	0
 6890 06c3 10       		.uleb128 0x10
 6891 06c4 2E000000 		.4byte	.LVL78
 6892 06c8 EC320000 		.4byte	0x32ec
 6893 06cc 1A       		.uleb128 0x1a
 6894 06cd 44000000 		.4byte	.LVL80
 6895 06d1 F7320000 		.4byte	0x32f7
 6896 06d5 EB060000 		.4byte	0x6eb
 6897 06d9 19       		.uleb128 0x19
 6898 06da 01       		.uleb128 0x1
 6899 06db 51       		.byte	0x51
 6900 06dc 02       		.uleb128 0x2
 6901 06dd 74       		.byte	0x74
 6902 06de 00       		.sleb128 0
 6903 06df 19       		.uleb128 0x19
ARM GAS  C:\Users\FRANKL~1\AppData\Local\Temp\ccnobXgu.s 			page 156


 6904 06e0 01       		.uleb128 0x1
 6905 06e1 52       		.byte	0x52
 6906 06e2 02       		.uleb128 0x2
 6907 06e3 08       		.byte	0x8
 6908 06e4 7F       		.byte	0x7f
 6909 06e5 19       		.uleb128 0x19
 6910 06e6 01       		.uleb128 0x1
 6911 06e7 53       		.byte	0x53
 6912 06e8 01       		.uleb128 0x1
 6913 06e9 30       		.byte	0x30
 6914 06ea 00       		.byte	0
 6915 06eb 10       		.uleb128 0x10
 6916 06ec BE000000 		.4byte	.LVL92
 6917 06f0 B5320000 		.4byte	0x32b5
 6918 06f4 1A       		.uleb128 0x1a
 6919 06f5 E0000000 		.4byte	.LVL94
 6920 06f9 AA320000 		.4byte	0x32aa
 6921 06fd 08070000 		.4byte	0x708
 6922 0701 19       		.uleb128 0x19
 6923 0702 01       		.uleb128 0x1
 6924 0703 50       		.byte	0x50
 6925 0704 02       		.uleb128 0x2
 6926 0705 75       		.byte	0x75
 6927 0706 00       		.sleb128 0
 6928 0707 00       		.byte	0
 6929 0708 1A       		.uleb128 0x1a
 6930 0709 E8000000 		.4byte	.LVL95
 6931 070d 80030000 		.4byte	0x380
 6932 0711 1C070000 		.4byte	0x71c
 6933 0715 19       		.uleb128 0x19
 6934 0716 01       		.uleb128 0x1
 6935 0717 50       		.byte	0x50
 6936 0718 02       		.uleb128 0x2
 6937 0719 75       		.byte	0x75
 6938 071a 00       		.sleb128 0
 6939 071b 00       		.byte	0
 6940 071c 1A       		.uleb128 0x1a
 6941 071d EE000000 		.4byte	.LVL96
 6942 0721 C0320000 		.4byte	0x32c0
 6943 0725 30070000 		.4byte	0x730
 6944 0729 19       		.uleb128 0x19
 6945 072a 01       		.uleb128 0x1
 6946 072b 50       		.byte	0x50
 6947 072c 02       		.uleb128 0x2
 6948 072d 75       		.byte	0x75
 6949 072e 00       		.sleb128 0
 6950 072f 00       		.byte	0
 6951 0730 10       		.uleb128 0x10
 6952 0731 F2000000 		.4byte	.LVL97
 6953 0735 B5320000 		.4byte	0x32b5
 6954 0739 1A       		.uleb128 0x1a
 6955 073a 0A010000 		.4byte	.LVL98
 6956 073e AA320000 		.4byte	0x32aa
 6957 0742 4D070000 		.4byte	0x74d
 6958 0746 19       		.uleb128 0x19
 6959 0747 01       		.uleb128 0x1
 6960 0748 50       		.byte	0x50
ARM GAS  C:\Users\FRANKL~1\AppData\Local\Temp\ccnobXgu.s 			page 157


 6961 0749 02       		.uleb128 0x2
 6962 074a 75       		.byte	0x75
 6963 074b 00       		.sleb128 0
 6964 074c 00       		.byte	0
 6965 074d 1A       		.uleb128 0x1a
 6966 074e 12010000 		.4byte	.LVL99
 6967 0752 80030000 		.4byte	0x380
 6968 0756 61070000 		.4byte	0x761
 6969 075a 19       		.uleb128 0x19
 6970 075b 01       		.uleb128 0x1
 6971 075c 50       		.byte	0x50
 6972 075d 02       		.uleb128 0x2
 6973 075e 75       		.byte	0x75
 6974 075f 00       		.sleb128 0
 6975 0760 00       		.byte	0
 6976 0761 1A       		.uleb128 0x1a
 6977 0762 18010000 		.4byte	.LVL100
 6978 0766 C0320000 		.4byte	0x32c0
 6979 076a 75070000 		.4byte	0x775
 6980 076e 19       		.uleb128 0x19
 6981 076f 01       		.uleb128 0x1
 6982 0770 50       		.byte	0x50
 6983 0771 02       		.uleb128 0x2
 6984 0772 75       		.byte	0x75
 6985 0773 00       		.sleb128 0
 6986 0774 00       		.byte	0
 6987 0775 1A       		.uleb128 0x1a
 6988 0776 2A010000 		.4byte	.LVL101
 6989 077a AA320000 		.4byte	0x32aa
 6990 077e 89070000 		.4byte	0x789
 6991 0782 19       		.uleb128 0x19
 6992 0783 01       		.uleb128 0x1
 6993 0784 50       		.byte	0x50
 6994 0785 02       		.uleb128 0x2
 6995 0786 74       		.byte	0x74
 6996 0787 00       		.sleb128 0
 6997 0788 00       		.byte	0
 6998 0789 1A       		.uleb128 0x1a
 6999 078a 32010000 		.4byte	.LVL102
 7000 078e 80030000 		.4byte	0x380
 7001 0792 9D070000 		.4byte	0x79d
 7002 0796 19       		.uleb128 0x19
 7003 0797 01       		.uleb128 0x1
 7004 0798 50       		.byte	0x50
 7005 0799 02       		.uleb128 0x2
 7006 079a 74       		.byte	0x74
 7007 079b 00       		.sleb128 0
 7008 079c 00       		.byte	0
 7009 079d 1A       		.uleb128 0x1a
 7010 079e 38010000 		.4byte	.LVL103
 7011 07a2 C0320000 		.4byte	0x32c0
 7012 07a6 B1070000 		.4byte	0x7b1
 7013 07aa 19       		.uleb128 0x19
 7014 07ab 01       		.uleb128 0x1
 7015 07ac 50       		.byte	0x50
 7016 07ad 02       		.uleb128 0x2
 7017 07ae 74       		.byte	0x74
ARM GAS  C:\Users\FRANKL~1\AppData\Local\Temp\ccnobXgu.s 			page 158


 7018 07af 00       		.sleb128 0
 7019 07b0 00       		.byte	0
 7020 07b1 1A       		.uleb128 0x1a
 7021 07b2 44010000 		.4byte	.LVL104
 7022 07b6 E1320000 		.4byte	0x32e1
 7023 07ba D4070000 		.4byte	0x7d4
 7024 07be 19       		.uleb128 0x19
 7025 07bf 01       		.uleb128 0x1
 7026 07c0 50       		.byte	0x50
 7027 07c1 02       		.uleb128 0x2
 7028 07c2 74       		.byte	0x74
 7029 07c3 00       		.sleb128 0
 7030 07c4 19       		.uleb128 0x19
 7031 07c5 01       		.uleb128 0x1
 7032 07c6 51       		.byte	0x51
 7033 07c7 05       		.uleb128 0x5
 7034 07c8 03       		.byte	0x3
 7035 07c9 90000000 		.4byte	.LC10
 7036 07cd 19       		.uleb128 0x19
 7037 07ce 01       		.uleb128 0x1
 7038 07cf 52       		.byte	0x52
 7039 07d0 02       		.uleb128 0x2
 7040 07d1 78       		.byte	0x78
 7041 07d2 00       		.sleb128 0
 7042 07d3 00       		.byte	0
 7043 07d4 1A       		.uleb128 0x1a
 7044 07d5 4A010000 		.4byte	.LVL105
 7045 07d9 AA320000 		.4byte	0x32aa
 7046 07dd E8070000 		.4byte	0x7e8
 7047 07e1 19       		.uleb128 0x19
 7048 07e2 01       		.uleb128 0x1
 7049 07e3 50       		.byte	0x50
 7050 07e4 02       		.uleb128 0x2
 7051 07e5 74       		.byte	0x74
 7052 07e6 00       		.sleb128 0
 7053 07e7 00       		.byte	0
 7054 07e8 1A       		.uleb128 0x1a
 7055 07e9 52010000 		.4byte	.LVL106
 7056 07ed 80030000 		.4byte	0x380
 7057 07f1 FC070000 		.4byte	0x7fc
 7058 07f5 19       		.uleb128 0x19
 7059 07f6 01       		.uleb128 0x1
 7060 07f7 50       		.byte	0x50
 7061 07f8 02       		.uleb128 0x2
 7062 07f9 74       		.byte	0x74
 7063 07fa 00       		.sleb128 0
 7064 07fb 00       		.byte	0
 7065 07fc 18       		.uleb128 0x18
 7066 07fd 58010000 		.4byte	.LVL107
 7067 0801 C0320000 		.4byte	0x32c0
 7068 0805 19       		.uleb128 0x19
 7069 0806 01       		.uleb128 0x1
 7070 0807 50       		.byte	0x50
 7071 0808 02       		.uleb128 0x2
 7072 0809 74       		.byte	0x74
 7073 080a 00       		.sleb128 0
 7074 080b 00       		.byte	0
ARM GAS  C:\Users\FRANKL~1\AppData\Local\Temp\ccnobXgu.s 			page 159


 7075 080c 00       		.byte	0
 7076 080d 0E       		.uleb128 0xe
 7077 080e DE0B0000 		.4byte	.LASF47
 7078 0812 02       		.byte	0x2
 7079 0813 71       		.byte	0x71
 7080 0814 00000000 		.4byte	.LFB72
 7081 0818 3C000000 		.4byte	.LFE72-.LFB72
 7082 081c 01       		.uleb128 0x1
 7083 081d 9C       		.byte	0x9c
 7084 081e 55080000 		.4byte	0x855
 7085 0822 17       		.uleb128 0x17
 7086 0823 02000000 		.4byte	.LBB13
 7087 0827 18000000 		.4byte	.LBE13-.LBB13
 7088 082b 1E       		.uleb128 0x1e
 7089 082c 6900     		.ascii	"i\000"
 7090 082e 02       		.byte	0x2
 7091 082f 72       		.byte	0x72
 7092 0830 B5000000 		.4byte	0xb5
 7093 0834 0B030000 		.4byte	.LLST20
 7094 0838 18       		.uleb128 0x18
 7095 0839 12000000 		.4byte	.LVL111
 7096 083d 64050000 		.4byte	0x564
 7097 0841 19       		.uleb128 0x19
 7098 0842 01       		.uleb128 0x1
 7099 0843 50       		.byte	0x50
 7100 0844 0D       		.uleb128 0xd
 7101 0845 74       		.byte	0x74
 7102 0846 00       		.sleb128 0
 7103 0847 38       		.byte	0x38
 7104 0848 24       		.byte	0x24
 7105 0849 74       		.byte	0x74
 7106 084a 00       		.sleb128 0
 7107 084b 1C       		.byte	0x1c
 7108 084c 03       		.byte	0x3
 7109 084d 00000000 		.4byte	selectors
 7110 0851 22       		.byte	0x22
 7111 0852 00       		.byte	0
 7112 0853 00       		.byte	0
 7113 0854 00       		.byte	0
 7114 0855 1F       		.uleb128 0x1f
 7115 0856 19010000 		.4byte	.LASF48
 7116 085a 02       		.byte	0x2
 7117 085b 7A       		.byte	0x7a
 7118 085c 00000000 		.4byte	.LFB73
 7119 0860 2C000000 		.4byte	.LFE73-.LFB73
 7120 0864 01       		.uleb128 0x1
 7121 0865 9C       		.byte	0x9c
 7122 0866 92080000 		.4byte	0x892
 7123 086a 1C       		.uleb128 0x1c
 7124 086b A30C0000 		.4byte	.LASF49
 7125 086f 02       		.byte	0x2
 7126 0870 7A       		.byte	0x7a
 7127 0871 B5000000 		.4byte	0xb5
 7128 0875 35030000 		.4byte	.LLST21
 7129 0879 1C       		.uleb128 0x1c
 7130 087a 820C0000 		.4byte	.LASF50
 7131 087e 02       		.byte	0x2
ARM GAS  C:\Users\FRANKL~1\AppData\Local\Temp\ccnobXgu.s 			page 160


 7132 087f 7A       		.byte	0x7a
 7133 0880 B5000000 		.4byte	0xb5
 7134 0884 61030000 		.4byte	.LLST22
 7135 0888 10       		.uleb128 0x10
 7136 0889 24000000 		.4byte	.LVL120
 7137 088d BF050000 		.4byte	0x5bf
 7138 0891 00       		.byte	0
 7139 0892 1F       		.uleb128 0x1f
 7140 0893 48010000 		.4byte	.LASF51
 7141 0897 02       		.byte	0x2
 7142 0898 85       		.byte	0x85
 7143 0899 00000000 		.4byte	.LFB74
 7144 089d 32000000 		.4byte	.LFE74-.LFB74
 7145 08a1 01       		.uleb128 0x1
 7146 08a2 9C       		.byte	0x9c
 7147 08a3 DE080000 		.4byte	0x8de
 7148 08a7 1C       		.uleb128 0x1c
 7149 08a8 2F020000 		.4byte	.LASF52
 7150 08ac 02       		.byte	0x2
 7151 08ad 85       		.byte	0x85
 7152 08ae B5000000 		.4byte	0xb5
 7153 08b2 91030000 		.4byte	.LLST23
 7154 08b6 1C       		.uleb128 0x1c
 7155 08b7 820C0000 		.4byte	.LASF50
 7156 08bb 02       		.byte	0x2
 7157 08bc 85       		.byte	0x85
 7158 08bd B5000000 		.4byte	0xb5
 7159 08c1 C8030000 		.4byte	.LLST24
 7160 08c5 0F       		.uleb128 0xf
 7161 08c6 6C0B0000 		.4byte	.LASF53
 7162 08ca 02       		.byte	0x2
 7163 08cb 8C       		.byte	0x8c
 7164 08cc B5000000 		.4byte	0xb5
 7165 08d0 05040000 		.4byte	.LLST25
 7166 08d4 10       		.uleb128 0x10
 7167 08d5 2E000000 		.4byte	.LVL129
 7168 08d9 55080000 		.4byte	0x855
 7169 08dd 00       		.byte	0
 7170 08de 1F       		.uleb128 0x1f
 7171 08df DF080000 		.4byte	.LASF54
 7172 08e3 02       		.byte	0x2
 7173 08e4 97       		.byte	0x97
 7174 08e5 00000000 		.4byte	.LFB75
 7175 08e9 40000000 		.4byte	.LFE75-.LFB75
 7176 08ed 01       		.uleb128 0x1
 7177 08ee 9C       		.byte	0x9c
 7178 08ef 2A090000 		.4byte	0x92a
 7179 08f3 1C       		.uleb128 0x1c
 7180 08f4 2F020000 		.4byte	.LASF52
 7181 08f8 02       		.byte	0x2
 7182 08f9 97       		.byte	0x97
 7183 08fa B5000000 		.4byte	0xb5
 7184 08fe 3D040000 		.4byte	.LLST26
 7185 0902 1C       		.uleb128 0x1c
 7186 0903 820C0000 		.4byte	.LASF50
 7187 0907 02       		.byte	0x2
 7188 0908 97       		.byte	0x97
ARM GAS  C:\Users\FRANKL~1\AppData\Local\Temp\ccnobXgu.s 			page 161


 7189 0909 B5000000 		.4byte	0xb5
 7190 090d 69040000 		.4byte	.LLST27
 7191 0911 0F       		.uleb128 0xf
 7192 0912 6C0B0000 		.4byte	.LASF53
 7193 0916 02       		.byte	0x2
 7194 0917 9E       		.byte	0x9e
 7195 0918 B5000000 		.4byte	0xb5
 7196 091c 99040000 		.4byte	.LLST28
 7197 0920 10       		.uleb128 0x10
 7198 0921 38000000 		.4byte	.LVL141
 7199 0925 BF050000 		.4byte	0x5bf
 7200 0929 00       		.byte	0
 7201 092a 1F       		.uleb128 0x1f
 7202 092b AB030000 		.4byte	.LASF55
 7203 092f 02       		.byte	0x2
 7204 0930 AB       		.byte	0xab
 7205 0931 00000000 		.4byte	.LFB76
 7206 0935 40000000 		.4byte	.LFE76-.LFB76
 7207 0939 01       		.uleb128 0x1
 7208 093a 9C       		.byte	0x9c
 7209 093b 91090000 		.4byte	0x991
 7210 093f 1C       		.uleb128 0x1c
 7211 0940 2F020000 		.4byte	.LASF52
 7212 0944 02       		.byte	0x2
 7213 0945 AB       		.byte	0xab
 7214 0946 B5000000 		.4byte	0xb5
 7215 094a D1040000 		.4byte	.LLST29
 7216 094e 17       		.uleb128 0x17
 7217 094f 06000000 		.4byte	.LBB14
 7218 0953 34000000 		.4byte	.LBE14-.LBB14
 7219 0957 0F       		.uleb128 0xf
 7220 0958 820C0000 		.4byte	.LASF50
 7221 095c 02       		.byte	0x2
 7222 095d AE       		.byte	0xae
 7223 095e B5000000 		.4byte	0xb5
 7224 0962 FD040000 		.4byte	.LLST30
 7225 0966 17       		.uleb128 0x17
 7226 0967 0A000000 		.4byte	.LBB15
 7227 096b 28000000 		.4byte	.LBE15-.LBB15
 7228 096f 0F       		.uleb128 0xf
 7229 0970 6C0B0000 		.4byte	.LASF53
 7230 0974 02       		.byte	0x2
 7231 0975 B0       		.byte	0xb0
 7232 0976 B5000000 		.4byte	0xb5
 7233 097a 27050000 		.4byte	.LLST31
 7234 097e 18       		.uleb128 0x18
 7235 097f 32000000 		.4byte	.LVL150
 7236 0983 BF050000 		.4byte	0x5bf
 7237 0987 19       		.uleb128 0x19
 7238 0988 01       		.uleb128 0x1
 7239 0989 50       		.byte	0x50
 7240 098a 02       		.uleb128 0x2
 7241 098b 74       		.byte	0x74
 7242 098c 00       		.sleb128 0
 7243 098d 00       		.byte	0
 7244 098e 00       		.byte	0
 7245 098f 00       		.byte	0
ARM GAS  C:\Users\FRANKL~1\AppData\Local\Temp\ccnobXgu.s 			page 162


 7246 0990 00       		.byte	0
 7247 0991 0E       		.uleb128 0xe
 7248 0992 450D0000 		.4byte	.LASF56
 7249 0996 02       		.byte	0x2
 7250 0997 BE       		.byte	0xbe
 7251 0998 00000000 		.4byte	.LFB77
 7252 099c 34000000 		.4byte	.LFE77-.LFB77
 7253 09a0 01       		.uleb128 0x1
 7254 09a1 9C       		.byte	0x9c
 7255 09a2 E9090000 		.4byte	0x9e9
 7256 09a6 17       		.uleb128 0x17
 7257 09a7 02000000 		.4byte	.LBB16
 7258 09ab 2C000000 		.4byte	.LBE16-.LBB16
 7259 09af 0F       		.uleb128 0xf
 7260 09b0 820C0000 		.4byte	.LASF50
 7261 09b4 02       		.byte	0x2
 7262 09b5 BF       		.byte	0xbf
 7263 09b6 B5000000 		.4byte	0xb5
 7264 09ba 5F050000 		.4byte	.LLST32
 7265 09be 1D       		.uleb128 0x1d
 7266 09bf 18000000 		.4byte	.Ldebug_ranges0+0x18
 7267 09c3 D7090000 		.4byte	0x9d7
 7268 09c7 0F       		.uleb128 0xf
 7269 09c8 2F020000 		.4byte	.LASF52
 7270 09cc 02       		.byte	0x2
 7271 09cd C0       		.byte	0xc0
 7272 09ce B5000000 		.4byte	0xb5
 7273 09d2 89050000 		.4byte	.LLST33
 7274 09d6 00       		.byte	0
 7275 09d7 18       		.uleb128 0x18
 7276 09d8 26000000 		.4byte	.LVL160
 7277 09dc BF050000 		.4byte	0x5bf
 7278 09e0 19       		.uleb128 0x19
 7279 09e1 01       		.uleb128 0x1
 7280 09e2 50       		.byte	0x50
 7281 09e3 02       		.uleb128 0x2
 7282 09e4 74       		.byte	0x74
 7283 09e5 00       		.sleb128 0
 7284 09e6 00       		.byte	0
 7285 09e7 00       		.byte	0
 7286 09e8 00       		.byte	0
 7287 09e9 1F       		.uleb128 0x1f
 7288 09ea 220C0000 		.4byte	.LASF57
 7289 09ee 02       		.byte	0x2
 7290 09ef C8       		.byte	0xc8
 7291 09f0 00000000 		.4byte	.LFB78
 7292 09f4 2C000000 		.4byte	.LFE78-.LFB78
 7293 09f8 01       		.uleb128 0x1
 7294 09f9 9C       		.byte	0x9c
 7295 09fa 340A0000 		.4byte	0xa34
 7296 09fe 1C       		.uleb128 0x1c
 7297 09ff 820C0000 		.4byte	.LASF50
 7298 0a03 02       		.byte	0x2
 7299 0a04 C8       		.byte	0xc8
 7300 0a05 B5000000 		.4byte	0xb5
 7301 0a09 B2050000 		.4byte	.LLST34
 7302 0a0d 13       		.uleb128 0x13
ARM GAS  C:\Users\FRANKL~1\AppData\Local\Temp\ccnobXgu.s 			page 163


 7303 0a0e 06000000 		.4byte	.LBB19
 7304 0a12 1A000000 		.4byte	.LBE19-.LBB19
 7305 0a16 2A0A0000 		.4byte	0xa2a
 7306 0a1a 0F       		.uleb128 0xf
 7307 0a1b 2F020000 		.4byte	.LASF52
 7308 0a1f 02       		.byte	0x2
 7309 0a20 CB       		.byte	0xcb
 7310 0a21 B5000000 		.4byte	0xb5
 7311 0a25 DE050000 		.4byte	.LLST35
 7312 0a29 00       		.byte	0
 7313 0a2a 10       		.uleb128 0x10
 7314 0a2b 24000000 		.4byte	.LVL170
 7315 0a2f BF050000 		.4byte	0x5bf
 7316 0a33 00       		.byte	0
 7317 0a34 1F       		.uleb128 0x1f
 7318 0a35 ED000000 		.4byte	.LASF58
 7319 0a39 02       		.byte	0x2
 7320 0a3a D2       		.byte	0xd2
 7321 0a3b 00000000 		.4byte	.LFB79
 7322 0a3f 38000000 		.4byte	.LFE79-.LFB79
 7323 0a43 01       		.uleb128 0x1
 7324 0a44 9C       		.byte	0x9c
 7325 0a45 B90A0000 		.4byte	0xab9
 7326 0a49 1C       		.uleb128 0x1c
 7327 0a4a 820C0000 		.4byte	.LASF50
 7328 0a4e 02       		.byte	0x2
 7329 0a4f D2       		.byte	0xd2
 7330 0a50 B5000000 		.4byte	0xb5
 7331 0a54 08060000 		.4byte	.LLST36
 7332 0a58 1A       		.uleb128 0x1a
 7333 0a59 18000000 		.4byte	.LVL173
 7334 0a5d 55080000 		.4byte	0x855
 7335 0a61 710A0000 		.4byte	0xa71
 7336 0a65 19       		.uleb128 0x19
 7337 0a66 01       		.uleb128 0x1
 7338 0a67 50       		.byte	0x50
 7339 0a68 02       		.uleb128 0x2
 7340 0a69 08       		.byte	0x8
 7341 0a6a 21       		.byte	0x21
 7342 0a6b 19       		.uleb128 0x19
 7343 0a6c 01       		.uleb128 0x1
 7344 0a6d 51       		.byte	0x51
 7345 0a6e 01       		.uleb128 0x1
 7346 0a6f 31       		.byte	0x31
 7347 0a70 00       		.byte	0
 7348 0a71 1A       		.uleb128 0x1a
 7349 0a72 22000000 		.4byte	.LVL174
 7350 0a76 55080000 		.4byte	0x855
 7351 0a7a 8A0A0000 		.4byte	0xa8a
 7352 0a7e 19       		.uleb128 0x19
 7353 0a7f 01       		.uleb128 0x1
 7354 0a80 50       		.byte	0x50
 7355 0a81 02       		.uleb128 0x2
 7356 0a82 08       		.byte	0x8
 7357 0a83 21       		.byte	0x21
 7358 0a84 19       		.uleb128 0x19
 7359 0a85 01       		.uleb128 0x1
ARM GAS  C:\Users\FRANKL~1\AppData\Local\Temp\ccnobXgu.s 			page 164


 7360 0a86 51       		.byte	0x51
 7361 0a87 01       		.uleb128 0x1
 7362 0a88 32       		.byte	0x32
 7363 0a89 00       		.byte	0
 7364 0a8a 1A       		.uleb128 0x1a
 7365 0a8b 2C000000 		.4byte	.LVL175
 7366 0a8f 55080000 		.4byte	0x855
 7367 0a93 A30A0000 		.4byte	0xaa3
 7368 0a97 19       		.uleb128 0x19
 7369 0a98 01       		.uleb128 0x1
 7370 0a99 50       		.byte	0x50
 7371 0a9a 02       		.uleb128 0x2
 7372 0a9b 08       		.byte	0x8
 7373 0a9c 21       		.byte	0x21
 7374 0a9d 19       		.uleb128 0x19
 7375 0a9e 01       		.uleb128 0x1
 7376 0a9f 51       		.byte	0x51
 7377 0aa0 01       		.uleb128 0x1
 7378 0aa1 33       		.byte	0x33
 7379 0aa2 00       		.byte	0
 7380 0aa3 18       		.uleb128 0x18
 7381 0aa4 36000000 		.4byte	.LVL176
 7382 0aa8 55080000 		.4byte	0x855
 7383 0aac 19       		.uleb128 0x19
 7384 0aad 01       		.uleb128 0x1
 7385 0aae 50       		.byte	0x50
 7386 0aaf 02       		.uleb128 0x2
 7387 0ab0 08       		.byte	0x8
 7388 0ab1 21       		.byte	0x21
 7389 0ab2 19       		.uleb128 0x19
 7390 0ab3 01       		.uleb128 0x1
 7391 0ab4 51       		.byte	0x51
 7392 0ab5 01       		.uleb128 0x1
 7393 0ab6 34       		.byte	0x34
 7394 0ab7 00       		.byte	0
 7395 0ab8 00       		.byte	0
 7396 0ab9 0E       		.uleb128 0xe
 7397 0aba F0050000 		.4byte	.LASF59
 7398 0abe 02       		.byte	0x2
 7399 0abf DC       		.byte	0xdc
 7400 0ac0 00000000 		.4byte	.LFB80
 7401 0ac4 16000000 		.4byte	.LFE80-.LFB80
 7402 0ac8 01       		.uleb128 0x1
 7403 0ac9 9C       		.byte	0x9c
 7404 0aca F60A0000 		.4byte	0xaf6
 7405 0ace 17       		.uleb128 0x17
 7406 0acf 02000000 		.4byte	.LBB20
 7407 0ad3 12000000 		.4byte	.LBE20-.LBB20
 7408 0ad7 1E       		.uleb128 0x1e
 7409 0ad8 6900     		.ascii	"i\000"
 7410 0ada 02       		.byte	0x2
 7411 0adb DD       		.byte	0xdd
 7412 0adc B5000000 		.4byte	0xb5
 7413 0ae0 29060000 		.4byte	.LLST37
 7414 0ae4 18       		.uleb128 0x18
 7415 0ae5 0C000000 		.4byte	.LVL179
 7416 0ae9 340A0000 		.4byte	0xa34
ARM GAS  C:\Users\FRANKL~1\AppData\Local\Temp\ccnobXgu.s 			page 165


 7417 0aed 19       		.uleb128 0x19
 7418 0aee 01       		.uleb128 0x1
 7419 0aef 50       		.byte	0x50
 7420 0af0 02       		.uleb128 0x2
 7421 0af1 74       		.byte	0x74
 7422 0af2 00       		.sleb128 0
 7423 0af3 00       		.byte	0
 7424 0af4 00       		.byte	0
 7425 0af5 00       		.byte	0
 7426 0af6 21       		.uleb128 0x21
 7427 0af7 11060000 		.4byte	.LASF60
 7428 0afb 02       		.byte	0x2
 7429 0afc E3       		.byte	0xe3
 7430 0afd 00000000 		.4byte	.LFB81
 7431 0b01 B6000000 		.4byte	.LFE81-.LFB81
 7432 0b05 01       		.uleb128 0x1
 7433 0b06 9C       		.byte	0x9c
 7434 0b07 B10B0000 		.4byte	0xbb1
 7435 0b0b 1C       		.uleb128 0x1c
 7436 0b0c 84030000 		.4byte	.LASF61
 7437 0b10 02       		.byte	0x2
 7438 0b11 E3       		.byte	0xe3
 7439 0b12 B10B0000 		.4byte	0xbb1
 7440 0b16 53060000 		.4byte	.LLST38
 7441 0b1a 1C       		.uleb128 0x1c
 7442 0b1b 30030000 		.4byte	.LASF62
 7443 0b1f 02       		.byte	0x2
 7444 0b20 E3       		.byte	0xe3
 7445 0b21 B10B0000 		.4byte	0xbb1
 7446 0b25 7E060000 		.4byte	.LLST39
 7447 0b29 1C       		.uleb128 0x1c
 7448 0b2a 050B0000 		.4byte	.LASF63
 7449 0b2e 02       		.byte	0x2
 7450 0b2f E3       		.byte	0xe3
 7451 0b30 CD000000 		.4byte	0xcd
 7452 0b34 9D060000 		.4byte	.LLST40
 7453 0b38 0F       		.uleb128 0xf
 7454 0b39 980C0000 		.4byte	.LASF64
 7455 0b3d 02       		.byte	0x2
 7456 0b3e E4       		.byte	0xe4
 7457 0b3f F1000000 		.4byte	0xf1
 7458 0b43 BB060000 		.4byte	.LLST41
 7459 0b47 0F       		.uleb128 0xf
 7460 0b48 01040000 		.4byte	.LASF65
 7461 0b4c 02       		.byte	0x2
 7462 0b4d E5       		.byte	0xe5
 7463 0b4e F1000000 		.4byte	0xf1
 7464 0b52 F0060000 		.4byte	.LLST42
 7465 0b56 22       		.uleb128 0x22
 7466 0b57 30000000 		.4byte	.Ldebug_ranges0+0x30
 7467 0b5b 1E       		.uleb128 0x1e
 7468 0b5c 6900     		.ascii	"i\000"
 7469 0b5e 02       		.byte	0x2
 7470 0b5f E7       		.byte	0xe7
 7471 0b60 CD000000 		.4byte	0xcd
 7472 0b64 25070000 		.4byte	.LLST43
 7473 0b68 17       		.uleb128 0x17
ARM GAS  C:\Users\FRANKL~1\AppData\Local\Temp\ccnobXgu.s 			page 166


 7474 0b69 16000000 		.4byte	.LBB22
 7475 0b6d 8A000000 		.4byte	.LBE22-.LBB22
 7476 0b71 0F       		.uleb128 0xf
 7477 0b72 FB010000 		.4byte	.LASF66
 7478 0b76 02       		.byte	0x2
 7479 0b77 EB       		.byte	0xeb
 7480 0b78 F1000000 		.4byte	0xf1
 7481 0b7c 44070000 		.4byte	.LLST44
 7482 0b80 10       		.uleb128 0x10
 7483 0b81 1A000000 		.4byte	.LVL185
 7484 0b85 02330000 		.4byte	0x3302
 7485 0b89 1A       		.uleb128 0x1a
 7486 0b8a 20000000 		.4byte	.LVL186
 7487 0b8e 0D330000 		.4byte	0x330d
 7488 0b92 9C0B0000 		.4byte	0xb9c
 7489 0b96 19       		.uleb128 0x19
 7490 0b97 01       		.uleb128 0x1
 7491 0b98 50       		.byte	0x50
 7492 0b99 01       		.uleb128 0x1
 7493 0b9a 31       		.byte	0x31
 7494 0b9b 00       		.byte	0
 7495 0b9c 10       		.uleb128 0x10
 7496 0b9d 28000000 		.4byte	.LVL187
 7497 0ba1 18330000 		.4byte	0x3318
 7498 0ba5 10       		.uleb128 0x10
 7499 0ba6 2C000000 		.4byte	.LVL188
 7500 0baa 23330000 		.4byte	0x3323
 7501 0bae 00       		.byte	0
 7502 0baf 00       		.byte	0
 7503 0bb0 00       		.byte	0
 7504 0bb1 05       		.uleb128 0x5
 7505 0bb2 04       		.byte	0x4
 7506 0bb3 F1000000 		.4byte	0xf1
 7507 0bb7 21       		.uleb128 0x21
 7508 0bb8 CC060000 		.4byte	.LASF67
 7509 0bbc 02       		.byte	0x2
 7510 0bbd F6       		.byte	0xf6
 7511 0bbe 00000000 		.4byte	.LFB82
 7512 0bc2 B6000000 		.4byte	.LFE82-.LFB82
 7513 0bc6 01       		.uleb128 0x1
 7514 0bc7 9C       		.byte	0x9c
 7515 0bc8 720C0000 		.4byte	0xc72
 7516 0bcc 1C       		.uleb128 0x1c
 7517 0bcd 84030000 		.4byte	.LASF61
 7518 0bd1 02       		.byte	0x2
 7519 0bd2 F6       		.byte	0xf6
 7520 0bd3 B10B0000 		.4byte	0xbb1
 7521 0bd7 62070000 		.4byte	.LLST45
 7522 0bdb 1C       		.uleb128 0x1c
 7523 0bdc 30030000 		.4byte	.LASF62
 7524 0be0 02       		.byte	0x2
 7525 0be1 F6       		.byte	0xf6
 7526 0be2 B10B0000 		.4byte	0xbb1
 7527 0be6 8D070000 		.4byte	.LLST46
 7528 0bea 1C       		.uleb128 0x1c
 7529 0beb 050B0000 		.4byte	.LASF63
 7530 0bef 02       		.byte	0x2
ARM GAS  C:\Users\FRANKL~1\AppData\Local\Temp\ccnobXgu.s 			page 167


 7531 0bf0 F6       		.byte	0xf6
 7532 0bf1 CD000000 		.4byte	0xcd
 7533 0bf5 AC070000 		.4byte	.LLST47
 7534 0bf9 0F       		.uleb128 0xf
 7535 0bfa CB0D0000 		.4byte	.LASF68
 7536 0bfe 02       		.byte	0x2
 7537 0bff F7       		.byte	0xf7
 7538 0c00 F1000000 		.4byte	0xf1
 7539 0c04 CA070000 		.4byte	.LLST48
 7540 0c08 0F       		.uleb128 0xf
 7541 0c09 E50A0000 		.4byte	.LASF69
 7542 0c0d 02       		.byte	0x2
 7543 0c0e F8       		.byte	0xf8
 7544 0c0f F1000000 		.4byte	0xf1
 7545 0c13 FF070000 		.4byte	.LLST49
 7546 0c17 22       		.uleb128 0x22
 7547 0c18 48000000 		.4byte	.Ldebug_ranges0+0x48
 7548 0c1c 1E       		.uleb128 0x1e
 7549 0c1d 6900     		.ascii	"i\000"
 7550 0c1f 02       		.byte	0x2
 7551 0c20 FA       		.byte	0xfa
 7552 0c21 CD000000 		.4byte	0xcd
 7553 0c25 34080000 		.4byte	.LLST50
 7554 0c29 17       		.uleb128 0x17
 7555 0c2a 16000000 		.4byte	.LBB25
 7556 0c2e 8A000000 		.4byte	.LBE25-.LBB25
 7557 0c32 0F       		.uleb128 0xf
 7558 0c33 A4000000 		.4byte	.LASF70
 7559 0c37 02       		.byte	0x2
 7560 0c38 FE       		.byte	0xfe
 7561 0c39 F1000000 		.4byte	0xf1
 7562 0c3d 53080000 		.4byte	.LLST51
 7563 0c41 10       		.uleb128 0x10
 7564 0c42 1A000000 		.4byte	.LVL216
 7565 0c46 2E330000 		.4byte	0x332e
 7566 0c4a 1A       		.uleb128 0x1a
 7567 0c4b 20000000 		.4byte	.LVL217
 7568 0c4f 39330000 		.4byte	0x3339
 7569 0c53 5D0C0000 		.4byte	0xc5d
 7570 0c57 19       		.uleb128 0x19
 7571 0c58 01       		.uleb128 0x1
 7572 0c59 50       		.byte	0x50
 7573 0c5a 01       		.uleb128 0x1
 7574 0c5b 31       		.byte	0x31
 7575 0c5c 00       		.byte	0
 7576 0c5d 10       		.uleb128 0x10
 7577 0c5e 28000000 		.4byte	.LVL218
 7578 0c62 44330000 		.4byte	0x3344
 7579 0c66 10       		.uleb128 0x10
 7580 0c67 2C000000 		.4byte	.LVL219
 7581 0c6b 4F330000 		.4byte	0x334f
 7582 0c6f 00       		.byte	0
 7583 0c70 00       		.byte	0
 7584 0c71 00       		.byte	0
 7585 0c72 23       		.uleb128 0x23
 7586 0c73 230D0000 		.4byte	.LASF71
 7587 0c77 02       		.byte	0x2
ARM GAS  C:\Users\FRANKL~1\AppData\Local\Temp\ccnobXgu.s 			page 168


 7588 0c78 0901     		.2byte	0x109
 7589 0c7a 00000000 		.4byte	.LFB83
 7590 0c7e B6000000 		.4byte	.LFE83-.LFB83
 7591 0c82 01       		.uleb128 0x1
 7592 0c83 9C       		.byte	0x9c
 7593 0c84 350D0000 		.4byte	0xd35
 7594 0c88 24       		.uleb128 0x24
 7595 0c89 84030000 		.4byte	.LASF61
 7596 0c8d 02       		.byte	0x2
 7597 0c8e 0901     		.2byte	0x109
 7598 0c90 B10B0000 		.4byte	0xbb1
 7599 0c94 71080000 		.4byte	.LLST52
 7600 0c98 24       		.uleb128 0x24
 7601 0c99 30030000 		.4byte	.LASF62
 7602 0c9d 02       		.byte	0x2
 7603 0c9e 0901     		.2byte	0x109
 7604 0ca0 B10B0000 		.4byte	0xbb1
 7605 0ca4 9C080000 		.4byte	.LLST53
 7606 0ca8 24       		.uleb128 0x24
 7607 0ca9 050B0000 		.4byte	.LASF63
 7608 0cad 02       		.byte	0x2
 7609 0cae 0901     		.2byte	0x109
 7610 0cb0 CD000000 		.4byte	0xcd
 7611 0cb4 BB080000 		.4byte	.LLST54
 7612 0cb8 15       		.uleb128 0x15
 7613 0cb9 CB0D0000 		.4byte	.LASF68
 7614 0cbd 02       		.byte	0x2
 7615 0cbe 0A01     		.2byte	0x10a
 7616 0cc0 F1000000 		.4byte	0xf1
 7617 0cc4 D9080000 		.4byte	.LLST55
 7618 0cc8 15       		.uleb128 0x15
 7619 0cc9 E50A0000 		.4byte	.LASF69
 7620 0ccd 02       		.byte	0x2
 7621 0cce 0B01     		.2byte	0x10b
 7622 0cd0 F1000000 		.4byte	0xf1
 7623 0cd4 0E090000 		.4byte	.LLST56
 7624 0cd8 22       		.uleb128 0x22
 7625 0cd9 60000000 		.4byte	.Ldebug_ranges0+0x60
 7626 0cdd 16       		.uleb128 0x16
 7627 0cde 6900     		.ascii	"i\000"
 7628 0ce0 02       		.byte	0x2
 7629 0ce1 0D01     		.2byte	0x10d
 7630 0ce3 CD000000 		.4byte	0xcd
 7631 0ce7 43090000 		.4byte	.LLST57
 7632 0ceb 17       		.uleb128 0x17
 7633 0cec 16000000 		.4byte	.LBB28
 7634 0cf0 8A000000 		.4byte	.LBE28-.LBB28
 7635 0cf4 15       		.uleb128 0x15
 7636 0cf5 4B060000 		.4byte	.LASF72
 7637 0cf9 02       		.byte	0x2
 7638 0cfa 1101     		.2byte	0x111
 7639 0cfc F1000000 		.4byte	0xf1
 7640 0d00 62090000 		.4byte	.LLST58
 7641 0d04 10       		.uleb128 0x10
 7642 0d05 1A000000 		.4byte	.LVL247
 7643 0d09 5A330000 		.4byte	0x335a
 7644 0d0d 1A       		.uleb128 0x1a
ARM GAS  C:\Users\FRANKL~1\AppData\Local\Temp\ccnobXgu.s 			page 169


 7645 0d0e 20000000 		.4byte	.LVL248
 7646 0d12 65330000 		.4byte	0x3365
 7647 0d16 200D0000 		.4byte	0xd20
 7648 0d1a 19       		.uleb128 0x19
 7649 0d1b 01       		.uleb128 0x1
 7650 0d1c 50       		.byte	0x50
 7651 0d1d 01       		.uleb128 0x1
 7652 0d1e 31       		.byte	0x31
 7653 0d1f 00       		.byte	0
 7654 0d20 10       		.uleb128 0x10
 7655 0d21 28000000 		.4byte	.LVL249
 7656 0d25 70330000 		.4byte	0x3370
 7657 0d29 10       		.uleb128 0x10
 7658 0d2a 2C000000 		.4byte	.LVL250
 7659 0d2e 7B330000 		.4byte	0x337b
 7660 0d32 00       		.byte	0
 7661 0d33 00       		.byte	0
 7662 0d34 00       		.byte	0
 7663 0d35 23       		.uleb128 0x23
 7664 0d36 C20B0000 		.4byte	.LASF73
 7665 0d3a 02       		.byte	0x2
 7666 0d3b 1C01     		.2byte	0x11c
 7667 0d3d 00000000 		.4byte	.LFB84
 7668 0d41 14010000 		.4byte	.LFE84-.LFB84
 7669 0d45 01       		.uleb128 0x1
 7670 0d46 9C       		.byte	0x9c
 7671 0d47 3A0E0000 		.4byte	0xe3a
 7672 0d4b 24       		.uleb128 0x24
 7673 0d4c AF0A0000 		.4byte	.LASF74
 7674 0d50 02       		.byte	0x2
 7675 0d51 1C01     		.2byte	0x11c
 7676 0d53 3A0E0000 		.4byte	0xe3a
 7677 0d57 80090000 		.4byte	.LLST59
 7678 0d5b 24       		.uleb128 0x24
 7679 0d5c 60070000 		.4byte	.LASF75
 7680 0d60 02       		.byte	0x2
 7681 0d61 1C01     		.2byte	0x11c
 7682 0d63 3A0E0000 		.4byte	0xe3a
 7683 0d67 AB090000 		.4byte	.LLST60
 7684 0d6b 24       		.uleb128 0x24
 7685 0d6c 050B0000 		.4byte	.LASF63
 7686 0d70 02       		.byte	0x2
 7687 0d71 1C01     		.2byte	0x11c
 7688 0d73 CD000000 		.4byte	0xcd
 7689 0d77 D6090000 		.4byte	.LLST61
 7690 0d7b 14       		.uleb128 0x14
 7691 0d7c 70010000 		.4byte	.LASF76
 7692 0d80 02       		.byte	0x2
 7693 0d81 2001     		.2byte	0x120
 7694 0d83 F1000000 		.4byte	0xf1
 7695 0d87 02       		.uleb128 0x2
 7696 0d88 91       		.byte	0x91
 7697 0d89 54       		.sleb128 -44
 7698 0d8a 14       		.uleb128 0x14
 7699 0d8b 0E040000 		.4byte	.LASF77
 7700 0d8f 02       		.byte	0x2
 7701 0d90 2101     		.2byte	0x121
ARM GAS  C:\Users\FRANKL~1\AppData\Local\Temp\ccnobXgu.s 			page 170


 7702 0d92 F1000000 		.4byte	0xf1
 7703 0d96 02       		.uleb128 0x2
 7704 0d97 91       		.byte	0x91
 7705 0d98 50       		.sleb128 -48
 7706 0d99 15       		.uleb128 0x15
 7707 0d9a 49030000 		.4byte	.LASF78
 7708 0d9e 02       		.byte	0x2
 7709 0d9f 2401     		.2byte	0x124
 7710 0da1 25000000 		.4byte	0x25
 7711 0da5 020A0000 		.4byte	.LLST62
 7712 0da9 15       		.uleb128 0x15
 7713 0daa 92070000 		.4byte	.LASF79
 7714 0dae 02       		.byte	0x2
 7715 0daf 2601     		.2byte	0x126
 7716 0db1 25000000 		.4byte	0x25
 7717 0db5 300A0000 		.4byte	.LLST63
 7718 0db9 15       		.uleb128 0x15
 7719 0dba 740C0000 		.4byte	.LASF80
 7720 0dbe 02       		.byte	0x2
 7721 0dbf 2701     		.2byte	0x127
 7722 0dc1 25000000 		.4byte	0x25
 7723 0dc5 690A0000 		.4byte	.LLST64
 7724 0dc9 25       		.uleb128 0x25
 7725 0dca 5D0B0000 		.4byte	.LASF81
 7726 0dce 02       		.byte	0x2
 7727 0dcf 2901     		.2byte	0x129
 7728 0dd1 25000000 		.4byte	0x25
 7729 0dd5 04       		.byte	0x4
 7730 0dd6 00409C46 		.4byte	0x469c4000
 7731 0dda 25       		.uleb128 0x25
 7732 0ddb B0020000 		.4byte	.LASF82
 7733 0ddf 02       		.byte	0x2
 7734 0de0 2A01     		.2byte	0x12a
 7735 0de2 25000000 		.4byte	0x25
 7736 0de6 04       		.byte	0x4
 7737 0de7 FFE65BAE 		.4byte	0xae5be6ff
 7738 0deb 1D       		.uleb128 0x1d
 7739 0dec 78000000 		.4byte	.Ldebug_ranges0+0x78
 7740 0df0 1E0E0000 		.4byte	0xe1e
 7741 0df4 16       		.uleb128 0x16
 7742 0df5 6900     		.ascii	"i\000"
 7743 0df7 02       		.byte	0x2
 7744 0df8 3001     		.2byte	0x130
 7745 0dfa CD000000 		.4byte	0xcd
 7746 0dfe AE0A0000 		.4byte	.LLST65
 7747 0e02 18       		.uleb128 0x18
 7748 0e03 36000000 		.4byte	.LVL282
 7749 0e07 F60A0000 		.4byte	0xaf6
 7750 0e0b 19       		.uleb128 0x19
 7751 0e0c 01       		.uleb128 0x1
 7752 0e0d 50       		.byte	0x50
 7753 0e0e 02       		.uleb128 0x2
 7754 0e0f 91       		.byte	0x91
 7755 0e10 54       		.sleb128 -44
 7756 0e11 19       		.uleb128 0x19
 7757 0e12 01       		.uleb128 0x1
 7758 0e13 51       		.byte	0x51
ARM GAS  C:\Users\FRANKL~1\AppData\Local\Temp\ccnobXgu.s 			page 171


 7759 0e14 02       		.uleb128 0x2
 7760 0e15 91       		.byte	0x91
 7761 0e16 50       		.sleb128 -48
 7762 0e17 19       		.uleb128 0x19
 7763 0e18 01       		.uleb128 0x1
 7764 0e19 52       		.byte	0x52
 7765 0e1a 01       		.uleb128 0x1
 7766 0e1b 31       		.byte	0x31
 7767 0e1c 00       		.byte	0
 7768 0e1d 00       		.byte	0
 7769 0e1e 18       		.uleb128 0x18
 7770 0e1f 22000000 		.4byte	.LVL280
 7771 0e23 F60A0000 		.4byte	0xaf6
 7772 0e27 19       		.uleb128 0x19
 7773 0e28 01       		.uleb128 0x1
 7774 0e29 50       		.byte	0x50
 7775 0e2a 02       		.uleb128 0x2
 7776 0e2b 91       		.byte	0x91
 7777 0e2c 54       		.sleb128 -44
 7778 0e2d 19       		.uleb128 0x19
 7779 0e2e 01       		.uleb128 0x1
 7780 0e2f 51       		.byte	0x51
 7781 0e30 02       		.uleb128 0x2
 7782 0e31 91       		.byte	0x91
 7783 0e32 50       		.sleb128 -48
 7784 0e33 19       		.uleb128 0x19
 7785 0e34 01       		.uleb128 0x1
 7786 0e35 52       		.byte	0x52
 7787 0e36 01       		.uleb128 0x1
 7788 0e37 33       		.byte	0x33
 7789 0e38 00       		.byte	0
 7790 0e39 00       		.byte	0
 7791 0e3a 05       		.uleb128 0x5
 7792 0e3b 04       		.byte	0x4
 7793 0e3c 25000000 		.4byte	0x25
 7794 0e40 26       		.uleb128 0x26
 7795 0e41 F7060000 		.4byte	.LASF83
 7796 0e45 02       		.byte	0x2
 7797 0e46 4401     		.2byte	0x144
 7798 0e48 B5000000 		.4byte	0xb5
 7799 0e4c 00000000 		.4byte	.LFB85
 7800 0e50 54000000 		.4byte	.LFE85-.LFB85
 7801 0e54 01       		.uleb128 0x1
 7802 0e55 9C       		.byte	0x9c
 7803 0e56 940E0000 		.4byte	0xe94
 7804 0e5a 14       		.uleb128 0x14
 7805 0e5b E8070000 		.4byte	.LASF84
 7806 0e5f 02       		.byte	0x2
 7807 0e60 4701     		.2byte	0x147
 7808 0e62 25000000 		.4byte	0x25
 7809 0e66 02       		.uleb128 0x2
 7810 0e67 91       		.byte	0x91
 7811 0e68 74       		.sleb128 -12
 7812 0e69 14       		.uleb128 0x14
 7813 0e6a 4B070000 		.4byte	.LASF85
 7814 0e6e 02       		.byte	0x2
 7815 0e6f 4801     		.2byte	0x148
ARM GAS  C:\Users\FRANKL~1\AppData\Local\Temp\ccnobXgu.s 			page 172


 7816 0e71 25000000 		.4byte	0x25
 7817 0e75 02       		.uleb128 0x2
 7818 0e76 91       		.byte	0x91
 7819 0e77 70       		.sleb128 -16
 7820 0e78 18       		.uleb128 0x18
 7821 0e79 1C000000 		.4byte	.LVL308
 7822 0e7d 350D0000 		.4byte	0xd35
 7823 0e81 19       		.uleb128 0x19
 7824 0e82 01       		.uleb128 0x1
 7825 0e83 50       		.byte	0x50
 7826 0e84 02       		.uleb128 0x2
 7827 0e85 91       		.byte	0x91
 7828 0e86 74       		.sleb128 -12
 7829 0e87 19       		.uleb128 0x19
 7830 0e88 01       		.uleb128 0x1
 7831 0e89 51       		.byte	0x51
 7832 0e8a 02       		.uleb128 0x2
 7833 0e8b 91       		.byte	0x91
 7834 0e8c 70       		.sleb128 -16
 7835 0e8d 19       		.uleb128 0x19
 7836 0e8e 01       		.uleb128 0x1
 7837 0e8f 52       		.byte	0x52
 7838 0e90 01       		.uleb128 0x1
 7839 0e91 33       		.byte	0x33
 7840 0e92 00       		.byte	0
 7841 0e93 00       		.byte	0
 7842 0e94 27       		.uleb128 0x27
 7843 0e95 BF020000 		.4byte	.LASF86
 7844 0e99 02       		.byte	0x2
 7845 0e9a 5401     		.2byte	0x154
 7846 0e9c 00000000 		.4byte	.LFB86
 7847 0ea0 68000000 		.4byte	.LFE86-.LFB86
 7848 0ea4 01       		.uleb128 0x1
 7849 0ea5 9C       		.byte	0x9c
 7850 0ea6 490F0000 		.4byte	0xf49
 7851 0eaa 15       		.uleb128 0x15
 7852 0eab B8000000 		.4byte	.LASF87
 7853 0eaf 02       		.byte	0x2
 7854 0eb0 5501     		.2byte	0x155
 7855 0eb2 B5000000 		.4byte	0xb5
 7856 0eb6 CD0A0000 		.4byte	.LLST66
 7857 0eba 15       		.uleb128 0x15
 7858 0ebb AC080000 		.4byte	.LASF88
 7859 0ebf 02       		.byte	0x2
 7860 0ec0 5601     		.2byte	0x156
 7861 0ec2 B5000000 		.4byte	0xb5
 7862 0ec6 EB0A0000 		.4byte	.LLST67
 7863 0eca 15       		.uleb128 0x15
 7864 0ecb 00000000 		.4byte	.LASF89
 7865 0ecf 02       		.byte	0x2
 7866 0ed0 5701     		.2byte	0x157
 7867 0ed2 D9000000 		.4byte	0xd9
 7868 0ed6 090B0000 		.4byte	.LLST68
 7869 0eda 13       		.uleb128 0x13
 7870 0edb 1A000000 		.4byte	.LBB32
 7871 0edf 16000000 		.4byte	.LBE32-.LBB32
 7872 0ee3 130F0000 		.4byte	0xf13
ARM GAS  C:\Users\FRANKL~1\AppData\Local\Temp\ccnobXgu.s 			page 173


 7873 0ee7 16       		.uleb128 0x16
 7874 0ee8 6900     		.ascii	"i\000"
 7875 0eea 02       		.byte	0x2
 7876 0eeb 5A01     		.2byte	0x15a
 7877 0eed B5000000 		.4byte	0xb5
 7878 0ef1 3F0B0000 		.4byte	.LLST69
 7879 0ef5 1A       		.uleb128 0x1a
 7880 0ef6 22000000 		.4byte	.LVL316
 7881 0efa 86330000 		.4byte	0x3386
 7882 0efe 090F0000 		.4byte	0xf09
 7883 0f02 19       		.uleb128 0x19
 7884 0f03 01       		.uleb128 0x1
 7885 0f04 50       		.byte	0x50
 7886 0f05 02       		.uleb128 0x2
 7887 0f06 74       		.byte	0x74
 7888 0f07 00       		.sleb128 0
 7889 0f08 00       		.byte	0
 7890 0f09 10       		.uleb128 0x10
 7891 0f0a 26000000 		.4byte	.LVL317
 7892 0f0e 400E0000 		.4byte	0xe40
 7893 0f12 00       		.byte	0
 7894 0f13 17       		.uleb128 0x17
 7895 0f14 48000000 		.4byte	.LBB33
 7896 0f18 20000000 		.4byte	.LBE33-.LBB33
 7897 0f1c 16       		.uleb128 0x16
 7898 0f1d 6900     		.ascii	"i\000"
 7899 0f1f 02       		.byte	0x2
 7900 0f20 6501     		.2byte	0x165
 7901 0f22 B5000000 		.4byte	0xb5
 7902 0f26 5D0B0000 		.4byte	.LLST70
 7903 0f2a 1A       		.uleb128 0x1a
 7904 0f2b 50000000 		.4byte	.LVL326
 7905 0f2f 91330000 		.4byte	0x3391
 7906 0f33 3E0F0000 		.4byte	0xf3e
 7907 0f37 19       		.uleb128 0x19
 7908 0f38 01       		.uleb128 0x1
 7909 0f39 50       		.byte	0x50
 7910 0f3a 02       		.uleb128 0x2
 7911 0f3b 74       		.byte	0x74
 7912 0f3c 00       		.sleb128 0
 7913 0f3d 00       		.byte	0
 7914 0f3e 10       		.uleb128 0x10
 7915 0f3f 54000000 		.4byte	.LVL327
 7916 0f43 400E0000 		.4byte	0xe40
 7917 0f47 00       		.byte	0
 7918 0f48 00       		.byte	0
 7919 0f49 26       		.uleb128 0x26
 7920 0f4a 3A090000 		.4byte	.LASF90
 7921 0f4e 02       		.byte	0x2
 7922 0f4f 6F01     		.2byte	0x16f
 7923 0f51 25000000 		.4byte	0x25
 7924 0f55 00000000 		.4byte	.LFB87
 7925 0f59 30000000 		.4byte	.LFE87-.LFB87
 7926 0f5d 01       		.uleb128 0x1
 7927 0f5e 9C       		.byte	0x9c
 7928 0f5f 720F0000 		.4byte	0xf72
 7929 0f63 14       		.uleb128 0x14
ARM GAS  C:\Users\FRANKL~1\AppData\Local\Temp\ccnobXgu.s 			page 174


 7930 0f64 D60D0000 		.4byte	.LASF91
 7931 0f68 02       		.byte	0x2
 7932 0f69 7001     		.2byte	0x170
 7933 0f6b 25000000 		.4byte	0x25
 7934 0f6f 01       		.uleb128 0x1
 7935 0f70 50       		.byte	0x50
 7936 0f71 00       		.byte	0
 7937 0f72 26       		.uleb128 0x26
 7938 0f73 78010000 		.4byte	.LASF92
 7939 0f77 02       		.byte	0x2
 7940 0f78 7801     		.2byte	0x178
 7941 0f7a 25000000 		.4byte	0x25
 7942 0f7e 00000000 		.4byte	.LFB88
 7943 0f82 48000000 		.4byte	.LFE88-.LFB88
 7944 0f86 01       		.uleb128 0x1
 7945 0f87 9C       		.byte	0x9c
 7946 0f88 A40F0000 		.4byte	0xfa4
 7947 0f8c 14       		.uleb128 0x14
 7948 0f8d D60D0000 		.4byte	.LASF91
 7949 0f91 02       		.byte	0x2
 7950 0f92 7901     		.2byte	0x179
 7951 0f94 25000000 		.4byte	0x25
 7952 0f98 01       		.uleb128 0x1
 7953 0f99 50       		.byte	0x50
 7954 0f9a 10       		.uleb128 0x10
 7955 0f9b 1C000000 		.4byte	.LVL337
 7956 0f9f 490F0000 		.4byte	0xf49
 7957 0fa3 00       		.byte	0
 7958 0fa4 26       		.uleb128 0x26
 7959 0fa5 D60B0000 		.4byte	.LASF93
 7960 0fa9 02       		.byte	0x2
 7961 0faa 8101     		.2byte	0x181
 7962 0fac 25000000 		.4byte	0x25
 7963 0fb0 00000000 		.4byte	.LFB89
 7964 0fb4 48000000 		.4byte	.LFE89-.LFB89
 7965 0fb8 01       		.uleb128 0x1
 7966 0fb9 9C       		.byte	0x9c
 7967 0fba D60F0000 		.4byte	0xfd6
 7968 0fbe 14       		.uleb128 0x14
 7969 0fbf D60D0000 		.4byte	.LASF91
 7970 0fc3 02       		.byte	0x2
 7971 0fc4 8201     		.2byte	0x182
 7972 0fc6 25000000 		.4byte	0x25
 7973 0fca 01       		.uleb128 0x1
 7974 0fcb 50       		.byte	0x50
 7975 0fcc 10       		.uleb128 0x10
 7976 0fcd 1C000000 		.4byte	.LVL343
 7977 0fd1 490F0000 		.4byte	0xf49
 7978 0fd5 00       		.byte	0
 7979 0fd6 12       		.uleb128 0x12
 7980 0fd7 EC0A0000 		.4byte	.LASF94
 7981 0fdb 02       		.byte	0x2
 7982 0fdc 8C01     		.2byte	0x18c
 7983 0fde 00000000 		.4byte	.LFB90
 7984 0fe2 74000000 		.4byte	.LFE90-.LFB90
 7985 0fe6 01       		.uleb128 0x1
 7986 0fe7 9C       		.byte	0x9c
ARM GAS  C:\Users\FRANKL~1\AppData\Local\Temp\ccnobXgu.s 			page 175


 7987 0fe8 95100000 		.4byte	0x1095
 7988 0fec 24       		.uleb128 0x24
 7989 0fed 08040000 		.4byte	.LASF95
 7990 0ff1 02       		.byte	0x2
 7991 0ff2 8C01     		.2byte	0x18c
 7992 0ff4 B5000000 		.4byte	0xb5
 7993 0ff8 7B0B0000 		.4byte	.LLST71
 7994 0ffc 15       		.uleb128 0x15
 7995 0ffd B8000000 		.4byte	.LASF87
 7996 1001 02       		.byte	0x2
 7997 1002 8F01     		.2byte	0x18f
 7998 1004 B5000000 		.4byte	0xb5
 7999 1008 9C0B0000 		.4byte	.LLST72
 8000 100c 15       		.uleb128 0x15
 8001 100d 00000000 		.4byte	.LASF89
 8002 1011 02       		.byte	0x2
 8003 1012 9001     		.2byte	0x190
 8004 1014 D9000000 		.4byte	0xd9
 8005 1018 AF0B0000 		.4byte	.LLST73
 8006 101c 17       		.uleb128 0x17
 8007 101d 22000000 		.4byte	.LBB34
 8008 1021 52000000 		.4byte	.LBE34-.LBB34
 8009 1025 16       		.uleb128 0x16
 8010 1026 6900     		.ascii	"i\000"
 8011 1028 02       		.byte	0x2
 8012 1029 9301     		.2byte	0x193
 8013 102b B5000000 		.4byte	0xb5
 8014 102f CE0B0000 		.4byte	.LLST74
 8015 1033 1D       		.uleb128 0x1d
 8016 1034 90000000 		.4byte	.Ldebug_ranges0+0x90
 8017 1038 68100000 		.4byte	0x1068
 8018 103c 16       		.uleb128 0x16
 8019 103d 6A00     		.ascii	"j\000"
 8020 103f 02       		.byte	0x2
 8021 1040 9501     		.2byte	0x195
 8022 1042 B5000000 		.4byte	0xb5
 8023 1046 F80B0000 		.4byte	.LLST75
 8024 104a 1A       		.uleb128 0x1a
 8025 104b 34000000 		.4byte	.LVL353
 8026 104f 86330000 		.4byte	0x3386
 8027 1053 5E100000 		.4byte	0x105e
 8028 1057 19       		.uleb128 0x19
 8029 1058 01       		.uleb128 0x1
 8030 1059 50       		.byte	0x50
 8031 105a 02       		.uleb128 0x2
 8032 105b 74       		.byte	0x74
 8033 105c 00       		.sleb128 0
 8034 105d 00       		.byte	0
 8035 105e 10       		.uleb128 0x10
 8036 105f 38000000 		.4byte	.LVL354
 8037 1063 400E0000 		.4byte	0xe40
 8038 1067 00       		.byte	0
 8039 1068 10       		.uleb128 0x10
 8040 1069 2A000000 		.4byte	.LVL351
 8041 106d 400E0000 		.4byte	0xe40
 8042 1071 10       		.uleb128 0x10
 8043 1072 4A000000 		.4byte	.LVL359
ARM GAS  C:\Users\FRANKL~1\AppData\Local\Temp\ccnobXgu.s 			page 176


 8044 1076 400E0000 		.4byte	0xe40
 8045 107a 10       		.uleb128 0x10
 8046 107b 50000000 		.4byte	.LVL360
 8047 107f 940E0000 		.4byte	0xe94
 8048 1083 18       		.uleb128 0x18
 8049 1084 5A000000 		.4byte	.LVL362
 8050 1088 86330000 		.4byte	0x3386
 8051 108c 19       		.uleb128 0x19
 8052 108d 01       		.uleb128 0x1
 8053 108e 50       		.byte	0x50
 8054 108f 02       		.uleb128 0x2
 8055 1090 77       		.byte	0x77
 8056 1091 00       		.sleb128 0
 8057 1092 00       		.byte	0
 8058 1093 00       		.byte	0
 8059 1094 00       		.byte	0
 8060 1095 12       		.uleb128 0x12
 8061 1096 E1020000 		.4byte	.LASF96
 8062 109a 02       		.byte	0x2
 8063 109b A501     		.2byte	0x1a5
 8064 109d 00000000 		.4byte	.LFB91
 8065 10a1 74000000 		.4byte	.LFE91-.LFB91
 8066 10a5 01       		.uleb128 0x1
 8067 10a6 9C       		.byte	0x9c
 8068 10a7 54110000 		.4byte	0x1154
 8069 10ab 24       		.uleb128 0x24
 8070 10ac 08040000 		.4byte	.LASF95
 8071 10b0 02       		.byte	0x2
 8072 10b1 A501     		.2byte	0x1a5
 8073 10b3 B5000000 		.4byte	0xb5
 8074 10b7 210C0000 		.4byte	.LLST76
 8075 10bb 15       		.uleb128 0x15
 8076 10bc 00000000 		.4byte	.LASF89
 8077 10c0 02       		.byte	0x2
 8078 10c1 A801     		.2byte	0x1a8
 8079 10c3 D9000000 		.4byte	0xd9
 8080 10c7 420C0000 		.4byte	.LLST77
 8081 10cb 15       		.uleb128 0x15
 8082 10cc B8000000 		.4byte	.LASF87
 8083 10d0 02       		.byte	0x2
 8084 10d1 A901     		.2byte	0x1a9
 8085 10d3 B5000000 		.4byte	0xb5
 8086 10d7 610C0000 		.4byte	.LLST78
 8087 10db 17       		.uleb128 0x17
 8088 10dc 22000000 		.4byte	.LBB37
 8089 10e0 52000000 		.4byte	.LBE37-.LBB37
 8090 10e4 16       		.uleb128 0x16
 8091 10e5 6900     		.ascii	"i\000"
 8092 10e7 02       		.byte	0x2
 8093 10e8 AC01     		.2byte	0x1ac
 8094 10ea B5000000 		.4byte	0xb5
 8095 10ee 740C0000 		.4byte	.LLST79
 8096 10f2 1D       		.uleb128 0x1d
 8097 10f3 A8000000 		.4byte	.Ldebug_ranges0+0xa8
 8098 10f7 27110000 		.4byte	0x1127
 8099 10fb 16       		.uleb128 0x16
 8100 10fc 6A00     		.ascii	"j\000"
ARM GAS  C:\Users\FRANKL~1\AppData\Local\Temp\ccnobXgu.s 			page 177


 8101 10fe 02       		.byte	0x2
 8102 10ff AE01     		.2byte	0x1ae
 8103 1101 B5000000 		.4byte	0xb5
 8104 1105 9D0C0000 		.4byte	.LLST80
 8105 1109 1A       		.uleb128 0x1a
 8106 110a 34000000 		.4byte	.LVL373
 8107 110e 91330000 		.4byte	0x3391
 8108 1112 1D110000 		.4byte	0x111d
 8109 1116 19       		.uleb128 0x19
 8110 1117 01       		.uleb128 0x1
 8111 1118 50       		.byte	0x50
 8112 1119 02       		.uleb128 0x2
 8113 111a 74       		.byte	0x74
 8114 111b 00       		.sleb128 0
 8115 111c 00       		.byte	0
 8116 111d 10       		.uleb128 0x10
 8117 111e 38000000 		.4byte	.LVL374
 8118 1122 400E0000 		.4byte	0xe40
 8119 1126 00       		.byte	0
 8120 1127 10       		.uleb128 0x10
 8121 1128 2A000000 		.4byte	.LVL371
 8122 112c 400E0000 		.4byte	0xe40
 8123 1130 10       		.uleb128 0x10
 8124 1131 4A000000 		.4byte	.LVL379
 8125 1135 400E0000 		.4byte	0xe40
 8126 1139 10       		.uleb128 0x10
 8127 113a 50000000 		.4byte	.LVL380
 8128 113e 940E0000 		.4byte	0xe94
 8129 1142 18       		.uleb128 0x18
 8130 1143 5A000000 		.4byte	.LVL382
 8131 1147 91330000 		.4byte	0x3391
 8132 114b 19       		.uleb128 0x19
 8133 114c 01       		.uleb128 0x1
 8134 114d 50       		.byte	0x50
 8135 114e 02       		.uleb128 0x2
 8136 114f 77       		.byte	0x77
 8137 1150 00       		.sleb128 0
 8138 1151 00       		.byte	0
 8139 1152 00       		.byte	0
 8140 1153 00       		.byte	0
 8141 1154 12       		.uleb128 0x12
 8142 1155 E4050000 		.4byte	.LASF97
 8143 1159 02       		.byte	0x2
 8144 115a BE01     		.2byte	0x1be
 8145 115c 00000000 		.4byte	.LFB92
 8146 1160 84000000 		.4byte	.LFE92-.LFB92
 8147 1164 01       		.uleb128 0x1
 8148 1165 9C       		.byte	0x9c
 8149 1166 0E120000 		.4byte	0x120e
 8150 116a 24       		.uleb128 0x24
 8151 116b 08040000 		.4byte	.LASF95
 8152 116f 02       		.byte	0x2
 8153 1170 BE01     		.2byte	0x1be
 8154 1172 B5000000 		.4byte	0xb5
 8155 1176 C60C0000 		.4byte	.LLST81
 8156 117a 15       		.uleb128 0x15
 8157 117b 00000000 		.4byte	.LASF89
ARM GAS  C:\Users\FRANKL~1\AppData\Local\Temp\ccnobXgu.s 			page 178


 8158 117f 02       		.byte	0x2
 8159 1180 C101     		.2byte	0x1c1
 8160 1182 D9000000 		.4byte	0xd9
 8161 1186 E40C0000 		.4byte	.LLST82
 8162 118a 17       		.uleb128 0x17
 8163 118b 20000000 		.4byte	.LBB40
 8164 118f 64000000 		.4byte	.LBE40-.LBB40
 8165 1193 16       		.uleb128 0x16
 8166 1194 6900     		.ascii	"i\000"
 8167 1196 02       		.byte	0x2
 8168 1197 C401     		.2byte	0x1c4
 8169 1199 B5000000 		.4byte	0xb5
 8170 119d 030D0000 		.4byte	.LLST83
 8171 11a1 17       		.uleb128 0x17
 8172 11a2 28000000 		.4byte	.LBB41
 8173 11a6 42000000 		.4byte	.LBE41-.LBB41
 8174 11aa 15       		.uleb128 0x15
 8175 11ab 68010000 		.4byte	.LASF98
 8176 11af 02       		.byte	0x2
 8177 11b0 C801     		.2byte	0x1c8
 8178 11b2 E5000000 		.4byte	0xe5
 8179 11b6 210D0000 		.4byte	.LLST84
 8180 11ba 15       		.uleb128 0x15
 8181 11bb 2B0A0000 		.4byte	.LASF99
 8182 11bf 02       		.byte	0x2
 8183 11c0 C901     		.2byte	0x1c9
 8184 11c2 E5000000 		.4byte	0xe5
 8185 11c6 340D0000 		.4byte	.LLST85
 8186 11ca 10       		.uleb128 0x10
 8187 11cb 2C000000 		.4byte	.LVL390
 8188 11cf 400E0000 		.4byte	0xe40
 8189 11d3 1A       		.uleb128 0x1a
 8190 11d4 5E000000 		.4byte	.LVL397
 8191 11d8 9C330000 		.4byte	0x339c
 8192 11dc E7110000 		.4byte	0x11e7
 8193 11e0 19       		.uleb128 0x19
 8194 11e1 01       		.uleb128 0x1
 8195 11e2 50       		.byte	0x50
 8196 11e3 02       		.uleb128 0x2
 8197 11e4 76       		.byte	0x76
 8198 11e5 00       		.sleb128 0
 8199 11e6 00       		.byte	0
 8200 11e7 1A       		.uleb128 0x1a
 8201 11e8 64000000 		.4byte	.LVL398
 8202 11ec 91330000 		.4byte	0x3391
 8203 11f0 FB110000 		.4byte	0x11fb
 8204 11f4 19       		.uleb128 0x19
 8205 11f5 01       		.uleb128 0x1
 8206 11f6 50       		.byte	0x50
 8207 11f7 02       		.uleb128 0x2
 8208 11f8 75       		.byte	0x75
 8209 11f9 00       		.sleb128 0
 8210 11fa 00       		.byte	0
 8211 11fb 18       		.uleb128 0x18
 8212 11fc 6A000000 		.4byte	.LVL399
 8213 1200 86330000 		.4byte	0x3386
 8214 1204 19       		.uleb128 0x19
ARM GAS  C:\Users\FRANKL~1\AppData\Local\Temp\ccnobXgu.s 			page 179


 8215 1205 01       		.uleb128 0x1
 8216 1206 50       		.byte	0x50
 8217 1207 02       		.uleb128 0x2
 8218 1208 74       		.byte	0x74
 8219 1209 00       		.sleb128 0
 8220 120a 00       		.byte	0
 8221 120b 00       		.byte	0
 8222 120c 00       		.byte	0
 8223 120d 00       		.byte	0
 8224 120e 12       		.uleb128 0x12
 8225 120f 64000000 		.4byte	.LASF100
 8226 1213 02       		.byte	0x2
 8227 1214 D901     		.2byte	0x1d9
 8228 1216 00000000 		.4byte	.LFB93
 8229 121a C8000000 		.4byte	.LFE93-.LFB93
 8230 121e 01       		.uleb128 0x1
 8231 121f 9C       		.byte	0x9c
 8232 1220 E0120000 		.4byte	0x12e0
 8233 1224 24       		.uleb128 0x24
 8234 1225 08040000 		.4byte	.LASF95
 8235 1229 02       		.byte	0x2
 8236 122a D901     		.2byte	0x1d9
 8237 122c E5000000 		.4byte	0xe5
 8238 1230 470D0000 		.4byte	.LLST86
 8239 1234 15       		.uleb128 0x15
 8240 1235 31050000 		.4byte	.LASF101
 8241 1239 02       		.byte	0x2
 8242 123a DD01     		.2byte	0x1dd
 8243 123c E5000000 		.4byte	0xe5
 8244 1240 650D0000 		.4byte	.LLST87
 8245 1244 15       		.uleb128 0x15
 8246 1245 FA070000 		.4byte	.LASF102
 8247 1249 02       		.byte	0x2
 8248 124a EB01     		.2byte	0x1eb
 8249 124c C1000000 		.4byte	0xc1
 8250 1250 A40D0000 		.4byte	.LLST88
 8251 1254 15       		.uleb128 0x15
 8252 1255 E0040000 		.4byte	.LASF103
 8253 1259 02       		.byte	0x2
 8254 125a EC01     		.2byte	0x1ec
 8255 125c C1000000 		.4byte	0xc1
 8256 1260 B70D0000 		.4byte	.LLST89
 8257 1264 15       		.uleb128 0x15
 8258 1265 38000000 		.4byte	.LASF104
 8259 1269 02       		.byte	0x2
 8260 126a ED01     		.2byte	0x1ed
 8261 126c C1000000 		.4byte	0xc1
 8262 1270 CA0D0000 		.4byte	.LLST90
 8263 1274 15       		.uleb128 0x15
 8264 1275 30080000 		.4byte	.LASF105
 8265 1279 02       		.byte	0x2
 8266 127a EE01     		.2byte	0x1ee
 8267 127c C1000000 		.4byte	0xc1
 8268 1280 DD0D0000 		.4byte	.LLST91
 8269 1284 15       		.uleb128 0x15
 8270 1285 87040000 		.4byte	.LASF106
 8271 1289 02       		.byte	0x2
ARM GAS  C:\Users\FRANKL~1\AppData\Local\Temp\ccnobXgu.s 			page 180


 8272 128a F001     		.2byte	0x1f0
 8273 128c C1000000 		.4byte	0xc1
 8274 1290 F00D0000 		.4byte	.LLST92
 8275 1294 10       		.uleb128 0x10
 8276 1295 32000000 		.4byte	.LVL409
 8277 1299 54110000 		.4byte	0x1154
 8278 129d 1A       		.uleb128 0x1a
 8279 129e 38000000 		.4byte	.LVL410
 8280 12a2 D60F0000 		.4byte	0xfd6
 8281 12a6 B1120000 		.4byte	0x12b1
 8282 12aa 19       		.uleb128 0x19
 8283 12ab 01       		.uleb128 0x1
 8284 12ac 50       		.byte	0x50
 8285 12ad 02       		.uleb128 0x2
 8286 12ae 09       		.byte	0x9
 8287 12af FF       		.byte	0xff
 8288 12b0 00       		.byte	0
 8289 12b1 10       		.uleb128 0x10
 8290 12b2 4A000000 		.4byte	.LVL414
 8291 12b6 54110000 		.4byte	0x1154
 8292 12ba 1A       		.uleb128 0x1a
 8293 12bb 50000000 		.4byte	.LVL415
 8294 12bf D60F0000 		.4byte	0xfd6
 8295 12c3 CD120000 		.4byte	0x12cd
 8296 12c7 19       		.uleb128 0x19
 8297 12c8 01       		.uleb128 0x1
 8298 12c9 50       		.byte	0x50
 8299 12ca 01       		.uleb128 0x1
 8300 12cb 30       		.byte	0x30
 8301 12cc 00       		.byte	0
 8302 12cd 10       		.uleb128 0x10
 8303 12ce 58000000 		.4byte	.LVL417
 8304 12d2 D60F0000 		.4byte	0xfd6
 8305 12d6 10       		.uleb128 0x10
 8306 12d7 B8000000 		.4byte	.LVL428
 8307 12db 54110000 		.4byte	0x1154
 8308 12df 00       		.byte	0
 8309 12e0 12       		.uleb128 0x12
 8310 12e1 1F0A0000 		.4byte	.LASF107
 8311 12e5 02       		.byte	0x2
 8312 12e6 FB01     		.2byte	0x1fb
 8313 12e8 00000000 		.4byte	.LFB94
 8314 12ec C8000000 		.4byte	.LFE94-.LFB94
 8315 12f0 01       		.uleb128 0x1
 8316 12f1 9C       		.byte	0x9c
 8317 12f2 B2130000 		.4byte	0x13b2
 8318 12f6 24       		.uleb128 0x24
 8319 12f7 08040000 		.4byte	.LASF95
 8320 12fb 02       		.byte	0x2
 8321 12fc FB01     		.2byte	0x1fb
 8322 12fe E5000000 		.4byte	0xe5
 8323 1302 2F0E0000 		.4byte	.LLST93
 8324 1306 15       		.uleb128 0x15
 8325 1307 31050000 		.4byte	.LASF101
 8326 130b 02       		.byte	0x2
 8327 130c FF01     		.2byte	0x1ff
 8328 130e E5000000 		.4byte	0xe5
ARM GAS  C:\Users\FRANKL~1\AppData\Local\Temp\ccnobXgu.s 			page 181


 8329 1312 4D0E0000 		.4byte	.LLST94
 8330 1316 15       		.uleb128 0x15
 8331 1317 FA070000 		.4byte	.LASF102
 8332 131b 02       		.byte	0x2
 8333 131c 0D02     		.2byte	0x20d
 8334 131e C1000000 		.4byte	0xc1
 8335 1322 8C0E0000 		.4byte	.LLST95
 8336 1326 15       		.uleb128 0x15
 8337 1327 E0040000 		.4byte	.LASF103
 8338 132b 02       		.byte	0x2
 8339 132c 0E02     		.2byte	0x20e
 8340 132e C1000000 		.4byte	0xc1
 8341 1332 9F0E0000 		.4byte	.LLST96
 8342 1336 15       		.uleb128 0x15
 8343 1337 38000000 		.4byte	.LASF104
 8344 133b 02       		.byte	0x2
 8345 133c 0F02     		.2byte	0x20f
 8346 133e C1000000 		.4byte	0xc1
 8347 1342 B20E0000 		.4byte	.LLST97
 8348 1346 15       		.uleb128 0x15
 8349 1347 30080000 		.4byte	.LASF105
 8350 134b 02       		.byte	0x2
 8351 134c 1002     		.2byte	0x210
 8352 134e C1000000 		.4byte	0xc1
 8353 1352 C50E0000 		.4byte	.LLST98
 8354 1356 15       		.uleb128 0x15
 8355 1357 87040000 		.4byte	.LASF106
 8356 135b 02       		.byte	0x2
 8357 135c 1202     		.2byte	0x212
 8358 135e C1000000 		.4byte	0xc1
 8359 1362 D80E0000 		.4byte	.LLST99
 8360 1366 10       		.uleb128 0x10
 8361 1367 32000000 		.4byte	.LVL436
 8362 136b 54110000 		.4byte	0x1154
 8363 136f 1A       		.uleb128 0x1a
 8364 1370 38000000 		.4byte	.LVL437
 8365 1374 95100000 		.4byte	0x1095
 8366 1378 83130000 		.4byte	0x1383
 8367 137c 19       		.uleb128 0x19
 8368 137d 01       		.uleb128 0x1
 8369 137e 50       		.byte	0x50
 8370 137f 02       		.uleb128 0x2
 8371 1380 09       		.byte	0x9
 8372 1381 FF       		.byte	0xff
 8373 1382 00       		.byte	0
 8374 1383 10       		.uleb128 0x10
 8375 1384 4A000000 		.4byte	.LVL441
 8376 1388 54110000 		.4byte	0x1154
 8377 138c 1A       		.uleb128 0x1a
 8378 138d 50000000 		.4byte	.LVL442
 8379 1391 95100000 		.4byte	0x1095
 8380 1395 9F130000 		.4byte	0x139f
 8381 1399 19       		.uleb128 0x19
 8382 139a 01       		.uleb128 0x1
 8383 139b 50       		.byte	0x50
 8384 139c 01       		.uleb128 0x1
 8385 139d 30       		.byte	0x30
ARM GAS  C:\Users\FRANKL~1\AppData\Local\Temp\ccnobXgu.s 			page 182


 8386 139e 00       		.byte	0
 8387 139f 10       		.uleb128 0x10
 8388 13a0 58000000 		.4byte	.LVL444
 8389 13a4 95100000 		.4byte	0x1095
 8390 13a8 10       		.uleb128 0x10
 8391 13a9 B8000000 		.4byte	.LVL455
 8392 13ad 54110000 		.4byte	0x1154
 8393 13b1 00       		.byte	0
 8394 13b2 23       		.uleb128 0x23
 8395 13b3 630A0000 		.4byte	.LASF108
 8396 13b7 02       		.byte	0x2
 8397 13b8 1E02     		.2byte	0x21e
 8398 13ba 00000000 		.4byte	.LFB95
 8399 13be 38000000 		.4byte	.LFE95-.LFB95
 8400 13c2 01       		.uleb128 0x1
 8401 13c3 9C       		.byte	0x9c
 8402 13c4 E2130000 		.4byte	0x13e2
 8403 13c8 24       		.uleb128 0x24
 8404 13c9 70010000 		.4byte	.LASF76
 8405 13cd 02       		.byte	0x2
 8406 13ce 1E02     		.2byte	0x21e
 8407 13d0 25000000 		.4byte	0x25
 8408 13d4 170F0000 		.4byte	.LLST100
 8409 13d8 10       		.uleb128 0x10
 8410 13d9 24000000 		.4byte	.LVL462
 8411 13dd E0120000 		.4byte	0x12e0
 8412 13e1 00       		.byte	0
 8413 13e2 23       		.uleb128 0x23
 8414 13e3 18040000 		.4byte	.LASF109
 8415 13e7 02       		.byte	0x2
 8416 13e8 2302     		.2byte	0x223
 8417 13ea 00000000 		.4byte	.LFB96
 8418 13ee 38000000 		.4byte	.LFE96-.LFB96
 8419 13f2 01       		.uleb128 0x1
 8420 13f3 9C       		.byte	0x9c
 8421 13f4 12140000 		.4byte	0x1412
 8422 13f8 24       		.uleb128 0x24
 8423 13f9 70010000 		.4byte	.LASF76
 8424 13fd 02       		.byte	0x2
 8425 13fe 2302     		.2byte	0x223
 8426 1400 25000000 		.4byte	0x25
 8427 1404 3A0F0000 		.4byte	.LLST101
 8428 1408 10       		.uleb128 0x10
 8429 1409 24000000 		.4byte	.LVL468
 8430 140d 0E120000 		.4byte	0x120e
 8431 1411 00       		.byte	0
 8432 1412 23       		.uleb128 0x23
 8433 1413 42090000 		.4byte	.LASF110
 8434 1417 02       		.byte	0x2
 8435 1418 2902     		.2byte	0x229
 8436 141a 00000000 		.4byte	.LFB97
 8437 141e 14000000 		.4byte	.LFE97-.LFB97
 8438 1422 01       		.uleb128 0x1
 8439 1423 9C       		.byte	0x9c
 8440 1424 41140000 		.4byte	0x1441
 8441 1428 28       		.uleb128 0x28
 8442 1429 6D5600   		.ascii	"mV\000"
ARM GAS  C:\Users\FRANKL~1\AppData\Local\Temp\ccnobXgu.s 			page 183


 8443 142c 02       		.byte	0x2
 8444 142d 2902     		.2byte	0x229
 8445 142f 25000000 		.4byte	0x25
 8446 1433 5D0F0000 		.4byte	.LLST102
 8447 1437 10       		.uleb128 0x10
 8448 1438 0C000000 		.4byte	.LVL471
 8449 143c B2130000 		.4byte	0x13b2
 8450 1440 00       		.byte	0
 8451 1441 23       		.uleb128 0x23
 8452 1442 250B0000 		.4byte	.LASF111
 8453 1446 02       		.byte	0x2
 8454 1447 2E02     		.2byte	0x22e
 8455 1449 00000000 		.4byte	.LFB98
 8456 144d 14000000 		.4byte	.LFE98-.LFB98
 8457 1451 01       		.uleb128 0x1
 8458 1452 9C       		.byte	0x9c
 8459 1453 70140000 		.4byte	0x1470
 8460 1457 28       		.uleb128 0x28
 8461 1458 6D5600   		.ascii	"mV\000"
 8462 145b 02       		.byte	0x2
 8463 145c 2E02     		.2byte	0x22e
 8464 145e 25000000 		.4byte	0x25
 8465 1462 800F0000 		.4byte	.LLST103
 8466 1466 10       		.uleb128 0x10
 8467 1467 0C000000 		.4byte	.LVL474
 8468 146b E2130000 		.4byte	0x13e2
 8469 146f 00       		.byte	0
 8470 1470 27       		.uleb128 0x27
 8471 1471 79040000 		.4byte	.LASF112
 8472 1475 02       		.byte	0x2
 8473 1476 3402     		.2byte	0x234
 8474 1478 00000000 		.4byte	.LFB99
 8475 147c 1C000000 		.4byte	.LFE99-.LFB99
 8476 1480 01       		.uleb128 0x1
 8477 1481 9C       		.byte	0x9c
 8478 1482 CF140000 		.4byte	0x14cf
 8479 1486 1A       		.uleb128 0x1a
 8480 1487 08000000 		.4byte	.LVL475
 8481 148b D60F0000 		.4byte	0xfd6
 8482 148f 99140000 		.4byte	0x1499
 8483 1493 19       		.uleb128 0x19
 8484 1494 01       		.uleb128 0x1
 8485 1495 50       		.byte	0x50
 8486 1496 01       		.uleb128 0x1
 8487 1497 30       		.byte	0x30
 8488 1498 00       		.byte	0
 8489 1499 1A       		.uleb128 0x1a
 8490 149a 0E000000 		.4byte	.LVL476
 8491 149e 95100000 		.4byte	0x1095
 8492 14a2 AC140000 		.4byte	0x14ac
 8493 14a6 19       		.uleb128 0x19
 8494 14a7 01       		.uleb128 0x1
 8495 14a8 50       		.byte	0x50
 8496 14a9 01       		.uleb128 0x1
 8497 14aa 30       		.byte	0x30
 8498 14ab 00       		.byte	0
 8499 14ac 1A       		.uleb128 0x1a
ARM GAS  C:\Users\FRANKL~1\AppData\Local\Temp\ccnobXgu.s 			page 184


 8500 14ad 14000000 		.4byte	.LVL477
 8501 14b1 86330000 		.4byte	0x3386
 8502 14b5 BF140000 		.4byte	0x14bf
 8503 14b9 19       		.uleb128 0x19
 8504 14ba 01       		.uleb128 0x1
 8505 14bb 50       		.byte	0x50
 8506 14bc 01       		.uleb128 0x1
 8507 14bd 30       		.byte	0x30
 8508 14be 00       		.byte	0
 8509 14bf 18       		.uleb128 0x18
 8510 14c0 1A000000 		.4byte	.LVL478
 8511 14c4 91330000 		.4byte	0x3391
 8512 14c8 19       		.uleb128 0x19
 8513 14c9 01       		.uleb128 0x1
 8514 14ca 50       		.byte	0x50
 8515 14cb 01       		.uleb128 0x1
 8516 14cc 30       		.byte	0x30
 8517 14cd 00       		.byte	0
 8518 14ce 00       		.byte	0
 8519 14cf 23       		.uleb128 0x23
 8520 14d0 140E0000 		.4byte	.LASF113
 8521 14d4 02       		.byte	0x2
 8522 14d5 3D02     		.2byte	0x23d
 8523 14d7 00000000 		.4byte	.LFB100
 8524 14db E4000000 		.4byte	.LFE100-.LFB100
 8525 14df 01       		.uleb128 0x1
 8526 14e0 9C       		.byte	0x9c
 8527 14e1 6F160000 		.4byte	0x166f
 8528 14e5 24       		.uleb128 0x24
 8529 14e6 4E000000 		.4byte	.LASF114
 8530 14ea 02       		.byte	0x2
 8531 14eb 3D02     		.2byte	0x23d
 8532 14ed CD000000 		.4byte	0xcd
 8533 14f1 A30F0000 		.4byte	.LLST104
 8534 14f5 24       		.uleb128 0x24
 8535 14f6 A50B0000 		.4byte	.LASF115
 8536 14fa 02       		.byte	0x2
 8537 14fb 3D02     		.2byte	0x23d
 8538 14fd CD000000 		.4byte	0xcd
 8539 1501 CF0F0000 		.4byte	.LLST105
 8540 1505 24       		.uleb128 0x24
 8541 1506 DC000000 		.4byte	.LASF116
 8542 150a 02       		.byte	0x2
 8543 150b 3D02     		.2byte	0x23d
 8544 150d CD000000 		.4byte	0xcd
 8545 1511 FB0F0000 		.4byte	.LLST106
 8546 1515 14       		.uleb128 0x14
 8547 1516 140A0000 		.4byte	.LASF117
 8548 151a 02       		.byte	0x2
 8549 151b 3E02     		.2byte	0x23e
 8550 151d F1000000 		.4byte	0xf1
 8551 1521 02       		.uleb128 0x2
 8552 1522 91       		.byte	0x91
 8553 1523 5C       		.sleb128 -36
 8554 1524 14       		.uleb128 0x14
 8555 1525 96040000 		.4byte	.LASF118
 8556 1529 02       		.byte	0x2
ARM GAS  C:\Users\FRANKL~1\AppData\Local\Temp\ccnobXgu.s 			page 185


 8557 152a 3F02     		.2byte	0x23f
 8558 152c F1000000 		.4byte	0xf1
 8559 1530 02       		.uleb128 0x2
 8560 1531 91       		.byte	0x91
 8561 1532 58       		.sleb128 -40
 8562 1533 15       		.uleb128 0x15
 8563 1534 370B0000 		.4byte	.LASF119
 8564 1538 02       		.byte	0x2
 8565 1539 4302     		.2byte	0x243
 8566 153b 25000000 		.4byte	0x25
 8567 153f 27100000 		.4byte	.LLST107
 8568 1543 14       		.uleb128 0x14
 8569 1544 CF000000 		.4byte	.LASF120
 8570 1548 02       		.byte	0x2
 8571 1549 4C02     		.2byte	0x24c
 8572 154b F1000000 		.4byte	0xf1
 8573 154f 02       		.uleb128 0x2
 8574 1550 91       		.byte	0x91
 8575 1551 54       		.sleb128 -44
 8576 1552 14       		.uleb128 0x14
 8577 1553 90060000 		.4byte	.LASF121
 8578 1557 02       		.byte	0x2
 8579 1558 4D02     		.2byte	0x24d
 8580 155a F1000000 		.4byte	0xf1
 8581 155e 02       		.uleb128 0x2
 8582 155f 91       		.byte	0x91
 8583 1560 50       		.sleb128 -48
 8584 1561 14       		.uleb128 0x14
 8585 1562 F80A0000 		.4byte	.LASF122
 8586 1566 02       		.byte	0x2
 8587 1567 4E02     		.2byte	0x24e
 8588 1569 F1000000 		.4byte	0xf1
 8589 156d 02       		.uleb128 0x2
 8590 156e 91       		.byte	0x91
 8591 156f 4C       		.sleb128 -52
 8592 1570 14       		.uleb128 0x14
 8593 1571 D10C0000 		.4byte	.LASF123
 8594 1575 02       		.byte	0x2
 8595 1576 4F02     		.2byte	0x24f
 8596 1578 F1000000 		.4byte	0xf1
 8597 157c 02       		.uleb128 0x2
 8598 157d 91       		.byte	0x91
 8599 157e 48       		.sleb128 -56
 8600 157f 15       		.uleb128 0x15
 8601 1580 5F060000 		.4byte	.LASF124
 8602 1584 02       		.byte	0x2
 8603 1585 5402     		.2byte	0x254
 8604 1587 25000000 		.4byte	0x25
 8605 158b 45100000 		.4byte	.LLST108
 8606 158f 15       		.uleb128 0x15
 8607 1590 64060000 		.4byte	.LASF125
 8608 1594 02       		.byte	0x2
 8609 1595 5502     		.2byte	0x255
 8610 1597 25000000 		.4byte	0x25
 8611 159b 63100000 		.4byte	.LLST109
 8612 159f 1A       		.uleb128 0x1a
 8613 15a0 1C000000 		.4byte	.LVL483
ARM GAS  C:\Users\FRANKL~1\AppData\Local\Temp\ccnobXgu.s 			page 186


 8614 15a4 F60A0000 		.4byte	0xaf6
 8615 15a8 C0150000 		.4byte	0x15c0
 8616 15ac 19       		.uleb128 0x19
 8617 15ad 01       		.uleb128 0x1
 8618 15ae 50       		.byte	0x50
 8619 15af 02       		.uleb128 0x2
 8620 15b0 91       		.byte	0x91
 8621 15b1 5C       		.sleb128 -36
 8622 15b2 19       		.uleb128 0x19
 8623 15b3 01       		.uleb128 0x1
 8624 15b4 51       		.byte	0x51
 8625 15b5 02       		.uleb128 0x2
 8626 15b6 91       		.byte	0x91
 8627 15b7 58       		.sleb128 -40
 8628 15b8 19       		.uleb128 0x19
 8629 15b9 01       		.uleb128 0x1
 8630 15ba 52       		.byte	0x52
 8631 15bb 03       		.uleb128 0x3
 8632 15bc F3       		.byte	0xf3
 8633 15bd 01       		.uleb128 0x1
 8634 15be 50       		.byte	0x50
 8635 15bf 00       		.byte	0
 8636 15c0 1A       		.uleb128 0x1a
 8637 15c1 44000000 		.4byte	.LVL489
 8638 15c5 B70B0000 		.4byte	0xbb7
 8639 15c9 E0150000 		.4byte	0x15e0
 8640 15cd 19       		.uleb128 0x19
 8641 15ce 01       		.uleb128 0x1
 8642 15cf 50       		.byte	0x50
 8643 15d0 02       		.uleb128 0x2
 8644 15d1 91       		.byte	0x91
 8645 15d2 54       		.sleb128 -44
 8646 15d3 19       		.uleb128 0x19
 8647 15d4 01       		.uleb128 0x1
 8648 15d5 51       		.byte	0x51
 8649 15d6 02       		.uleb128 0x2
 8650 15d7 91       		.byte	0x91
 8651 15d8 50       		.sleb128 -48
 8652 15d9 19       		.uleb128 0x19
 8653 15da 01       		.uleb128 0x1
 8654 15db 52       		.byte	0x52
 8655 15dc 02       		.uleb128 0x2
 8656 15dd 77       		.byte	0x77
 8657 15de 00       		.sleb128 0
 8658 15df 00       		.byte	0
 8659 15e0 1A       		.uleb128 0x1a
 8660 15e1 4E000000 		.4byte	.LVL490
 8661 15e5 720C0000 		.4byte	0xc72
 8662 15e9 00160000 		.4byte	0x1600
 8663 15ed 19       		.uleb128 0x19
 8664 15ee 01       		.uleb128 0x1
 8665 15ef 50       		.byte	0x50
 8666 15f0 02       		.uleb128 0x2
 8667 15f1 91       		.byte	0x91
 8668 15f2 4C       		.sleb128 -52
 8669 15f3 19       		.uleb128 0x19
 8670 15f4 01       		.uleb128 0x1
ARM GAS  C:\Users\FRANKL~1\AppData\Local\Temp\ccnobXgu.s 			page 187


 8671 15f5 51       		.byte	0x51
 8672 15f6 02       		.uleb128 0x2
 8673 15f7 91       		.byte	0x91
 8674 15f8 48       		.sleb128 -56
 8675 15f9 19       		.uleb128 0x19
 8676 15fa 01       		.uleb128 0x1
 8677 15fb 52       		.byte	0x52
 8678 15fc 02       		.uleb128 0x2
 8679 15fd 75       		.byte	0x75
 8680 15fe 00       		.sleb128 0
 8681 15ff 00       		.byte	0
 8682 1600 10       		.uleb128 0x10
 8683 1601 68000000 		.4byte	.LVL495
 8684 1605 720F0000 		.4byte	0xf72
 8685 1609 10       		.uleb128 0x10
 8686 160a 6E000000 		.4byte	.LVL496
 8687 160e A40F0000 		.4byte	0xfa4
 8688 1612 1A       		.uleb128 0x1a
 8689 1613 AE000000 		.4byte	.LVL504
 8690 1617 E1320000 		.4byte	0x32e1
 8691 161b 36160000 		.4byte	0x1636
 8692 161f 19       		.uleb128 0x19
 8693 1620 01       		.uleb128 0x1
 8694 1621 50       		.byte	0x50
 8695 1622 02       		.uleb128 0x2
 8696 1623 74       		.byte	0x74
 8697 1624 00       		.sleb128 0
 8698 1625 19       		.uleb128 0x19
 8699 1626 01       		.uleb128 0x1
 8700 1627 51       		.byte	0x51
 8701 1628 05       		.uleb128 0x5
 8702 1629 03       		.byte	0x3
 8703 162a A8000000 		.4byte	.LC11
 8704 162e 19       		.uleb128 0x19
 8705 162f 02       		.uleb128 0x2
 8706 1630 7D       		.byte	0x7d
 8707 1631 18       		.sleb128 24
 8708 1632 02       		.uleb128 0x2
 8709 1633 75       		.byte	0x75
 8710 1634 00       		.sleb128 0
 8711 1635 00       		.byte	0
 8712 1636 1A       		.uleb128 0x1a
 8713 1637 B4000000 		.4byte	.LVL505
 8714 163b AA320000 		.4byte	0x32aa
 8715 163f 4A160000 		.4byte	0x164a
 8716 1643 19       		.uleb128 0x19
 8717 1644 01       		.uleb128 0x1
 8718 1645 50       		.byte	0x50
 8719 1646 02       		.uleb128 0x2
 8720 1647 74       		.byte	0x74
 8721 1648 00       		.sleb128 0
 8722 1649 00       		.byte	0
 8723 164a 1A       		.uleb128 0x1a
 8724 164b BC000000 		.4byte	.LVL506
 8725 164f 80030000 		.4byte	0x380
 8726 1653 5E160000 		.4byte	0x165e
 8727 1657 19       		.uleb128 0x19
ARM GAS  C:\Users\FRANKL~1\AppData\Local\Temp\ccnobXgu.s 			page 188


 8728 1658 01       		.uleb128 0x1
 8729 1659 50       		.byte	0x50
 8730 165a 02       		.uleb128 0x2
 8731 165b 74       		.byte	0x74
 8732 165c 00       		.sleb128 0
 8733 165d 00       		.byte	0
 8734 165e 18       		.uleb128 0x18
 8735 165f C2000000 		.4byte	.LVL507
 8736 1663 C0320000 		.4byte	0x32c0
 8737 1667 19       		.uleb128 0x19
 8738 1668 01       		.uleb128 0x1
 8739 1669 50       		.byte	0x50
 8740 166a 02       		.uleb128 0x2
 8741 166b 74       		.byte	0x74
 8742 166c 00       		.sleb128 0
 8743 166d 00       		.byte	0
 8744 166e 00       		.byte	0
 8745 166f 12       		.uleb128 0x12
 8746 1670 940B0000 		.4byte	.LASF126
 8747 1674 02       		.byte	0x2
 8748 1675 5D02     		.2byte	0x25d
 8749 1677 00000000 		.4byte	.LFB101
 8750 167b 1A000000 		.4byte	.LFE101-.LFB101
 8751 167f 01       		.uleb128 0x1
 8752 1680 9C       		.byte	0x9c
 8753 1681 C6160000 		.4byte	0x16c6
 8754 1685 28       		.uleb128 0x28
 8755 1686 6E00     		.ascii	"n\000"
 8756 1688 02       		.byte	0x2
 8757 1689 5D02     		.2byte	0x25d
 8758 168b CD000000 		.4byte	0xcd
 8759 168f 8B100000 		.4byte	.LLST110
 8760 1693 17       		.uleb128 0x17
 8761 1694 04000000 		.4byte	.LBB42
 8762 1698 14000000 		.4byte	.LBE42-.LBB42
 8763 169c 16       		.uleb128 0x16
 8764 169d 6900     		.ascii	"i\000"
 8765 169f 02       		.byte	0x2
 8766 16a0 5E02     		.2byte	0x25e
 8767 16a2 CD000000 		.4byte	0xcd
 8768 16a6 A9100000 		.4byte	.LLST111
 8769 16aa 18       		.uleb128 0x18
 8770 16ab 12000000 		.4byte	.LVL512
 8771 16af CF140000 		.4byte	0x14cf
 8772 16b3 19       		.uleb128 0x19
 8773 16b4 01       		.uleb128 0x1
 8774 16b5 50       		.byte	0x50
 8775 16b6 02       		.uleb128 0x2
 8776 16b7 08       		.byte	0x8
 8777 16b8 64       		.byte	0x64
 8778 16b9 19       		.uleb128 0x19
 8779 16ba 01       		.uleb128 0x1
 8780 16bb 51       		.byte	0x51
 8781 16bc 01       		.uleb128 0x1
 8782 16bd 31       		.byte	0x31
 8783 16be 19       		.uleb128 0x19
 8784 16bf 01       		.uleb128 0x1
ARM GAS  C:\Users\FRANKL~1\AppData\Local\Temp\ccnobXgu.s 			page 189


 8785 16c0 52       		.byte	0x52
 8786 16c1 01       		.uleb128 0x1
 8787 16c2 3A       		.byte	0x3a
 8788 16c3 00       		.byte	0
 8789 16c4 00       		.byte	0
 8790 16c5 00       		.byte	0
 8791 16c6 27       		.uleb128 0x27
 8792 16c7 4C0C0000 		.4byte	.LASF127
 8793 16cb 02       		.byte	0x2
 8794 16cc 6402     		.2byte	0x264
 8795 16ce 00000000 		.4byte	.LFB102
 8796 16d2 2C000000 		.4byte	.LFE102-.LFB102
 8797 16d6 01       		.uleb128 0x1
 8798 16d7 9C       		.byte	0x9c
 8799 16d8 4D170000 		.4byte	0x174d
 8800 16dc 13       		.uleb128 0x13
 8801 16dd 0E000000 		.4byte	.LBB43
 8802 16e1 1C000000 		.4byte	.LBE43-.LBB43
 8803 16e5 28170000 		.4byte	0x1728
 8804 16e9 15       		.uleb128 0x15
 8805 16ea 6B0A0000 		.4byte	.LASF128
 8806 16ee 02       		.byte	0x2
 8807 16ef 6802     		.2byte	0x268
 8808 16f1 C1000000 		.4byte	0xc1
 8809 16f5 C8100000 		.4byte	.LLST112
 8810 16f9 1A       		.uleb128 0x1a
 8811 16fa 18000000 		.4byte	.LVL517
 8812 16fe 91330000 		.4byte	0x3391
 8813 1702 0D170000 		.4byte	0x170d
 8814 1706 19       		.uleb128 0x19
 8815 1707 01       		.uleb128 0x1
 8816 1708 50       		.byte	0x50
 8817 1709 02       		.uleb128 0x2
 8818 170a 74       		.byte	0x74
 8819 170b 00       		.sleb128 0
 8820 170c 00       		.byte	0
 8821 170d 18       		.uleb128 0x18
 8822 170e 22000000 		.4byte	.LVL518
 8823 1712 CF140000 		.4byte	0x14cf
 8824 1716 19       		.uleb128 0x19
 8825 1717 01       		.uleb128 0x1
 8826 1718 50       		.byte	0x50
 8827 1719 02       		.uleb128 0x2
 8828 171a 08       		.byte	0x8
 8829 171b 64       		.byte	0x64
 8830 171c 19       		.uleb128 0x19
 8831 171d 01       		.uleb128 0x1
 8832 171e 51       		.byte	0x51
 8833 171f 01       		.uleb128 0x1
 8834 1720 31       		.byte	0x31
 8835 1721 19       		.uleb128 0x19
 8836 1722 01       		.uleb128 0x1
 8837 1723 52       		.byte	0x52
 8838 1724 01       		.uleb128 0x1
 8839 1725 31       		.byte	0x31
 8840 1726 00       		.byte	0
 8841 1727 00       		.byte	0
ARM GAS  C:\Users\FRANKL~1\AppData\Local\Temp\ccnobXgu.s 			page 190


 8842 1728 1A       		.uleb128 0x1a
 8843 1729 08000000 		.4byte	.LVL514
 8844 172d 86330000 		.4byte	0x3386
 8845 1731 3C170000 		.4byte	0x173c
 8846 1735 19       		.uleb128 0x19
 8847 1736 01       		.uleb128 0x1
 8848 1737 50       		.byte	0x50
 8849 1738 02       		.uleb128 0x2
 8850 1739 08       		.byte	0x8
 8851 173a 5A       		.byte	0x5a
 8852 173b 00       		.byte	0
 8853 173c 18       		.uleb128 0x18
 8854 173d 0E000000 		.4byte	.LVL515
 8855 1741 91330000 		.4byte	0x3391
 8856 1745 19       		.uleb128 0x19
 8857 1746 01       		.uleb128 0x1
 8858 1747 50       		.byte	0x50
 8859 1748 02       		.uleb128 0x2
 8860 1749 09       		.byte	0x9
 8861 174a FE       		.byte	0xfe
 8862 174b 00       		.byte	0
 8863 174c 00       		.byte	0
 8864 174d 12       		.uleb128 0x12
 8865 174e 3F040000 		.4byte	.LASF129
 8866 1752 02       		.byte	0x2
 8867 1753 6E02     		.2byte	0x26e
 8868 1755 00000000 		.4byte	.LFB103
 8869 1759 AC000000 		.4byte	.LFE103-.LFB103
 8870 175d 01       		.uleb128 0x1
 8871 175e 9C       		.byte	0x9c
 8872 175f 52180000 		.4byte	0x1852
 8873 1763 24       		.uleb128 0x24
 8874 1764 91040000 		.4byte	.LASF130
 8875 1768 02       		.byte	0x2
 8876 1769 6E02     		.2byte	0x26e
 8877 176b B5000000 		.4byte	0xb5
 8878 176f F2100000 		.4byte	.LLST113
 8879 1773 29       		.uleb128 0x29
 8880 1774 DE0C0000 		.4byte	.LASF133
 8881 1778 02       		.byte	0x2
 8882 1779 7602     		.2byte	0x276
 8883 177b D9000000 		.4byte	0xd9
 8884 177f 1D       		.uleb128 0x1d
 8885 1780 C0000000 		.4byte	.Ldebug_ranges0+0xc0
 8886 1784 38180000 		.4byte	0x1838
 8887 1788 16       		.uleb128 0x16
 8888 1789 6C00     		.ascii	"l\000"
 8889 178b 02       		.byte	0x2
 8890 178c 7802     		.2byte	0x278
 8891 178e B5000000 		.4byte	0xb5
 8892 1792 2C110000 		.4byte	.LLST114
 8893 1796 22       		.uleb128 0x22
 8894 1797 D8000000 		.4byte	.Ldebug_ranges0+0xd8
 8895 179b 15       		.uleb128 0x15
 8896 179c 9A000000 		.4byte	.LASF131
 8897 17a0 02       		.byte	0x2
 8898 17a1 7902     		.2byte	0x279
ARM GAS  C:\Users\FRANKL~1\AppData\Local\Temp\ccnobXgu.s 			page 191


 8899 17a3 D9000000 		.4byte	0xd9
 8900 17a7 4A110000 		.4byte	.LLST115
 8901 17ab 15       		.uleb128 0x15
 8902 17ac B8000000 		.4byte	.LASF87
 8903 17b0 02       		.byte	0x2
 8904 17b1 7A02     		.2byte	0x27a
 8905 17b3 B5000000 		.4byte	0xb5
 8906 17b7 69110000 		.4byte	.LLST116
 8907 17bb 15       		.uleb128 0x15
 8908 17bc AC080000 		.4byte	.LASF88
 8909 17c0 02       		.byte	0x2
 8910 17c1 7F02     		.2byte	0x27f
 8911 17c3 B5000000 		.4byte	0xb5
 8912 17c7 AA110000 		.4byte	.LLST117
 8913 17cb 22       		.uleb128 0x22
 8914 17cc F0000000 		.4byte	.Ldebug_ranges0+0xf0
 8915 17d0 16       		.uleb128 0x16
 8916 17d1 6900     		.ascii	"i\000"
 8917 17d3 02       		.byte	0x2
 8918 17d4 8702     		.2byte	0x287
 8919 17d6 B5000000 		.4byte	0xb5
 8920 17da CA110000 		.4byte	.LLST118
 8921 17de 22       		.uleb128 0x22
 8922 17df 08010000 		.4byte	.Ldebug_ranges0+0x108
 8923 17e3 16       		.uleb128 0x16
 8924 17e4 6A00     		.ascii	"j\000"
 8925 17e6 02       		.byte	0x2
 8926 17e7 8802     		.2byte	0x288
 8927 17e9 B5000000 		.4byte	0xb5
 8928 17ed E8110000 		.4byte	.LLST119
 8929 17f1 1A       		.uleb128 0x1a
 8930 17f2 5C000000 		.4byte	.LVL534
 8931 17f6 54110000 		.4byte	0x1154
 8932 17fa 06180000 		.4byte	0x1806
 8933 17fe 19       		.uleb128 0x19
 8934 17ff 01       		.uleb128 0x1
 8935 1800 50       		.byte	0x50
 8936 1801 03       		.uleb128 0x3
 8937 1802 75       		.byte	0x75
 8938 1803 00       		.sleb128 0
 8939 1804 20       		.byte	0x20
 8940 1805 00       		.byte	0
 8941 1806 1A       		.uleb128 0x1a
 8942 1807 62000000 		.4byte	.LVL535
 8943 180b 95100000 		.4byte	0x1095
 8944 180f 1A180000 		.4byte	0x181a
 8945 1813 19       		.uleb128 0x19
 8946 1814 01       		.uleb128 0x1
 8947 1815 50       		.byte	0x50
 8948 1816 02       		.uleb128 0x2
 8949 1817 75       		.byte	0x75
 8950 1818 00       		.sleb128 0
 8951 1819 00       		.byte	0
 8952 181a 18       		.uleb128 0x18
 8953 181b 6C000000 		.4byte	.LVL536
 8954 181f CF140000 		.4byte	0x14cf
 8955 1823 19       		.uleb128 0x19
ARM GAS  C:\Users\FRANKL~1\AppData\Local\Temp\ccnobXgu.s 			page 192


 8956 1824 01       		.uleb128 0x1
 8957 1825 50       		.byte	0x50
 8958 1826 02       		.uleb128 0x2
 8959 1827 08       		.byte	0x8
 8960 1828 21       		.byte	0x21
 8961 1829 19       		.uleb128 0x19
 8962 182a 01       		.uleb128 0x1
 8963 182b 51       		.byte	0x51
 8964 182c 01       		.uleb128 0x1
 8965 182d 31       		.byte	0x31
 8966 182e 19       		.uleb128 0x19
 8967 182f 01       		.uleb128 0x1
 8968 1830 52       		.byte	0x52
 8969 1831 01       		.uleb128 0x1
 8970 1832 31       		.byte	0x31
 8971 1833 00       		.byte	0
 8972 1834 00       		.byte	0
 8973 1835 00       		.byte	0
 8974 1836 00       		.byte	0
 8975 1837 00       		.byte	0
 8976 1838 10       		.uleb128 0x10
 8977 1839 1A000000 		.4byte	.LVL523
 8978 183d 54110000 		.4byte	0x1154
 8979 1841 18       		.uleb128 0x18
 8980 1842 26000000 		.4byte	.LVL526
 8981 1846 54110000 		.4byte	0x1154
 8982 184a 19       		.uleb128 0x19
 8983 184b 01       		.uleb128 0x1
 8984 184c 50       		.byte	0x50
 8985 184d 02       		.uleb128 0x2
 8986 184e 09       		.byte	0x9
 8987 184f FE       		.byte	0xfe
 8988 1850 00       		.byte	0
 8989 1851 00       		.byte	0
 8990 1852 12       		.uleb128 0x12
 8991 1853 B4060000 		.4byte	.LASF132
 8992 1857 02       		.byte	0x2
 8993 1858 9502     		.2byte	0x295
 8994 185a 00000000 		.4byte	.LFB104
 8995 185e 84000000 		.4byte	.LFE104-.LFB104
 8996 1862 01       		.uleb128 0x1
 8997 1863 9C       		.byte	0x9c
 8998 1864 5B190000 		.4byte	0x195b
 8999 1868 24       		.uleb128 0x24
 9000 1869 91040000 		.4byte	.LASF130
 9001 186d 02       		.byte	0x2
 9002 186e 9502     		.2byte	0x295
 9003 1870 B5000000 		.4byte	0xb5
 9004 1874 11120000 		.4byte	.LLST120
 9005 1878 2A       		.uleb128 0x2a
 9006 1879 DE0C0000 		.4byte	.LASF133
 9007 187d 02       		.byte	0x2
 9008 187e 9802     		.2byte	0x298
 9009 1880 D9000000 		.4byte	0xd9
 9010 1884 10       		.byte	0x10
 9011 1885 13       		.uleb128 0x13
 9012 1886 0C000000 		.4byte	.LBB52
ARM GAS  C:\Users\FRANKL~1\AppData\Local\Temp\ccnobXgu.s 			page 193


 9013 188a 6E000000 		.4byte	.LBE52-.LBB52
 9014 188e 4A190000 		.4byte	0x194a
 9015 1892 16       		.uleb128 0x16
 9016 1893 6C00     		.ascii	"l\000"
 9017 1895 02       		.byte	0x2
 9018 1896 9A02     		.2byte	0x29a
 9019 1898 B5000000 		.4byte	0xb5
 9020 189c 32120000 		.4byte	.LLST121
 9021 18a0 17       		.uleb128 0x17
 9022 18a1 12000000 		.4byte	.LBB53
 9023 18a5 5C000000 		.4byte	.LBE53-.LBB53
 9024 18a9 15       		.uleb128 0x15
 9025 18aa 9A000000 		.4byte	.LASF131
 9026 18ae 02       		.byte	0x2
 9027 18af 9B02     		.2byte	0x29b
 9028 18b1 D9000000 		.4byte	0xd9
 9029 18b5 5C120000 		.4byte	.LLST122
 9030 18b9 15       		.uleb128 0x15
 9031 18ba B8000000 		.4byte	.LASF87
 9032 18be 02       		.byte	0x2
 9033 18bf 9C02     		.2byte	0x29c
 9034 18c1 B5000000 		.4byte	0xb5
 9035 18c5 7B120000 		.4byte	.LLST123
 9036 18c9 15       		.uleb128 0x15
 9037 18ca AC080000 		.4byte	.LASF88
 9038 18ce 02       		.byte	0x2
 9039 18cf 9D02     		.2byte	0x29d
 9040 18d1 B5000000 		.4byte	0xb5
 9041 18d5 9A120000 		.4byte	.LLST124
 9042 18d9 17       		.uleb128 0x17
 9043 18da 28000000 		.4byte	.LBB54
 9044 18de 46000000 		.4byte	.LBE54-.LBB54
 9045 18e2 16       		.uleb128 0x16
 9046 18e3 6900     		.ascii	"i\000"
 9047 18e5 02       		.byte	0x2
 9048 18e6 A502     		.2byte	0x2a5
 9049 18e8 B5000000 		.4byte	0xb5
 9050 18ec BA120000 		.4byte	.LLST125
 9051 18f0 22       		.uleb128 0x22
 9052 18f1 20010000 		.4byte	.Ldebug_ranges0+0x120
 9053 18f5 16       		.uleb128 0x16
 9054 18f6 6A00     		.ascii	"j\000"
 9055 18f8 02       		.byte	0x2
 9056 18f9 A602     		.2byte	0x2a6
 9057 18fb B5000000 		.4byte	0xb5
 9058 18ff D8120000 		.4byte	.LLST126
 9059 1903 1A       		.uleb128 0x1a
 9060 1904 36000000 		.4byte	.LVL552
 9061 1908 54110000 		.4byte	0x1154
 9062 190c 18190000 		.4byte	0x1918
 9063 1910 19       		.uleb128 0x19
 9064 1911 01       		.uleb128 0x1
 9065 1912 50       		.byte	0x50
 9066 1913 03       		.uleb128 0x3
 9067 1914 75       		.byte	0x75
 9068 1915 00       		.sleb128 0
 9069 1916 20       		.byte	0x20
ARM GAS  C:\Users\FRANKL~1\AppData\Local\Temp\ccnobXgu.s 			page 194


 9070 1917 00       		.byte	0
 9071 1918 1A       		.uleb128 0x1a
 9072 1919 3C000000 		.4byte	.LVL553
 9073 191d 95100000 		.4byte	0x1095
 9074 1921 2C190000 		.4byte	0x192c
 9075 1925 19       		.uleb128 0x19
 9076 1926 01       		.uleb128 0x1
 9077 1927 50       		.byte	0x50
 9078 1928 02       		.uleb128 0x2
 9079 1929 75       		.byte	0x75
 9080 192a 00       		.sleb128 0
 9081 192b 00       		.byte	0
 9082 192c 18       		.uleb128 0x18
 9083 192d 46000000 		.4byte	.LVL554
 9084 1931 CF140000 		.4byte	0x14cf
 9085 1935 19       		.uleb128 0x19
 9086 1936 01       		.uleb128 0x1
 9087 1937 50       		.byte	0x50
 9088 1938 02       		.uleb128 0x2
 9089 1939 08       		.byte	0x8
 9090 193a 21       		.byte	0x21
 9091 193b 19       		.uleb128 0x19
 9092 193c 01       		.uleb128 0x1
 9093 193d 51       		.byte	0x51
 9094 193e 01       		.uleb128 0x1
 9095 193f 31       		.byte	0x31
 9096 1940 19       		.uleb128 0x19
 9097 1941 01       		.uleb128 0x1
 9098 1942 52       		.byte	0x52
 9099 1943 01       		.uleb128 0x1
 9100 1944 31       		.byte	0x31
 9101 1945 00       		.byte	0
 9102 1946 00       		.byte	0
 9103 1947 00       		.byte	0
 9104 1948 00       		.byte	0
 9105 1949 00       		.byte	0
 9106 194a 18       		.uleb128 0x18
 9107 194b 0C000000 		.4byte	.LVL548
 9108 194f 54110000 		.4byte	0x1154
 9109 1953 19       		.uleb128 0x19
 9110 1954 01       		.uleb128 0x1
 9111 1955 50       		.byte	0x50
 9112 1956 02       		.uleb128 0x2
 9113 1957 09       		.byte	0x9
 9114 1958 FE       		.byte	0xfe
 9115 1959 00       		.byte	0
 9116 195a 00       		.byte	0
 9117 195b 27       		.uleb128 0x27
 9118 195c D1010000 		.4byte	.LASF134
 9119 1960 02       		.byte	0x2
 9120 1961 B402     		.2byte	0x2b4
 9121 1963 00000000 		.4byte	.LFB105
 9122 1967 98000000 		.4byte	.LFE105-.LFB105
 9123 196b 01       		.uleb128 0x1
 9124 196c 9C       		.byte	0x9c
 9125 196d 521A0000 		.4byte	0x1a52
 9126 1971 15       		.uleb128 0x15
ARM GAS  C:\Users\FRANKL~1\AppData\Local\Temp\ccnobXgu.s 			page 195


 9127 1972 0C070000 		.4byte	.LASF135
 9128 1976 02       		.byte	0x2
 9129 1977 B502     		.2byte	0x2b5
 9130 1979 B5000000 		.4byte	0xb5
 9131 197d 01130000 		.4byte	.LLST127
 9132 1981 2A       		.uleb128 0x2a
 9133 1982 5E080000 		.4byte	.LASF136
 9134 1986 02       		.byte	0x2
 9135 1987 B602     		.2byte	0x2b6
 9136 1989 D9000000 		.4byte	0xd9
 9137 198d 01       		.byte	0x1
 9138 198e 2A       		.uleb128 0x2a
 9139 198f D2040000 		.4byte	.LASF137
 9140 1993 02       		.byte	0x2
 9141 1994 B702     		.2byte	0x2b7
 9142 1996 B5000000 		.4byte	0xb5
 9143 199a 00       		.byte	0
 9144 199b 2A       		.uleb128 0x2a
 9145 199c E40C0000 		.4byte	.LASF138
 9146 19a0 02       		.byte	0x2
 9147 19a1 B802     		.2byte	0x2b8
 9148 19a3 B5000000 		.4byte	0xb5
 9149 19a7 00       		.byte	0
 9150 19a8 15       		.uleb128 0x15
 9151 19a9 A3080000 		.4byte	.LASF139
 9152 19ad 02       		.byte	0x2
 9153 19ae B902     		.2byte	0x2b9
 9154 19b0 B5000000 		.4byte	0xb5
 9155 19b4 36130000 		.4byte	.LLST128
 9156 19b8 15       		.uleb128 0x15
 9157 19b9 06060000 		.4byte	.LASF140
 9158 19bd 02       		.byte	0x2
 9159 19be BA02     		.2byte	0x2ba
 9160 19c0 B5000000 		.4byte	0xb5
 9161 19c4 60130000 		.4byte	.LLST129
 9162 19c8 2A       		.uleb128 0x2a
 9163 19c9 DB060000 		.4byte	.LASF141
 9164 19cd 02       		.byte	0x2
 9165 19ce BC02     		.2byte	0x2bc
 9166 19d0 D9000000 		.4byte	0xd9
 9167 19d4 01       		.byte	0x1
 9168 19d5 2A       		.uleb128 0x2a
 9169 19d6 8B000000 		.4byte	.LASF142
 9170 19da 02       		.byte	0x2
 9171 19db BD02     		.2byte	0x2bd
 9172 19dd B5000000 		.4byte	0xb5
 9173 19e1 00       		.byte	0
 9174 19e2 2A       		.uleb128 0x2a
 9175 19e3 91080000 		.4byte	.LASF143
 9176 19e7 02       		.byte	0x2
 9177 19e8 BE02     		.2byte	0x2be
 9178 19ea B5000000 		.4byte	0xb5
 9179 19ee 00       		.byte	0
 9180 19ef 15       		.uleb128 0x15
 9181 19f0 F0070000 		.4byte	.LASF144
 9182 19f4 02       		.byte	0x2
 9183 19f5 BF02     		.2byte	0x2bf
ARM GAS  C:\Users\FRANKL~1\AppData\Local\Temp\ccnobXgu.s 			page 196


 9184 19f7 B5000000 		.4byte	0xb5
 9185 19fb 8A130000 		.4byte	.LLST130
 9186 19ff 15       		.uleb128 0x15
 9187 1a00 E8010000 		.4byte	.LASF145
 9188 1a04 02       		.byte	0x2
 9189 1a05 C002     		.2byte	0x2c0
 9190 1a07 B5000000 		.4byte	0xb5
 9191 1a0b B4130000 		.4byte	.LLST131
 9192 1a0f 1A       		.uleb128 0x1a
 9193 1a10 52000000 		.4byte	.LVL571
 9194 1a14 54110000 		.4byte	0x1154
 9195 1a18 231A0000 		.4byte	0x1a23
 9196 1a1c 19       		.uleb128 0x19
 9197 1a1d 01       		.uleb128 0x1
 9198 1a1e 50       		.byte	0x50
 9199 1a1f 02       		.uleb128 0x2
 9200 1a20 75       		.byte	0x75
 9201 1a21 00       		.sleb128 0
 9202 1a22 00       		.byte	0
 9203 1a23 1A       		.uleb128 0x1a
 9204 1a24 58000000 		.4byte	.LVL572
 9205 1a28 95100000 		.4byte	0x1095
 9206 1a2c 371A0000 		.4byte	0x1a37
 9207 1a30 19       		.uleb128 0x19
 9208 1a31 01       		.uleb128 0x1
 9209 1a32 50       		.byte	0x50
 9210 1a33 02       		.uleb128 0x2
 9211 1a34 76       		.byte	0x76
 9212 1a35 00       		.sleb128 0
 9213 1a36 00       		.byte	0
 9214 1a37 18       		.uleb128 0x18
 9215 1a38 62000000 		.4byte	.LVL573
 9216 1a3c CF140000 		.4byte	0x14cf
 9217 1a40 19       		.uleb128 0x19
 9218 1a41 01       		.uleb128 0x1
 9219 1a42 50       		.byte	0x50
 9220 1a43 02       		.uleb128 0x2
 9221 1a44 08       		.byte	0x8
 9222 1a45 64       		.byte	0x64
 9223 1a46 19       		.uleb128 0x19
 9224 1a47 01       		.uleb128 0x1
 9225 1a48 51       		.byte	0x51
 9226 1a49 01       		.uleb128 0x1
 9227 1a4a 31       		.byte	0x31
 9228 1a4b 19       		.uleb128 0x19
 9229 1a4c 01       		.uleb128 0x1
 9230 1a4d 52       		.byte	0x52
 9231 1a4e 01       		.uleb128 0x1
 9232 1a4f 31       		.byte	0x31
 9233 1a50 00       		.byte	0
 9234 1a51 00       		.byte	0
 9235 1a52 12       		.uleb128 0x12
 9236 1a53 DF050000 		.4byte	.LASF146
 9237 1a57 02       		.byte	0x2
 9238 1a58 DC02     		.2byte	0x2dc
 9239 1a5a 00000000 		.4byte	.LFB106
 9240 1a5e 90000000 		.4byte	.LFE106-.LFB106
ARM GAS  C:\Users\FRANKL~1\AppData\Local\Temp\ccnobXgu.s 			page 197


 9241 1a62 01       		.uleb128 0x1
 9242 1a63 9C       		.byte	0x9c
 9243 1a64 BD1B0000 		.4byte	0x1bbd
 9244 1a68 24       		.uleb128 0x24
 9245 1a69 75000000 		.4byte	.LASF147
 9246 1a6d 02       		.byte	0x2
 9247 1a6e DC02     		.2byte	0x2dc
 9248 1a70 B5000000 		.4byte	0xb5
 9249 1a74 DE130000 		.4byte	.LLST132
 9250 1a78 24       		.uleb128 0x24
 9251 1a79 91040000 		.4byte	.LASF130
 9252 1a7d 02       		.byte	0x2
 9253 1a7e DC02     		.2byte	0x2dc
 9254 1a80 B5000000 		.4byte	0xb5
 9255 1a84 FF130000 		.4byte	.LLST133
 9256 1a88 17       		.uleb128 0x17
 9257 1a89 08000000 		.4byte	.LBB57
 9258 1a8d 88000000 		.4byte	.LBE57-.LBB57
 9259 1a91 15       		.uleb128 0x15
 9260 1a92 F4010000 		.4byte	.LASF148
 9261 1a96 02       		.byte	0x2
 9262 1a97 DD02     		.2byte	0x2dd
 9263 1a99 B5000000 		.4byte	0xb5
 9264 1a9d 20140000 		.4byte	.LLST134
 9265 1aa1 17       		.uleb128 0x17
 9266 1aa2 0C000000 		.4byte	.LBB58
 9267 1aa6 6E000000 		.4byte	.LBE58-.LBB58
 9268 1aaa 15       		.uleb128 0x15
 9269 1aab 55080000 		.4byte	.LASF149
 9270 1aaf 02       		.byte	0x2
 9271 1ab0 DE02     		.2byte	0x2de
 9272 1ab2 B5000000 		.4byte	0xb5
 9273 1ab6 3F140000 		.4byte	.LLST135
 9274 1aba 15       		.uleb128 0x15
 9275 1abb 10050000 		.4byte	.LASF150
 9276 1abf 02       		.byte	0x2
 9277 1ac0 DF02     		.2byte	0x2df
 9278 1ac2 B5000000 		.4byte	0xb5
 9279 1ac6 52140000 		.4byte	.LLST136
 9280 1aca 15       		.uleb128 0x15
 9281 1acb 98060000 		.4byte	.LASF151
 9282 1acf 02       		.byte	0x2
 9283 1ad0 E002     		.2byte	0x2e0
 9284 1ad2 B5000000 		.4byte	0xb5
 9285 1ad6 65140000 		.4byte	.LLST137
 9286 1ada 15       		.uleb128 0x15
 9287 1adb A6060000 		.4byte	.LASF152
 9288 1adf 02       		.byte	0x2
 9289 1ae0 E102     		.2byte	0x2e1
 9290 1ae2 B5000000 		.4byte	0xb5
 9291 1ae6 79140000 		.4byte	.LLST138
 9292 1aea 10       		.uleb128 0x10
 9293 1aeb 14000000 		.4byte	.LVL585
 9294 1aef 91090000 		.4byte	0x991
 9295 1af3 10       		.uleb128 0x10
 9296 1af4 18000000 		.4byte	.LVL586
 9297 1af8 70140000 		.4byte	0x1470
ARM GAS  C:\Users\FRANKL~1\AppData\Local\Temp\ccnobXgu.s 			page 198


 9298 1afc 10       		.uleb128 0x10
 9299 1afd 1C000000 		.4byte	.LVL587
 9300 1b01 B90A0000 		.4byte	0xab9
 9301 1b05 1A       		.uleb128 0x1a
 9302 1b06 24000000 		.4byte	.LVL588
 9303 1b0a 92080000 		.4byte	0x892
 9304 1b0e 1E1B0000 		.4byte	0x1b1e
 9305 1b12 19       		.uleb128 0x19
 9306 1b13 01       		.uleb128 0x1
 9307 1b14 50       		.byte	0x50
 9308 1b15 02       		.uleb128 0x2
 9309 1b16 74       		.byte	0x74
 9310 1b17 00       		.sleb128 0
 9311 1b18 19       		.uleb128 0x19
 9312 1b19 01       		.uleb128 0x1
 9313 1b1a 51       		.byte	0x51
 9314 1b1b 01       		.uleb128 0x1
 9315 1b1c 31       		.byte	0x31
 9316 1b1d 00       		.byte	0
 9317 1b1e 1A       		.uleb128 0x1a
 9318 1b1f 2C000000 		.4byte	.LVL589
 9319 1b23 92080000 		.4byte	0x892
 9320 1b27 371B0000 		.4byte	0x1b37
 9321 1b2b 19       		.uleb128 0x19
 9322 1b2c 01       		.uleb128 0x1
 9323 1b2d 50       		.byte	0x50
 9324 1b2e 02       		.uleb128 0x2
 9325 1b2f 76       		.byte	0x76
 9326 1b30 00       		.sleb128 0
 9327 1b31 19       		.uleb128 0x19
 9328 1b32 01       		.uleb128 0x1
 9329 1b33 51       		.byte	0x51
 9330 1b34 01       		.uleb128 0x1
 9331 1b35 32       		.byte	0x32
 9332 1b36 00       		.byte	0
 9333 1b37 1A       		.uleb128 0x1a
 9334 1b38 38000000 		.4byte	.LVL590
 9335 1b3c E1320000 		.4byte	0x32e1
 9336 1b40 5A1B0000 		.4byte	0x1b5a
 9337 1b44 19       		.uleb128 0x19
 9338 1b45 01       		.uleb128 0x1
 9339 1b46 50       		.byte	0x50
 9340 1b47 02       		.uleb128 0x2
 9341 1b48 75       		.byte	0x75
 9342 1b49 00       		.sleb128 0
 9343 1b4a 19       		.uleb128 0x19
 9344 1b4b 01       		.uleb128 0x1
 9345 1b4c 51       		.byte	0x51
 9346 1b4d 05       		.uleb128 0x5
 9347 1b4e 03       		.byte	0x3
 9348 1b4f BC000000 		.4byte	.LC12
 9349 1b53 19       		.uleb128 0x19
 9350 1b54 01       		.uleb128 0x1
 9351 1b55 52       		.byte	0x52
 9352 1b56 02       		.uleb128 0x2
 9353 1b57 74       		.byte	0x74
 9354 1b58 00       		.sleb128 0
ARM GAS  C:\Users\FRANKL~1\AppData\Local\Temp\ccnobXgu.s 			page 199


 9355 1b59 00       		.byte	0
 9356 1b5a 1A       		.uleb128 0x1a
 9357 1b5b 3E000000 		.4byte	.LVL591
 9358 1b5f AA320000 		.4byte	0x32aa
 9359 1b63 6E1B0000 		.4byte	0x1b6e
 9360 1b67 19       		.uleb128 0x19
 9361 1b68 01       		.uleb128 0x1
 9362 1b69 50       		.byte	0x50
 9363 1b6a 02       		.uleb128 0x2
 9364 1b6b 75       		.byte	0x75
 9365 1b6c 00       		.sleb128 0
 9366 1b6d 00       		.byte	0
 9367 1b6e 1A       		.uleb128 0x1a
 9368 1b6f 46000000 		.4byte	.LVL592
 9369 1b73 80030000 		.4byte	0x380
 9370 1b77 821B0000 		.4byte	0x1b82
 9371 1b7b 19       		.uleb128 0x19
 9372 1b7c 01       		.uleb128 0x1
 9373 1b7d 50       		.byte	0x50
 9374 1b7e 02       		.uleb128 0x2
 9375 1b7f 75       		.byte	0x75
 9376 1b80 00       		.sleb128 0
 9377 1b81 00       		.byte	0
 9378 1b82 1A       		.uleb128 0x1a
 9379 1b83 4C000000 		.4byte	.LVL593
 9380 1b87 C0320000 		.4byte	0x32c0
 9381 1b8b 961B0000 		.4byte	0x1b96
 9382 1b8f 19       		.uleb128 0x19
 9383 1b90 01       		.uleb128 0x1
 9384 1b91 50       		.byte	0x50
 9385 1b92 02       		.uleb128 0x2
 9386 1b93 75       		.byte	0x75
 9387 1b94 00       		.sleb128 0
 9388 1b95 00       		.byte	0
 9389 1b96 1A       		.uleb128 0x1a
 9390 1b97 54000000 		.4byte	.LVL594
 9391 1b9b 52180000 		.4byte	0x1852
 9392 1b9f AA1B0000 		.4byte	0x1baa
 9393 1ba3 19       		.uleb128 0x19
 9394 1ba4 01       		.uleb128 0x1
 9395 1ba5 50       		.byte	0x50
 9396 1ba6 02       		.uleb128 0x2
 9397 1ba7 78       		.byte	0x78
 9398 1ba8 00       		.sleb128 0
 9399 1ba9 00       		.byte	0
 9400 1baa 18       		.uleb128 0x18
 9401 1bab 5C000000 		.4byte	.LVL595
 9402 1baf 4D170000 		.4byte	0x174d
 9403 1bb3 19       		.uleb128 0x19
 9404 1bb4 01       		.uleb128 0x1
 9405 1bb5 50       		.byte	0x50
 9406 1bb6 02       		.uleb128 0x2
 9407 1bb7 78       		.byte	0x78
 9408 1bb8 00       		.sleb128 0
 9409 1bb9 00       		.byte	0
 9410 1bba 00       		.byte	0
 9411 1bbb 00       		.byte	0
ARM GAS  C:\Users\FRANKL~1\AppData\Local\Temp\ccnobXgu.s 			page 200


 9412 1bbc 00       		.byte	0
 9413 1bbd 12       		.uleb128 0x12
 9414 1bbe C60C0000 		.4byte	.LASF153
 9415 1bc2 02       		.byte	0x2
 9416 1bc3 F802     		.2byte	0x2f8
 9417 1bc5 00000000 		.4byte	.LFB107
 9418 1bc9 A4000000 		.4byte	.LFE107-.LFB107
 9419 1bcd 01       		.uleb128 0x1
 9420 1bce 9C       		.byte	0x9c
 9421 1bcf 481D0000 		.4byte	0x1d48
 9422 1bd3 24       		.uleb128 0x24
 9423 1bd4 AC010000 		.4byte	.LASF154
 9424 1bd8 02       		.byte	0x2
 9425 1bd9 F802     		.2byte	0x2f8
 9426 1bdb B5000000 		.4byte	0xb5
 9427 1bdf 8D140000 		.4byte	.LLST139
 9428 1be3 24       		.uleb128 0x24
 9429 1be4 2D000000 		.4byte	.LASF155
 9430 1be8 02       		.byte	0x2
 9431 1be9 F802     		.2byte	0x2f8
 9432 1beb B5000000 		.4byte	0xb5
 9433 1bef B9140000 		.4byte	.LLST140
 9434 1bf3 24       		.uleb128 0x24
 9435 1bf4 75000000 		.4byte	.LASF147
 9436 1bf8 02       		.byte	0x2
 9437 1bf9 F802     		.2byte	0x2f8
 9438 1bfb B5000000 		.4byte	0xb5
 9439 1bff E5140000 		.4byte	.LLST141
 9440 1c03 24       		.uleb128 0x24
 9441 1c04 91040000 		.4byte	.LASF130
 9442 1c08 02       		.byte	0x2
 9443 1c09 F802     		.2byte	0x2f8
 9444 1c0b B5000000 		.4byte	0xb5
 9445 1c0f 11150000 		.4byte	.LLST142
 9446 1c13 17       		.uleb128 0x17
 9447 1c14 18000000 		.4byte	.LBB59
 9448 1c18 8C000000 		.4byte	.LBE59-.LBB59
 9449 1c1c 15       		.uleb128 0x15
 9450 1c1d F4010000 		.4byte	.LASF148
 9451 1c21 02       		.byte	0x2
 9452 1c22 FC02     		.2byte	0x2fc
 9453 1c24 B5000000 		.4byte	0xb5
 9454 1c28 3D150000 		.4byte	.LLST143
 9455 1c2c 17       		.uleb128 0x17
 9456 1c2d 18000000 		.4byte	.LBB60
 9457 1c31 72000000 		.4byte	.LBE60-.LBB60
 9458 1c35 15       		.uleb128 0x15
 9459 1c36 55080000 		.4byte	.LASF149
 9460 1c3a 02       		.byte	0x2
 9461 1c3b FD02     		.2byte	0x2fd
 9462 1c3d B5000000 		.4byte	0xb5
 9463 1c41 50150000 		.4byte	.LLST144
 9464 1c45 15       		.uleb128 0x15
 9465 1c46 10050000 		.4byte	.LASF150
 9466 1c4a 02       		.byte	0x2
 9467 1c4b FE02     		.2byte	0x2fe
 9468 1c4d B5000000 		.4byte	0xb5
ARM GAS  C:\Users\FRANKL~1\AppData\Local\Temp\ccnobXgu.s 			page 201


 9469 1c51 63150000 		.4byte	.LLST145
 9470 1c55 15       		.uleb128 0x15
 9471 1c56 98060000 		.4byte	.LASF151
 9472 1c5a 02       		.byte	0x2
 9473 1c5b FF02     		.2byte	0x2ff
 9474 1c5d B5000000 		.4byte	0xb5
 9475 1c61 76150000 		.4byte	.LLST146
 9476 1c65 15       		.uleb128 0x15
 9477 1c66 A6060000 		.4byte	.LASF152
 9478 1c6a 02       		.byte	0x2
 9479 1c6b 0003     		.2byte	0x300
 9480 1c6d B5000000 		.4byte	0xb5
 9481 1c71 8A150000 		.4byte	.LLST147
 9482 1c75 10       		.uleb128 0x10
 9483 1c76 20000000 		.4byte	.LVL601
 9484 1c7a 91090000 		.4byte	0x991
 9485 1c7e 10       		.uleb128 0x10
 9486 1c7f 24000000 		.4byte	.LVL602
 9487 1c83 70140000 		.4byte	0x1470
 9488 1c87 10       		.uleb128 0x10
 9489 1c88 28000000 		.4byte	.LVL603
 9490 1c8c B90A0000 		.4byte	0xab9
 9491 1c90 1A       		.uleb128 0x1a
 9492 1c91 30000000 		.4byte	.LVL604
 9493 1c95 92080000 		.4byte	0x892
 9494 1c99 A91C0000 		.4byte	0x1ca9
 9495 1c9d 19       		.uleb128 0x19
 9496 1c9e 01       		.uleb128 0x1
 9497 1c9f 50       		.byte	0x50
 9498 1ca0 02       		.uleb128 0x2
 9499 1ca1 74       		.byte	0x74
 9500 1ca2 00       		.sleb128 0
 9501 1ca3 19       		.uleb128 0x19
 9502 1ca4 01       		.uleb128 0x1
 9503 1ca5 51       		.byte	0x51
 9504 1ca6 01       		.uleb128 0x1
 9505 1ca7 31       		.byte	0x31
 9506 1ca8 00       		.byte	0
 9507 1ca9 1A       		.uleb128 0x1a
 9508 1caa 38000000 		.4byte	.LVL605
 9509 1cae 92080000 		.4byte	0x892
 9510 1cb2 C21C0000 		.4byte	0x1cc2
 9511 1cb6 19       		.uleb128 0x19
 9512 1cb7 01       		.uleb128 0x1
 9513 1cb8 50       		.byte	0x50
 9514 1cb9 02       		.uleb128 0x2
 9515 1cba 76       		.byte	0x76
 9516 1cbb 00       		.sleb128 0
 9517 1cbc 19       		.uleb128 0x19
 9518 1cbd 01       		.uleb128 0x1
 9519 1cbe 51       		.byte	0x51
 9520 1cbf 01       		.uleb128 0x1
 9521 1cc0 32       		.byte	0x32
 9522 1cc1 00       		.byte	0
 9523 1cc2 1A       		.uleb128 0x1a
 9524 1cc3 44000000 		.4byte	.LVL606
 9525 1cc7 E1320000 		.4byte	0x32e1
ARM GAS  C:\Users\FRANKL~1\AppData\Local\Temp\ccnobXgu.s 			page 202


 9526 1ccb E51C0000 		.4byte	0x1ce5
 9527 1ccf 19       		.uleb128 0x19
 9528 1cd0 01       		.uleb128 0x1
 9529 1cd1 50       		.byte	0x50
 9530 1cd2 02       		.uleb128 0x2
 9531 1cd3 75       		.byte	0x75
 9532 1cd4 00       		.sleb128 0
 9533 1cd5 19       		.uleb128 0x19
 9534 1cd6 01       		.uleb128 0x1
 9535 1cd7 51       		.byte	0x51
 9536 1cd8 05       		.uleb128 0x5
 9537 1cd9 03       		.byte	0x3
 9538 1cda BC000000 		.4byte	.LC12
 9539 1cde 19       		.uleb128 0x19
 9540 1cdf 01       		.uleb128 0x1
 9541 1ce0 52       		.byte	0x52
 9542 1ce1 02       		.uleb128 0x2
 9543 1ce2 74       		.byte	0x74
 9544 1ce3 00       		.sleb128 0
 9545 1ce4 00       		.byte	0
 9546 1ce5 1A       		.uleb128 0x1a
 9547 1ce6 4A000000 		.4byte	.LVL607
 9548 1cea AA320000 		.4byte	0x32aa
 9549 1cee F91C0000 		.4byte	0x1cf9
 9550 1cf2 19       		.uleb128 0x19
 9551 1cf3 01       		.uleb128 0x1
 9552 1cf4 50       		.byte	0x50
 9553 1cf5 02       		.uleb128 0x2
 9554 1cf6 75       		.byte	0x75
 9555 1cf7 00       		.sleb128 0
 9556 1cf8 00       		.byte	0
 9557 1cf9 1A       		.uleb128 0x1a
 9558 1cfa 52000000 		.4byte	.LVL608
 9559 1cfe 80030000 		.4byte	0x380
 9560 1d02 0D1D0000 		.4byte	0x1d0d
 9561 1d06 19       		.uleb128 0x19
 9562 1d07 01       		.uleb128 0x1
 9563 1d08 50       		.byte	0x50
 9564 1d09 02       		.uleb128 0x2
 9565 1d0a 75       		.byte	0x75
 9566 1d0b 00       		.sleb128 0
 9567 1d0c 00       		.byte	0
 9568 1d0d 1A       		.uleb128 0x1a
 9569 1d0e 58000000 		.4byte	.LVL609
 9570 1d12 C0320000 		.4byte	0x32c0
 9571 1d16 211D0000 		.4byte	0x1d21
 9572 1d1a 19       		.uleb128 0x19
 9573 1d1b 01       		.uleb128 0x1
 9574 1d1c 50       		.byte	0x50
 9575 1d1d 02       		.uleb128 0x2
 9576 1d1e 75       		.byte	0x75
 9577 1d1f 00       		.sleb128 0
 9578 1d20 00       		.byte	0
 9579 1d21 1A       		.uleb128 0x1a
 9580 1d22 64000000 		.4byte	.LVL610
 9581 1d26 52180000 		.4byte	0x1852
 9582 1d2a 351D0000 		.4byte	0x1d35
ARM GAS  C:\Users\FRANKL~1\AppData\Local\Temp\ccnobXgu.s 			page 203


 9583 1d2e 19       		.uleb128 0x19
 9584 1d2f 01       		.uleb128 0x1
 9585 1d30 50       		.byte	0x50
 9586 1d31 02       		.uleb128 0x2
 9587 1d32 79       		.byte	0x79
 9588 1d33 00       		.sleb128 0
 9589 1d34 00       		.byte	0
 9590 1d35 18       		.uleb128 0x18
 9591 1d36 6C000000 		.4byte	.LVL611
 9592 1d3a 4D170000 		.4byte	0x174d
 9593 1d3e 19       		.uleb128 0x19
 9594 1d3f 01       		.uleb128 0x1
 9595 1d40 50       		.byte	0x50
 9596 1d41 02       		.uleb128 0x2
 9597 1d42 79       		.byte	0x79
 9598 1d43 00       		.sleb128 0
 9599 1d44 00       		.byte	0
 9600 1d45 00       		.byte	0
 9601 1d46 00       		.byte	0
 9602 1d47 00       		.byte	0
 9603 1d48 2B       		.uleb128 0x2b
 9604 1d49 C60D0000 		.4byte	.LASF231
 9605 1d4d 02       		.byte	0x2
 9606 1d4e 5D03     		.2byte	0x35d
 9607 1d50 33000000 		.4byte	0x33
 9608 1d54 00000000 		.4byte	.LFB109
 9609 1d58 BC080000 		.4byte	.LFE109-.LFB109
 9610 1d5c 01       		.uleb128 0x1
 9611 1d5d 9C       		.byte	0x9c
 9612 1d5e EB300000 		.4byte	0x30eb
 9613 1d62 13       		.uleb128 0x13
 9614 1d63 76000000 		.4byte	.LBB61
 9615 1d67 46080000 		.4byte	.LBE61-.LBB61
 9616 1d6b 27300000 		.4byte	0x3027
 9617 1d6f 15       		.uleb128 0x15
 9618 1d70 1F000000 		.4byte	.LASF33
 9619 1d74 02       		.byte	0x2
 9620 1d75 8103     		.2byte	0x381
 9621 1d77 92000000 		.4byte	0x92
 9622 1d7b 9E150000 		.4byte	.LLST148
 9623 1d7f 13       		.uleb128 0x13
 9624 1d80 B0000000 		.4byte	.LBB62
 9625 1d84 18000000 		.4byte	.LBE62-.LBB62
 9626 1d88 E61D0000 		.4byte	0x1de6
 9627 1d8c 14       		.uleb128 0x14
 9628 1d8d 810A0000 		.4byte	.LASF156
 9629 1d91 02       		.byte	0x2
 9630 1d92 8A03     		.2byte	0x38a
 9631 1d94 92000000 		.4byte	0x92
 9632 1d98 02       		.uleb128 0x2
 9633 1d99 91       		.byte	0x91
 9634 1d9a 64       		.sleb128 -28
 9635 1d9b 16       		.uleb128 0x16
 9636 1d9c 6E00     		.ascii	"n\000"
 9637 1d9e 02       		.byte	0x2
 9638 1d9f 8B03     		.2byte	0x38b
 9639 1da1 CD000000 		.4byte	0xcd
ARM GAS  C:\Users\FRANKL~1\AppData\Local\Temp\ccnobXgu.s 			page 204


 9640 1da5 66160000 		.4byte	.LLST149
 9641 1da9 1A       		.uleb128 0x1a
 9642 1daa B8000000 		.4byte	.LVL635
 9643 1dae A7330000 		.4byte	0x33a7
 9644 1db2 C31D0000 		.4byte	0x1dc3
 9645 1db6 19       		.uleb128 0x19
 9646 1db7 01       		.uleb128 0x1
 9647 1db8 50       		.byte	0x50
 9648 1db9 02       		.uleb128 0x2
 9649 1dba 74       		.byte	0x74
 9650 1dbb 00       		.sleb128 0
 9651 1dbc 19       		.uleb128 0x19
 9652 1dbd 01       		.uleb128 0x1
 9653 1dbe 51       		.byte	0x51
 9654 1dbf 02       		.uleb128 0x2
 9655 1dc0 08       		.byte	0x8
 9656 1dc1 20       		.byte	0x20
 9657 1dc2 00       		.byte	0
 9658 1dc3 1A       		.uleb128 0x1a
 9659 1dc4 C4000000 		.4byte	.LVL636
 9660 1dc8 B6330000 		.4byte	0x33b6
 9661 1dcc DC1D0000 		.4byte	0x1ddc
 9662 1dd0 19       		.uleb128 0x19
 9663 1dd1 01       		.uleb128 0x1
 9664 1dd2 51       		.byte	0x51
 9665 1dd3 02       		.uleb128 0x2
 9666 1dd4 91       		.byte	0x91
 9667 1dd5 64       		.sleb128 -28
 9668 1dd6 19       		.uleb128 0x19
 9669 1dd7 01       		.uleb128 0x1
 9670 1dd8 52       		.byte	0x52
 9671 1dd9 01       		.uleb128 0x1
 9672 1dda 3A       		.byte	0x3a
 9673 1ddb 00       		.byte	0
 9674 1ddc 10       		.uleb128 0x10
 9675 1ddd C8000000 		.4byte	.LVL637
 9676 1de1 6F160000 		.4byte	0x166f
 9677 1de5 00       		.byte	0
 9678 1de6 13       		.uleb128 0x13
 9679 1de7 10010000 		.4byte	.LBB63
 9680 1deb 1A000000 		.4byte	.LBE63-.LBB63
 9681 1def 4F1E0000 		.4byte	0x1e4f
 9682 1df3 14       		.uleb128 0x14
 9683 1df4 810A0000 		.4byte	.LASF156
 9684 1df8 02       		.byte	0x2
 9685 1df9 9903     		.2byte	0x399
 9686 1dfb 92000000 		.4byte	0x92
 9687 1dff 02       		.uleb128 0x2
 9688 1e00 91       		.byte	0x91
 9689 1e01 64       		.sleb128 -28
 9690 1e02 15       		.uleb128 0x15
 9691 1e03 F2060000 		.4byte	.LASF157
 9692 1e07 02       		.byte	0x2
 9693 1e08 9A03     		.2byte	0x39a
 9694 1e0a B5000000 		.4byte	0xb5
 9695 1e0e 79160000 		.4byte	.LLST150
 9696 1e12 1A       		.uleb128 0x1a
ARM GAS  C:\Users\FRANKL~1\AppData\Local\Temp\ccnobXgu.s 			page 205


 9697 1e13 18010000 		.4byte	.LVL645
 9698 1e17 A7330000 		.4byte	0x33a7
 9699 1e1b 2C1E0000 		.4byte	0x1e2c
 9700 1e1f 19       		.uleb128 0x19
 9701 1e20 01       		.uleb128 0x1
 9702 1e21 50       		.byte	0x50
 9703 1e22 02       		.uleb128 0x2
 9704 1e23 74       		.byte	0x74
 9705 1e24 00       		.sleb128 0
 9706 1e25 19       		.uleb128 0x19
 9707 1e26 01       		.uleb128 0x1
 9708 1e27 51       		.byte	0x51
 9709 1e28 02       		.uleb128 0x2
 9710 1e29 08       		.byte	0x8
 9711 1e2a 20       		.byte	0x20
 9712 1e2b 00       		.byte	0
 9713 1e2c 1A       		.uleb128 0x1a
 9714 1e2d 24010000 		.4byte	.LVL646
 9715 1e31 B6330000 		.4byte	0x33b6
 9716 1e35 451E0000 		.4byte	0x1e45
 9717 1e39 19       		.uleb128 0x19
 9718 1e3a 01       		.uleb128 0x1
 9719 1e3b 51       		.byte	0x51
 9720 1e3c 02       		.uleb128 0x2
 9721 1e3d 91       		.byte	0x91
 9722 1e3e 64       		.sleb128 -28
 9723 1e3f 19       		.uleb128 0x19
 9724 1e40 01       		.uleb128 0x1
 9725 1e41 52       		.byte	0x52
 9726 1e42 01       		.uleb128 0x1
 9727 1e43 3A       		.byte	0x3a
 9728 1e44 00       		.byte	0
 9729 1e45 10       		.uleb128 0x10
 9730 1e46 2A010000 		.4byte	.LVL647
 9731 1e4a 95100000 		.4byte	0x1095
 9732 1e4e 00       		.byte	0
 9733 1e4f 13       		.uleb128 0x13
 9734 1e50 38010000 		.4byte	.LBB64
 9735 1e54 1A000000 		.4byte	.LBE64-.LBB64
 9736 1e58 B81E0000 		.4byte	0x1eb8
 9737 1e5c 14       		.uleb128 0x14
 9738 1e5d 810A0000 		.4byte	.LASF156
 9739 1e61 02       		.byte	0x2
 9740 1e62 9F03     		.2byte	0x39f
 9741 1e64 92000000 		.4byte	0x92
 9742 1e68 02       		.uleb128 0x2
 9743 1e69 91       		.byte	0x91
 9744 1e6a 64       		.sleb128 -28
 9745 1e6b 15       		.uleb128 0x15
 9746 1e6c 70000000 		.4byte	.LASF158
 9747 1e70 02       		.byte	0x2
 9748 1e71 A003     		.2byte	0x3a0
 9749 1e73 B5000000 		.4byte	0xb5
 9750 1e77 8C160000 		.4byte	.LLST151
 9751 1e7b 1A       		.uleb128 0x1a
 9752 1e7c 40010000 		.4byte	.LVL649
 9753 1e80 A7330000 		.4byte	0x33a7
ARM GAS  C:\Users\FRANKL~1\AppData\Local\Temp\ccnobXgu.s 			page 206


 9754 1e84 951E0000 		.4byte	0x1e95
 9755 1e88 19       		.uleb128 0x19
 9756 1e89 01       		.uleb128 0x1
 9757 1e8a 50       		.byte	0x50
 9758 1e8b 02       		.uleb128 0x2
 9759 1e8c 74       		.byte	0x74
 9760 1e8d 00       		.sleb128 0
 9761 1e8e 19       		.uleb128 0x19
 9762 1e8f 01       		.uleb128 0x1
 9763 1e90 51       		.byte	0x51
 9764 1e91 02       		.uleb128 0x2
 9765 1e92 08       		.byte	0x8
 9766 1e93 20       		.byte	0x20
 9767 1e94 00       		.byte	0
 9768 1e95 1A       		.uleb128 0x1a
 9769 1e96 4C010000 		.4byte	.LVL650
 9770 1e9a B6330000 		.4byte	0x33b6
 9771 1e9e AE1E0000 		.4byte	0x1eae
 9772 1ea2 19       		.uleb128 0x19
 9773 1ea3 01       		.uleb128 0x1
 9774 1ea4 51       		.byte	0x51
 9775 1ea5 02       		.uleb128 0x2
 9776 1ea6 91       		.byte	0x91
 9777 1ea7 64       		.sleb128 -28
 9778 1ea8 19       		.uleb128 0x19
 9779 1ea9 01       		.uleb128 0x1
 9780 1eaa 52       		.byte	0x52
 9781 1eab 01       		.uleb128 0x1
 9782 1eac 3A       		.byte	0x3a
 9783 1ead 00       		.byte	0
 9784 1eae 10       		.uleb128 0x10
 9785 1eaf 52010000 		.4byte	.LVL651
 9786 1eb3 D60F0000 		.4byte	0xfd6
 9787 1eb7 00       		.byte	0
 9788 1eb8 13       		.uleb128 0x13
 9789 1eb9 60010000 		.4byte	.LBB65
 9790 1ebd 1A000000 		.4byte	.LBE65-.LBB65
 9791 1ec1 211F0000 		.4byte	0x1f21
 9792 1ec5 14       		.uleb128 0x14
 9793 1ec6 810A0000 		.4byte	.LASF156
 9794 1eca 02       		.byte	0x2
 9795 1ecb A503     		.2byte	0x3a5
 9796 1ecd 92000000 		.4byte	0x92
 9797 1ed1 02       		.uleb128 0x2
 9798 1ed2 91       		.byte	0x91
 9799 1ed3 64       		.sleb128 -28
 9800 1ed4 15       		.uleb128 0x15
 9801 1ed5 F2060000 		.4byte	.LASF157
 9802 1ed9 02       		.byte	0x2
 9803 1eda A603     		.2byte	0x3a6
 9804 1edc D9000000 		.4byte	0xd9
 9805 1ee0 9F160000 		.4byte	.LLST152
 9806 1ee4 1A       		.uleb128 0x1a
 9807 1ee5 68010000 		.4byte	.LVL653
 9808 1ee9 A7330000 		.4byte	0x33a7
 9809 1eed FE1E0000 		.4byte	0x1efe
 9810 1ef1 19       		.uleb128 0x19
ARM GAS  C:\Users\FRANKL~1\AppData\Local\Temp\ccnobXgu.s 			page 207


 9811 1ef2 01       		.uleb128 0x1
 9812 1ef3 50       		.byte	0x50
 9813 1ef4 02       		.uleb128 0x2
 9814 1ef5 74       		.byte	0x74
 9815 1ef6 00       		.sleb128 0
 9816 1ef7 19       		.uleb128 0x19
 9817 1ef8 01       		.uleb128 0x1
 9818 1ef9 51       		.byte	0x51
 9819 1efa 02       		.uleb128 0x2
 9820 1efb 08       		.byte	0x8
 9821 1efc 20       		.byte	0x20
 9822 1efd 00       		.byte	0
 9823 1efe 1A       		.uleb128 0x1a
 9824 1eff 74010000 		.4byte	.LVL654
 9825 1f03 B6330000 		.4byte	0x33b6
 9826 1f07 171F0000 		.4byte	0x1f17
 9827 1f0b 19       		.uleb128 0x19
 9828 1f0c 01       		.uleb128 0x1
 9829 1f0d 51       		.byte	0x51
 9830 1f0e 02       		.uleb128 0x2
 9831 1f0f 91       		.byte	0x91
 9832 1f10 64       		.sleb128 -28
 9833 1f11 19       		.uleb128 0x19
 9834 1f12 01       		.uleb128 0x1
 9835 1f13 52       		.byte	0x52
 9836 1f14 01       		.uleb128 0x1
 9837 1f15 3A       		.byte	0x3a
 9838 1f16 00       		.byte	0
 9839 1f17 10       		.uleb128 0x10
 9840 1f18 7A010000 		.4byte	.LVL655
 9841 1f1c E0120000 		.4byte	0x12e0
 9842 1f20 00       		.byte	0
 9843 1f21 13       		.uleb128 0x13
 9844 1f22 88010000 		.4byte	.LBB66
 9845 1f26 1A000000 		.4byte	.LBE66-.LBB66
 9846 1f2a 8A1F0000 		.4byte	0x1f8a
 9847 1f2e 14       		.uleb128 0x14
 9848 1f2f 810A0000 		.4byte	.LASF156
 9849 1f33 02       		.byte	0x2
 9850 1f34 AB03     		.2byte	0x3ab
 9851 1f36 92000000 		.4byte	0x92
 9852 1f3a 02       		.uleb128 0x2
 9853 1f3b 91       		.byte	0x91
 9854 1f3c 64       		.sleb128 -28
 9855 1f3d 15       		.uleb128 0x15
 9856 1f3e 70000000 		.4byte	.LASF158
 9857 1f42 02       		.byte	0x2
 9858 1f43 AC03     		.2byte	0x3ac
 9859 1f45 D9000000 		.4byte	0xd9
 9860 1f49 B2160000 		.4byte	.LLST153
 9861 1f4d 1A       		.uleb128 0x1a
 9862 1f4e 90010000 		.4byte	.LVL657
 9863 1f52 A7330000 		.4byte	0x33a7
 9864 1f56 671F0000 		.4byte	0x1f67
 9865 1f5a 19       		.uleb128 0x19
 9866 1f5b 01       		.uleb128 0x1
 9867 1f5c 50       		.byte	0x50
ARM GAS  C:\Users\FRANKL~1\AppData\Local\Temp\ccnobXgu.s 			page 208


 9868 1f5d 02       		.uleb128 0x2
 9869 1f5e 74       		.byte	0x74
 9870 1f5f 00       		.sleb128 0
 9871 1f60 19       		.uleb128 0x19
 9872 1f61 01       		.uleb128 0x1
 9873 1f62 51       		.byte	0x51
 9874 1f63 02       		.uleb128 0x2
 9875 1f64 08       		.byte	0x8
 9876 1f65 20       		.byte	0x20
 9877 1f66 00       		.byte	0
 9878 1f67 1A       		.uleb128 0x1a
 9879 1f68 9C010000 		.4byte	.LVL658
 9880 1f6c B6330000 		.4byte	0x33b6
 9881 1f70 801F0000 		.4byte	0x1f80
 9882 1f74 19       		.uleb128 0x19
 9883 1f75 01       		.uleb128 0x1
 9884 1f76 51       		.byte	0x51
 9885 1f77 02       		.uleb128 0x2
 9886 1f78 91       		.byte	0x91
 9887 1f79 64       		.sleb128 -28
 9888 1f7a 19       		.uleb128 0x19
 9889 1f7b 01       		.uleb128 0x1
 9890 1f7c 52       		.byte	0x52
 9891 1f7d 01       		.uleb128 0x1
 9892 1f7e 3A       		.byte	0x3a
 9893 1f7f 00       		.byte	0
 9894 1f80 10       		.uleb128 0x10
 9895 1f81 A2010000 		.4byte	.LVL659
 9896 1f85 0E120000 		.4byte	0x120e
 9897 1f89 00       		.byte	0
 9898 1f8a 13       		.uleb128 0x13
 9899 1f8b B0010000 		.4byte	.LBB67
 9900 1f8f 1C000000 		.4byte	.LBE67-.LBB67
 9901 1f93 03200000 		.4byte	0x2003
 9902 1f97 15       		.uleb128 0x15
 9903 1f98 810A0000 		.4byte	.LASF156
 9904 1f9c 02       		.byte	0x2
 9905 1f9d B103     		.2byte	0x3b1
 9906 1f9f 92000000 		.4byte	0x92
 9907 1fa3 C5160000 		.4byte	.LLST154
 9908 1fa7 2C       		.uleb128 0x2c
 9909 1fa8 76677300 		.ascii	"vgs\000"
 9910 1fac 02       		.byte	0x2
 9911 1fad B203     		.2byte	0x3b2
 9912 1faf 25000000 		.4byte	0x25
 9913 1fb3 02       		.uleb128 0x2
 9914 1fb4 91       		.byte	0x91
 9915 1fb5 64       		.sleb128 -28
 9916 1fb6 29       		.uleb128 0x29
 9917 1fb7 8A070000 		.4byte	.LASF159
 9918 1fbb 02       		.byte	0x2
 9919 1fbc B303     		.2byte	0x3b3
 9920 1fbe D9000000 		.4byte	0xd9
 9921 1fc2 1A       		.uleb128 0x1a
 9922 1fc3 B8010000 		.4byte	.LVL661
 9923 1fc7 A7330000 		.4byte	0x33a7
 9924 1fcb DC1F0000 		.4byte	0x1fdc
ARM GAS  C:\Users\FRANKL~1\AppData\Local\Temp\ccnobXgu.s 			page 209


 9925 1fcf 19       		.uleb128 0x19
 9926 1fd0 01       		.uleb128 0x1
 9927 1fd1 50       		.byte	0x50
 9928 1fd2 02       		.uleb128 0x2
 9929 1fd3 74       		.byte	0x74
 9930 1fd4 00       		.sleb128 0
 9931 1fd5 19       		.uleb128 0x19
 9932 1fd6 01       		.uleb128 0x1
 9933 1fd7 51       		.byte	0x51
 9934 1fd8 02       		.uleb128 0x2
 9935 1fd9 08       		.byte	0x8
 9936 1fda 20       		.byte	0x20
 9937 1fdb 00       		.byte	0
 9938 1fdc 1A       		.uleb128 0x1a
 9939 1fdd C6010000 		.4byte	.LVL662
 9940 1fe1 C1330000 		.4byte	0x33c1
 9941 1fe5 F91F0000 		.4byte	0x1ff9
 9942 1fe9 19       		.uleb128 0x19
 9943 1fea 01       		.uleb128 0x1
 9944 1feb 51       		.byte	0x51
 9945 1fec 05       		.uleb128 0x5
 9946 1fed 03       		.byte	0x3
 9947 1fee 80010000 		.4byte	.LC24
 9948 1ff2 19       		.uleb128 0x19
 9949 1ff3 01       		.uleb128 0x1
 9950 1ff4 52       		.byte	0x52
 9951 1ff5 02       		.uleb128 0x2
 9952 1ff6 91       		.byte	0x91
 9953 1ff7 64       		.sleb128 -28
 9954 1ff8 00       		.byte	0
 9955 1ff9 10       		.uleb128 0x10
 9956 1ffa CC010000 		.4byte	.LVL663
 9957 1ffe B2130000 		.4byte	0x13b2
 9958 2002 00       		.byte	0
 9959 2003 13       		.uleb128 0x13
 9960 2004 DA010000 		.4byte	.LBB68
 9961 2008 1C000000 		.4byte	.LBE68-.LBB68
 9962 200c 7C200000 		.4byte	0x207c
 9963 2010 15       		.uleb128 0x15
 9964 2011 810A0000 		.4byte	.LASF156
 9965 2015 02       		.byte	0x2
 9966 2016 B803     		.2byte	0x3b8
 9967 2018 92000000 		.4byte	0x92
 9968 201c D8160000 		.4byte	.LLST155
 9969 2020 2C       		.uleb128 0x2c
 9970 2021 76647300 		.ascii	"vds\000"
 9971 2025 02       		.byte	0x2
 9972 2026 B903     		.2byte	0x3b9
 9973 2028 25000000 		.4byte	0x25
 9974 202c 02       		.uleb128 0x2
 9975 202d 91       		.byte	0x91
 9976 202e 64       		.sleb128 -28
 9977 202f 29       		.uleb128 0x29
 9978 2030 8A070000 		.4byte	.LASF159
 9979 2034 02       		.byte	0x2
 9980 2035 BA03     		.2byte	0x3ba
 9981 2037 D9000000 		.4byte	0xd9
ARM GAS  C:\Users\FRANKL~1\AppData\Local\Temp\ccnobXgu.s 			page 210


 9982 203b 1A       		.uleb128 0x1a
 9983 203c E2010000 		.4byte	.LVL665
 9984 2040 A7330000 		.4byte	0x33a7
 9985 2044 55200000 		.4byte	0x2055
 9986 2048 19       		.uleb128 0x19
 9987 2049 01       		.uleb128 0x1
 9988 204a 50       		.byte	0x50
 9989 204b 02       		.uleb128 0x2
 9990 204c 74       		.byte	0x74
 9991 204d 00       		.sleb128 0
 9992 204e 19       		.uleb128 0x19
 9993 204f 01       		.uleb128 0x1
 9994 2050 51       		.byte	0x51
 9995 2051 02       		.uleb128 0x2
 9996 2052 08       		.byte	0x8
 9997 2053 20       		.byte	0x20
 9998 2054 00       		.byte	0
 9999 2055 1A       		.uleb128 0x1a
 10000 2056 F0010000 		.4byte	.LVL666
 10001 205a C1330000 		.4byte	0x33c1
 10002 205e 72200000 		.4byte	0x2072
 10003 2062 19       		.uleb128 0x19
 10004 2063 01       		.uleb128 0x1
 10005 2064 51       		.byte	0x51
 10006 2065 05       		.uleb128 0x5
 10007 2066 03       		.byte	0x3
 10008 2067 80010000 		.4byte	.LC24
 10009 206b 19       		.uleb128 0x19
 10010 206c 01       		.uleb128 0x1
 10011 206d 52       		.byte	0x52
 10012 206e 02       		.uleb128 0x2
 10013 206f 91       		.byte	0x91
 10014 2070 64       		.sleb128 -28
 10015 2071 00       		.byte	0
 10016 2072 10       		.uleb128 0x10
 10017 2073 F6010000 		.4byte	.LVL667
 10018 2077 E2130000 		.4byte	0x13e2
 10019 207b 00       		.byte	0
 10020 207c 13       		.uleb128 0x13
 10021 207d 04020000 		.4byte	.LBB69
 10022 2081 46000000 		.4byte	.LBE69-.LBB69
 10023 2085 46210000 		.4byte	0x2146
 10024 2089 14       		.uleb128 0x14
 10025 208a 810A0000 		.4byte	.LASF156
 10026 208e 02       		.byte	0x2
 10027 208f BF03     		.2byte	0x3bf
 10028 2091 92000000 		.4byte	0x92
 10029 2095 02       		.uleb128 0x2
 10030 2096 91       		.byte	0x91
 10031 2097 64       		.sleb128 -28
 10032 2098 15       		.uleb128 0x15
 10033 2099 37020000 		.4byte	.LASF160
 10034 209d 02       		.byte	0x2
 10035 209e C003     		.2byte	0x3c0
 10036 20a0 25000000 		.4byte	0x25
 10037 20a4 EB160000 		.4byte	.LLST156
 10038 20a8 1A       		.uleb128 0x1a
ARM GAS  C:\Users\FRANKL~1\AppData\Local\Temp\ccnobXgu.s 			page 211


 10039 20a9 0C020000 		.4byte	.LVL669
 10040 20ad A7330000 		.4byte	0x33a7
 10041 20b1 C2200000 		.4byte	0x20c2
 10042 20b5 19       		.uleb128 0x19
 10043 20b6 01       		.uleb128 0x1
 10044 20b7 50       		.byte	0x50
 10045 20b8 02       		.uleb128 0x2
 10046 20b9 74       		.byte	0x74
 10047 20ba 00       		.sleb128 0
 10048 20bb 19       		.uleb128 0x19
 10049 20bc 01       		.uleb128 0x1
 10050 20bd 51       		.byte	0x51
 10051 20be 02       		.uleb128 0x2
 10052 20bf 08       		.byte	0x8
 10053 20c0 20       		.byte	0x20
 10054 20c1 00       		.byte	0
 10055 20c2 1A       		.uleb128 0x1a
 10056 20c3 18020000 		.4byte	.LVL670
 10057 20c7 B6330000 		.4byte	0x33b6
 10058 20cb DB200000 		.4byte	0x20db
 10059 20cf 19       		.uleb128 0x19
 10060 20d0 01       		.uleb128 0x1
 10061 20d1 51       		.byte	0x51
 10062 20d2 02       		.uleb128 0x2
 10063 20d3 91       		.byte	0x91
 10064 20d4 64       		.sleb128 -28
 10065 20d5 19       		.uleb128 0x19
 10066 20d6 01       		.uleb128 0x1
 10067 20d7 52       		.byte	0x52
 10068 20d8 01       		.uleb128 0x1
 10069 20d9 3A       		.byte	0x3a
 10070 20da 00       		.byte	0
 10071 20db 1A       		.uleb128 0x1a
 10072 20dc 22020000 		.4byte	.LVL673
 10073 20e0 12140000 		.4byte	0x1412
 10074 20e4 F0200000 		.4byte	0x20f0
 10075 20e8 19       		.uleb128 0x19
 10076 20e9 01       		.uleb128 0x1
 10077 20ea 50       		.byte	0x50
 10078 20eb 03       		.uleb128 0x3
 10079 20ec F5       		.byte	0xf5
 10080 20ed 04       		.uleb128 0x4
 10081 20ee 25       		.uleb128 0x25
 10082 20ef 00       		.byte	0
 10083 20f0 1A       		.uleb128 0x1a
 10084 20f1 36020000 		.4byte	.LVL676
 10085 20f5 E1320000 		.4byte	0x32e1
 10086 20f9 0D210000 		.4byte	0x210d
 10087 20fd 19       		.uleb128 0x19
 10088 20fe 01       		.uleb128 0x1
 10089 20ff 50       		.byte	0x50
 10090 2100 02       		.uleb128 0x2
 10091 2101 74       		.byte	0x74
 10092 2102 00       		.sleb128 0
 10093 2103 19       		.uleb128 0x19
 10094 2104 01       		.uleb128 0x1
 10095 2105 51       		.byte	0x51
ARM GAS  C:\Users\FRANKL~1\AppData\Local\Temp\ccnobXgu.s 			page 212


 10096 2106 05       		.uleb128 0x5
 10097 2107 03       		.byte	0x3
 10098 2108 9C010000 		.4byte	.LC27
 10099 210c 00       		.byte	0
 10100 210d 1A       		.uleb128 0x1a
 10101 210e 3C020000 		.4byte	.LVL677
 10102 2112 AA320000 		.4byte	0x32aa
 10103 2116 21210000 		.4byte	0x2121
 10104 211a 19       		.uleb128 0x19
 10105 211b 01       		.uleb128 0x1
 10106 211c 50       		.byte	0x50
 10107 211d 02       		.uleb128 0x2
 10108 211e 74       		.byte	0x74
 10109 211f 00       		.sleb128 0
 10110 2120 00       		.byte	0
 10111 2121 1A       		.uleb128 0x1a
 10112 2122 44020000 		.4byte	.LVL678
 10113 2126 80030000 		.4byte	0x380
 10114 212a 35210000 		.4byte	0x2135
 10115 212e 19       		.uleb128 0x19
 10116 212f 01       		.uleb128 0x1
 10117 2130 50       		.byte	0x50
 10118 2131 02       		.uleb128 0x2
 10119 2132 74       		.byte	0x74
 10120 2133 00       		.sleb128 0
 10121 2134 00       		.byte	0
 10122 2135 18       		.uleb128 0x18
 10123 2136 4A020000 		.4byte	.LVL679
 10124 213a C0320000 		.4byte	0x32c0
 10125 213e 19       		.uleb128 0x19
 10126 213f 01       		.uleb128 0x1
 10127 2140 50       		.byte	0x50
 10128 2141 02       		.uleb128 0x2
 10129 2142 74       		.byte	0x74
 10130 2143 00       		.sleb128 0
 10131 2144 00       		.byte	0
 10132 2145 00       		.byte	0
 10133 2146 13       		.uleb128 0x13
 10134 2147 58020000 		.4byte	.LBB70
 10135 214b 46000000 		.4byte	.LBE70-.LBB70
 10136 214f 10220000 		.4byte	0x2210
 10137 2153 14       		.uleb128 0x14
 10138 2154 810A0000 		.4byte	.LASF156
 10139 2158 02       		.byte	0x2
 10140 2159 C903     		.2byte	0x3c9
 10141 215b 92000000 		.4byte	0x92
 10142 215f 02       		.uleb128 0x2
 10143 2160 91       		.byte	0x91
 10144 2161 64       		.sleb128 -28
 10145 2162 15       		.uleb128 0x15
 10146 2163 7D030000 		.4byte	.LASF161
 10147 2167 02       		.byte	0x2
 10148 2168 CA03     		.2byte	0x3ca
 10149 216a 25000000 		.4byte	0x25
 10150 216e 09170000 		.4byte	.LLST157
 10151 2172 1A       		.uleb128 0x1a
 10152 2173 60020000 		.4byte	.LVL682
ARM GAS  C:\Users\FRANKL~1\AppData\Local\Temp\ccnobXgu.s 			page 213


 10153 2177 A7330000 		.4byte	0x33a7
 10154 217b 8C210000 		.4byte	0x218c
 10155 217f 19       		.uleb128 0x19
 10156 2180 01       		.uleb128 0x1
 10157 2181 50       		.byte	0x50
 10158 2182 02       		.uleb128 0x2
 10159 2183 74       		.byte	0x74
 10160 2184 00       		.sleb128 0
 10161 2185 19       		.uleb128 0x19
 10162 2186 01       		.uleb128 0x1
 10163 2187 51       		.byte	0x51
 10164 2188 02       		.uleb128 0x2
 10165 2189 08       		.byte	0x8
 10166 218a 20       		.byte	0x20
 10167 218b 00       		.byte	0
 10168 218c 1A       		.uleb128 0x1a
 10169 218d 6C020000 		.4byte	.LVL683
 10170 2191 B6330000 		.4byte	0x33b6
 10171 2195 A5210000 		.4byte	0x21a5
 10172 2199 19       		.uleb128 0x19
 10173 219a 01       		.uleb128 0x1
 10174 219b 51       		.byte	0x51
 10175 219c 02       		.uleb128 0x2
 10176 219d 91       		.byte	0x91
 10177 219e 64       		.sleb128 -28
 10178 219f 19       		.uleb128 0x19
 10179 21a0 01       		.uleb128 0x1
 10180 21a1 52       		.byte	0x52
 10181 21a2 01       		.uleb128 0x1
 10182 21a3 3A       		.byte	0x3a
 10183 21a4 00       		.byte	0
 10184 21a5 1A       		.uleb128 0x1a
 10185 21a6 76020000 		.4byte	.LVL686
 10186 21aa 41140000 		.4byte	0x1441
 10187 21ae BA210000 		.4byte	0x21ba
 10188 21b2 19       		.uleb128 0x19
 10189 21b3 01       		.uleb128 0x1
 10190 21b4 50       		.byte	0x50
 10191 21b5 03       		.uleb128 0x3
 10192 21b6 F5       		.byte	0xf5
 10193 21b7 04       		.uleb128 0x4
 10194 21b8 25       		.uleb128 0x25
 10195 21b9 00       		.byte	0
 10196 21ba 1A       		.uleb128 0x1a
 10197 21bb 8A020000 		.4byte	.LVL689
 10198 21bf E1320000 		.4byte	0x32e1
 10199 21c3 D7210000 		.4byte	0x21d7
 10200 21c7 19       		.uleb128 0x19
 10201 21c8 01       		.uleb128 0x1
 10202 21c9 50       		.byte	0x50
 10203 21ca 02       		.uleb128 0x2
 10204 21cb 74       		.byte	0x74
 10205 21cc 00       		.sleb128 0
 10206 21cd 19       		.uleb128 0x19
 10207 21ce 01       		.uleb128 0x1
 10208 21cf 51       		.byte	0x51
 10209 21d0 05       		.uleb128 0x5
ARM GAS  C:\Users\FRANKL~1\AppData\Local\Temp\ccnobXgu.s 			page 214


 10210 21d1 03       		.byte	0x3
 10211 21d2 C0010000 		.4byte	.LC29
 10212 21d6 00       		.byte	0
 10213 21d7 1A       		.uleb128 0x1a
 10214 21d8 90020000 		.4byte	.LVL690
 10215 21dc AA320000 		.4byte	0x32aa
 10216 21e0 EB210000 		.4byte	0x21eb
 10217 21e4 19       		.uleb128 0x19
 10218 21e5 01       		.uleb128 0x1
 10219 21e6 50       		.byte	0x50
 10220 21e7 02       		.uleb128 0x2
 10221 21e8 74       		.byte	0x74
 10222 21e9 00       		.sleb128 0
 10223 21ea 00       		.byte	0
 10224 21eb 1A       		.uleb128 0x1a
 10225 21ec 98020000 		.4byte	.LVL691
 10226 21f0 80030000 		.4byte	0x380
 10227 21f4 FF210000 		.4byte	0x21ff
 10228 21f8 19       		.uleb128 0x19
 10229 21f9 01       		.uleb128 0x1
 10230 21fa 50       		.byte	0x50
 10231 21fb 02       		.uleb128 0x2
 10232 21fc 74       		.byte	0x74
 10233 21fd 00       		.sleb128 0
 10234 21fe 00       		.byte	0
 10235 21ff 18       		.uleb128 0x18
 10236 2200 9E020000 		.4byte	.LVL692
 10237 2204 C0320000 		.4byte	0x32c0
 10238 2208 19       		.uleb128 0x19
 10239 2209 01       		.uleb128 0x1
 10240 220a 50       		.byte	0x50
 10241 220b 02       		.uleb128 0x2
 10242 220c 74       		.byte	0x74
 10243 220d 00       		.sleb128 0
 10244 220e 00       		.byte	0
 10245 220f 00       		.byte	0
 10246 2210 13       		.uleb128 0x13
 10247 2211 7C030000 		.4byte	.LBB71
 10248 2215 84000000 		.4byte	.LBE71-.LBB71
 10249 2219 2B230000 		.4byte	0x232b
 10250 221d 14       		.uleb128 0x14
 10251 221e 810A0000 		.4byte	.LASF156
 10252 2222 02       		.byte	0x2
 10253 2223 E203     		.2byte	0x3e2
 10254 2225 92000000 		.4byte	0x92
 10255 2229 02       		.uleb128 0x2
 10256 222a 91       		.byte	0x91
 10257 222b 64       		.sleb128 -28
 10258 222c 15       		.uleb128 0x15
 10259 222d AC010000 		.4byte	.LASF154
 10260 2231 02       		.byte	0x2
 10261 2232 E303     		.2byte	0x3e3
 10262 2234 B5000000 		.4byte	0xb5
 10263 2238 27170000 		.4byte	.LLST158
 10264 223c 15       		.uleb128 0x15
 10265 223d 2D000000 		.4byte	.LASF155
 10266 2241 02       		.byte	0x2
ARM GAS  C:\Users\FRANKL~1\AppData\Local\Temp\ccnobXgu.s 			page 215


 10267 2242 E403     		.2byte	0x3e4
 10268 2244 B5000000 		.4byte	0xb5
 10269 2248 3A170000 		.4byte	.LLST159
 10270 224c 1A       		.uleb128 0x1a
 10271 224d 9A030000 		.4byte	.LVL705
 10272 2251 AA320000 		.4byte	0x32aa
 10273 2255 60220000 		.4byte	0x2260
 10274 2259 19       		.uleb128 0x19
 10275 225a 01       		.uleb128 0x1
 10276 225b 50       		.byte	0x50
 10277 225c 02       		.uleb128 0x2
 10278 225d 75       		.byte	0x75
 10279 225e 00       		.sleb128 0
 10280 225f 00       		.byte	0
 10281 2260 1A       		.uleb128 0x1a
 10282 2261 A2030000 		.4byte	.LVL706
 10283 2265 80030000 		.4byte	0x380
 10284 2269 74220000 		.4byte	0x2274
 10285 226d 19       		.uleb128 0x19
 10286 226e 01       		.uleb128 0x1
 10287 226f 50       		.byte	0x50
 10288 2270 02       		.uleb128 0x2
 10289 2271 75       		.byte	0x75
 10290 2272 00       		.sleb128 0
 10291 2273 00       		.byte	0
 10292 2274 1A       		.uleb128 0x1a
 10293 2275 A8030000 		.4byte	.LVL707
 10294 2279 C0320000 		.4byte	0x32c0
 10295 227d 88220000 		.4byte	0x2288
 10296 2281 19       		.uleb128 0x19
 10297 2282 01       		.uleb128 0x1
 10298 2283 50       		.byte	0x50
 10299 2284 02       		.uleb128 0x2
 10300 2285 75       		.byte	0x75
 10301 2286 00       		.sleb128 0
 10302 2287 00       		.byte	0
 10303 2288 1A       		.uleb128 0x1a
 10304 2289 B0030000 		.4byte	.LVL708
 10305 228d A7330000 		.4byte	0x33a7
 10306 2291 A2220000 		.4byte	0x22a2
 10307 2295 19       		.uleb128 0x19
 10308 2296 01       		.uleb128 0x1
 10309 2297 50       		.byte	0x50
 10310 2298 02       		.uleb128 0x2
 10311 2299 74       		.byte	0x74
 10312 229a 00       		.sleb128 0
 10313 229b 19       		.uleb128 0x19
 10314 229c 01       		.uleb128 0x1
 10315 229d 51       		.byte	0x51
 10316 229e 02       		.uleb128 0x2
 10317 229f 08       		.byte	0x8
 10318 22a0 20       		.byte	0x20
 10319 22a1 00       		.byte	0
 10320 22a2 1A       		.uleb128 0x1a
 10321 22a3 BE030000 		.4byte	.LVL710
 10322 22a7 B6330000 		.4byte	0x33b6
 10323 22ab BB220000 		.4byte	0x22bb
ARM GAS  C:\Users\FRANKL~1\AppData\Local\Temp\ccnobXgu.s 			page 216


 10324 22af 19       		.uleb128 0x19
 10325 22b0 01       		.uleb128 0x1
 10326 22b1 51       		.byte	0x51
 10327 22b2 02       		.uleb128 0x2
 10328 22b3 74       		.byte	0x74
 10329 22b4 00       		.sleb128 0
 10330 22b5 19       		.uleb128 0x19
 10331 22b6 01       		.uleb128 0x1
 10332 22b7 52       		.byte	0x52
 10333 22b8 01       		.uleb128 0x1
 10334 22b9 3A       		.byte	0x3a
 10335 22ba 00       		.byte	0
 10336 22bb 1A       		.uleb128 0x1a
 10337 22bc CA030000 		.4byte	.LVL712
 10338 22c0 B6330000 		.4byte	0x33b6
 10339 22c4 D4220000 		.4byte	0x22d4
 10340 22c8 19       		.uleb128 0x19
 10341 22c9 01       		.uleb128 0x1
 10342 22ca 51       		.byte	0x51
 10343 22cb 02       		.uleb128 0x2
 10344 22cc 74       		.byte	0x74
 10345 22cd 00       		.sleb128 0
 10346 22ce 19       		.uleb128 0x19
 10347 22cf 01       		.uleb128 0x1
 10348 22d0 52       		.byte	0x52
 10349 22d1 01       		.uleb128 0x1
 10350 22d2 3A       		.byte	0x3a
 10351 22d3 00       		.byte	0
 10352 22d4 1A       		.uleb128 0x1a
 10353 22d5 D6030000 		.4byte	.LVL714
 10354 22d9 BD1B0000 		.4byte	0x1bbd
 10355 22dd F2220000 		.4byte	0x22f2
 10356 22e1 19       		.uleb128 0x19
 10357 22e2 01       		.uleb128 0x1
 10358 22e3 50       		.byte	0x50
 10359 22e4 02       		.uleb128 0x2
 10360 22e5 76       		.byte	0x76
 10361 22e6 00       		.sleb128 0
 10362 22e7 19       		.uleb128 0x19
 10363 22e8 01       		.uleb128 0x1
 10364 22e9 52       		.byte	0x52
 10365 22ea 01       		.uleb128 0x1
 10366 22eb 30       		.byte	0x30
 10367 22ec 19       		.uleb128 0x19
 10368 22ed 01       		.uleb128 0x1
 10369 22ee 53       		.byte	0x53
 10370 22ef 01       		.uleb128 0x1
 10371 22f0 30       		.byte	0x30
 10372 22f1 00       		.byte	0
 10373 22f2 1A       		.uleb128 0x1a
 10374 22f3 F2030000 		.4byte	.LVL715
 10375 22f7 AA320000 		.4byte	0x32aa
 10376 22fb 06230000 		.4byte	0x2306
 10377 22ff 19       		.uleb128 0x19
 10378 2300 01       		.uleb128 0x1
 10379 2301 50       		.byte	0x50
 10380 2302 02       		.uleb128 0x2
ARM GAS  C:\Users\FRANKL~1\AppData\Local\Temp\ccnobXgu.s 			page 217


 10381 2303 75       		.byte	0x75
 10382 2304 00       		.sleb128 0
 10383 2305 00       		.byte	0
 10384 2306 1A       		.uleb128 0x1a
 10385 2307 FA030000 		.4byte	.LVL716
 10386 230b 80030000 		.4byte	0x380
 10387 230f 1A230000 		.4byte	0x231a
 10388 2313 19       		.uleb128 0x19
 10389 2314 01       		.uleb128 0x1
 10390 2315 50       		.byte	0x50
 10391 2316 02       		.uleb128 0x2
 10392 2317 75       		.byte	0x75
 10393 2318 00       		.sleb128 0
 10394 2319 00       		.byte	0
 10395 231a 18       		.uleb128 0x18
 10396 231b 00040000 		.4byte	.LVL717
 10397 231f C0320000 		.4byte	0x32c0
 10398 2323 19       		.uleb128 0x19
 10399 2324 01       		.uleb128 0x1
 10400 2325 50       		.byte	0x50
 10401 2326 02       		.uleb128 0x2
 10402 2327 75       		.byte	0x75
 10403 2328 00       		.sleb128 0
 10404 2329 00       		.byte	0
 10405 232a 00       		.byte	0
 10406 232b 13       		.uleb128 0x13
 10407 232c 0E040000 		.4byte	.LBB72
 10408 2330 90000000 		.4byte	.LBE72-.LBB72
 10409 2334 46240000 		.4byte	0x2446
 10410 2338 14       		.uleb128 0x14
 10411 2339 810A0000 		.4byte	.LASF156
 10412 233d 02       		.byte	0x2
 10413 233e F003     		.2byte	0x3f0
 10414 2340 92000000 		.4byte	0x92
 10415 2344 02       		.uleb128 0x2
 10416 2345 91       		.byte	0x91
 10417 2346 64       		.sleb128 -28
 10418 2347 15       		.uleb128 0x15
 10419 2348 AC010000 		.4byte	.LASF154
 10420 234c 02       		.byte	0x2
 10421 234d F103     		.2byte	0x3f1
 10422 234f B5000000 		.4byte	0xb5
 10423 2353 58170000 		.4byte	.LLST160
 10424 2357 15       		.uleb128 0x15
 10425 2358 2D000000 		.4byte	.LASF155
 10426 235c 02       		.byte	0x2
 10427 235d F203     		.2byte	0x3f2
 10428 235f B5000000 		.4byte	0xb5
 10429 2363 6B170000 		.4byte	.LLST161
 10430 2367 1A       		.uleb128 0x1a
 10431 2368 32040000 		.4byte	.LVL720
 10432 236c AA320000 		.4byte	0x32aa
 10433 2370 7B230000 		.4byte	0x237b
 10434 2374 19       		.uleb128 0x19
 10435 2375 01       		.uleb128 0x1
 10436 2376 50       		.byte	0x50
 10437 2377 02       		.uleb128 0x2
ARM GAS  C:\Users\FRANKL~1\AppData\Local\Temp\ccnobXgu.s 			page 218


 10438 2378 75       		.byte	0x75
 10439 2379 00       		.sleb128 0
 10440 237a 00       		.byte	0
 10441 237b 1A       		.uleb128 0x1a
 10442 237c 3A040000 		.4byte	.LVL721
 10443 2380 80030000 		.4byte	0x380
 10444 2384 8F230000 		.4byte	0x238f
 10445 2388 19       		.uleb128 0x19
 10446 2389 01       		.uleb128 0x1
 10447 238a 50       		.byte	0x50
 10448 238b 02       		.uleb128 0x2
 10449 238c 75       		.byte	0x75
 10450 238d 00       		.sleb128 0
 10451 238e 00       		.byte	0
 10452 238f 1A       		.uleb128 0x1a
 10453 2390 40040000 		.4byte	.LVL722
 10454 2394 C0320000 		.4byte	0x32c0
 10455 2398 A3230000 		.4byte	0x23a3
 10456 239c 19       		.uleb128 0x19
 10457 239d 01       		.uleb128 0x1
 10458 239e 50       		.byte	0x50
 10459 239f 02       		.uleb128 0x2
 10460 23a0 75       		.byte	0x75
 10461 23a1 00       		.sleb128 0
 10462 23a2 00       		.byte	0
 10463 23a3 1A       		.uleb128 0x1a
 10464 23a4 48040000 		.4byte	.LVL723
 10465 23a8 A7330000 		.4byte	0x33a7
 10466 23ac BD230000 		.4byte	0x23bd
 10467 23b0 19       		.uleb128 0x19
 10468 23b1 01       		.uleb128 0x1
 10469 23b2 50       		.byte	0x50
 10470 23b3 02       		.uleb128 0x2
 10471 23b4 74       		.byte	0x74
 10472 23b5 00       		.sleb128 0
 10473 23b6 19       		.uleb128 0x19
 10474 23b7 01       		.uleb128 0x1
 10475 23b8 51       		.byte	0x51
 10476 23b9 02       		.uleb128 0x2
 10477 23ba 08       		.byte	0x8
 10478 23bb 20       		.byte	0x20
 10479 23bc 00       		.byte	0
 10480 23bd 1A       		.uleb128 0x1a
 10481 23be 56040000 		.4byte	.LVL725
 10482 23c2 B6330000 		.4byte	0x33b6
 10483 23c6 D6230000 		.4byte	0x23d6
 10484 23ca 19       		.uleb128 0x19
 10485 23cb 01       		.uleb128 0x1
 10486 23cc 51       		.byte	0x51
 10487 23cd 02       		.uleb128 0x2
 10488 23ce 74       		.byte	0x74
 10489 23cf 00       		.sleb128 0
 10490 23d0 19       		.uleb128 0x19
 10491 23d1 01       		.uleb128 0x1
 10492 23d2 52       		.byte	0x52
 10493 23d3 01       		.uleb128 0x1
 10494 23d4 3A       		.byte	0x3a
ARM GAS  C:\Users\FRANKL~1\AppData\Local\Temp\ccnobXgu.s 			page 219


 10495 23d5 00       		.byte	0
 10496 23d6 1A       		.uleb128 0x1a
 10497 23d7 62040000 		.4byte	.LVL727
 10498 23db B6330000 		.4byte	0x33b6
 10499 23df EF230000 		.4byte	0x23ef
 10500 23e3 19       		.uleb128 0x19
 10501 23e4 01       		.uleb128 0x1
 10502 23e5 51       		.byte	0x51
 10503 23e6 02       		.uleb128 0x2
 10504 23e7 74       		.byte	0x74
 10505 23e8 00       		.sleb128 0
 10506 23e9 19       		.uleb128 0x19
 10507 23ea 01       		.uleb128 0x1
 10508 23eb 52       		.byte	0x52
 10509 23ec 01       		.uleb128 0x1
 10510 23ed 3A       		.byte	0x3a
 10511 23ee 00       		.byte	0
 10512 23ef 1A       		.uleb128 0x1a
 10513 23f0 6E040000 		.4byte	.LVL729
 10514 23f4 BD1B0000 		.4byte	0x1bbd
 10515 23f8 0D240000 		.4byte	0x240d
 10516 23fc 19       		.uleb128 0x19
 10517 23fd 01       		.uleb128 0x1
 10518 23fe 50       		.byte	0x50
 10519 23ff 02       		.uleb128 0x2
 10520 2400 76       		.byte	0x76
 10521 2401 00       		.sleb128 0
 10522 2402 19       		.uleb128 0x19
 10523 2403 01       		.uleb128 0x1
 10524 2404 52       		.byte	0x52
 10525 2405 01       		.uleb128 0x1
 10526 2406 30       		.byte	0x30
 10527 2407 19       		.uleb128 0x19
 10528 2408 01       		.uleb128 0x1
 10529 2409 53       		.byte	0x53
 10530 240a 01       		.uleb128 0x1
 10531 240b 31       		.byte	0x31
 10532 240c 00       		.byte	0
 10533 240d 1A       		.uleb128 0x1a
 10534 240e 90040000 		.4byte	.LVL730
 10535 2412 AA320000 		.4byte	0x32aa
 10536 2416 21240000 		.4byte	0x2421
 10537 241a 19       		.uleb128 0x19
 10538 241b 01       		.uleb128 0x1
 10539 241c 50       		.byte	0x50
 10540 241d 02       		.uleb128 0x2
 10541 241e 75       		.byte	0x75
 10542 241f 00       		.sleb128 0
 10543 2420 00       		.byte	0
 10544 2421 1A       		.uleb128 0x1a
 10545 2422 98040000 		.4byte	.LVL731
 10546 2426 80030000 		.4byte	0x380
 10547 242a 35240000 		.4byte	0x2435
 10548 242e 19       		.uleb128 0x19
 10549 242f 01       		.uleb128 0x1
 10550 2430 50       		.byte	0x50
 10551 2431 02       		.uleb128 0x2
ARM GAS  C:\Users\FRANKL~1\AppData\Local\Temp\ccnobXgu.s 			page 220


 10552 2432 75       		.byte	0x75
 10553 2433 00       		.sleb128 0
 10554 2434 00       		.byte	0
 10555 2435 18       		.uleb128 0x18
 10556 2436 9E040000 		.4byte	.LVL732
 10557 243a C0320000 		.4byte	0x32c0
 10558 243e 19       		.uleb128 0x19
 10559 243f 01       		.uleb128 0x1
 10560 2440 50       		.byte	0x50
 10561 2441 02       		.uleb128 0x2
 10562 2442 75       		.byte	0x75
 10563 2443 00       		.sleb128 0
 10564 2444 00       		.byte	0
 10565 2445 00       		.byte	0
 10566 2446 13       		.uleb128 0x13
 10567 2447 AC040000 		.4byte	.LBB73
 10568 244b 9A000000 		.4byte	.LBE73-.LBB73
 10569 244f 61250000 		.4byte	0x2561
 10570 2453 14       		.uleb128 0x14
 10571 2454 810A0000 		.4byte	.LASF156
 10572 2458 02       		.byte	0x2
 10573 2459 FE03     		.2byte	0x3fe
 10574 245b 92000000 		.4byte	0x92
 10575 245f 02       		.uleb128 0x2
 10576 2460 91       		.byte	0x91
 10577 2461 64       		.sleb128 -28
 10578 2462 15       		.uleb128 0x15
 10579 2463 AC010000 		.4byte	.LASF154
 10580 2467 02       		.byte	0x2
 10581 2468 FF03     		.2byte	0x3ff
 10582 246a B5000000 		.4byte	0xb5
 10583 246e 89170000 		.4byte	.LLST162
 10584 2472 15       		.uleb128 0x15
 10585 2473 2D000000 		.4byte	.LASF155
 10586 2477 02       		.byte	0x2
 10587 2478 0004     		.2byte	0x400
 10588 247a B5000000 		.4byte	0xb5
 10589 247e 9C170000 		.4byte	.LLST163
 10590 2482 1A       		.uleb128 0x1a
 10591 2483 D4040000 		.4byte	.LVL735
 10592 2487 AA320000 		.4byte	0x32aa
 10593 248b 96240000 		.4byte	0x2496
 10594 248f 19       		.uleb128 0x19
 10595 2490 01       		.uleb128 0x1
 10596 2491 50       		.byte	0x50
 10597 2492 02       		.uleb128 0x2
 10598 2493 75       		.byte	0x75
 10599 2494 00       		.sleb128 0
 10600 2495 00       		.byte	0
 10601 2496 1A       		.uleb128 0x1a
 10602 2497 DC040000 		.4byte	.LVL736
 10603 249b 80030000 		.4byte	0x380
 10604 249f AA240000 		.4byte	0x24aa
 10605 24a3 19       		.uleb128 0x19
 10606 24a4 01       		.uleb128 0x1
 10607 24a5 50       		.byte	0x50
 10608 24a6 02       		.uleb128 0x2
ARM GAS  C:\Users\FRANKL~1\AppData\Local\Temp\ccnobXgu.s 			page 221


 10609 24a7 75       		.byte	0x75
 10610 24a8 00       		.sleb128 0
 10611 24a9 00       		.byte	0
 10612 24aa 1A       		.uleb128 0x1a
 10613 24ab E2040000 		.4byte	.LVL737
 10614 24af C0320000 		.4byte	0x32c0
 10615 24b3 BE240000 		.4byte	0x24be
 10616 24b7 19       		.uleb128 0x19
 10617 24b8 01       		.uleb128 0x1
 10618 24b9 50       		.byte	0x50
 10619 24ba 02       		.uleb128 0x2
 10620 24bb 75       		.byte	0x75
 10621 24bc 00       		.sleb128 0
 10622 24bd 00       		.byte	0
 10623 24be 1A       		.uleb128 0x1a
 10624 24bf EA040000 		.4byte	.LVL738
 10625 24c3 A7330000 		.4byte	0x33a7
 10626 24c7 D8240000 		.4byte	0x24d8
 10627 24cb 19       		.uleb128 0x19
 10628 24cc 01       		.uleb128 0x1
 10629 24cd 50       		.byte	0x50
 10630 24ce 02       		.uleb128 0x2
 10631 24cf 74       		.byte	0x74
 10632 24d0 00       		.sleb128 0
 10633 24d1 19       		.uleb128 0x19
 10634 24d2 01       		.uleb128 0x1
 10635 24d3 51       		.byte	0x51
 10636 24d4 02       		.uleb128 0x2
 10637 24d5 08       		.byte	0x8
 10638 24d6 20       		.byte	0x20
 10639 24d7 00       		.byte	0
 10640 24d8 1A       		.uleb128 0x1a
 10641 24d9 F8040000 		.4byte	.LVL740
 10642 24dd B6330000 		.4byte	0x33b6
 10643 24e1 F1240000 		.4byte	0x24f1
 10644 24e5 19       		.uleb128 0x19
 10645 24e6 01       		.uleb128 0x1
 10646 24e7 51       		.byte	0x51
 10647 24e8 02       		.uleb128 0x2
 10648 24e9 74       		.byte	0x74
 10649 24ea 00       		.sleb128 0
 10650 24eb 19       		.uleb128 0x19
 10651 24ec 01       		.uleb128 0x1
 10652 24ed 52       		.byte	0x52
 10653 24ee 01       		.uleb128 0x1
 10654 24ef 3A       		.byte	0x3a
 10655 24f0 00       		.byte	0
 10656 24f1 1A       		.uleb128 0x1a
 10657 24f2 04050000 		.4byte	.LVL742
 10658 24f6 B6330000 		.4byte	0x33b6
 10659 24fa 0A250000 		.4byte	0x250a
 10660 24fe 19       		.uleb128 0x19
 10661 24ff 01       		.uleb128 0x1
 10662 2500 51       		.byte	0x51
 10663 2501 02       		.uleb128 0x2
 10664 2502 74       		.byte	0x74
 10665 2503 00       		.sleb128 0
ARM GAS  C:\Users\FRANKL~1\AppData\Local\Temp\ccnobXgu.s 			page 222


 10666 2504 19       		.uleb128 0x19
 10667 2505 01       		.uleb128 0x1
 10668 2506 52       		.byte	0x52
 10669 2507 01       		.uleb128 0x1
 10670 2508 3A       		.byte	0x3a
 10671 2509 00       		.byte	0
 10672 250a 1A       		.uleb128 0x1a
 10673 250b 10050000 		.4byte	.LVL744
 10674 250f BD1B0000 		.4byte	0x1bbd
 10675 2513 28250000 		.4byte	0x2528
 10676 2517 19       		.uleb128 0x19
 10677 2518 01       		.uleb128 0x1
 10678 2519 50       		.byte	0x50
 10679 251a 02       		.uleb128 0x2
 10680 251b 76       		.byte	0x76
 10681 251c 00       		.sleb128 0
 10682 251d 19       		.uleb128 0x19
 10683 251e 01       		.uleb128 0x1
 10684 251f 52       		.byte	0x52
 10685 2520 01       		.uleb128 0x1
 10686 2521 31       		.byte	0x31
 10687 2522 19       		.uleb128 0x19
 10688 2523 01       		.uleb128 0x1
 10689 2524 53       		.byte	0x53
 10690 2525 01       		.uleb128 0x1
 10691 2526 31       		.byte	0x31
 10692 2527 00       		.byte	0
 10693 2528 1A       		.uleb128 0x1a
 10694 2529 38050000 		.4byte	.LVL746
 10695 252d AA320000 		.4byte	0x32aa
 10696 2531 3C250000 		.4byte	0x253c
 10697 2535 19       		.uleb128 0x19
 10698 2536 01       		.uleb128 0x1
 10699 2537 50       		.byte	0x50
 10700 2538 02       		.uleb128 0x2
 10701 2539 74       		.byte	0x74
 10702 253a 00       		.sleb128 0
 10703 253b 00       		.byte	0
 10704 253c 1A       		.uleb128 0x1a
 10705 253d 40050000 		.4byte	.LVL747
 10706 2541 80030000 		.4byte	0x380
 10707 2545 50250000 		.4byte	0x2550
 10708 2549 19       		.uleb128 0x19
 10709 254a 01       		.uleb128 0x1
 10710 254b 50       		.byte	0x50
 10711 254c 02       		.uleb128 0x2
 10712 254d 74       		.byte	0x74
 10713 254e 00       		.sleb128 0
 10714 254f 00       		.byte	0
 10715 2550 18       		.uleb128 0x18
 10716 2551 46050000 		.4byte	.LVL748
 10717 2555 C0320000 		.4byte	0x32c0
 10718 2559 19       		.uleb128 0x19
 10719 255a 01       		.uleb128 0x1
 10720 255b 50       		.byte	0x50
 10721 255c 02       		.uleb128 0x2
 10722 255d 74       		.byte	0x74
ARM GAS  C:\Users\FRANKL~1\AppData\Local\Temp\ccnobXgu.s 			page 223


 10723 255e 00       		.sleb128 0
 10724 255f 00       		.byte	0
 10725 2560 00       		.byte	0
 10726 2561 13       		.uleb128 0x13
 10727 2562 54050000 		.4byte	.LBB74
 10728 2566 4E000000 		.4byte	.LBE74-.LBB74
 10729 256a 65260000 		.4byte	0x2665
 10730 256e 14       		.uleb128 0x14
 10731 256f 810A0000 		.4byte	.LASF156
 10732 2573 02       		.byte	0x2
 10733 2574 0804     		.2byte	0x408
 10734 2576 92000000 		.4byte	0x92
 10735 257a 02       		.uleb128 0x2
 10736 257b 91       		.byte	0x91
 10737 257c 64       		.sleb128 -28
 10738 257d 15       		.uleb128 0x15
 10739 257e 2F020000 		.4byte	.LASF52
 10740 2582 02       		.byte	0x2
 10741 2583 0904     		.2byte	0x409
 10742 2585 B5000000 		.4byte	0xb5
 10743 2589 BA170000 		.4byte	.LLST164
 10744 258d 15       		.uleb128 0x15
 10745 258e 820C0000 		.4byte	.LASF50
 10746 2592 02       		.byte	0x2
 10747 2593 0A04     		.2byte	0x40a
 10748 2595 B5000000 		.4byte	0xb5
 10749 2599 CD170000 		.4byte	.LLST165
 10750 259d 1A       		.uleb128 0x1a
 10751 259e 5C050000 		.4byte	.LVL751
 10752 25a2 A7330000 		.4byte	0x33a7
 10753 25a6 B7250000 		.4byte	0x25b7
 10754 25aa 19       		.uleb128 0x19
 10755 25ab 01       		.uleb128 0x1
 10756 25ac 50       		.byte	0x50
 10757 25ad 02       		.uleb128 0x2
 10758 25ae 74       		.byte	0x74
 10759 25af 00       		.sleb128 0
 10760 25b0 19       		.uleb128 0x19
 10761 25b1 01       		.uleb128 0x1
 10762 25b2 51       		.byte	0x51
 10763 25b3 02       		.uleb128 0x2
 10764 25b4 08       		.byte	0x8
 10765 25b5 20       		.byte	0x20
 10766 25b6 00       		.byte	0
 10767 25b7 1A       		.uleb128 0x1a
 10768 25b8 6A050000 		.4byte	.LVL753
 10769 25bc B6330000 		.4byte	0x33b6
 10770 25c0 D0250000 		.4byte	0x25d0
 10771 25c4 19       		.uleb128 0x19
 10772 25c5 01       		.uleb128 0x1
 10773 25c6 51       		.byte	0x51
 10774 25c7 02       		.uleb128 0x2
 10775 25c8 74       		.byte	0x74
 10776 25c9 00       		.sleb128 0
 10777 25ca 19       		.uleb128 0x19
 10778 25cb 01       		.uleb128 0x1
 10779 25cc 52       		.byte	0x52
ARM GAS  C:\Users\FRANKL~1\AppData\Local\Temp\ccnobXgu.s 			page 224


 10780 25cd 01       		.uleb128 0x1
 10781 25ce 3A       		.byte	0x3a
 10782 25cf 00       		.byte	0
 10783 25d0 1A       		.uleb128 0x1a
 10784 25d1 76050000 		.4byte	.LVL755
 10785 25d5 B6330000 		.4byte	0x33b6
 10786 25d9 E9250000 		.4byte	0x25e9
 10787 25dd 19       		.uleb128 0x19
 10788 25de 01       		.uleb128 0x1
 10789 25df 51       		.byte	0x51
 10790 25e0 02       		.uleb128 0x2
 10791 25e1 74       		.byte	0x74
 10792 25e2 00       		.sleb128 0
 10793 25e3 19       		.uleb128 0x19
 10794 25e4 01       		.uleb128 0x1
 10795 25e5 52       		.byte	0x52
 10796 25e6 01       		.uleb128 0x1
 10797 25e7 3A       		.byte	0x3a
 10798 25e8 00       		.byte	0
 10799 25e9 1A       		.uleb128 0x1a
 10800 25ea 80050000 		.4byte	.LVL757
 10801 25ee 92080000 		.4byte	0x892
 10802 25f2 03260000 		.4byte	0x2603
 10803 25f6 19       		.uleb128 0x19
 10804 25f7 01       		.uleb128 0x1
 10805 25f8 50       		.byte	0x50
 10806 25f9 02       		.uleb128 0x2
 10807 25fa 75       		.byte	0x75
 10808 25fb 00       		.sleb128 0
 10809 25fc 19       		.uleb128 0x19
 10810 25fd 01       		.uleb128 0x1
 10811 25fe 51       		.byte	0x51
 10812 25ff 02       		.uleb128 0x2
 10813 2600 76       		.byte	0x76
 10814 2601 00       		.sleb128 0
 10815 2602 00       		.byte	0
 10816 2603 1A       		.uleb128 0x1a
 10817 2604 8E050000 		.4byte	.LVL758
 10818 2608 E1320000 		.4byte	0x32e1
 10819 260c 2C260000 		.4byte	0x262c
 10820 2610 19       		.uleb128 0x19
 10821 2611 01       		.uleb128 0x1
 10822 2612 50       		.byte	0x50
 10823 2613 02       		.uleb128 0x2
 10824 2614 74       		.byte	0x74
 10825 2615 00       		.sleb128 0
 10826 2616 19       		.uleb128 0x19
 10827 2617 01       		.uleb128 0x1
 10828 2618 51       		.byte	0x51
 10829 2619 05       		.uleb128 0x5
 10830 261a 03       		.byte	0x3
 10831 261b 0C030000 		.4byte	.LC43
 10832 261f 19       		.uleb128 0x19
 10833 2620 01       		.uleb128 0x1
 10834 2621 52       		.byte	0x52
 10835 2622 02       		.uleb128 0x2
 10836 2623 75       		.byte	0x75
ARM GAS  C:\Users\FRANKL~1\AppData\Local\Temp\ccnobXgu.s 			page 225


 10837 2624 00       		.sleb128 0
 10838 2625 19       		.uleb128 0x19
 10839 2626 01       		.uleb128 0x1
 10840 2627 53       		.byte	0x53
 10841 2628 02       		.uleb128 0x2
 10842 2629 76       		.byte	0x76
 10843 262a 00       		.sleb128 0
 10844 262b 00       		.byte	0
 10845 262c 1A       		.uleb128 0x1a
 10846 262d 94050000 		.4byte	.LVL759
 10847 2631 AA320000 		.4byte	0x32aa
 10848 2635 40260000 		.4byte	0x2640
 10849 2639 19       		.uleb128 0x19
 10850 263a 01       		.uleb128 0x1
 10851 263b 50       		.byte	0x50
 10852 263c 02       		.uleb128 0x2
 10853 263d 74       		.byte	0x74
 10854 263e 00       		.sleb128 0
 10855 263f 00       		.byte	0
 10856 2640 1A       		.uleb128 0x1a
 10857 2641 9C050000 		.4byte	.LVL760
 10858 2645 80030000 		.4byte	0x380
 10859 2649 54260000 		.4byte	0x2654
 10860 264d 19       		.uleb128 0x19
 10861 264e 01       		.uleb128 0x1
 10862 264f 50       		.byte	0x50
 10863 2650 02       		.uleb128 0x2
 10864 2651 74       		.byte	0x74
 10865 2652 00       		.sleb128 0
 10866 2653 00       		.byte	0
 10867 2654 18       		.uleb128 0x18
 10868 2655 A2050000 		.4byte	.LVL761
 10869 2659 C0320000 		.4byte	0x32c0
 10870 265d 19       		.uleb128 0x19
 10871 265e 01       		.uleb128 0x1
 10872 265f 50       		.byte	0x50
 10873 2660 02       		.uleb128 0x2
 10874 2661 74       		.byte	0x74
 10875 2662 00       		.sleb128 0
 10876 2663 00       		.byte	0
 10877 2664 00       		.byte	0
 10878 2665 13       		.uleb128 0x13
 10879 2666 B0050000 		.4byte	.LBB75
 10880 266a 4E000000 		.4byte	.LBE75-.LBB75
 10881 266e 69270000 		.4byte	0x2769
 10882 2672 14       		.uleb128 0x14
 10883 2673 810A0000 		.4byte	.LASF156
 10884 2677 02       		.byte	0x2
 10885 2678 1204     		.2byte	0x412
 10886 267a 92000000 		.4byte	0x92
 10887 267e 02       		.uleb128 0x2
 10888 267f 91       		.byte	0x91
 10889 2680 64       		.sleb128 -28
 10890 2681 15       		.uleb128 0x15
 10891 2682 A30C0000 		.4byte	.LASF49
 10892 2686 02       		.byte	0x2
 10893 2687 1304     		.2byte	0x413
ARM GAS  C:\Users\FRANKL~1\AppData\Local\Temp\ccnobXgu.s 			page 226


 10894 2689 B5000000 		.4byte	0xb5
 10895 268d E0170000 		.4byte	.LLST166
 10896 2691 15       		.uleb128 0x15
 10897 2692 820C0000 		.4byte	.LASF50
 10898 2696 02       		.byte	0x2
 10899 2697 1404     		.2byte	0x414
 10900 2699 B5000000 		.4byte	0xb5
 10901 269d F3170000 		.4byte	.LLST167
 10902 26a1 1A       		.uleb128 0x1a
 10903 26a2 B8050000 		.4byte	.LVL764
 10904 26a6 A7330000 		.4byte	0x33a7
 10905 26aa BB260000 		.4byte	0x26bb
 10906 26ae 19       		.uleb128 0x19
 10907 26af 01       		.uleb128 0x1
 10908 26b0 50       		.byte	0x50
 10909 26b1 02       		.uleb128 0x2
 10910 26b2 74       		.byte	0x74
 10911 26b3 00       		.sleb128 0
 10912 26b4 19       		.uleb128 0x19
 10913 26b5 01       		.uleb128 0x1
 10914 26b6 51       		.byte	0x51
 10915 26b7 02       		.uleb128 0x2
 10916 26b8 08       		.byte	0x8
 10917 26b9 20       		.byte	0x20
 10918 26ba 00       		.byte	0
 10919 26bb 1A       		.uleb128 0x1a
 10920 26bc C6050000 		.4byte	.LVL766
 10921 26c0 B6330000 		.4byte	0x33b6
 10922 26c4 D4260000 		.4byte	0x26d4
 10923 26c8 19       		.uleb128 0x19
 10924 26c9 01       		.uleb128 0x1
 10925 26ca 51       		.byte	0x51
 10926 26cb 02       		.uleb128 0x2
 10927 26cc 74       		.byte	0x74
 10928 26cd 00       		.sleb128 0
 10929 26ce 19       		.uleb128 0x19
 10930 26cf 01       		.uleb128 0x1
 10931 26d0 52       		.byte	0x52
 10932 26d1 01       		.uleb128 0x1
 10933 26d2 3A       		.byte	0x3a
 10934 26d3 00       		.byte	0
 10935 26d4 1A       		.uleb128 0x1a
 10936 26d5 D2050000 		.4byte	.LVL768
 10937 26d9 B6330000 		.4byte	0x33b6
 10938 26dd ED260000 		.4byte	0x26ed
 10939 26e1 19       		.uleb128 0x19
 10940 26e2 01       		.uleb128 0x1
 10941 26e3 51       		.byte	0x51
 10942 26e4 02       		.uleb128 0x2
 10943 26e5 74       		.byte	0x74
 10944 26e6 00       		.sleb128 0
 10945 26e7 19       		.uleb128 0x19
 10946 26e8 01       		.uleb128 0x1
 10947 26e9 52       		.byte	0x52
 10948 26ea 01       		.uleb128 0x1
 10949 26eb 3A       		.byte	0x3a
 10950 26ec 00       		.byte	0
ARM GAS  C:\Users\FRANKL~1\AppData\Local\Temp\ccnobXgu.s 			page 227


 10951 26ed 1A       		.uleb128 0x1a
 10952 26ee DC050000 		.4byte	.LVL770
 10953 26f2 55080000 		.4byte	0x855
 10954 26f6 07270000 		.4byte	0x2707
 10955 26fa 19       		.uleb128 0x19
 10956 26fb 01       		.uleb128 0x1
 10957 26fc 50       		.byte	0x50
 10958 26fd 02       		.uleb128 0x2
 10959 26fe 75       		.byte	0x75
 10960 26ff 00       		.sleb128 0
 10961 2700 19       		.uleb128 0x19
 10962 2701 01       		.uleb128 0x1
 10963 2702 51       		.byte	0x51
 10964 2703 02       		.uleb128 0x2
 10965 2704 76       		.byte	0x76
 10966 2705 00       		.sleb128 0
 10967 2706 00       		.byte	0
 10968 2707 1A       		.uleb128 0x1a
 10969 2708 EA050000 		.4byte	.LVL771
 10970 270c E1320000 		.4byte	0x32e1
 10971 2710 30270000 		.4byte	0x2730
 10972 2714 19       		.uleb128 0x19
 10973 2715 01       		.uleb128 0x1
 10974 2716 50       		.byte	0x50
 10975 2717 02       		.uleb128 0x2
 10976 2718 74       		.byte	0x74
 10977 2719 00       		.sleb128 0
 10978 271a 19       		.uleb128 0x19
 10979 271b 01       		.uleb128 0x1
 10980 271c 51       		.byte	0x51
 10981 271d 05       		.uleb128 0x5
 10982 271e 03       		.byte	0x3
 10983 271f 30030000 		.4byte	.LC45
 10984 2723 19       		.uleb128 0x19
 10985 2724 01       		.uleb128 0x1
 10986 2725 52       		.byte	0x52
 10987 2726 02       		.uleb128 0x2
 10988 2727 75       		.byte	0x75
 10989 2728 00       		.sleb128 0
 10990 2729 19       		.uleb128 0x19
 10991 272a 01       		.uleb128 0x1
 10992 272b 53       		.byte	0x53
 10993 272c 02       		.uleb128 0x2
 10994 272d 76       		.byte	0x76
 10995 272e 00       		.sleb128 0
 10996 272f 00       		.byte	0
 10997 2730 1A       		.uleb128 0x1a
 10998 2731 F0050000 		.4byte	.LVL772
 10999 2735 AA320000 		.4byte	0x32aa
 11000 2739 44270000 		.4byte	0x2744
 11001 273d 19       		.uleb128 0x19
 11002 273e 01       		.uleb128 0x1
 11003 273f 50       		.byte	0x50
 11004 2740 02       		.uleb128 0x2
 11005 2741 74       		.byte	0x74
 11006 2742 00       		.sleb128 0
 11007 2743 00       		.byte	0
ARM GAS  C:\Users\FRANKL~1\AppData\Local\Temp\ccnobXgu.s 			page 228


 11008 2744 1A       		.uleb128 0x1a
 11009 2745 F8050000 		.4byte	.LVL773
 11010 2749 80030000 		.4byte	0x380
 11011 274d 58270000 		.4byte	0x2758
 11012 2751 19       		.uleb128 0x19
 11013 2752 01       		.uleb128 0x1
 11014 2753 50       		.byte	0x50
 11015 2754 02       		.uleb128 0x2
 11016 2755 74       		.byte	0x74
 11017 2756 00       		.sleb128 0
 11018 2757 00       		.byte	0
 11019 2758 18       		.uleb128 0x18
 11020 2759 FE050000 		.4byte	.LVL774
 11021 275d C0320000 		.4byte	0x32c0
 11022 2761 19       		.uleb128 0x19
 11023 2762 01       		.uleb128 0x1
 11024 2763 50       		.byte	0x50
 11025 2764 02       		.uleb128 0x2
 11026 2765 74       		.byte	0x74
 11027 2766 00       		.sleb128 0
 11028 2767 00       		.byte	0
 11029 2768 00       		.byte	0
 11030 2769 13       		.uleb128 0x13
 11031 276a 0C060000 		.4byte	.LBB76
 11032 276e 4E000000 		.4byte	.LBE76-.LBB76
 11033 2772 6D280000 		.4byte	0x286d
 11034 2776 14       		.uleb128 0x14
 11035 2777 810A0000 		.4byte	.LASF156
 11036 277b 02       		.byte	0x2
 11037 277c 1C04     		.2byte	0x41c
 11038 277e 92000000 		.4byte	0x92
 11039 2782 02       		.uleb128 0x2
 11040 2783 91       		.byte	0x91
 11041 2784 64       		.sleb128 -28
 11042 2785 15       		.uleb128 0x15
 11043 2786 2F020000 		.4byte	.LASF52
 11044 278a 02       		.byte	0x2
 11045 278b 1D04     		.2byte	0x41d
 11046 278d B5000000 		.4byte	0xb5
 11047 2791 06180000 		.4byte	.LLST168
 11048 2795 15       		.uleb128 0x15
 11049 2796 820C0000 		.4byte	.LASF50
 11050 279a 02       		.byte	0x2
 11051 279b 1E04     		.2byte	0x41e
 11052 279d B5000000 		.4byte	0xb5
 11053 27a1 19180000 		.4byte	.LLST169
 11054 27a5 1A       		.uleb128 0x1a
 11055 27a6 14060000 		.4byte	.LVL777
 11056 27aa A7330000 		.4byte	0x33a7
 11057 27ae BF270000 		.4byte	0x27bf
 11058 27b2 19       		.uleb128 0x19
 11059 27b3 01       		.uleb128 0x1
 11060 27b4 50       		.byte	0x50
 11061 27b5 02       		.uleb128 0x2
 11062 27b6 74       		.byte	0x74
 11063 27b7 00       		.sleb128 0
 11064 27b8 19       		.uleb128 0x19
ARM GAS  C:\Users\FRANKL~1\AppData\Local\Temp\ccnobXgu.s 			page 229


 11065 27b9 01       		.uleb128 0x1
 11066 27ba 51       		.byte	0x51
 11067 27bb 02       		.uleb128 0x2
 11068 27bc 08       		.byte	0x8
 11069 27bd 20       		.byte	0x20
 11070 27be 00       		.byte	0
 11071 27bf 1A       		.uleb128 0x1a
 11072 27c0 22060000 		.4byte	.LVL779
 11073 27c4 B6330000 		.4byte	0x33b6
 11074 27c8 D8270000 		.4byte	0x27d8
 11075 27cc 19       		.uleb128 0x19
 11076 27cd 01       		.uleb128 0x1
 11077 27ce 51       		.byte	0x51
 11078 27cf 02       		.uleb128 0x2
 11079 27d0 74       		.byte	0x74
 11080 27d1 00       		.sleb128 0
 11081 27d2 19       		.uleb128 0x19
 11082 27d3 01       		.uleb128 0x1
 11083 27d4 52       		.byte	0x52
 11084 27d5 01       		.uleb128 0x1
 11085 27d6 3A       		.byte	0x3a
 11086 27d7 00       		.byte	0
 11087 27d8 1A       		.uleb128 0x1a
 11088 27d9 2E060000 		.4byte	.LVL781
 11089 27dd B6330000 		.4byte	0x33b6
 11090 27e1 F1270000 		.4byte	0x27f1
 11091 27e5 19       		.uleb128 0x19
 11092 27e6 01       		.uleb128 0x1
 11093 27e7 51       		.byte	0x51
 11094 27e8 02       		.uleb128 0x2
 11095 27e9 74       		.byte	0x74
 11096 27ea 00       		.sleb128 0
 11097 27eb 19       		.uleb128 0x19
 11098 27ec 01       		.uleb128 0x1
 11099 27ed 52       		.byte	0x52
 11100 27ee 01       		.uleb128 0x1
 11101 27ef 3A       		.byte	0x3a
 11102 27f0 00       		.byte	0
 11103 27f1 1A       		.uleb128 0x1a
 11104 27f2 38060000 		.4byte	.LVL783
 11105 27f6 DE080000 		.4byte	0x8de
 11106 27fa 0B280000 		.4byte	0x280b
 11107 27fe 19       		.uleb128 0x19
 11108 27ff 01       		.uleb128 0x1
 11109 2800 50       		.byte	0x50
 11110 2801 02       		.uleb128 0x2
 11111 2802 75       		.byte	0x75
 11112 2803 00       		.sleb128 0
 11113 2804 19       		.uleb128 0x19
 11114 2805 01       		.uleb128 0x1
 11115 2806 51       		.byte	0x51
 11116 2807 02       		.uleb128 0x2
 11117 2808 76       		.byte	0x76
 11118 2809 00       		.sleb128 0
 11119 280a 00       		.byte	0
 11120 280b 1A       		.uleb128 0x1a
 11121 280c 46060000 		.4byte	.LVL784
ARM GAS  C:\Users\FRANKL~1\AppData\Local\Temp\ccnobXgu.s 			page 230


 11122 2810 E1320000 		.4byte	0x32e1
 11123 2814 34280000 		.4byte	0x2834
 11124 2818 19       		.uleb128 0x19
 11125 2819 01       		.uleb128 0x1
 11126 281a 50       		.byte	0x50
 11127 281b 02       		.uleb128 0x2
 11128 281c 74       		.byte	0x74
 11129 281d 00       		.sleb128 0
 11130 281e 19       		.uleb128 0x19
 11131 281f 01       		.uleb128 0x1
 11132 2820 51       		.byte	0x51
 11133 2821 05       		.uleb128 0x5
 11134 2822 03       		.byte	0x3
 11135 2823 5C030000 		.4byte	.LC47
 11136 2827 19       		.uleb128 0x19
 11137 2828 01       		.uleb128 0x1
 11138 2829 52       		.byte	0x52
 11139 282a 02       		.uleb128 0x2
 11140 282b 75       		.byte	0x75
 11141 282c 00       		.sleb128 0
 11142 282d 19       		.uleb128 0x19
 11143 282e 01       		.uleb128 0x1
 11144 282f 53       		.byte	0x53
 11145 2830 02       		.uleb128 0x2
 11146 2831 76       		.byte	0x76
 11147 2832 00       		.sleb128 0
 11148 2833 00       		.byte	0
 11149 2834 1A       		.uleb128 0x1a
 11150 2835 4C060000 		.4byte	.LVL785
 11151 2839 AA320000 		.4byte	0x32aa
 11152 283d 48280000 		.4byte	0x2848
 11153 2841 19       		.uleb128 0x19
 11154 2842 01       		.uleb128 0x1
 11155 2843 50       		.byte	0x50
 11156 2844 02       		.uleb128 0x2
 11157 2845 74       		.byte	0x74
 11158 2846 00       		.sleb128 0
 11159 2847 00       		.byte	0
 11160 2848 1A       		.uleb128 0x1a
 11161 2849 54060000 		.4byte	.LVL786
 11162 284d 80030000 		.4byte	0x380
 11163 2851 5C280000 		.4byte	0x285c
 11164 2855 19       		.uleb128 0x19
 11165 2856 01       		.uleb128 0x1
 11166 2857 50       		.byte	0x50
 11167 2858 02       		.uleb128 0x2
 11168 2859 74       		.byte	0x74
 11169 285a 00       		.sleb128 0
 11170 285b 00       		.byte	0
 11171 285c 18       		.uleb128 0x18
 11172 285d 5A060000 		.4byte	.LVL787
 11173 2861 C0320000 		.4byte	0x32c0
 11174 2865 19       		.uleb128 0x19
 11175 2866 01       		.uleb128 0x1
 11176 2867 50       		.byte	0x50
 11177 2868 02       		.uleb128 0x2
 11178 2869 74       		.byte	0x74
ARM GAS  C:\Users\FRANKL~1\AppData\Local\Temp\ccnobXgu.s 			page 231


 11179 286a 00       		.sleb128 0
 11180 286b 00       		.byte	0
 11181 286c 00       		.byte	0
 11182 286d 13       		.uleb128 0x13
 11183 286e 68060000 		.4byte	.LBB77
 11184 2872 3C000000 		.4byte	.LBE77-.LBB77
 11185 2876 3C290000 		.4byte	0x293c
 11186 287a 14       		.uleb128 0x14
 11187 287b 810A0000 		.4byte	.LASF156
 11188 287f 02       		.byte	0x2
 11189 2880 2604     		.2byte	0x426
 11190 2882 92000000 		.4byte	0x92
 11191 2886 02       		.uleb128 0x2
 11192 2887 91       		.byte	0x91
 11193 2888 64       		.sleb128 -28
 11194 2889 15       		.uleb128 0x15
 11195 288a 820C0000 		.4byte	.LASF50
 11196 288e 02       		.byte	0x2
 11197 288f 2704     		.2byte	0x427
 11198 2891 B5000000 		.4byte	0xb5
 11199 2895 2C180000 		.4byte	.LLST170
 11200 2899 1A       		.uleb128 0x1a
 11201 289a 70060000 		.4byte	.LVL790
 11202 289e A7330000 		.4byte	0x33a7
 11203 28a2 B3280000 		.4byte	0x28b3
 11204 28a6 19       		.uleb128 0x19
 11205 28a7 01       		.uleb128 0x1
 11206 28a8 50       		.byte	0x50
 11207 28a9 02       		.uleb128 0x2
 11208 28aa 74       		.byte	0x74
 11209 28ab 00       		.sleb128 0
 11210 28ac 19       		.uleb128 0x19
 11211 28ad 01       		.uleb128 0x1
 11212 28ae 51       		.byte	0x51
 11213 28af 02       		.uleb128 0x2
 11214 28b0 08       		.byte	0x8
 11215 28b1 20       		.byte	0x20
 11216 28b2 00       		.byte	0
 11217 28b3 1A       		.uleb128 0x1a
 11218 28b4 7C060000 		.4byte	.LVL791
 11219 28b8 B6330000 		.4byte	0x33b6
 11220 28bc CC280000 		.4byte	0x28cc
 11221 28c0 19       		.uleb128 0x19
 11222 28c1 01       		.uleb128 0x1
 11223 28c2 51       		.byte	0x51
 11224 28c3 02       		.uleb128 0x2
 11225 28c4 91       		.byte	0x91
 11226 28c5 64       		.sleb128 -28
 11227 28c6 19       		.uleb128 0x19
 11228 28c7 01       		.uleb128 0x1
 11229 28c8 52       		.byte	0x52
 11230 28c9 01       		.uleb128 0x1
 11231 28ca 3A       		.byte	0x3a
 11232 28cb 00       		.byte	0
 11233 28cc 1A       		.uleb128 0x1a
 11234 28cd 84060000 		.4byte	.LVL793
 11235 28d1 E9090000 		.4byte	0x9e9
ARM GAS  C:\Users\FRANKL~1\AppData\Local\Temp\ccnobXgu.s 			page 232


 11236 28d5 E0280000 		.4byte	0x28e0
 11237 28d9 19       		.uleb128 0x19
 11238 28da 01       		.uleb128 0x1
 11239 28db 50       		.byte	0x50
 11240 28dc 02       		.uleb128 0x2
 11241 28dd 75       		.byte	0x75
 11242 28de 00       		.sleb128 0
 11243 28df 00       		.byte	0
 11244 28e0 1A       		.uleb128 0x1a
 11245 28e1 90060000 		.4byte	.LVL795
 11246 28e5 E1320000 		.4byte	0x32e1
 11247 28e9 03290000 		.4byte	0x2903
 11248 28ed 19       		.uleb128 0x19
 11249 28ee 01       		.uleb128 0x1
 11250 28ef 50       		.byte	0x50
 11251 28f0 02       		.uleb128 0x2
 11252 28f1 74       		.byte	0x74
 11253 28f2 00       		.sleb128 0
 11254 28f3 19       		.uleb128 0x19
 11255 28f4 01       		.uleb128 0x1
 11256 28f5 51       		.byte	0x51
 11257 28f6 05       		.uleb128 0x5
 11258 28f7 03       		.byte	0x3
 11259 28f8 90030000 		.4byte	.LC49
 11260 28fc 19       		.uleb128 0x19
 11261 28fd 01       		.uleb128 0x1
 11262 28fe 52       		.byte	0x52
 11263 28ff 02       		.uleb128 0x2
 11264 2900 75       		.byte	0x75
 11265 2901 00       		.sleb128 0
 11266 2902 00       		.byte	0
 11267 2903 1A       		.uleb128 0x1a
 11268 2904 96060000 		.4byte	.LVL796
 11269 2908 AA320000 		.4byte	0x32aa
 11270 290c 17290000 		.4byte	0x2917
 11271 2910 19       		.uleb128 0x19
 11272 2911 01       		.uleb128 0x1
 11273 2912 50       		.byte	0x50
 11274 2913 02       		.uleb128 0x2
 11275 2914 74       		.byte	0x74
 11276 2915 00       		.sleb128 0
 11277 2916 00       		.byte	0
 11278 2917 1A       		.uleb128 0x1a
 11279 2918 9E060000 		.4byte	.LVL797
 11280 291c 80030000 		.4byte	0x380
 11281 2920 2B290000 		.4byte	0x292b
 11282 2924 19       		.uleb128 0x19
 11283 2925 01       		.uleb128 0x1
 11284 2926 50       		.byte	0x50
 11285 2927 02       		.uleb128 0x2
 11286 2928 74       		.byte	0x74
 11287 2929 00       		.sleb128 0
 11288 292a 00       		.byte	0
 11289 292b 18       		.uleb128 0x18
 11290 292c A4060000 		.4byte	.LVL798
 11291 2930 C0320000 		.4byte	0x32c0
 11292 2934 19       		.uleb128 0x19
ARM GAS  C:\Users\FRANKL~1\AppData\Local\Temp\ccnobXgu.s 			page 233


 11293 2935 01       		.uleb128 0x1
 11294 2936 50       		.byte	0x50
 11295 2937 02       		.uleb128 0x2
 11296 2938 74       		.byte	0x74
 11297 2939 00       		.sleb128 0
 11298 293a 00       		.byte	0
 11299 293b 00       		.byte	0
 11300 293c 13       		.uleb128 0x13
 11301 293d 3C070000 		.4byte	.LBB78
 11302 2941 3C000000 		.4byte	.LBE78-.LBB78
 11303 2945 0B2A0000 		.4byte	0x2a0b
 11304 2949 14       		.uleb128 0x14
 11305 294a 810A0000 		.4byte	.LASF156
 11306 294e 02       		.byte	0x2
 11307 294f 3604     		.2byte	0x436
 11308 2951 92000000 		.4byte	0x92
 11309 2955 02       		.uleb128 0x2
 11310 2956 91       		.byte	0x91
 11311 2957 64       		.sleb128 -28
 11312 2958 15       		.uleb128 0x15
 11313 2959 2F020000 		.4byte	.LASF52
 11314 295d 02       		.byte	0x2
 11315 295e 3704     		.2byte	0x437
 11316 2960 B5000000 		.4byte	0xb5
 11317 2964 3F180000 		.4byte	.LLST171
 11318 2968 1A       		.uleb128 0x1a
 11319 2969 44070000 		.4byte	.LVL808
 11320 296d A7330000 		.4byte	0x33a7
 11321 2971 82290000 		.4byte	0x2982
 11322 2975 19       		.uleb128 0x19
 11323 2976 01       		.uleb128 0x1
 11324 2977 50       		.byte	0x50
 11325 2978 02       		.uleb128 0x2
 11326 2979 74       		.byte	0x74
 11327 297a 00       		.sleb128 0
 11328 297b 19       		.uleb128 0x19
 11329 297c 01       		.uleb128 0x1
 11330 297d 51       		.byte	0x51
 11331 297e 02       		.uleb128 0x2
 11332 297f 08       		.byte	0x8
 11333 2980 20       		.byte	0x20
 11334 2981 00       		.byte	0
 11335 2982 1A       		.uleb128 0x1a
 11336 2983 50070000 		.4byte	.LVL809
 11337 2987 B6330000 		.4byte	0x33b6
 11338 298b 9B290000 		.4byte	0x299b
 11339 298f 19       		.uleb128 0x19
 11340 2990 01       		.uleb128 0x1
 11341 2991 51       		.byte	0x51
 11342 2992 02       		.uleb128 0x2
 11343 2993 91       		.byte	0x91
 11344 2994 64       		.sleb128 -28
 11345 2995 19       		.uleb128 0x19
 11346 2996 01       		.uleb128 0x1
 11347 2997 52       		.byte	0x52
 11348 2998 01       		.uleb128 0x1
 11349 2999 3A       		.byte	0x3a
ARM GAS  C:\Users\FRANKL~1\AppData\Local\Temp\ccnobXgu.s 			page 234


 11350 299a 00       		.byte	0
 11351 299b 1A       		.uleb128 0x1a
 11352 299c 58070000 		.4byte	.LVL811
 11353 29a0 2A090000 		.4byte	0x92a
 11354 29a4 AF290000 		.4byte	0x29af
 11355 29a8 19       		.uleb128 0x19
 11356 29a9 01       		.uleb128 0x1
 11357 29aa 50       		.byte	0x50
 11358 29ab 02       		.uleb128 0x2
 11359 29ac 75       		.byte	0x75
 11360 29ad 00       		.sleb128 0
 11361 29ae 00       		.byte	0
 11362 29af 1A       		.uleb128 0x1a
 11363 29b0 64070000 		.4byte	.LVL813
 11364 29b4 E1320000 		.4byte	0x32e1
 11365 29b8 D2290000 		.4byte	0x29d2
 11366 29bc 19       		.uleb128 0x19
 11367 29bd 01       		.uleb128 0x1
 11368 29be 50       		.byte	0x50
 11369 29bf 02       		.uleb128 0x2
 11370 29c0 74       		.byte	0x74
 11371 29c1 00       		.sleb128 0
 11372 29c2 19       		.uleb128 0x19
 11373 29c3 01       		.uleb128 0x1
 11374 29c4 51       		.byte	0x51
 11375 29c5 05       		.uleb128 0x5
 11376 29c6 03       		.byte	0x3
 11377 29c7 04040000 		.4byte	.LC53
 11378 29cb 19       		.uleb128 0x19
 11379 29cc 01       		.uleb128 0x1
 11380 29cd 52       		.byte	0x52
 11381 29ce 02       		.uleb128 0x2
 11382 29cf 75       		.byte	0x75
 11383 29d0 00       		.sleb128 0
 11384 29d1 00       		.byte	0
 11385 29d2 1A       		.uleb128 0x1a
 11386 29d3 6A070000 		.4byte	.LVL814
 11387 29d7 AA320000 		.4byte	0x32aa
 11388 29db E6290000 		.4byte	0x29e6
 11389 29df 19       		.uleb128 0x19
 11390 29e0 01       		.uleb128 0x1
 11391 29e1 50       		.byte	0x50
 11392 29e2 02       		.uleb128 0x2
 11393 29e3 74       		.byte	0x74
 11394 29e4 00       		.sleb128 0
 11395 29e5 00       		.byte	0
 11396 29e6 1A       		.uleb128 0x1a
 11397 29e7 72070000 		.4byte	.LVL815
 11398 29eb 80030000 		.4byte	0x380
 11399 29ef FA290000 		.4byte	0x29fa
 11400 29f3 19       		.uleb128 0x19
 11401 29f4 01       		.uleb128 0x1
 11402 29f5 50       		.byte	0x50
 11403 29f6 02       		.uleb128 0x2
 11404 29f7 74       		.byte	0x74
 11405 29f8 00       		.sleb128 0
 11406 29f9 00       		.byte	0
ARM GAS  C:\Users\FRANKL~1\AppData\Local\Temp\ccnobXgu.s 			page 235


 11407 29fa 18       		.uleb128 0x18
 11408 29fb 78070000 		.4byte	.LVL816
 11409 29ff C0320000 		.4byte	0x32c0
 11410 2a03 19       		.uleb128 0x19
 11411 2a04 01       		.uleb128 0x1
 11412 2a05 50       		.byte	0x50
 11413 2a06 02       		.uleb128 0x2
 11414 2a07 74       		.byte	0x74
 11415 2a08 00       		.sleb128 0
 11416 2a09 00       		.byte	0
 11417 2a0a 00       		.byte	0
 11418 2a0b 13       		.uleb128 0x13
 11419 2a0c 86070000 		.4byte	.LBB79
 11420 2a10 3C000000 		.4byte	.LBE79-.LBB79
 11421 2a14 DA2A0000 		.4byte	0x2ada
 11422 2a18 14       		.uleb128 0x14
 11423 2a19 810A0000 		.4byte	.LASF156
 11424 2a1d 02       		.byte	0x2
 11425 2a1e 3F04     		.2byte	0x43f
 11426 2a20 92000000 		.4byte	0x92
 11427 2a24 02       		.uleb128 0x2
 11428 2a25 91       		.byte	0x91
 11429 2a26 64       		.sleb128 -28
 11430 2a27 15       		.uleb128 0x15
 11431 2a28 820C0000 		.4byte	.LASF50
 11432 2a2c 02       		.byte	0x2
 11433 2a2d 4004     		.2byte	0x440
 11434 2a2f B5000000 		.4byte	0xb5
 11435 2a33 52180000 		.4byte	.LLST172
 11436 2a37 1A       		.uleb128 0x1a
 11437 2a38 8E070000 		.4byte	.LVL819
 11438 2a3c A7330000 		.4byte	0x33a7
 11439 2a40 512A0000 		.4byte	0x2a51
 11440 2a44 19       		.uleb128 0x19
 11441 2a45 01       		.uleb128 0x1
 11442 2a46 50       		.byte	0x50
 11443 2a47 02       		.uleb128 0x2
 11444 2a48 74       		.byte	0x74
 11445 2a49 00       		.sleb128 0
 11446 2a4a 19       		.uleb128 0x19
 11447 2a4b 01       		.uleb128 0x1
 11448 2a4c 51       		.byte	0x51
 11449 2a4d 02       		.uleb128 0x2
 11450 2a4e 08       		.byte	0x8
 11451 2a4f 20       		.byte	0x20
 11452 2a50 00       		.byte	0
 11453 2a51 1A       		.uleb128 0x1a
 11454 2a52 9A070000 		.4byte	.LVL820
 11455 2a56 B6330000 		.4byte	0x33b6
 11456 2a5a 6A2A0000 		.4byte	0x2a6a
 11457 2a5e 19       		.uleb128 0x19
 11458 2a5f 01       		.uleb128 0x1
 11459 2a60 51       		.byte	0x51
 11460 2a61 02       		.uleb128 0x2
 11461 2a62 91       		.byte	0x91
 11462 2a63 64       		.sleb128 -28
 11463 2a64 19       		.uleb128 0x19
ARM GAS  C:\Users\FRANKL~1\AppData\Local\Temp\ccnobXgu.s 			page 236


 11464 2a65 01       		.uleb128 0x1
 11465 2a66 52       		.byte	0x52
 11466 2a67 01       		.uleb128 0x1
 11467 2a68 3A       		.byte	0x3a
 11468 2a69 00       		.byte	0
 11469 2a6a 1A       		.uleb128 0x1a
 11470 2a6b A2070000 		.4byte	.LVL822
 11471 2a6f 340A0000 		.4byte	0xa34
 11472 2a73 7E2A0000 		.4byte	0x2a7e
 11473 2a77 19       		.uleb128 0x19
 11474 2a78 01       		.uleb128 0x1
 11475 2a79 50       		.byte	0x50
 11476 2a7a 02       		.uleb128 0x2
 11477 2a7b 75       		.byte	0x75
 11478 2a7c 00       		.sleb128 0
 11479 2a7d 00       		.byte	0
 11480 2a7e 1A       		.uleb128 0x1a
 11481 2a7f AE070000 		.4byte	.LVL824
 11482 2a83 E1320000 		.4byte	0x32e1
 11483 2a87 A12A0000 		.4byte	0x2aa1
 11484 2a8b 19       		.uleb128 0x19
 11485 2a8c 01       		.uleb128 0x1
 11486 2a8d 50       		.byte	0x50
 11487 2a8e 02       		.uleb128 0x2
 11488 2a8f 74       		.byte	0x74
 11489 2a90 00       		.sleb128 0
 11490 2a91 19       		.uleb128 0x19
 11491 2a92 01       		.uleb128 0x1
 11492 2a93 51       		.byte	0x51
 11493 2a94 05       		.uleb128 0x5
 11494 2a95 03       		.byte	0x3
 11495 2a96 3C040000 		.4byte	.LC55
 11496 2a9a 19       		.uleb128 0x19
 11497 2a9b 01       		.uleb128 0x1
 11498 2a9c 52       		.byte	0x52
 11499 2a9d 02       		.uleb128 0x2
 11500 2a9e 75       		.byte	0x75
 11501 2a9f 00       		.sleb128 0
 11502 2aa0 00       		.byte	0
 11503 2aa1 1A       		.uleb128 0x1a
 11504 2aa2 B4070000 		.4byte	.LVL825
 11505 2aa6 AA320000 		.4byte	0x32aa
 11506 2aaa B52A0000 		.4byte	0x2ab5
 11507 2aae 19       		.uleb128 0x19
 11508 2aaf 01       		.uleb128 0x1
 11509 2ab0 50       		.byte	0x50
 11510 2ab1 02       		.uleb128 0x2
 11511 2ab2 74       		.byte	0x74
 11512 2ab3 00       		.sleb128 0
 11513 2ab4 00       		.byte	0
 11514 2ab5 1A       		.uleb128 0x1a
 11515 2ab6 BC070000 		.4byte	.LVL826
 11516 2aba 80030000 		.4byte	0x380
 11517 2abe C92A0000 		.4byte	0x2ac9
 11518 2ac2 19       		.uleb128 0x19
 11519 2ac3 01       		.uleb128 0x1
 11520 2ac4 50       		.byte	0x50
ARM GAS  C:\Users\FRANKL~1\AppData\Local\Temp\ccnobXgu.s 			page 237


 11521 2ac5 02       		.uleb128 0x2
 11522 2ac6 74       		.byte	0x74
 11523 2ac7 00       		.sleb128 0
 11524 2ac8 00       		.byte	0
 11525 2ac9 18       		.uleb128 0x18
 11526 2aca C2070000 		.4byte	.LVL827
 11527 2ace C0320000 		.4byte	0x32c0
 11528 2ad2 19       		.uleb128 0x19
 11529 2ad3 01       		.uleb128 0x1
 11530 2ad4 50       		.byte	0x50
 11531 2ad5 02       		.uleb128 0x2
 11532 2ad6 74       		.byte	0x74
 11533 2ad7 00       		.sleb128 0
 11534 2ad8 00       		.byte	0
 11535 2ad9 00       		.byte	0
 11536 2ada 13       		.uleb128 0x13
 11537 2adb 0C080000 		.4byte	.LBB80
 11538 2adf 54000000 		.4byte	.LBE80-.LBB80
 11539 2ae3 722B0000 		.4byte	0x2b72
 11540 2ae7 14       		.uleb128 0x14
 11541 2ae8 810A0000 		.4byte	.LASF156
 11542 2aec 02       		.byte	0x2
 11543 2aed 4F04     		.2byte	0x44f
 11544 2aef 92000000 		.4byte	0x92
 11545 2af3 02       		.uleb128 0x2
 11546 2af4 91       		.byte	0x91
 11547 2af5 64       		.sleb128 -28
 11548 2af6 15       		.uleb128 0x15
 11549 2af7 050B0000 		.4byte	.LASF63
 11550 2afb 02       		.byte	0x2
 11551 2afc 5004     		.2byte	0x450
 11552 2afe CD000000 		.4byte	0xcd
 11553 2b02 65180000 		.4byte	.LLST173
 11554 2b06 1A       		.uleb128 0x1a
 11555 2b07 14080000 		.4byte	.LVL837
 11556 2b0b A7330000 		.4byte	0x33a7
 11557 2b0f 202B0000 		.4byte	0x2b20
 11558 2b13 19       		.uleb128 0x19
 11559 2b14 01       		.uleb128 0x1
 11560 2b15 50       		.byte	0x50
 11561 2b16 02       		.uleb128 0x2
 11562 2b17 74       		.byte	0x74
 11563 2b18 00       		.sleb128 0
 11564 2b19 19       		.uleb128 0x19
 11565 2b1a 01       		.uleb128 0x1
 11566 2b1b 51       		.byte	0x51
 11567 2b1c 02       		.uleb128 0x2
 11568 2b1d 08       		.byte	0x8
 11569 2b1e 20       		.byte	0x20
 11570 2b1f 00       		.byte	0
 11571 2b20 1A       		.uleb128 0x1a
 11572 2b21 20080000 		.4byte	.LVL838
 11573 2b25 B6330000 		.4byte	0x33b6
 11574 2b29 392B0000 		.4byte	0x2b39
 11575 2b2d 19       		.uleb128 0x19
 11576 2b2e 01       		.uleb128 0x1
 11577 2b2f 51       		.byte	0x51
ARM GAS  C:\Users\FRANKL~1\AppData\Local\Temp\ccnobXgu.s 			page 238


 11578 2b30 02       		.uleb128 0x2
 11579 2b31 91       		.byte	0x91
 11580 2b32 64       		.sleb128 -28
 11581 2b33 19       		.uleb128 0x19
 11582 2b34 01       		.uleb128 0x1
 11583 2b35 52       		.byte	0x52
 11584 2b36 01       		.uleb128 0x1
 11585 2b37 3A       		.byte	0x3a
 11586 2b38 00       		.byte	0
 11587 2b39 1A       		.uleb128 0x1a
 11588 2b3a 52080000 		.4byte	.LVL841
 11589 2b3e AA320000 		.4byte	0x32aa
 11590 2b42 4D2B0000 		.4byte	0x2b4d
 11591 2b46 19       		.uleb128 0x19
 11592 2b47 01       		.uleb128 0x1
 11593 2b48 50       		.byte	0x50
 11594 2b49 02       		.uleb128 0x2
 11595 2b4a 74       		.byte	0x74
 11596 2b4b 00       		.sleb128 0
 11597 2b4c 00       		.byte	0
 11598 2b4d 1A       		.uleb128 0x1a
 11599 2b4e 5A080000 		.4byte	.LVL842
 11600 2b52 80030000 		.4byte	0x380
 11601 2b56 612B0000 		.4byte	0x2b61
 11602 2b5a 19       		.uleb128 0x19
 11603 2b5b 01       		.uleb128 0x1
 11604 2b5c 50       		.byte	0x50
 11605 2b5d 02       		.uleb128 0x2
 11606 2b5e 74       		.byte	0x74
 11607 2b5f 00       		.sleb128 0
 11608 2b60 00       		.byte	0
 11609 2b61 18       		.uleb128 0x18
 11610 2b62 60080000 		.4byte	.LVL843
 11611 2b66 C0320000 		.4byte	0x32c0
 11612 2b6a 19       		.uleb128 0x19
 11613 2b6b 01       		.uleb128 0x1
 11614 2b6c 50       		.byte	0x50
 11615 2b6d 02       		.uleb128 0x2
 11616 2b6e 74       		.byte	0x74
 11617 2b6f 00       		.sleb128 0
 11618 2b70 00       		.byte	0
 11619 2b71 00       		.byte	0
 11620 2b72 1A       		.uleb128 0x1a
 11621 2b73 94000000 		.4byte	.LVL632
 11622 2b77 52320000 		.4byte	0x3252
 11623 2b7b 8F2B0000 		.4byte	0x2b8f
 11624 2b7f 19       		.uleb128 0x19
 11625 2b80 01       		.uleb128 0x1
 11626 2b81 50       		.byte	0x50
 11627 2b82 02       		.uleb128 0x2
 11628 2b83 74       		.byte	0x74
 11629 2b84 00       		.sleb128 0
 11630 2b85 19       		.uleb128 0x19
 11631 2b86 01       		.uleb128 0x1
 11632 2b87 51       		.byte	0x51
 11633 2b88 05       		.uleb128 0x5
 11634 2b89 03       		.byte	0x3
ARM GAS  C:\Users\FRANKL~1\AppData\Local\Temp\ccnobXgu.s 			page 239


 11635 2b8a D4000000 		.4byte	.LC14
 11636 2b8e 00       		.byte	0
 11637 2b8f 1A       		.uleb128 0x1a
 11638 2b90 A2000000 		.4byte	.LVL633
 11639 2b94 CF140000 		.4byte	0x14cf
 11640 2b98 AD2B0000 		.4byte	0x2bad
 11641 2b9c 19       		.uleb128 0x19
 11642 2b9d 01       		.uleb128 0x1
 11643 2b9e 50       		.byte	0x50
 11644 2b9f 02       		.uleb128 0x2
 11645 2ba0 08       		.byte	0x8
 11646 2ba1 64       		.byte	0x64
 11647 2ba2 19       		.uleb128 0x19
 11648 2ba3 01       		.uleb128 0x1
 11649 2ba4 51       		.byte	0x51
 11650 2ba5 01       		.uleb128 0x1
 11651 2ba6 31       		.byte	0x31
 11652 2ba7 19       		.uleb128 0x19
 11653 2ba8 01       		.uleb128 0x1
 11654 2ba9 52       		.byte	0x52
 11655 2baa 01       		.uleb128 0x1
 11656 2bab 3A       		.byte	0x3a
 11657 2bac 00       		.byte	0
 11658 2bad 1A       		.uleb128 0x1a
 11659 2bae AC000000 		.4byte	.LVL634
 11660 2bb2 52320000 		.4byte	0x3252
 11661 2bb6 CA2B0000 		.4byte	0x2bca
 11662 2bba 19       		.uleb128 0x19
 11663 2bbb 01       		.uleb128 0x1
 11664 2bbc 50       		.byte	0x50
 11665 2bbd 02       		.uleb128 0x2
 11666 2bbe 74       		.byte	0x74
 11667 2bbf 00       		.sleb128 0
 11668 2bc0 19       		.uleb128 0x19
 11669 2bc1 01       		.uleb128 0x1
 11670 2bc2 51       		.byte	0x51
 11671 2bc3 05       		.uleb128 0x5
 11672 2bc4 03       		.byte	0x3
 11673 2bc5 E0000000 		.4byte	.LC15
 11674 2bc9 00       		.byte	0
 11675 2bca 1A       		.uleb128 0x1a
 11676 2bcb D2000000 		.4byte	.LVL638
 11677 2bcf 52320000 		.4byte	0x3252
 11678 2bd3 E72B0000 		.4byte	0x2be7
 11679 2bd7 19       		.uleb128 0x19
 11680 2bd8 01       		.uleb128 0x1
 11681 2bd9 50       		.byte	0x50
 11682 2bda 02       		.uleb128 0x2
 11683 2bdb 74       		.byte	0x74
 11684 2bdc 00       		.sleb128 0
 11685 2bdd 19       		.uleb128 0x19
 11686 2bde 01       		.uleb128 0x1
 11687 2bdf 51       		.byte	0x51
 11688 2be0 05       		.uleb128 0x5
 11689 2be1 03       		.byte	0x3
 11690 2be2 F4000000 		.4byte	.LC16
 11691 2be6 00       		.byte	0
ARM GAS  C:\Users\FRANKL~1\AppData\Local\Temp\ccnobXgu.s 			page 240


 11692 2be7 10       		.uleb128 0x10
 11693 2be8 DA000000 		.4byte	.LVL639
 11694 2bec C6160000 		.4byte	0x16c6
 11695 2bf0 1A       		.uleb128 0x1a
 11696 2bf1 E4000000 		.4byte	.LVL640
 11697 2bf5 52320000 		.4byte	0x3252
 11698 2bf9 0D2C0000 		.4byte	0x2c0d
 11699 2bfd 19       		.uleb128 0x19
 11700 2bfe 01       		.uleb128 0x1
 11701 2bff 50       		.byte	0x50
 11702 2c00 02       		.uleb128 0x2
 11703 2c01 74       		.byte	0x74
 11704 2c02 00       		.sleb128 0
 11705 2c03 19       		.uleb128 0x19
 11706 2c04 01       		.uleb128 0x1
 11707 2c05 51       		.byte	0x51
 11708 2c06 05       		.uleb128 0x5
 11709 2c07 03       		.byte	0x3
 11710 2c08 04010000 		.4byte	.LC17
 11711 2c0c 00       		.byte	0
 11712 2c0d 1A       		.uleb128 0x1a
 11713 2c0e EE000000 		.4byte	.LVL641
 11714 2c12 4D170000 		.4byte	0x174d
 11715 2c16 202C0000 		.4byte	0x2c20
 11716 2c1a 19       		.uleb128 0x19
 11717 2c1b 01       		.uleb128 0x1
 11718 2c1c 50       		.byte	0x50
 11719 2c1d 01       		.uleb128 0x1
 11720 2c1e 30       		.byte	0x30
 11721 2c1f 00       		.byte	0
 11722 2c20 1A       		.uleb128 0x1a
 11723 2c21 F8000000 		.4byte	.LVL642
 11724 2c25 52320000 		.4byte	0x3252
 11725 2c29 3D2C0000 		.4byte	0x2c3d
 11726 2c2d 19       		.uleb128 0x19
 11727 2c2e 01       		.uleb128 0x1
 11728 2c2f 50       		.byte	0x50
 11729 2c30 02       		.uleb128 0x2
 11730 2c31 74       		.byte	0x74
 11731 2c32 00       		.sleb128 0
 11732 2c33 19       		.uleb128 0x19
 11733 2c34 01       		.uleb128 0x1
 11734 2c35 51       		.byte	0x51
 11735 2c36 05       		.uleb128 0x5
 11736 2c37 03       		.byte	0x3
 11737 2c38 18010000 		.4byte	.LC18
 11738 2c3c 00       		.byte	0
 11739 2c3d 1A       		.uleb128 0x1a
 11740 2c3e 02010000 		.4byte	.LVL643
 11741 2c42 4D170000 		.4byte	0x174d
 11742 2c46 502C0000 		.4byte	0x2c50
 11743 2c4a 19       		.uleb128 0x19
 11744 2c4b 01       		.uleb128 0x1
 11745 2c4c 50       		.byte	0x50
 11746 2c4d 01       		.uleb128 0x1
 11747 2c4e 31       		.byte	0x31
 11748 2c4f 00       		.byte	0
ARM GAS  C:\Users\FRANKL~1\AppData\Local\Temp\ccnobXgu.s 			page 241


 11749 2c50 1A       		.uleb128 0x1a
 11750 2c51 0C010000 		.4byte	.LVL644
 11751 2c55 52320000 		.4byte	0x3252
 11752 2c59 6D2C0000 		.4byte	0x2c6d
 11753 2c5d 19       		.uleb128 0x19
 11754 2c5e 01       		.uleb128 0x1
 11755 2c5f 50       		.byte	0x50
 11756 2c60 02       		.uleb128 0x2
 11757 2c61 74       		.byte	0x74
 11758 2c62 00       		.sleb128 0
 11759 2c63 19       		.uleb128 0x19
 11760 2c64 01       		.uleb128 0x1
 11761 2c65 51       		.byte	0x51
 11762 2c66 05       		.uleb128 0x5
 11763 2c67 03       		.byte	0x3
 11764 2c68 34010000 		.4byte	.LC19
 11765 2c6c 00       		.byte	0
 11766 2c6d 1A       		.uleb128 0x1a
 11767 2c6e 34010000 		.4byte	.LVL648
 11768 2c72 52320000 		.4byte	0x3252
 11769 2c76 8A2C0000 		.4byte	0x2c8a
 11770 2c7a 19       		.uleb128 0x19
 11771 2c7b 01       		.uleb128 0x1
 11772 2c7c 50       		.byte	0x50
 11773 2c7d 02       		.uleb128 0x2
 11774 2c7e 74       		.byte	0x74
 11775 2c7f 00       		.sleb128 0
 11776 2c80 19       		.uleb128 0x19
 11777 2c81 01       		.uleb128 0x1
 11778 2c82 51       		.byte	0x51
 11779 2c83 05       		.uleb128 0x5
 11780 2c84 03       		.byte	0x3
 11781 2c85 44010000 		.4byte	.LC20
 11782 2c89 00       		.byte	0
 11783 2c8a 1A       		.uleb128 0x1a
 11784 2c8b 5C010000 		.4byte	.LVL652
 11785 2c8f 52320000 		.4byte	0x3252
 11786 2c93 A72C0000 		.4byte	0x2ca7
 11787 2c97 19       		.uleb128 0x19
 11788 2c98 01       		.uleb128 0x1
 11789 2c99 50       		.byte	0x50
 11790 2c9a 02       		.uleb128 0x2
 11791 2c9b 74       		.byte	0x74
 11792 2c9c 00       		.sleb128 0
 11793 2c9d 19       		.uleb128 0x19
 11794 2c9e 01       		.uleb128 0x1
 11795 2c9f 51       		.byte	0x51
 11796 2ca0 05       		.uleb128 0x5
 11797 2ca1 03       		.byte	0x3
 11798 2ca2 54010000 		.4byte	.LC21
 11799 2ca6 00       		.byte	0
 11800 2ca7 1A       		.uleb128 0x1a
 11801 2ca8 84010000 		.4byte	.LVL656
 11802 2cac 52320000 		.4byte	0x3252
 11803 2cb0 C42C0000 		.4byte	0x2cc4
 11804 2cb4 19       		.uleb128 0x19
 11805 2cb5 01       		.uleb128 0x1
ARM GAS  C:\Users\FRANKL~1\AppData\Local\Temp\ccnobXgu.s 			page 242


 11806 2cb6 50       		.byte	0x50
 11807 2cb7 02       		.uleb128 0x2
 11808 2cb8 74       		.byte	0x74
 11809 2cb9 00       		.sleb128 0
 11810 2cba 19       		.uleb128 0x19
 11811 2cbb 01       		.uleb128 0x1
 11812 2cbc 51       		.byte	0x51
 11813 2cbd 05       		.uleb128 0x5
 11814 2cbe 03       		.byte	0x3
 11815 2cbf 64010000 		.4byte	.LC22
 11816 2cc3 00       		.byte	0
 11817 2cc4 1A       		.uleb128 0x1a
 11818 2cc5 AC010000 		.4byte	.LVL660
 11819 2cc9 52320000 		.4byte	0x3252
 11820 2ccd E12C0000 		.4byte	0x2ce1
 11821 2cd1 19       		.uleb128 0x19
 11822 2cd2 01       		.uleb128 0x1
 11823 2cd3 50       		.byte	0x50
 11824 2cd4 02       		.uleb128 0x2
 11825 2cd5 74       		.byte	0x74
 11826 2cd6 00       		.sleb128 0
 11827 2cd7 19       		.uleb128 0x19
 11828 2cd8 01       		.uleb128 0x1
 11829 2cd9 51       		.byte	0x51
 11830 2cda 05       		.uleb128 0x5
 11831 2cdb 03       		.byte	0x3
 11832 2cdc 74010000 		.4byte	.LC23
 11833 2ce0 00       		.byte	0
 11834 2ce1 1A       		.uleb128 0x1a
 11835 2ce2 D6010000 		.4byte	.LVL664
 11836 2ce6 52320000 		.4byte	0x3252
 11837 2cea FE2C0000 		.4byte	0x2cfe
 11838 2cee 19       		.uleb128 0x19
 11839 2cef 01       		.uleb128 0x1
 11840 2cf0 50       		.byte	0x50
 11841 2cf1 02       		.uleb128 0x2
 11842 2cf2 74       		.byte	0x74
 11843 2cf3 00       		.sleb128 0
 11844 2cf4 19       		.uleb128 0x19
 11845 2cf5 01       		.uleb128 0x1
 11846 2cf6 51       		.byte	0x51
 11847 2cf7 05       		.uleb128 0x5
 11848 2cf8 03       		.byte	0x3
 11849 2cf9 84010000 		.4byte	.LC25
 11850 2cfd 00       		.byte	0
 11851 2cfe 1A       		.uleb128 0x1a
 11852 2cff 00020000 		.4byte	.LVL668
 11853 2d03 52320000 		.4byte	0x3252
 11854 2d07 1B2D0000 		.4byte	0x2d1b
 11855 2d0b 19       		.uleb128 0x19
 11856 2d0c 01       		.uleb128 0x1
 11857 2d0d 50       		.byte	0x50
 11858 2d0e 02       		.uleb128 0x2
 11859 2d0f 74       		.byte	0x74
 11860 2d10 00       		.sleb128 0
 11861 2d11 19       		.uleb128 0x19
 11862 2d12 01       		.uleb128 0x1
ARM GAS  C:\Users\FRANKL~1\AppData\Local\Temp\ccnobXgu.s 			page 243


 11863 2d13 51       		.byte	0x51
 11864 2d14 05       		.uleb128 0x5
 11865 2d15 03       		.byte	0x3
 11866 2d16 90010000 		.4byte	.LC26
 11867 2d1a 00       		.byte	0
 11868 2d1b 1A       		.uleb128 0x1a
 11869 2d1c 54020000 		.4byte	.LVL681
 11870 2d20 52320000 		.4byte	0x3252
 11871 2d24 382D0000 		.4byte	0x2d38
 11872 2d28 19       		.uleb128 0x19
 11873 2d29 01       		.uleb128 0x1
 11874 2d2a 50       		.byte	0x50
 11875 2d2b 02       		.uleb128 0x2
 11876 2d2c 74       		.byte	0x74
 11877 2d2d 00       		.sleb128 0
 11878 2d2e 19       		.uleb128 0x19
 11879 2d2f 01       		.uleb128 0x1
 11880 2d30 51       		.byte	0x51
 11881 2d31 05       		.uleb128 0x5
 11882 2d32 03       		.byte	0x3
 11883 2d33 B4010000 		.4byte	.LC28
 11884 2d37 00       		.byte	0
 11885 2d38 1A       		.uleb128 0x1a
 11886 2d39 A8020000 		.4byte	.LVL694
 11887 2d3d 52320000 		.4byte	0x3252
 11888 2d41 552D0000 		.4byte	0x2d55
 11889 2d45 19       		.uleb128 0x19
 11890 2d46 01       		.uleb128 0x1
 11891 2d47 50       		.byte	0x50
 11892 2d48 02       		.uleb128 0x2
 11893 2d49 74       		.byte	0x74
 11894 2d4a 00       		.sleb128 0
 11895 2d4b 19       		.uleb128 0x19
 11896 2d4c 01       		.uleb128 0x1
 11897 2d4d 51       		.byte	0x51
 11898 2d4e 05       		.uleb128 0x5
 11899 2d4f 03       		.byte	0x3
 11900 2d50 D8010000 		.4byte	.LC30
 11901 2d54 00       		.byte	0
 11902 2d55 1A       		.uleb128 0x1a
 11903 2d56 C4020000 		.4byte	.LVL696
 11904 2d5a AA320000 		.4byte	0x32aa
 11905 2d5e 692D0000 		.4byte	0x2d69
 11906 2d62 19       		.uleb128 0x19
 11907 2d63 01       		.uleb128 0x1
 11908 2d64 50       		.byte	0x50
 11909 2d65 02       		.uleb128 0x2
 11910 2d66 74       		.byte	0x74
 11911 2d67 00       		.sleb128 0
 11912 2d68 00       		.byte	0
 11913 2d69 1A       		.uleb128 0x1a
 11914 2d6a CC020000 		.4byte	.LVL697
 11915 2d6e 80030000 		.4byte	0x380
 11916 2d72 7D2D0000 		.4byte	0x2d7d
 11917 2d76 19       		.uleb128 0x19
 11918 2d77 01       		.uleb128 0x1
 11919 2d78 50       		.byte	0x50
ARM GAS  C:\Users\FRANKL~1\AppData\Local\Temp\ccnobXgu.s 			page 244


 11920 2d79 02       		.uleb128 0x2
 11921 2d7a 74       		.byte	0x74
 11922 2d7b 00       		.sleb128 0
 11923 2d7c 00       		.byte	0
 11924 2d7d 1A       		.uleb128 0x1a
 11925 2d7e D2020000 		.4byte	.LVL698
 11926 2d82 C0320000 		.4byte	0x32c0
 11927 2d86 912D0000 		.4byte	0x2d91
 11928 2d8a 19       		.uleb128 0x19
 11929 2d8b 01       		.uleb128 0x1
 11930 2d8c 50       		.byte	0x50
 11931 2d8d 02       		.uleb128 0x2
 11932 2d8e 74       		.byte	0x74
 11933 2d8f 00       		.sleb128 0
 11934 2d90 00       		.byte	0
 11935 2d91 1A       		.uleb128 0x1a
 11936 2d92 DA020000 		.4byte	.LVL699
 11937 2d96 521A0000 		.4byte	0x1a52
 11938 2d9a A92D0000 		.4byte	0x2da9
 11939 2d9e 19       		.uleb128 0x19
 11940 2d9f 01       		.uleb128 0x1
 11941 2da0 50       		.byte	0x50
 11942 2da1 01       		.uleb128 0x1
 11943 2da2 30       		.byte	0x30
 11944 2da3 19       		.uleb128 0x19
 11945 2da4 01       		.uleb128 0x1
 11946 2da5 51       		.byte	0x51
 11947 2da6 01       		.uleb128 0x1
 11948 2da7 30       		.byte	0x30
 11949 2da8 00       		.byte	0
 11950 2da9 1A       		.uleb128 0x1a
 11951 2daa F0020000 		.4byte	.LVL700
 11952 2dae AA320000 		.4byte	0x32aa
 11953 2db2 BD2D0000 		.4byte	0x2dbd
 11954 2db6 19       		.uleb128 0x19
 11955 2db7 01       		.uleb128 0x1
 11956 2db8 50       		.byte	0x50
 11957 2db9 02       		.uleb128 0x2
 11958 2dba 74       		.byte	0x74
 11959 2dbb 00       		.sleb128 0
 11960 2dbc 00       		.byte	0
 11961 2dbd 1A       		.uleb128 0x1a
 11962 2dbe F8020000 		.4byte	.LVL701
 11963 2dc2 80030000 		.4byte	0x380
 11964 2dc6 D12D0000 		.4byte	0x2dd1
 11965 2dca 19       		.uleb128 0x19
 11966 2dcb 01       		.uleb128 0x1
 11967 2dcc 50       		.byte	0x50
 11968 2dcd 02       		.uleb128 0x2
 11969 2dce 74       		.byte	0x74
 11970 2dcf 00       		.sleb128 0
 11971 2dd0 00       		.byte	0
 11972 2dd1 1A       		.uleb128 0x1a
 11973 2dd2 FE020000 		.4byte	.LVL702
 11974 2dd6 C0320000 		.4byte	0x32c0
 11975 2dda E52D0000 		.4byte	0x2de5
 11976 2dde 19       		.uleb128 0x19
ARM GAS  C:\Users\FRANKL~1\AppData\Local\Temp\ccnobXgu.s 			page 245


 11977 2ddf 01       		.uleb128 0x1
 11978 2de0 50       		.byte	0x50
 11979 2de1 02       		.uleb128 0x2
 11980 2de2 74       		.byte	0x74
 11981 2de3 00       		.sleb128 0
 11982 2de4 00       		.byte	0
 11983 2de5 1A       		.uleb128 0x1a
 11984 2de6 78030000 		.4byte	.LVL704
 11985 2dea 52320000 		.4byte	0x3252
 11986 2dee 022E0000 		.4byte	0x2e02
 11987 2df2 19       		.uleb128 0x19
 11988 2df3 01       		.uleb128 0x1
 11989 2df4 50       		.byte	0x50
 11990 2df5 02       		.uleb128 0x2
 11991 2df6 74       		.byte	0x74
 11992 2df7 00       		.sleb128 0
 11993 2df8 19       		.uleb128 0x19
 11994 2df9 01       		.uleb128 0x1
 11995 2dfa 51       		.byte	0x51
 11996 2dfb 05       		.uleb128 0x5
 11997 2dfc 03       		.byte	0x3
 11998 2dfd 08020000 		.4byte	.LC33
 11999 2e01 00       		.byte	0
 12000 2e02 1A       		.uleb128 0x1a
 12001 2e03 0A040000 		.4byte	.LVL719
 12002 2e07 52320000 		.4byte	0x3252
 12003 2e0b 1F2E0000 		.4byte	0x2e1f
 12004 2e0f 19       		.uleb128 0x19
 12005 2e10 01       		.uleb128 0x1
 12006 2e11 50       		.byte	0x50
 12007 2e12 02       		.uleb128 0x2
 12008 2e13 74       		.byte	0x74
 12009 2e14 00       		.sleb128 0
 12010 2e15 19       		.uleb128 0x19
 12011 2e16 01       		.uleb128 0x1
 12012 2e17 51       		.byte	0x51
 12013 2e18 05       		.uleb128 0x5
 12014 2e19 03       		.byte	0x3
 12015 2e1a 4C020000 		.4byte	.LC36
 12016 2e1e 00       		.byte	0
 12017 2e1f 1A       		.uleb128 0x1a
 12018 2e20 A8040000 		.4byte	.LVL734
 12019 2e24 52320000 		.4byte	0x3252
 12020 2e28 3C2E0000 		.4byte	0x2e3c
 12021 2e2c 19       		.uleb128 0x19
 12022 2e2d 01       		.uleb128 0x1
 12023 2e2e 50       		.byte	0x50
 12024 2e2f 02       		.uleb128 0x2
 12025 2e30 74       		.byte	0x74
 12026 2e31 00       		.sleb128 0
 12027 2e32 19       		.uleb128 0x19
 12028 2e33 01       		.uleb128 0x1
 12029 2e34 51       		.byte	0x51
 12030 2e35 05       		.uleb128 0x5
 12031 2e36 03       		.byte	0x3
 12032 2e37 A0020000 		.4byte	.LC39
 12033 2e3b 00       		.byte	0
ARM GAS  C:\Users\FRANKL~1\AppData\Local\Temp\ccnobXgu.s 			page 246


 12034 2e3c 1A       		.uleb128 0x1a
 12035 2e3d 50050000 		.4byte	.LVL750
 12036 2e41 52320000 		.4byte	0x3252
 12037 2e45 592E0000 		.4byte	0x2e59
 12038 2e49 19       		.uleb128 0x19
 12039 2e4a 01       		.uleb128 0x1
 12040 2e4b 50       		.byte	0x50
 12041 2e4c 02       		.uleb128 0x2
 12042 2e4d 74       		.byte	0x74
 12043 2e4e 00       		.sleb128 0
 12044 2e4f 19       		.uleb128 0x19
 12045 2e50 01       		.uleb128 0x1
 12046 2e51 51       		.byte	0x51
 12047 2e52 05       		.uleb128 0x5
 12048 2e53 03       		.byte	0x3
 12049 2e54 00030000 		.4byte	.LC42
 12050 2e58 00       		.byte	0
 12051 2e59 1A       		.uleb128 0x1a
 12052 2e5a AC050000 		.4byte	.LVL763
 12053 2e5e 52320000 		.4byte	0x3252
 12054 2e62 762E0000 		.4byte	0x2e76
 12055 2e66 19       		.uleb128 0x19
 12056 2e67 01       		.uleb128 0x1
 12057 2e68 50       		.byte	0x50
 12058 2e69 02       		.uleb128 0x2
 12059 2e6a 74       		.byte	0x74
 12060 2e6b 00       		.sleb128 0
 12061 2e6c 19       		.uleb128 0x19
 12062 2e6d 01       		.uleb128 0x1
 12063 2e6e 51       		.byte	0x51
 12064 2e6f 05       		.uleb128 0x5
 12065 2e70 03       		.byte	0x3
 12066 2e71 24030000 		.4byte	.LC44
 12067 2e75 00       		.byte	0
 12068 2e76 1A       		.uleb128 0x1a
 12069 2e77 08060000 		.4byte	.LVL776
 12070 2e7b 52320000 		.4byte	0x3252
 12071 2e7f 932E0000 		.4byte	0x2e93
 12072 2e83 19       		.uleb128 0x19
 12073 2e84 01       		.uleb128 0x1
 12074 2e85 50       		.byte	0x50
 12075 2e86 02       		.uleb128 0x2
 12076 2e87 74       		.byte	0x74
 12077 2e88 00       		.sleb128 0
 12078 2e89 19       		.uleb128 0x19
 12079 2e8a 01       		.uleb128 0x1
 12080 2e8b 51       		.byte	0x51
 12081 2e8c 05       		.uleb128 0x5
 12082 2e8d 03       		.byte	0x3
 12083 2e8e 50030000 		.4byte	.LC46
 12084 2e92 00       		.byte	0
 12085 2e93 1A       		.uleb128 0x1a
 12086 2e94 64060000 		.4byte	.LVL789
 12087 2e98 52320000 		.4byte	0x3252
 12088 2e9c B02E0000 		.4byte	0x2eb0
 12089 2ea0 19       		.uleb128 0x19
 12090 2ea1 01       		.uleb128 0x1
ARM GAS  C:\Users\FRANKL~1\AppData\Local\Temp\ccnobXgu.s 			page 247


 12091 2ea2 50       		.byte	0x50
 12092 2ea3 02       		.uleb128 0x2
 12093 2ea4 74       		.byte	0x74
 12094 2ea5 00       		.sleb128 0
 12095 2ea6 19       		.uleb128 0x19
 12096 2ea7 01       		.uleb128 0x1
 12097 2ea8 51       		.byte	0x51
 12098 2ea9 05       		.uleb128 0x5
 12099 2eaa 03       		.byte	0x3
 12100 2eab 78030000 		.4byte	.LC48
 12101 2eaf 00       		.byte	0
 12102 2eb0 1A       		.uleb128 0x1a
 12103 2eb1 F8060000 		.4byte	.LVL800
 12104 2eb5 52320000 		.4byte	0x3252
 12105 2eb9 CD2E0000 		.4byte	0x2ecd
 12106 2ebd 19       		.uleb128 0x19
 12107 2ebe 01       		.uleb128 0x1
 12108 2ebf 50       		.byte	0x50
 12109 2ec0 02       		.uleb128 0x2
 12110 2ec1 74       		.byte	0x74
 12111 2ec2 00       		.sleb128 0
 12112 2ec3 19       		.uleb128 0x19
 12113 2ec4 01       		.uleb128 0x1
 12114 2ec5 51       		.byte	0x51
 12115 2ec6 05       		.uleb128 0x5
 12116 2ec7 03       		.byte	0x3
 12117 2ec8 B0030000 		.4byte	.LC50
 12118 2ecc 00       		.byte	0
 12119 2ecd 10       		.uleb128 0x10
 12120 2ece 00070000 		.4byte	.LVL801
 12121 2ed2 91090000 		.4byte	0x991
 12122 2ed6 1A       		.uleb128 0x1a
 12123 2ed7 20070000 		.4byte	.LVL803
 12124 2edb AA320000 		.4byte	0x32aa
 12125 2edf EA2E0000 		.4byte	0x2eea
 12126 2ee3 19       		.uleb128 0x19
 12127 2ee4 01       		.uleb128 0x1
 12128 2ee5 50       		.byte	0x50
 12129 2ee6 02       		.uleb128 0x2
 12130 2ee7 75       		.byte	0x75
 12131 2ee8 00       		.sleb128 0
 12132 2ee9 00       		.byte	0
 12133 2eea 1A       		.uleb128 0x1a
 12134 2eeb 28070000 		.4byte	.LVL804
 12135 2eef 80030000 		.4byte	0x380
 12136 2ef3 FE2E0000 		.4byte	0x2efe
 12137 2ef7 19       		.uleb128 0x19
 12138 2ef8 01       		.uleb128 0x1
 12139 2ef9 50       		.byte	0x50
 12140 2efa 02       		.uleb128 0x2
 12141 2efb 75       		.byte	0x75
 12142 2efc 00       		.sleb128 0
 12143 2efd 00       		.byte	0
 12144 2efe 1A       		.uleb128 0x1a
 12145 2eff 2E070000 		.4byte	.LVL805
 12146 2f03 C0320000 		.4byte	0x32c0
 12147 2f07 122F0000 		.4byte	0x2f12
ARM GAS  C:\Users\FRANKL~1\AppData\Local\Temp\ccnobXgu.s 			page 248


 12148 2f0b 19       		.uleb128 0x19
 12149 2f0c 01       		.uleb128 0x1
 12150 2f0d 50       		.byte	0x50
 12151 2f0e 02       		.uleb128 0x2
 12152 2f0f 75       		.byte	0x75
 12153 2f10 00       		.sleb128 0
 12154 2f11 00       		.byte	0
 12155 2f12 1A       		.uleb128 0x1a
 12156 2f13 38070000 		.4byte	.LVL807
 12157 2f17 52320000 		.4byte	0x3252
 12158 2f1b 2F2F0000 		.4byte	0x2f2f
 12159 2f1f 19       		.uleb128 0x19
 12160 2f20 01       		.uleb128 0x1
 12161 2f21 50       		.byte	0x50
 12162 2f22 02       		.uleb128 0x2
 12163 2f23 74       		.byte	0x74
 12164 2f24 00       		.sleb128 0
 12165 2f25 19       		.uleb128 0x19
 12166 2f26 01       		.uleb128 0x1
 12167 2f27 51       		.byte	0x51
 12168 2f28 05       		.uleb128 0x5
 12169 2f29 03       		.byte	0x3
 12170 2f2a EC030000 		.4byte	.LC52
 12171 2f2e 00       		.byte	0
 12172 2f2f 1A       		.uleb128 0x1a
 12173 2f30 82070000 		.4byte	.LVL818
 12174 2f34 52320000 		.4byte	0x3252
 12175 2f38 4C2F0000 		.4byte	0x2f4c
 12176 2f3c 19       		.uleb128 0x19
 12177 2f3d 01       		.uleb128 0x1
 12178 2f3e 50       		.byte	0x50
 12179 2f3f 02       		.uleb128 0x2
 12180 2f40 74       		.byte	0x74
 12181 2f41 00       		.sleb128 0
 12182 2f42 19       		.uleb128 0x19
 12183 2f43 01       		.uleb128 0x1
 12184 2f44 51       		.byte	0x51
 12185 2f45 05       		.uleb128 0x5
 12186 2f46 03       		.byte	0x3
 12187 2f47 24040000 		.4byte	.LC54
 12188 2f4b 00       		.byte	0
 12189 2f4c 1A       		.uleb128 0x1a
 12190 2f4d CC070000 		.4byte	.LVL829
 12191 2f51 52320000 		.4byte	0x3252
 12192 2f55 692F0000 		.4byte	0x2f69
 12193 2f59 19       		.uleb128 0x19
 12194 2f5a 01       		.uleb128 0x1
 12195 2f5b 50       		.byte	0x50
 12196 2f5c 02       		.uleb128 0x2
 12197 2f5d 74       		.byte	0x74
 12198 2f5e 00       		.sleb128 0
 12199 2f5f 19       		.uleb128 0x19
 12200 2f60 01       		.uleb128 0x1
 12201 2f61 51       		.byte	0x51
 12202 2f62 05       		.uleb128 0x5
 12203 2f63 03       		.byte	0x3
 12204 2f64 5C040000 		.4byte	.LC56
ARM GAS  C:\Users\FRANKL~1\AppData\Local\Temp\ccnobXgu.s 			page 249


 12205 2f68 00       		.byte	0
 12206 2f69 10       		.uleb128 0x10
 12207 2f6a D4070000 		.4byte	.LVL830
 12208 2f6e B90A0000 		.4byte	0xab9
 12209 2f72 1A       		.uleb128 0x1a
 12210 2f73 F0070000 		.4byte	.LVL832
 12211 2f77 AA320000 		.4byte	0x32aa
 12212 2f7b 862F0000 		.4byte	0x2f86
 12213 2f7f 19       		.uleb128 0x19
 12214 2f80 01       		.uleb128 0x1
 12215 2f81 50       		.byte	0x50
 12216 2f82 02       		.uleb128 0x2
 12217 2f83 75       		.byte	0x75
 12218 2f84 00       		.sleb128 0
 12219 2f85 00       		.byte	0
 12220 2f86 1A       		.uleb128 0x1a
 12221 2f87 F8070000 		.4byte	.LVL833
 12222 2f8b 80030000 		.4byte	0x380
 12223 2f8f 9A2F0000 		.4byte	0x2f9a
 12224 2f93 19       		.uleb128 0x19
 12225 2f94 01       		.uleb128 0x1
 12226 2f95 50       		.byte	0x50
 12227 2f96 02       		.uleb128 0x2
 12228 2f97 75       		.byte	0x75
 12229 2f98 00       		.sleb128 0
 12230 2f99 00       		.byte	0
 12231 2f9a 1A       		.uleb128 0x1a
 12232 2f9b FE070000 		.4byte	.LVL834
 12233 2f9f C0320000 		.4byte	0x32c0
 12234 2fa3 AE2F0000 		.4byte	0x2fae
 12235 2fa7 19       		.uleb128 0x19
 12236 2fa8 01       		.uleb128 0x1
 12237 2fa9 50       		.byte	0x50
 12238 2faa 02       		.uleb128 0x2
 12239 2fab 75       		.byte	0x75
 12240 2fac 00       		.sleb128 0
 12241 2fad 00       		.byte	0
 12242 2fae 1A       		.uleb128 0x1a
 12243 2faf 08080000 		.4byte	.LVL836
 12244 2fb3 52320000 		.4byte	0x3252
 12245 2fb7 CB2F0000 		.4byte	0x2fcb
 12246 2fbb 19       		.uleb128 0x19
 12247 2fbc 01       		.uleb128 0x1
 12248 2fbd 50       		.byte	0x50
 12249 2fbe 02       		.uleb128 0x2
 12250 2fbf 74       		.byte	0x74
 12251 2fc0 00       		.sleb128 0
 12252 2fc1 19       		.uleb128 0x19
 12253 2fc2 01       		.uleb128 0x1
 12254 2fc3 51       		.byte	0x51
 12255 2fc4 05       		.uleb128 0x5
 12256 2fc5 03       		.byte	0x3
 12257 2fc6 90040000 		.4byte	.LC58
 12258 2fca 00       		.byte	0
 12259 2fcb 1A       		.uleb128 0x1a
 12260 2fcc 6E080000 		.4byte	.LVL845
 12261 2fd0 E1320000 		.4byte	0x32e1
ARM GAS  C:\Users\FRANKL~1\AppData\Local\Temp\ccnobXgu.s 			page 250


 12262 2fd4 EE2F0000 		.4byte	0x2fee
 12263 2fd8 19       		.uleb128 0x19
 12264 2fd9 01       		.uleb128 0x1
 12265 2fda 50       		.byte	0x50
 12266 2fdb 02       		.uleb128 0x2
 12267 2fdc 75       		.byte	0x75
 12268 2fdd 00       		.sleb128 0
 12269 2fde 19       		.uleb128 0x19
 12270 2fdf 01       		.uleb128 0x1
 12271 2fe0 51       		.byte	0x51
 12272 2fe1 05       		.uleb128 0x5
 12273 2fe2 03       		.byte	0x3
 12274 2fe3 E4040000 		.4byte	.LC60
 12275 2fe7 19       		.uleb128 0x19
 12276 2fe8 01       		.uleb128 0x1
 12277 2fe9 52       		.byte	0x52
 12278 2fea 02       		.uleb128 0x2
 12279 2feb 74       		.byte	0x74
 12280 2fec 00       		.sleb128 0
 12281 2fed 00       		.byte	0
 12282 2fee 1A       		.uleb128 0x1a
 12283 2fef 74080000 		.4byte	.LVL846
 12284 2ff3 AA320000 		.4byte	0x32aa
 12285 2ff7 02300000 		.4byte	0x3002
 12286 2ffb 19       		.uleb128 0x19
 12287 2ffc 01       		.uleb128 0x1
 12288 2ffd 50       		.byte	0x50
 12289 2ffe 02       		.uleb128 0x2
 12290 2fff 75       		.byte	0x75
 12291 3000 00       		.sleb128 0
 12292 3001 00       		.byte	0
 12293 3002 1A       		.uleb128 0x1a
 12294 3003 7C080000 		.4byte	.LVL847
 12295 3007 80030000 		.4byte	0x380
 12296 300b 16300000 		.4byte	0x3016
 12297 300f 19       		.uleb128 0x19
 12298 3010 01       		.uleb128 0x1
 12299 3011 50       		.byte	0x50
 12300 3012 02       		.uleb128 0x2
 12301 3013 75       		.byte	0x75
 12302 3014 00       		.sleb128 0
 12303 3015 00       		.byte	0
 12304 3016 18       		.uleb128 0x18
 12305 3017 82080000 		.4byte	.LVL848
 12306 301b C0320000 		.4byte	0x32c0
 12307 301f 19       		.uleb128 0x19
 12308 3020 01       		.uleb128 0x1
 12309 3021 50       		.byte	0x50
 12310 3022 02       		.uleb128 0x2
 12311 3023 75       		.byte	0x75
 12312 3024 00       		.sleb128 0
 12313 3025 00       		.byte	0
 12314 3026 00       		.byte	0
 12315 3027 10       		.uleb128 0x10
 12316 3028 0A000000 		.4byte	.LVL614
 12317 302c 0D080000 		.4byte	0x80d
 12318 3030 1A       		.uleb128 0x1a
ARM GAS  C:\Users\FRANKL~1\AppData\Local\Temp\ccnobXgu.s 			page 251


 12319 3031 12000000 		.4byte	.LVL615
 12320 3035 CC330000 		.4byte	0x33cc
 12321 3039 48300000 		.4byte	0x3048
 12322 303d 19       		.uleb128 0x19
 12323 303e 01       		.uleb128 0x1
 12324 303f 50       		.byte	0x50
 12325 3040 01       		.uleb128 0x1
 12326 3041 30       		.byte	0x30
 12327 3042 19       		.uleb128 0x19
 12328 3043 01       		.uleb128 0x1
 12329 3044 51       		.byte	0x51
 12330 3045 01       		.uleb128 0x1
 12331 3046 31       		.byte	0x31
 12332 3047 00       		.byte	0
 12333 3048 10       		.uleb128 0x10
 12334 3049 16000000 		.4byte	.LVL616
 12335 304d D8330000 		.4byte	0x33d8
 12336 3051 10       		.uleb128 0x10
 12337 3052 1A000000 		.4byte	.LVL617
 12338 3056 E3330000 		.4byte	0x33e3
 12339 305a 10       		.uleb128 0x10
 12340 305b 1E000000 		.4byte	.LVL618
 12341 305f EE330000 		.4byte	0x33ee
 12342 3063 10       		.uleb128 0x10
 12343 3064 22000000 		.4byte	.LVL619
 12344 3068 F9330000 		.4byte	0x33f9
 12345 306c 10       		.uleb128 0x10
 12346 306d 26000000 		.4byte	.LVL620
 12347 3071 04340000 		.4byte	0x3404
 12348 3075 10       		.uleb128 0x10
 12349 3076 2A000000 		.4byte	.LVL621
 12350 307a 0F340000 		.4byte	0x340f
 12351 307e 10       		.uleb128 0x10
 12352 307f 2E000000 		.4byte	.LVL622
 12353 3083 D6320000 		.4byte	0x32d6
 12354 3087 10       		.uleb128 0x10
 12355 3088 32000000 		.4byte	.LVL623
 12356 308c 1A340000 		.4byte	0x341a
 12357 3090 10       		.uleb128 0x10
 12358 3091 36000000 		.4byte	.LVL624
 12359 3095 25340000 		.4byte	0x3425
 12360 3099 1A       		.uleb128 0x1a
 12361 309a 3E000000 		.4byte	.LVL625
 12362 309e 30340000 		.4byte	0x3430
 12363 30a2 AE300000 		.4byte	0x30ae
 12364 30a6 19       		.uleb128 0x19
 12365 30a7 01       		.uleb128 0x1
 12366 30a8 50       		.byte	0x50
 12367 30a9 03       		.uleb128 0x3
 12368 30aa 0A       		.byte	0xa
 12369 30ab E803     		.2byte	0x3e8
 12370 30ad 00       		.byte	0
 12371 30ae 1A       		.uleb128 0x1a
 12372 30af 44000000 		.4byte	.LVL626
 12373 30b3 C0320000 		.4byte	0x32c0
 12374 30b7 C5300000 		.4byte	0x30c5
 12375 30bb 19       		.uleb128 0x19
ARM GAS  C:\Users\FRANKL~1\AppData\Local\Temp\ccnobXgu.s 			page 252


 12376 30bc 01       		.uleb128 0x1
 12377 30bd 50       		.byte	0x50
 12378 30be 05       		.uleb128 0x5
 12379 30bf 03       		.byte	0x3
 12380 30c0 C4000000 		.4byte	.LC13
 12381 30c4 00       		.byte	0
 12382 30c5 10       		.uleb128 0x10
 12383 30c6 48000000 		.4byte	.LVL627
 12384 30ca B90A0000 		.4byte	0xab9
 12385 30ce 10       		.uleb128 0x10
 12386 30cf 5A000000 		.4byte	.LVL628
 12387 30d3 3B340000 		.4byte	0x343b
 12388 30d7 18       		.uleb128 0x18
 12389 30d8 60000000 		.4byte	.LVL629
 12390 30dc 46340000 		.4byte	0x3446
 12391 30e0 19       		.uleb128 0x19
 12392 30e1 01       		.uleb128 0x1
 12393 30e2 50       		.byte	0x50
 12394 30e3 05       		.uleb128 0x5
 12395 30e4 03       		.byte	0x3
 12396 30e5 00000000 		.4byte	CommunicationHandlerISR
 12397 30e9 00       		.byte	0
 12398 30ea 00       		.byte	0
 12399 30eb 2D       		.uleb128 0x2d
 12400 30ec 8F010000 		.4byte	.LASF162
 12401 30f0 06       		.byte	0x6
 12402 30f1 1207     		.2byte	0x712
 12403 30f3 F7300000 		.4byte	0x30f7
 12404 30f7 08       		.uleb128 0x8
 12405 30f8 AA000000 		.4byte	0xaa
 12406 30fc 0B       		.uleb128 0xb
 12407 30fd 60010000 		.4byte	0x160
 12408 3101 0C310000 		.4byte	0x310c
 12409 3105 0C       		.uleb128 0xc
 12410 3106 8B000000 		.4byte	0x8b
 12411 310a 03       		.byte	0x3
 12412 310b 00       		.byte	0
 12413 310c 2E       		.uleb128 0x2e
 12414 310d 7A000000 		.4byte	.LASF163
 12415 3111 02       		.byte	0x2
 12416 3112 1D       		.byte	0x1d
 12417 3113 FC300000 		.4byte	0x30fc
 12418 3117 05       		.uleb128 0x5
 12419 3118 03       		.byte	0x3
 12420 3119 00000000 		.4byte	selectors
 12421 311d 2E       		.uleb128 0x2e
 12422 311e F60B0000 		.4byte	.LASF164
 12423 3122 02       		.byte	0x2
 12424 3123 1E       		.byte	0x1e
 12425 3124 70030000 		.4byte	0x370
 12426 3128 05       		.uleb128 0x5
 12427 3129 03       		.byte	0x3
 12428 312a 00000000 		.4byte	TransmitBuffer
 12429 312e 2E       		.uleb128 0x2e
 12430 312f C50A0000 		.4byte	.LASF165
 12431 3133 02       		.byte	0x2
 12432 3134 20       		.byte	0x20
ARM GAS  C:\Users\FRANKL~1\AppData\Local\Temp\ccnobXgu.s 			page 253


 12433 3135 09010000 		.4byte	0x109
 12434 3139 05       		.uleb128 0x5
 12435 313a 03       		.byte	0x3
 12436 313b 00000000 		.4byte	newData
 12437 313f 2E       		.uleb128 0x2e
 12438 3140 7B0B0000 		.4byte	.LASF166
 12439 3144 02       		.byte	0x2
 12440 3145 21       		.byte	0x21
 12441 3146 09010000 		.4byte	0x109
 12442 314a 05       		.uleb128 0x5
 12443 314b 03       		.byte	0x3
 12444 314c 00000000 		.4byte	G_Stop
 12445 3150 2E       		.uleb128 0x2e
 12446 3151 EE0B0000 		.4byte	.LASF167
 12447 3155 02       		.byte	0x2
 12448 3156 22       		.byte	0x22
 12449 3157 09010000 		.4byte	0x109
 12450 315b 05       		.uleb128 0x5
 12451 315c 03       		.byte	0x3
 12452 315d 00000000 		.4byte	G_Break
 12453 3161 2E       		.uleb128 0x2e
 12454 3162 08050000 		.4byte	.LASF168
 12455 3166 02       		.byte	0x2
 12456 3167 23       		.byte	0x23
 12457 3168 09010000 		.4byte	0x109
 12458 316c 05       		.uleb128 0x5
 12459 316d 03       		.byte	0x3
 12460 316e 00000000 		.4byte	G_Pause
 12461 3172 0B       		.uleb128 0xb
 12462 3173 82310000 		.4byte	0x3182
 12463 3177 82310000 		.4byte	0x3182
 12464 317b 0C       		.uleb128 0xc
 12465 317c 8B000000 		.4byte	0x8b
 12466 3180 3F       		.byte	0x3f
 12467 3181 00       		.byte	0
 12468 3182 08       		.uleb128 0x8
 12469 3183 98000000 		.4byte	0x98
 12470 3187 2E       		.uleb128 0x2e
 12471 3188 FA0C0000 		.4byte	.LASF169
 12472 318c 02       		.byte	0x2
 12473 318d 25       		.byte	0x25
 12474 318e 98310000 		.4byte	0x3198
 12475 3192 05       		.uleb128 0x5
 12476 3193 03       		.byte	0x3
 12477 3194 00000000 		.4byte	UART_Receive_Buffer
 12478 3198 08       		.uleb128 0x8
 12479 3199 72310000 		.4byte	0x3172
 12480 319d 2E       		.uleb128 0x2e
 12481 319e 9F020000 		.4byte	.LASF170
 12482 31a2 02       		.byte	0x2
 12483 31a3 26       		.byte	0x26
 12484 31a4 09010000 		.4byte	0x109
 12485 31a8 05       		.uleb128 0x5
 12486 31a9 03       		.byte	0x3
 12487 31aa 00000000 		.4byte	UART_Rx_Position
 12488 31ae 2E       		.uleb128 0x2e
 12489 31af 19080000 		.4byte	.LASF171
ARM GAS  C:\Users\FRANKL~1\AppData\Local\Temp\ccnobXgu.s 			page 254


 12490 31b3 02       		.byte	0x2
 12491 31b4 28       		.byte	0x28
 12492 31b5 BF310000 		.4byte	0x31bf
 12493 31b9 05       		.uleb128 0x5
 12494 31ba 03       		.byte	0x3
 12495 31bb 00000000 		.4byte	USBUART_Receive_Buffer
 12496 31bf 08       		.uleb128 0x8
 12497 31c0 72310000 		.4byte	0x3172
 12498 31c4 2E       		.uleb128 0x2e
 12499 31c5 A10D0000 		.4byte	.LASF172
 12500 31c9 02       		.byte	0x2
 12501 31ca 29       		.byte	0x29
 12502 31cb 09010000 		.4byte	0x109
 12503 31cf 05       		.uleb128 0x5
 12504 31d0 03       		.byte	0x3
 12505 31d1 00000000 		.4byte	USBUART_Rx_Position
 12506 31d5 2E       		.uleb128 0x2e
 12507 31d6 320D0000 		.4byte	.LASF173
 12508 31da 02       		.byte	0x2
 12509 31db 2B       		.byte	0x2b
 12510 31dc B5000000 		.4byte	0xb5
 12511 31e0 05       		.uleb128 0x5
 12512 31e1 03       		.byte	0x3
 12513 31e2 00000000 		.4byte	Compliance_Reached
 12514 31e6 2E       		.uleb128 0x2e
 12515 31e7 D0070000 		.4byte	.LASF174
 12516 31eb 02       		.byte	0x2
 12517 31ec 2C       		.byte	0x2c
 12518 31ed E5000000 		.4byte	0xe5
 12519 31f1 05       		.uleb128 0x5
 12520 31f2 03       		.byte	0x3
 12521 31f3 00000000 		.4byte	Vgs_Index_Goal_Relative
 12522 31f7 2E       		.uleb128 0x2e
 12523 31f8 B8070000 		.4byte	.LASF175
 12524 31fc 02       		.byte	0x2
 12525 31fd 2D       		.byte	0x2d
 12526 31fe E5000000 		.4byte	0xe5
 12527 3202 05       		.uleb128 0x5
 12528 3203 03       		.byte	0x3
 12529 3204 00000000 		.4byte	Vds_Index_Goal_Relative
 12530 3208 2E       		.uleb128 0x2e
 12531 3209 69060000 		.4byte	.LASF176
 12532 320d 02       		.byte	0x2
 12533 320e 2F       		.byte	0x2f
 12534 320f CD000000 		.4byte	0xcd
 12535 3213 05       		.uleb128 0x5
 12536 3214 03       		.byte	0x3
 12537 3215 00000000 		.4byte	Current_Measurement_Sample_Count
 12538 3219 2F       		.uleb128 0x2f
 12539 321a 8C030000 		.4byte	.LASF177
 12540 321e 8C030000 		.4byte	.LASF177
 12541 3222 07       		.byte	0x7
 12542 3223 2E01     		.2byte	0x12e
 12543 3225 2F       		.uleb128 0x2f
 12544 3226 B8010000 		.4byte	.LASF178
 12545 322a B8010000 		.4byte	.LASF178
 12546 322e 07       		.byte	0x7
ARM GAS  C:\Users\FRANKL~1\AppData\Local\Temp\ccnobXgu.s 			page 255


 12547 322f 2D01     		.2byte	0x12d
 12548 3231 30       		.uleb128 0x30
 12549 3232 700A0000 		.4byte	.LASF179
 12550 3236 700A0000 		.4byte	.LASF179
 12551 323a 08       		.byte	0x8
 12552 323b 22       		.byte	0x22
 12553 323c 30       		.uleb128 0x30
 12554 323d 5E040000 		.4byte	.LASF180
 12555 3241 5E040000 		.4byte	.LASF180
 12556 3245 08       		.byte	0x8
 12557 3246 29       		.byte	0x29
 12558 3247 30       		.uleb128 0x30
 12559 3248 B8050000 		.4byte	.LASF181
 12560 324c B8050000 		.4byte	.LASF181
 12561 3250 08       		.byte	0x8
 12562 3251 2B       		.byte	0x2b
 12563 3252 30       		.uleb128 0x30
 12564 3253 84000000 		.4byte	.LASF182
 12565 3257 84000000 		.4byte	.LASF182
 12566 325b 09       		.byte	0x9
 12567 325c 28       		.byte	0x28
 12568 325d 30       		.uleb128 0x30
 12569 325e 10090000 		.4byte	.LASF183
 12570 3262 10090000 		.4byte	.LASF183
 12571 3266 0A       		.byte	0xa
 12572 3267 73       		.byte	0x73
 12573 3268 30       		.uleb128 0x30
 12574 3269 54030000 		.4byte	.LASF184
 12575 326d 54030000 		.4byte	.LASF184
 12576 3271 0A       		.byte	0xa
 12577 3272 71       		.byte	0x71
 12578 3273 30       		.uleb128 0x30
 12579 3274 DD0D0000 		.4byte	.LASF185
 12580 3278 DD0D0000 		.4byte	.LASF185
 12581 327c 0B       		.byte	0xb
 12582 327d 28       		.byte	0x28
 12583 327e 30       		.uleb128 0x30
 12584 327f 6B080000 		.4byte	.LASF186
 12585 3283 6B080000 		.4byte	.LASF186
 12586 3287 0C       		.byte	0xc
 12587 3288 5E       		.byte	0x5e
 12588 3289 30       		.uleb128 0x30
 12589 328a 27090000 		.4byte	.LASF187
 12590 328e 27090000 		.4byte	.LASF187
 12591 3292 08       		.byte	0x8
 12592 3293 28       		.byte	0x28
 12593 3294 30       		.uleb128 0x30
 12594 3295 0C030000 		.4byte	.LASF188
 12595 3299 0C030000 		.4byte	.LASF188
 12596 329d 08       		.byte	0x8
 12597 329e 23       		.byte	0x23
 12598 329f 30       		.uleb128 0x30
 12599 32a0 3E020000 		.4byte	.LASF189
 12600 32a4 3E020000 		.4byte	.LASF189
 12601 32a8 08       		.byte	0x8
 12602 32a9 2C       		.byte	0x2c
 12603 32aa 30       		.uleb128 0x30
ARM GAS  C:\Users\FRANKL~1\AppData\Local\Temp\ccnobXgu.s 			page 256


 12604 32ab 72040000 		.4byte	.LASF190
 12605 32af 72040000 		.4byte	.LASF190
 12606 32b3 09       		.byte	0x9
 12607 32b4 21       		.byte	0x21
 12608 32b5 30       		.uleb128 0x30
 12609 32b6 010E0000 		.4byte	.LASF191
 12610 32ba 010E0000 		.4byte	.LASF191
 12611 32be 0D       		.byte	0xd
 12612 32bf A3       		.byte	0xa3
 12613 32c0 30       		.uleb128 0x30
 12614 32c1 44080000 		.4byte	.LASF192
 12615 32c5 44080000 		.4byte	.LASF192
 12616 32c9 0A       		.byte	0xa
 12617 32ca 8B       		.byte	0x8b
 12618 32cb 30       		.uleb128 0x30
 12619 32cc F4020000 		.4byte	.LASF193
 12620 32d0 F4020000 		.4byte	.LASF193
 12621 32d4 0D       		.byte	0xd
 12622 32d5 94       		.byte	0x94
 12623 32d6 30       		.uleb128 0x30
 12624 32d7 EE040000 		.4byte	.LASF194
 12625 32db EE040000 		.4byte	.LASF194
 12626 32df 0D       		.byte	0xd
 12627 32e0 93       		.byte	0x93
 12628 32e1 30       		.uleb128 0x30
 12629 32e2 46000000 		.4byte	.LASF195
 12630 32e6 46000000 		.4byte	.LASF195
 12631 32ea 0E       		.byte	0xe
 12632 32eb E7       		.byte	0xe7
 12633 32ec 30       		.uleb128 0x30
 12634 32ed C7050000 		.4byte	.LASF196
 12635 32f1 C7050000 		.4byte	.LASF196
 12636 32f5 0D       		.byte	0xd
 12637 32f6 A4       		.byte	0xa4
 12638 32f7 30       		.uleb128 0x30
 12639 32f8 AB040000 		.4byte	.LASF197
 12640 32fc AB040000 		.4byte	.LASF197
 12641 3300 0D       		.byte	0xd
 12642 3301 A7       		.byte	0xa7
 12643 3302 30       		.uleb128 0x30
 12644 3303 490A0000 		.4byte	.LASF198
 12645 3307 490A0000 		.4byte	.LASF198
 12646 330b 0F       		.byte	0xf
 12647 330c 3D       		.byte	0x3d
 12648 330d 30       		.uleb128 0x30
 12649 330e 050C0000 		.4byte	.LASF199
 12650 3312 050C0000 		.4byte	.LASF199
 12651 3316 0F       		.byte	0xf
 12652 3317 3F       		.byte	0x3f
 12653 3318 30       		.uleb128 0x30
 12654 3319 960A0000 		.4byte	.LASF200
 12655 331d 960A0000 		.4byte	.LASF200
 12656 3321 0F       		.byte	0xf
 12657 3322 42       		.byte	0x42
 12658 3323 30       		.uleb128 0x30
 12659 3324 14070000 		.4byte	.LASF201
 12660 3328 14070000 		.4byte	.LASF201
ARM GAS  C:\Users\FRANKL~1\AppData\Local\Temp\ccnobXgu.s 			page 257


 12661 332c 0F       		.byte	0xf
 12662 332d 48       		.byte	0x48
 12663 332e 30       		.uleb128 0x30
 12664 332f 740D0000 		.4byte	.LASF202
 12665 3333 740D0000 		.4byte	.LASF202
 12666 3337 10       		.byte	0x10
 12667 3338 D1       		.byte	0xd1
 12668 3339 30       		.uleb128 0x30
 12669 333a 5A0C0000 		.4byte	.LASF203
 12670 333e 5A0C0000 		.4byte	.LASF203
 12671 3342 10       		.byte	0x10
 12672 3343 39       		.byte	0x39
 12673 3344 30       		.uleb128 0x30
 12674 3345 330A0000 		.4byte	.LASF204
 12675 3349 330A0000 		.4byte	.LASF204
 12676 334d 10       		.byte	0x10
 12677 334e 3B       		.byte	0x3b
 12678 334f 30       		.uleb128 0x30
 12679 3350 31070000 		.4byte	.LASF205
 12680 3354 31070000 		.4byte	.LASF205
 12681 3358 10       		.byte	0x10
 12682 3359 40       		.byte	0x40
 12683 335a 30       		.uleb128 0x30
 12684 335b 460B0000 		.4byte	.LASF206
 12685 335f 460B0000 		.4byte	.LASF206
 12686 3363 11       		.byte	0x11
 12687 3364 D1       		.byte	0xd1
 12688 3365 30       		.uleb128 0x30
 12689 3366 70070000 		.4byte	.LASF207
 12690 336a 70070000 		.4byte	.LASF207
 12691 336e 11       		.byte	0x11
 12692 336f 39       		.byte	0x39
 12693 3370 30       		.uleb128 0x30
 12694 3371 8B0D0000 		.4byte	.LASF208
 12695 3375 8B0D0000 		.4byte	.LASF208
 12696 3379 11       		.byte	0x11
 12697 337a 3B       		.byte	0x3b
 12698 337b 30       		.uleb128 0x30
 12699 337c 4D090000 		.4byte	.LASF209
 12700 3380 4D090000 		.4byte	.LASF209
 12701 3384 11       		.byte	0x11
 12702 3385 40       		.byte	0x40
 12703 3386 30       		.uleb128 0x30
 12704 3387 20040000 		.4byte	.LASF210
 12705 338b 20040000 		.4byte	.LASF210
 12706 338f 12       		.byte	0x12
 12707 3390 37       		.byte	0x37
 12708 3391 30       		.uleb128 0x30
 12709 3392 820B0000 		.4byte	.LASF211
 12710 3396 820B0000 		.4byte	.LASF211
 12711 339a 13       		.byte	0x13
 12712 339b 37       		.byte	0x37
 12713 339c 30       		.uleb128 0x30
 12714 339d 6E020000 		.4byte	.LASF212
 12715 33a1 6E020000 		.4byte	.LASF212
 12716 33a5 14       		.byte	0x14
 12717 33a6 37       		.byte	0x37
ARM GAS  C:\Users\FRANKL~1\AppData\Local\Temp\ccnobXgu.s 			page 258


 12718 33a7 31       		.uleb128 0x31
 12719 33a8 28020000 		.4byte	.LASF232
 12720 33ac 08080000 		.4byte	.LASF233
 12721 33b0 18       		.byte	0x18
 12722 33b1 00       		.byte	0
 12723 33b2 28020000 		.4byte	.LASF232
 12724 33b6 30       		.uleb128 0x30
 12725 33b7 ED020000 		.4byte	.LASF213
 12726 33bb ED020000 		.4byte	.LASF213
 12727 33bf 15       		.byte	0x15
 12728 33c0 A2       		.byte	0xa2
 12729 33c1 30       		.uleb128 0x30
 12730 33c2 05070000 		.4byte	.LASF214
 12731 33c6 05070000 		.4byte	.LASF214
 12732 33ca 0E       		.byte	0xe
 12733 33cb BF       		.byte	0xbf
 12734 33cc 2F       		.uleb128 0x2f
 12735 33cd 22030000 		.4byte	.LASF215
 12736 33d1 22030000 		.4byte	.LASF215
 12737 33d5 07       		.byte	0x7
 12738 33d6 2A01     		.2byte	0x12a
 12739 33d8 30       		.uleb128 0x30
 12740 33d9 FF020000 		.4byte	.LASF216
 12741 33dd FF020000 		.4byte	.LASF216
 12742 33e1 0A       		.byte	0xa
 12743 33e2 54       		.byte	0x54
 12744 33e3 30       		.uleb128 0x30
 12745 33e4 10000000 		.4byte	.LASF217
 12746 33e8 10000000 		.4byte	.LASF217
 12747 33ec 12       		.byte	0x12
 12748 33ed 33       		.byte	0x33
 12749 33ee 30       		.uleb128 0x30
 12750 33ef 39010000 		.4byte	.LASF218
 12751 33f3 39010000 		.4byte	.LASF218
 12752 33f7 13       		.byte	0x13
 12753 33f8 33       		.byte	0x33
 12754 33f9 30       		.uleb128 0x30
 12755 33fa 80010000 		.4byte	.LASF219
 12756 33fe 80010000 		.4byte	.LASF219
 12757 3402 14       		.byte	0x14
 12758 3403 33       		.byte	0x33
 12759 3404 30       		.uleb128 0x30
 12760 3405 63030000 		.4byte	.LASF220
 12761 3409 63030000 		.4byte	.LASF220
 12762 340d 0F       		.byte	0xf
 12763 340e 3A       		.byte	0x3a
 12764 340f 30       		.uleb128 0x30
 12765 3410 52040000 		.4byte	.LASF221
 12766 3414 52040000 		.4byte	.LASF221
 12767 3418 16       		.byte	0x16
 12768 3419 3D       		.byte	0x3d
 12769 341a 30       		.uleb128 0x30
 12770 341b A1070000 		.4byte	.LASF222
 12771 341f A1070000 		.4byte	.LASF222
 12772 3423 10       		.byte	0x10
 12773 3424 34       		.byte	0x34
 12774 3425 30       		.uleb128 0x30
ARM GAS  C:\Users\FRANKL~1\AppData\Local\Temp\ccnobXgu.s 			page 259


 12775 3426 BF000000 		.4byte	.LASF223
 12776 342a BF000000 		.4byte	.LASF223
 12777 342e 11       		.byte	0x11
 12778 342f 34       		.byte	0x34
 12779 3430 30       		.uleb128 0x30
 12780 3431 730B0000 		.4byte	.LASF224
 12781 3435 730B0000 		.4byte	.LASF224
 12782 3439 17       		.byte	0x17
 12783 343a 76       		.byte	0x76
 12784 343b 30       		.uleb128 0x30
 12785 343c 86020000 		.4byte	.LASF225
 12786 3440 86020000 		.4byte	.LASF225
 12787 3444 0C       		.byte	0xc
 12788 3445 5A       		.byte	0x5a
 12789 3446 30       		.uleb128 0x30
 12790 3447 67090000 		.4byte	.LASF226
 12791 344b 67090000 		.4byte	.LASF226
 12792 344f 0B       		.byte	0xb
 12793 3450 18       		.byte	0x18
 12794 3451 00       		.byte	0
 12795              		.section	.debug_abbrev,"",%progbits
 12796              	.Ldebug_abbrev0:
 12797 0000 01       		.uleb128 0x1
 12798 0001 11       		.uleb128 0x11
 12799 0002 01       		.byte	0x1
 12800 0003 25       		.uleb128 0x25
 12801 0004 0E       		.uleb128 0xe
 12802 0005 13       		.uleb128 0x13
 12803 0006 0B       		.uleb128 0xb
 12804 0007 03       		.uleb128 0x3
 12805 0008 0E       		.uleb128 0xe
 12806 0009 1B       		.uleb128 0x1b
 12807 000a 0E       		.uleb128 0xe
 12808 000b 55       		.uleb128 0x55
 12809 000c 17       		.uleb128 0x17
 12810 000d 11       		.uleb128 0x11
 12811 000e 01       		.uleb128 0x1
 12812 000f 10       		.uleb128 0x10
 12813 0010 17       		.uleb128 0x17
 12814 0011 00       		.byte	0
 12815 0012 00       		.byte	0
 12816 0013 02       		.uleb128 0x2
 12817 0014 24       		.uleb128 0x24
 12818 0015 00       		.byte	0
 12819 0016 0B       		.uleb128 0xb
 12820 0017 0B       		.uleb128 0xb
 12821 0018 3E       		.uleb128 0x3e
 12822 0019 0B       		.uleb128 0xb
 12823 001a 03       		.uleb128 0x3
 12824 001b 0E       		.uleb128 0xe
 12825 001c 00       		.byte	0
 12826 001d 00       		.byte	0
 12827 001e 03       		.uleb128 0x3
 12828 001f 24       		.uleb128 0x24
 12829 0020 00       		.byte	0
 12830 0021 0B       		.uleb128 0xb
 12831 0022 0B       		.uleb128 0xb
ARM GAS  C:\Users\FRANKL~1\AppData\Local\Temp\ccnobXgu.s 			page 260


 12832 0023 3E       		.uleb128 0x3e
 12833 0024 0B       		.uleb128 0xb
 12834 0025 03       		.uleb128 0x3
 12835 0026 08       		.uleb128 0x8
 12836 0027 00       		.byte	0
 12837 0028 00       		.byte	0
 12838 0029 04       		.uleb128 0x4
 12839 002a 16       		.uleb128 0x16
 12840 002b 00       		.byte	0
 12841 002c 03       		.uleb128 0x3
 12842 002d 0E       		.uleb128 0xe
 12843 002e 3A       		.uleb128 0x3a
 12844 002f 0B       		.uleb128 0xb
 12845 0030 3B       		.uleb128 0x3b
 12846 0031 0B       		.uleb128 0xb
 12847 0032 49       		.uleb128 0x49
 12848 0033 13       		.uleb128 0x13
 12849 0034 00       		.byte	0
 12850 0035 00       		.byte	0
 12851 0036 05       		.uleb128 0x5
 12852 0037 0F       		.uleb128 0xf
 12853 0038 00       		.byte	0
 12854 0039 0B       		.uleb128 0xb
 12855 003a 0B       		.uleb128 0xb
 12856 003b 49       		.uleb128 0x49
 12857 003c 13       		.uleb128 0x13
 12858 003d 00       		.byte	0
 12859 003e 00       		.byte	0
 12860 003f 06       		.uleb128 0x6
 12861 0040 26       		.uleb128 0x26
 12862 0041 00       		.byte	0
 12863 0042 49       		.uleb128 0x49
 12864 0043 13       		.uleb128 0x13
 12865 0044 00       		.byte	0
 12866 0045 00       		.byte	0
 12867 0046 07       		.uleb128 0x7
 12868 0047 16       		.uleb128 0x16
 12869 0048 00       		.byte	0
 12870 0049 03       		.uleb128 0x3
 12871 004a 0E       		.uleb128 0xe
 12872 004b 3A       		.uleb128 0x3a
 12873 004c 0B       		.uleb128 0xb
 12874 004d 3B       		.uleb128 0x3b
 12875 004e 05       		.uleb128 0x5
 12876 004f 49       		.uleb128 0x49
 12877 0050 13       		.uleb128 0x13
 12878 0051 00       		.byte	0
 12879 0052 00       		.byte	0
 12880 0053 08       		.uleb128 0x8
 12881 0054 35       		.uleb128 0x35
 12882 0055 00       		.byte	0
 12883 0056 49       		.uleb128 0x49
 12884 0057 13       		.uleb128 0x13
 12885 0058 00       		.byte	0
 12886 0059 00       		.byte	0
 12887 005a 09       		.uleb128 0x9
 12888 005b 13       		.uleb128 0x13
ARM GAS  C:\Users\FRANKL~1\AppData\Local\Temp\ccnobXgu.s 			page 261


 12889 005c 01       		.byte	0x1
 12890 005d 0B       		.uleb128 0xb
 12891 005e 0B       		.uleb128 0xb
 12892 005f 3A       		.uleb128 0x3a
 12893 0060 0B       		.uleb128 0xb
 12894 0061 3B       		.uleb128 0x3b
 12895 0062 0B       		.uleb128 0xb
 12896 0063 01       		.uleb128 0x1
 12897 0064 13       		.uleb128 0x13
 12898 0065 00       		.byte	0
 12899 0066 00       		.byte	0
 12900 0067 0A       		.uleb128 0xa
 12901 0068 0D       		.uleb128 0xd
 12902 0069 00       		.byte	0
 12903 006a 03       		.uleb128 0x3
 12904 006b 0E       		.uleb128 0xe
 12905 006c 3A       		.uleb128 0x3a
 12906 006d 0B       		.uleb128 0xb
 12907 006e 3B       		.uleb128 0x3b
 12908 006f 0B       		.uleb128 0xb
 12909 0070 49       		.uleb128 0x49
 12910 0071 13       		.uleb128 0x13
 12911 0072 38       		.uleb128 0x38
 12912 0073 0B       		.uleb128 0xb
 12913 0074 00       		.byte	0
 12914 0075 00       		.byte	0
 12915 0076 0B       		.uleb128 0xb
 12916 0077 01       		.uleb128 0x1
 12917 0078 01       		.byte	0x1
 12918 0079 49       		.uleb128 0x49
 12919 007a 13       		.uleb128 0x13
 12920 007b 01       		.uleb128 0x1
 12921 007c 13       		.uleb128 0x13
 12922 007d 00       		.byte	0
 12923 007e 00       		.byte	0
 12924 007f 0C       		.uleb128 0xc
 12925 0080 21       		.uleb128 0x21
 12926 0081 00       		.byte	0
 12927 0082 49       		.uleb128 0x49
 12928 0083 13       		.uleb128 0x13
 12929 0084 2F       		.uleb128 0x2f
 12930 0085 0B       		.uleb128 0xb
 12931 0086 00       		.byte	0
 12932 0087 00       		.byte	0
 12933 0088 0D       		.uleb128 0xd
 12934 0089 13       		.uleb128 0x13
 12935 008a 01       		.byte	0x1
 12936 008b 03       		.uleb128 0x3
 12937 008c 0E       		.uleb128 0xe
 12938 008d 0B       		.uleb128 0xb
 12939 008e 0B       		.uleb128 0xb
 12940 008f 3A       		.uleb128 0x3a
 12941 0090 0B       		.uleb128 0xb
 12942 0091 3B       		.uleb128 0x3b
 12943 0092 0B       		.uleb128 0xb
 12944 0093 01       		.uleb128 0x1
 12945 0094 13       		.uleb128 0x13
ARM GAS  C:\Users\FRANKL~1\AppData\Local\Temp\ccnobXgu.s 			page 262


 12946 0095 00       		.byte	0
 12947 0096 00       		.byte	0
 12948 0097 0E       		.uleb128 0xe
 12949 0098 2E       		.uleb128 0x2e
 12950 0099 01       		.byte	0x1
 12951 009a 3F       		.uleb128 0x3f
 12952 009b 19       		.uleb128 0x19
 12953 009c 03       		.uleb128 0x3
 12954 009d 0E       		.uleb128 0xe
 12955 009e 3A       		.uleb128 0x3a
 12956 009f 0B       		.uleb128 0xb
 12957 00a0 3B       		.uleb128 0x3b
 12958 00a1 0B       		.uleb128 0xb
 12959 00a2 11       		.uleb128 0x11
 12960 00a3 01       		.uleb128 0x1
 12961 00a4 12       		.uleb128 0x12
 12962 00a5 06       		.uleb128 0x6
 12963 00a6 40       		.uleb128 0x40
 12964 00a7 18       		.uleb128 0x18
 12965 00a8 9742     		.uleb128 0x2117
 12966 00aa 19       		.uleb128 0x19
 12967 00ab 01       		.uleb128 0x1
 12968 00ac 13       		.uleb128 0x13
 12969 00ad 00       		.byte	0
 12970 00ae 00       		.byte	0
 12971 00af 0F       		.uleb128 0xf
 12972 00b0 34       		.uleb128 0x34
 12973 00b1 00       		.byte	0
 12974 00b2 03       		.uleb128 0x3
 12975 00b3 0E       		.uleb128 0xe
 12976 00b4 3A       		.uleb128 0x3a
 12977 00b5 0B       		.uleb128 0xb
 12978 00b6 3B       		.uleb128 0x3b
 12979 00b7 0B       		.uleb128 0xb
 12980 00b8 49       		.uleb128 0x49
 12981 00b9 13       		.uleb128 0x13
 12982 00ba 02       		.uleb128 0x2
 12983 00bb 17       		.uleb128 0x17
 12984 00bc 00       		.byte	0
 12985 00bd 00       		.byte	0
 12986 00be 10       		.uleb128 0x10
 12987 00bf 898201   		.uleb128 0x4109
 12988 00c2 00       		.byte	0
 12989 00c3 11       		.uleb128 0x11
 12990 00c4 01       		.uleb128 0x1
 12991 00c5 31       		.uleb128 0x31
 12992 00c6 13       		.uleb128 0x13
 12993 00c7 00       		.byte	0
 12994 00c8 00       		.byte	0
 12995 00c9 11       		.uleb128 0x11
 12996 00ca 2E       		.uleb128 0x2e
 12997 00cb 01       		.byte	0x1
 12998 00cc 3F       		.uleb128 0x3f
 12999 00cd 19       		.uleb128 0x19
 13000 00ce 03       		.uleb128 0x3
 13001 00cf 0E       		.uleb128 0xe
 13002 00d0 3A       		.uleb128 0x3a
ARM GAS  C:\Users\FRANKL~1\AppData\Local\Temp\ccnobXgu.s 			page 263


 13003 00d1 0B       		.uleb128 0xb
 13004 00d2 3B       		.uleb128 0x3b
 13005 00d3 0B       		.uleb128 0xb
 13006 00d4 49       		.uleb128 0x49
 13007 00d5 13       		.uleb128 0x13
 13008 00d6 11       		.uleb128 0x11
 13009 00d7 01       		.uleb128 0x1
 13010 00d8 12       		.uleb128 0x12
 13011 00d9 06       		.uleb128 0x6
 13012 00da 40       		.uleb128 0x40
 13013 00db 18       		.uleb128 0x18
 13014 00dc 9742     		.uleb128 0x2117
 13015 00de 19       		.uleb128 0x19
 13016 00df 01       		.uleb128 0x1
 13017 00e0 13       		.uleb128 0x13
 13018 00e1 00       		.byte	0
 13019 00e2 00       		.byte	0
 13020 00e3 12       		.uleb128 0x12
 13021 00e4 2E       		.uleb128 0x2e
 13022 00e5 01       		.byte	0x1
 13023 00e6 3F       		.uleb128 0x3f
 13024 00e7 19       		.uleb128 0x19
 13025 00e8 03       		.uleb128 0x3
 13026 00e9 0E       		.uleb128 0xe
 13027 00ea 3A       		.uleb128 0x3a
 13028 00eb 0B       		.uleb128 0xb
 13029 00ec 3B       		.uleb128 0x3b
 13030 00ed 05       		.uleb128 0x5
 13031 00ee 27       		.uleb128 0x27
 13032 00ef 19       		.uleb128 0x19
 13033 00f0 11       		.uleb128 0x11
 13034 00f1 01       		.uleb128 0x1
 13035 00f2 12       		.uleb128 0x12
 13036 00f3 06       		.uleb128 0x6
 13037 00f4 40       		.uleb128 0x40
 13038 00f5 18       		.uleb128 0x18
 13039 00f6 9742     		.uleb128 0x2117
 13040 00f8 19       		.uleb128 0x19
 13041 00f9 01       		.uleb128 0x1
 13042 00fa 13       		.uleb128 0x13
 13043 00fb 00       		.byte	0
 13044 00fc 00       		.byte	0
 13045 00fd 13       		.uleb128 0x13
 13046 00fe 0B       		.uleb128 0xb
 13047 00ff 01       		.byte	0x1
 13048 0100 11       		.uleb128 0x11
 13049 0101 01       		.uleb128 0x1
 13050 0102 12       		.uleb128 0x12
 13051 0103 06       		.uleb128 0x6
 13052 0104 01       		.uleb128 0x1
 13053 0105 13       		.uleb128 0x13
 13054 0106 00       		.byte	0
 13055 0107 00       		.byte	0
 13056 0108 14       		.uleb128 0x14
 13057 0109 34       		.uleb128 0x34
 13058 010a 00       		.byte	0
 13059 010b 03       		.uleb128 0x3
ARM GAS  C:\Users\FRANKL~1\AppData\Local\Temp\ccnobXgu.s 			page 264


 13060 010c 0E       		.uleb128 0xe
 13061 010d 3A       		.uleb128 0x3a
 13062 010e 0B       		.uleb128 0xb
 13063 010f 3B       		.uleb128 0x3b
 13064 0110 05       		.uleb128 0x5
 13065 0111 49       		.uleb128 0x49
 13066 0112 13       		.uleb128 0x13
 13067 0113 02       		.uleb128 0x2
 13068 0114 18       		.uleb128 0x18
 13069 0115 00       		.byte	0
 13070 0116 00       		.byte	0
 13071 0117 15       		.uleb128 0x15
 13072 0118 34       		.uleb128 0x34
 13073 0119 00       		.byte	0
 13074 011a 03       		.uleb128 0x3
 13075 011b 0E       		.uleb128 0xe
 13076 011c 3A       		.uleb128 0x3a
 13077 011d 0B       		.uleb128 0xb
 13078 011e 3B       		.uleb128 0x3b
 13079 011f 05       		.uleb128 0x5
 13080 0120 49       		.uleb128 0x49
 13081 0121 13       		.uleb128 0x13
 13082 0122 02       		.uleb128 0x2
 13083 0123 17       		.uleb128 0x17
 13084 0124 00       		.byte	0
 13085 0125 00       		.byte	0
 13086 0126 16       		.uleb128 0x16
 13087 0127 34       		.uleb128 0x34
 13088 0128 00       		.byte	0
 13089 0129 03       		.uleb128 0x3
 13090 012a 08       		.uleb128 0x8
 13091 012b 3A       		.uleb128 0x3a
 13092 012c 0B       		.uleb128 0xb
 13093 012d 3B       		.uleb128 0x3b
 13094 012e 05       		.uleb128 0x5
 13095 012f 49       		.uleb128 0x49
 13096 0130 13       		.uleb128 0x13
 13097 0131 02       		.uleb128 0x2
 13098 0132 17       		.uleb128 0x17
 13099 0133 00       		.byte	0
 13100 0134 00       		.byte	0
 13101 0135 17       		.uleb128 0x17
 13102 0136 0B       		.uleb128 0xb
 13103 0137 01       		.byte	0x1
 13104 0138 11       		.uleb128 0x11
 13105 0139 01       		.uleb128 0x1
 13106 013a 12       		.uleb128 0x12
 13107 013b 06       		.uleb128 0x6
 13108 013c 00       		.byte	0
 13109 013d 00       		.byte	0
 13110 013e 18       		.uleb128 0x18
 13111 013f 898201   		.uleb128 0x4109
 13112 0142 01       		.byte	0x1
 13113 0143 11       		.uleb128 0x11
 13114 0144 01       		.uleb128 0x1
 13115 0145 31       		.uleb128 0x31
 13116 0146 13       		.uleb128 0x13
ARM GAS  C:\Users\FRANKL~1\AppData\Local\Temp\ccnobXgu.s 			page 265


 13117 0147 00       		.byte	0
 13118 0148 00       		.byte	0
 13119 0149 19       		.uleb128 0x19
 13120 014a 8A8201   		.uleb128 0x410a
 13121 014d 00       		.byte	0
 13122 014e 02       		.uleb128 0x2
 13123 014f 18       		.uleb128 0x18
 13124 0150 9142     		.uleb128 0x2111
 13125 0152 18       		.uleb128 0x18
 13126 0153 00       		.byte	0
 13127 0154 00       		.byte	0
 13128 0155 1A       		.uleb128 0x1a
 13129 0156 898201   		.uleb128 0x4109
 13130 0159 01       		.byte	0x1
 13131 015a 11       		.uleb128 0x11
 13132 015b 01       		.uleb128 0x1
 13133 015c 31       		.uleb128 0x31
 13134 015d 13       		.uleb128 0x13
 13135 015e 01       		.uleb128 0x1
 13136 015f 13       		.uleb128 0x13
 13137 0160 00       		.byte	0
 13138 0161 00       		.byte	0
 13139 0162 1B       		.uleb128 0x1b
 13140 0163 2E       		.uleb128 0x2e
 13141 0164 01       		.byte	0x1
 13142 0165 3F       		.uleb128 0x3f
 13143 0166 19       		.uleb128 0x19
 13144 0167 03       		.uleb128 0x3
 13145 0168 0E       		.uleb128 0xe
 13146 0169 3A       		.uleb128 0x3a
 13147 016a 0B       		.uleb128 0xb
 13148 016b 3B       		.uleb128 0x3b
 13149 016c 0B       		.uleb128 0xb
 13150 016d 27       		.uleb128 0x27
 13151 016e 19       		.uleb128 0x19
 13152 016f 49       		.uleb128 0x49
 13153 0170 13       		.uleb128 0x13
 13154 0171 11       		.uleb128 0x11
 13155 0172 01       		.uleb128 0x1
 13156 0173 12       		.uleb128 0x12
 13157 0174 06       		.uleb128 0x6
 13158 0175 40       		.uleb128 0x40
 13159 0176 18       		.uleb128 0x18
 13160 0177 9742     		.uleb128 0x2117
 13161 0179 19       		.uleb128 0x19
 13162 017a 01       		.uleb128 0x1
 13163 017b 13       		.uleb128 0x13
 13164 017c 00       		.byte	0
 13165 017d 00       		.byte	0
 13166 017e 1C       		.uleb128 0x1c
 13167 017f 05       		.uleb128 0x5
 13168 0180 00       		.byte	0
 13169 0181 03       		.uleb128 0x3
 13170 0182 0E       		.uleb128 0xe
 13171 0183 3A       		.uleb128 0x3a
 13172 0184 0B       		.uleb128 0xb
 13173 0185 3B       		.uleb128 0x3b
ARM GAS  C:\Users\FRANKL~1\AppData\Local\Temp\ccnobXgu.s 			page 266


 13174 0186 0B       		.uleb128 0xb
 13175 0187 49       		.uleb128 0x49
 13176 0188 13       		.uleb128 0x13
 13177 0189 02       		.uleb128 0x2
 13178 018a 17       		.uleb128 0x17
 13179 018b 00       		.byte	0
 13180 018c 00       		.byte	0
 13181 018d 1D       		.uleb128 0x1d
 13182 018e 0B       		.uleb128 0xb
 13183 018f 01       		.byte	0x1
 13184 0190 55       		.uleb128 0x55
 13185 0191 17       		.uleb128 0x17
 13186 0192 01       		.uleb128 0x1
 13187 0193 13       		.uleb128 0x13
 13188 0194 00       		.byte	0
 13189 0195 00       		.byte	0
 13190 0196 1E       		.uleb128 0x1e
 13191 0197 34       		.uleb128 0x34
 13192 0198 00       		.byte	0
 13193 0199 03       		.uleb128 0x3
 13194 019a 08       		.uleb128 0x8
 13195 019b 3A       		.uleb128 0x3a
 13196 019c 0B       		.uleb128 0xb
 13197 019d 3B       		.uleb128 0x3b
 13198 019e 0B       		.uleb128 0xb
 13199 019f 49       		.uleb128 0x49
 13200 01a0 13       		.uleb128 0x13
 13201 01a1 02       		.uleb128 0x2
 13202 01a2 17       		.uleb128 0x17
 13203 01a3 00       		.byte	0
 13204 01a4 00       		.byte	0
 13205 01a5 1F       		.uleb128 0x1f
 13206 01a6 2E       		.uleb128 0x2e
 13207 01a7 01       		.byte	0x1
 13208 01a8 3F       		.uleb128 0x3f
 13209 01a9 19       		.uleb128 0x19
 13210 01aa 03       		.uleb128 0x3
 13211 01ab 0E       		.uleb128 0xe
 13212 01ac 3A       		.uleb128 0x3a
 13213 01ad 0B       		.uleb128 0xb
 13214 01ae 3B       		.uleb128 0x3b
 13215 01af 0B       		.uleb128 0xb
 13216 01b0 27       		.uleb128 0x27
 13217 01b1 19       		.uleb128 0x19
 13218 01b2 11       		.uleb128 0x11
 13219 01b3 01       		.uleb128 0x1
 13220 01b4 12       		.uleb128 0x12
 13221 01b5 06       		.uleb128 0x6
 13222 01b6 40       		.uleb128 0x40
 13223 01b7 18       		.uleb128 0x18
 13224 01b8 9742     		.uleb128 0x2117
 13225 01ba 19       		.uleb128 0x19
 13226 01bb 01       		.uleb128 0x1
 13227 01bc 13       		.uleb128 0x13
 13228 01bd 00       		.byte	0
 13229 01be 00       		.byte	0
 13230 01bf 20       		.uleb128 0x20
ARM GAS  C:\Users\FRANKL~1\AppData\Local\Temp\ccnobXgu.s 			page 267


 13231 01c0 05       		.uleb128 0x5
 13232 01c1 00       		.byte	0
 13233 01c2 03       		.uleb128 0x3
 13234 01c3 0E       		.uleb128 0xe
 13235 01c4 3A       		.uleb128 0x3a
 13236 01c5 0B       		.uleb128 0xb
 13237 01c6 3B       		.uleb128 0x3b
 13238 01c7 0B       		.uleb128 0xb
 13239 01c8 49       		.uleb128 0x49
 13240 01c9 13       		.uleb128 0x13
 13241 01ca 02       		.uleb128 0x2
 13242 01cb 18       		.uleb128 0x18
 13243 01cc 00       		.byte	0
 13244 01cd 00       		.byte	0
 13245 01ce 21       		.uleb128 0x21
 13246 01cf 2E       		.uleb128 0x2e
 13247 01d0 01       		.byte	0x1
 13248 01d1 3F       		.uleb128 0x3f
 13249 01d2 19       		.uleb128 0x19
 13250 01d3 03       		.uleb128 0x3
 13251 01d4 0E       		.uleb128 0xe
 13252 01d5 3A       		.uleb128 0x3a
 13253 01d6 0B       		.uleb128 0xb
 13254 01d7 3B       		.uleb128 0x3b
 13255 01d8 0B       		.uleb128 0xb
 13256 01d9 27       		.uleb128 0x27
 13257 01da 19       		.uleb128 0x19
 13258 01db 11       		.uleb128 0x11
 13259 01dc 01       		.uleb128 0x1
 13260 01dd 12       		.uleb128 0x12
 13261 01de 06       		.uleb128 0x6
 13262 01df 40       		.uleb128 0x40
 13263 01e0 18       		.uleb128 0x18
 13264 01e1 9642     		.uleb128 0x2116
 13265 01e3 19       		.uleb128 0x19
 13266 01e4 01       		.uleb128 0x1
 13267 01e5 13       		.uleb128 0x13
 13268 01e6 00       		.byte	0
 13269 01e7 00       		.byte	0
 13270 01e8 22       		.uleb128 0x22
 13271 01e9 0B       		.uleb128 0xb
 13272 01ea 01       		.byte	0x1
 13273 01eb 55       		.uleb128 0x55
 13274 01ec 17       		.uleb128 0x17
 13275 01ed 00       		.byte	0
 13276 01ee 00       		.byte	0
 13277 01ef 23       		.uleb128 0x23
 13278 01f0 2E       		.uleb128 0x2e
 13279 01f1 01       		.byte	0x1
 13280 01f2 3F       		.uleb128 0x3f
 13281 01f3 19       		.uleb128 0x19
 13282 01f4 03       		.uleb128 0x3
 13283 01f5 0E       		.uleb128 0xe
 13284 01f6 3A       		.uleb128 0x3a
 13285 01f7 0B       		.uleb128 0xb
 13286 01f8 3B       		.uleb128 0x3b
 13287 01f9 05       		.uleb128 0x5
ARM GAS  C:\Users\FRANKL~1\AppData\Local\Temp\ccnobXgu.s 			page 268


 13288 01fa 27       		.uleb128 0x27
 13289 01fb 19       		.uleb128 0x19
 13290 01fc 11       		.uleb128 0x11
 13291 01fd 01       		.uleb128 0x1
 13292 01fe 12       		.uleb128 0x12
 13293 01ff 06       		.uleb128 0x6
 13294 0200 40       		.uleb128 0x40
 13295 0201 18       		.uleb128 0x18
 13296 0202 9642     		.uleb128 0x2116
 13297 0204 19       		.uleb128 0x19
 13298 0205 01       		.uleb128 0x1
 13299 0206 13       		.uleb128 0x13
 13300 0207 00       		.byte	0
 13301 0208 00       		.byte	0
 13302 0209 24       		.uleb128 0x24
 13303 020a 05       		.uleb128 0x5
 13304 020b 00       		.byte	0
 13305 020c 03       		.uleb128 0x3
 13306 020d 0E       		.uleb128 0xe
 13307 020e 3A       		.uleb128 0x3a
 13308 020f 0B       		.uleb128 0xb
 13309 0210 3B       		.uleb128 0x3b
 13310 0211 05       		.uleb128 0x5
 13311 0212 49       		.uleb128 0x49
 13312 0213 13       		.uleb128 0x13
 13313 0214 02       		.uleb128 0x2
 13314 0215 17       		.uleb128 0x17
 13315 0216 00       		.byte	0
 13316 0217 00       		.byte	0
 13317 0218 25       		.uleb128 0x25
 13318 0219 34       		.uleb128 0x34
 13319 021a 00       		.byte	0
 13320 021b 03       		.uleb128 0x3
 13321 021c 0E       		.uleb128 0xe
 13322 021d 3A       		.uleb128 0x3a
 13323 021e 0B       		.uleb128 0xb
 13324 021f 3B       		.uleb128 0x3b
 13325 0220 05       		.uleb128 0x5
 13326 0221 49       		.uleb128 0x49
 13327 0222 13       		.uleb128 0x13
 13328 0223 1C       		.uleb128 0x1c
 13329 0224 0A       		.uleb128 0xa
 13330 0225 00       		.byte	0
 13331 0226 00       		.byte	0
 13332 0227 26       		.uleb128 0x26
 13333 0228 2E       		.uleb128 0x2e
 13334 0229 01       		.byte	0x1
 13335 022a 3F       		.uleb128 0x3f
 13336 022b 19       		.uleb128 0x19
 13337 022c 03       		.uleb128 0x3
 13338 022d 0E       		.uleb128 0xe
 13339 022e 3A       		.uleb128 0x3a
 13340 022f 0B       		.uleb128 0xb
 13341 0230 3B       		.uleb128 0x3b
 13342 0231 05       		.uleb128 0x5
 13343 0232 49       		.uleb128 0x49
 13344 0233 13       		.uleb128 0x13
ARM GAS  C:\Users\FRANKL~1\AppData\Local\Temp\ccnobXgu.s 			page 269


 13345 0234 11       		.uleb128 0x11
 13346 0235 01       		.uleb128 0x1
 13347 0236 12       		.uleb128 0x12
 13348 0237 06       		.uleb128 0x6
 13349 0238 40       		.uleb128 0x40
 13350 0239 18       		.uleb128 0x18
 13351 023a 9642     		.uleb128 0x2116
 13352 023c 19       		.uleb128 0x19
 13353 023d 01       		.uleb128 0x1
 13354 023e 13       		.uleb128 0x13
 13355 023f 00       		.byte	0
 13356 0240 00       		.byte	0
 13357 0241 27       		.uleb128 0x27
 13358 0242 2E       		.uleb128 0x2e
 13359 0243 01       		.byte	0x1
 13360 0244 3F       		.uleb128 0x3f
 13361 0245 19       		.uleb128 0x19
 13362 0246 03       		.uleb128 0x3
 13363 0247 0E       		.uleb128 0xe
 13364 0248 3A       		.uleb128 0x3a
 13365 0249 0B       		.uleb128 0xb
 13366 024a 3B       		.uleb128 0x3b
 13367 024b 05       		.uleb128 0x5
 13368 024c 11       		.uleb128 0x11
 13369 024d 01       		.uleb128 0x1
 13370 024e 12       		.uleb128 0x12
 13371 024f 06       		.uleb128 0x6
 13372 0250 40       		.uleb128 0x40
 13373 0251 18       		.uleb128 0x18
 13374 0252 9742     		.uleb128 0x2117
 13375 0254 19       		.uleb128 0x19
 13376 0255 01       		.uleb128 0x1
 13377 0256 13       		.uleb128 0x13
 13378 0257 00       		.byte	0
 13379 0258 00       		.byte	0
 13380 0259 28       		.uleb128 0x28
 13381 025a 05       		.uleb128 0x5
 13382 025b 00       		.byte	0
 13383 025c 03       		.uleb128 0x3
 13384 025d 08       		.uleb128 0x8
 13385 025e 3A       		.uleb128 0x3a
 13386 025f 0B       		.uleb128 0xb
 13387 0260 3B       		.uleb128 0x3b
 13388 0261 05       		.uleb128 0x5
 13389 0262 49       		.uleb128 0x49
 13390 0263 13       		.uleb128 0x13
 13391 0264 02       		.uleb128 0x2
 13392 0265 17       		.uleb128 0x17
 13393 0266 00       		.byte	0
 13394 0267 00       		.byte	0
 13395 0268 29       		.uleb128 0x29
 13396 0269 34       		.uleb128 0x34
 13397 026a 00       		.byte	0
 13398 026b 03       		.uleb128 0x3
 13399 026c 0E       		.uleb128 0xe
 13400 026d 3A       		.uleb128 0x3a
 13401 026e 0B       		.uleb128 0xb
ARM GAS  C:\Users\FRANKL~1\AppData\Local\Temp\ccnobXgu.s 			page 270


 13402 026f 3B       		.uleb128 0x3b
 13403 0270 05       		.uleb128 0x5
 13404 0271 49       		.uleb128 0x49
 13405 0272 13       		.uleb128 0x13
 13406 0273 00       		.byte	0
 13407 0274 00       		.byte	0
 13408 0275 2A       		.uleb128 0x2a
 13409 0276 34       		.uleb128 0x34
 13410 0277 00       		.byte	0
 13411 0278 03       		.uleb128 0x3
 13412 0279 0E       		.uleb128 0xe
 13413 027a 3A       		.uleb128 0x3a
 13414 027b 0B       		.uleb128 0xb
 13415 027c 3B       		.uleb128 0x3b
 13416 027d 05       		.uleb128 0x5
 13417 027e 49       		.uleb128 0x49
 13418 027f 13       		.uleb128 0x13
 13419 0280 1C       		.uleb128 0x1c
 13420 0281 0B       		.uleb128 0xb
 13421 0282 00       		.byte	0
 13422 0283 00       		.byte	0
 13423 0284 2B       		.uleb128 0x2b
 13424 0285 2E       		.uleb128 0x2e
 13425 0286 01       		.byte	0x1
 13426 0287 3F       		.uleb128 0x3f
 13427 0288 19       		.uleb128 0x19
 13428 0289 03       		.uleb128 0x3
 13429 028a 0E       		.uleb128 0xe
 13430 028b 3A       		.uleb128 0x3a
 13431 028c 0B       		.uleb128 0xb
 13432 028d 3B       		.uleb128 0x3b
 13433 028e 05       		.uleb128 0x5
 13434 028f 27       		.uleb128 0x27
 13435 0290 19       		.uleb128 0x19
 13436 0291 49       		.uleb128 0x49
 13437 0292 13       		.uleb128 0x13
 13438 0293 8701     		.uleb128 0x87
 13439 0295 19       		.uleb128 0x19
 13440 0296 11       		.uleb128 0x11
 13441 0297 01       		.uleb128 0x1
 13442 0298 12       		.uleb128 0x12
 13443 0299 06       		.uleb128 0x6
 13444 029a 40       		.uleb128 0x40
 13445 029b 18       		.uleb128 0x18
 13446 029c 9642     		.uleb128 0x2116
 13447 029e 19       		.uleb128 0x19
 13448 029f 01       		.uleb128 0x1
 13449 02a0 13       		.uleb128 0x13
 13450 02a1 00       		.byte	0
 13451 02a2 00       		.byte	0
 13452 02a3 2C       		.uleb128 0x2c
 13453 02a4 34       		.uleb128 0x34
 13454 02a5 00       		.byte	0
 13455 02a6 03       		.uleb128 0x3
 13456 02a7 08       		.uleb128 0x8
 13457 02a8 3A       		.uleb128 0x3a
 13458 02a9 0B       		.uleb128 0xb
ARM GAS  C:\Users\FRANKL~1\AppData\Local\Temp\ccnobXgu.s 			page 271


 13459 02aa 3B       		.uleb128 0x3b
 13460 02ab 05       		.uleb128 0x5
 13461 02ac 49       		.uleb128 0x49
 13462 02ad 13       		.uleb128 0x13
 13463 02ae 02       		.uleb128 0x2
 13464 02af 18       		.uleb128 0x18
 13465 02b0 00       		.byte	0
 13466 02b1 00       		.byte	0
 13467 02b2 2D       		.uleb128 0x2d
 13468 02b3 34       		.uleb128 0x34
 13469 02b4 00       		.byte	0
 13470 02b5 03       		.uleb128 0x3
 13471 02b6 0E       		.uleb128 0xe
 13472 02b7 3A       		.uleb128 0x3a
 13473 02b8 0B       		.uleb128 0xb
 13474 02b9 3B       		.uleb128 0x3b
 13475 02ba 05       		.uleb128 0x5
 13476 02bb 49       		.uleb128 0x49
 13477 02bc 13       		.uleb128 0x13
 13478 02bd 3F       		.uleb128 0x3f
 13479 02be 19       		.uleb128 0x19
 13480 02bf 3C       		.uleb128 0x3c
 13481 02c0 19       		.uleb128 0x19
 13482 02c1 00       		.byte	0
 13483 02c2 00       		.byte	0
 13484 02c3 2E       		.uleb128 0x2e
 13485 02c4 34       		.uleb128 0x34
 13486 02c5 00       		.byte	0
 13487 02c6 03       		.uleb128 0x3
 13488 02c7 0E       		.uleb128 0xe
 13489 02c8 3A       		.uleb128 0x3a
 13490 02c9 0B       		.uleb128 0xb
 13491 02ca 3B       		.uleb128 0x3b
 13492 02cb 0B       		.uleb128 0xb
 13493 02cc 49       		.uleb128 0x49
 13494 02cd 13       		.uleb128 0x13
 13495 02ce 3F       		.uleb128 0x3f
 13496 02cf 19       		.uleb128 0x19
 13497 02d0 02       		.uleb128 0x2
 13498 02d1 18       		.uleb128 0x18
 13499 02d2 00       		.byte	0
 13500 02d3 00       		.byte	0
 13501 02d4 2F       		.uleb128 0x2f
 13502 02d5 2E       		.uleb128 0x2e
 13503 02d6 00       		.byte	0
 13504 02d7 3F       		.uleb128 0x3f
 13505 02d8 19       		.uleb128 0x19
 13506 02d9 3C       		.uleb128 0x3c
 13507 02da 19       		.uleb128 0x19
 13508 02db 6E       		.uleb128 0x6e
 13509 02dc 0E       		.uleb128 0xe
 13510 02dd 03       		.uleb128 0x3
 13511 02de 0E       		.uleb128 0xe
 13512 02df 3A       		.uleb128 0x3a
 13513 02e0 0B       		.uleb128 0xb
 13514 02e1 3B       		.uleb128 0x3b
 13515 02e2 05       		.uleb128 0x5
ARM GAS  C:\Users\FRANKL~1\AppData\Local\Temp\ccnobXgu.s 			page 272


 13516 02e3 00       		.byte	0
 13517 02e4 00       		.byte	0
 13518 02e5 30       		.uleb128 0x30
 13519 02e6 2E       		.uleb128 0x2e
 13520 02e7 00       		.byte	0
 13521 02e8 3F       		.uleb128 0x3f
 13522 02e9 19       		.uleb128 0x19
 13523 02ea 3C       		.uleb128 0x3c
 13524 02eb 19       		.uleb128 0x19
 13525 02ec 6E       		.uleb128 0x6e
 13526 02ed 0E       		.uleb128 0xe
 13527 02ee 03       		.uleb128 0x3
 13528 02ef 0E       		.uleb128 0xe
 13529 02f0 3A       		.uleb128 0x3a
 13530 02f1 0B       		.uleb128 0xb
 13531 02f2 3B       		.uleb128 0x3b
 13532 02f3 0B       		.uleb128 0xb
 13533 02f4 00       		.byte	0
 13534 02f5 00       		.byte	0
 13535 02f6 31       		.uleb128 0x31
 13536 02f7 2E       		.uleb128 0x2e
 13537 02f8 00       		.byte	0
 13538 02f9 3F       		.uleb128 0x3f
 13539 02fa 19       		.uleb128 0x19
 13540 02fb 3C       		.uleb128 0x3c
 13541 02fc 19       		.uleb128 0x19
 13542 02fd 6E       		.uleb128 0x6e
 13543 02fe 0E       		.uleb128 0xe
 13544 02ff 03       		.uleb128 0x3
 13545 0300 0E       		.uleb128 0xe
 13546 0301 3A       		.uleb128 0x3a
 13547 0302 0B       		.uleb128 0xb
 13548 0303 3B       		.uleb128 0x3b
 13549 0304 0B       		.uleb128 0xb
 13550 0305 6E       		.uleb128 0x6e
 13551 0306 0E       		.uleb128 0xe
 13552 0307 00       		.byte	0
 13553 0308 00       		.byte	0
 13554 0309 00       		.byte	0
 13555              		.section	.debug_loc,"",%progbits
 13556              	.Ldebug_loc0:
 13557              	.LLST0:
 13558 0000 02000000 		.4byte	.LVL0
 13559 0004 12000000 		.4byte	.LVL3
 13560 0008 0200     		.2byte	0x2
 13561 000a 30       		.byte	0x30
 13562 000b 9F       		.byte	0x9f
 13563 000c 12000000 		.4byte	.LVL3
 13564 0010 18000000 		.4byte	.LFE64
 13565 0014 0200     		.2byte	0x2
 13566 0016 31       		.byte	0x31
 13567 0017 9F       		.byte	0x9f
 13568 0018 00000000 		.4byte	0
 13569 001c 00000000 		.4byte	0
 13570              	.LLST1:
 13571 0020 14000000 		.4byte	.LVL10
 13572 0024 7C000000 		.4byte	.LVL18
ARM GAS  C:\Users\FRANKL~1\AppData\Local\Temp\ccnobXgu.s 			page 273


 13573 0028 0100     		.2byte	0x1
 13574 002a 50       		.byte	0x50
 13575 002b 00000000 		.4byte	0
 13576 002f 00000000 		.4byte	0
 13577              	.LLST2:
 13578 0033 14000000 		.4byte	.LVL10
 13579 0037 18000000 		.4byte	.LVL11
 13580 003b 0200     		.2byte	0x2
 13581 003d 30       		.byte	0x30
 13582 003e 9F       		.byte	0x9f
 13583 003f 18000000 		.4byte	.LVL11
 13584 0043 74000000 		.4byte	.LVL16
 13585 0047 0100     		.2byte	0x1
 13586 0049 53       		.byte	0x53
 13587 004a 76000000 		.4byte	.LVL17
 13588 004e 7C000000 		.4byte	.LVL18
 13589 0052 0100     		.2byte	0x1
 13590 0054 53       		.byte	0x53
 13591 0055 00000000 		.4byte	0
 13592 0059 00000000 		.4byte	0
 13593              	.LLST3:
 13594 005d 20000000 		.4byte	.LVL12
 13595 0061 3A000000 		.4byte	.LVL13
 13596 0065 0100     		.2byte	0x1
 13597 0067 52       		.byte	0x52
 13598 0068 3A000000 		.4byte	.LVL13
 13599 006c 58000000 		.4byte	.LVL14
 13600 0070 0800     		.2byte	0x8
 13601 0072 91       		.byte	0x91
 13602 0073 00       		.sleb128 0
 13603 0074 73       		.byte	0x73
 13604 0075 00       		.sleb128 0
 13605 0076 22       		.byte	0x22
 13606 0077 08       		.byte	0x8
 13607 0078 50       		.byte	0x50
 13608 0079 1C       		.byte	0x1c
 13609 007a 58000000 		.4byte	.LVL14
 13610 007e 5C000000 		.4byte	.LVL15
 13611 0082 0100     		.2byte	0x1
 13612 0084 52       		.byte	0x52
 13613 0085 5C000000 		.4byte	.LVL15
 13614 0089 74000000 		.4byte	.LVL16
 13615 008d 0800     		.2byte	0x8
 13616 008f 91       		.byte	0x91
 13617 0090 00       		.sleb128 0
 13618 0091 73       		.byte	0x73
 13619 0092 00       		.sleb128 0
 13620 0093 22       		.byte	0x22
 13621 0094 08       		.byte	0x8
 13622 0095 50       		.byte	0x50
 13623 0096 1C       		.byte	0x1c
 13624 0097 74000000 		.4byte	.LVL16
 13625 009b 76000000 		.4byte	.LVL17
 13626 009f 0800     		.2byte	0x8
 13627 00a1 91       		.byte	0x91
 13628 00a2 00       		.sleb128 0
 13629 00a3 73       		.byte	0x73
ARM GAS  C:\Users\FRANKL~1\AppData\Local\Temp\ccnobXgu.s 			page 274


 13630 00a4 00       		.sleb128 0
 13631 00a5 22       		.byte	0x22
 13632 00a6 08       		.byte	0x8
 13633 00a7 51       		.byte	0x51
 13634 00a8 1C       		.byte	0x1c
 13635 00a9 00000000 		.4byte	0
 13636 00ad 00000000 		.4byte	0
 13637              	.LLST4:
 13638 00b1 FC000000 		.4byte	.LVL21
 13639 00b5 0C010000 		.4byte	.LVL22
 13640 00b9 0600     		.2byte	0x6
 13641 00bb 03       		.byte	0x3
 13642 00bc 00000000 		.4byte	USBUART_Receive_Buffer
 13643 00c0 9F       		.byte	0x9f
 13644 00c1 0C010000 		.4byte	.LVL22
 13645 00c5 7C010000 		.4byte	.LVL28
 13646 00c9 0100     		.2byte	0x1
 13647 00cb 54       		.byte	0x54
 13648 00cc 00000000 		.4byte	0
 13649 00d0 00000000 		.4byte	0
 13650              	.LLST5:
 13651 00d4 00000000 		.4byte	.LVL31
 13652 00d8 06000000 		.4byte	.LVL32
 13653 00dc 0100     		.2byte	0x1
 13654 00de 50       		.byte	0x50
 13655 00df 06000000 		.4byte	.LVL32
 13656 00e3 08000000 		.4byte	.LVL33
 13657 00e7 0400     		.2byte	0x4
 13658 00e9 F3       		.byte	0xf3
 13659 00ea 01       		.uleb128 0x1
 13660 00eb 50       		.byte	0x50
 13661 00ec 9F       		.byte	0x9f
 13662 00ed 08000000 		.4byte	.LVL33
 13663 00f1 16000000 		.4byte	.LVL37
 13664 00f5 0100     		.2byte	0x1
 13665 00f7 56       		.byte	0x56
 13666 00f8 16000000 		.4byte	.LVL37
 13667 00fc 1E000000 		.4byte	.LVL38
 13668 0100 0100     		.2byte	0x1
 13669 0102 50       		.byte	0x50
 13670 0103 1E000000 		.4byte	.LVL38
 13671 0107 50000000 		.4byte	.LFE66
 13672 010b 0100     		.2byte	0x1
 13673 010d 56       		.byte	0x56
 13674 010e 00000000 		.4byte	0
 13675 0112 00000000 		.4byte	0
 13676              	.LLST6:
 13677 0116 00000000 		.4byte	.LVL31
 13678 011a 08000000 		.4byte	.LVL33
 13679 011e 0100     		.2byte	0x1
 13680 0120 51       		.byte	0x51
 13681 0121 08000000 		.4byte	.LVL33
 13682 0125 16000000 		.4byte	.LVL37
 13683 0129 0400     		.2byte	0x4
 13684 012b F3       		.byte	0xf3
 13685 012c 01       		.uleb128 0x1
 13686 012d 51       		.byte	0x51
ARM GAS  C:\Users\FRANKL~1\AppData\Local\Temp\ccnobXgu.s 			page 275


 13687 012e 9F       		.byte	0x9f
 13688 012f 16000000 		.4byte	.LVL37
 13689 0133 1E000000 		.4byte	.LVL38
 13690 0137 0100     		.2byte	0x1
 13691 0139 51       		.byte	0x51
 13692 013a 1E000000 		.4byte	.LVL38
 13693 013e 50000000 		.4byte	.LFE66
 13694 0142 0400     		.2byte	0x4
 13695 0144 F3       		.byte	0xf3
 13696 0145 01       		.uleb128 0x1
 13697 0146 51       		.byte	0x51
 13698 0147 9F       		.byte	0x9f
 13699 0148 00000000 		.4byte	0
 13700 014c 00000000 		.4byte	0
 13701              	.LLST7:
 13702 0150 08000000 		.4byte	.LVL33
 13703 0154 16000000 		.4byte	.LVL37
 13704 0158 0100     		.2byte	0x1
 13705 015a 54       		.byte	0x54
 13706 015b 1E000000 		.4byte	.LVL38
 13707 015f 50000000 		.4byte	.LFE66
 13708 0163 0100     		.2byte	0x1
 13709 0165 54       		.byte	0x54
 13710 0166 00000000 		.4byte	0
 13711 016a 00000000 		.4byte	0
 13712              	.LLST8:
 13713 016e 00000000 		.4byte	.LVL43
 13714 0172 08000000 		.4byte	.LVL44
 13715 0176 0100     		.2byte	0x1
 13716 0178 50       		.byte	0x50
 13717 0179 08000000 		.4byte	.LVL44
 13718 017d 24000000 		.4byte	.LFE67
 13719 0181 0100     		.2byte	0x1
 13720 0183 54       		.byte	0x54
 13721 0184 00000000 		.4byte	0
 13722 0188 00000000 		.4byte	0
 13723              	.LLST9:
 13724 018c 00000000 		.4byte	.LVL43
 13725 0190 08000000 		.4byte	.LVL44
 13726 0194 0100     		.2byte	0x1
 13727 0196 51       		.byte	0x51
 13728 0197 08000000 		.4byte	.LVL44
 13729 019b 24000000 		.4byte	.LFE67
 13730 019f 0100     		.2byte	0x1
 13731 01a1 55       		.byte	0x55
 13732 01a2 00000000 		.4byte	0
 13733 01a6 00000000 		.4byte	0
 13734              	.LLST10:
 13735 01aa 00000000 		.4byte	.LVL51
 13736 01ae 1E000000 		.4byte	.LVL56
 13737 01b2 0100     		.2byte	0x1
 13738 01b4 50       		.byte	0x50
 13739 01b5 1E000000 		.4byte	.LVL56
 13740 01b9 58000000 		.4byte	.LFE69
 13741 01bd 0100     		.2byte	0x1
 13742 01bf 55       		.byte	0x55
 13743 01c0 00000000 		.4byte	0
ARM GAS  C:\Users\FRANKL~1\AppData\Local\Temp\ccnobXgu.s 			page 276


 13744 01c4 00000000 		.4byte	0
 13745              	.LLST11:
 13746 01c8 00000000 		.4byte	.LVL51
 13747 01cc 1E000000 		.4byte	.LVL56
 13748 01d0 0100     		.2byte	0x1
 13749 01d2 51       		.byte	0x51
 13750 01d3 1E000000 		.4byte	.LVL56
 13751 01d7 58000000 		.4byte	.LFE69
 13752 01db 0400     		.2byte	0x4
 13753 01dd F3       		.byte	0xf3
 13754 01de 01       		.uleb128 0x1
 13755 01df 51       		.byte	0x51
 13756 01e0 9F       		.byte	0x9f
 13757 01e1 00000000 		.4byte	0
 13758 01e5 00000000 		.4byte	0
 13759              	.LLST12:
 13760 01e9 00000000 		.4byte	.LVL51
 13761 01ed 0E000000 		.4byte	.LVL53
 13762 01f1 0100     		.2byte	0x1
 13763 01f3 52       		.byte	0x52
 13764 01f4 0E000000 		.4byte	.LVL53
 13765 01f8 58000000 		.4byte	.LFE69
 13766 01fc 0100     		.2byte	0x1
 13767 01fe 57       		.byte	0x57
 13768 01ff 00000000 		.4byte	0
 13769 0203 00000000 		.4byte	0
 13770              	.LLST13:
 13771 0207 0A000000 		.4byte	.LVL52
 13772 020b 0E000000 		.4byte	.LVL53
 13773 020f 0200     		.2byte	0x2
 13774 0211 30       		.byte	0x30
 13775 0212 9F       		.byte	0x9f
 13776 0213 0E000000 		.4byte	.LVL53
 13777 0217 14000000 		.4byte	.LVL54
 13778 021b 0100     		.2byte	0x1
 13779 021d 53       		.byte	0x53
 13780 021e 16000000 		.4byte	.LVL55
 13781 0222 1E000000 		.4byte	.LVL56
 13782 0226 0100     		.2byte	0x1
 13783 0228 53       		.byte	0x53
 13784 0229 00000000 		.4byte	0
 13785 022d 00000000 		.4byte	0
 13786              	.LLST14:
 13787 0231 1E000000 		.4byte	.LVL56
 13788 0235 4A000000 		.4byte	.LVL61
 13789 0239 0100     		.2byte	0x1
 13790 023b 54       		.byte	0x54
 13791 023c 4C000000 		.4byte	.LVL62
 13792 0240 58000000 		.4byte	.LFE69
 13793 0244 0100     		.2byte	0x1
 13794 0246 54       		.byte	0x54
 13795 0247 00000000 		.4byte	0
 13796 024b 00000000 		.4byte	0
 13797              	.LLST15:
 13798 024f 0A000000 		.4byte	.LVL64
 13799 0253 0E000000 		.4byte	.LVL65
 13800 0257 0200     		.2byte	0x2
ARM GAS  C:\Users\FRANKL~1\AppData\Local\Temp\ccnobXgu.s 			page 277


 13801 0259 30       		.byte	0x30
 13802 025a 9F       		.byte	0x9f
 13803 025b 0E000000 		.4byte	.LVL65
 13804 025f 16000000 		.4byte	.LVL66
 13805 0263 0100     		.2byte	0x1
 13806 0265 53       		.byte	0x53
 13807 0266 18000000 		.4byte	.LVL67
 13808 026a 1E000000 		.4byte	.LVL68
 13809 026e 0100     		.2byte	0x1
 13810 0270 53       		.byte	0x53
 13811 0271 00000000 		.4byte	0
 13812 0275 00000000 		.4byte	0
 13813              	.LLST16:
 13814 0279 20000000 		.4byte	.LVL69
 13815 027d 2A000000 		.4byte	.LVL70
 13816 0281 0100     		.2byte	0x1
 13817 0283 53       		.byte	0x53
 13818 0284 2C000000 		.4byte	.LVL71
 13819 0288 32000000 		.4byte	.LFE70
 13820 028c 0100     		.2byte	0x1
 13821 028e 53       		.byte	0x53
 13822 028f 00000000 		.4byte	0
 13823 0293 00000000 		.4byte	0
 13824              	.LLST17:
 13825 0297 00000000 		.4byte	.LVL72
 13826 029b 12000000 		.4byte	.LVL73
 13827 029f 0100     		.2byte	0x1
 13828 02a1 50       		.byte	0x50
 13829 02a2 12000000 		.4byte	.LVL73
 13830 02a6 90010000 		.4byte	.LFE71
 13831 02aa 0400     		.2byte	0x4
 13832 02ac F3       		.byte	0xf3
 13833 02ad 01       		.uleb128 0x1
 13834 02ae 50       		.byte	0x50
 13835 02af 9F       		.byte	0x9f
 13836 02b0 00000000 		.4byte	0
 13837 02b4 00000000 		.4byte	0
 13838              	.LLST18:
 13839 02b8 2A000000 		.4byte	.LVL77
 13840 02bc 32000000 		.4byte	.LVL79
 13841 02c0 0C00     		.2byte	0xc
 13842 02c2 74       		.byte	0x74
 13843 02c3 00       		.sleb128 0
 13844 02c4 08       		.byte	0x8
 13845 02c5 FF       		.byte	0xff
 13846 02c6 1E       		.byte	0x1e
 13847 02c7 03       		.byte	0x3
 13848 02c8 00000000 		.4byte	selectors
 13849 02cc 22       		.byte	0x22
 13850 02cd 9F       		.byte	0x9f
 13851 02ce 32000000 		.4byte	.LVL79
 13852 02d2 5C010000 		.4byte	.LVL108
 13853 02d6 0C00     		.2byte	0xc
 13854 02d8 78       		.byte	0x78
 13855 02d9 7F       		.sleb128 -1
 13856 02da 08       		.byte	0x8
 13857 02db FF       		.byte	0xff
ARM GAS  C:\Users\FRANKL~1\AppData\Local\Temp\ccnobXgu.s 			page 278


 13858 02dc 1E       		.byte	0x1e
 13859 02dd 03       		.byte	0x3
 13860 02de 00000000 		.4byte	selectors
 13861 02e2 22       		.byte	0x22
 13862 02e3 9F       		.byte	0x9f
 13863 02e4 00000000 		.4byte	0
 13864 02e8 00000000 		.4byte	0
 13865              	.LLST19:
 13866 02ec 44000000 		.4byte	.LVL80
 13867 02f0 48000000 		.4byte	.LVL81
 13868 02f4 0200     		.2byte	0x2
 13869 02f6 30       		.byte	0x30
 13870 02f7 9F       		.byte	0x9f
 13871 02f8 48000000 		.4byte	.LVL81
 13872 02fc C6000000 		.4byte	.LVL93
 13873 0300 0100     		.2byte	0x1
 13874 0302 54       		.byte	0x54
 13875 0303 00000000 		.4byte	0
 13876 0307 00000000 		.4byte	0
 13877              	.LLST20:
 13878 030b 02000000 		.4byte	.LVL109
 13879 030f 06000000 		.4byte	.LVL110
 13880 0313 0200     		.2byte	0x2
 13881 0315 30       		.byte	0x30
 13882 0316 9F       		.byte	0x9f
 13883 0317 06000000 		.4byte	.LVL110
 13884 031b 14000000 		.4byte	.LVL112
 13885 031f 0100     		.2byte	0x1
 13886 0321 54       		.byte	0x54
 13887 0322 16000000 		.4byte	.LVL113
 13888 0326 36000000 		.4byte	.LVL114
 13889 032a 0100     		.2byte	0x1
 13890 032c 54       		.byte	0x54
 13891 032d 00000000 		.4byte	0
 13892 0331 00000000 		.4byte	0
 13893              	.LLST21:
 13894 0335 00000000 		.4byte	.LVL115
 13895 0339 04000000 		.4byte	.LVL116
 13896 033d 0100     		.2byte	0x1
 13897 033f 50       		.byte	0x50
 13898 0340 04000000 		.4byte	.LVL116
 13899 0344 06000000 		.4byte	.LVL117
 13900 0348 0400     		.2byte	0x4
 13901 034a F3       		.byte	0xf3
 13902 034b 01       		.uleb128 0x1
 13903 034c 50       		.byte	0x50
 13904 034d 9F       		.byte	0x9f
 13905 034e 06000000 		.4byte	.LVL117
 13906 0352 1C000000 		.4byte	.LVL119
 13907 0356 0100     		.2byte	0x1
 13908 0358 53       		.byte	0x53
 13909 0359 00000000 		.4byte	0
 13910 035d 00000000 		.4byte	0
 13911              	.LLST22:
 13912 0361 00000000 		.4byte	.LVL115
 13913 0365 06000000 		.4byte	.LVL117
 13914 0369 0100     		.2byte	0x1
ARM GAS  C:\Users\FRANKL~1\AppData\Local\Temp\ccnobXgu.s 			page 279


 13915 036b 51       		.byte	0x51
 13916 036c 06000000 		.4byte	.LVL117
 13917 0370 0C000000 		.4byte	.LVL118
 13918 0374 0300     		.2byte	0x3
 13919 0376 71       		.byte	0x71
 13920 0377 7F       		.sleb128 -1
 13921 0378 9F       		.byte	0x9f
 13922 0379 0C000000 		.4byte	.LVL118
 13923 037d 2C000000 		.4byte	.LFE73
 13924 0381 0600     		.2byte	0x6
 13925 0383 F3       		.byte	0xf3
 13926 0384 01       		.uleb128 0x1
 13927 0385 51       		.byte	0x51
 13928 0386 31       		.byte	0x31
 13929 0387 1C       		.byte	0x1c
 13930 0388 9F       		.byte	0x9f
 13931 0389 00000000 		.4byte	0
 13932 038d 00000000 		.4byte	0
 13933              	.LLST23:
 13934 0391 00000000 		.4byte	.LVL121
 13935 0395 02000000 		.4byte	.LVL122
 13936 0399 0100     		.2byte	0x1
 13937 039b 50       		.byte	0x50
 13938 039c 02000000 		.4byte	.LVL122
 13939 03a0 04000000 		.4byte	.LVL123
 13940 03a4 0400     		.2byte	0x4
 13941 03a6 F3       		.byte	0xf3
 13942 03a7 01       		.uleb128 0x1
 13943 03a8 50       		.byte	0x50
 13944 03a9 9F       		.byte	0x9f
 13945 03aa 04000000 		.4byte	.LVL123
 13946 03ae 26000000 		.4byte	.LVL128
 13947 03b2 0100     		.2byte	0x1
 13948 03b4 50       		.byte	0x50
 13949 03b5 30000000 		.4byte	.LVL130
 13950 03b9 32000000 		.4byte	.LFE74
 13951 03bd 0100     		.2byte	0x1
 13952 03bf 50       		.byte	0x50
 13953 03c0 00000000 		.4byte	0
 13954 03c4 00000000 		.4byte	0
 13955              	.LLST24:
 13956 03c8 00000000 		.4byte	.LVL121
 13957 03cc 04000000 		.4byte	.LVL123
 13958 03d0 0100     		.2byte	0x1
 13959 03d2 51       		.byte	0x51
 13960 03d3 04000000 		.4byte	.LVL123
 13961 03d7 2D000000 		.4byte	.LVL129-1
 13962 03db 0300     		.2byte	0x3
 13963 03dd 71       		.byte	0x71
 13964 03de 7F       		.sleb128 -1
 13965 03df 9F       		.byte	0x9f
 13966 03e0 2D000000 		.4byte	.LVL129-1
 13967 03e4 30000000 		.4byte	.LVL130
 13968 03e8 0600     		.2byte	0x6
 13969 03ea F3       		.byte	0xf3
 13970 03eb 01       		.uleb128 0x1
 13971 03ec 51       		.byte	0x51
ARM GAS  C:\Users\FRANKL~1\AppData\Local\Temp\ccnobXgu.s 			page 280


 13972 03ed 31       		.byte	0x31
 13973 03ee 1C       		.byte	0x1c
 13974 03ef 9F       		.byte	0x9f
 13975 03f0 30000000 		.4byte	.LVL130
 13976 03f4 32000000 		.4byte	.LFE74
 13977 03f8 0300     		.2byte	0x3
 13978 03fa 71       		.byte	0x71
 13979 03fb 7F       		.sleb128 -1
 13980 03fc 9F       		.byte	0x9f
 13981 03fd 00000000 		.4byte	0
 13982 0401 00000000 		.4byte	0
 13983              	.LLST25:
 13984 0405 12000000 		.4byte	.LVL124
 13985 0409 16000000 		.4byte	.LVL125
 13986 040d 0200     		.2byte	0x2
 13987 040f 30       		.byte	0x30
 13988 0410 9F       		.byte	0x9f
 13989 0411 16000000 		.4byte	.LVL125
 13990 0415 1E000000 		.4byte	.LVL126
 13991 0419 0300     		.2byte	0x3
 13992 041b 08       		.byte	0x8
 13993 041c 20       		.byte	0x20
 13994 041d 9F       		.byte	0x9f
 13995 041e 1E000000 		.4byte	.LVL126
 13996 0422 24000000 		.4byte	.LVL127
 13997 0426 0200     		.2byte	0x2
 13998 0428 30       		.byte	0x30
 13999 0429 9F       		.byte	0x9f
 14000 042a 24000000 		.4byte	.LVL127
 14001 042e 2D000000 		.4byte	.LVL129-1
 14002 0432 0100     		.2byte	0x1
 14003 0434 53       		.byte	0x53
 14004 0435 00000000 		.4byte	0
 14005 0439 00000000 		.4byte	0
 14006              	.LLST26:
 14007 043d 00000000 		.4byte	.LVL131
 14008 0441 04000000 		.4byte	.LVL132
 14009 0445 0100     		.2byte	0x1
 14010 0447 50       		.byte	0x50
 14011 0448 04000000 		.4byte	.LVL132
 14012 044c 06000000 		.4byte	.LVL133
 14013 0450 0400     		.2byte	0x4
 14014 0452 F3       		.byte	0xf3
 14015 0453 01       		.uleb128 0x1
 14016 0454 50       		.byte	0x50
 14017 0455 9F       		.byte	0x9f
 14018 0456 06000000 		.4byte	.LVL133
 14019 045a 26000000 		.4byte	.LVL139
 14020 045e 0100     		.2byte	0x1
 14021 0460 53       		.byte	0x53
 14022 0461 00000000 		.4byte	0
 14023 0465 00000000 		.4byte	0
 14024              	.LLST27:
 14025 0469 00000000 		.4byte	.LVL131
 14026 046d 06000000 		.4byte	.LVL133
 14027 0471 0100     		.2byte	0x1
 14028 0473 51       		.byte	0x51
ARM GAS  C:\Users\FRANKL~1\AppData\Local\Temp\ccnobXgu.s 			page 281


 14029 0474 06000000 		.4byte	.LVL133
 14030 0478 0C000000 		.4byte	.LVL134
 14031 047c 0300     		.2byte	0x3
 14032 047e 71       		.byte	0x71
 14033 047f 7F       		.sleb128 -1
 14034 0480 9F       		.byte	0x9f
 14035 0481 0C000000 		.4byte	.LVL134
 14036 0485 40000000 		.4byte	.LFE75
 14037 0489 0600     		.2byte	0x6
 14038 048b F3       		.byte	0xf3
 14039 048c 01       		.uleb128 0x1
 14040 048d 51       		.byte	0x51
 14041 048e 31       		.byte	0x31
 14042 048f 1C       		.byte	0x1c
 14043 0490 9F       		.byte	0x9f
 14044 0491 00000000 		.4byte	0
 14045 0495 00000000 		.4byte	0
 14046              	.LLST28:
 14047 0499 12000000 		.4byte	.LVL135
 14048 049d 16000000 		.4byte	.LVL136
 14049 04a1 0200     		.2byte	0x2
 14050 04a3 30       		.byte	0x30
 14051 04a4 9F       		.byte	0x9f
 14052 04a5 16000000 		.4byte	.LVL136
 14053 04a9 1E000000 		.4byte	.LVL137
 14054 04ad 0300     		.2byte	0x3
 14055 04af 08       		.byte	0x8
 14056 04b0 20       		.byte	0x20
 14057 04b1 9F       		.byte	0x9f
 14058 04b2 1E000000 		.4byte	.LVL137
 14059 04b6 24000000 		.4byte	.LVL138
 14060 04ba 0200     		.2byte	0x2
 14061 04bc 30       		.byte	0x30
 14062 04bd 9F       		.byte	0x9f
 14063 04be 24000000 		.4byte	.LVL138
 14064 04c2 2A000000 		.4byte	.LVL140
 14065 04c6 0100     		.2byte	0x1
 14066 04c8 52       		.byte	0x52
 14067 04c9 00000000 		.4byte	0
 14068 04cd 00000000 		.4byte	0
 14069              	.LLST29:
 14070 04d1 00000000 		.4byte	.LVL142
 14071 04d5 04000000 		.4byte	.LVL143
 14072 04d9 0100     		.2byte	0x1
 14073 04db 50       		.byte	0x50
 14074 04dc 04000000 		.4byte	.LVL143
 14075 04e0 06000000 		.4byte	.LVL144
 14076 04e4 0400     		.2byte	0x4
 14077 04e6 F3       		.byte	0xf3
 14078 04e7 01       		.uleb128 0x1
 14079 04e8 50       		.byte	0x50
 14080 04e9 9F       		.byte	0x9f
 14081 04ea 06000000 		.4byte	.LVL144
 14082 04ee 3C000000 		.4byte	.LVL153
 14083 04f2 0100     		.2byte	0x1
 14084 04f4 55       		.byte	0x55
 14085 04f5 00000000 		.4byte	0
ARM GAS  C:\Users\FRANKL~1\AppData\Local\Temp\ccnobXgu.s 			page 282


 14086 04f9 00000000 		.4byte	0
 14087              	.LLST30:
 14088 04fd 06000000 		.4byte	.LVL144
 14089 0501 0A000000 		.4byte	.LVL145
 14090 0505 0200     		.2byte	0x2
 14091 0507 30       		.byte	0x30
 14092 0508 9F       		.byte	0x9f
 14093 0509 0A000000 		.4byte	.LVL145
 14094 050d 34000000 		.4byte	.LVL151
 14095 0511 0100     		.2byte	0x1
 14096 0513 54       		.byte	0x54
 14097 0514 36000000 		.4byte	.LVL152
 14098 0518 3C000000 		.4byte	.LVL153
 14099 051c 0100     		.2byte	0x1
 14100 051e 54       		.byte	0x54
 14101 051f 00000000 		.4byte	0
 14102 0523 00000000 		.4byte	0
 14103              	.LLST31:
 14104 0527 0A000000 		.4byte	.LVL145
 14105 052b 0E000000 		.4byte	.LVL146
 14106 052f 0200     		.2byte	0x2
 14107 0531 30       		.byte	0x30
 14108 0532 9F       		.byte	0x9f
 14109 0533 0E000000 		.4byte	.LVL146
 14110 0537 16000000 		.4byte	.LVL147
 14111 053b 0300     		.2byte	0x3
 14112 053d 08       		.byte	0x8
 14113 053e 20       		.byte	0x20
 14114 053f 9F       		.byte	0x9f
 14115 0540 16000000 		.4byte	.LVL147
 14116 0544 1C000000 		.4byte	.LVL148
 14117 0548 0200     		.2byte	0x2
 14118 054a 30       		.byte	0x30
 14119 054b 9F       		.byte	0x9f
 14120 054c 1C000000 		.4byte	.LVL148
 14121 0550 22000000 		.4byte	.LVL149
 14122 0554 0100     		.2byte	0x1
 14123 0556 53       		.byte	0x53
 14124 0557 00000000 		.4byte	0
 14125 055b 00000000 		.4byte	0
 14126              	.LLST32:
 14127 055f 02000000 		.4byte	.LVL154
 14128 0563 06000000 		.4byte	.LVL155
 14129 0567 0200     		.2byte	0x2
 14130 0569 30       		.byte	0x30
 14131 056a 9F       		.byte	0x9f
 14132 056b 06000000 		.4byte	.LVL155
 14133 056f 28000000 		.4byte	.LVL161
 14134 0573 0100     		.2byte	0x1
 14135 0575 54       		.byte	0x54
 14136 0576 2A000000 		.4byte	.LVL162
 14137 057a 30000000 		.4byte	.LVL163
 14138 057e 0100     		.2byte	0x1
 14139 0580 54       		.byte	0x54
 14140 0581 00000000 		.4byte	0
 14141 0585 00000000 		.4byte	0
 14142              	.LLST33:
ARM GAS  C:\Users\FRANKL~1\AppData\Local\Temp\ccnobXgu.s 			page 283


 14143 0589 06000000 		.4byte	.LVL155
 14144 058d 16000000 		.4byte	.LVL156
 14145 0591 0100     		.2byte	0x1
 14146 0593 53       		.byte	0x53
 14147 0594 18000000 		.4byte	.LVL157
 14148 0598 1A000000 		.4byte	.LVL158
 14149 059c 0100     		.2byte	0x1
 14150 059e 53       		.byte	0x53
 14151 059f 1C000000 		.4byte	.LVL159
 14152 05a3 25000000 		.4byte	.LVL160-1
 14153 05a7 0100     		.2byte	0x1
 14154 05a9 53       		.byte	0x53
 14155 05aa 00000000 		.4byte	0
 14156 05ae 00000000 		.4byte	0
 14157              	.LLST34:
 14158 05b2 00000000 		.4byte	.LVL164
 14159 05b6 04000000 		.4byte	.LVL165
 14160 05ba 0100     		.2byte	0x1
 14161 05bc 50       		.byte	0x50
 14162 05bd 04000000 		.4byte	.LVL165
 14163 05c1 06000000 		.4byte	.LVL166
 14164 05c5 0400     		.2byte	0x4
 14165 05c7 F3       		.byte	0xf3
 14166 05c8 01       		.uleb128 0x1
 14167 05c9 50       		.byte	0x50
 14168 05ca 9F       		.byte	0x9f
 14169 05cb 06000000 		.4byte	.LVL166
 14170 05cf 23000000 		.4byte	.LVL170-1
 14171 05d3 0100     		.2byte	0x1
 14172 05d5 50       		.byte	0x50
 14173 05d6 00000000 		.4byte	0
 14174 05da 00000000 		.4byte	0
 14175              	.LLST35:
 14176 05de 06000000 		.4byte	.LVL166
 14177 05e2 0A000000 		.4byte	.LVL167
 14178 05e6 0200     		.2byte	0x2
 14179 05e8 30       		.byte	0x30
 14180 05e9 9F       		.byte	0x9f
 14181 05ea 0A000000 		.4byte	.LVL167
 14182 05ee 1A000000 		.4byte	.LVL168
 14183 05f2 0100     		.2byte	0x1
 14184 05f4 53       		.byte	0x53
 14185 05f5 1C000000 		.4byte	.LVL169
 14186 05f9 23000000 		.4byte	.LVL170-1
 14187 05fd 0100     		.2byte	0x1
 14188 05ff 53       		.byte	0x53
 14189 0600 00000000 		.4byte	0
 14190 0604 00000000 		.4byte	0
 14191              	.LLST36:
 14192 0608 00000000 		.4byte	.LVL171
 14193 060c 04000000 		.4byte	.LVL172
 14194 0610 0100     		.2byte	0x1
 14195 0612 50       		.byte	0x50
 14196 0613 04000000 		.4byte	.LVL172
 14197 0617 38000000 		.4byte	.LFE79
 14198 061b 0400     		.2byte	0x4
 14199 061d F3       		.byte	0xf3
ARM GAS  C:\Users\FRANKL~1\AppData\Local\Temp\ccnobXgu.s 			page 284


 14200 061e 01       		.uleb128 0x1
 14201 061f 50       		.byte	0x50
 14202 0620 9F       		.byte	0x9f
 14203 0621 00000000 		.4byte	0
 14204 0625 00000000 		.4byte	0
 14205              	.LLST37:
 14206 0629 02000000 		.4byte	.LVL177
 14207 062d 06000000 		.4byte	.LVL178
 14208 0631 0200     		.2byte	0x2
 14209 0633 31       		.byte	0x31
 14210 0634 9F       		.byte	0x9f
 14211 0635 06000000 		.4byte	.LVL178
 14212 0639 0E000000 		.4byte	.LVL180
 14213 063d 0100     		.2byte	0x1
 14214 063f 54       		.byte	0x54
 14215 0640 10000000 		.4byte	.LVL181
 14216 0644 16000000 		.4byte	.LFE80
 14217 0648 0100     		.2byte	0x1
 14218 064a 54       		.byte	0x54
 14219 064b 00000000 		.4byte	0
 14220 064f 00000000 		.4byte	0
 14221              	.LLST38:
 14222 0653 00000000 		.4byte	.LVL182
 14223 0657 16000000 		.4byte	.LVL184
 14224 065b 0100     		.2byte	0x1
 14225 065d 50       		.byte	0x50
 14226 065e 16000000 		.4byte	.LVL184
 14227 0662 B2000000 		.4byte	.LVL212
 14228 0666 0200     		.2byte	0x2
 14229 0668 7D       		.byte	0x7d
 14230 0669 00       		.sleb128 0
 14231 066a B2000000 		.4byte	.LVL212
 14232 066e B6000000 		.4byte	.LFE81
 14233 0672 0200     		.2byte	0x2
 14234 0674 91       		.byte	0x91
 14235 0675 50       		.sleb128 -48
 14236 0676 00000000 		.4byte	0
 14237 067a 00000000 		.4byte	0
 14238              	.LLST39:
 14239 067e 00000000 		.4byte	.LVL182
 14240 0682 16000000 		.4byte	.LVL184
 14241 0686 0100     		.2byte	0x1
 14242 0688 51       		.byte	0x51
 14243 0689 16000000 		.4byte	.LVL184
 14244 068d B6000000 		.4byte	.LFE81
 14245 0691 0200     		.2byte	0x2
 14246 0693 91       		.byte	0x91
 14247 0694 54       		.sleb128 -44
 14248 0695 00000000 		.4byte	0
 14249 0699 00000000 		.4byte	0
 14250              	.LLST40:
 14251 069d 00000000 		.4byte	.LVL182
 14252 06a1 16000000 		.4byte	.LVL184
 14253 06a5 0100     		.2byte	0x1
 14254 06a7 52       		.byte	0x52
 14255 06a8 16000000 		.4byte	.LVL184
 14256 06ac B6000000 		.4byte	.LFE81
ARM GAS  C:\Users\FRANKL~1\AppData\Local\Temp\ccnobXgu.s 			page 285


 14257 06b0 0100     		.2byte	0x1
 14258 06b2 5B       		.byte	0x5b
 14259 06b3 00000000 		.4byte	0
 14260 06b7 00000000 		.4byte	0
 14261              	.LLST41:
 14262 06bb 0C000000 		.4byte	.LVL183
 14263 06bf 16000000 		.4byte	.LVL184
 14264 06c3 0200     		.2byte	0x2
 14265 06c5 30       		.byte	0x30
 14266 06c6 9F       		.byte	0x9f
 14267 06c7 16000000 		.4byte	.LVL184
 14268 06cb 84000000 		.4byte	.LVL205
 14269 06cf 0100     		.2byte	0x1
 14270 06d1 55       		.byte	0x55
 14271 06d2 A0000000 		.4byte	.LVL210
 14272 06d6 A2000000 		.4byte	.LVL211
 14273 06da 0100     		.2byte	0x1
 14274 06dc 50       		.byte	0x50
 14275 06dd A2000000 		.4byte	.LVL211
 14276 06e1 B6000000 		.4byte	.LFE81
 14277 06e5 0100     		.2byte	0x1
 14278 06e7 55       		.byte	0x55
 14279 06e8 00000000 		.4byte	0
 14280 06ec 00000000 		.4byte	0
 14281              	.LLST42:
 14282 06f0 0C000000 		.4byte	.LVL183
 14283 06f4 16000000 		.4byte	.LVL184
 14284 06f8 0200     		.2byte	0x2
 14285 06fa 30       		.byte	0x30
 14286 06fb 9F       		.byte	0x9f
 14287 06fc 16000000 		.4byte	.LVL184
 14288 0700 74000000 		.4byte	.LVL200
 14289 0704 0100     		.2byte	0x1
 14290 0706 59       		.byte	0x59
 14291 0707 74000000 		.4byte	.LVL200
 14292 070b 76000000 		.4byte	.LVL201
 14293 070f 0100     		.2byte	0x1
 14294 0711 50       		.byte	0x50
 14295 0712 76000000 		.4byte	.LVL201
 14296 0716 B6000000 		.4byte	.LFE81
 14297 071a 0100     		.2byte	0x1
 14298 071c 59       		.byte	0x59
 14299 071d 00000000 		.4byte	0
 14300 0721 00000000 		.4byte	0
 14301              	.LLST43:
 14302 0725 0C000000 		.4byte	.LVL183
 14303 0729 16000000 		.4byte	.LVL184
 14304 072d 0200     		.2byte	0x2
 14305 072f 31       		.byte	0x31
 14306 0730 9F       		.byte	0x9f
 14307 0731 16000000 		.4byte	.LVL184
 14308 0735 B6000000 		.4byte	.LFE81
 14309 0739 0100     		.2byte	0x1
 14310 073b 54       		.byte	0x54
 14311 073c 00000000 		.4byte	0
 14312 0740 00000000 		.4byte	0
 14313              	.LLST44:
ARM GAS  C:\Users\FRANKL~1\AppData\Local\Temp\ccnobXgu.s 			page 286


 14314 0744 2E000000 		.4byte	.LVL189
 14315 0748 30000000 		.4byte	.LVL190
 14316 074c 0100     		.2byte	0x1
 14317 074e 50       		.byte	0x50
 14318 074f 30000000 		.4byte	.LVL190
 14319 0753 7C000000 		.4byte	.LVL203
 14320 0757 0100     		.2byte	0x1
 14321 0759 57       		.byte	0x57
 14322 075a 00000000 		.4byte	0
 14323 075e 00000000 		.4byte	0
 14324              	.LLST45:
 14325 0762 00000000 		.4byte	.LVL213
 14326 0766 16000000 		.4byte	.LVL215
 14327 076a 0100     		.2byte	0x1
 14328 076c 50       		.byte	0x50
 14329 076d 16000000 		.4byte	.LVL215
 14330 0771 B2000000 		.4byte	.LVL243
 14331 0775 0200     		.2byte	0x2
 14332 0777 7D       		.byte	0x7d
 14333 0778 00       		.sleb128 0
 14334 0779 B2000000 		.4byte	.LVL243
 14335 077d B6000000 		.4byte	.LFE82
 14336 0781 0200     		.2byte	0x2
 14337 0783 91       		.byte	0x91
 14338 0784 50       		.sleb128 -48
 14339 0785 00000000 		.4byte	0
 14340 0789 00000000 		.4byte	0
 14341              	.LLST46:
 14342 078d 00000000 		.4byte	.LVL213
 14343 0791 16000000 		.4byte	.LVL215
 14344 0795 0100     		.2byte	0x1
 14345 0797 51       		.byte	0x51
 14346 0798 16000000 		.4byte	.LVL215
 14347 079c B6000000 		.4byte	.LFE82
 14348 07a0 0200     		.2byte	0x2
 14349 07a2 91       		.byte	0x91
 14350 07a3 54       		.sleb128 -44
 14351 07a4 00000000 		.4byte	0
 14352 07a8 00000000 		.4byte	0
 14353              	.LLST47:
 14354 07ac 00000000 		.4byte	.LVL213
 14355 07b0 16000000 		.4byte	.LVL215
 14356 07b4 0100     		.2byte	0x1
 14357 07b6 52       		.byte	0x52
 14358 07b7 16000000 		.4byte	.LVL215
 14359 07bb B6000000 		.4byte	.LFE82
 14360 07bf 0100     		.2byte	0x1
 14361 07c1 5B       		.byte	0x5b
 14362 07c2 00000000 		.4byte	0
 14363 07c6 00000000 		.4byte	0
 14364              	.LLST48:
 14365 07ca 0C000000 		.4byte	.LVL214
 14366 07ce 16000000 		.4byte	.LVL215
 14367 07d2 0200     		.2byte	0x2
 14368 07d4 30       		.byte	0x30
 14369 07d5 9F       		.byte	0x9f
 14370 07d6 16000000 		.4byte	.LVL215
ARM GAS  C:\Users\FRANKL~1\AppData\Local\Temp\ccnobXgu.s 			page 287


 14371 07da 84000000 		.4byte	.LVL236
 14372 07de 0100     		.2byte	0x1
 14373 07e0 55       		.byte	0x55
 14374 07e1 A0000000 		.4byte	.LVL241
 14375 07e5 A2000000 		.4byte	.LVL242
 14376 07e9 0100     		.2byte	0x1
 14377 07eb 50       		.byte	0x50
 14378 07ec A2000000 		.4byte	.LVL242
 14379 07f0 B6000000 		.4byte	.LFE82
 14380 07f4 0100     		.2byte	0x1
 14381 07f6 55       		.byte	0x55
 14382 07f7 00000000 		.4byte	0
 14383 07fb 00000000 		.4byte	0
 14384              	.LLST49:
 14385 07ff 0C000000 		.4byte	.LVL214
 14386 0803 16000000 		.4byte	.LVL215
 14387 0807 0200     		.2byte	0x2
 14388 0809 30       		.byte	0x30
 14389 080a 9F       		.byte	0x9f
 14390 080b 16000000 		.4byte	.LVL215
 14391 080f 74000000 		.4byte	.LVL231
 14392 0813 0100     		.2byte	0x1
 14393 0815 59       		.byte	0x59
 14394 0816 74000000 		.4byte	.LVL231
 14395 081a 76000000 		.4byte	.LVL232
 14396 081e 0100     		.2byte	0x1
 14397 0820 50       		.byte	0x50
 14398 0821 76000000 		.4byte	.LVL232
 14399 0825 B6000000 		.4byte	.LFE82
 14400 0829 0100     		.2byte	0x1
 14401 082b 59       		.byte	0x59
 14402 082c 00000000 		.4byte	0
 14403 0830 00000000 		.4byte	0
 14404              	.LLST50:
 14405 0834 0C000000 		.4byte	.LVL214
 14406 0838 16000000 		.4byte	.LVL215
 14407 083c 0200     		.2byte	0x2
 14408 083e 31       		.byte	0x31
 14409 083f 9F       		.byte	0x9f
 14410 0840 16000000 		.4byte	.LVL215
 14411 0844 B6000000 		.4byte	.LFE82
 14412 0848 0100     		.2byte	0x1
 14413 084a 54       		.byte	0x54
 14414 084b 00000000 		.4byte	0
 14415 084f 00000000 		.4byte	0
 14416              	.LLST51:
 14417 0853 2E000000 		.4byte	.LVL220
 14418 0857 30000000 		.4byte	.LVL221
 14419 085b 0100     		.2byte	0x1
 14420 085d 50       		.byte	0x50
 14421 085e 30000000 		.4byte	.LVL221
 14422 0862 7C000000 		.4byte	.LVL234
 14423 0866 0100     		.2byte	0x1
 14424 0868 57       		.byte	0x57
 14425 0869 00000000 		.4byte	0
 14426 086d 00000000 		.4byte	0
 14427              	.LLST52:
ARM GAS  C:\Users\FRANKL~1\AppData\Local\Temp\ccnobXgu.s 			page 288


 14428 0871 00000000 		.4byte	.LVL244
 14429 0875 16000000 		.4byte	.LVL246
 14430 0879 0100     		.2byte	0x1
 14431 087b 50       		.byte	0x50
 14432 087c 16000000 		.4byte	.LVL246
 14433 0880 B2000000 		.4byte	.LVL274
 14434 0884 0200     		.2byte	0x2
 14435 0886 7D       		.byte	0x7d
 14436 0887 00       		.sleb128 0
 14437 0888 B2000000 		.4byte	.LVL274
 14438 088c B6000000 		.4byte	.LFE83
 14439 0890 0200     		.2byte	0x2
 14440 0892 91       		.byte	0x91
 14441 0893 50       		.sleb128 -48
 14442 0894 00000000 		.4byte	0
 14443 0898 00000000 		.4byte	0
 14444              	.LLST53:
 14445 089c 00000000 		.4byte	.LVL244
 14446 08a0 16000000 		.4byte	.LVL246
 14447 08a4 0100     		.2byte	0x1
 14448 08a6 51       		.byte	0x51
 14449 08a7 16000000 		.4byte	.LVL246
 14450 08ab B6000000 		.4byte	.LFE83
 14451 08af 0200     		.2byte	0x2
 14452 08b1 91       		.byte	0x91
 14453 08b2 54       		.sleb128 -44
 14454 08b3 00000000 		.4byte	0
 14455 08b7 00000000 		.4byte	0
 14456              	.LLST54:
 14457 08bb 00000000 		.4byte	.LVL244
 14458 08bf 16000000 		.4byte	.LVL246
 14459 08c3 0100     		.2byte	0x1
 14460 08c5 52       		.byte	0x52
 14461 08c6 16000000 		.4byte	.LVL246
 14462 08ca B6000000 		.4byte	.LFE83
 14463 08ce 0100     		.2byte	0x1
 14464 08d0 5B       		.byte	0x5b
 14465 08d1 00000000 		.4byte	0
 14466 08d5 00000000 		.4byte	0
 14467              	.LLST55:
 14468 08d9 0C000000 		.4byte	.LVL245
 14469 08dd 16000000 		.4byte	.LVL246
 14470 08e1 0200     		.2byte	0x2
 14471 08e3 30       		.byte	0x30
 14472 08e4 9F       		.byte	0x9f
 14473 08e5 16000000 		.4byte	.LVL246
 14474 08e9 84000000 		.4byte	.LVL267
 14475 08ed 0100     		.2byte	0x1
 14476 08ef 55       		.byte	0x55
 14477 08f0 A0000000 		.4byte	.LVL272
 14478 08f4 A2000000 		.4byte	.LVL273
 14479 08f8 0100     		.2byte	0x1
 14480 08fa 50       		.byte	0x50
 14481 08fb A2000000 		.4byte	.LVL273
 14482 08ff B6000000 		.4byte	.LFE83
 14483 0903 0100     		.2byte	0x1
 14484 0905 55       		.byte	0x55
ARM GAS  C:\Users\FRANKL~1\AppData\Local\Temp\ccnobXgu.s 			page 289


 14485 0906 00000000 		.4byte	0
 14486 090a 00000000 		.4byte	0
 14487              	.LLST56:
 14488 090e 0C000000 		.4byte	.LVL245
 14489 0912 16000000 		.4byte	.LVL246
 14490 0916 0200     		.2byte	0x2
 14491 0918 30       		.byte	0x30
 14492 0919 9F       		.byte	0x9f
 14493 091a 16000000 		.4byte	.LVL246
 14494 091e 74000000 		.4byte	.LVL262
 14495 0922 0100     		.2byte	0x1
 14496 0924 59       		.byte	0x59
 14497 0925 74000000 		.4byte	.LVL262
 14498 0929 76000000 		.4byte	.LVL263
 14499 092d 0100     		.2byte	0x1
 14500 092f 50       		.byte	0x50
 14501 0930 76000000 		.4byte	.LVL263
 14502 0934 B6000000 		.4byte	.LFE83
 14503 0938 0100     		.2byte	0x1
 14504 093a 59       		.byte	0x59
 14505 093b 00000000 		.4byte	0
 14506 093f 00000000 		.4byte	0
 14507              	.LLST57:
 14508 0943 0C000000 		.4byte	.LVL245
 14509 0947 16000000 		.4byte	.LVL246
 14510 094b 0200     		.2byte	0x2
 14511 094d 31       		.byte	0x31
 14512 094e 9F       		.byte	0x9f
 14513 094f 16000000 		.4byte	.LVL246
 14514 0953 B6000000 		.4byte	.LFE83
 14515 0957 0100     		.2byte	0x1
 14516 0959 54       		.byte	0x54
 14517 095a 00000000 		.4byte	0
 14518 095e 00000000 		.4byte	0
 14519              	.LLST58:
 14520 0962 2E000000 		.4byte	.LVL251
 14521 0966 30000000 		.4byte	.LVL252
 14522 096a 0100     		.2byte	0x1
 14523 096c 50       		.byte	0x50
 14524 096d 30000000 		.4byte	.LVL252
 14525 0971 7C000000 		.4byte	.LVL265
 14526 0975 0100     		.2byte	0x1
 14527 0977 57       		.byte	0x57
 14528 0978 00000000 		.4byte	0
 14529 097c 00000000 		.4byte	0
 14530              	.LLST59:
 14531 0980 00000000 		.4byte	.LVL275
 14532 0984 1E000000 		.4byte	.LVL279
 14533 0988 0100     		.2byte	0x1
 14534 098a 50       		.byte	0x50
 14535 098b 1E000000 		.4byte	.LVL279
 14536 098f FE000000 		.4byte	.LVL307
 14537 0993 0200     		.2byte	0x2
 14538 0995 91       		.byte	0x91
 14539 0996 48       		.sleb128 -56
 14540 0997 FE000000 		.4byte	.LVL307
 14541 099b 14010000 		.4byte	.LFE84
ARM GAS  C:\Users\FRANKL~1\AppData\Local\Temp\ccnobXgu.s 			page 290


 14542 099f 0200     		.2byte	0x2
 14543 09a1 7D       		.byte	0x7d
 14544 09a2 48       		.sleb128 -56
 14545 09a3 00000000 		.4byte	0
 14546 09a7 00000000 		.4byte	0
 14547              	.LLST60:
 14548 09ab 00000000 		.4byte	.LVL275
 14549 09af 16000000 		.4byte	.LVL277
 14550 09b3 0100     		.2byte	0x1
 14551 09b5 51       		.byte	0x51
 14552 09b6 16000000 		.4byte	.LVL277
 14553 09ba FE000000 		.4byte	.LVL307
 14554 09be 0200     		.2byte	0x2
 14555 09c0 91       		.byte	0x91
 14556 09c1 4C       		.sleb128 -52
 14557 09c2 FE000000 		.4byte	.LVL307
 14558 09c6 14010000 		.4byte	.LFE84
 14559 09ca 0200     		.2byte	0x2
 14560 09cc 7D       		.byte	0x7d
 14561 09cd 4C       		.sleb128 -52
 14562 09ce 00000000 		.4byte	0
 14563 09d2 00000000 		.4byte	0
 14564              	.LLST61:
 14565 09d6 00000000 		.4byte	.LVL275
 14566 09da 10000000 		.4byte	.LVL276
 14567 09de 0100     		.2byte	0x1
 14568 09e0 52       		.byte	0x52
 14569 09e1 10000000 		.4byte	.LVL276
 14570 09e5 FE000000 		.4byte	.LVL307
 14571 09e9 0100     		.2byte	0x1
 14572 09eb 5B       		.byte	0x5b
 14573 09ec FE000000 		.4byte	.LVL307
 14574 09f0 14010000 		.4byte	.LFE84
 14575 09f4 0400     		.2byte	0x4
 14576 09f6 F3       		.byte	0xf3
 14577 09f7 01       		.uleb128 0x1
 14578 09f8 52       		.byte	0x52
 14579 09f9 9F       		.byte	0x9f
 14580 09fa 00000000 		.4byte	0
 14581 09fe 00000000 		.4byte	0
 14582              	.LLST62:
 14583 0a02 1A000000 		.4byte	.LVL278
 14584 0a06 2C000000 		.4byte	.LVL281
 14585 0a0a 0600     		.2byte	0x6
 14586 0a0c 9E       		.byte	0x9e
 14587 0a0d 04       		.uleb128 0x4
 14588 0a0e 00000000 		.4byte	0
 14589 0a12 44000000 		.4byte	.LVL285
 14590 0a16 47000000 		.4byte	.LVL286-1
 14591 0a1a 0100     		.2byte	0x1
 14592 0a1c 50       		.byte	0x50
 14593 0a1d 47000000 		.4byte	.LVL286-1
 14594 0a21 9C000000 		.4byte	.LVL294
 14595 0a25 0100     		.2byte	0x1
 14596 0a27 55       		.byte	0x55
 14597 0a28 00000000 		.4byte	0
 14598 0a2c 00000000 		.4byte	0
ARM GAS  C:\Users\FRANKL~1\AppData\Local\Temp\ccnobXgu.s 			page 291


 14599              	.LLST63:
 14600 0a30 1A000000 		.4byte	.LVL278
 14601 0a34 2C000000 		.4byte	.LVL281
 14602 0a38 0600     		.2byte	0x6
 14603 0a3a 9E       		.byte	0x9e
 14604 0a3b 04       		.uleb128 0x4
 14605 0a3c 00000000 		.4byte	0
 14606 0a40 2C000000 		.4byte	.LVL281
 14607 0a44 E6000000 		.4byte	.LVL305
 14608 0a48 0100     		.2byte	0x1
 14609 0a4a 59       		.byte	0x59
 14610 0a4b E6000000 		.4byte	.LVL305
 14611 0a4f E8000000 		.4byte	.LVL306
 14612 0a53 0100     		.2byte	0x1
 14613 0a55 50       		.byte	0x50
 14614 0a56 E8000000 		.4byte	.LVL306
 14615 0a5a FE000000 		.4byte	.LVL307
 14616 0a5e 0100     		.2byte	0x1
 14617 0a60 59       		.byte	0x59
 14618 0a61 00000000 		.4byte	0
 14619 0a65 00000000 		.4byte	0
 14620              	.LLST64:
 14621 0a69 1A000000 		.4byte	.LVL278
 14622 0a6d 2C000000 		.4byte	.LVL281
 14623 0a71 0600     		.2byte	0x6
 14624 0a73 9E       		.byte	0x9e
 14625 0a74 04       		.uleb128 0x4
 14626 0a75 00000000 		.4byte	0
 14627 0a79 2C000000 		.4byte	.LVL281
 14628 0a7d D4000000 		.4byte	.LVL301
 14629 0a81 0100     		.2byte	0x1
 14630 0a83 58       		.byte	0x58
 14631 0a84 D4000000 		.4byte	.LVL301
 14632 0a88 D8000000 		.4byte	.LVL302
 14633 0a8c 0100     		.2byte	0x1
 14634 0a8e 50       		.byte	0x50
 14635 0a8f D8000000 		.4byte	.LVL302
 14636 0a93 FE000000 		.4byte	.LVL307
 14637 0a97 0100     		.2byte	0x1
 14638 0a99 58       		.byte	0x58
 14639 0a9a FE000000 		.4byte	.LVL307
 14640 0a9e 14010000 		.4byte	.LFE84
 14641 0aa2 0200     		.2byte	0x2
 14642 0aa4 73       		.byte	0x73
 14643 0aa5 00       		.sleb128 0
 14644 0aa6 00000000 		.4byte	0
 14645 0aaa 00000000 		.4byte	0
 14646              	.LLST65:
 14647 0aae 22000000 		.4byte	.LVL280
 14648 0ab2 2C000000 		.4byte	.LVL281
 14649 0ab6 0200     		.2byte	0x2
 14650 0ab8 31       		.byte	0x31
 14651 0ab9 9F       		.byte	0x9f
 14652 0aba 2C000000 		.4byte	.LVL281
 14653 0abe FE000000 		.4byte	.LVL307
 14654 0ac2 0100     		.2byte	0x1
 14655 0ac4 54       		.byte	0x54
ARM GAS  C:\Users\FRANKL~1\AppData\Local\Temp\ccnobXgu.s 			page 292


 14656 0ac5 00000000 		.4byte	0
 14657 0ac9 00000000 		.4byte	0
 14658              	.LLST66:
 14659 0acd 08000000 		.4byte	.LVL312
 14660 0ad1 1C000000 		.4byte	.LVL315
 14661 0ad5 0100     		.2byte	0x1
 14662 0ad7 54       		.byte	0x54
 14663 0ad8 36000000 		.4byte	.LVL321
 14664 0adc 4A000000 		.4byte	.LVL325
 14665 0ae0 0100     		.2byte	0x1
 14666 0ae2 54       		.byte	0x54
 14667 0ae3 00000000 		.4byte	0
 14668 0ae7 00000000 		.4byte	0
 14669              	.LLST67:
 14670 0aeb 0E000000 		.4byte	.LVL313
 14671 0aef 3A000000 		.4byte	.LVL322
 14672 0af3 0100     		.2byte	0x1
 14673 0af5 55       		.byte	0x55
 14674 0af6 3C000000 		.4byte	.LVL323
 14675 0afa 60000000 		.4byte	.LVL331
 14676 0afe 0100     		.2byte	0x1
 14677 0b00 55       		.byte	0x55
 14678 0b01 00000000 		.4byte	0
 14679 0b05 00000000 		.4byte	0
 14680              	.LLST68:
 14681 0b09 0E000000 		.4byte	.LVL313
 14682 0b0d 1A000000 		.4byte	.LVL314
 14683 0b11 0200     		.2byte	0x2
 14684 0b13 31       		.byte	0x31
 14685 0b14 9F       		.byte	0x9f
 14686 0b15 1A000000 		.4byte	.LVL314
 14687 0b19 1C000000 		.4byte	.LVL315
 14688 0b1d 0100     		.2byte	0x1
 14689 0b1f 56       		.byte	0x56
 14690 0b20 3C000000 		.4byte	.LVL323
 14691 0b24 48000000 		.4byte	.LVL324
 14692 0b28 0200     		.2byte	0x2
 14693 0b2a 31       		.byte	0x31
 14694 0b2b 9F       		.byte	0x9f
 14695 0b2c 48000000 		.4byte	.LVL324
 14696 0b30 4A000000 		.4byte	.LVL325
 14697 0b34 0100     		.2byte	0x1
 14698 0b36 56       		.byte	0x56
 14699 0b37 00000000 		.4byte	0
 14700 0b3b 00000000 		.4byte	0
 14701              	.LLST69:
 14702 0b3f 1A000000 		.4byte	.LVL314
 14703 0b43 2A000000 		.4byte	.LVL318
 14704 0b47 0100     		.2byte	0x1
 14705 0b49 54       		.byte	0x54
 14706 0b4a 2C000000 		.4byte	.LVL319
 14707 0b4e 34000000 		.4byte	.LVL320
 14708 0b52 0100     		.2byte	0x1
 14709 0b54 54       		.byte	0x54
 14710 0b55 00000000 		.4byte	0
 14711 0b59 00000000 		.4byte	0
 14712              	.LLST70:
ARM GAS  C:\Users\FRANKL~1\AppData\Local\Temp\ccnobXgu.s 			page 293


 14713 0b5d 48000000 		.4byte	.LVL324
 14714 0b61 58000000 		.4byte	.LVL328
 14715 0b65 0100     		.2byte	0x1
 14716 0b67 54       		.byte	0x54
 14717 0b68 5A000000 		.4byte	.LVL329
 14718 0b6c 5E000000 		.4byte	.LVL330
 14719 0b70 0100     		.2byte	0x1
 14720 0b72 54       		.byte	0x54
 14721 0b73 00000000 		.4byte	0
 14722 0b77 00000000 		.4byte	0
 14723              	.LLST71:
 14724 0b7b 00000000 		.4byte	.LVL347
 14725 0b7f 26000000 		.4byte	.LVL350
 14726 0b83 0100     		.2byte	0x1
 14727 0b85 50       		.byte	0x50
 14728 0b86 26000000 		.4byte	.LVL350
 14729 0b8a 74000000 		.4byte	.LFE90
 14730 0b8e 0400     		.2byte	0x4
 14731 0b90 F3       		.byte	0xf3
 14732 0b91 01       		.uleb128 0x1
 14733 0b92 50       		.byte	0x50
 14734 0b93 9F       		.byte	0x9f
 14735 0b94 00000000 		.4byte	0
 14736 0b98 00000000 		.4byte	0
 14737              	.LLST72:
 14738 0b9c 16000000 		.4byte	.LVL348
 14739 0ba0 66000000 		.4byte	.LVL365
 14740 0ba4 0100     		.2byte	0x1
 14741 0ba6 55       		.byte	0x55
 14742 0ba7 00000000 		.4byte	0
 14743 0bab 00000000 		.4byte	0
 14744              	.LLST73:
 14745 0baf 16000000 		.4byte	.LVL348
 14746 0bb3 22000000 		.4byte	.LVL349
 14747 0bb7 0200     		.2byte	0x2
 14748 0bb9 31       		.byte	0x31
 14749 0bba 9F       		.byte	0x9f
 14750 0bbb 22000000 		.4byte	.LVL349
 14751 0bbf 66000000 		.4byte	.LVL365
 14752 0bc3 0100     		.2byte	0x1
 14753 0bc5 56       		.byte	0x56
 14754 0bc6 00000000 		.4byte	0
 14755 0bca 00000000 		.4byte	0
 14756              	.LLST74:
 14757 0bce 22000000 		.4byte	.LVL349
 14758 0bd2 26000000 		.4byte	.LVL350
 14759 0bd6 0200     		.2byte	0x2
 14760 0bd8 30       		.byte	0x30
 14761 0bd9 9F       		.byte	0x9f
 14762 0bda 26000000 		.4byte	.LVL350
 14763 0bde 5C000000 		.4byte	.LVL363
 14764 0be2 0100     		.2byte	0x1
 14765 0be4 57       		.byte	0x57
 14766 0be5 5E000000 		.4byte	.LVL364
 14767 0be9 66000000 		.4byte	.LVL365
 14768 0bed 0100     		.2byte	0x1
 14769 0bef 57       		.byte	0x57
ARM GAS  C:\Users\FRANKL~1\AppData\Local\Temp\ccnobXgu.s 			page 294


 14770 0bf0 00000000 		.4byte	0
 14771 0bf4 00000000 		.4byte	0
 14772              	.LLST75:
 14773 0bf8 2E000000 		.4byte	.LVL352
 14774 0bfc 3C000000 		.4byte	.LVL355
 14775 0c00 0100     		.2byte	0x1
 14776 0c02 54       		.byte	0x54
 14777 0c03 3E000000 		.4byte	.LVL356
 14778 0c07 40000000 		.4byte	.LVL357
 14779 0c0b 0100     		.2byte	0x1
 14780 0c0d 54       		.byte	0x54
 14781 0c0e 42000000 		.4byte	.LVL358
 14782 0c12 54000000 		.4byte	.LVL361
 14783 0c16 0100     		.2byte	0x1
 14784 0c18 54       		.byte	0x54
 14785 0c19 00000000 		.4byte	0
 14786 0c1d 00000000 		.4byte	0
 14787              	.LLST76:
 14788 0c21 00000000 		.4byte	.LVL366
 14789 0c25 26000000 		.4byte	.LVL370
 14790 0c29 0100     		.2byte	0x1
 14791 0c2b 50       		.byte	0x50
 14792 0c2c 26000000 		.4byte	.LVL370
 14793 0c30 74000000 		.4byte	.LFE91
 14794 0c34 0400     		.2byte	0x4
 14795 0c36 F3       		.byte	0xf3
 14796 0c37 01       		.uleb128 0x1
 14797 0c38 50       		.byte	0x50
 14798 0c39 9F       		.byte	0x9f
 14799 0c3a 00000000 		.4byte	0
 14800 0c3e 00000000 		.4byte	0
 14801              	.LLST77:
 14802 0c42 10000000 		.4byte	.LVL367
 14803 0c46 22000000 		.4byte	.LVL369
 14804 0c4a 0200     		.2byte	0x2
 14805 0c4c 31       		.byte	0x31
 14806 0c4d 9F       		.byte	0x9f
 14807 0c4e 22000000 		.4byte	.LVL369
 14808 0c52 66000000 		.4byte	.LVL385
 14809 0c56 0100     		.2byte	0x1
 14810 0c58 56       		.byte	0x56
 14811 0c59 00000000 		.4byte	0
 14812 0c5d 00000000 		.4byte	0
 14813              	.LLST78:
 14814 0c61 16000000 		.4byte	.LVL368
 14815 0c65 66000000 		.4byte	.LVL385
 14816 0c69 0100     		.2byte	0x1
 14817 0c6b 55       		.byte	0x55
 14818 0c6c 00000000 		.4byte	0
 14819 0c70 00000000 		.4byte	0
 14820              	.LLST79:
 14821 0c74 22000000 		.4byte	.LVL369
 14822 0c78 26000000 		.4byte	.LVL370
 14823 0c7c 0100     		.2byte	0x1
 14824 0c7e 55       		.byte	0x55
 14825 0c7f 26000000 		.4byte	.LVL370
 14826 0c83 5C000000 		.4byte	.LVL383
ARM GAS  C:\Users\FRANKL~1\AppData\Local\Temp\ccnobXgu.s 			page 295


 14827 0c87 0100     		.2byte	0x1
 14828 0c89 57       		.byte	0x57
 14829 0c8a 5E000000 		.4byte	.LVL384
 14830 0c8e 66000000 		.4byte	.LVL385
 14831 0c92 0100     		.2byte	0x1
 14832 0c94 57       		.byte	0x57
 14833 0c95 00000000 		.4byte	0
 14834 0c99 00000000 		.4byte	0
 14835              	.LLST80:
 14836 0c9d 2E000000 		.4byte	.LVL372
 14837 0ca1 3C000000 		.4byte	.LVL375
 14838 0ca5 0100     		.2byte	0x1
 14839 0ca7 54       		.byte	0x54
 14840 0ca8 3E000000 		.4byte	.LVL376
 14841 0cac 40000000 		.4byte	.LVL377
 14842 0cb0 0100     		.2byte	0x1
 14843 0cb2 54       		.byte	0x54
 14844 0cb3 42000000 		.4byte	.LVL378
 14845 0cb7 54000000 		.4byte	.LVL381
 14846 0cbb 0100     		.2byte	0x1
 14847 0cbd 54       		.byte	0x54
 14848 0cbe 00000000 		.4byte	0
 14849 0cc2 00000000 		.4byte	0
 14850              	.LLST81:
 14851 0cc6 00000000 		.4byte	.LVL386
 14852 0cca 0C000000 		.4byte	.LVL387
 14853 0cce 0100     		.2byte	0x1
 14854 0cd0 50       		.byte	0x50
 14855 0cd1 0C000000 		.4byte	.LVL387
 14856 0cd5 76000000 		.4byte	.LVL402
 14857 0cd9 0100     		.2byte	0x1
 14858 0cdb 57       		.byte	0x57
 14859 0cdc 00000000 		.4byte	0
 14860 0ce0 00000000 		.4byte	0
 14861              	.LLST82:
 14862 0ce4 0C000000 		.4byte	.LVL387
 14863 0ce8 20000000 		.4byte	.LVL388
 14864 0cec 0200     		.2byte	0x2
 14865 0cee 31       		.byte	0x31
 14866 0cef 9F       		.byte	0x9f
 14867 0cf0 20000000 		.4byte	.LVL388
 14868 0cf4 76000000 		.4byte	.LVL402
 14869 0cf8 0100     		.2byte	0x1
 14870 0cfa 58       		.byte	0x58
 14871 0cfb 00000000 		.4byte	0
 14872 0cff 00000000 		.4byte	0
 14873              	.LLST83:
 14874 0d03 26000000 		.4byte	.LVL389
 14875 0d07 6C000000 		.4byte	.LVL400
 14876 0d0b 0100     		.2byte	0x1
 14877 0d0d 56       		.byte	0x56
 14878 0d0e 6E000000 		.4byte	.LVL401
 14879 0d12 76000000 		.4byte	.LVL402
 14880 0d16 0100     		.2byte	0x1
 14881 0d18 56       		.byte	0x56
 14882 0d19 00000000 		.4byte	0
 14883 0d1d 00000000 		.4byte	0
ARM GAS  C:\Users\FRANKL~1\AppData\Local\Temp\ccnobXgu.s 			page 296


 14884              	.LLST84:
 14885 0d21 38000000 		.4byte	.LVL391
 14886 0d25 6E000000 		.4byte	.LVL401
 14887 0d29 0100     		.2byte	0x1
 14888 0d2b 55       		.byte	0x55
 14889 0d2c 00000000 		.4byte	0
 14890 0d30 00000000 		.4byte	0
 14891              	.LLST85:
 14892 0d34 40000000 		.4byte	.LVL392
 14893 0d38 6E000000 		.4byte	.LVL401
 14894 0d3c 0100     		.2byte	0x1
 14895 0d3e 54       		.byte	0x54
 14896 0d3f 00000000 		.4byte	0
 14897 0d43 00000000 		.4byte	0
 14898              	.LLST86:
 14899 0d47 00000000 		.4byte	.LVL403
 14900 0d4b 0A000000 		.4byte	.LVL404
 14901 0d4f 0100     		.2byte	0x1
 14902 0d51 50       		.byte	0x50
 14903 0d52 0A000000 		.4byte	.LVL404
 14904 0d56 BA000000 		.4byte	.LVL429
 14905 0d5a 0100     		.2byte	0x1
 14906 0d5c 54       		.byte	0x54
 14907 0d5d 00000000 		.4byte	0
 14908 0d61 00000000 		.4byte	0
 14909              	.LLST87:
 14910 0d65 20000000 		.4byte	.LVL406
 14911 0d69 26000000 		.4byte	.LVL407
 14912 0d6d 0100     		.2byte	0x1
 14913 0d6f 53       		.byte	0x53
 14914 0d70 26000000 		.4byte	.LVL407
 14915 0d74 2A000000 		.4byte	.LVL408
 14916 0d78 0100     		.2byte	0x1
 14917 0d7a 50       		.byte	0x50
 14918 0d7b 3A000000 		.4byte	.LVL411
 14919 0d7f 40000000 		.4byte	.LVL412
 14920 0d83 0100     		.2byte	0x1
 14921 0d85 53       		.byte	0x53
 14922 0d86 40000000 		.4byte	.LVL412
 14923 0d8a 44000000 		.4byte	.LVL413
 14924 0d8e 0100     		.2byte	0x1
 14925 0d90 50       		.byte	0x50
 14926 0d91 52000000 		.4byte	.LVL416
 14927 0d95 57000000 		.4byte	.LVL417-1
 14928 0d99 0100     		.2byte	0x1
 14929 0d9b 53       		.byte	0x53
 14930 0d9c 00000000 		.4byte	0
 14931 0da0 00000000 		.4byte	0
 14932              	.LLST88:
 14933 0da4 68000000 		.4byte	.LVL418
 14934 0da8 AC000000 		.4byte	.LVL425
 14935 0dac 0100     		.2byte	0x1
 14936 0dae 56       		.byte	0x56
 14937 0daf 00000000 		.4byte	0
 14938 0db3 00000000 		.4byte	0
 14939              	.LLST89:
 14940 0db7 76000000 		.4byte	.LVL419
ARM GAS  C:\Users\FRANKL~1\AppData\Local\Temp\ccnobXgu.s 			page 297


 14941 0dbb B2000000 		.4byte	.LVL426
 14942 0dbf 0100     		.2byte	0x1
 14943 0dc1 50       		.byte	0x50
 14944 0dc2 00000000 		.4byte	0
 14945 0dc6 00000000 		.4byte	0
 14946              	.LLST90:
 14947 0dca 88000000 		.4byte	.LVL420
 14948 0dce A0000000 		.4byte	.LVL423
 14949 0dd2 0100     		.2byte	0x1
 14950 0dd4 52       		.byte	0x52
 14951 0dd5 00000000 		.4byte	0
 14952 0dd9 00000000 		.4byte	0
 14953              	.LLST91:
 14954 0ddd 96000000 		.4byte	.LVL421
 14955 0de1 A6000000 		.4byte	.LVL424
 14956 0de5 0100     		.2byte	0x1
 14957 0de7 53       		.byte	0x53
 14958 0de8 00000000 		.4byte	0
 14959 0dec 00000000 		.4byte	0
 14960              	.LLST92:
 14961 0df0 9A000000 		.4byte	.LVL422
 14962 0df4 A0000000 		.4byte	.LVL423
 14963 0df8 0100     		.2byte	0x1
 14964 0dfa 51       		.byte	0x51
 14965 0dfb A0000000 		.4byte	.LVL423
 14966 0dff A6000000 		.4byte	.LVL424
 14967 0e03 0100     		.2byte	0x1
 14968 0e05 52       		.byte	0x52
 14969 0e06 A6000000 		.4byte	.LVL424
 14970 0e0a AC000000 		.4byte	.LVL425
 14971 0e0e 0100     		.2byte	0x1
 14972 0e10 53       		.byte	0x53
 14973 0e11 AC000000 		.4byte	.LVL425
 14974 0e15 B2000000 		.4byte	.LVL426
 14975 0e19 0100     		.2byte	0x1
 14976 0e1b 56       		.byte	0x56
 14977 0e1c B2000000 		.4byte	.LVL426
 14978 0e20 B4000000 		.4byte	.LVL427
 14979 0e24 0100     		.2byte	0x1
 14980 0e26 50       		.byte	0x50
 14981 0e27 00000000 		.4byte	0
 14982 0e2b 00000000 		.4byte	0
 14983              	.LLST93:
 14984 0e2f 00000000 		.4byte	.LVL430
 14985 0e33 0A000000 		.4byte	.LVL431
 14986 0e37 0100     		.2byte	0x1
 14987 0e39 50       		.byte	0x50
 14988 0e3a 0A000000 		.4byte	.LVL431
 14989 0e3e BA000000 		.4byte	.LVL456
 14990 0e42 0100     		.2byte	0x1
 14991 0e44 54       		.byte	0x54
 14992 0e45 00000000 		.4byte	0
 14993 0e49 00000000 		.4byte	0
 14994              	.LLST94:
 14995 0e4d 20000000 		.4byte	.LVL433
 14996 0e51 26000000 		.4byte	.LVL434
 14997 0e55 0100     		.2byte	0x1
ARM GAS  C:\Users\FRANKL~1\AppData\Local\Temp\ccnobXgu.s 			page 298


 14998 0e57 53       		.byte	0x53
 14999 0e58 26000000 		.4byte	.LVL434
 15000 0e5c 2A000000 		.4byte	.LVL435
 15001 0e60 0100     		.2byte	0x1
 15002 0e62 50       		.byte	0x50
 15003 0e63 3A000000 		.4byte	.LVL438
 15004 0e67 40000000 		.4byte	.LVL439
 15005 0e6b 0100     		.2byte	0x1
 15006 0e6d 53       		.byte	0x53
 15007 0e6e 40000000 		.4byte	.LVL439
 15008 0e72 44000000 		.4byte	.LVL440
 15009 0e76 0100     		.2byte	0x1
 15010 0e78 50       		.byte	0x50
 15011 0e79 52000000 		.4byte	.LVL443
 15012 0e7d 57000000 		.4byte	.LVL444-1
 15013 0e81 0100     		.2byte	0x1
 15014 0e83 53       		.byte	0x53
 15015 0e84 00000000 		.4byte	0
 15016 0e88 00000000 		.4byte	0
 15017              	.LLST95:
 15018 0e8c 6E000000 		.4byte	.LVL445
 15019 0e90 A0000000 		.4byte	.LVL450
 15020 0e94 0100     		.2byte	0x1
 15021 0e96 52       		.byte	0x52
 15022 0e97 00000000 		.4byte	0
 15023 0e9b 00000000 		.4byte	0
 15024              	.LLST96:
 15025 0e9f 7C000000 		.4byte	.LVL446
 15026 0ea3 A6000000 		.4byte	.LVL451
 15027 0ea7 0100     		.2byte	0x1
 15028 0ea9 53       		.byte	0x53
 15029 0eaa 00000000 		.4byte	0
 15030 0eae 00000000 		.4byte	0
 15031              	.LLST97:
 15032 0eb2 88000000 		.4byte	.LVL447
 15033 0eb6 AC000000 		.4byte	.LVL452
 15034 0eba 0100     		.2byte	0x1
 15035 0ebc 56       		.byte	0x56
 15036 0ebd 00000000 		.4byte	0
 15037 0ec1 00000000 		.4byte	0
 15038              	.LLST98:
 15039 0ec5 96000000 		.4byte	.LVL448
 15040 0ec9 B2000000 		.4byte	.LVL453
 15041 0ecd 0100     		.2byte	0x1
 15042 0ecf 50       		.byte	0x50
 15043 0ed0 00000000 		.4byte	0
 15044 0ed4 00000000 		.4byte	0
 15045              	.LLST99:
 15046 0ed8 9A000000 		.4byte	.LVL449
 15047 0edc A0000000 		.4byte	.LVL450
 15048 0ee0 0100     		.2byte	0x1
 15049 0ee2 51       		.byte	0x51
 15050 0ee3 A0000000 		.4byte	.LVL450
 15051 0ee7 A6000000 		.4byte	.LVL451
 15052 0eeb 0100     		.2byte	0x1
 15053 0eed 52       		.byte	0x52
 15054 0eee A6000000 		.4byte	.LVL451
ARM GAS  C:\Users\FRANKL~1\AppData\Local\Temp\ccnobXgu.s 			page 299


 15055 0ef2 AC000000 		.4byte	.LVL452
 15056 0ef6 0100     		.2byte	0x1
 15057 0ef8 53       		.byte	0x53
 15058 0ef9 AC000000 		.4byte	.LVL452
 15059 0efd B2000000 		.4byte	.LVL453
 15060 0f01 0100     		.2byte	0x1
 15061 0f03 56       		.byte	0x56
 15062 0f04 B2000000 		.4byte	.LVL453
 15063 0f08 B4000000 		.4byte	.LVL454
 15064 0f0c 0100     		.2byte	0x1
 15065 0f0e 50       		.byte	0x50
 15066 0f0f 00000000 		.4byte	0
 15067 0f13 00000000 		.4byte	0
 15068              	.LLST100:
 15069 0f17 00000000 		.4byte	.LVL457
 15070 0f1b 05000000 		.4byte	.LVL458-1
 15071 0f1f 0100     		.2byte	0x1
 15072 0f21 50       		.byte	0x50
 15073 0f22 05000000 		.4byte	.LVL458-1
 15074 0f26 38000000 		.4byte	.LFE95
 15075 0f2a 0600     		.2byte	0x6
 15076 0f2c F3       		.byte	0xf3
 15077 0f2d 03       		.uleb128 0x3
 15078 0f2e F5       		.byte	0xf5
 15079 0f2f 00       		.uleb128 0
 15080 0f30 25       		.uleb128 0x25
 15081 0f31 9F       		.byte	0x9f
 15082 0f32 00000000 		.4byte	0
 15083 0f36 00000000 		.4byte	0
 15084              	.LLST101:
 15085 0f3a 00000000 		.4byte	.LVL463
 15086 0f3e 05000000 		.4byte	.LVL464-1
 15087 0f42 0100     		.2byte	0x1
 15088 0f44 50       		.byte	0x50
 15089 0f45 05000000 		.4byte	.LVL464-1
 15090 0f49 38000000 		.4byte	.LFE96
 15091 0f4d 0600     		.2byte	0x6
 15092 0f4f F3       		.byte	0xf3
 15093 0f50 03       		.uleb128 0x3
 15094 0f51 F5       		.byte	0xf5
 15095 0f52 00       		.uleb128 0
 15096 0f53 25       		.uleb128 0x25
 15097 0f54 9F       		.byte	0x9f
 15098 0f55 00000000 		.4byte	0
 15099 0f59 00000000 		.4byte	0
 15100              	.LLST102:
 15101 0f5d 00000000 		.4byte	.LVL469
 15102 0f61 07000000 		.4byte	.LVL470-1
 15103 0f65 0100     		.2byte	0x1
 15104 0f67 50       		.byte	0x50
 15105 0f68 07000000 		.4byte	.LVL470-1
 15106 0f6c 14000000 		.4byte	.LFE97
 15107 0f70 0600     		.2byte	0x6
 15108 0f72 F3       		.byte	0xf3
 15109 0f73 03       		.uleb128 0x3
 15110 0f74 F5       		.byte	0xf5
 15111 0f75 00       		.uleb128 0
ARM GAS  C:\Users\FRANKL~1\AppData\Local\Temp\ccnobXgu.s 			page 300


 15112 0f76 25       		.uleb128 0x25
 15113 0f77 9F       		.byte	0x9f
 15114 0f78 00000000 		.4byte	0
 15115 0f7c 00000000 		.4byte	0
 15116              	.LLST103:
 15117 0f80 00000000 		.4byte	.LVL472
 15118 0f84 07000000 		.4byte	.LVL473-1
 15119 0f88 0100     		.2byte	0x1
 15120 0f8a 50       		.byte	0x50
 15121 0f8b 07000000 		.4byte	.LVL473-1
 15122 0f8f 14000000 		.4byte	.LFE98
 15123 0f93 0600     		.2byte	0x6
 15124 0f95 F3       		.byte	0xf3
 15125 0f96 03       		.uleb128 0x3
 15126 0f97 F5       		.byte	0xf5
 15127 0f98 00       		.uleb128 0
 15128 0f99 25       		.uleb128 0x25
 15129 0f9a 9F       		.byte	0x9f
 15130 0f9b 00000000 		.4byte	0
 15131 0f9f 00000000 		.4byte	0
 15132              	.LLST104:
 15133 0fa3 00000000 		.4byte	.LVL479
 15134 0fa7 18000000 		.4byte	.LVL482
 15135 0fab 0100     		.2byte	0x1
 15136 0fad 50       		.byte	0x50
 15137 0fae 18000000 		.4byte	.LVL482
 15138 0fb2 1B000000 		.4byte	.LVL483-1
 15139 0fb6 0100     		.2byte	0x1
 15140 0fb8 52       		.byte	0x52
 15141 0fb9 1B000000 		.4byte	.LVL483-1
 15142 0fbd E4000000 		.4byte	.LFE100
 15143 0fc1 0400     		.2byte	0x4
 15144 0fc3 F3       		.byte	0xf3
 15145 0fc4 01       		.uleb128 0x1
 15146 0fc5 50       		.byte	0x50
 15147 0fc6 9F       		.byte	0x9f
 15148 0fc7 00000000 		.4byte	0
 15149 0fcb 00000000 		.4byte	0
 15150              	.LLST105:
 15151 0fcf 00000000 		.4byte	.LVL479
 15152 0fd3 10000000 		.4byte	.LVL480
 15153 0fd7 0100     		.2byte	0x1
 15154 0fd9 51       		.byte	0x51
 15155 0fda 10000000 		.4byte	.LVL480
 15156 0fde 80000000 		.4byte	.LVL500
 15157 0fe2 0100     		.2byte	0x1
 15158 0fe4 57       		.byte	0x57
 15159 0fe5 80000000 		.4byte	.LVL500
 15160 0fe9 E4000000 		.4byte	.LFE100
 15161 0fed 0400     		.2byte	0x4
 15162 0fef F3       		.byte	0xf3
 15163 0ff0 01       		.uleb128 0x1
 15164 0ff1 51       		.byte	0x51
 15165 0ff2 9F       		.byte	0x9f
 15166 0ff3 00000000 		.4byte	0
 15167 0ff7 00000000 		.4byte	0
 15168              	.LLST106:
ARM GAS  C:\Users\FRANKL~1\AppData\Local\Temp\ccnobXgu.s 			page 301


 15169 0ffb 00000000 		.4byte	.LVL479
 15170 0fff 16000000 		.4byte	.LVL481
 15171 1003 0100     		.2byte	0x1
 15172 1005 52       		.byte	0x52
 15173 1006 16000000 		.4byte	.LVL481
 15174 100a 74000000 		.4byte	.LVL497
 15175 100e 0100     		.2byte	0x1
 15176 1010 55       		.byte	0x55
 15177 1011 74000000 		.4byte	.LVL497
 15178 1015 E4000000 		.4byte	.LFE100
 15179 1019 0400     		.2byte	0x4
 15180 101b F3       		.byte	0xf3
 15181 101c 01       		.uleb128 0x1
 15182 101d 52       		.byte	0x52
 15183 101e 9F       		.byte	0x9f
 15184 101f 00000000 		.4byte	0
 15185 1023 00000000 		.4byte	0
 15186              	.LLST107:
 15187 1027 32000000 		.4byte	.LVL487
 15188 102b 40000000 		.4byte	.LVL488
 15189 102f 0100     		.2byte	0x1
 15190 1031 50       		.byte	0x50
 15191 1032 40000000 		.4byte	.LVL488
 15192 1036 7E000000 		.4byte	.LVL499
 15193 103a 0100     		.2byte	0x1
 15194 103c 56       		.byte	0x56
 15195 103d 00000000 		.4byte	0
 15196 1041 00000000 		.4byte	0
 15197              	.LLST108:
 15198 1045 64000000 		.4byte	.LVL494
 15199 1049 67000000 		.4byte	.LVL495-1
 15200 104d 0100     		.2byte	0x1
 15201 104f 50       		.byte	0x50
 15202 1050 67000000 		.4byte	.LVL495-1
 15203 1054 C8000000 		.4byte	.LVL508
 15204 1058 0100     		.2byte	0x1
 15205 105a 5A       		.byte	0x5a
 15206 105b 00000000 		.4byte	0
 15207 105f 00000000 		.4byte	0
 15208              	.LLST109:
 15209 1063 64000000 		.4byte	.LVL494
 15210 1067 67000000 		.4byte	.LVL495-1
 15211 106b 1600     		.2byte	0x16
 15212 106d 91       		.byte	0x91
 15213 106e 4C       		.sleb128 -52
 15214 106f 06       		.byte	0x6
 15215 1070 F7       		.byte	0xf7
 15216 1071 33       		.uleb128 0x33
 15217 1072 F7       		.byte	0xf7
 15218 1073 2C       		.uleb128 0x2c
 15219 1074 F4       		.byte	0xf4
 15220 1075 2C       		.uleb128 0x2c
 15221 1076 08       		.byte	0x8
 15222 1077 8DEDB5A0 		.4byte	0xa0b5ed8d
 15223 107b F7C6B03E 		.4byte	0x3eb0c6f7
 15224 107f 1E       		.byte	0x1e
 15225 1080 F7       		.byte	0xf7
ARM GAS  C:\Users\FRANKL~1\AppData\Local\Temp\ccnobXgu.s 			page 302


 15226 1081 25       		.uleb128 0x25
 15227 1082 9F       		.byte	0x9f
 15228 1083 00000000 		.4byte	0
 15229 1087 00000000 		.4byte	0
 15230              	.LLST110:
 15231 108b 00000000 		.4byte	.LVL509
 15232 108f 08000000 		.4byte	.LVL511
 15233 1093 0100     		.2byte	0x1
 15234 1095 50       		.byte	0x50
 15235 1096 08000000 		.4byte	.LVL511
 15236 109a 1A000000 		.4byte	.LFE101
 15237 109e 0100     		.2byte	0x1
 15238 10a0 55       		.byte	0x55
 15239 10a1 00000000 		.4byte	0
 15240 10a5 00000000 		.4byte	0
 15241              	.LLST111:
 15242 10a9 04000000 		.4byte	.LVL510
 15243 10ad 08000000 		.4byte	.LVL511
 15244 10b1 0200     		.2byte	0x2
 15245 10b3 30       		.byte	0x30
 15246 10b4 9F       		.byte	0x9f
 15247 10b5 08000000 		.4byte	.LVL511
 15248 10b9 1A000000 		.4byte	.LFE101
 15249 10bd 0100     		.2byte	0x1
 15250 10bf 54       		.byte	0x54
 15251 10c0 00000000 		.4byte	0
 15252 10c4 00000000 		.4byte	0
 15253              	.LLST112:
 15254 10c8 0E000000 		.4byte	.LVL515
 15255 10cc 12000000 		.4byte	.LVL516
 15256 10d0 0200     		.2byte	0x2
 15257 10d2 30       		.byte	0x30
 15258 10d3 9F       		.byte	0x9f
 15259 10d4 12000000 		.4byte	.LVL516
 15260 10d8 24000000 		.4byte	.LVL519
 15261 10dc 0100     		.2byte	0x1
 15262 10de 54       		.byte	0x54
 15263 10df 26000000 		.4byte	.LVL520
 15264 10e3 2C000000 		.4byte	.LFE102
 15265 10e7 0100     		.2byte	0x1
 15266 10e9 54       		.byte	0x54
 15267 10ea 00000000 		.4byte	0
 15268 10ee 00000000 		.4byte	0
 15269              	.LLST113:
 15270 10f2 00000000 		.4byte	.LVL521
 15271 10f6 14000000 		.4byte	.LVL522
 15272 10fa 0100     		.2byte	0x1
 15273 10fc 50       		.byte	0x50
 15274 10fd 14000000 		.4byte	.LVL522
 15275 1101 20000000 		.4byte	.LVL524
 15276 1105 0400     		.2byte	0x4
 15277 1107 F3       		.byte	0xf3
 15278 1108 01       		.uleb128 0x1
 15279 1109 50       		.byte	0x50
 15280 110a 9F       		.byte	0x9f
 15281 110b 20000000 		.4byte	.LVL524
 15282 110f 22000000 		.4byte	.LVL525
ARM GAS  C:\Users\FRANKL~1\AppData\Local\Temp\ccnobXgu.s 			page 303


 15283 1113 0100     		.2byte	0x1
 15284 1115 50       		.byte	0x50
 15285 1116 22000000 		.4byte	.LVL525
 15286 111a AC000000 		.4byte	.LFE103
 15287 111e 0400     		.2byte	0x4
 15288 1120 F3       		.byte	0xf3
 15289 1121 01       		.uleb128 0x1
 15290 1122 50       		.byte	0x50
 15291 1123 9F       		.byte	0x9f
 15292 1124 00000000 		.4byte	0
 15293 1128 00000000 		.4byte	0
 15294              	.LLST114:
 15295 112c 28000000 		.4byte	.LVL527
 15296 1130 98000000 		.4byte	.LVL543
 15297 1134 0100     		.2byte	0x1
 15298 1136 58       		.byte	0x58
 15299 1137 9C000000 		.4byte	.LVL544
 15300 113b A4000000 		.4byte	.LVL545
 15301 113f 0100     		.2byte	0x1
 15302 1141 58       		.byte	0x58
 15303 1142 00000000 		.4byte	0
 15304 1146 00000000 		.4byte	0
 15305              	.LLST115:
 15306 114a 28000000 		.4byte	.LVL527
 15307 114e 4E000000 		.4byte	.LVL532
 15308 1152 0200     		.2byte	0x2
 15309 1154 40       		.byte	0x40
 15310 1155 9F       		.byte	0x9f
 15311 1156 4E000000 		.4byte	.LVL532
 15312 115a 50000000 		.4byte	.LVL533
 15313 115e 0100     		.2byte	0x1
 15314 1160 57       		.byte	0x57
 15315 1161 00000000 		.4byte	0
 15316 1165 00000000 		.4byte	0
 15317              	.LLST116:
 15318 1169 28000000 		.4byte	.LVL527
 15319 116d 36000000 		.4byte	.LVL528
 15320 1171 0200     		.2byte	0x2
 15321 1173 30       		.byte	0x30
 15322 1174 9F       		.byte	0x9f
 15323 1175 36000000 		.4byte	.LVL528
 15324 1179 38000000 		.4byte	.LVL529
 15325 117d 0100     		.2byte	0x1
 15326 117f 55       		.byte	0x55
 15327 1180 38000000 		.4byte	.LVL529
 15328 1184 3A000000 		.4byte	.LVL530
 15329 1188 0200     		.2byte	0x2
 15330 118a 30       		.byte	0x30
 15331 118b 9F       		.byte	0x9f
 15332 118c 3A000000 		.4byte	.LVL530
 15333 1190 4A000000 		.4byte	.LVL531
 15334 1194 0100     		.2byte	0x1
 15335 1196 55       		.byte	0x55
 15336 1197 4E000000 		.4byte	.LVL532
 15337 119b 50000000 		.4byte	.LVL533
 15338 119f 0100     		.2byte	0x1
 15339 11a1 55       		.byte	0x55
ARM GAS  C:\Users\FRANKL~1\AppData\Local\Temp\ccnobXgu.s 			page 304


 15340 11a2 00000000 		.4byte	0
 15341 11a6 00000000 		.4byte	0
 15342              	.LLST117:
 15343 11aa 3A000000 		.4byte	.LVL530
 15344 11ae 4E000000 		.4byte	.LVL532
 15345 11b2 0300     		.2byte	0x3
 15346 11b4 09       		.byte	0x9
 15347 11b5 F0       		.byte	0xf0
 15348 11b6 9F       		.byte	0x9f
 15349 11b7 4E000000 		.4byte	.LVL532
 15350 11bb 50000000 		.4byte	.LVL533
 15351 11bf 0100     		.2byte	0x1
 15352 11c1 56       		.byte	0x56
 15353 11c2 00000000 		.4byte	0
 15354 11c6 00000000 		.4byte	0
 15355              	.LLST118:
 15356 11ca 4E000000 		.4byte	.LVL532
 15357 11ce 8E000000 		.4byte	.LVL541
 15358 11d2 0100     		.2byte	0x1
 15359 11d4 55       		.byte	0x55
 15360 11d5 90000000 		.4byte	.LVL542
 15361 11d9 9C000000 		.4byte	.LVL544
 15362 11dd 0100     		.2byte	0x1
 15363 11df 55       		.byte	0x55
 15364 11e0 00000000 		.4byte	0
 15365 11e4 00000000 		.4byte	0
 15366              	.LLST119:
 15367 11e8 50000000 		.4byte	.LVL533
 15368 11ec 82000000 		.4byte	.LVL537
 15369 11f0 0100     		.2byte	0x1
 15370 11f2 54       		.byte	0x54
 15371 11f3 84000000 		.4byte	.LVL538
 15372 11f7 86000000 		.4byte	.LVL539
 15373 11fb 0100     		.2byte	0x1
 15374 11fd 54       		.byte	0x54
 15375 11fe 88000000 		.4byte	.LVL540
 15376 1202 90000000 		.4byte	.LVL542
 15377 1206 0100     		.2byte	0x1
 15378 1208 54       		.byte	0x54
 15379 1209 00000000 		.4byte	0
 15380 120d 00000000 		.4byte	0
 15381              	.LLST120:
 15382 1211 00000000 		.4byte	.LVL546
 15383 1215 08000000 		.4byte	.LVL547
 15384 1219 0100     		.2byte	0x1
 15385 121b 50       		.byte	0x50
 15386 121c 08000000 		.4byte	.LVL547
 15387 1220 84000000 		.4byte	.LFE104
 15388 1224 0400     		.2byte	0x4
 15389 1226 F3       		.byte	0xf3
 15390 1227 01       		.uleb128 0x1
 15391 1228 50       		.byte	0x50
 15392 1229 9F       		.byte	0x9f
 15393 122a 00000000 		.4byte	0
 15394 122e 00000000 		.4byte	0
 15395              	.LLST121:
 15396 1232 0C000000 		.4byte	.LVL548
ARM GAS  C:\Users\FRANKL~1\AppData\Local\Temp\ccnobXgu.s 			page 305


 15397 1236 12000000 		.4byte	.LVL549
 15398 123a 0200     		.2byte	0x2
 15399 123c 30       		.byte	0x30
 15400 123d 9F       		.byte	0x9f
 15401 123e 12000000 		.4byte	.LVL549
 15402 1242 72000000 		.4byte	.LVL561
 15403 1246 0100     		.2byte	0x1
 15404 1248 58       		.byte	0x58
 15405 1249 76000000 		.4byte	.LVL562
 15406 124d 7E000000 		.4byte	.LVL563
 15407 1251 0100     		.2byte	0x1
 15408 1253 58       		.byte	0x58
 15409 1254 00000000 		.4byte	0
 15410 1258 00000000 		.4byte	0
 15411              	.LLST122:
 15412 125c 12000000 		.4byte	.LVL549
 15413 1260 28000000 		.4byte	.LVL550
 15414 1264 0200     		.2byte	0x2
 15415 1266 40       		.byte	0x40
 15416 1267 9F       		.byte	0x9f
 15417 1268 28000000 		.4byte	.LVL550
 15418 126c 2A000000 		.4byte	.LVL551
 15419 1270 0100     		.2byte	0x1
 15420 1272 57       		.byte	0x57
 15421 1273 00000000 		.4byte	0
 15422 1277 00000000 		.4byte	0
 15423              	.LLST123:
 15424 127b 12000000 		.4byte	.LVL549
 15425 127f 28000000 		.4byte	.LVL550
 15426 1283 0200     		.2byte	0x2
 15427 1285 30       		.byte	0x30
 15428 1286 9F       		.byte	0x9f
 15429 1287 28000000 		.4byte	.LVL550
 15430 128b 2A000000 		.4byte	.LVL551
 15431 128f 0100     		.2byte	0x1
 15432 1291 55       		.byte	0x55
 15433 1292 00000000 		.4byte	0
 15434 1296 00000000 		.4byte	0
 15435              	.LLST124:
 15436 129a 12000000 		.4byte	.LVL549
 15437 129e 28000000 		.4byte	.LVL550
 15438 12a2 0300     		.2byte	0x3
 15439 12a4 09       		.byte	0x9
 15440 12a5 F0       		.byte	0xf0
 15441 12a6 9F       		.byte	0x9f
 15442 12a7 28000000 		.4byte	.LVL550
 15443 12ab 2A000000 		.4byte	.LVL551
 15444 12af 0100     		.2byte	0x1
 15445 12b1 56       		.byte	0x56
 15446 12b2 00000000 		.4byte	0
 15447 12b6 00000000 		.4byte	0
 15448              	.LLST125:
 15449 12ba 28000000 		.4byte	.LVL550
 15450 12be 68000000 		.4byte	.LVL559
 15451 12c2 0100     		.2byte	0x1
 15452 12c4 55       		.byte	0x55
 15453 12c5 6A000000 		.4byte	.LVL560
ARM GAS  C:\Users\FRANKL~1\AppData\Local\Temp\ccnobXgu.s 			page 306


 15454 12c9 76000000 		.4byte	.LVL562
 15455 12cd 0100     		.2byte	0x1
 15456 12cf 55       		.byte	0x55
 15457 12d0 00000000 		.4byte	0
 15458 12d4 00000000 		.4byte	0
 15459              	.LLST126:
 15460 12d8 2A000000 		.4byte	.LVL551
 15461 12dc 5C000000 		.4byte	.LVL555
 15462 12e0 0100     		.2byte	0x1
 15463 12e2 54       		.byte	0x54
 15464 12e3 5E000000 		.4byte	.LVL556
 15465 12e7 60000000 		.4byte	.LVL557
 15466 12eb 0100     		.2byte	0x1
 15467 12ed 54       		.byte	0x54
 15468 12ee 62000000 		.4byte	.LVL558
 15469 12f2 6A000000 		.4byte	.LVL560
 15470 12f6 0100     		.2byte	0x1
 15471 12f8 54       		.byte	0x54
 15472 12f9 00000000 		.4byte	0
 15473 12fd 00000000 		.4byte	0
 15474              	.LLST127:
 15475 1301 04000000 		.4byte	.LVL564
 15476 1305 10000000 		.4byte	.LVL565
 15477 1309 0200     		.2byte	0x2
 15478 130b 31       		.byte	0x31
 15479 130c 9F       		.byte	0x9f
 15480 130d 10000000 		.4byte	.LVL565
 15481 1311 40000000 		.4byte	.LVL570
 15482 1315 0100     		.2byte	0x1
 15483 1317 54       		.byte	0x54
 15484 1318 40000000 		.4byte	.LVL570
 15485 131c 84000000 		.4byte	.LVL578
 15486 1320 0100     		.2byte	0x1
 15487 1322 58       		.byte	0x58
 15488 1323 84000000 		.4byte	.LVL578
 15489 1327 8E000000 		.4byte	.LVL579
 15490 132b 0100     		.2byte	0x1
 15491 132d 54       		.byte	0x54
 15492 132e 00000000 		.4byte	0
 15493 1332 00000000 		.4byte	0
 15494              	.LLST128:
 15495 1336 04000000 		.4byte	.LVL564
 15496 133a 10000000 		.4byte	.LVL565
 15497 133e 0200     		.2byte	0x2
 15498 1340 30       		.byte	0x30
 15499 1341 9F       		.byte	0x9f
 15500 1342 10000000 		.4byte	.LVL565
 15501 1346 66000000 		.4byte	.LVL574
 15502 134a 0100     		.2byte	0x1
 15503 134c 55       		.byte	0x55
 15504 134d 68000000 		.4byte	.LVL575
 15505 1351 92000000 		.4byte	.LVL580
 15506 1355 0100     		.2byte	0x1
 15507 1357 55       		.byte	0x55
 15508 1358 00000000 		.4byte	0
 15509 135c 00000000 		.4byte	0
 15510              	.LLST129:
ARM GAS  C:\Users\FRANKL~1\AppData\Local\Temp\ccnobXgu.s 			page 307


 15511 1360 04000000 		.4byte	.LVL564
 15512 1364 10000000 		.4byte	.LVL565
 15513 1368 0200     		.2byte	0x2
 15514 136a 30       		.byte	0x30
 15515 136b 9F       		.byte	0x9f
 15516 136c 10000000 		.4byte	.LVL565
 15517 1370 30000000 		.4byte	.LVL568
 15518 1374 0100     		.2byte	0x1
 15519 1376 59       		.byte	0x59
 15520 1377 34000000 		.4byte	.LVL569
 15521 137b 92000000 		.4byte	.LVL580
 15522 137f 0100     		.2byte	0x1
 15523 1381 59       		.byte	0x59
 15524 1382 00000000 		.4byte	0
 15525 1386 00000000 		.4byte	0
 15526              	.LLST130:
 15527 138a 04000000 		.4byte	.LVL564
 15528 138e 10000000 		.4byte	.LVL565
 15529 1392 0200     		.2byte	0x2
 15530 1394 30       		.byte	0x30
 15531 1395 9F       		.byte	0x9f
 15532 1396 10000000 		.4byte	.LVL565
 15533 139a 6C000000 		.4byte	.LVL576
 15534 139e 0100     		.2byte	0x1
 15535 13a0 56       		.byte	0x56
 15536 13a1 6E000000 		.4byte	.LVL577
 15537 13a5 92000000 		.4byte	.LVL580
 15538 13a9 0100     		.2byte	0x1
 15539 13ab 56       		.byte	0x56
 15540 13ac 00000000 		.4byte	0
 15541 13b0 00000000 		.4byte	0
 15542              	.LLST131:
 15543 13b4 04000000 		.4byte	.LVL564
 15544 13b8 10000000 		.4byte	.LVL565
 15545 13bc 0200     		.2byte	0x2
 15546 13be 30       		.byte	0x30
 15547 13bf 9F       		.byte	0x9f
 15548 13c0 10000000 		.4byte	.LVL565
 15549 13c4 1E000000 		.4byte	.LVL566
 15550 13c8 0100     		.2byte	0x1
 15551 13ca 57       		.byte	0x57
 15552 13cb 20000000 		.4byte	.LVL567
 15553 13cf 92000000 		.4byte	.LVL580
 15554 13d3 0100     		.2byte	0x1
 15555 13d5 57       		.byte	0x57
 15556 13d6 00000000 		.4byte	0
 15557 13da 00000000 		.4byte	0
 15558              	.LLST132:
 15559 13de 00000000 		.4byte	.LVL581
 15560 13e2 0C000000 		.4byte	.LVL583
 15561 13e6 0100     		.2byte	0x1
 15562 13e8 50       		.byte	0x50
 15563 13e9 0C000000 		.4byte	.LVL583
 15564 13ed 90000000 		.4byte	.LFE106
 15565 13f1 0400     		.2byte	0x4
 15566 13f3 F3       		.byte	0xf3
 15567 13f4 01       		.uleb128 0x1
ARM GAS  C:\Users\FRANKL~1\AppData\Local\Temp\ccnobXgu.s 			page 308


 15568 13f5 50       		.byte	0x50
 15569 13f6 9F       		.byte	0x9f
 15570 13f7 00000000 		.4byte	0
 15571 13fb 00000000 		.4byte	0
 15572              	.LLST133:
 15573 13ff 00000000 		.4byte	.LVL581
 15574 1403 0C000000 		.4byte	.LVL583
 15575 1407 0100     		.2byte	0x1
 15576 1409 51       		.byte	0x51
 15577 140a 0C000000 		.4byte	.LVL583
 15578 140e 90000000 		.4byte	.LFE106
 15579 1412 0400     		.2byte	0x4
 15580 1414 F3       		.byte	0xf3
 15581 1415 01       		.uleb128 0x1
 15582 1416 51       		.byte	0x51
 15583 1417 9F       		.byte	0x9f
 15584 1418 00000000 		.4byte	0
 15585 141c 00000000 		.4byte	0
 15586              	.LLST134:
 15587 1420 08000000 		.4byte	.LVL582
 15588 1424 0C000000 		.4byte	.LVL583
 15589 1428 0200     		.2byte	0x2
 15590 142a 31       		.byte	0x31
 15591 142b 9F       		.byte	0x9f
 15592 142c 0C000000 		.4byte	.LVL583
 15593 1430 84000000 		.4byte	.LVL597
 15594 1434 0100     		.2byte	0x1
 15595 1436 54       		.byte	0x54
 15596 1437 00000000 		.4byte	0
 15597 143b 00000000 		.4byte	0
 15598              	.LLST135:
 15599 143f 0C000000 		.4byte	.LVL583
 15600 1443 7C000000 		.4byte	.LVL596
 15601 1447 0100     		.2byte	0x1
 15602 1449 54       		.byte	0x54
 15603 144a 00000000 		.4byte	0
 15604 144e 00000000 		.4byte	0
 15605              	.LLST136:
 15606 1452 10000000 		.4byte	.LVL584
 15607 1456 7C000000 		.4byte	.LVL596
 15608 145a 0100     		.2byte	0x1
 15609 145c 56       		.byte	0x56
 15610 145d 00000000 		.4byte	0
 15611 1461 00000000 		.4byte	0
 15612              	.LLST137:
 15613 1465 10000000 		.4byte	.LVL584
 15614 1469 7C000000 		.4byte	.LVL596
 15615 146d 0200     		.2byte	0x2
 15616 146f 31       		.byte	0x31
 15617 1470 9F       		.byte	0x9f
 15618 1471 00000000 		.4byte	0
 15619 1475 00000000 		.4byte	0
 15620              	.LLST138:
 15621 1479 10000000 		.4byte	.LVL584
 15622 147d 7C000000 		.4byte	.LVL596
 15623 1481 0200     		.2byte	0x2
 15624 1483 32       		.byte	0x32
ARM GAS  C:\Users\FRANKL~1\AppData\Local\Temp\ccnobXgu.s 			page 309


 15625 1484 9F       		.byte	0x9f
 15626 1485 00000000 		.4byte	0
 15627 1489 00000000 		.4byte	0
 15628              	.LLST139:
 15629 148d 00000000 		.4byte	.LVL598
 15630 1491 18000000 		.4byte	.LVL599
 15631 1495 0100     		.2byte	0x1
 15632 1497 50       		.byte	0x50
 15633 1498 18000000 		.4byte	.LVL599
 15634 149c 94000000 		.4byte	.LVL613
 15635 14a0 0400     		.2byte	0x4
 15636 14a2 F3       		.byte	0xf3
 15637 14a3 01       		.uleb128 0x1
 15638 14a4 50       		.byte	0x50
 15639 14a5 9F       		.byte	0x9f
 15640 14a6 94000000 		.4byte	.LVL613
 15641 14aa A4000000 		.4byte	.LFE107
 15642 14ae 0100     		.2byte	0x1
 15643 14b0 50       		.byte	0x50
 15644 14b1 00000000 		.4byte	0
 15645 14b5 00000000 		.4byte	0
 15646              	.LLST140:
 15647 14b9 00000000 		.4byte	.LVL598
 15648 14bd 18000000 		.4byte	.LVL599
 15649 14c1 0100     		.2byte	0x1
 15650 14c3 51       		.byte	0x51
 15651 14c4 18000000 		.4byte	.LVL599
 15652 14c8 94000000 		.4byte	.LVL613
 15653 14cc 0400     		.2byte	0x4
 15654 14ce F3       		.byte	0xf3
 15655 14cf 01       		.uleb128 0x1
 15656 14d0 51       		.byte	0x51
 15657 14d1 9F       		.byte	0x9f
 15658 14d2 94000000 		.4byte	.LVL613
 15659 14d6 A4000000 		.4byte	.LFE107
 15660 14da 0100     		.2byte	0x1
 15661 14dc 51       		.byte	0x51
 15662 14dd 00000000 		.4byte	0
 15663 14e1 00000000 		.4byte	0
 15664              	.LLST141:
 15665 14e5 00000000 		.4byte	.LVL598
 15666 14e9 18000000 		.4byte	.LVL599
 15667 14ed 0100     		.2byte	0x1
 15668 14ef 52       		.byte	0x52
 15669 14f0 18000000 		.4byte	.LVL599
 15670 14f4 94000000 		.4byte	.LVL613
 15671 14f8 0400     		.2byte	0x4
 15672 14fa F3       		.byte	0xf3
 15673 14fb 01       		.uleb128 0x1
 15674 14fc 52       		.byte	0x52
 15675 14fd 9F       		.byte	0x9f
 15676 14fe 94000000 		.4byte	.LVL613
 15677 1502 A4000000 		.4byte	.LFE107
 15678 1506 0100     		.2byte	0x1
 15679 1508 52       		.byte	0x52
 15680 1509 00000000 		.4byte	0
 15681 150d 00000000 		.4byte	0
ARM GAS  C:\Users\FRANKL~1\AppData\Local\Temp\ccnobXgu.s 			page 310


 15682              	.LLST142:
 15683 1511 00000000 		.4byte	.LVL598
 15684 1515 18000000 		.4byte	.LVL599
 15685 1519 0100     		.2byte	0x1
 15686 151b 53       		.byte	0x53
 15687 151c 18000000 		.4byte	.LVL599
 15688 1520 94000000 		.4byte	.LVL613
 15689 1524 0400     		.2byte	0x4
 15690 1526 F3       		.byte	0xf3
 15691 1527 01       		.uleb128 0x1
 15692 1528 53       		.byte	0x53
 15693 1529 9F       		.byte	0x9f
 15694 152a 94000000 		.4byte	.LVL613
 15695 152e A4000000 		.4byte	.LFE107
 15696 1532 0100     		.2byte	0x1
 15697 1534 53       		.byte	0x53
 15698 1535 00000000 		.4byte	0
 15699 1539 00000000 		.4byte	0
 15700              	.LLST143:
 15701 153d 18000000 		.4byte	.LVL599
 15702 1541 94000000 		.4byte	.LVL613
 15703 1545 0100     		.2byte	0x1
 15704 1547 54       		.byte	0x54
 15705 1548 00000000 		.4byte	0
 15706 154c 00000000 		.4byte	0
 15707              	.LLST144:
 15708 1550 18000000 		.4byte	.LVL599
 15709 1554 8C000000 		.4byte	.LVL612
 15710 1558 0100     		.2byte	0x1
 15711 155a 54       		.byte	0x54
 15712 155b 00000000 		.4byte	0
 15713 155f 00000000 		.4byte	0
 15714              	.LLST145:
 15715 1563 1C000000 		.4byte	.LVL600
 15716 1567 8C000000 		.4byte	.LVL612
 15717 156b 0100     		.2byte	0x1
 15718 156d 56       		.byte	0x56
 15719 156e 00000000 		.4byte	0
 15720 1572 00000000 		.4byte	0
 15721              	.LLST146:
 15722 1576 1C000000 		.4byte	.LVL600
 15723 157a 8C000000 		.4byte	.LVL612
 15724 157e 0200     		.2byte	0x2
 15725 1580 31       		.byte	0x31
 15726 1581 9F       		.byte	0x9f
 15727 1582 00000000 		.4byte	0
 15728 1586 00000000 		.4byte	0
 15729              	.LLST147:
 15730 158a 1C000000 		.4byte	.LVL600
 15731 158e 8C000000 		.4byte	.LVL612
 15732 1592 0200     		.2byte	0x2
 15733 1594 32       		.byte	0x32
 15734 1595 9F       		.byte	0x9f
 15735 1596 00000000 		.4byte	0
 15736 159a 00000000 		.4byte	0
 15737              	.LLST148:
 15738 159e 76000000 		.4byte	.LVL630
ARM GAS  C:\Users\FRANKL~1\AppData\Local\Temp\ccnobXgu.s 			page 311


 15739 15a2 86000000 		.4byte	.LVL631
 15740 15a6 0600     		.2byte	0x6
 15741 15a8 03       		.byte	0x3
 15742 15a9 00000000 		.4byte	USBUART_Receive_Buffer
 15743 15ad 9F       		.byte	0x9f
 15744 15ae 86000000 		.4byte	.LVL631
 15745 15b2 1E020000 		.4byte	.LVL672
 15746 15b6 0100     		.2byte	0x1
 15747 15b8 54       		.byte	0x54
 15748 15b9 4C020000 		.4byte	.LVL680
 15749 15bd 72020000 		.4byte	.LVL685
 15750 15c1 0100     		.2byte	0x1
 15751 15c3 54       		.byte	0x54
 15752 15c4 A0020000 		.4byte	.LVL693
 15753 15c8 AE020000 		.4byte	.LVL695
 15754 15cc 0100     		.2byte	0x1
 15755 15ce 54       		.byte	0x54
 15756 15cf 70030000 		.4byte	.LVL703
 15757 15d3 B2030000 		.4byte	.LVL709
 15758 15d7 0100     		.2byte	0x1
 15759 15d9 54       		.byte	0x54
 15760 15da 02040000 		.4byte	.LVL718
 15761 15de 4A040000 		.4byte	.LVL724
 15762 15e2 0100     		.2byte	0x1
 15763 15e4 54       		.byte	0x54
 15764 15e5 A0040000 		.4byte	.LVL733
 15765 15e9 EC040000 		.4byte	.LVL739
 15766 15ed 0100     		.2byte	0x1
 15767 15ef 54       		.byte	0x54
 15768 15f0 48050000 		.4byte	.LVL749
 15769 15f4 5E050000 		.4byte	.LVL752
 15770 15f8 0100     		.2byte	0x1
 15771 15fa 54       		.byte	0x54
 15772 15fb A4050000 		.4byte	.LVL762
 15773 15ff BA050000 		.4byte	.LVL765
 15774 1603 0100     		.2byte	0x1
 15775 1605 54       		.byte	0x54
 15776 1606 00060000 		.4byte	.LVL775
 15777 160a 16060000 		.4byte	.LVL778
 15778 160e 0100     		.2byte	0x1
 15779 1610 54       		.byte	0x54
 15780 1611 5C060000 		.4byte	.LVL788
 15781 1615 86060000 		.4byte	.LVL794
 15782 1619 0100     		.2byte	0x1
 15783 161b 54       		.byte	0x54
 15784 161c F0060000 		.4byte	.LVL799
 15785 1620 04070000 		.4byte	.LVL802
 15786 1624 0100     		.2byte	0x1
 15787 1626 54       		.byte	0x54
 15788 1627 30070000 		.4byte	.LVL806
 15789 162b 5A070000 		.4byte	.LVL812
 15790 162f 0100     		.2byte	0x1
 15791 1631 54       		.byte	0x54
 15792 1632 7A070000 		.4byte	.LVL817
 15793 1636 A4070000 		.4byte	.LVL823
 15794 163a 0100     		.2byte	0x1
 15795 163c 54       		.byte	0x54
ARM GAS  C:\Users\FRANKL~1\AppData\Local\Temp\ccnobXgu.s 			page 312


 15796 163d C4070000 		.4byte	.LVL828
 15797 1641 D8070000 		.4byte	.LVL831
 15798 1645 0100     		.2byte	0x1
 15799 1647 54       		.byte	0x54
 15800 1648 00080000 		.4byte	.LVL835
 15801 164c 26080000 		.4byte	.LVL839
 15802 1650 0100     		.2byte	0x1
 15803 1652 54       		.byte	0x54
 15804 1653 62080000 		.4byte	.LVL844
 15805 1657 BC080000 		.4byte	.LFE109
 15806 165b 0100     		.2byte	0x1
 15807 165d 54       		.byte	0x54
 15808 165e 00000000 		.4byte	0
 15809 1662 00000000 		.4byte	0
 15810              	.LLST149:
 15811 1666 C4000000 		.4byte	.LVL636
 15812 166a C7000000 		.4byte	.LVL637-1
 15813 166e 0100     		.2byte	0x1
 15814 1670 50       		.byte	0x50
 15815 1671 00000000 		.4byte	0
 15816 1675 00000000 		.4byte	0
 15817              	.LLST150:
 15818 1679 24010000 		.4byte	.LVL646
 15819 167d 29010000 		.4byte	.LVL647-1
 15820 1681 0100     		.2byte	0x1
 15821 1683 50       		.byte	0x50
 15822 1684 00000000 		.4byte	0
 15823 1688 00000000 		.4byte	0
 15824              	.LLST151:
 15825 168c 4C010000 		.4byte	.LVL650
 15826 1690 51010000 		.4byte	.LVL651-1
 15827 1694 0100     		.2byte	0x1
 15828 1696 50       		.byte	0x50
 15829 1697 00000000 		.4byte	0
 15830 169b 00000000 		.4byte	0
 15831              	.LLST152:
 15832 169f 74010000 		.4byte	.LVL654
 15833 16a3 79010000 		.4byte	.LVL655-1
 15834 16a7 0100     		.2byte	0x1
 15835 16a9 50       		.byte	0x50
 15836 16aa 00000000 		.4byte	0
 15837 16ae 00000000 		.4byte	0
 15838              	.LLST153:
 15839 16b2 9C010000 		.4byte	.LVL658
 15840 16b6 A1010000 		.4byte	.LVL659-1
 15841 16ba 0100     		.2byte	0x1
 15842 16bc 50       		.byte	0x50
 15843 16bd 00000000 		.4byte	0
 15844 16c1 00000000 		.4byte	0
 15845              	.LLST154:
 15846 16c5 B8010000 		.4byte	.LVL661
 15847 16c9 C5010000 		.4byte	.LVL662-1
 15848 16cd 0100     		.2byte	0x1
 15849 16cf 50       		.byte	0x50
 15850 16d0 00000000 		.4byte	0
 15851 16d4 00000000 		.4byte	0
 15852              	.LLST155:
ARM GAS  C:\Users\FRANKL~1\AppData\Local\Temp\ccnobXgu.s 			page 313


 15853 16d8 E2010000 		.4byte	.LVL665
 15854 16dc EF010000 		.4byte	.LVL666-1
 15855 16e0 0100     		.2byte	0x1
 15856 16e2 50       		.byte	0x50
 15857 16e3 00000000 		.4byte	0
 15858 16e7 00000000 		.4byte	0
 15859              	.LLST156:
 15860 16eb 1E020000 		.4byte	.LVL672
 15861 16ef 21020000 		.4byte	.LVL673-1
 15862 16f3 0100     		.2byte	0x1
 15863 16f5 50       		.byte	0x50
 15864 16f6 21020000 		.4byte	.LVL673-1
 15865 16fa 2A020000 		.4byte	.LVL675
 15866 16fe 0100     		.2byte	0x1
 15867 1700 54       		.byte	0x54
 15868 1701 00000000 		.4byte	0
 15869 1705 00000000 		.4byte	0
 15870              	.LLST157:
 15871 1709 72020000 		.4byte	.LVL685
 15872 170d 75020000 		.4byte	.LVL686-1
 15873 1711 0100     		.2byte	0x1
 15874 1713 50       		.byte	0x50
 15875 1714 75020000 		.4byte	.LVL686-1
 15876 1718 7E020000 		.4byte	.LVL688
 15877 171c 0100     		.2byte	0x1
 15878 171e 54       		.byte	0x54
 15879 171f 00000000 		.4byte	0
 15880 1723 00000000 		.4byte	0
 15881              	.LLST158:
 15882 1727 C0030000 		.4byte	.LVL711
 15883 172b 02040000 		.4byte	.LVL718
 15884 172f 0100     		.2byte	0x1
 15885 1731 56       		.byte	0x56
 15886 1732 00000000 		.4byte	0
 15887 1736 00000000 		.4byte	0
 15888              	.LLST159:
 15889 173a CA030000 		.4byte	.LVL712
 15890 173e D2030000 		.4byte	.LVL713
 15891 1742 0100     		.2byte	0x1
 15892 1744 50       		.byte	0x50
 15893 1745 D2030000 		.4byte	.LVL713
 15894 1749 D5030000 		.4byte	.LVL714-1
 15895 174d 0100     		.2byte	0x1
 15896 174f 51       		.byte	0x51
 15897 1750 00000000 		.4byte	0
 15898 1754 00000000 		.4byte	0
 15899              	.LLST160:
 15900 1758 58040000 		.4byte	.LVL726
 15901 175c A0040000 		.4byte	.LVL733
 15902 1760 0100     		.2byte	0x1
 15903 1762 56       		.byte	0x56
 15904 1763 00000000 		.4byte	0
 15905 1767 00000000 		.4byte	0
 15906              	.LLST161:
 15907 176b 62040000 		.4byte	.LVL727
 15908 176f 6A040000 		.4byte	.LVL728
 15909 1773 0100     		.2byte	0x1
ARM GAS  C:\Users\FRANKL~1\AppData\Local\Temp\ccnobXgu.s 			page 314


 15910 1775 50       		.byte	0x50
 15911 1776 6A040000 		.4byte	.LVL728
 15912 177a 6D040000 		.4byte	.LVL729-1
 15913 177e 0100     		.2byte	0x1
 15914 1780 51       		.byte	0x51
 15915 1781 00000000 		.4byte	0
 15916 1785 00000000 		.4byte	0
 15917              	.LLST162:
 15918 1789 FA040000 		.4byte	.LVL741
 15919 178d 12050000 		.4byte	.LVL745
 15920 1791 0100     		.2byte	0x1
 15921 1793 56       		.byte	0x56
 15922 1794 00000000 		.4byte	0
 15923 1798 00000000 		.4byte	0
 15924              	.LLST163:
 15925 179c 04050000 		.4byte	.LVL742
 15926 17a0 0C050000 		.4byte	.LVL743
 15927 17a4 0100     		.2byte	0x1
 15928 17a6 50       		.byte	0x50
 15929 17a7 0C050000 		.4byte	.LVL743
 15930 17ab 0F050000 		.4byte	.LVL744-1
 15931 17af 0100     		.2byte	0x1
 15932 17b1 51       		.byte	0x51
 15933 17b2 00000000 		.4byte	0
 15934 17b6 00000000 		.4byte	0
 15935              	.LLST164:
 15936 17ba 6C050000 		.4byte	.LVL754
 15937 17be A4050000 		.4byte	.LVL762
 15938 17c2 0100     		.2byte	0x1
 15939 17c4 55       		.byte	0x55
 15940 17c5 00000000 		.4byte	0
 15941 17c9 00000000 		.4byte	0
 15942              	.LLST165:
 15943 17cd 78050000 		.4byte	.LVL756
 15944 17d1 A4050000 		.4byte	.LVL762
 15945 17d5 0100     		.2byte	0x1
 15946 17d7 56       		.byte	0x56
 15947 17d8 00000000 		.4byte	0
 15948 17dc 00000000 		.4byte	0
 15949              	.LLST166:
 15950 17e0 C8050000 		.4byte	.LVL767
 15951 17e4 00060000 		.4byte	.LVL775
 15952 17e8 0100     		.2byte	0x1
 15953 17ea 55       		.byte	0x55
 15954 17eb 00000000 		.4byte	0
 15955 17ef 00000000 		.4byte	0
 15956              	.LLST167:
 15957 17f3 D4050000 		.4byte	.LVL769
 15958 17f7 00060000 		.4byte	.LVL775
 15959 17fb 0100     		.2byte	0x1
 15960 17fd 56       		.byte	0x56
 15961 17fe 00000000 		.4byte	0
 15962 1802 00000000 		.4byte	0
 15963              	.LLST168:
 15964 1806 24060000 		.4byte	.LVL780
 15965 180a 5C060000 		.4byte	.LVL788
 15966 180e 0100     		.2byte	0x1
ARM GAS  C:\Users\FRANKL~1\AppData\Local\Temp\ccnobXgu.s 			page 315


 15967 1810 55       		.byte	0x55
 15968 1811 00000000 		.4byte	0
 15969 1815 00000000 		.4byte	0
 15970              	.LLST169:
 15971 1819 30060000 		.4byte	.LVL782
 15972 181d 5C060000 		.4byte	.LVL788
 15973 1821 0100     		.2byte	0x1
 15974 1823 56       		.byte	0x56
 15975 1824 00000000 		.4byte	0
 15976 1828 00000000 		.4byte	0
 15977              	.LLST170:
 15978 182c 7E060000 		.4byte	.LVL792
 15979 1830 F0060000 		.4byte	.LVL799
 15980 1834 0100     		.2byte	0x1
 15981 1836 55       		.byte	0x55
 15982 1837 00000000 		.4byte	0
 15983 183b 00000000 		.4byte	0
 15984              	.LLST171:
 15985 183f 52070000 		.4byte	.LVL810
 15986 1843 7A070000 		.4byte	.LVL817
 15987 1847 0100     		.2byte	0x1
 15988 1849 55       		.byte	0x55
 15989 184a 00000000 		.4byte	0
 15990 184e 00000000 		.4byte	0
 15991              	.LLST172:
 15992 1852 9C070000 		.4byte	.LVL821
 15993 1856 C4070000 		.4byte	.LVL828
 15994 185a 0100     		.2byte	0x1
 15995 185c 55       		.byte	0x55
 15996 185d 00000000 		.4byte	0
 15997 1861 00000000 		.4byte	0
 15998              	.LLST173:
 15999 1865 20080000 		.4byte	.LVL838
 16000 1869 2C080000 		.4byte	.LVL840
 16001 186d 0100     		.2byte	0x1
 16002 186f 50       		.byte	0x50
 16003 1870 00000000 		.4byte	0
 16004 1874 00000000 		.4byte	0
 16005              		.section	.debug_aranges,"",%progbits
 16006 0000 84010000 		.4byte	0x184
 16007 0004 0200     		.2byte	0x2
 16008 0006 00000000 		.4byte	.Ldebug_info0
 16009 000a 04       		.byte	0x4
 16010 000b 00       		.byte	0
 16011 000c 0000     		.2byte	0
 16012 000e 0000     		.2byte	0
 16013 0010 00000000 		.4byte	.LFB64
 16014 0014 18000000 		.4byte	.LFE64-.LFB64
 16015 0018 00000000 		.4byte	.LFB65
 16016 001c 1E000000 		.4byte	.LFE65-.LFB65
 16017 0020 00000000 		.4byte	.LFB108
 16018 0024 B0010000 		.4byte	.LFE108-.LFB108
 16019 0028 00000000 		.4byte	.LFB66
 16020 002c 50000000 		.4byte	.LFE66-.LFB66
 16021 0030 00000000 		.4byte	.LFB67
 16022 0034 24000000 		.4byte	.LFE67-.LFB67
 16023 0038 00000000 		.4byte	.LFB68
ARM GAS  C:\Users\FRANKL~1\AppData\Local\Temp\ccnobXgu.s 			page 316


 16024 003c 16000000 		.4byte	.LFE68-.LFB68
 16025 0040 00000000 		.4byte	.LFB69
 16026 0044 58000000 		.4byte	.LFE69-.LFB69
 16027 0048 00000000 		.4byte	.LFB70
 16028 004c 32000000 		.4byte	.LFE70-.LFB70
 16029 0050 00000000 		.4byte	.LFB71
 16030 0054 90010000 		.4byte	.LFE71-.LFB71
 16031 0058 00000000 		.4byte	.LFB72
 16032 005c 3C000000 		.4byte	.LFE72-.LFB72
 16033 0060 00000000 		.4byte	.LFB73
 16034 0064 2C000000 		.4byte	.LFE73-.LFB73
 16035 0068 00000000 		.4byte	.LFB74
 16036 006c 32000000 		.4byte	.LFE74-.LFB74
 16037 0070 00000000 		.4byte	.LFB75
 16038 0074 40000000 		.4byte	.LFE75-.LFB75
 16039 0078 00000000 		.4byte	.LFB76
 16040 007c 40000000 		.4byte	.LFE76-.LFB76
 16041 0080 00000000 		.4byte	.LFB77
 16042 0084 34000000 		.4byte	.LFE77-.LFB77
 16043 0088 00000000 		.4byte	.LFB78
 16044 008c 2C000000 		.4byte	.LFE78-.LFB78
 16045 0090 00000000 		.4byte	.LFB79
 16046 0094 38000000 		.4byte	.LFE79-.LFB79
 16047 0098 00000000 		.4byte	.LFB80
 16048 009c 16000000 		.4byte	.LFE80-.LFB80
 16049 00a0 00000000 		.4byte	.LFB81
 16050 00a4 B6000000 		.4byte	.LFE81-.LFB81
 16051 00a8 00000000 		.4byte	.LFB82
 16052 00ac B6000000 		.4byte	.LFE82-.LFB82
 16053 00b0 00000000 		.4byte	.LFB83
 16054 00b4 B6000000 		.4byte	.LFE83-.LFB83
 16055 00b8 00000000 		.4byte	.LFB84
 16056 00bc 14010000 		.4byte	.LFE84-.LFB84
 16057 00c0 00000000 		.4byte	.LFB85
 16058 00c4 54000000 		.4byte	.LFE85-.LFB85
 16059 00c8 00000000 		.4byte	.LFB86
 16060 00cc 68000000 		.4byte	.LFE86-.LFB86
 16061 00d0 00000000 		.4byte	.LFB87
 16062 00d4 30000000 		.4byte	.LFE87-.LFB87
 16063 00d8 00000000 		.4byte	.LFB88
 16064 00dc 48000000 		.4byte	.LFE88-.LFB88
 16065 00e0 00000000 		.4byte	.LFB89
 16066 00e4 48000000 		.4byte	.LFE89-.LFB89
 16067 00e8 00000000 		.4byte	.LFB90
 16068 00ec 74000000 		.4byte	.LFE90-.LFB90
 16069 00f0 00000000 		.4byte	.LFB91
 16070 00f4 74000000 		.4byte	.LFE91-.LFB91
 16071 00f8 00000000 		.4byte	.LFB92
 16072 00fc 84000000 		.4byte	.LFE92-.LFB92
 16073 0100 00000000 		.4byte	.LFB93
 16074 0104 C8000000 		.4byte	.LFE93-.LFB93
 16075 0108 00000000 		.4byte	.LFB94
 16076 010c C8000000 		.4byte	.LFE94-.LFB94
 16077 0110 00000000 		.4byte	.LFB95
 16078 0114 38000000 		.4byte	.LFE95-.LFB95
 16079 0118 00000000 		.4byte	.LFB96
 16080 011c 38000000 		.4byte	.LFE96-.LFB96
ARM GAS  C:\Users\FRANKL~1\AppData\Local\Temp\ccnobXgu.s 			page 317


 16081 0120 00000000 		.4byte	.LFB97
 16082 0124 14000000 		.4byte	.LFE97-.LFB97
 16083 0128 00000000 		.4byte	.LFB98
 16084 012c 14000000 		.4byte	.LFE98-.LFB98
 16085 0130 00000000 		.4byte	.LFB99
 16086 0134 1C000000 		.4byte	.LFE99-.LFB99
 16087 0138 00000000 		.4byte	.LFB100
 16088 013c E4000000 		.4byte	.LFE100-.LFB100
 16089 0140 00000000 		.4byte	.LFB101
 16090 0144 1A000000 		.4byte	.LFE101-.LFB101
 16091 0148 00000000 		.4byte	.LFB102
 16092 014c 2C000000 		.4byte	.LFE102-.LFB102
 16093 0150 00000000 		.4byte	.LFB103
 16094 0154 AC000000 		.4byte	.LFE103-.LFB103
 16095 0158 00000000 		.4byte	.LFB104
 16096 015c 84000000 		.4byte	.LFE104-.LFB104
 16097 0160 00000000 		.4byte	.LFB105
 16098 0164 98000000 		.4byte	.LFE105-.LFB105
 16099 0168 00000000 		.4byte	.LFB106
 16100 016c 90000000 		.4byte	.LFE106-.LFB106
 16101 0170 00000000 		.4byte	.LFB107
 16102 0174 A4000000 		.4byte	.LFE107-.LFB107
 16103 0178 00000000 		.4byte	.LFB109
 16104 017c BC080000 		.4byte	.LFE109-.LFB109
 16105 0180 00000000 		.4byte	0
 16106 0184 00000000 		.4byte	0
 16107              		.section	.debug_ranges,"",%progbits
 16108              	.Ldebug_ranges0:
 16109 0000 08000000 		.4byte	.LBB6
 16110 0004 16000000 		.4byte	.LBE6
 16111 0008 1E000000 		.4byte	.LBB7
 16112 000c 22000000 		.4byte	.LBE7
 16113 0010 00000000 		.4byte	0
 16114 0014 00000000 		.4byte	0
 16115 0018 06000000 		.4byte	.LBB17
 16116 001c 1A000000 		.4byte	.LBE17
 16117 0020 1C000000 		.4byte	.LBB18
 16118 0024 20000000 		.4byte	.LBE18
 16119 0028 00000000 		.4byte	0
 16120 002c 00000000 		.4byte	0
 16121 0030 0C000000 		.4byte	.LBB21
 16122 0034 0E000000 		.4byte	.LBE21
 16123 0038 14000000 		.4byte	.LBB23
 16124 003c A6000000 		.4byte	.LBE23
 16125 0040 00000000 		.4byte	0
 16126 0044 00000000 		.4byte	0
 16127 0048 0C000000 		.4byte	.LBB24
 16128 004c 0E000000 		.4byte	.LBE24
 16129 0050 14000000 		.4byte	.LBB26
 16130 0054 A6000000 		.4byte	.LBE26
 16131 0058 00000000 		.4byte	0
 16132 005c 00000000 		.4byte	0
 16133 0060 0C000000 		.4byte	.LBB27
 16134 0064 0E000000 		.4byte	.LBE27
 16135 0068 14000000 		.4byte	.LBB29
 16136 006c A6000000 		.4byte	.LBE29
 16137 0070 00000000 		.4byte	0
ARM GAS  C:\Users\FRANKL~1\AppData\Local\Temp\ccnobXgu.s 			page 318


 16138 0074 00000000 		.4byte	0
 16139 0078 22000000 		.4byte	.LBB30
 16140 007c 24000000 		.4byte	.LBE30
 16141 0080 2A000000 		.4byte	.LBB31
 16142 0084 EC000000 		.4byte	.LBE31
 16143 0088 00000000 		.4byte	0
 16144 008c 00000000 		.4byte	0
 16145 0090 2E000000 		.4byte	.LBB35
 16146 0094 40000000 		.4byte	.LBE35
 16147 0098 42000000 		.4byte	.LBB36
 16148 009c 46000000 		.4byte	.LBE36
 16149 00a0 00000000 		.4byte	0
 16150 00a4 00000000 		.4byte	0
 16151 00a8 2E000000 		.4byte	.LBB38
 16152 00ac 40000000 		.4byte	.LBE38
 16153 00b0 42000000 		.4byte	.LBB39
 16154 00b4 46000000 		.4byte	.LBE39
 16155 00b8 00000000 		.4byte	0
 16156 00bc 00000000 		.4byte	0
 16157 00c0 1A000000 		.4byte	.LBB44
 16158 00c4 20000000 		.4byte	.LBE44
 16159 00c8 28000000 		.4byte	.LBB51
 16160 00cc A0000000 		.4byte	.LBE51
 16161 00d0 00000000 		.4byte	0
 16162 00d4 00000000 		.4byte	0
 16163 00d8 1A000000 		.4byte	.LBB45
 16164 00dc 20000000 		.4byte	.LBE45
 16165 00e0 28000000 		.4byte	.LBB50
 16166 00e4 94000000 		.4byte	.LBE50
 16167 00e8 00000000 		.4byte	0
 16168 00ec 00000000 		.4byte	0
 16169 00f0 1A000000 		.4byte	.LBB46
 16170 00f4 20000000 		.4byte	.LBE46
 16171 00f8 4E000000 		.4byte	.LBB49
 16172 00fc 94000000 		.4byte	.LBE49
 16173 0100 00000000 		.4byte	0
 16174 0104 00000000 		.4byte	0
 16175 0108 50000000 		.4byte	.LBB47
 16176 010c 86000000 		.4byte	.LBE47
 16177 0110 88000000 		.4byte	.LBB48
 16178 0114 8C000000 		.4byte	.LBE48
 16179 0118 00000000 		.4byte	0
 16180 011c 00000000 		.4byte	0
 16181 0120 2A000000 		.4byte	.LBB55
 16182 0124 60000000 		.4byte	.LBE55
 16183 0128 62000000 		.4byte	.LBB56
 16184 012c 66000000 		.4byte	.LBE56
 16185 0130 00000000 		.4byte	0
 16186 0134 00000000 		.4byte	0
 16187 0138 00000000 		.4byte	.LFB64
 16188 013c 18000000 		.4byte	.LFE64
 16189 0140 00000000 		.4byte	.LFB65
 16190 0144 1E000000 		.4byte	.LFE65
 16191 0148 00000000 		.4byte	.LFB108
 16192 014c B0010000 		.4byte	.LFE108
 16193 0150 00000000 		.4byte	.LFB66
 16194 0154 50000000 		.4byte	.LFE66
ARM GAS  C:\Users\FRANKL~1\AppData\Local\Temp\ccnobXgu.s 			page 319


 16195 0158 00000000 		.4byte	.LFB67
 16196 015c 24000000 		.4byte	.LFE67
 16197 0160 00000000 		.4byte	.LFB68
 16198 0164 16000000 		.4byte	.LFE68
 16199 0168 00000000 		.4byte	.LFB69
 16200 016c 58000000 		.4byte	.LFE69
 16201 0170 00000000 		.4byte	.LFB70
 16202 0174 32000000 		.4byte	.LFE70
 16203 0178 00000000 		.4byte	.LFB71
 16204 017c 90010000 		.4byte	.LFE71
 16205 0180 00000000 		.4byte	.LFB72
 16206 0184 3C000000 		.4byte	.LFE72
 16207 0188 00000000 		.4byte	.LFB73
 16208 018c 2C000000 		.4byte	.LFE73
 16209 0190 00000000 		.4byte	.LFB74
 16210 0194 32000000 		.4byte	.LFE74
 16211 0198 00000000 		.4byte	.LFB75
 16212 019c 40000000 		.4byte	.LFE75
 16213 01a0 00000000 		.4byte	.LFB76
 16214 01a4 40000000 		.4byte	.LFE76
 16215 01a8 00000000 		.4byte	.LFB77
 16216 01ac 34000000 		.4byte	.LFE77
 16217 01b0 00000000 		.4byte	.LFB78
 16218 01b4 2C000000 		.4byte	.LFE78
 16219 01b8 00000000 		.4byte	.LFB79
 16220 01bc 38000000 		.4byte	.LFE79
 16221 01c0 00000000 		.4byte	.LFB80
 16222 01c4 16000000 		.4byte	.LFE80
 16223 01c8 00000000 		.4byte	.LFB81
 16224 01cc B6000000 		.4byte	.LFE81
 16225 01d0 00000000 		.4byte	.LFB82
 16226 01d4 B6000000 		.4byte	.LFE82
 16227 01d8 00000000 		.4byte	.LFB83
 16228 01dc B6000000 		.4byte	.LFE83
 16229 01e0 00000000 		.4byte	.LFB84
 16230 01e4 14010000 		.4byte	.LFE84
 16231 01e8 00000000 		.4byte	.LFB85
 16232 01ec 54000000 		.4byte	.LFE85
 16233 01f0 00000000 		.4byte	.LFB86
 16234 01f4 68000000 		.4byte	.LFE86
 16235 01f8 00000000 		.4byte	.LFB87
 16236 01fc 30000000 		.4byte	.LFE87
 16237 0200 00000000 		.4byte	.LFB88
 16238 0204 48000000 		.4byte	.LFE88
 16239 0208 00000000 		.4byte	.LFB89
 16240 020c 48000000 		.4byte	.LFE89
 16241 0210 00000000 		.4byte	.LFB90
 16242 0214 74000000 		.4byte	.LFE90
 16243 0218 00000000 		.4byte	.LFB91
 16244 021c 74000000 		.4byte	.LFE91
 16245 0220 00000000 		.4byte	.LFB92
 16246 0224 84000000 		.4byte	.LFE92
 16247 0228 00000000 		.4byte	.LFB93
 16248 022c C8000000 		.4byte	.LFE93
 16249 0230 00000000 		.4byte	.LFB94
 16250 0234 C8000000 		.4byte	.LFE94
 16251 0238 00000000 		.4byte	.LFB95
ARM GAS  C:\Users\FRANKL~1\AppData\Local\Temp\ccnobXgu.s 			page 320


 16252 023c 38000000 		.4byte	.LFE95
 16253 0240 00000000 		.4byte	.LFB96
 16254 0244 38000000 		.4byte	.LFE96
 16255 0248 00000000 		.4byte	.LFB97
 16256 024c 14000000 		.4byte	.LFE97
 16257 0250 00000000 		.4byte	.LFB98
 16258 0254 14000000 		.4byte	.LFE98
 16259 0258 00000000 		.4byte	.LFB99
 16260 025c 1C000000 		.4byte	.LFE99
 16261 0260 00000000 		.4byte	.LFB100
 16262 0264 E4000000 		.4byte	.LFE100
 16263 0268 00000000 		.4byte	.LFB101
 16264 026c 1A000000 		.4byte	.LFE101
 16265 0270 00000000 		.4byte	.LFB102
 16266 0274 2C000000 		.4byte	.LFE102
 16267 0278 00000000 		.4byte	.LFB103
 16268 027c AC000000 		.4byte	.LFE103
 16269 0280 00000000 		.4byte	.LFB104
 16270 0284 84000000 		.4byte	.LFE104
 16271 0288 00000000 		.4byte	.LFB105
 16272 028c 98000000 		.4byte	.LFE105
 16273 0290 00000000 		.4byte	.LFB106
 16274 0294 90000000 		.4byte	.LFE106
 16275 0298 00000000 		.4byte	.LFB107
 16276 029c A4000000 		.4byte	.LFE107
 16277 02a0 00000000 		.4byte	.LFB109
 16278 02a4 BC080000 		.4byte	.LFE109
 16279 02a8 00000000 		.4byte	0
 16280 02ac 00000000 		.4byte	0
 16281              		.section	.debug_line,"",%progbits
 16282              	.Ldebug_line0:
 16283 0000 9A0D0000 		.section	.debug_str,"MS",%progbits,1
 16283      0200D302 
 16283      00000201 
 16283      FB0E0D00 
 16283      01010101 
 16284              	.LASF89:
 16285 0000 696E6372 		.ascii	"increment\000"
 16285      656D656E 
 16285      7400
 16286              	.LASF35:
 16287 000a 636F756E 		.ascii	"count\000"
 16287      7400
 16288              	.LASF217:
 16289 0010 56444143 		.ascii	"VDAC_Vds_Start\000"
 16289      5F566473 
 16289      5F537461 
 16289      727400
 16290              	.LASF33:
 16291 001f 52656365 		.ascii	"ReceiveBuffer\000"
 16291      69766542 
 16291      75666665 
 16291      7200
 16292              	.LASF155:
 16293 002d 73746F70 		.ascii	"stopDevice\000"
 16293      44657669 
 16293      636500
ARM GAS  C:\Users\FRANKL~1\AppData\Local\Temp\ccnobXgu.s 			page 321


 16294              	.LASF104:
 16295 0038 5667735F 		.ascii	"Vgs_minRefRaw\000"
 16295      6D696E52 
 16295      65665261 
 16295      7700
 16296              	.LASF195:
 16297 0046 73707269 		.ascii	"sprintf\000"
 16297      6E746600 
 16298              	.LASF114:
 16299 004e 64656C74 		.ascii	"deltaSigmaSampleCount\000"
 16299      61536967 
 16299      6D615361 
 16299      6D706C65 
 16299      436F756E 
 16300              	.LASF100:
 16301 0064 5365745F 		.ascii	"Set_Vds_Rel\000"
 16301      5664735F 
 16301      52656C00 
 16302              	.LASF158:
 16303 0070 76647369 		.ascii	"vdsi\000"
 16303      00
 16304              	.LASF147:
 16305 0075 77696465 		.ascii	"wide\000"
 16305      00
 16306              	.LASF163:
 16307 007a 73656C65 		.ascii	"selectors\000"
 16307      63746F72 
 16307      7300
 16308              	.LASF182:
 16309 0084 73747273 		.ascii	"strstr\000"
 16309      747200
 16310              	.LASF142:
 16311 008b 73746172 		.ascii	"startGateIndex\000"
 16311      74476174 
 16311      65496E64 
 16311      657800
 16312              	.LASF131:
 16313 009a 64697265 		.ascii	"direction\000"
 16313      6374696F 
 16313      6E00
 16314              	.LASF70:
 16315 00a4 53415231 		.ascii	"SAR1_Result_Current\000"
 16315      5F526573 
 16315      756C745F 
 16315      43757272 
 16315      656E7400 
 16316              	.LASF87:
 16317 00b8 69737461 		.ascii	"istart\000"
 16317      727400
 16318              	.LASF223:
 16319 00bf 4144435F 		.ascii	"ADC_SAR_2_Start\000"
 16319      5341525F 
 16319      325F5374 
 16319      61727400 
 16320              	.LASF120:
 16321 00cf 53415231 		.ascii	"SAR1_Average\000"
 16321      5F417665 
ARM GAS  C:\Users\FRANKL~1\AppData\Local\Temp\ccnobXgu.s 			page 322


 16321      72616765 
 16321      00
 16322              	.LASF116:
 16323 00dc 53415232 		.ascii	"SAR2_SampleCount\000"
 16323      5F53616D 
 16323      706C6543 
 16323      6F756E74 
 16323      00
 16324              	.LASF58:
 16325 00ed 436F6E6E 		.ascii	"Connect_Intermediate\000"
 16325      6563745F 
 16325      496E7465 
 16325      726D6564 
 16325      69617465 
 16326              	.LASF11:
 16327 0102 6C6F6E67 		.ascii	"long long unsigned int\000"
 16327      206C6F6E 
 16327      6720756E 
 16327      7369676E 
 16327      65642069 
 16328              	.LASF48:
 16329 0119 436F6E6E 		.ascii	"Connect_Channel_On_Intermediate\000"
 16329      6563745F 
 16329      4368616E 
 16329      6E656C5F 
 16329      4F6E5F49 
 16330              	.LASF218:
 16331 0139 56444143 		.ascii	"VDAC_Vgs_Start\000"
 16331      5F566773 
 16331      5F537461 
 16331      727400
 16332              	.LASF51:
 16333 0148 436F6E6E 		.ascii	"Connect_Contact_To_Intermediate\000"
 16333      6563745F 
 16333      436F6E74 
 16333      6163745F 
 16333      546F5F49 
 16334              	.LASF98:
 16335 0168 6E65775F 		.ascii	"new_Vgs\000"
 16335      56677300 
 16336              	.LASF76:
 16337 0170 766F6C74 		.ascii	"voltage\000"
 16337      61676500 
 16338              	.LASF92:
 16339 0178 4765745F 		.ascii	"Get_Vgs\000"
 16339      56677300 
 16340              	.LASF219:
 16341 0180 56444143 		.ascii	"VDAC_Ref_Start\000"
 16341      5F526566 
 16341      5F537461 
 16341      727400
 16342              	.LASF162:
 16343 018f 49544D5F 		.ascii	"ITM_RxBuffer\000"
 16343      52784275 
 16343      66666572 
 16343      00
 16344              	.LASF44:
ARM GAS  C:\Users\FRANKL~1\AppData\Local\Temp\ccnobXgu.s 			page 323


 16345 019c 55706461 		.ascii	"Update_Selector\000"
 16345      74655F53 
 16345      656C6563 
 16345      746F7200 
 16346              	.LASF154:
 16347 01ac 73746172 		.ascii	"startDevice\000"
 16347      74446576 
 16347      69636500 
 16348              	.LASF178:
 16349 01b8 55534255 		.ascii	"USBUART_GetConfiguration\000"
 16349      4152545F 
 16349      47657443 
 16349      6F6E6669 
 16349      67757261 
 16350              	.LASF134:
 16351 01d1 4D656173 		.ascii	"Measure_Gate_Sweep_New\000"
 16351      7572655F 
 16351      47617465 
 16351      5F537765 
 16351      65705F4E 
 16352              	.LASF145:
 16353 01e8 67617465 		.ascii	"gateArrived\000"
 16353      41727269 
 16353      76656400 
 16354              	.LASF148:
 16355 01f4 64657669 		.ascii	"device\000"
 16355      636500
 16356              	.LASF66:
 16357 01fb 4144435F 		.ascii	"ADC_Result_Current\000"
 16357      52657375 
 16357      6C745F43 
 16357      75727265 
 16357      6E7400
 16358              	.LASF3:
 16359 020e 6C6F6E67 		.ascii	"long long int\000"
 16359      206C6F6E 
 16359      6720696E 
 16359      7400
 16360              	.LASF5:
 16361 021c 7369676E 		.ascii	"signed char\000"
 16361      65642063 
 16361      68617200 
 16362              	.LASF232:
 16363 0228 73747263 		.ascii	"strchr\000"
 16363      687200
 16364              	.LASF52:
 16365 022f 636F6E74 		.ascii	"contact\000"
 16365      61637400 
 16366              	.LASF160:
 16367 0237 5667735F 		.ascii	"Vgs_mV\000"
 16367      6D5600
 16368              	.LASF189:
 16369 023e 55534255 		.ascii	"USBUART_GetChar\000"
 16369      4152545F 
 16369      47657443 
 16369      68617200 
 16370              	.LASF46:
ARM GAS  C:\Users\FRANKL~1\AppData\Local\Temp\ccnobXgu.s 			page 324


 16371 024e 55534255 		.ascii	"USBUARTH_Maintain_Configuration\000"
 16371      41525448 
 16371      5F4D6169 
 16371      6E746169 
 16371      6E5F436F 
 16372              	.LASF212:
 16373 026e 56444143 		.ascii	"VDAC_Ref_SetValue\000"
 16373      5F526566 
 16373      5F536574 
 16373      56616C75 
 16373      6500
 16374              	.LASF21:
 16375 0280 696E7433 		.ascii	"int32\000"
 16375      3200
 16376              	.LASF225:
 16377 0286 436F6D6D 		.ascii	"CommunicationTimer_Start\000"
 16377      756E6963 
 16377      6174696F 
 16377      6E54696D 
 16377      65725F53 
 16378              	.LASF170:
 16379 029f 55415254 		.ascii	"UART_Rx_Position\000"
 16379      5F52785F 
 16379      506F7369 
 16379      74696F6E 
 16379      00
 16380              	.LASF82:
 16381 02b0 756E6974 		.ascii	"unitConversion\000"
 16381      436F6E76 
 16381      65727369 
 16381      6F6E00
 16382              	.LASF86:
 16383 02bf 48616E64 		.ascii	"Handle_Compliance_Breach\000"
 16383      6C655F43 
 16383      6F6D706C 
 16383      69616E63 
 16383      655F4272 
 16384              	.LASF9:
 16385 02d8 6C6F6E67 		.ascii	"long int\000"
 16385      20696E74 
 16385      00
 16386              	.LASF96:
 16387 02e1 5365745F 		.ascii	"Set_Vgs_Raw\000"
 16387      5667735F 
 16387      52617700 
 16388              	.LASF213:
 16389 02ed 73747274 		.ascii	"strtol\000"
 16389      6F6C00
 16390              	.LASF193:
 16391 02f4 4932435F 		.ascii	"I2C_1_Stop\000"
 16391      315F5374 
 16391      6F7000
 16392              	.LASF216:
 16393 02ff 55415254 		.ascii	"UART_1_Start\000"
 16393      5F315F53 
 16393      74617274 
 16393      00
ARM GAS  C:\Users\FRANKL~1\AppData\Local\Temp\ccnobXgu.s 			page 325


 16394              	.LASF188:
 16395 030c 55534255 		.ascii	"USBUART_PutData\000"
 16395      4152545F 
 16395      50757444 
 16395      61746100 
 16396              	.LASF16:
 16397 031c 75696E74 		.ascii	"uint8\000"
 16397      3800
 16398              	.LASF215:
 16399 0322 55534255 		.ascii	"USBUART_Start\000"
 16399      4152545F 
 16399      53746172 
 16399      7400
 16400              	.LASF62:
 16401 0330 7374616E 		.ascii	"standardDeviation\000"
 16401      64617264 
 16401      44657669 
 16401      6174696F 
 16401      6E00
 16402              	.LASF1:
 16403 0342 646F7562 		.ascii	"double\000"
 16403      6C6500
 16404              	.LASF78:
 16405 0349 63757272 		.ascii	"currentNow\000"
 16405      656E744E 
 16405      6F7700
 16406              	.LASF184:
 16407 0354 55415254 		.ascii	"UART_1_GetChar\000"
 16407      5F315F47 
 16407      65744368 
 16407      617200
 16408              	.LASF220:
 16409 0363 4144435F 		.ascii	"ADC_DelSig_1_Start\000"
 16409      44656C53 
 16409      69675F31 
 16409      5F537461 
 16409      727400
 16410              	.LASF18:
 16411 0376 75696E74 		.ascii	"uint32\000"
 16411      333200
 16412              	.LASF161:
 16413 037d 5664735F 		.ascii	"Vds_mV\000"
 16413      6D5600
 16414              	.LASF61:
 16415 0384 61766572 		.ascii	"average\000"
 16415      61676500 
 16416              	.LASF177:
 16417 038c 55534255 		.ascii	"USBUART_IsConfigurationChanged\000"
 16417      4152545F 
 16417      4973436F 
 16417      6E666967 
 16417      75726174 
 16418              	.LASF55:
 16419 03ab 44697363 		.ascii	"Disconnect_Contact_From_All_Intermediates\000"
 16419      6F6E6E65 
 16419      63745F43 
 16419      6F6E7461 
ARM GAS  C:\Users\FRANKL~1\AppData\Local\Temp\ccnobXgu.s 			page 326


 16419      63745F46 
 16420              	.LASF17:
 16421 03d5 75696E74 		.ascii	"uint16\000"
 16421      313600
 16422              	.LASF27:
 16423 03dc 62757341 		.ascii	"busAddress\000"
 16423      64647265 
 16423      737300
 16424              	.LASF42:
 16425 03e7 53657475 		.ascii	"Setup_Selector_I2C_Struct\000"
 16425      705F5365 
 16425      6C656374 
 16425      6F725F49 
 16425      32435F53 
 16426              	.LASF65:
 16427 0401 4144435F 		.ascii	"ADC_SD\000"
 16427      534400
 16428              	.LASF95:
 16429 0408 76616C75 		.ascii	"value\000"
 16429      6500
 16430              	.LASF77:
 16431 040e 766F6C74 		.ascii	"voltageSD\000"
 16431      61676553 
 16431      4400
 16432              	.LASF109:
 16433 0418 5365745F 		.ascii	"Set_Vds\000"
 16433      56647300 
 16434              	.LASF210:
 16435 0420 56444143 		.ascii	"VDAC_Vds_SetValue\000"
 16435      5F566473 
 16435      5F536574 
 16435      56616C75 
 16435      6500
 16436              	.LASF2:
 16437 0432 756E7369 		.ascii	"unsigned int\000"
 16437      676E6564 
 16437      20696E74 
 16437      00
 16438              	.LASF129:
 16439 043f 4D656173 		.ascii	"Measure_Gate_Sweep\000"
 16439      7572655F 
 16439      47617465 
 16439      5F537765 
 16439      657000
 16440              	.LASF221:
 16441 0452 5449415F 		.ascii	"TIA_1_Start\000"
 16441      315F5374 
 16441      61727400 
 16442              	.LASF180:
 16443 045e 55534255 		.ascii	"USBUART_DataIsReady\000"
 16443      4152545F 
 16443      44617461 
 16443      49735265 
 16443      61647900 
 16444              	.LASF190:
 16445 0472 7374726C 		.ascii	"strlen\000"
 16445      656E00
ARM GAS  C:\Users\FRANKL~1\AppData\Local\Temp\ccnobXgu.s 			page 327


 16446              	.LASF112:
 16447 0479 5A65726F 		.ascii	"Zero_All_DACs\000"
 16447      5F416C6C 
 16447      5F444143 
 16447      7300
 16448              	.LASF106:
 16449 0487 6E657752 		.ascii	"newRefRaw\000"
 16449      65665261 
 16449      7700
 16450              	.LASF130:
 16451 0491 6C6F6F70 		.ascii	"loop\000"
 16451      00
 16452              	.LASF118:
 16453 0496 49647353 		.ascii	"IdsStandardDeviation\000"
 16453      74616E64 
 16453      61726444 
 16453      65766961 
 16453      74696F6E 
 16454              	.LASF197:
 16455 04ab 4932435F 		.ascii	"I2C_1_MasterWriteBuf\000"
 16455      315F4D61 
 16455      73746572 
 16455      57726974 
 16455      65427566 
 16456              	.LASF10:
 16457 04c0 6C6F6E67 		.ascii	"long unsigned int\000"
 16457      20756E73 
 16457      69676E65 
 16457      6420696E 
 16457      7400
 16458              	.LASF137:
 16459 04d2 73746172 		.ascii	"startRefIndex\000"
 16459      74526566 
 16459      496E6465 
 16459      7800
 16460              	.LASF103:
 16461 04e0 5664735F 		.ascii	"Vds_maxRefRaw\000"
 16461      6D617852 
 16461      65665261 
 16461      7700
 16462              	.LASF194:
 16463 04ee 4932435F 		.ascii	"I2C_1_Start\000"
 16463      315F5374 
 16463      61727400 
 16464              	.LASF36:
 16465 04fa 55534255 		.ascii	"USBUARTH_Send\000"
 16465      41525448 
 16465      5F53656E 
 16465      6400
 16466              	.LASF168:
 16467 0508 475F5061 		.ascii	"G_Pause\000"
 16467      75736500 
 16468              	.LASF150:
 16469 0510 636F6E74 		.ascii	"contact2\000"
 16469      61637432 
 16469      00
 16470              	.LASF24:
ARM GAS  C:\Users\FRANKL~1\AppData\Local\Temp\ccnobXgu.s 			page 328


 16471 0519 64617461 		.ascii	"data\000"
 16471      00
 16472              	.LASF8:
 16473 051e 73686F72 		.ascii	"short unsigned int\000"
 16473      7420756E 
 16473      7369676E 
 16473      65642069 
 16473      6E7400
 16474              	.LASF101:
 16475 0531 6162736F 		.ascii	"absolute\000"
 16475      6C757465 
 16475      00
 16476              	.LASF229:
 16477 053a 433A5C55 		.ascii	"C:\\Users\\FranklinLab_PC_1\\Documents\\Python Scri"
 16477      73657273 
 16477      5C467261 
 16477      6E6B6C69 
 16477      6E4C6162 
 16478 0569 7074735C 		.ascii	"pts\\CNT_IV\\PSoC\\Layout 2_14\\Version 4_Full\\Mas"
 16478      434E545F 
 16478      49565C50 
 16478      536F435C 
 16478      4C61796F 
 16479 0597 7465725C 		.ascii	"ter\\Master 1\\Design01.cydsn\000"
 16479      4D617374 
 16479      65722031 
 16479      5C446573 
 16479      69676E30 
 16480              	.LASF19:
 16481 05b3 696E7438 		.ascii	"int8\000"
 16481      00
 16482              	.LASF181:
 16483 05b8 55534255 		.ascii	"USBUART_GetAll\000"
 16483      4152545F 
 16483      47657441 
 16483      6C6C00
 16484              	.LASF196:
 16485 05c7 4932435F 		.ascii	"I2C_1_MasterClearStatus\000"
 16485      315F4D61 
 16485      73746572 
 16485      436C6561 
 16485      72537461 
 16486              	.LASF146:
 16487 05df 5363616E 		.ascii	"Scan\000"
 16487      00
 16488              	.LASF97:
 16489 05e4 5365745F 		.ascii	"Set_Ref_Raw\000"
 16489      5265665F 
 16489      52617700 
 16490              	.LASF59:
 16491 05f0 436F6E6E 		.ascii	"Connect_Intermediates\000"
 16491      6563745F 
 16491      496E7465 
 16491      726D6564 
 16491      69617465 
 16492              	.LASF140:
 16493 0606 72656641 		.ascii	"refArrived\000"
ARM GAS  C:\Users\FRANKL~1\AppData\Local\Temp\ccnobXgu.s 			page 329


 16493      72726976 
 16493      656400
 16494              	.LASF60:
 16495 0611 4144435F 		.ascii	"ADC_Measure_uV\000"
 16495      4D656173 
 16495      7572655F 
 16495      755600
 16496              	.LASF7:
 16497 0620 73686F72 		.ascii	"short int\000"
 16497      7420696E 
 16497      7400
 16498              	.LASF14:
 16499 062a 5F5F696E 		.ascii	"__int32_t\000"
 16499      7433325F 
 16499      7400
 16500              	.LASF39:
 16501 0634 55534255 		.ascii	"USBUARTH_Receive_Until\000"
 16501      41525448 
 16501      5F526563 
 16501      65697665 
 16501      5F556E74 
 16502              	.LASF72:
 16503 064b 53415232 		.ascii	"SAR2_Result_Current\000"
 16503      5F526573 
 16503      756C745F 
 16503      43757272 
 16503      656E7400 
 16504              	.LASF124:
 16505 065f 53415231 		.ascii	"SAR1\000"
 16505      00
 16506              	.LASF125:
 16507 0664 53415232 		.ascii	"SAR2\000"
 16507      00
 16508              	.LASF176:
 16509 0669 43757272 		.ascii	"Current_Measurement_Sample_Count\000"
 16509      656E745F 
 16509      4D656173 
 16509      7572656D 
 16509      656E745F 
 16510              	.LASF25:
 16511 068a 77726974 		.ascii	"write\000"
 16511      6500
 16512              	.LASF121:
 16513 0690 53415231 		.ascii	"SAR1_SD\000"
 16513      5F534400 
 16514              	.LASF151:
 16515 0698 696E7465 		.ascii	"intermediate1\000"
 16515      726D6564 
 16515      69617465 
 16515      3100
 16516              	.LASF152:
 16517 06a6 696E7465 		.ascii	"intermediate2\000"
 16517      726D6564 
 16517      69617465 
 16517      3200
 16518              	.LASF132:
 16519 06b4 4D656173 		.ascii	"Measure_Wide_Gate_Sweep\000"
ARM GAS  C:\Users\FRANKL~1\AppData\Local\Temp\ccnobXgu.s 			page 330


 16519      7572655F 
 16519      57696465 
 16519      5F476174 
 16519      655F5377 
 16520              	.LASF67:
 16521 06cc 53415231 		.ascii	"SAR1_Measure_V\000"
 16521      5F4D6561 
 16521      73757265 
 16521      5F5600
 16522              	.LASF141:
 16523 06db 67617465 		.ascii	"gateIncrement\000"
 16523      496E6372 
 16523      656D656E 
 16523      7400
 16524              	.LASF12:
 16525 06e9 73697A65 		.ascii	"sizetype\000"
 16525      74797065 
 16525      00
 16526              	.LASF157:
 16527 06f2 76677369 		.ascii	"vgsi\000"
 16527      00
 16528              	.LASF83:
 16529 06f7 41745F43 		.ascii	"At_Compliance\000"
 16529      6F6D706C 
 16529      69616E63 
 16529      6500
 16530              	.LASF214:
 16531 0705 73736361 		.ascii	"sscanf\000"
 16531      6E6600
 16532              	.LASF135:
 16533 070c 72656654 		.ascii	"refTurn\000"
 16533      75726E00 
 16534              	.LASF201:
 16535 0714 4144435F 		.ascii	"ADC_DelSig_1_CountsTo_uVolts\000"
 16535      44656C53 
 16535      69675F31 
 16535      5F436F75 
 16535      6E747354 
 16536              	.LASF205:
 16537 0731 4144435F 		.ascii	"ADC_SAR_1_CountsTo_uVolts\000"
 16537      5341525F 
 16537      315F436F 
 16537      756E7473 
 16537      546F5F75 
 16538              	.LASF85:
 16539 074b 63757272 		.ascii	"currentSD\000"
 16539      656E7453 
 16539      4400
 16540              	.LASF23:
 16541 0755 73756241 		.ascii	"subAddress\000"
 16541      64647265 
 16541      737300
 16542              	.LASF75:
 16543 0760 63757272 		.ascii	"currentStdDevIn\000"
 16543      656E7453 
 16543      74644465 
 16543      76496E00 
ARM GAS  C:\Users\FRANKL~1\AppData\Local\Temp\ccnobXgu.s 			page 331


 16544              	.LASF207:
 16545 0770 4144435F 		.ascii	"ADC_SAR_2_IsEndConversion\000"
 16545      5341525F 
 16545      325F4973 
 16545      456E6443 
 16545      6F6E7665 
 16546              	.LASF159:
 16547 078a 73756363 		.ascii	"success\000"
 16547      65737300 
 16548              	.LASF79:
 16549 0792 63757272 		.ascii	"currentAverage\000"
 16549      656E7441 
 16549      76657261 
 16549      676500
 16550              	.LASF222:
 16551 07a1 4144435F 		.ascii	"ADC_SAR_1_Start\000"
 16551      5341525F 
 16551      315F5374 
 16551      61727400 
 16552              	.LASF228:
 16553 07b1 6D61696E 		.ascii	"main.c\000"
 16553      2E6300
 16554              	.LASF175:
 16555 07b8 5664735F 		.ascii	"Vds_Index_Goal_Relative\000"
 16555      496E6465 
 16555      785F476F 
 16555      616C5F52 
 16555      656C6174 
 16556              	.LASF174:
 16557 07d0 5667735F 		.ascii	"Vgs_Index_Goal_Relative\000"
 16557      496E6465 
 16557      785F476F 
 16557      616C5F52 
 16557      656C6174 
 16558              	.LASF84:
 16559 07e8 63757272 		.ascii	"current\000"
 16559      656E7400 
 16560              	.LASF144:
 16561 07f0 67617465 		.ascii	"gateIndex\000"
 16561      496E6465 
 16561      7800
 16562              	.LASF102:
 16563 07fa 5664735F 		.ascii	"Vds_minRefRaw\000"
 16563      6D696E52 
 16563      65665261 
 16563      7700
 16564              	.LASF233:
 16565 0808 5F5F6275 		.ascii	"__builtin_strchr\000"
 16565      696C7469 
 16565      6E5F7374 
 16565      72636872 
 16565      00
 16566              	.LASF171:
 16567 0819 55534255 		.ascii	"USBUART_Receive_Buffer\000"
 16567      4152545F 
 16567      52656365 
 16567      6976655F 
ARM GAS  C:\Users\FRANKL~1\AppData\Local\Temp\ccnobXgu.s 			page 332


 16567      42756666 
 16568              	.LASF105:
 16569 0830 5667735F 		.ascii	"Vgs_maxRefRaw\000"
 16569      6D617852 
 16569      65665261 
 16569      7700
 16570              	.LASF0:
 16571 083e 666C6F61 		.ascii	"float\000"
 16571      7400
 16572              	.LASF192:
 16573 0844 55415254 		.ascii	"UART_1_PutString\000"
 16573      5F315F50 
 16573      75745374 
 16573      72696E67 
 16573      00
 16574              	.LASF149:
 16575 0855 636F6E74 		.ascii	"contact1\000"
 16575      61637431 
 16575      00
 16576              	.LASF136:
 16577 085e 72656649 		.ascii	"refIncrement\000"
 16577      6E637265 
 16577      6D656E74 
 16577      00
 16578              	.LASF186:
 16579 086b 436F6D6D 		.ascii	"CommunicationTimer_ReadStatusRegister\000"
 16579      756E6963 
 16579      6174696F 
 16579      6E54696D 
 16579      65725F52 
 16580              	.LASF143:
 16581 0891 656E6447 		.ascii	"endGateIndex\000"
 16581      61746549 
 16581      6E646578 
 16581      00
 16582              	.LASF22:
 16583 089e 72656738 		.ascii	"reg8\000"
 16583      00
 16584              	.LASF139:
 16585 08a3 72656649 		.ascii	"refIndex\000"
 16585      6E646578 
 16585      00
 16586              	.LASF88:
 16587 08ac 6973746F 		.ascii	"istop\000"
 16587      7000
 16588              	.LASF15:
 16589 08b2 696E7433 		.ascii	"int32_t\000"
 16589      325F7400 
 16590              	.LASF6:
 16591 08ba 756E7369 		.ascii	"unsigned char\000"
 16591      676E6564 
 16591      20636861 
 16591      7200
 16592              	.LASF30:
 16593 08c8 74726965 		.ascii	"tries\000"
 16593      7300
 16594              	.LASF38:
ARM GAS  C:\Users\FRANKL~1\AppData\Local\Temp\ccnobXgu.s 			page 333


 16595 08ce 55534255 		.ascii	"USBUARTH_GetChar\000"
 16595      41525448 
 16595      5F476574 
 16595      43686172 
 16595      00
 16596              	.LASF54:
 16597 08df 44697363 		.ascii	"Disconnect_Contact_From_Intermediate\000"
 16597      6F6E6E65 
 16597      63745F43 
 16597      6F6E7461 
 16597      63745F46 
 16598              	.LASF41:
 16599 0904 7465726D 		.ascii	"termination\000"
 16599      696E6174 
 16599      696F6E00 
 16600              	.LASF183:
 16601 0910 55415254 		.ascii	"UART_1_GetRxBufferSize\000"
 16601      5F315F47 
 16601      65745278 
 16601      42756666 
 16601      65725369 
 16602              	.LASF187:
 16603 0927 55534255 		.ascii	"USBUART_CDCIsReady\000"
 16603      4152545F 
 16603      43444349 
 16603      73526561 
 16603      647900
 16604              	.LASF90:
 16605 093a 4765745F 		.ascii	"Get_Ref\000"
 16605      52656600 
 16606              	.LASF110:
 16607 0942 5365745F 		.ascii	"Set_Vgs_mV\000"
 16607      5667735F 
 16607      6D5600
 16608              	.LASF209:
 16609 094d 4144435F 		.ascii	"ADC_SAR_2_CountsTo_uVolts\000"
 16609      5341525F 
 16609      325F436F 
 16609      756E7473 
 16609      546F5F75 
 16610              	.LASF226:
 16611 0967 436F6D6D 		.ascii	"CommunicationInterrupt_StartEx\000"
 16611      756E6963 
 16611      6174696F 
 16611      6E496E74 
 16611      65727275 
 16612              	.LASF227:
 16613 0986 474E5520 		.ascii	"GNU C11 5.4.1 20160609 (release) [ARM/embedded-5-br"
 16613      43313120 
 16613      352E342E 
 16613      31203230 
 16613      31363036 
 16614 09b9 616E6368 		.ascii	"anch revision 237715] -mcpu=cortex-m3 -mthumb -g -O"
 16614      20726576 
 16614      6973696F 
 16614      6E203233 
 16614      37373135 
ARM GAS  C:\Users\FRANKL~1\AppData\Local\Temp\ccnobXgu.s 			page 334


 16615 09ec 67202D66 		.ascii	"g -ffunction-sections -ffat-lto-objects\000"
 16615      66756E63 
 16615      74696F6E 
 16615      2D736563 
 16615      74696F6E 
 16616              	.LASF117:
 16617 0a14 49647341 		.ascii	"IdsAverage\000"
 16617      76657261 
 16617      676500
 16618              	.LASF107:
 16619 0a1f 5365745F 		.ascii	"Set_Vgs_Rel\000"
 16619      5667735F 
 16619      52656C00 
 16620              	.LASF99:
 16621 0a2b 6E65775F 		.ascii	"new_Vds\000"
 16621      56647300 
 16622              	.LASF204:
 16623 0a33 4144435F 		.ascii	"ADC_SAR_1_GetResult16\000"
 16623      5341525F 
 16623      315F4765 
 16623      74526573 
 16623      756C7431 
 16624              	.LASF198:
 16625 0a49 4144435F 		.ascii	"ADC_DelSig_1_StartConvert\000"
 16625      44656C53 
 16625      69675F31 
 16625      5F537461 
 16625      7274436F 
 16626              	.LASF108:
 16627 0a63 5365745F 		.ascii	"Set_Vgs\000"
 16627      56677300 
 16628              	.LASF128:
 16629 0a6b 56677369 		.ascii	"Vgsi\000"
 16629      00
 16630              	.LASF179:
 16631 0a70 55534255 		.ascii	"USBUART_CDC_Init\000"
 16631      4152545F 
 16631      4344435F 
 16631      496E6974 
 16631      00
 16632              	.LASF156:
 16633 0a81 6C6F6361 		.ascii	"location\000"
 16633      74696F6E 
 16633      00
 16634              	.LASF4:
 16635 0a8a 6C6F6E67 		.ascii	"long double\000"
 16635      20646F75 
 16635      626C6500 
 16636              	.LASF200:
 16637 0a96 4144435F 		.ascii	"ADC_DelSig_1_GetResult32\000"
 16637      44656C53 
 16637      69675F31 
 16637      5F476574 
 16637      52657375 
 16638              	.LASF74:
 16639 0aaf 63757272 		.ascii	"currentAverageIn\000"
 16639      656E7441 
ARM GAS  C:\Users\FRANKL~1\AppData\Local\Temp\ccnobXgu.s 			page 335


 16639      76657261 
 16639      6765496E 
 16639      00
 16640              	.LASF13:
 16641 0ac0 63686172 		.ascii	"char\000"
 16641      00
 16642              	.LASF165:
 16643 0ac5 6E657744 		.ascii	"newData\000"
 16643      61746100 
 16644              	.LASF29:
 16645 0acd 436F6D6D 		.ascii	"CommunicationHandlerISR\000"
 16645      756E6963 
 16645      6174696F 
 16645      6E48616E 
 16645      646C6572 
 16646              	.LASF69:
 16647 0ae5 5341525F 		.ascii	"SAR_SD\000"
 16647      534400
 16648              	.LASF94:
 16649 0aec 5365745F 		.ascii	"Set_Vds_Raw\000"
 16649      5664735F 
 16649      52617700 
 16650              	.LASF122:
 16651 0af8 53415232 		.ascii	"SAR2_Average\000"
 16651      5F417665 
 16651      72616765 
 16651      00
 16652              	.LASF63:
 16653 0b05 73616D70 		.ascii	"sampleCount\000"
 16653      6C65436F 
 16653      756E7400 
 16654              	.LASF230:
 16655 0b11 53656C65 		.ascii	"Selector_I2C_Struct\000"
 16655      63746F72 
 16655      5F493243 
 16655      5F537472 
 16655      75637400 
 16656              	.LASF111:
 16657 0b25 5365745F 		.ascii	"Set_Vds_mV\000"
 16657      5664735F 
 16657      6D5600
 16658              	.LASF34:
 16659 0b30 62756666 		.ascii	"buffer\000"
 16659      657200
 16660              	.LASF119:
 16661 0b37 49647341 		.ascii	"IdsAverageAmps\000"
 16661      76657261 
 16661      6765416D 
 16661      707300
 16662              	.LASF206:
 16663 0b46 4144435F 		.ascii	"ADC_SAR_2_StartConvert\000"
 16663      5341525F 
 16663      325F5374 
 16663      61727443 
 16663      6F6E7665 
 16664              	.LASF81:
 16665 0b5d 5449415F 		.ascii	"TIA_Feedback_R\000"
ARM GAS  C:\Users\FRANKL~1\AppData\Local\Temp\ccnobXgu.s 			page 336


 16665      46656564 
 16665      6261636B 
 16665      5F5200
 16666              	.LASF53:
 16667 0b6c 6F666673 		.ascii	"offset\000"
 16667      657400
 16668              	.LASF224:
 16669 0b73 43794465 		.ascii	"CyDelay\000"
 16669      6C617900 
 16670              	.LASF166:
 16671 0b7b 475F5374 		.ascii	"G_Stop\000"
 16671      6F7000
 16672              	.LASF211:
 16673 0b82 56444143 		.ascii	"VDAC_Vgs_SetValue\000"
 16673      5F566773 
 16673      5F536574 
 16673      56616C75 
 16673      6500
 16674              	.LASF126:
 16675 0b94 4D656173 		.ascii	"Measure_Multiple\000"
 16675      7572655F 
 16675      4D756C74 
 16675      69706C65 
 16675      00
 16676              	.LASF115:
 16677 0ba5 53415231 		.ascii	"SAR1_SampleCount\000"
 16677      5F53616D 
 16677      706C6543 
 16677      6F756E74 
 16677      00
 16678              	.LASF31:
 16679 0bb6 74656D70 		.ascii	"temp_buffer\000"
 16679      5F627566 
 16679      66657200 
 16680              	.LASF73:
 16681 0bc2 4D656173 		.ascii	"Measure_Current_Vss\000"
 16681      7572655F 
 16681      43757272 
 16681      656E745F 
 16681      56737300 
 16682              	.LASF93:
 16683 0bd6 4765745F 		.ascii	"Get_Vds\000"
 16683      56647300 
 16684              	.LASF47:
 16685 0bde 53657475 		.ascii	"Setup_Selectors\000"
 16685      705F5365 
 16685      6C656374 
 16685      6F727300 
 16686              	.LASF167:
 16687 0bee 475F4272 		.ascii	"G_Break\000"
 16687      65616B00 
 16688              	.LASF164:
 16689 0bf6 5472616E 		.ascii	"TransmitBuffer\000"
 16689      736D6974 
 16689      42756666 
 16689      657200
 16690              	.LASF199:
ARM GAS  C:\Users\FRANKL~1\AppData\Local\Temp\ccnobXgu.s 			page 337


 16691 0c05 4144435F 		.ascii	"ADC_DelSig_1_IsEndConversion\000"
 16691      44656C53 
 16691      69675F31 
 16691      5F497345 
 16691      6E64436F 
 16692              	.LASF57:
 16693 0c22 44697363 		.ascii	"Disconnect_All_Contacts_From_Intermediate\000"
 16693      6F6E6E65 
 16693      63745F41 
 16693      6C6C5F43 
 16693      6F6E7461 
 16694              	.LASF127:
 16695 0c4c 4D656173 		.ascii	"Measure_Sweep\000"
 16695      7572655F 
 16695      53776565 
 16695      7000
 16696              	.LASF203:
 16697 0c5a 4144435F 		.ascii	"ADC_SAR_1_IsEndConversion\000"
 16697      5341525F 
 16697      315F4973 
 16697      456E6443 
 16697      6F6E7665 
 16698              	.LASF80:
 16699 0c74 63757272 		.ascii	"currentStdDev\000"
 16699      656E7453 
 16699      74644465 
 16699      7600
 16700              	.LASF50:
 16701 0c82 696E7465 		.ascii	"intermediate\000"
 16701      726D6564 
 16701      69617465 
 16701      00
 16702              	.LASF43:
 16703 0c8f 73656C65 		.ascii	"selector\000"
 16703      63746F72 
 16703      00
 16704              	.LASF64:
 16705 0c98 4144435F 		.ascii	"ADC_Result\000"
 16705      52657375 
 16705      6C7400
 16706              	.LASF49:
 16707 0ca3 6368616E 		.ascii	"channel\000"
 16707      6E656C00 
 16708              	.LASF40:
 16709 0cab 6D61784C 		.ascii	"maxLength\000"
 16709      656E6774 
 16709      6800
 16710              	.LASF32:
 16711 0cb5 74656D70 		.ascii	"temp_count\000"
 16711      5F636F75 
 16711      6E7400
 16712              	.LASF20:
 16713 0cc0 696E7431 		.ascii	"int16\000"
 16713      3600
 16714              	.LASF153:
 16715 0cc6 5363616E 		.ascii	"Scan_Range\000"
 16715      5F52616E 
ARM GAS  C:\Users\FRANKL~1\AppData\Local\Temp\ccnobXgu.s 			page 338


 16715      676500
 16716              	.LASF123:
 16717 0cd1 53415232 		.ascii	"SAR2_SD\000"
 16717      5F534400 
 16718              	.LASF26:
 16719 0cd9 72656164 		.ascii	"read\000"
 16719      00
 16720              	.LASF133:
 16721 0cde 73706565 		.ascii	"speed\000"
 16721      6400
 16722              	.LASF138:
 16723 0ce4 656E6452 		.ascii	"endRefIndex\000"
 16723      6566496E 
 16723      64657800 
 16724              	.LASF45:
 16725 0cf0 73656C65 		.ascii	"selectori\000"
 16725      63746F72 
 16725      6900
 16726              	.LASF169:
 16727 0cfa 55415254 		.ascii	"UART_Receive_Buffer\000"
 16727      5F526563 
 16727      65697665 
 16727      5F427566 
 16727      66657200 
 16728              	.LASF28:
 16729 0d0e 55534255 		.ascii	"USBUARTH_DataIsReady\000"
 16729      41525448 
 16729      5F446174 
 16729      61497352 
 16729      65616479 
 16730              	.LASF71:
 16731 0d23 53415232 		.ascii	"SAR2_Measure_V\000"
 16731      5F4D6561 
 16731      73757265 
 16731      5F5600
 16732              	.LASF173:
 16733 0d32 436F6D70 		.ascii	"Compliance_Reached\000"
 16733      6C69616E 
 16733      63655F52 
 16733      65616368 
 16733      656400
 16734              	.LASF56:
 16735 0d45 44697363 		.ascii	"Disconnect_All_Contacts_From_All_Intermediates\000"
 16735      6F6E6E65 
 16735      63745F41 
 16735      6C6C5F43 
 16735      6F6E7461 
 16736              	.LASF202:
 16737 0d74 4144435F 		.ascii	"ADC_SAR_1_StartConvert\000"
 16737      5341525F 
 16737      315F5374 
 16737      61727443 
 16737      6F6E7665 
 16738              	.LASF208:
 16739 0d8b 4144435F 		.ascii	"ADC_SAR_2_GetResult16\000"
 16739      5341525F 
 16739      325F4765 
ARM GAS  C:\Users\FRANKL~1\AppData\Local\Temp\ccnobXgu.s 			page 339


 16739      74526573 
 16739      756C7431 
 16740              	.LASF172:
 16741 0da1 55534255 		.ascii	"USBUART_Rx_Position\000"
 16741      4152545F 
 16741      52785F50 
 16741      6F736974 
 16741      696F6E00 
 16742              	.LASF37:
 16743 0db5 55534255 		.ascii	"USBUARTH_Receive\000"
 16743      41525448 
 16743      5F526563 
 16743      65697665 
 16743      00
 16744              	.LASF231:
 16745 0dc6 6D61696E 		.ascii	"main\000"
 16745      00
 16746              	.LASF68:
 16747 0dcb 5341525F 		.ascii	"SAR_Result\000"
 16747      52657375 
 16747      6C7400
 16748              	.LASF91:
 16749 0dd6 72657375 		.ascii	"result\000"
 16749      6C7400
 16750              	.LASF185:
 16751 0ddd 436F6D6D 		.ascii	"CommunicationInterrupt_ClearPending\000"
 16751      756E6963 
 16751      6174696F 
 16751      6E496E74 
 16751      65727275 
 16752              	.LASF191:
 16753 0e01 4932435F 		.ascii	"I2C_1_MasterStatus\000"
 16753      315F4D61 
 16753      73746572 
 16753      53746174 
 16753      757300
 16754              	.LASF113:
 16755 0e14 4D656173 		.ascii	"Measure\000"
 16755      75726500 
 16756              		.ident	"GCC: (GNU Tools for ARM Embedded Processors) 5.4.1 20160609 (release) [ARM/embedded-5-bran
