ARM GAS  C:\Users\FRANKL~1\AppData\Local\Temp\ccCAoJJX.s 			page 1


   1              		.syntax unified
   2              		.cpu cortex-m3
   3              		.fpu softvfp
   4              		.eabi_attribute 20, 1
   5              		.eabi_attribute 21, 1
   6              		.eabi_attribute 23, 3
   7              		.eabi_attribute 24, 1
   8              		.eabi_attribute 25, 1
   9              		.eabi_attribute 26, 1
  10              		.eabi_attribute 30, 1
  11              		.eabi_attribute 34, 1
  12              		.eabi_attribute 18, 4
  13              		.thumb
  14              		.syntax unified
  15              		.file	"main.c"
  16              		.text
  17              	.Ltext0:
  18              		.cfi_sections	.debug_frame
  19              		.syntax unified
  20              		.global _printf_float
  21              		.thumb
  22              		.syntax unified
  23              		.section	.text.USBUARTH_Maintain_Configuration,"ax",%progbits
  24              		.align	2
  25              		.global	USBUARTH_Maintain_Configuration
  26              		.thumb
  27              		.thumb_func
  28              		.type	USBUARTH_Maintain_Configuration, %function
  29              	USBUARTH_Maintain_Configuration:
  30              	.LFB64:
  31              		.file 1 "USBUART_Helpers.h"
   1:USBUART_Helpers.h **** #include "project.h"
   2:USBUART_Helpers.h **** #include "stdio.h"
   3:USBUART_Helpers.h **** 
   4:USBUART_Helpers.h **** #if defined (__GNUC__)
   5:USBUART_Helpers.h **** 	/* Add an explicit reference to the floating point printf library */
   6:USBUART_Helpers.h **** 	/* to allow usage of the floating point conversion specifiers. */
   7:USBUART_Helpers.h **** 	/* This is not linked in by default with the newlib-nano library. */
   8:USBUART_Helpers.h **** 	asm (".global _printf_float");
   9:USBUART_Helpers.h **** #endif
  10:USBUART_Helpers.h **** 
  11:USBUART_Helpers.h **** // The buffer size is equal to the maximum packet size of the IN and OUT bulk endpoints.
  12:USBUART_Helpers.h **** #define USBUART_BUFFER_SIZE	(64u)
  13:USBUART_Helpers.h **** #define LINE_STR_LENGTH		(20u)
  14:USBUART_Helpers.h **** 
  15:USBUART_Helpers.h **** 
  16:USBUART_Helpers.h **** void USBUARTH_Maintain_Configuration() {
  32              		.loc 1 16 0
  33              		.cfi_startproc
  34              		@ args = 0, pretend = 0, frame = 0
  35              		@ frame_needed = 0, uses_anonymous_args = 0
  36 0000 08B5     		push	{r3, lr}
  37              		.cfi_def_cfa_offset 8
  38              		.cfi_offset 3, -8
  39              		.cfi_offset 14, -4
  40              	.LVL0:
  17:USBUART_Helpers.h **** 	unsigned long tries = 0;
ARM GAS  C:\Users\FRANKL~1\AppData\Local\Temp\ccCAoJJX.s 			page 2


  18:USBUART_Helpers.h **** 	
  19:USBUART_Helpers.h **** 	do {
  20:USBUART_Helpers.h **** 		// Host can send double SET_INTERFACE request.
  21:USBUART_Helpers.h **** 		if (USBUART_IsConfigurationChanged()) {
  41              		.loc 1 21 0
  42 0002 FFF7FEFF 		bl	USBUART_IsConfigurationChanged
  43              	.LVL1:
  44 0006 20B1     		cbz	r0, .L2
  22:USBUART_Helpers.h **** 			// Initialize IN endpoints when device is configured.
  23:USBUART_Helpers.h **** 			if (USBUART_GetConfiguration()) {
  45              		.loc 1 23 0
  46 0008 FFF7FEFF 		bl	USBUART_GetConfiguration
  47              	.LVL2:
  48 000c 08B1     		cbz	r0, .L2
  24:USBUART_Helpers.h **** 				// Enumeration is done, enable OUT endpoint to receive data from host.
  25:USBUART_Helpers.h **** 				USBUART_CDC_Init();
  49              		.loc 1 25 0
  50 000e FFF7FEFF 		bl	USBUART_CDC_Init
  51              	.LVL3:
  52              	.L2:
  26:USBUART_Helpers.h **** 			}
  27:USBUART_Helpers.h **** 		}
  28:USBUART_Helpers.h **** 		
  29:USBUART_Helpers.h **** 		tries++;
  30:USBUART_Helpers.h **** 	// Keep trying until USB CDC device is configured
  31:USBUART_Helpers.h **** 	} while (!USBUART_GetConfiguration() && tries < 1);
  53              		.loc 1 31 0
  54 0012 FFF7FEFF 		bl	USBUART_GetConfiguration
  55              	.LVL4:
  56 0016 08BD     		pop	{r3, pc}
  57              		.cfi_endproc
  58              	.LFE64:
  59              		.size	USBUARTH_Maintain_Configuration, .-USBUARTH_Maintain_Configuration
  60              		.section	.text.USBUARTH_DataIsReady,"ax",%progbits
  61              		.align	2
  62              		.global	USBUARTH_DataIsReady
  63              		.thumb
  64              		.thumb_func
  65              		.type	USBUARTH_DataIsReady, %function
  66              	USBUARTH_DataIsReady:
  67              	.LFB65:
  32:USBUART_Helpers.h **** }
  33:USBUART_Helpers.h **** 
  34:USBUART_Helpers.h **** uint8 USBUARTH_DataIsReady() {
  68              		.loc 1 34 0
  69              		.cfi_startproc
  70              		@ args = 0, pretend = 0, frame = 0
  71              		@ frame_needed = 0, uses_anonymous_args = 0
  72 0000 08B5     		push	{r3, lr}
  73              		.cfi_def_cfa_offset 8
  74              		.cfi_offset 3, -8
  75              		.cfi_offset 14, -4
  35:USBUART_Helpers.h **** 	USBUARTH_Maintain_Configuration();
  76              		.loc 1 35 0
  77 0002 FFF7FEFF 		bl	USBUARTH_Maintain_Configuration
  78              	.LVL5:
  36:USBUART_Helpers.h **** 	
ARM GAS  C:\Users\FRANKL~1\AppData\Local\Temp\ccCAoJJX.s 			page 3


  37:USBUART_Helpers.h **** 	return USBUART_GetConfiguration() && USBUART_DataIsReady();
  79              		.loc 1 37 0
  80 0006 FFF7FEFF 		bl	USBUART_GetConfiguration
  81              	.LVL6:
  82 000a 20B1     		cbz	r0, .L6
  83              		.loc 1 37 0 is_stmt 0 discriminator 1
  84 000c FFF7FEFF 		bl	USBUART_DataIsReady
  85              	.LVL7:
  86 0010 18B1     		cbz	r0, .L7
  87              		.loc 1 37 0
  88 0012 0120     		movs	r0, #1
  89 0014 08BD     		pop	{r3, pc}
  90              	.L6:
  91 0016 0020     		movs	r0, #0
  92 0018 08BD     		pop	{r3, pc}
  93              	.L7:
  94 001a 0020     		movs	r0, #0
  38:USBUART_Helpers.h **** }
  95              		.loc 1 38 0 is_stmt 1
  96 001c 08BD     		pop	{r3, pc}
  97              		.cfi_endproc
  98              	.LFE65:
  99              		.size	USBUARTH_DataIsReady, .-USBUARTH_DataIsReady
 100 001e 00BF     		.section	.text.CommunicationHandlerISR,"ax",%progbits
 101              		.align	2
 102              		.global	CommunicationHandlerISR
 103              		.thumb
 104              		.thumb_func
 105              		.type	CommunicationHandlerISR, %function
 106              	CommunicationHandlerISR:
 107              	.LFB116:
 108              		.file 2 "main.c"
   1:main.c        **** #include <stdlib.h>
   2:main.c        **** #include <stdio.h>
   3:main.c        **** #include <stdbool.h>
   4:main.c        **** #include "project.h"
   5:main.c        **** #include "USBUART_Helpers.h"
   6:main.c        **** 
   7:main.c        **** 
   8:main.c        **** struct Selector_I2C_Struct {
   9:main.c        **** 	struct {
  10:main.c        **** 		uint8 subAddress;
  11:main.c        **** 		uint8 data[126];
  12:main.c        **** 	} write;
  13:main.c        **** 	struct {
  14:main.c        **** 		uint8 subAddress;
  15:main.c        **** 		uint8 data[126];
  16:main.c        **** 	} read;
  17:main.c        **** 	uint8 busAddress;
  18:main.c        **** };
  19:main.c        **** 
  20:main.c        **** 
  21:main.c        **** // Globals ----------------------------------------------
  22:main.c        **** #define SELECTOR_COUNT (4u)
  23:main.c        **** #define INTERMEDIATE_COUNT (4u)
  24:main.c        **** #define CONTACT_COUNT (64u)
  25:main.c        **** #define CHANNEL_COUNT (34u)
ARM GAS  C:\Users\FRANKL~1\AppData\Local\Temp\ccCAoJJX.s 			page 4


  26:main.c        **** #define CONTACT_CONNECT_CODE (0xC0u)
  27:main.c        **** #define CONTACT_DISCONNECT_CODE (0xD1u)
  28:main.c        **** #define COMPLIANCE_CURRENT_LIMIT (10e-6)
  29:main.c        **** 
  30:main.c        **** struct Selector_I2C_Struct selectors[SELECTOR_COUNT];
  31:main.c        **** char TransmitBuffer[USBUART_BUFFER_SIZE];
  32:main.c        **** 
  33:main.c        **** volatile uint8 newData = 0;
  34:main.c        **** volatile uint8 G_Stop = 0;
  35:main.c        **** volatile uint8 G_Break = 0;
  36:main.c        **** volatile uint8 G_Pause = 0;
  37:main.c        **** 
  38:main.c        **** volatile char UART_Receive_Buffer[USBUART_BUFFER_SIZE];
  39:main.c        **** volatile uint8 UART_Rx_Position;
  40:main.c        **** 
  41:main.c        **** volatile char USBUART_Receive_Buffer[USBUART_BUFFER_SIZE];
  42:main.c        **** volatile uint8 USBUART_Rx_Position;
  43:main.c        **** 
  44:main.c        **** enum TIA_resistor {R20K, R30K, R40K, R80K, R120K, R250K, R500K, R1000K};
  45:main.c        **** uint8 TIA_Selected_Resistor = R20K;
  46:main.c        **** 
  47:main.c        **** uint8 TIA_Resistor_Codes[8] = {TIA_1_RES_FEEDBACK_20K, TIA_1_RES_FEEDBACK_30K, TIA_1_RES_FEEDBACK_4
  48:main.c        **** float TIA_Resistor_Values[8] = {20e3, 30e3, 40e3, 80e3, 120e3, 250e3, 500e3, 1e6};
  49:main.c        **** int32 TIA_Offsets_uV[8] = {0, 0, 0, 0, 0, 0, 0, 0};
  50:main.c        **** 
  51:main.c        **** uint8 Compliance_Reached;
  52:main.c        **** int16 Vgs_Index_Goal_Relative;
  53:main.c        **** int16 Vds_Index_Goal_Relative;
  54:main.c        **** 
  55:main.c        **** uint32 Current_Measurement_Sample_Count;
  56:main.c        **** 
  57:main.c        **** bool uartSendingEnabled = true;
  58:main.c        **** bool usbuSendingEnabled = true;
  59:main.c        **** 
  60:main.c        **** void sendTransmitBuffer() {
  61:main.c        **** 	if (usbuSendingEnabled) USBUARTH_Send(TransmitBuffer, strlen(TransmitBuffer));
  62:main.c        **** 	if (uartSendingEnabled) UART_1_PutString(TransmitBuffer);
  63:main.c        **** }
  64:main.c        **** 
  65:main.c        **** void Setup_Selector_I2C_Struct(struct Selector_I2C_Struct *selector) {
  66:main.c        **** 	selector->write.subAddress = 1;
  67:main.c        **** 	selector->read.subAddress = sizeof(selector->write) + 1;
  68:main.c        **** 	
  69:main.c        **** 	for (uint16 i = 0; i < sizeof(selector->write.data); i++) {
  70:main.c        **** 		selector->write.data[i] = i + 6;
  71:main.c        **** 	}
  72:main.c        **** 	for (uint16 i = 0; i < sizeof(selector->read.data); i++) {
  73:main.c        **** 		selector->read.data[i] = 0xbe;
  74:main.c        **** 	}
  75:main.c        **** }
  76:main.c        **** 
  77:main.c        **** void Update_Selector(uint8 selectori) {
  78:main.c        **** 	sprintf(TransmitBuffer, "Updating Selector %u\r\n", selectori + 1);
  79:main.c        **** 	sendTransmitBuffer();
  80:main.c        **** 	
  81:main.c        **** 	struct Selector_I2C_Struct* selector = &selectors[selectori];
  82:main.c        **** 	
ARM GAS  C:\Users\FRANKL~1\AppData\Local\Temp\ccCAoJJX.s 			page 5


  83:main.c        **** 	I2C_1_MasterClearStatus();
  84:main.c        **** 	I2C_1_MasterWriteBuf(selector->busAddress, (uint8 *) &selector->write, sizeof(selector->write), I2
  85:main.c        **** 	for (uint32 i = 0; i < 4e5; i++) {
  86:main.c        **** 		if ((I2C_1_MasterStatus() & I2C_1_MSTAT_WR_CMPLT)) break;
  87:main.c        **** 		if (i >= 4e5 - 1) {
  88:main.c        **** 			sprintf(TransmitBuffer, "I2C Transfer Error! Type: Timeout\r\n");
  89:main.c        **** 			sendTransmitBuffer();
  90:main.c        **** 			I2C_1_Stop();
  91:main.c        **** 			I2C_1_Start();
  92:main.c        **** 		}
  93:main.c        **** 	}
  94:main.c        **** 	
  95:main.c        **** 	// I2C_1_MasterClearStatus();
  96:main.c        **** 	// I2C_1_MasterWriteBuf(selector->busAddress, (uint8 *) &selector->read.subAddress, 1, I2C_1_MODE_
  97:main.c        **** 	// for (uint32 i - 0; i < 4e5; i++) {
  98:main.c        **** 	// 	if ((I2C_1_MasterStatus() & I2C_1_MSTAT_WR_CMPLT)) break;
  99:main.c        **** 	// }
 100:main.c        **** 	
 101:main.c        **** 	// I2C_1_MasterReadBuf(selector->busAddress, (uint8 *) &selector->read.data, sizeof(selector->read
 102:main.c        **** 	// for (uint32 i - 0; i < 4e5; i++) {
 103:main.c        **** 	// 	if ((I2C_1_MasterStatus() & I2C_1_MSTAT_RD_CMPLT)) break;
 104:main.c        **** 	// }
 105:main.c        **** 	
 106:main.c        **** 	if (I2C_1_MasterStatus() & I2C_1_MSTAT_ERR_XFER) {
 107:main.c        **** 		sprintf(TransmitBuffer, "I2C Transfer Error! ");
 108:main.c        **** 		sendTransmitBuffer();
 109:main.c        **** 		
 110:main.c        **** 		if (I2C_1_MasterStatus() & I2C_1_MSTAT_ERR_ADDR_NAK) {
 111:main.c        **** 			sprintf(TransmitBuffer, "Type: NAK");
 112:main.c        **** 			sendTransmitBuffer();
 113:main.c        **** 		}
 114:main.c        **** 		
 115:main.c        **** 		sprintf(TransmitBuffer, "\r\n");
 116:main.c        **** 		sendTransmitBuffer();
 117:main.c        **** 	}
 118:main.c        **** 	
 119:main.c        **** 	sprintf(TransmitBuffer, "Updated Selector %u\r\n", selectori + 1);
 120:main.c        **** 	sendTransmitBuffer();
 121:main.c        **** }
 122:main.c        **** 
 123:main.c        **** void Setup_Selectors() {
 124:main.c        **** 	for (uint8 i = 0; i < SELECTOR_COUNT; i++) Setup_Selector_I2C_Struct(&selectors[i]);
 125:main.c        **** 	
 126:main.c        **** 	selectors[0].busAddress = 0x66;
 127:main.c        **** 	selectors[1].busAddress = 0x11;
 128:main.c        **** 	selectors[2].busAddress = 0x44;
 129:main.c        **** 	selectors[3].busAddress = 0x22;
 130:main.c        **** }
 131:main.c        **** 
 132:main.c        **** void Connect_Channel_On_Intermediate(uint8 channel, uint8 intermediate) {
 133:main.c        **** 	channel--;
 134:main.c        **** 	intermediate--;
 135:main.c        **** 	
 136:main.c        **** 	if (channel >= CHANNEL_COUNT) return;
 137:main.c        **** 	if (intermediate >= INTERMEDIATE_COUNT) return;
 138:main.c        **** 	
 139:main.c        **** 	selectors[intermediate].write.data[channel] = CONTACT_CONNECT_CODE;
ARM GAS  C:\Users\FRANKL~1\AppData\Local\Temp\ccCAoJJX.s 			page 6


 140:main.c        **** 	Update_Selector(intermediate);
 141:main.c        **** }
 142:main.c        **** 
 143:main.c        **** void Connect_Contact_To_Intermediate(uint8 contact, uint8 intermediate) {
 144:main.c        **** 	contact--;
 145:main.c        **** 	intermediate--;
 146:main.c        **** 	
 147:main.c        **** 	if (contact >= CONTACT_COUNT) return;
 148:main.c        **** 	if (intermediate >= INTERMEDIATE_COUNT) return;
 149:main.c        **** 	
 150:main.c        **** 	uint8 offset = 0;
 151:main.c        **** 	if (intermediate >= INTERMEDIATE_COUNT/2) {
 152:main.c        **** 		offset = CONTACT_COUNT/2;
 153:main.c        **** 		if (contact < CONTACT_COUNT/2) return;
 154:main.c        **** 	} else {
 155:main.c        **** 		if (contact >= CONTACT_COUNT/2) return;
 156:main.c        **** 	}
 157:main.c        **** 	
 158:main.c        **** 	Connect_Channel_On_Intermediate(contact - offset + 1, intermediate + 1);
 159:main.c        **** }
 160:main.c        **** 
 161:main.c        **** void Disconnect_Contact_From_Intermediate(uint8 contact, uint8 intermediate) {
 162:main.c        **** 	contact--;
 163:main.c        **** 	intermediate--;
 164:main.c        **** 	
 165:main.c        **** 	if (contact >= CONTACT_COUNT) return;
 166:main.c        **** 	if (intermediate >= INTERMEDIATE_COUNT) return;
 167:main.c        **** 	
 168:main.c        **** 	uint8 offset = 0;
 169:main.c        **** 	if (intermediate >= INTERMEDIATE_COUNT/2) {
 170:main.c        **** 		offset = CONTACT_COUNT/2;
 171:main.c        **** 		if (contact < CONTACT_COUNT/2) return;
 172:main.c        **** 	} else {
 173:main.c        **** 		if (contact >= CONTACT_COUNT/2) return;
 174:main.c        **** 	}
 175:main.c        **** 	
 176:main.c        **** 	selectors[intermediate].write.data[contact - offset] = CONTACT_DISCONNECT_CODE;
 177:main.c        **** 	
 178:main.c        **** 	Update_Selector(intermediate);
 179:main.c        **** }
 180:main.c        **** 
 181:main.c        **** void Disconnect_Contact_From_All_Intermediates(uint8 contact) {
 182:main.c        **** 	contact--;
 183:main.c        **** 	
 184:main.c        **** 	for (uint8 intermediate = 0; intermediate < INTERMEDIATE_COUNT; intermediate++) {
 185:main.c        **** 		
 186:main.c        **** 		uint8 offset = 0;
 187:main.c        **** 		if (intermediate >= INTERMEDIATE_COUNT/2) {
 188:main.c        **** 			offset = CONTACT_COUNT/2;
 189:main.c        **** 			if (contact < CONTACT_COUNT/2) continue;
 190:main.c        **** 		} else {
 191:main.c        **** 			if (contact >= CONTACT_COUNT/2) continue;
 192:main.c        **** 		}
 193:main.c        **** 		
 194:main.c        **** 		selectors[intermediate].write.data[contact - offset] = CONTACT_DISCONNECT_CODE;
 195:main.c        **** 		
 196:main.c        **** 		Update_Selector(intermediate);
ARM GAS  C:\Users\FRANKL~1\AppData\Local\Temp\ccCAoJJX.s 			page 7


 197:main.c        **** 	}
 198:main.c        **** }
 199:main.c        **** 
 200:main.c        **** void Disconnect_All_Contacts_From_All_Intermediates() {
 201:main.c        **** 	for (uint8 intermediate = 0; intermediate < INTERMEDIATE_COUNT; intermediate++) {
 202:main.c        **** 		for (uint8 contact = 0; contact < CONTACT_COUNT/2; contact++) {
 203:main.c        **** 			selectors[intermediate].write.data[contact] = CONTACT_DISCONNECT_CODE;
 204:main.c        **** 		}
 205:main.c        **** 		
 206:main.c        **** 		Update_Selector(intermediate);
 207:main.c        **** 	}
 208:main.c        **** }
 209:main.c        **** 
 210:main.c        **** void Disconnect_All_Contacts_From_Intermediate(uint8 intermediate) {
 211:main.c        **** 	intermediate--;
 212:main.c        **** 	
 213:main.c        **** 	for (uint8 contact = 0; contact < CONTACT_COUNT/2; contact++) {
 214:main.c        **** 		selectors[intermediate].write.data[contact] = CONTACT_DISCONNECT_CODE;
 215:main.c        **** 	}
 216:main.c        **** 	
 217:main.c        **** 	Update_Selector(intermediate);
 218:main.c        **** }
 219:main.c        **** 
 220:main.c        **** void Connect_Intermediate(uint8 intermediate) {
 221:main.c        **** 	switch (intermediate) {
 222:main.c        **** 		case 1: Connect_Channel_On_Intermediate(33, 1); break;
 223:main.c        **** 		case 2: Connect_Channel_On_Intermediate(33, 2); break;
 224:main.c        **** 		case 3: Connect_Channel_On_Intermediate(33, 3); break;
 225:main.c        **** 		case 4: Connect_Channel_On_Intermediate(33, 4); break;
 226:main.c        **** 		default: return;
 227:main.c        **** 	}
 228:main.c        **** }
 229:main.c        **** 
 230:main.c        **** void Connect_Intermediates() {
 231:main.c        **** 	for (uint8 i = 1; i <= INTERMEDIATE_COUNT; i++) {
 232:main.c        **** 		Connect_Intermediate(i);
 233:main.c        **** 	}
 234:main.c        **** }
 235:main.c        **** 
 236:main.c        **** void TIA_Set_Resistor(uint8 resistor) {
 237:main.c        **** 	TIA_Selected_Resistor = resistor;
 238:main.c        **** 	TIA_1_SetResFB(TIA_Resistor_Codes[resistor]);
 239:main.c        **** }
 240:main.c        **** 
 241:main.c        **** void ADC_Increase_Range() {
 242:main.c        **** 	switch(TIA_Selected_Resistor) {
 243:main.c        **** 		case R20K: 	 break;
 244:main.c        **** 		//case R30K: 	 TIA_Set_Resistor(R20K); break;
 245:main.c        **** 		//case R40K:	 TIA_Set_Resistor(R30K); break;
 246:main.c        **** 		//case R80K:	 TIA_Set_Resistor(R40K); break;
 247:main.c        **** 		//case R120K:	 TIA_Set_Resistor(R80K); break;
 248:main.c        **** 		//case R250K:	 TIA_Set_Resistor(R120K); break;
 249:main.c        **** 		//case R500K:	 TIA_Set_Resistor(R250K); break;
 250:main.c        **** 		case R1000K: TIA_Set_Resistor(R20K); break;
 251:main.c        **** 		default: return;
 252:main.c        **** 	}
 253:main.c        **** }
ARM GAS  C:\Users\FRANKL~1\AppData\Local\Temp\ccCAoJJX.s 			page 8


 254:main.c        **** 
 255:main.c        **** void ADC_Decrease_Range() {
 256:main.c        **** 	switch(TIA_Selected_Resistor) {
 257:main.c        **** 		case R20K: 	 TIA_Set_Resistor(R1000K); break;
 258:main.c        **** 		//case R30K: 	 TIA_Set_Resistor(R40K); break;
 259:main.c        **** 		//case R40K:	 TIA_Set_Resistor(R80K); break;
 260:main.c        **** 		//case R80K:	 TIA_Set_Resistor(R120K); break;
 261:main.c        **** 		//case R120K:	 TIA_Set_Resistor(R250K); break;
 262:main.c        **** 		//case R250K:	 TIA_Set_Resistor(R500K); break;
 263:main.c        **** 		//case R500K:	 TIA_Set_Resistor(R1000K); break;
 264:main.c        **** 		case R1000K: break;
 265:main.c        **** 		default: return;
 266:main.c        **** 	}
 267:main.c        **** }
 268:main.c        **** 
 269:main.c        **** void sortArray(int32 array[], uint32 size) {
 270:main.c        **** 	int32 temp;
 271:main.c        **** 	// the following two loops sort the array x in ascending order
 272:main.c        **** 	for(uint32 i = 0; i < size-1; i++) {
 273:main.c        **** 		for(uint32 j = i+1; j < size; j++) {
 274:main.c        **** 			if(array[j] < array[i]) {
 275:main.c        **** 				// swap elements
 276:main.c        **** 				temp = array[i];
 277:main.c        **** 				array[i] = array[j];
 278:main.c        **** 				array[j] = temp;
 279:main.c        **** 			}
 280:main.c        **** 		}
 281:main.c        **** 	}
 282:main.c        **** }
 283:main.c        **** 
 284:main.c        **** int32 medianOfArray(int32 array[], uint32 size) {
 285:main.c        **** 	sortArray(array, size);
 286:main.c        **** 	
 287:main.c        **** 	if(size%2 == 0) {
 288:main.c        **** 		// if size is even, return the mean of middle elements
 289:main.c        **** 		return((array[size/2] + array[size/2 - 1]) / 2);
 290:main.c        **** 	} else {
 291:main.c        **** 		// else return the middle element
 292:main.c        **** 		return array[size/2];
 293:main.c        **** 	}
 294:main.c        **** }
 295:main.c        **** 
 296:main.c        **** // Measure Delta-Sigma ADC
 297:main.c        **** void ADC_Measure_uV(int32* average, int32* standardDeviation, uint32 sampleCount) {
 298:main.c        **** 	int32 ADC_Result = 0;
 299:main.c        **** 	int32 ADC_SD = 0;
 300:main.c        **** 	
 301:main.c        **** 	uint32 medianArraySize = 19;
 302:main.c        **** 	if (sampleCount < medianArraySize) medianArraySize = sampleCount;
 303:main.c        **** 	
 304:main.c        **** 	uint32 medianCount = sampleCount/medianArraySize;
 305:main.c        **** 	int32 medianArray[medianArraySize];
 306:main.c        **** 	
 307:main.c        **** 	for (uint32 i = 1; i <= medianCount; i++) {
 308:main.c        **** 		for (uint32 j = 0; j < medianArraySize; j++) {
 309:main.c        **** 			ADC_DelSig_1_StartConvert();
 310:main.c        **** 			while (!ADC_DelSig_1_IsEndConversion(ADC_DelSig_1_RETURN_STATUS));
ARM GAS  C:\Users\FRANKL~1\AppData\Local\Temp\ccCAoJJX.s 			page 9


 311:main.c        **** 			//int16 ADC_Result = ADC_DelSig_1_CountsTo_mVolts(ADC_DelSig_1_GetResult16());
 312:main.c        **** 			medianArray[j] = ADC_DelSig_1_CountsTo_uVolts(ADC_DelSig_1_GetResult32());
 313:main.c        **** 		}
 314:main.c        **** 		
 315:main.c        **** 		int32 ADC_Result_Current = medianOfArray(medianArray, medianArraySize);
 316:main.c        **** 		
 317:main.c        **** 		ADC_SD += (float)(i-1)/(float)(i)*(ADC_Result_Current - ADC_Result)*(ADC_Result_Current - ADC_Res
 318:main.c        **** 		ADC_Result += ((float)ADC_Result_Current - (float)ADC_Result)/(float)i;
 319:main.c        **** 	}
 320:main.c        **** 	
 321:main.c        **** 	*average = ADC_Result;
 322:main.c        **** 	*standardDeviation = ADC_SD;
 323:main.c        **** }
 324:main.c        **** 
 325:main.c        **** void ADC_Adjust_Range(uint32 sampleCount) {
 326:main.c        **** 	int32 ADC_Voltage = 0;
 327:main.c        **** 	int32 ADC_Voltage_SD = 0;
 328:main.c        **** 	
 329:main.c        **** 	ADC_Measure_uV(&ADC_Voltage, &ADC_Voltage_SD, sampleCount);
 330:main.c        **** 	
 331:main.c        **** 	if(abs(ADC_Voltage) > 870400) {
 332:main.c        **** 		ADC_Increase_Range();
 333:main.c        **** 	} else if (abs(ADC_Voltage) < 10240) {
 334:main.c        **** 		ADC_Decrease_Range();
 335:main.c        **** 	} else {
 336:main.c        **** 		return;
 337:main.c        **** 	}
 338:main.c        **** 	
 339:main.c        **** 	// If the range switches, discard a few measurements
 340:main.c        **** 	ADC_Measure_uV(&ADC_Voltage, &ADC_Voltage_SD, 5);
 341:main.c        **** }
 342:main.c        **** 
 343:main.c        **** // Measure SAR1 ADC
 344:main.c        **** void SAR1_Measure_V(int32* average, int32* standardDeviation, uint32 sampleCount) {
 345:main.c        **** 	int32 SAR_Result = 0;
 346:main.c        **** 	int32 SAR_SD = 0;
 347:main.c        **** 	
 348:main.c        **** 	for (uint32 i = 1; i <= sampleCount; i++) {
 349:main.c        **** 		ADC_SAR_1_StartConvert();
 350:main.c        **** 		while (!ADC_SAR_1_IsEndConversion(ADC_SAR_1_RETURN_STATUS));
 351:main.c        **** 		
 352:main.c        **** 		int32 SAR1_Result_Current = ADC_SAR_1_CountsTo_uVolts(ADC_SAR_1_GetResult16());
 353:main.c        **** 		
 354:main.c        **** 		SAR_SD += (float)(i-1)/(float)(i)*(SAR1_Result_Current - SAR_Result)*(SAR1_Result_Current - SAR_R
 355:main.c        **** 		SAR_Result += ((float)SAR1_Result_Current - (float)SAR_Result)/(float)i;
 356:main.c        **** 	}
 357:main.c        **** 	
 358:main.c        **** 	*average = SAR_Result;
 359:main.c        **** 	*standardDeviation = SAR_SD;
 360:main.c        **** }
 361:main.c        **** 
 362:main.c        **** // Measure SAR2 ADC
 363:main.c        **** void SAR2_Measure_V(int32* average, int32* standardDeviation, uint32 sampleCount) {
 364:main.c        **** 	int32 SAR_Result = 0;
 365:main.c        **** 	int32 SAR_SD = 0;
 366:main.c        **** 	
 367:main.c        **** 	for (uint32 i = 1; i <= sampleCount; i++) {
ARM GAS  C:\Users\FRANKL~1\AppData\Local\Temp\ccCAoJJX.s 			page 10


 368:main.c        **** 		ADC_SAR_2_StartConvert();
 369:main.c        **** 		while (!ADC_SAR_2_IsEndConversion(ADC_SAR_2_RETURN_STATUS));
 370:main.c        **** 		
 371:main.c        **** 		int32 SAR2_Result_Current = ADC_SAR_2_CountsTo_uVolts(ADC_SAR_2_GetResult16());
 372:main.c        **** 		
 373:main.c        **** 		SAR_SD += (float)(i-1)/(float)(i)*(SAR2_Result_Current - SAR_Result)*(SAR2_Result_Current - SAR_R
 374:main.c        **** 		SAR_Result += ((float)SAR2_Result_Current - (float)SAR_Result)/(float)i;
 375:main.c        **** 	}
 376:main.c        **** 	
 377:main.c        **** 	*average = SAR_Result;
 378:main.c        **** 	*standardDeviation = SAR_SD;
 379:main.c        **** }
 380:main.c        **** 
 381:main.c        **** // Measure current and compare it to some compliance value
 382:main.c        **** void Measure_Current_Vss(float* currentAverageIn, float* currentStdDevIn, uint32 sampleCount, uint8
 383:main.c        **** 	Compliance_Reached = 0;
 384:main.c        **** 		
 385:main.c        **** 	// Auto-adjust the current range
 386:main.c        **** 	ADC_Adjust_Range(3);
 387:main.c        **** 	
 388:main.c        **** 	// Voltage and its standard deviation (in uV)
 389:main.c        **** 	int32 ADC_Voltage = 0;
 390:main.c        **** 	int32 ADC_Voltage_SD = 0;
 391:main.c        **** 	
 392:main.c        **** 	// Current and its standard deviation (in A)
 393:main.c        **** 	float currentNow = 0;
 394:main.c        **** 	float currentAverage = 0;
 395:main.c        **** 	float currentStdDev = 0;
 396:main.c        **** 	
 397:main.c        **** 	float TIA_Feedback_R = TIA_Resistor_Values[TIA_Selected_Resistor];
 398:main.c        **** 	int32 TIA_Offset_uV = TIA_Offsets_uV[TIA_Selected_Resistor];
 399:main.c        **** 	float unitConversion = -1.0e-6/TIA_Feedback_R;
 400:main.c        **** 	
 401:main.c        **** 	// Allow for the first measurement (normally not correct) to take place
 402:main.c        **** 	ADC_Measure_uV(&ADC_Voltage, &ADC_Voltage_SD, 3);
 403:main.c        **** 	
 404:main.c        **** 	// Now take the real measurement
 405:main.c        **** 	if (checkCompliance) {
 406:main.c        **** 		for (uint32 i = 1; i <= sampleCount; i++) {
 407:main.c        **** 			ADC_Measure_uV(&ADC_Voltage, &ADC_Voltage_SD, 1);
 408:main.c        **** 			
 409:main.c        **** 			currentNow = unitConversion * (ADC_Voltage + TIA_Offset_uV);
 410:main.c        **** 			
 411:main.c        **** 			currentStdDev += ((float)i-1.0)/(float)(i)*(currentNow - currentAverage)*(currentNow - currentAv
 412:main.c        **** 			currentAverage += (currentNow - currentAverage)/(float)i;
 413:main.c        **** 			
 414:main.c        **** 			if (abs(currentNow) > COMPLIANCE_CURRENT_LIMIT) {
 415:main.c        **** 				Compliance_Reached += 1;
 416:main.c        **** 				break;
 417:main.c        **** 			} else {
 418:main.c        **** 				Compliance_Reached = 0;
 419:main.c        **** 			}
 420:main.c        **** 		}
 421:main.c        **** 	} else {
 422:main.c        **** 		ADC_Measure_uV(&ADC_Voltage, &ADC_Voltage_SD, sampleCount);
 423:main.c        **** 			
 424:main.c        **** 		currentAverage = unitConversion * (ADC_Voltage + TIA_Offset_uV);
ARM GAS  C:\Users\FRANKL~1\AppData\Local\Temp\ccCAoJJX.s 			page 11


 425:main.c        **** 		currentStdDev = unitConversion * (ADC_Voltage_SD + TIA_Offset_uV);
 426:main.c        **** 	}
 427:main.c        **** 	
 428:main.c        **** 	*currentAverageIn = currentAverage;
 429:main.c        **** 	*currentStdDevIn = currentStdDev;
 430:main.c        **** }
 431:main.c        **** 
 432:main.c        **** uint8 At_Compliance() {
 433:main.c        **** 	Compliance_Reached = 0;
 434:main.c        **** 	
 435:main.c        **** 	float current = 0;
 436:main.c        **** 	float currentSD = 0;
 437:main.c        **** 	
 438:main.c        **** 	Measure_Current_Vss(&current, &currentSD, 3, 1);
 439:main.c        **** 	
 440:main.c        **** 	if (abs(current) > COMPLIANCE_CURRENT_LIMIT) {
 441:main.c        **** 		Compliance_Reached = 1;
 442:main.c        **** 		return 1;
 443:main.c        **** 	}
 444:main.c        **** 	
 445:main.c        **** 	return 0;
 446:main.c        **** }
 447:main.c        **** 
 448:main.c        **** void Handle_Compliance_Breach() {
 449:main.c        **** 	uint8 istart = VDAC_Vds_Data;
 450:main.c        **** 	uint8 istop = VDAC_Ref_Data;
 451:main.c        **** 	int8 increment = 1;
 452:main.c        **** 	if (istart < istop) increment = -1;
 453:main.c        **** 	
 454:main.c        **** 	for (uint8 i = istart; i != istop; i += increment) {
 455:main.c        **** 		VDAC_Vds_SetValue(i);
 456:main.c        **** 		
 457:main.c        **** 		if (!At_Compliance()) return;
 458:main.c        **** 	}
 459:main.c        **** 	
 460:main.c        **** 	istart = VDAC_Vgs_Data;
 461:main.c        **** 	istop = VDAC_Ref_Data;
 462:main.c        **** 	increment = 1;
 463:main.c        **** 	if (istart < istop) increment = -1;
 464:main.c        **** 	
 465:main.c        **** 	for (uint8 i = istart; i != istop; i += increment) {
 466:main.c        **** 		VDAC_Vgs_SetValue(i);
 467:main.c        **** 		
 468:main.c        **** 		if (!At_Compliance()) return;
 469:main.c        **** 	}
 470:main.c        **** 	
 471:main.c        **** 	// To do: Should disconnect something or take some other action at this point since still at compl
 472:main.c        **** }
 473:main.c        **** 
 474:main.c        **** // Get the reference voltage in volts
 475:main.c        **** float Get_Ref() {
 476:main.c        **** 	float result = 4.080/255.0*VDAC_Ref_Data;
 477:main.c        **** 	if (VDAC_Ref_CR0 & (VDAC_Ref_RANGE_1V & VDAC_Ref_RANGE_MASK)) {
 478:main.c        **** 		result = 1.020/255.0*VDAC_Ref_Data;
 479:main.c        **** 	}
 480:main.c        **** 	return result;
 481:main.c        **** }
ARM GAS  C:\Users\FRANKL~1\AppData\Local\Temp\ccCAoJJX.s 			page 12


 482:main.c        **** 
 483:main.c        **** // Get Vgs in volts
 484:main.c        **** float Get_Vgs() {
 485:main.c        **** 	float result = 4.080/255.0*VDAC_Vgs_Data - Get_Ref();
 486:main.c        **** 	if (VDAC_Vgs_CR0 & (VDAC_Vgs_RANGE_1V & VDAC_Vgs_RANGE_MASK)) {
 487:main.c        **** 		result = 1.020/255.0*VDAC_Vgs_Data - Get_Ref();
 488:main.c        **** 	}
 489:main.c        **** 	return result;
 490:main.c        **** }
 491:main.c        **** 
 492:main.c        **** // Get Vds in volts
 493:main.c        **** float Get_Vds() {
 494:main.c        **** 	float result = 4.080/255.0*VDAC_Vds_Data - Get_Ref();
 495:main.c        **** 	if (VDAC_Vds_CR0 & (VDAC_Vds_RANGE_1V & VDAC_Vds_RANGE_MASK)) {
 496:main.c        **** 		result = 1.020/255.0*VDAC_Vds_Data - Get_Ref();
 497:main.c        **** 	}
 498:main.c        **** 	return result;
 499:main.c        **** }
 500:main.c        **** 
 501:main.c        **** 
 502:main.c        **** // ****************************
 503:main.c        **** // Set the raw value of Vds
 504:main.c        **** void Set_Vds_Raw(uint8 value) {
 505:main.c        **** 	Vds_Index_Goal_Relative = (int16)value - (int16)VDAC_Ref_Data;
 506:main.c        **** 	
 507:main.c        **** 	uint8 istart = VDAC_Vds_Data;
 508:main.c        **** 	int8 increment = 1;
 509:main.c        **** 	if (istart > value) increment = -1;
 510:main.c        **** 	
 511:main.c        **** 	// Ramp up to the Vds value
 512:main.c        **** 	for (uint8 i = istart; i != value; i += increment) {
 513:main.c        **** 		if (At_Compliance()) {
 514:main.c        **** 			for (uint8 j = i; j != istart; j -= increment) {
 515:main.c        **** 				VDAC_Vds_SetValue(j);
 516:main.c        **** 				
 517:main.c        **** 				if (!At_Compliance()) return;
 518:main.c        **** 			}
 519:main.c        **** 			if (At_Compliance()) {
 520:main.c        **** 				Handle_Compliance_Breach();
 521:main.c        **** 				return;
 522:main.c        **** 			}
 523:main.c        **** 		}
 524:main.c        **** 		
 525:main.c        **** 		VDAC_Vds_SetValue(i);
 526:main.c        **** 	}
 527:main.c        **** 	
 528:main.c        **** 	// Now that ramp is done, set the Vds value
 529:main.c        **** 	VDAC_Vds_SetValue(value);
 530:main.c        **** }
 531:main.c        **** 
 532:main.c        **** // Set the raw value of Vgs
 533:main.c        **** void Set_Vgs_Raw(uint8 value) {
 534:main.c        **** 	Vgs_Index_Goal_Relative = (int16)value - (int16)VDAC_Ref_Data;
 535:main.c        **** 	
 536:main.c        **** 	int8 increment = 1;
 537:main.c        **** 	uint8 istart = VDAC_Vgs_Data;
 538:main.c        **** 	if (value < istart) increment = -1;
ARM GAS  C:\Users\FRANKL~1\AppData\Local\Temp\ccCAoJJX.s 			page 13


 539:main.c        **** 	
 540:main.c        **** 	// Ramp up to the Vgs value
 541:main.c        **** 	for (uint8 i = istart; i != value; i += increment) {
 542:main.c        **** 		if (At_Compliance()) {
 543:main.c        **** 			for (uint8 j = i; j != istart; j -= increment) {
 544:main.c        **** 				VDAC_Vgs_SetValue(j);
 545:main.c        **** 				
 546:main.c        **** 				if (!At_Compliance()) return;
 547:main.c        **** 			}
 548:main.c        **** 			if (At_Compliance()) {
 549:main.c        **** 				Handle_Compliance_Breach();
 550:main.c        **** 				return;
 551:main.c        **** 			}
 552:main.c        **** 		}
 553:main.c        **** 		
 554:main.c        **** 		VDAC_Vgs_SetValue(i);
 555:main.c        **** 	}
 556:main.c        **** 	
 557:main.c        **** 	// Now that ramp is done, set the Vgs value
 558:main.c        **** 	VDAC_Vgs_SetValue(value);
 559:main.c        **** }
 560:main.c        **** 
 561:main.c        **** // Set the raw value of the reference voltage
 562:main.c        **** void Set_Ref_Raw(uint8 value) {
 563:main.c        **** 	if (value < 6) value = 6;
 564:main.c        **** 	
 565:main.c        **** 	int8 increment = 1;
 566:main.c        **** 	if (value < VDAC_Ref_Data) increment = -1;
 567:main.c        **** 	
 568:main.c        **** 	// Ramp up to the Reference value
 569:main.c        **** 	for (uint8 i = VDAC_Ref_Data; i != value; i += increment) {
 570:main.c        **** 		
 571:main.c        **** 		if (At_Compliance()) return;
 572:main.c        **** 		
 573:main.c        **** 		int16 new_Vgs = (int16)i + Vgs_Index_Goal_Relative;
 574:main.c        **** 		int16 new_Vds = (int16)i + Vds_Index_Goal_Relative;
 575:main.c        **** 		
 576:main.c        **** 		if (new_Vgs > 255) new_Vgs = 255;
 577:main.c        **** 		if (new_Vds > 255) new_Vds = 255;
 578:main.c        **** 		
 579:main.c        **** 		if (new_Vgs < 0) new_Vgs = 0;
 580:main.c        **** 		if (new_Vds < 0) new_Vds = 0;
 581:main.c        **** 		
 582:main.c        **** 		VDAC_Ref_SetValue(i);
 583:main.c        **** 		VDAC_Vgs_SetValue(new_Vgs);
 584:main.c        **** 		VDAC_Vds_SetValue(new_Vds);
 585:main.c        **** 	}
 586:main.c        **** 	
 587:main.c        **** 	// Now that ramp is done, set the Reference value
 588:main.c        **** 	int16 new_Vgs = (int16)value + Vgs_Index_Goal_Relative;
 589:main.c        **** 	int16 new_Vds = (int16)value + Vds_Index_Goal_Relative;
 590:main.c        **** 	
 591:main.c        **** 	if (new_Vgs > 255) new_Vgs = 255;
 592:main.c        **** 	if (new_Vds > 255) new_Vds = 255;
 593:main.c        **** 	
 594:main.c        **** 	if (new_Vgs < 0) new_Vgs = 0;
 595:main.c        **** 	if (new_Vds < 0) new_Vds = 0;
ARM GAS  C:\Users\FRANKL~1\AppData\Local\Temp\ccCAoJJX.s 			page 14


 596:main.c        **** 	
 597:main.c        **** 	VDAC_Ref_SetValue(value);
 598:main.c        **** 	VDAC_Vgs_SetValue(new_Vgs);
 599:main.c        **** 	VDAC_Vds_SetValue(new_Vds);
 600:main.c        **** }
 601:main.c        **** // ****************************
 602:main.c        **** 
 603:main.c        **** // Set Vds and move the reference voltage if necessary
 604:main.c        **** void Set_Vds_Rel(int16 value) {
 605:main.c        **** 	if (value > 255) value = 255;
 606:main.c        **** 	if (value < -255) value = -255;
 607:main.c        **** 	
 608:main.c        **** 	int16 absolute = (int16)value + (int16)VDAC_Ref_Data;
 609:main.c        **** 	
 610:main.c        **** 	if (absolute > 255) {
 611:main.c        **** 		Set_Ref_Raw(VDAC_Ref_Data - (absolute - 255));
 612:main.c        **** 		Set_Vds_Raw(255);
 613:main.c        **** 	} else if (absolute < 0) {
 614:main.c        **** 		Set_Ref_Raw(VDAC_Ref_Data - absolute);
 615:main.c        **** 		Set_Vds_Raw(0);
 616:main.c        **** 	} else {
 617:main.c        **** 		Set_Vds_Raw(absolute);
 618:main.c        **** 	}
 619:main.c        **** 	
 620:main.c        **** 	Vds_Index_Goal_Relative = (int16)value;
 621:main.c        **** 	
 622:main.c        **** 	uint16 Vds_minRefRaw = Vds_Index_Goal_Relative > 0? 0: -Vds_Index_Goal_Relative;
 623:main.c        **** 	uint16 Vds_maxRefRaw = Vds_Index_Goal_Relative > 0? 255 - Vds_Index_Goal_Relative: 255;
 624:main.c        **** 	uint16 Vgs_minRefRaw = Vgs_Index_Goal_Relative > 0? 0: -Vgs_Index_Goal_Relative;
 625:main.c        **** 	uint16 Vgs_maxRefRaw = Vgs_Index_Goal_Relative > 0? 255 - Vgs_Index_Goal_Relative: 255;
 626:main.c        **** 	
 627:main.c        **** 	uint16 newRefRaw = VDAC_Ref_Data;
 628:main.c        **** 	
 629:main.c        **** 	if (newRefRaw < Vgs_minRefRaw) newRefRaw = Vgs_minRefRaw;
 630:main.c        **** 	if (newRefRaw > Vgs_maxRefRaw) newRefRaw = Vgs_maxRefRaw;
 631:main.c        **** 	if (newRefRaw < Vds_minRefRaw) newRefRaw = Vds_minRefRaw;
 632:main.c        **** 	if (newRefRaw > Vds_maxRefRaw) newRefRaw = Vds_maxRefRaw;
 633:main.c        **** 	
 634:main.c        **** 	Set_Ref_Raw(newRefRaw);
 635:main.c        **** }
 636:main.c        **** 
 637:main.c        **** // Set Vgs and move the reference voltage if necessary
 638:main.c        **** void Set_Vgs_Rel(int16 value) {
 639:main.c        **** 	if (value > 255) value = 255;
 640:main.c        **** 	if (value < -255) value = -255;
 641:main.c        **** 	
 642:main.c        **** 	int16 absolute = (int16)value + (int16)VDAC_Ref_Data;
 643:main.c        **** 	
 644:main.c        **** 	if (absolute > 255) {
 645:main.c        **** 		Set_Ref_Raw(VDAC_Ref_Data - (absolute - 255));
 646:main.c        **** 		Set_Vgs_Raw(255);
 647:main.c        **** 	} else if (absolute < 0) {
 648:main.c        **** 		Set_Ref_Raw(VDAC_Ref_Data - absolute);
 649:main.c        **** 		Set_Vgs_Raw(0);
 650:main.c        **** 	} else {
 651:main.c        **** 		Set_Vgs_Raw(absolute);
 652:main.c        **** 	}
ARM GAS  C:\Users\FRANKL~1\AppData\Local\Temp\ccCAoJJX.s 			page 15


 653:main.c        **** 	
 654:main.c        **** 	Vgs_Index_Goal_Relative = (int16)value;
 655:main.c        **** 	
 656:main.c        **** 	uint16 Vds_minRefRaw = Vds_Index_Goal_Relative > 0? 0: -Vds_Index_Goal_Relative;
 657:main.c        **** 	uint16 Vds_maxRefRaw = Vds_Index_Goal_Relative > 0? 255 - Vds_Index_Goal_Relative: 255;
 658:main.c        **** 	uint16 Vgs_minRefRaw = Vgs_Index_Goal_Relative > 0? 0: -Vgs_Index_Goal_Relative;
 659:main.c        **** 	uint16 Vgs_maxRefRaw = Vgs_Index_Goal_Relative > 0? 255 - Vgs_Index_Goal_Relative: 255;
 660:main.c        **** 	
 661:main.c        **** 	uint16 newRefRaw = VDAC_Ref_Data;
 662:main.c        **** 	
 663:main.c        **** 	if (newRefRaw < Vds_minRefRaw) newRefRaw = Vds_minRefRaw;
 664:main.c        **** 	if (newRefRaw > Vds_maxRefRaw) newRefRaw = Vds_maxRefRaw;
 665:main.c        **** 	if (newRefRaw < Vgs_minRefRaw) newRefRaw = Vgs_minRefRaw;
 666:main.c        **** 	if (newRefRaw > Vgs_maxRefRaw) newRefRaw = Vgs_maxRefRaw;
 667:main.c        **** 	
 668:main.c        **** 	Set_Ref_Raw(newRefRaw);
 669:main.c        **** }
 670:main.c        **** // ****************************
 671:main.c        **** 
 672:main.c        **** // Set Vgs by volts (good for readability, but requires passing floats)
 673:main.c        **** void Set_Vgs(float voltage) {
 674:main.c        **** 	Set_Vgs_Rel((voltage/4.080)*255.0);
 675:main.c        **** }
 676:main.c        **** 
 677:main.c        **** // Set Vds by volts (good for readability, but requires passing floats)
 678:main.c        **** void Set_Vds(float voltage) {
 679:main.c        **** 	Set_Vds_Rel((voltage/4.080)*255.0);
 680:main.c        **** }
 681:main.c        **** // ****************************
 682:main.c        **** 
 683:main.c        **** // Set Vgs by mV (good for passing in integers instead of floats)
 684:main.c        **** void Set_Vgs_mV(float mV) {
 685:main.c        **** 	Set_Vgs(mV/1000.0);
 686:main.c        **** }
 687:main.c        **** 
 688:main.c        **** // Set Vds by mV (good for passing in integers instead of floats)
 689:main.c        **** void Set_Vds_mV(float mV) {
 690:main.c        **** 	Set_Vds(mV/1000.0);
 691:main.c        **** }
 692:main.c        **** // ****************************
 693:main.c        **** 
 694:main.c        **** // Set Vgs and Vds to 0
 695:main.c        **** void Zero_All_DACs() {
 696:main.c        **** 	Set_Vds_Raw(0);
 697:main.c        **** 	Set_Vgs_Raw(0);
 698:main.c        **** 	
 699:main.c        **** 	VDAC_Vds_SetValue(0);
 700:main.c        **** 	VDAC_Vgs_SetValue(0);
 701:main.c        **** }
 702:main.c        **** 
 703:main.c        **** void Calibrate_ADC_Offset(uint32 sampleCount) {
 704:main.c        **** 	uint8 current_range_resistor = TIA_Selected_Resistor;
 705:main.c        **** 	
 706:main.c        **** 	// Zero the DACs
 707:main.c        **** 	Set_Vds(0);
 708:main.c        **** 	Set_Vgs(0);
 709:main.c        **** 	
ARM GAS  C:\Users\FRANKL~1\AppData\Local\Temp\ccCAoJJX.s 			page 16


 710:main.c        **** 	// Voltage and its standard deviation (in uV)
 711:main.c        **** 	int32 voltage = 0;
 712:main.c        **** 	int32 voltageSD = 0;
 713:main.c        **** 	
 714:main.c        **** 	// Measure ADC offset voltages
 715:main.c        **** 	for (uint8 i = R20K; i <= R1000K; i++) {
 716:main.c        **** 		TIA_Set_Resistor(i);
 717:main.c        **** 		// Take a few measurements to discard any problems with the initial measurements
 718:main.c        **** 		ADC_Measure_uV(&voltage, &voltageSD, 3);
 719:main.c        **** 		ADC_Measure_uV(&voltage, &voltageSD, sampleCount);
 720:main.c        **** 		TIA_Offsets_uV[i] = -voltage;
 721:main.c        **** 		sprintf(TransmitBuffer, "# Offset %e Ohm: %li uV\r\n", TIA_Resistor_Values[i], -voltage);
 722:main.c        **** 		sendTransmitBuffer();
 723:main.c        **** 	}
 724:main.c        **** 	
 725:main.c        **** 	// Reset TIA Resistor
 726:main.c        **** 	TIA_Set_Resistor(current_range_resistor);
 727:main.c        **** 	
 728:main.c        **** 	sprintf(TransmitBuffer, "# Calibrated ADC Offsets\r\n");
 729:main.c        **** 	sendTransmitBuffer();
 730:main.c        **** }
 731:main.c        **** 
 732:main.c        **** // Take a measurement of the system (Id - from delta-sigma ADC, Vgs, Vds, SAR1 ADC, SAR2 ADC)
 733:main.c        **** void Measure(uint32 deltaSigmaSampleCount, uint32 SAR1_SampleCount, uint32 SAR2_SampleCount) {
 734:main.c        **** 	float IdsAverageAmps = 0;
 735:main.c        **** 	float IdsSDAmps = 0;
 736:main.c        **** 	
 737:main.c        **** 	Measure_Current_Vss(&IdsAverageAmps, &IdsSDAmps, deltaSigmaSampleCount, 0);
 738:main.c        **** 	
 739:main.c        **** //	int32 SAR1_Average = 0;
 740:main.c        **** //	int32 SAR1_SD = 0;
 741:main.c        **** //	int32 SAR2_Average = 0;
 742:main.c        **** //	int32 SAR2_SD = 0;
 743:main.c        **** //
 744:main.c        **** //	SAR1_Measure_V(&SAR1_Average, &SAR1_SD, SAR1_SampleCount);
 745:main.c        **** //	SAR2_Measure_V(&SAR2_Average, &SAR2_SD, SAR2_SampleCount);
 746:main.c        **** //
 747:main.c        **** //	float SAR1 = 1e-6*SAR1_Average;
 748:main.c        **** //	float SAR2 = 1e-6*SAR2_Average;
 749:main.c        **** 	
 750:main.c        **** 	sprintf(TransmitBuffer, "%f,%f,%f\r\n", 1e12*IdsAverageAmps, Get_Vgs(), Get_Vds());
 751:main.c        **** 	sendTransmitBuffer();
 752:main.c        **** }
 753:main.c        **** 
 754:main.c        **** // Repeatedly take measurements of the system
 755:main.c        **** void Measure_Multiple(uint32 n) {
 756:main.c        **** 	for (uint32 i = 0; i < n; i++) {
 757:main.c        **** 		Measure(100, 1, 10);
 758:main.c        **** 	}
 759:main.c        **** }
 760:main.c        **** 
 761:main.c        **** // Take a basic gate sweep (hardcoded voltages, hardcoded number of data points)
 762:main.c        **** void Measure_Sweep() {
 763:main.c        **** 	VDAC_Vds_SetValue(90);
 764:main.c        **** 	VDAC_Vgs_SetValue(254);
 765:main.c        **** 	
 766:main.c        **** 	for (uint16 Vgsi = 0; Vgsi < 256; Vgsi++) {
ARM GAS  C:\Users\FRANKL~1\AppData\Local\Temp\ccCAoJJX.s 			page 17


 767:main.c        **** 		VDAC_Vgs_SetValue(Vgsi);
 768:main.c        **** 		Measure(100, 1, 1);
 769:main.c        **** 	}
 770:main.c        **** }
 771:main.c        **** 
 772:main.c        **** void Measure_Gate_Sweep(uint8 loop) {
 773:main.c        **** 	
 774:main.c        **** 	if (Vds_Index_Goal_Relative > 0) {
 775:main.c        **** 		Set_Ref_Raw(254 - Vds_Index_Goal_Relative);
 776:main.c        **** 	} else {
 777:main.c        **** 		Set_Ref_Raw(254);
 778:main.c        **** 	}
 779:main.c        **** 	
 780:main.c        **** 	int8 speed = 16;
 781:main.c        **** 	
 782:main.c        **** 	for (uint8 l = 0; l <= loop; l++) {
 783:main.c        **** 		int8 direction = 1*speed;
 784:main.c        **** 		uint8 istart = 0;
 785:main.c        **** 		if (Vds_Index_Goal_Relative < 0) {
 786:main.c        **** 			istart = -Vds_Index_Goal_Relative;
 787:main.c        **** 		}
 788:main.c        **** 		
 789:main.c        **** 		uint8 istop = 256-speed;
 790:main.c        **** 		
 791:main.c        **** 		if (l%2 == 1) {
 792:main.c        **** 			direction = -1*speed;
 793:main.c        **** 			istart = 256-speed;
 794:main.c        **** 			istop = 0;
 795:main.c        **** 		}
 796:main.c        **** 		
 797:main.c        **** 		for (uint8 i = istart; i != istop; i += direction) {
 798:main.c        **** 			for (uint8 j = 0; j <= 1; j++) {
 799:main.c        **** 				if (j == 1) Set_Ref_Raw(254 - i + 1);
 800:main.c        **** 				Set_Vgs_Raw(i);
 801:main.c        **** 				
 802:main.c        **** 				Measure(33, 1, 1);
 803:main.c        **** 				
 804:main.c        **** 				if (G_Stop) break;
 805:main.c        **** 				while (G_Pause);
 806:main.c        **** 			}
 807:main.c        **** 		}
 808:main.c        **** 	}
 809:main.c        **** }
 810:main.c        **** 
 811:main.c        **** void Measure_Wide_Gate_Sweep(uint8 loop) {
 812:main.c        **** 	Set_Ref_Raw(254);
 813:main.c        **** 	
 814:main.c        **** 	int8 speed = 16;
 815:main.c        **** 	
 816:main.c        **** 	for (uint8 l = 0; l <= loop; l++) {
 817:main.c        **** 		int8 direction = 1*speed;
 818:main.c        **** 		uint8 istart = 0;
 819:main.c        **** 		uint8 istop = 256-speed;
 820:main.c        **** 		
 821:main.c        **** 		if (l%2 == 1) {
 822:main.c        **** 			direction = -1*speed;
 823:main.c        **** 			istart = 256-speed;
ARM GAS  C:\Users\FRANKL~1\AppData\Local\Temp\ccCAoJJX.s 			page 18


 824:main.c        **** 			istop = 0;
 825:main.c        **** 		}
 826:main.c        **** 		
 827:main.c        **** 		for (uint8 i = istart; i != istop; i += direction) {
 828:main.c        **** 			for (uint8 j = 0; j <= 1; j++) {
 829:main.c        **** 				
 830:main.c        **** 				if (j == 1) Set_Ref_Raw(254 - i + 1);
 831:main.c        **** 				Set_Vgs_Raw(i);
 832:main.c        **** 				
 833:main.c        **** 				Measure(33, 1, 1);
 834:main.c        **** 				
 835:main.c        **** 				if (G_Stop) break;
 836:main.c        **** 				while (G_Pause);
 837:main.c        **** 			}
 838:main.c        **** 		}
 839:main.c        **** 	}
 840:main.c        **** }
 841:main.c        **** 
 842:main.c        **** void Measure_Gate_Sweep_New() {
 843:main.c        **** 	uint8 refTurn = 1;
 844:main.c        **** 	int8 refIncrement = 1;
 845:main.c        **** 	uint8 startRefIndex = 0;
 846:main.c        **** 	uint8 endRefIndex = 0;
 847:main.c        **** 	uint8 refIndex = startRefIndex;
 848:main.c        **** 	uint8 refArrived = 0;
 849:main.c        **** 	
 850:main.c        **** 	int8 gateIncrement = 1;
 851:main.c        **** 	uint8 startGateIndex = 0;
 852:main.c        **** 	uint8 endGateIndex = 0;
 853:main.c        **** 	uint8 gateIndex = startGateIndex;
 854:main.c        **** 	uint8 gateArrived = 0;
 855:main.c        **** 	
 856:main.c        **** 	
 857:main.c        **** 	while (!gateArrived || !refArrived) {
 858:main.c        **** 		gateArrived = abs(gateIndex-endGateIndex) < abs(gateIncrement);
 859:main.c        **** 		refArrived = abs(refIndex-endRefIndex) < abs(refIncrement);
 860:main.c        **** 		
 861:main.c        **** 		refTurn = !refTurn;
 862:main.c        **** 		
 863:main.c        **** 		if (refTurn && refArrived) continue;
 864:main.c        **** 		if (!refTurn && gateArrived) continue;
 865:main.c        **** 		
 866:main.c        **** 		Set_Ref_Raw(refIndex);
 867:main.c        **** 		Set_Vgs_Raw(gateIndex);
 868:main.c        **** 		
 869:main.c        **** 		Measure(100, 1, 1);
 870:main.c        **** 		
 871:main.c        **** 		if (refTurn) {
 872:main.c        **** 			refIndex += refIncrement;
 873:main.c        **** 		} else {
 874:main.c        **** 			gateIndex += gateIncrement;
 875:main.c        **** 		}
 876:main.c        **** 		
 877:main.c        **** 		if (G_Stop) break;
 878:main.c        **** 		while (G_Pause);
 879:main.c        **** 	}
 880:main.c        **** }
ARM GAS  C:\Users\FRANKL~1\AppData\Local\Temp\ccCAoJJX.s 			page 19


 881:main.c        **** 
 882:main.c        **** void Scan(uint8 wide, uint8 loop) {
 883:main.c        **** 	for (uint8 device = 1; device <= CONTACT_COUNT/**//2; device++) {
 884:main.c        **** 		uint8 contact1 = device;
 885:main.c        **** 		uint8 contact2 = device + 1;
 886:main.c        **** 		uint8 intermediate1 = 1;
 887:main.c        **** 		uint8 intermediate2 = 2;
 888:main.c        **** 		
 889:main.c        **** 		Disconnect_All_Contacts_From_All_Intermediates();
 890:main.c        **** 		Zero_All_DACs();
 891:main.c        **** 		Connect_Intermediates();
 892:main.c        **** 		Connect_Contact_To_Intermediate(contact1, intermediate1);
 893:main.c        **** 		Connect_Contact_To_Intermediate(contact2, intermediate2);
 894:main.c        **** 		
 895:main.c        **** 		sprintf(TransmitBuffer, "\r\n%u\r\n", device);
 896:main.c        **** 		sendTransmitBuffer();
 897:main.c        **** 		
 898:main.c        **** 		if (wide) {
 899:main.c        **** 			Measure_Wide_Gate_Sweep(loop);
 900:main.c        **** 		} else {
 901:main.c        **** 			Measure_Gate_Sweep(loop);
 902:main.c        **** 		}
 903:main.c        **** 		
 904:main.c        **** 		if (G_Break || G_Stop) break;
 905:main.c        **** 		while (G_Pause);
 906:main.c        **** 	}
 907:main.c        **** }
 908:main.c        **** 
 909:main.c        **** void Scan_Range(uint8 startDevice, uint8 stopDevice, uint8 wide, uint8 loop) {
 910:main.c        **** 	if (startDevice >= CONTACT_COUNT) return;
 911:main.c        **** 	if (stopDevice >= CONTACT_COUNT) return;
 912:main.c        **** 	
 913:main.c        **** 	for (uint8 device = startDevice; device <= stopDevice; device++) {
 914:main.c        **** 		uint8 contact1 = device;
 915:main.c        **** 		uint8 contact2 = device + 1;
 916:main.c        **** 		uint8 intermediate1 = 1;
 917:main.c        **** 		uint8 intermediate2 = 2;
 918:main.c        **** 		
 919:main.c        **** 		Disconnect_All_Contacts_From_All_Intermediates();
 920:main.c        **** 		Zero_All_DACs();
 921:main.c        **** 		Connect_Intermediates();
 922:main.c        **** 		Connect_Contact_To_Intermediate(contact1, intermediate1);
 923:main.c        **** 		Connect_Contact_To_Intermediate(contact2, intermediate2);
 924:main.c        **** 		
 925:main.c        **** 		sprintf(TransmitBuffer, "\r\n%u\r\n", device);
 926:main.c        **** 		sendTransmitBuffer();
 927:main.c        **** 		
 928:main.c        **** 		if (wide) {
 929:main.c        **** 			Measure_Wide_Gate_Sweep(loop);
 930:main.c        **** 		} else {
 931:main.c        **** 			Measure_Gate_Sweep(loop);
 932:main.c        **** 		}
 933:main.c        **** 		
 934:main.c        **** 		if (G_Break || G_Stop) break;
 935:main.c        **** 		while (G_Pause);
 936:main.c        **** 	}
 937:main.c        **** }
ARM GAS  C:\Users\FRANKL~1\AppData\Local\Temp\ccCAoJJX.s 			page 20


 938:main.c        **** 
 939:main.c        **** CY_ISR (CommunicationHandlerISR) {
 109              		.loc 2 939 0
 110              		.cfi_startproc
 111              		@ args = 0, pretend = 0, frame = 64
 112              		@ frame_needed = 0, uses_anonymous_args = 0
 113 0000 30B5     		push	{r4, r5, lr}
 114              		.cfi_def_cfa_offset 12
 115              		.cfi_offset 4, -12
 116              		.cfi_offset 5, -8
 117              		.cfi_offset 14, -4
 118 0002 91B0     		sub	sp, sp, #68
 119              		.cfi_def_cfa_offset 80
 940:main.c        **** 	if (USBUARTH_DataIsReady()) {
 120              		.loc 2 940 0
 121 0004 FFF7FEFF 		bl	USBUARTH_DataIsReady
 122              	.LVL8:
 123 0008 0028     		cmp	r0, #0
 124 000a 37D0     		beq	.L10
 125              	.LBB2:
 941:main.c        **** 		// USBUARTH_Receive_Until(UART_Receive_Buffer, USBUART_BUFFER_SIZE, "\r");
 942:main.c        **** 		
 943:main.c        **** 		char temp_buffer[USBUART_BUFFER_SIZE];
 944:main.c        **** 		uint8 temp_count = USBUART_GetAll((uint8*) temp_buffer);
 126              		.loc 2 944 0
 127 000c 6846     		mov	r0, sp
 128 000e FFF7FEFF 		bl	USBUART_GetAll
 129              	.LVL9:
 130 0012 C0B2     		uxtb	r0, r0
 131              	.LVL10:
 132              	.LBB3:
 945:main.c        **** 		
 946:main.c        **** 		for (uint8 i = 0; i < temp_count; i++) {
 133              		.loc 2 946 0
 134 0014 0023     		movs	r3, #0
 135 0016 2EE0     		b	.L11
 136              	.LVL11:
 137              	.L17:
 138              	.LBB4:
 947:main.c        **** 			char c = temp_buffer[i];
 139              		.loc 2 947 0
 140 0018 10AA     		add	r2, sp, #64
 141 001a 1A44     		add	r2, r2, r3
 142 001c 12F8402C 		ldrb	r2, [r2, #-64]	@ zero_extendqisi2
 143              	.LVL12:
 948:main.c        **** 			
 949:main.c        **** 			USBUART_Receive_Buffer[USBUART_Rx_Position] = c;
 144              		.loc 2 949 0
 145 0020 5949     		ldr	r1, .L31
 146 0022 0978     		ldrb	r1, [r1]	@ zero_extendqisi2
 147 0024 C9B2     		uxtb	r1, r1
 148 0026 594C     		ldr	r4, .L31+4
 149 0028 6254     		strb	r2, [r4, r1]
 950:main.c        **** 			
 951:main.c        **** 			// sprintf(TransmitBuffer, "USB: %c\r\n", USBUART_Receive_Buffer[USBUART_Rx_Position]);
 952:main.c        **** 			// UART_1_PutString(TransmitBuffer);
 953:main.c        **** 			
ARM GAS  C:\Users\FRANKL~1\AppData\Local\Temp\ccCAoJJX.s 			page 21


 954:main.c        **** 			if (c == '\r' || c == '\n' || c == '!') {
 150              		.loc 2 954 0
 151 002a 0D2A     		cmp	r2, #13
 152 002c 03D0     		beq	.L12
 153              		.loc 2 954 0 is_stmt 0 discriminator 1
 154 002e 0A2A     		cmp	r2, #10
 155 0030 01D0     		beq	.L12
 156              		.loc 2 954 0 discriminator 2
 157 0032 212A     		cmp	r2, #33
 158 0034 10D1     		bne	.L13
 159              	.L12:
 955:main.c        **** 				USBUART_Receive_Buffer[USBUART_Rx_Position] = 0;
 160              		.loc 2 955 0 is_stmt 1
 161 0036 5449     		ldr	r1, .L31
 162 0038 0A78     		ldrb	r2, [r1]	@ zero_extendqisi2
 163              	.LVL13:
 164 003a D2B2     		uxtb	r2, r2
 165 003c 0025     		movs	r5, #0
 166 003e 534C     		ldr	r4, .L31+4
 167 0040 A554     		strb	r5, [r4, r2]
 956:main.c        **** 				if (USBUART_Rx_Position) newData = 1;
 168              		.loc 2 956 0
 169 0042 0A78     		ldrb	r2, [r1]	@ zero_extendqisi2
 170 0044 12F0FF0F 		tst	r2, #255
 171 0048 02D0     		beq	.L14
 172              		.loc 2 956 0 is_stmt 0 discriminator 1
 173 004a 0121     		movs	r1, #1
 174 004c 504A     		ldr	r2, .L31+8
 175 004e 1170     		strb	r1, [r2]
 176              	.L14:
 957:main.c        **** 				USBUART_Rx_Position = 0;
 177              		.loc 2 957 0 is_stmt 1
 178 0050 0021     		movs	r1, #0
 179 0052 4D4A     		ldr	r2, .L31
 180 0054 1170     		strb	r1, [r2]
 181 0056 04E0     		b	.L15
 182              	.LVL14:
 183              	.L13:
 958:main.c        **** 			} else {
 959:main.c        **** 				USBUART_Rx_Position++;
 184              		.loc 2 959 0
 185 0058 4B49     		ldr	r1, .L31
 186 005a 0A78     		ldrb	r2, [r1]	@ zero_extendqisi2
 187              	.LVL15:
 188 005c 0132     		adds	r2, r2, #1
 189 005e D2B2     		uxtb	r2, r2
 190 0060 0A70     		strb	r2, [r1]
 191              	.L15:
 960:main.c        **** 			}
 961:main.c        **** 			
 962:main.c        **** 			if (USBUART_Rx_Position >= USBUART_BUFFER_SIZE) USBUART_Rx_Position = 0;
 192              		.loc 2 962 0
 193 0062 494A     		ldr	r2, .L31
 194 0064 1278     		ldrb	r2, [r2]	@ zero_extendqisi2
 195 0066 D2B2     		uxtb	r2, r2
 196 0068 3F2A     		cmp	r2, #63
 197 006a 02D9     		bls	.L16
ARM GAS  C:\Users\FRANKL~1\AppData\Local\Temp\ccCAoJJX.s 			page 22


 198              		.loc 2 962 0 is_stmt 0 discriminator 1
 199 006c 0021     		movs	r1, #0
 200 006e 464A     		ldr	r2, .L31
 201 0070 1170     		strb	r1, [r2]
 202              	.L16:
 203              	.LBE4:
 946:main.c        **** 			char c = temp_buffer[i];
 204              		.loc 2 946 0 is_stmt 1 discriminator 2
 205 0072 0133     		adds	r3, r3, #1
 206              	.LVL16:
 207 0074 DBB2     		uxtb	r3, r3
 208              	.LVL17:
 209              	.L11:
 946:main.c        **** 			char c = temp_buffer[i];
 210              		.loc 2 946 0 is_stmt 0 discriminator 1
 211 0076 8342     		cmp	r3, r0
 212 0078 CED3     		bcc	.L17
 213 007a 3AE0     		b	.L18
 214              	.LVL18:
 215              	.L10:
 216              	.LBE3:
 217              	.LBE2:
 963:main.c        **** 		}
 964:main.c        **** 	} else
 965:main.c        **** 	if (UART_1_GetRxBufferSize()) {
 218              		.loc 2 965 0 is_stmt 1
 219 007c FFF7FEFF 		bl	UART_1_GetRxBufferSize
 220              	.LVL19:
 221 0080 0028     		cmp	r0, #0
 222 0082 36D0     		beq	.L18
 966:main.c        **** 		UART_Receive_Buffer[UART_Rx_Position] = UART_1_GetChar();
 223              		.loc 2 966 0
 224 0084 434D     		ldr	r5, .L31+12
 225 0086 2C78     		ldrb	r4, [r5]	@ zero_extendqisi2
 226 0088 E4B2     		uxtb	r4, r4
 227 008a FFF7FEFF 		bl	UART_1_GetChar
 228              	.LVL20:
 229 008e 424A     		ldr	r2, .L31+16
 230 0090 1055     		strb	r0, [r2, r4]
 967:main.c        **** 		
 968:main.c        **** 		if (UART_Receive_Buffer[UART_Rx_Position] == '\r' || UART_Receive_Buffer[UART_Rx_Position] == '\n
 231              		.loc 2 968 0
 232 0092 2B78     		ldrb	r3, [r5]	@ zero_extendqisi2
 233 0094 DBB2     		uxtb	r3, r3
 234 0096 D35C     		ldrb	r3, [r2, r3]	@ zero_extendqisi2
 235 0098 DBB2     		uxtb	r3, r3
 236 009a 0D2B     		cmp	r3, #13
 237 009c 0BD0     		beq	.L19
 238              		.loc 2 968 0 is_stmt 0 discriminator 1
 239 009e 2B78     		ldrb	r3, [r5]	@ zero_extendqisi2
 240 00a0 DBB2     		uxtb	r3, r3
 241 00a2 D35C     		ldrb	r3, [r2, r3]	@ zero_extendqisi2
 242 00a4 DBB2     		uxtb	r3, r3
 243 00a6 0A2B     		cmp	r3, #10
 244 00a8 05D0     		beq	.L19
 245              		.loc 2 968 0 discriminator 2
 246 00aa 2B78     		ldrb	r3, [r5]	@ zero_extendqisi2
ARM GAS  C:\Users\FRANKL~1\AppData\Local\Temp\ccCAoJJX.s 			page 23


 247 00ac DBB2     		uxtb	r3, r3
 248 00ae D35C     		ldrb	r3, [r2, r3]	@ zero_extendqisi2
 249 00b0 DBB2     		uxtb	r3, r3
 250 00b2 212B     		cmp	r3, #33
 251 00b4 10D1     		bne	.L20
 252              	.L19:
 969:main.c        **** 			UART_Receive_Buffer[UART_Rx_Position] = 0;
 253              		.loc 2 969 0 is_stmt 1
 254 00b6 374A     		ldr	r2, .L31+12
 255 00b8 1378     		ldrb	r3, [r2]	@ zero_extendqisi2
 256 00ba DBB2     		uxtb	r3, r3
 257 00bc 0020     		movs	r0, #0
 258 00be 3649     		ldr	r1, .L31+16
 259 00c0 C854     		strb	r0, [r1, r3]
 970:main.c        **** 			if (UART_Rx_Position) newData = 2;
 260              		.loc 2 970 0
 261 00c2 1378     		ldrb	r3, [r2]	@ zero_extendqisi2
 262 00c4 13F0FF0F 		tst	r3, #255
 263 00c8 02D0     		beq	.L21
 264              		.loc 2 970 0 is_stmt 0 discriminator 1
 265 00ca 0222     		movs	r2, #2
 266 00cc 304B     		ldr	r3, .L31+8
 267 00ce 1A70     		strb	r2, [r3]
 268              	.L21:
 971:main.c        **** 			UART_Rx_Position = 0;
 269              		.loc 2 971 0 is_stmt 1
 270 00d0 0022     		movs	r2, #0
 271 00d2 304B     		ldr	r3, .L31+12
 272 00d4 1A70     		strb	r2, [r3]
 273 00d6 04E0     		b	.L22
 274              	.L20:
 972:main.c        **** 		} else {
 973:main.c        **** 			UART_Rx_Position++;
 275              		.loc 2 973 0
 276 00d8 2E4A     		ldr	r2, .L31+12
 277 00da 1378     		ldrb	r3, [r2]	@ zero_extendqisi2
 278 00dc 0133     		adds	r3, r3, #1
 279 00de DBB2     		uxtb	r3, r3
 280 00e0 1370     		strb	r3, [r2]
 281              	.L22:
 974:main.c        **** 		}
 975:main.c        **** 		
 976:main.c        **** 		if (UART_Rx_Position >= USBUART_BUFFER_SIZE) UART_Rx_Position = 0;
 282              		.loc 2 976 0
 283 00e2 2C4B     		ldr	r3, .L31+12
 284 00e4 1B78     		ldrb	r3, [r3]	@ zero_extendqisi2
 285 00e6 DBB2     		uxtb	r3, r3
 286 00e8 3F2B     		cmp	r3, #63
 287 00ea 02D9     		bls	.L18
 288              		.loc 2 976 0 is_stmt 0 discriminator 1
 289 00ec 0022     		movs	r2, #0
 290 00ee 294B     		ldr	r3, .L31+12
 291 00f0 1A70     		strb	r2, [r3]
 292              	.L18:
 977:main.c        **** 	}
 978:main.c        **** 	
 979:main.c        **** 	if (newData) {
ARM GAS  C:\Users\FRANKL~1\AppData\Local\Temp\ccCAoJJX.s 			page 24


 293              		.loc 2 979 0 is_stmt 1
 294 00f2 274B     		ldr	r3, .L31+8
 295 00f4 1B78     		ldrb	r3, [r3]	@ zero_extendqisi2
 296 00f6 13F0FF0F 		tst	r3, #255
 297 00fa 3FD0     		beq	.L23
 298              	.LVL21:
 299              	.LBB5:
 980:main.c        **** 		char* ReceiveBuffer = &USBUART_Receive_Buffer[0];
 981:main.c        **** 		if (newData == 2) ReceiveBuffer = &UART_Receive_Buffer[0];
 300              		.loc 2 981 0
 301 00fc 244B     		ldr	r3, .L31+8
 302 00fe 1B78     		ldrb	r3, [r3]	@ zero_extendqisi2
 303 0100 DBB2     		uxtb	r3, r3
 304 0102 022B     		cmp	r3, #2
 305 0104 01D0     		beq	.L29
 980:main.c        **** 		char* ReceiveBuffer = &USBUART_Receive_Buffer[0];
 306              		.loc 2 980 0
 307 0106 214C     		ldr	r4, .L31+4
 308 0108 00E0     		b	.L24
 309              	.L29:
 310              		.loc 2 981 0
 311 010a 234C     		ldr	r4, .L31+16
 312              	.L24:
 313              	.LVL22:
 982:main.c        **** 		
 983:main.c        **** 		if (strstr(ReceiveBuffer, "stop ") == &ReceiveBuffer[0]) {
 314              		.loc 2 983 0
 315 010c 2349     		ldr	r1, .L31+20
 316 010e 2046     		mov	r0, r4
 317 0110 FFF7FEFF 		bl	strstr
 318              	.LVL23:
 319 0114 8442     		cmp	r4, r0
 320 0116 05D1     		bne	.L25
 984:main.c        **** 			G_Stop = 1;
 321              		.loc 2 984 0
 322 0118 1D4B     		ldr	r3, .L31+8
 323 011a 0122     		movs	r2, #1
 324 011c 5A70     		strb	r2, [r3, #1]
 985:main.c        **** 			newData = 0;
 325              		.loc 2 985 0
 326 011e 0022     		movs	r2, #0
 327 0120 1A70     		strb	r2, [r3]
 328 0122 2BE0     		b	.L23
 329              	.L25:
 986:main.c        **** 		} else 
 987:main.c        **** 		if (strstr(ReceiveBuffer, "break ") == &ReceiveBuffer[0]) {
 330              		.loc 2 987 0
 331 0124 1E49     		ldr	r1, .L31+24
 332 0126 2046     		mov	r0, r4
 333 0128 FFF7FEFF 		bl	strstr
 334              	.LVL24:
 335 012c 8442     		cmp	r4, r0
 336 012e 05D1     		bne	.L26
 988:main.c        **** 			G_Break = 1;
 337              		.loc 2 988 0
 338 0130 174B     		ldr	r3, .L31+8
 339 0132 0122     		movs	r2, #1
ARM GAS  C:\Users\FRANKL~1\AppData\Local\Temp\ccCAoJJX.s 			page 25


 340 0134 9A70     		strb	r2, [r3, #2]
 989:main.c        **** 			newData = 0;
 341              		.loc 2 989 0
 342 0136 0022     		movs	r2, #0
 343 0138 1A70     		strb	r2, [r3]
 344 013a 1FE0     		b	.L23
 345              	.L26:
 990:main.c        **** 		} else 
 991:main.c        **** 		if (strstr(ReceiveBuffer, "pause ") == &ReceiveBuffer[0]) {
 346              		.loc 2 991 0
 347 013c 1949     		ldr	r1, .L31+28
 348 013e 2046     		mov	r0, r4
 349 0140 FFF7FEFF 		bl	strstr
 350              	.LVL25:
 351 0144 8442     		cmp	r4, r0
 352 0146 05D1     		bne	.L27
 992:main.c        **** 			G_Pause = 1;
 353              		.loc 2 992 0
 354 0148 114B     		ldr	r3, .L31+8
 355 014a 0122     		movs	r2, #1
 356 014c DA70     		strb	r2, [r3, #3]
 993:main.c        **** 			newData = 0;
 357              		.loc 2 993 0
 358 014e 0022     		movs	r2, #0
 359 0150 1A70     		strb	r2, [r3]
 360 0152 13E0     		b	.L23
 361              	.L27:
 994:main.c        **** 		} else 
 995:main.c        **** 		if (strstr(ReceiveBuffer, "resume ") == &ReceiveBuffer[0]) {
 362              		.loc 2 995 0
 363 0154 1449     		ldr	r1, .L31+32
 364 0156 2046     		mov	r0, r4
 365 0158 FFF7FEFF 		bl	strstr
 366              	.LVL26:
 367 015c 8442     		cmp	r4, r0
 368 015e 04D1     		bne	.L28
 996:main.c        **** 			G_Pause = 0;
 369              		.loc 2 996 0
 370 0160 0B4B     		ldr	r3, .L31+8
 371 0162 0022     		movs	r2, #0
 372 0164 DA70     		strb	r2, [r3, #3]
 997:main.c        **** 			newData = 0;
 373              		.loc 2 997 0
 374 0166 1A70     		strb	r2, [r3]
 375 0168 08E0     		b	.L23
 376              	.L28:
 998:main.c        **** 		} else 
 999:main.c        **** 		if (strstr(ReceiveBuffer, "tristate ") == &ReceiveBuffer[0]) {
 377              		.loc 2 999 0
 378 016a 1049     		ldr	r1, .L31+36
 379 016c 2046     		mov	r0, r4
 380 016e FFF7FEFF 		bl	strstr
 381              	.LVL27:
 382 0172 8442     		cmp	r4, r0
 383 0174 02D1     		bne	.L23
1000:main.c        **** 			// To do
1001:main.c        **** 			newData = 0;
ARM GAS  C:\Users\FRANKL~1\AppData\Local\Temp\ccCAoJJX.s 			page 26


 384              		.loc 2 1001 0
 385 0176 0022     		movs	r2, #0
 386 0178 054B     		ldr	r3, .L31+8
 387 017a 1A70     		strb	r2, [r3]
 388              	.LVL28:
 389              	.L23:
 390              	.LBE5:
1002:main.c        **** 		}
1003:main.c        **** 	}
1004:main.c        **** 	
1005:main.c        **** 	CommunicationInterrupt_ClearPending();
 391              		.loc 2 1005 0
 392 017c FFF7FEFF 		bl	CommunicationInterrupt_ClearPending
 393              	.LVL29:
1006:main.c        **** 	CommunicationTimer_ReadStatusRegister();
 394              		.loc 2 1006 0
 395 0180 FFF7FEFF 		bl	CommunicationTimer_ReadStatusRegister
 396              	.LVL30:
1007:main.c        **** }
 397              		.loc 2 1007 0
 398 0184 11B0     		add	sp, sp, #68
 399              		.cfi_def_cfa_offset 12
 400              		@ sp needed
 401 0186 30BD     		pop	{r4, r5, pc}
 402              	.L32:
 403              		.align	2
 404              	.L31:
 405 0188 00000000 		.word	USBUART_Rx_Position
 406 018c 00000000 		.word	USBUART_Receive_Buffer
 407 0190 00000000 		.word	.LANCHOR0
 408 0194 00000000 		.word	UART_Rx_Position
 409 0198 00000000 		.word	UART_Receive_Buffer
 410 019c 00000000 		.word	.LC0
 411 01a0 08000000 		.word	.LC1
 412 01a4 10000000 		.word	.LC2
 413 01a8 18000000 		.word	.LC3
 414 01ac 20000000 		.word	.LC4
 415              		.cfi_endproc
 416              	.LFE116:
 417              		.size	CommunicationHandlerISR, .-CommunicationHandlerISR
 418              		.section	.text.USBUARTH_Send,"ax",%progbits
 419              		.align	2
 420              		.global	USBUARTH_Send
 421              		.thumb
 422              		.thumb_func
 423              		.type	USBUARTH_Send, %function
 424              	USBUARTH_Send:
 425              	.LFB66:
  39:USBUART_Helpers.h **** 
  40:USBUART_Helpers.h **** 
  41:USBUART_Helpers.h **** uint8 USBUARTH_Send(char* buffer, uint16 count) {
 426              		.loc 1 41 0
 427              		.cfi_startproc
 428              		@ args = 0, pretend = 0, frame = 0
 429              		@ frame_needed = 0, uses_anonymous_args = 0
 430              	.LVL31:
  42:USBUART_Helpers.h **** 	if (count > 0) {
ARM GAS  C:\Users\FRANKL~1\AppData\Local\Temp\ccCAoJJX.s 			page 27


 431              		.loc 1 42 0
 432 0000 49B9     		cbnz	r1, .L39
  43:USBUART_Helpers.h **** 		// Wait until component is ready to send data to host.
  44:USBUART_Helpers.h **** 		for (uint32 tries = 0; tries < 10; tries++) {
  45:USBUART_Helpers.h **** 			USBUARTH_Maintain_Configuration();
  46:USBUART_Helpers.h **** 			if (USBUART_CDCIsReady()) break;
  47:USBUART_Helpers.h **** 		}
  48:USBUART_Helpers.h ****         
  49:USBUART_Helpers.h **** 		if (!USBUART_CDCIsReady()) return 0;
  50:USBUART_Helpers.h **** 		
  51:USBUART_Helpers.h **** 		// Send data to host
  52:USBUART_Helpers.h **** 		USBUART_PutData((uint8*) buffer, count);
  53:USBUART_Helpers.h **** 		
  54:USBUART_Helpers.h **** 		/* If the last sent packet is exactly the maximum packet 
  55:USBUART_Helpers.h **** 		*  size, it is followed by a zero-length packet to assure
  56:USBUART_Helpers.h **** 		*  that the end of the segment is properly identified by 
  57:USBUART_Helpers.h **** 		*  the terminal.
  58:USBUART_Helpers.h **** 		*/
  59:USBUART_Helpers.h **** 		if (USBUART_BUFFER_SIZE == count) {
  60:USBUART_Helpers.h **** 			// Wait until component is ready to send data to PC.
  61:USBUART_Helpers.h **** 			while (!USBUART_CDCIsReady());
  62:USBUART_Helpers.h ****             
  63:USBUART_Helpers.h **** 			// Send zero-length packet to PC.
  64:USBUART_Helpers.h **** 			USBUART_PutData(NULL, 0);
  65:USBUART_Helpers.h **** 		}
  66:USBUART_Helpers.h **** 	}
  67:USBUART_Helpers.h **** 	
  68:USBUART_Helpers.h **** 	return 1;
 433              		.loc 1 68 0
 434 0002 0123     		movs	r3, #1
  69:USBUART_Helpers.h **** }
 435              		.loc 1 69 0
 436 0004 1846     		mov	r0, r3
 437              	.LVL32:
 438 0006 7047     		bx	lr
 439              	.LVL33:
 440              	.L37:
 441              		.cfi_def_cfa_offset 16
 442              		.cfi_offset 4, -16
 443              		.cfi_offset 5, -12
 444              		.cfi_offset 6, -8
 445              		.cfi_offset 14, -4
 446              	.LBB6:
  45:USBUART_Helpers.h **** 			if (USBUART_CDCIsReady()) break;
 447              		.loc 1 45 0
 448 0008 FFF7FEFF 		bl	USBUARTH_Maintain_Configuration
 449              	.LVL34:
  46:USBUART_Helpers.h **** 		}
 450              		.loc 1 46 0
 451 000c FFF7FEFF 		bl	USBUART_CDCIsReady
 452              	.LVL35:
 453 0010 38B9     		cbnz	r0, .L36
  44:USBUART_Helpers.h **** 			USBUARTH_Maintain_Configuration();
 454              		.loc 1 44 0 discriminator 2
 455 0012 0134     		adds	r4, r4, #1
 456              	.LVL36:
 457 0014 03E0     		b	.L34
ARM GAS  C:\Users\FRANKL~1\AppData\Local\Temp\ccCAoJJX.s 			page 28


 458              	.LVL37:
 459              	.L39:
 460              		.cfi_def_cfa_offset 0
 461              		.cfi_restore 4
 462              		.cfi_restore 5
 463              		.cfi_restore 6
 464              		.cfi_restore 14
 465              	.LBE6:
  41:USBUART_Helpers.h **** 	if (count > 0) {
 466              		.loc 1 41 0
 467 0016 70B5     		push	{r4, r5, r6, lr}
 468              		.cfi_def_cfa_offset 16
 469              		.cfi_offset 4, -16
 470              		.cfi_offset 5, -12
 471              		.cfi_offset 6, -8
 472              		.cfi_offset 14, -4
 473 0018 0D46     		mov	r5, r1
 474 001a 0646     		mov	r6, r0
 475 001c 0024     		movs	r4, #0
 476              	.LVL38:
 477              	.L34:
 478              	.LBB7:
  44:USBUART_Helpers.h **** 			USBUARTH_Maintain_Configuration();
 479              		.loc 1 44 0 discriminator 1
 480 001e 092C     		cmp	r4, #9
 481 0020 F2D9     		bls	.L37
 482              	.L36:
 483              	.LBE7:
  49:USBUART_Helpers.h **** 		
 484              		.loc 1 49 0
 485 0022 FFF7FEFF 		bl	USBUART_CDCIsReady
 486              	.LVL39:
 487 0026 0346     		mov	r3, r0
 488 0028 80B1     		cbz	r0, .L35
  52:USBUART_Helpers.h **** 		
 489              		.loc 1 52 0
 490 002a 2946     		mov	r1, r5
 491 002c 3046     		mov	r0, r6
 492 002e FFF7FEFF 		bl	USBUART_PutData
 493              	.LVL40:
  59:USBUART_Helpers.h **** 			// Wait until component is ready to send data to PC.
 494              		.loc 1 59 0
 495 0032 402D     		cmp	r5, #64
 496 0034 09D1     		bne	.L40
 497              	.L38:
  61:USBUART_Helpers.h ****             
 498              		.loc 1 61 0 discriminator 1
 499 0036 FFF7FEFF 		bl	USBUART_CDCIsReady
 500              	.LVL41:
 501 003a 0028     		cmp	r0, #0
 502 003c FBD0     		beq	.L38
  64:USBUART_Helpers.h **** 		}
 503              		.loc 1 64 0
 504 003e 0021     		movs	r1, #0
 505 0040 0846     		mov	r0, r1
 506 0042 FFF7FEFF 		bl	USBUART_PutData
 507              	.LVL42:
ARM GAS  C:\Users\FRANKL~1\AppData\Local\Temp\ccCAoJJX.s 			page 29


  68:USBUART_Helpers.h **** }
 508              		.loc 1 68 0
 509 0046 0123     		movs	r3, #1
 510 0048 00E0     		b	.L35
 511              	.L40:
 512 004a 0123     		movs	r3, #1
 513              	.L35:
 514              		.loc 1 69 0
 515 004c 1846     		mov	r0, r3
 516 004e 70BD     		pop	{r4, r5, r6, pc}
 517              		.cfi_endproc
 518              	.LFE66:
 519              		.size	USBUARTH_Send, .-USBUARTH_Send
 520              		.section	.text.USBUARTH_Receive,"ax",%progbits
 521              		.align	2
 522              		.global	USBUARTH_Receive
 523              		.thumb
 524              		.thumb_func
 525              		.type	USBUARTH_Receive, %function
 526              	USBUARTH_Receive:
 527              	.LFB67:
  70:USBUART_Helpers.h **** 
  71:USBUART_Helpers.h **** uint8 USBUARTH_Receive(char* buffer, uint16* count) {
 528              		.loc 1 71 0
 529              		.cfi_startproc
 530              		@ args = 0, pretend = 0, frame = 0
 531              		@ frame_needed = 0, uses_anonymous_args = 0
 532              	.LVL43:
 533 0000 38B5     		push	{r3, r4, r5, lr}
 534              		.cfi_def_cfa_offset 16
 535              		.cfi_offset 3, -16
 536              		.cfi_offset 4, -12
 537              		.cfi_offset 5, -8
 538              		.cfi_offset 14, -4
 539 0002 0446     		mov	r4, r0
 540 0004 0D46     		mov	r5, r1
  72:USBUART_Helpers.h **** 	// Wait for input data from host
  73:USBUART_Helpers.h **** 	while (!USBUART_DataIsReady()) USBUARTH_Maintain_Configuration();
 541              		.loc 1 73 0
 542 0006 01E0     		b	.L43
 543              	.LVL44:
 544              	.L44:
 545              		.loc 1 73 0 is_stmt 0 discriminator 2
 546 0008 FFF7FEFF 		bl	USBUARTH_Maintain_Configuration
 547              	.LVL45:
 548              	.L43:
 549              		.loc 1 73 0 discriminator 1
 550 000c FFF7FEFF 		bl	USBUART_DataIsReady
 551              	.LVL46:
 552 0010 0028     		cmp	r0, #0
 553 0012 F9D0     		beq	.L44
  74:USBUART_Helpers.h **** 	
  75:USBUART_Helpers.h **** 	// Read received data and re-enable OUT endpoint.
  76:USBUART_Helpers.h **** 	*count = USBUART_GetAll((uint8*) buffer);
 554              		.loc 1 76 0 is_stmt 1
 555 0014 2046     		mov	r0, r4
 556 0016 FFF7FEFF 		bl	USBUART_GetAll
ARM GAS  C:\Users\FRANKL~1\AppData\Local\Temp\ccCAoJJX.s 			page 30


 557              	.LVL47:
 558 001a 2880     		strh	r0, [r5]	@ movhi
  77:USBUART_Helpers.h **** 	
  78:USBUART_Helpers.h **** 	buffer[*count] = 0;
 559              		.loc 1 78 0
 560 001c 0023     		movs	r3, #0
 561 001e 2354     		strb	r3, [r4, r0]
  79:USBUART_Helpers.h **** 	
  80:USBUART_Helpers.h **** 	return 1u;
  81:USBUART_Helpers.h **** }
 562              		.loc 1 81 0
 563 0020 0120     		movs	r0, #1
 564 0022 38BD     		pop	{r3, r4, r5, pc}
 565              		.cfi_endproc
 566              	.LFE67:
 567              		.size	USBUARTH_Receive, .-USBUARTH_Receive
 568              		.section	.text.USBUARTH_GetChar,"ax",%progbits
 569              		.align	2
 570              		.global	USBUARTH_GetChar
 571              		.thumb
 572              		.thumb_func
 573              		.type	USBUARTH_GetChar, %function
 574              	USBUARTH_GetChar:
 575              	.LFB68:
  82:USBUART_Helpers.h **** 
  83:USBUART_Helpers.h **** char USBUARTH_GetChar() {
 576              		.loc 1 83 0
 577              		.cfi_startproc
 578              		@ args = 0, pretend = 0, frame = 0
 579              		@ frame_needed = 0, uses_anonymous_args = 0
 580 0000 08B5     		push	{r3, lr}
 581              		.cfi_def_cfa_offset 8
 582              		.cfi_offset 3, -8
 583              		.cfi_offset 14, -4
  84:USBUART_Helpers.h **** 	while (!USBUART_DataIsReady()) USBUARTH_Maintain_Configuration();
 584              		.loc 1 84 0
 585 0002 01E0     		b	.L47
 586              	.L48:
 587              		.loc 1 84 0 is_stmt 0 discriminator 2
 588 0004 FFF7FEFF 		bl	USBUARTH_Maintain_Configuration
 589              	.LVL48:
 590              	.L47:
 591              		.loc 1 84 0 discriminator 1
 592 0008 FFF7FEFF 		bl	USBUART_DataIsReady
 593              	.LVL49:
 594 000c 0028     		cmp	r0, #0
 595 000e F9D0     		beq	.L48
  85:USBUART_Helpers.h **** 	
  86:USBUART_Helpers.h **** 	return USBUART_GetChar();
 596              		.loc 1 86 0 is_stmt 1
 597 0010 FFF7FEFF 		bl	USBUART_GetChar
 598              	.LVL50:
  87:USBUART_Helpers.h **** }
 599              		.loc 1 87 0
 600 0014 08BD     		pop	{r3, pc}
 601              		.cfi_endproc
 602              	.LFE68:
ARM GAS  C:\Users\FRANKL~1\AppData\Local\Temp\ccCAoJJX.s 			page 31


 603              		.size	USBUARTH_GetChar, .-USBUARTH_GetChar
 604 0016 00BF     		.section	.text.USBUARTH_Receive_Until,"ax",%progbits
 605              		.align	2
 606              		.global	USBUARTH_Receive_Until
 607              		.thumb
 608              		.thumb_func
 609              		.type	USBUARTH_Receive_Until, %function
 610              	USBUARTH_Receive_Until:
 611              	.LFB69:
  88:USBUART_Helpers.h **** 
  89:USBUART_Helpers.h **** uint8 USBUARTH_Receive_Until(char* buffer, uint16 maxLength, const char* termination) {
 612              		.loc 1 89 0
 613              		.cfi_startproc
 614              		@ args = 0, pretend = 0, frame = 0
 615              		@ frame_needed = 0, uses_anonymous_args = 0
 616              	.LVL51:
 617 0000 2DE9F041 		push	{r4, r5, r6, r7, r8, lr}
 618              		.cfi_def_cfa_offset 24
 619              		.cfi_offset 4, -24
 620              		.cfi_offset 5, -20
 621              		.cfi_offset 6, -16
 622              		.cfi_offset 7, -12
 623              		.cfi_offset 8, -8
 624              		.cfi_offset 14, -4
 625 0004 0546     		mov	r5, r0
 626 0006 0E46     		mov	r6, r1
 627 0008 1746     		mov	r7, r2
 628              	.LVL52:
 629              	.LBB8:
  90:USBUART_Helpers.h **** 	for (uint16 i = 0; i < maxLength; i++) {
 630              		.loc 1 90 0
 631 000a 0023     		movs	r3, #0
 632 000c 03E0     		b	.L51
 633              	.LVL53:
 634              	.L52:
  91:USBUART_Helpers.h **** 		buffer[i] = 0;
 635              		.loc 1 91 0 discriminator 3
 636 000e 0022     		movs	r2, #0
 637 0010 EA54     		strb	r2, [r5, r3]
  90:USBUART_Helpers.h **** 	for (uint16 i = 0; i < maxLength; i++) {
 638              		.loc 1 90 0 discriminator 3
 639 0012 0133     		adds	r3, r3, #1
 640              	.LVL54:
 641 0014 9BB2     		uxth	r3, r3
 642              	.LVL55:
 643              	.L51:
  90:USBUART_Helpers.h **** 	for (uint16 i = 0; i < maxLength; i++) {
 644              		.loc 1 90 0 is_stmt 0 discriminator 1
 645 0016 B342     		cmp	r3, r6
 646 0018 F9D3     		bcc	.L52
 647 001a 0024     		movs	r4, #0
 648 001c 16E0     		b	.L53
 649              	.LVL56:
 650              	.L56:
 651              	.LBE8:
 652              	.LBB9:
  92:USBUART_Helpers.h **** 	}
ARM GAS  C:\Users\FRANKL~1\AppData\Local\Temp\ccCAoJJX.s 			page 32


  93:USBUART_Helpers.h **** 	
  94:USBUART_Helpers.h **** 	for (uint16 i = 0; i < maxLength - 1; i++) {
  95:USBUART_Helpers.h **** 		buffer[i] = USBUARTH_GetChar();
 653              		.loc 1 95 0 is_stmt 1
 654 001e FFF7FEFF 		bl	USBUARTH_GetChar
 655              	.LVL57:
 656 0022 2855     		strb	r0, [r5, r4]
  96:USBUART_Helpers.h **** 		buffer[i+1] = 0;
 657              		.loc 1 96 0
 658 0024 631C     		adds	r3, r4, #1
 659 0026 0022     		movs	r2, #0
 660 0028 EA54     		strb	r2, [r5, r3]
  97:USBUART_Helpers.h **** 		
  98:USBUART_Helpers.h **** 		if (strstr(buffer, termination)) {
 661              		.loc 1 98 0
 662 002a 3946     		mov	r1, r7
 663 002c 2846     		mov	r0, r5
 664 002e FFF7FEFF 		bl	strstr
 665              	.LVL58:
 666 0032 48B1     		cbz	r0, .L54
  99:USBUART_Helpers.h **** 			buffer[i + 1 - strlen(termination)] = 0;
 667              		.loc 1 99 0
 668 0034 3846     		mov	r0, r7
 669 0036 FFF7FEFF 		bl	strlen
 670              	.LVL59:
 671 003a 201A     		subs	r0, r4, r0
 672 003c 0130     		adds	r0, r0, #1
 673 003e 0023     		movs	r3, #0
 674 0040 2B54     		strb	r3, [r5, r0]
 100:USBUART_Helpers.h **** 			return 1;
 675              		.loc 1 100 0
 676 0042 0120     		movs	r0, #1
 677 0044 BDE8F081 		pop	{r4, r5, r6, r7, r8, pc}
 678              	.LVL60:
 679              	.L54:
  94:USBUART_Helpers.h **** 		buffer[i] = USBUARTH_GetChar();
 680              		.loc 1 94 0 discriminator 2
 681 0048 0134     		adds	r4, r4, #1
 682              	.LVL61:
 683 004a A4B2     		uxth	r4, r4
 684              	.LVL62:
 685              	.L53:
  94:USBUART_Helpers.h **** 		buffer[i] = USBUARTH_GetChar();
 686              		.loc 1 94 0 is_stmt 0 discriminator 1
 687 004c 731E     		subs	r3, r6, #1
 688 004e 9C42     		cmp	r4, r3
 689 0050 E5DB     		blt	.L56
 690              	.LBE9:
 101:USBUART_Helpers.h **** 		}
 102:USBUART_Helpers.h **** 	}
 103:USBUART_Helpers.h **** 	
 104:USBUART_Helpers.h **** 	return 0;
 691              		.loc 1 104 0 is_stmt 1
 692 0052 0020     		movs	r0, #0
 105:USBUART_Helpers.h **** }
 693              		.loc 1 105 0
 694 0054 BDE8F081 		pop	{r4, r5, r6, r7, r8, pc}
ARM GAS  C:\Users\FRANKL~1\AppData\Local\Temp\ccCAoJJX.s 			page 33


 695              		.cfi_endproc
 696              	.LFE69:
 697              		.size	USBUARTH_Receive_Until, .-USBUARTH_Receive_Until
 698              		.section	.text.sendTransmitBuffer,"ax",%progbits
 699              		.align	2
 700              		.global	sendTransmitBuffer
 701              		.thumb
 702              		.thumb_func
 703              		.type	sendTransmitBuffer, %function
 704              	sendTransmitBuffer:
 705              	.LFB70:
  60:main.c        **** 	if (usbuSendingEnabled) USBUARTH_Send(TransmitBuffer, strlen(TransmitBuffer));
 706              		.loc 2 60 0
 707              		.cfi_startproc
 708              		@ args = 0, pretend = 0, frame = 0
 709              		@ frame_needed = 0, uses_anonymous_args = 0
 710 0000 10B5     		push	{r4, lr}
 711              		.cfi_def_cfa_offset 8
 712              		.cfi_offset 4, -8
 713              		.cfi_offset 14, -4
  61:main.c        **** 	if (uartSendingEnabled) UART_1_PutString(TransmitBuffer);
 714              		.loc 2 61 0
 715 0002 094B     		ldr	r3, .L62
 716 0004 1B78     		ldrb	r3, [r3]	@ zero_extendqisi2
 717 0006 3BB1     		cbz	r3, .L59
  61:main.c        **** 	if (uartSendingEnabled) UART_1_PutString(TransmitBuffer);
 718              		.loc 2 61 0 is_stmt 0 discriminator 1
 719 0008 084C     		ldr	r4, .L62+4
 720 000a 2046     		mov	r0, r4
 721 000c FFF7FEFF 		bl	strlen
 722              	.LVL63:
 723 0010 81B2     		uxth	r1, r0
 724 0012 2046     		mov	r0, r4
 725 0014 FFF7FEFF 		bl	USBUARTH_Send
 726              	.LVL64:
 727              	.L59:
  62:main.c        **** }
 728              		.loc 2 62 0 is_stmt 1
 729 0018 034B     		ldr	r3, .L62
 730 001a 5B78     		ldrb	r3, [r3, #1]	@ zero_extendqisi2
 731 001c 13B1     		cbz	r3, .L58
  62:main.c        **** }
 732              		.loc 2 62 0 is_stmt 0 discriminator 1
 733 001e 0348     		ldr	r0, .L62+4
 734 0020 FFF7FEFF 		bl	UART_1_PutString
 735              	.LVL65:
 736              	.L58:
 737 0024 10BD     		pop	{r4, pc}
 738              	.L63:
 739 0026 00BF     		.align	2
 740              	.L62:
 741 0028 00000000 		.word	.LANCHOR1
 742 002c 00000000 		.word	TransmitBuffer
 743              		.cfi_endproc
 744              	.LFE70:
 745              		.size	sendTransmitBuffer, .-sendTransmitBuffer
 746              		.section	.text.Setup_Selector_I2C_Struct,"ax",%progbits
ARM GAS  C:\Users\FRANKL~1\AppData\Local\Temp\ccCAoJJX.s 			page 34


 747              		.align	2
 748              		.global	Setup_Selector_I2C_Struct
 749              		.thumb
 750              		.thumb_func
 751              		.type	Setup_Selector_I2C_Struct, %function
 752              	Setup_Selector_I2C_Struct:
 753              	.LFB71:
  65:main.c        **** 	selector->write.subAddress = 1;
 754              		.loc 2 65 0 is_stmt 1
 755              		.cfi_startproc
 756              		@ args = 0, pretend = 0, frame = 0
 757              		@ frame_needed = 0, uses_anonymous_args = 0
 758              		@ link register save eliminated.
 759              	.LVL66:
  66:main.c        **** 	selector->read.subAddress = sizeof(selector->write) + 1;
 760              		.loc 2 66 0
 761 0000 0123     		movs	r3, #1
 762 0002 0370     		strb	r3, [r0]
  67:main.c        **** 	
 763              		.loc 2 67 0
 764 0004 8023     		movs	r3, #128
 765 0006 80F87F30 		strb	r3, [r0, #127]
 766              	.LVL67:
 767              	.LBB10:
  69:main.c        **** 		selector->write.data[i] = i + 6;
 768              		.loc 2 69 0
 769 000a 0023     		movs	r3, #0
 770 000c 04E0     		b	.L65
 771              	.LVL68:
 772              	.L66:
  70:main.c        **** 	}
 773              		.loc 2 70 0 discriminator 3
 774 000e C218     		adds	r2, r0, r3
 775 0010 991D     		adds	r1, r3, #6
 776 0012 5170     		strb	r1, [r2, #1]
  69:main.c        **** 		selector->write.data[i] = i + 6;
 777              		.loc 2 69 0 discriminator 3
 778 0014 0133     		adds	r3, r3, #1
 779              	.LVL69:
 780 0016 9BB2     		uxth	r3, r3
 781              	.LVL70:
 782              	.L65:
  69:main.c        **** 		selector->write.data[i] = i + 6;
 783              		.loc 2 69 0 is_stmt 0 discriminator 1
 784 0018 7D2B     		cmp	r3, #125
 785 001a F8D9     		bls	.L66
 786 001c 0023     		movs	r3, #0
 787              	.LVL71:
 788 001e 05E0     		b	.L67
 789              	.LVL72:
 790              	.L68:
 791              	.LBE10:
 792              	.LBB11:
  73:main.c        **** 	}
 793              		.loc 2 73 0 is_stmt 1 discriminator 3
 794 0020 C218     		adds	r2, r0, r3
 795 0022 BE21     		movs	r1, #190
ARM GAS  C:\Users\FRANKL~1\AppData\Local\Temp\ccCAoJJX.s 			page 35


 796 0024 82F88010 		strb	r1, [r2, #128]
  72:main.c        **** 		selector->read.data[i] = 0xbe;
 797              		.loc 2 72 0 discriminator 3
 798 0028 0133     		adds	r3, r3, #1
 799              	.LVL73:
 800 002a 9BB2     		uxth	r3, r3
 801              	.LVL74:
 802              	.L67:
  72:main.c        **** 		selector->read.data[i] = 0xbe;
 803              		.loc 2 72 0 is_stmt 0 discriminator 1
 804 002c 7D2B     		cmp	r3, #125
 805 002e F7D9     		bls	.L68
 806              	.LBE11:
  75:main.c        **** 
 807              		.loc 2 75 0 is_stmt 1
 808 0030 7047     		bx	lr
 809              		.cfi_endproc
 810              	.LFE71:
 811              		.size	Setup_Selector_I2C_Struct, .-Setup_Selector_I2C_Struct
 812              		.global	__aeabi_dcmpge
 813              		.global	__aeabi_ui2d
 814              		.global	__aeabi_dcmplt
 815 0032 00BF     		.section	.text.Update_Selector,"ax",%progbits
 816              		.align	2
 817              		.global	Update_Selector
 818              		.thumb
 819              		.thumb_func
 820              		.type	Update_Selector, %function
 821              	Update_Selector:
 822              	.LFB72:
  77:main.c        **** 	sprintf(TransmitBuffer, "Updating Selector %u\r\n", selectori + 1);
 823              		.loc 2 77 0
 824              		.cfi_startproc
 825              		@ args = 0, pretend = 0, frame = 0
 826              		@ frame_needed = 0, uses_anonymous_args = 0
 827              	.LVL75:
 828 0000 2DE9F041 		push	{r4, r5, r6, r7, r8, lr}
 829              		.cfi_def_cfa_offset 24
 830              		.cfi_offset 4, -24
 831              		.cfi_offset 5, -20
 832              		.cfi_offset 6, -16
 833              		.cfi_offset 7, -12
 834              		.cfi_offset 8, -8
 835              		.cfi_offset 14, -4
 836 0004 0446     		mov	r4, r0
  78:main.c        **** 	sendTransmitBuffer();
 837              		.loc 2 78 0
 838 0006 00F10108 		add	r8, r0, #1
 839 000a 4246     		mov	r2, r8
 840 000c 3E49     		ldr	r1, .L80+16
 841 000e 3F48     		ldr	r0, .L80+20
 842              	.LVL76:
 843 0010 FFF7FEFF 		bl	sprintf
 844              	.LVL77:
  79:main.c        **** 	
 845              		.loc 2 79 0
 846 0014 FFF7FEFF 		bl	sendTransmitBuffer
ARM GAS  C:\Users\FRANKL~1\AppData\Local\Temp\ccCAoJJX.s 			page 36


 847              	.LVL78:
  83:main.c        **** 	I2C_1_MasterWriteBuf(selector->busAddress, (uint8 *) &selector->write, sizeof(selector->write), I2
 848              		.loc 2 83 0
 849 0018 FFF7FEFF 		bl	I2C_1_MasterClearStatus
 850              	.LVL79:
  84:main.c        **** 	for (uint32 i = 0; i < 4e5; i++) {
 851              		.loc 2 84 0
 852 001c C4EB0424 		rsb	r4, r4, r4, lsl #8
 853              	.LVL80:
 854 0020 3B4B     		ldr	r3, .L80+24
 855 0022 1C44     		add	r4, r4, r3
 856 0024 0023     		movs	r3, #0
 857 0026 7F22     		movs	r2, #127
 858 0028 2146     		mov	r1, r4
 859 002a 94F8FE00 		ldrb	r0, [r4, #254]	@ zero_extendqisi2
 860 002e FFF7FEFF 		bl	I2C_1_MasterWriteBuf
 861              	.LVL81:
 862              	.LBB12:
  85:main.c        **** 		if ((I2C_1_MasterStatus() & I2C_1_MSTAT_WR_CMPLT)) break;
 863              		.loc 2 85 0
 864 0032 0024     		movs	r4, #0
 865 0034 23E0     		b	.L70
 866              	.LVL82:
 867              	.L75:
  86:main.c        **** 		if (i >= 4e5 - 1) {
 868              		.loc 2 86 0
 869 0036 FFF7FEFF 		bl	I2C_1_MasterStatus
 870              	.LVL83:
 871 003a 10F0020F 		tst	r0, #2
 872 003e 2AD1     		bne	.L71
  87:main.c        **** 			sprintf(TransmitBuffer, "I2C Transfer Error! Type: Timeout\r\n");
 873              		.loc 2 87 0
 874 0040 2DA3     		adr	r3, .L80
 875 0042 D3E90023 		ldrd	r2, [r3]
 876 0046 3046     		mov	r0, r6
 877 0048 3946     		mov	r1, r7
 878 004a FFF7FEFF 		bl	__aeabi_dcmpge
 879              	.LVL84:
 880 004e A8B1     		cbz	r0, .L72
  88:main.c        **** 			sendTransmitBuffer();
 881              		.loc 2 88 0
 882 0050 304F     		ldr	r7, .L80+28
 883 0052 2E4D     		ldr	r5, .L80+20
 884 0054 07F1200E 		add	lr, r7, #32
 885              	.L74:
 886 0058 3E46     		mov	r6, r7
 887 005a 0FCE     		ldmia	r6!, {r0, r1, r2, r3}
 888 005c 2860     		str	r0, [r5]	@ unaligned
 889 005e 6960     		str	r1, [r5, #4]	@ unaligned
 890 0060 AA60     		str	r2, [r5, #8]	@ unaligned
 891 0062 EB60     		str	r3, [r5, #12]	@ unaligned
 892 0064 3746     		mov	r7, r6
 893 0066 1035     		adds	r5, r5, #16
 894 0068 7645     		cmp	r6, lr
 895 006a F5D1     		bne	.L74
 896 006c 3068     		ldr	r0, [r6]	@ unaligned
 897 006e 2860     		str	r0, [r5]	@ unaligned
ARM GAS  C:\Users\FRANKL~1\AppData\Local\Temp\ccCAoJJX.s 			page 37


  89:main.c        **** 			I2C_1_Stop();
 898              		.loc 2 89 0
 899 0070 FFF7FEFF 		bl	sendTransmitBuffer
 900              	.LVL85:
  90:main.c        **** 			I2C_1_Start();
 901              		.loc 2 90 0
 902 0074 FFF7FEFF 		bl	I2C_1_Stop
 903              	.LVL86:
  91:main.c        **** 		}
 904              		.loc 2 91 0
 905 0078 FFF7FEFF 		bl	I2C_1_Start
 906              	.LVL87:
 907              	.L72:
  85:main.c        **** 		if ((I2C_1_MasterStatus() & I2C_1_MSTAT_WR_CMPLT)) break;
 908              		.loc 2 85 0 discriminator 2
 909 007c 0134     		adds	r4, r4, #1
 910              	.LVL88:
 911              	.L70:
  85:main.c        **** 		if ((I2C_1_MasterStatus() & I2C_1_MSTAT_WR_CMPLT)) break;
 912              		.loc 2 85 0 is_stmt 0 discriminator 1
 913 007e 2046     		mov	r0, r4
 914 0080 FFF7FEFF 		bl	__aeabi_ui2d
 915              	.LVL89:
 916 0084 0646     		mov	r6, r0
 917 0086 0F46     		mov	r7, r1
 918 0088 1DA3     		adr	r3, .L80+8
 919 008a D3E90023 		ldrd	r2, [r3]
 920 008e FFF7FEFF 		bl	__aeabi_dcmplt
 921              	.LVL90:
 922 0092 0028     		cmp	r0, #0
 923 0094 CFD1     		bne	.L75
 924              	.L71:
 925              	.LBE12:
 106:main.c        **** 		sprintf(TransmitBuffer, "I2C Transfer Error! ");
 926              		.loc 2 106 0 is_stmt 1
 927 0096 FFF7FEFF 		bl	I2C_1_MasterStatus
 928              	.LVL91:
 929 009a 10F0800F 		tst	r0, #128
 930 009e 21D0     		beq	.L76
 107:main.c        **** 		sendTransmitBuffer();
 931              		.loc 2 107 0
 932 00a0 1A4D     		ldr	r5, .L80+20
 933 00a2 1D4C     		ldr	r4, .L80+32
 934              	.LVL92:
 935 00a4 0FCC     		ldmia	r4!, {r0, r1, r2, r3}
 936 00a6 2860     		str	r0, [r5]	@ unaligned
 937 00a8 6960     		str	r1, [r5, #4]	@ unaligned
 938 00aa AA60     		str	r2, [r5, #8]	@ unaligned
 939 00ac EB60     		str	r3, [r5, #12]	@ unaligned
 940 00ae 2068     		ldr	r0, [r4]	@ unaligned
 941 00b0 2861     		str	r0, [r5, #16]	@ unaligned
 942 00b2 2379     		ldrb	r3, [r4, #4]	@ zero_extendqisi2
 943 00b4 2B75     		strb	r3, [r5, #20]
 108:main.c        **** 		
 944              		.loc 2 108 0
 945 00b6 FFF7FEFF 		bl	sendTransmitBuffer
 946              	.LVL93:
ARM GAS  C:\Users\FRANKL~1\AppData\Local\Temp\ccCAoJJX.s 			page 38


 110:main.c        **** 			sprintf(TransmitBuffer, "Type: NAK");
 947              		.loc 2 110 0
 948 00ba FFF7FEFF 		bl	I2C_1_MasterStatus
 949              	.LVL94:
 950 00be 10F0200F 		tst	r0, #32
 951 00c2 07D0     		beq	.L77
 111:main.c        **** 			sendTransmitBuffer();
 952              		.loc 2 111 0
 953 00c4 154B     		ldr	r3, .L80+36
 954 00c6 03CB     		ldmia	r3!, {r0, r1}
 955 00c8 2860     		str	r0, [r5]	@ unaligned
 956 00ca 6960     		str	r1, [r5, #4]	@ unaligned
 957 00cc 1B88     		ldrh	r3, [r3]	@ unaligned
 958 00ce 2B81     		strh	r3, [r5, #8]	@ unaligned
 112:main.c        **** 		}
 959              		.loc 2 112 0
 960 00d0 FFF7FEFF 		bl	sendTransmitBuffer
 961              	.LVL95:
 962              	.L77:
 115:main.c        **** 		sendTransmitBuffer();
 963              		.loc 2 115 0
 964 00d4 0D4B     		ldr	r3, .L80+20
 965 00d6 124A     		ldr	r2, .L80+40
 966 00d8 1188     		ldrh	r1, [r2]	@ unaligned
 967 00da 9278     		ldrb	r2, [r2, #2]	@ zero_extendqisi2
 968 00dc 1980     		strh	r1, [r3]	@ unaligned
 969 00de 9A70     		strb	r2, [r3, #2]
 116:main.c        **** 	}
 970              		.loc 2 116 0
 971 00e0 FFF7FEFF 		bl	sendTransmitBuffer
 972              	.LVL96:
 973              	.L76:
 119:main.c        **** 	sendTransmitBuffer();
 974              		.loc 2 119 0
 975 00e4 4246     		mov	r2, r8
 976 00e6 0F49     		ldr	r1, .L80+44
 977 00e8 0848     		ldr	r0, .L80+20
 978 00ea FFF7FEFF 		bl	sprintf
 979              	.LVL97:
 120:main.c        **** }
 980              		.loc 2 120 0
 981 00ee FFF7FEFF 		bl	sendTransmitBuffer
 982              	.LVL98:
 983 00f2 BDE8F081 		pop	{r4, r5, r6, r7, r8, pc}
 984              	.LVL99:
 985              	.L81:
 986 00f6 00BF     		.align	3
 987              	.L80:
 988 00f8 00000000 		.word	0
 989 00fc FC691841 		.word	1092119036
 990 0100 00000000 		.word	0
 991 0104 006A1841 		.word	1092119040
 992 0108 2C000000 		.word	.LC5
 993 010c 00000000 		.word	TransmitBuffer
 994 0110 00000000 		.word	selectors
 995 0114 44000000 		.word	.LC6
 996 0118 68000000 		.word	.LC7
ARM GAS  C:\Users\FRANKL~1\AppData\Local\Temp\ccCAoJJX.s 			page 39


 997 011c 80000000 		.word	.LC8
 998 0120 8C000000 		.word	.LC9
 999 0124 90000000 		.word	.LC10
 1000              		.cfi_endproc
 1001              	.LFE72:
 1002              		.size	Update_Selector, .-Update_Selector
 1003              		.section	.text.Setup_Selectors,"ax",%progbits
 1004              		.align	2
 1005              		.global	Setup_Selectors
 1006              		.thumb
 1007              		.thumb_func
 1008              		.type	Setup_Selectors, %function
 1009              	Setup_Selectors:
 1010              	.LFB73:
 123:main.c        **** 	for (uint8 i = 0; i < SELECTOR_COUNT; i++) Setup_Selector_I2C_Struct(&selectors[i]);
 1011              		.loc 2 123 0
 1012              		.cfi_startproc
 1013              		@ args = 0, pretend = 0, frame = 0
 1014              		@ frame_needed = 0, uses_anonymous_args = 0
 1015 0000 10B5     		push	{r4, lr}
 1016              		.cfi_def_cfa_offset 8
 1017              		.cfi_offset 4, -8
 1018              		.cfi_offset 14, -4
 1019              	.LVL100:
 1020              	.LBB13:
 124:main.c        **** 	
 1021              		.loc 2 124 0
 1022 0002 0024     		movs	r4, #0
 1023 0004 07E0     		b	.L83
 1024              	.LVL101:
 1025              	.L84:
 124:main.c        **** 	
 1026              		.loc 2 124 0 is_stmt 0 discriminator 3
 1027 0006 C4EB0423 		rsb	r3, r4, r4, lsl #8
 1028 000a 0B48     		ldr	r0, .L86
 1029 000c 1844     		add	r0, r0, r3
 1030 000e FFF7FEFF 		bl	Setup_Selector_I2C_Struct
 1031              	.LVL102:
 1032 0012 0134     		adds	r4, r4, #1
 1033              	.LVL103:
 1034 0014 E4B2     		uxtb	r4, r4
 1035              	.LVL104:
 1036              	.L83:
 124:main.c        **** 	
 1037              		.loc 2 124 0 discriminator 1
 1038 0016 032C     		cmp	r4, #3
 1039 0018 F5D9     		bls	.L84
 1040              	.LBE13:
 126:main.c        **** 	selectors[1].busAddress = 0x11;
 1041              		.loc 2 126 0 is_stmt 1
 1042 001a 074B     		ldr	r3, .L86
 1043 001c 6622     		movs	r2, #102
 1044 001e 83F8FE20 		strb	r2, [r3, #254]
 127:main.c        **** 	selectors[2].busAddress = 0x44;
 1045              		.loc 2 127 0
 1046 0022 1122     		movs	r2, #17
 1047 0024 83F8FD21 		strb	r2, [r3, #509]
ARM GAS  C:\Users\FRANKL~1\AppData\Local\Temp\ccCAoJJX.s 			page 40


 128:main.c        **** 	selectors[3].busAddress = 0x22;
 1048              		.loc 2 128 0
 1049 0028 4422     		movs	r2, #68
 1050 002a 83F8FC22 		strb	r2, [r3, #764]
 129:main.c        **** }
 1051              		.loc 2 129 0
 1052 002e 2222     		movs	r2, #34
 1053 0030 83F8FB23 		strb	r2, [r3, #1019]
 1054 0034 10BD     		pop	{r4, pc}
 1055              	.LVL105:
 1056              	.L87:
 1057 0036 00BF     		.align	2
 1058              	.L86:
 1059 0038 00000000 		.word	selectors
 1060              		.cfi_endproc
 1061              	.LFE73:
 1062              		.size	Setup_Selectors, .-Setup_Selectors
 1063              		.section	.text.Connect_Channel_On_Intermediate,"ax",%progbits
 1064              		.align	2
 1065              		.global	Connect_Channel_On_Intermediate
 1066              		.thumb
 1067              		.thumb_func
 1068              		.type	Connect_Channel_On_Intermediate, %function
 1069              	Connect_Channel_On_Intermediate:
 1070              	.LFB74:
 132:main.c        **** 	channel--;
 1071              		.loc 2 132 0
 1072              		.cfi_startproc
 1073              		@ args = 0, pretend = 0, frame = 0
 1074              		@ frame_needed = 0, uses_anonymous_args = 0
 1075              	.LVL106:
 1076 0000 08B5     		push	{r3, lr}
 1077              		.cfi_def_cfa_offset 8
 1078              		.cfi_offset 3, -8
 1079              		.cfi_offset 14, -4
 133:main.c        **** 	intermediate--;
 1080              		.loc 2 133 0
 1081 0002 0138     		subs	r0, r0, #1
 1082              	.LVL107:
 1083 0004 C3B2     		uxtb	r3, r0
 1084              	.LVL108:
 136:main.c        **** 	if (intermediate >= INTERMEDIATE_COUNT) return;
 1085              		.loc 2 136 0
 1086 0006 212B     		cmp	r3, #33
 1087 0008 0CD8     		bhi	.L88
 1088 000a 0139     		subs	r1, r1, #1
 1089              	.LVL109:
 1090 000c C8B2     		uxtb	r0, r1
 137:main.c        **** 	
 1091              		.loc 2 137 0
 1092 000e 0328     		cmp	r0, #3
 1093 0010 08D8     		bhi	.L88
 139:main.c        **** 	Update_Selector(intermediate);
 1094              		.loc 2 139 0
 1095 0012 C0EB0022 		rsb	r2, r0, r0, lsl #8
 1096 0016 0449     		ldr	r1, .L91
 1097 0018 0A44     		add	r2, r2, r1
ARM GAS  C:\Users\FRANKL~1\AppData\Local\Temp\ccCAoJJX.s 			page 41


 1098 001a 1344     		add	r3, r3, r2
 1099              	.LVL110:
 1100 001c C022     		movs	r2, #192
 1101 001e 5A70     		strb	r2, [r3, #1]
 140:main.c        **** }
 1102              		.loc 2 140 0
 1103 0020 FFF7FEFF 		bl	Update_Selector
 1104              	.LVL111:
 1105              	.L88:
 1106 0024 08BD     		pop	{r3, pc}
 1107              	.L92:
 1108 0026 00BF     		.align	2
 1109              	.L91:
 1110 0028 00000000 		.word	selectors
 1111              		.cfi_endproc
 1112              	.LFE74:
 1113              		.size	Connect_Channel_On_Intermediate, .-Connect_Channel_On_Intermediate
 1114              		.section	.text.Connect_Contact_To_Intermediate,"ax",%progbits
 1115              		.align	2
 1116              		.global	Connect_Contact_To_Intermediate
 1117              		.thumb
 1118              		.thumb_func
 1119              		.type	Connect_Contact_To_Intermediate, %function
 1120              	Connect_Contact_To_Intermediate:
 1121              	.LFB75:
 143:main.c        **** 	contact--;
 1122              		.loc 2 143 0
 1123              		.cfi_startproc
 1124              		@ args = 0, pretend = 0, frame = 0
 1125              		@ frame_needed = 0, uses_anonymous_args = 0
 1126              	.LVL112:
 144:main.c        **** 	intermediate--;
 1127              		.loc 2 144 0
 1128 0000 0138     		subs	r0, r0, #1
 1129              	.LVL113:
 1130 0002 C0B2     		uxtb	r0, r0
 1131              	.LVL114:
 147:main.c        **** 	if (intermediate >= INTERMEDIATE_COUNT) return;
 1132              		.loc 2 147 0
 1133 0004 3F28     		cmp	r0, #63
 1134 0006 13D8     		bhi	.L98
 143:main.c        **** 	contact--;
 1135              		.loc 2 143 0
 1136 0008 08B5     		push	{r3, lr}
 1137              		.cfi_def_cfa_offset 8
 1138              		.cfi_offset 3, -8
 1139              		.cfi_offset 14, -4
 1140 000a 4B1E     		subs	r3, r1, #1
 1141 000c DBB2     		uxtb	r3, r3
 148:main.c        **** 	
 1142              		.loc 2 148 0
 1143 000e 032B     		cmp	r3, #3
 1144 0010 0DD8     		bhi	.L93
 1145              	.LVL115:
 151:main.c        **** 		offset = CONTACT_COUNT/2;
 1146              		.loc 2 151 0
 1147 0012 012B     		cmp	r3, #1
ARM GAS  C:\Users\FRANKL~1\AppData\Local\Temp\ccCAoJJX.s 			page 42


 1148 0014 03D9     		bls	.L95
 1149              	.LVL116:
 153:main.c        **** 	} else {
 1150              		.loc 2 153 0
 1151 0016 1F28     		cmp	r0, #31
 1152 0018 09D9     		bls	.L93
 152:main.c        **** 		if (contact < CONTACT_COUNT/2) return;
 1153              		.loc 2 152 0
 1154 001a 2023     		movs	r3, #32
 1155 001c 02E0     		b	.L96
 1156              	.LVL117:
 1157              	.L95:
 155:main.c        **** 	}
 1158              		.loc 2 155 0
 1159 001e 1F28     		cmp	r0, #31
 1160 0020 05D8     		bhi	.L93
 150:main.c        **** 	if (intermediate >= INTERMEDIATE_COUNT/2) {
 1161              		.loc 2 150 0
 1162 0022 0023     		movs	r3, #0
 1163              	.LVL118:
 1164              	.L96:
 158:main.c        **** }
 1165              		.loc 2 158 0
 1166 0024 C01A     		subs	r0, r0, r3
 1167              	.LVL119:
 1168 0026 0130     		adds	r0, r0, #1
 1169 0028 C0B2     		uxtb	r0, r0
 1170 002a FFF7FEFF 		bl	Connect_Channel_On_Intermediate
 1171              	.LVL120:
 1172              	.L93:
 1173 002e 08BD     		pop	{r3, pc}
 1174              	.LVL121:
 1175              	.L98:
 1176              		.cfi_def_cfa_offset 0
 1177              		.cfi_restore 3
 1178              		.cfi_restore 14
 1179 0030 7047     		bx	lr
 1180              		.cfi_endproc
 1181              	.LFE75:
 1182              		.size	Connect_Contact_To_Intermediate, .-Connect_Contact_To_Intermediate
 1183 0032 00BF     		.section	.text.Disconnect_Contact_From_Intermediate,"ax",%progbits
 1184              		.align	2
 1185              		.global	Disconnect_Contact_From_Intermediate
 1186              		.thumb
 1187              		.thumb_func
 1188              		.type	Disconnect_Contact_From_Intermediate, %function
 1189              	Disconnect_Contact_From_Intermediate:
 1190              	.LFB76:
 161:main.c        **** 	contact--;
 1191              		.loc 2 161 0
 1192              		.cfi_startproc
 1193              		@ args = 0, pretend = 0, frame = 0
 1194              		@ frame_needed = 0, uses_anonymous_args = 0
 1195              	.LVL122:
 1196 0000 08B5     		push	{r3, lr}
 1197              		.cfi_def_cfa_offset 8
 1198              		.cfi_offset 3, -8
ARM GAS  C:\Users\FRANKL~1\AppData\Local\Temp\ccCAoJJX.s 			page 43


 1199              		.cfi_offset 14, -4
 162:main.c        **** 	intermediate--;
 1200              		.loc 2 162 0
 1201 0002 0138     		subs	r0, r0, #1
 1202              	.LVL123:
 1203 0004 C3B2     		uxtb	r3, r0
 1204              	.LVL124:
 165:main.c        **** 	if (intermediate >= INTERMEDIATE_COUNT) return;
 1205              		.loc 2 165 0
 1206 0006 3F2B     		cmp	r3, #63
 1207 0008 16D8     		bhi	.L99
 1208 000a 0139     		subs	r1, r1, #1
 1209              	.LVL125:
 1210 000c C8B2     		uxtb	r0, r1
 166:main.c        **** 	
 1211              		.loc 2 166 0
 1212 000e 0328     		cmp	r0, #3
 1213 0010 12D8     		bhi	.L99
 1214              	.LVL126:
 169:main.c        **** 		offset = CONTACT_COUNT/2;
 1215              		.loc 2 169 0
 1216 0012 0128     		cmp	r0, #1
 1217 0014 03D9     		bls	.L101
 1218              	.LVL127:
 171:main.c        **** 	} else {
 1219              		.loc 2 171 0
 1220 0016 1F2B     		cmp	r3, #31
 1221 0018 0ED9     		bls	.L99
 170:main.c        **** 		if (contact < CONTACT_COUNT/2) return;
 1222              		.loc 2 170 0
 1223 001a 2022     		movs	r2, #32
 1224 001c 02E0     		b	.L102
 1225              	.LVL128:
 1226              	.L101:
 173:main.c        **** 	}
 1227              		.loc 2 173 0
 1228 001e 1F2B     		cmp	r3, #31
 1229 0020 0AD8     		bhi	.L99
 168:main.c        **** 	if (intermediate >= INTERMEDIATE_COUNT/2) {
 1230              		.loc 2 168 0
 1231 0022 0022     		movs	r2, #0
 1232              	.LVL129:
 1233              	.L102:
 176:main.c        **** 	
 1234              		.loc 2 176 0
 1235 0024 9B1A     		subs	r3, r3, r2
 1236              	.LVL130:
 1237 0026 C0EB0022 		rsb	r2, r0, r0, lsl #8
 1238              	.LVL131:
 1239 002a 0449     		ldr	r1, .L104
 1240 002c 0A44     		add	r2, r2, r1
 1241 002e 1344     		add	r3, r3, r2
 1242 0030 D122     		movs	r2, #209
 1243 0032 5A70     		strb	r2, [r3, #1]
 178:main.c        **** }
 1244              		.loc 2 178 0
 1245 0034 FFF7FEFF 		bl	Update_Selector
ARM GAS  C:\Users\FRANKL~1\AppData\Local\Temp\ccCAoJJX.s 			page 44


 1246              	.LVL132:
 1247              	.L99:
 1248 0038 08BD     		pop	{r3, pc}
 1249              	.L105:
 1250 003a 00BF     		.align	2
 1251              	.L104:
 1252 003c 00000000 		.word	selectors
 1253              		.cfi_endproc
 1254              	.LFE76:
 1255              		.size	Disconnect_Contact_From_Intermediate, .-Disconnect_Contact_From_Intermediate
 1256              		.section	.text.Disconnect_Contact_From_All_Intermediates,"ax",%progbits
 1257              		.align	2
 1258              		.global	Disconnect_Contact_From_All_Intermediates
 1259              		.thumb
 1260              		.thumb_func
 1261              		.type	Disconnect_Contact_From_All_Intermediates, %function
 1262              	Disconnect_Contact_From_All_Intermediates:
 1263              	.LFB77:
 181:main.c        **** 	contact--;
 1264              		.loc 2 181 0
 1265              		.cfi_startproc
 1266              		@ args = 0, pretend = 0, frame = 0
 1267              		@ frame_needed = 0, uses_anonymous_args = 0
 1268              	.LVL133:
 1269 0000 38B5     		push	{r3, r4, r5, lr}
 1270              		.cfi_def_cfa_offset 16
 1271              		.cfi_offset 3, -16
 1272              		.cfi_offset 4, -12
 1273              		.cfi_offset 5, -8
 1274              		.cfi_offset 14, -4
 182:main.c        **** 	
 1275              		.loc 2 182 0
 1276 0002 0138     		subs	r0, r0, #1
 1277              	.LVL134:
 1278 0004 C5B2     		uxtb	r5, r0
 1279              	.LVL135:
 1280              	.LBB14:
 184:main.c        **** 		
 1281              		.loc 2 184 0
 1282 0006 0024     		movs	r4, #0
 1283 0008 15E0     		b	.L107
 1284              	.LVL136:
 1285              	.L111:
 1286              	.LBB15:
 187:main.c        **** 			offset = CONTACT_COUNT/2;
 1287              		.loc 2 187 0
 1288 000a 012C     		cmp	r4, #1
 1289 000c 03D9     		bls	.L108
 1290              	.LVL137:
 189:main.c        **** 		} else {
 1291              		.loc 2 189 0
 1292 000e 1F2D     		cmp	r5, #31
 1293 0010 0FD9     		bls	.L109
 188:main.c        **** 			if (contact < CONTACT_COUNT/2) continue;
 1294              		.loc 2 188 0
 1295 0012 2023     		movs	r3, #32
 1296 0014 02E0     		b	.L110
ARM GAS  C:\Users\FRANKL~1\AppData\Local\Temp\ccCAoJJX.s 			page 45


 1297              	.LVL138:
 1298              	.L108:
 191:main.c        **** 		}
 1299              		.loc 2 191 0
 1300 0016 1F2D     		cmp	r5, #31
 1301 0018 0BD8     		bhi	.L109
 186:main.c        **** 		if (intermediate >= INTERMEDIATE_COUNT/2) {
 1302              		.loc 2 186 0
 1303 001a 0023     		movs	r3, #0
 1304              	.LVL139:
 1305              	.L110:
 194:main.c        **** 		
 1306              		.loc 2 194 0
 1307 001c EA1A     		subs	r2, r5, r3
 1308 001e C4EB0423 		rsb	r3, r4, r4, lsl #8
 1309              	.LVL140:
 1310 0022 0649     		ldr	r1, .L113
 1311 0024 0B44     		add	r3, r3, r1
 1312 0026 1344     		add	r3, r3, r2
 1313 0028 D122     		movs	r2, #209
 1314 002a 5A70     		strb	r2, [r3, #1]
 196:main.c        **** 	}
 1315              		.loc 2 196 0
 1316 002c 2046     		mov	r0, r4
 1317 002e FFF7FEFF 		bl	Update_Selector
 1318              	.LVL141:
 1319              	.L109:
 1320              	.LBE15:
 184:main.c        **** 		
 1321              		.loc 2 184 0 discriminator 2
 1322 0032 0134     		adds	r4, r4, #1
 1323              	.LVL142:
 1324 0034 E4B2     		uxtb	r4, r4
 1325              	.LVL143:
 1326              	.L107:
 184:main.c        **** 		
 1327              		.loc 2 184 0 is_stmt 0 discriminator 1
 1328 0036 032C     		cmp	r4, #3
 1329 0038 E7D9     		bls	.L111
 1330              	.LBE14:
 198:main.c        **** 
 1331              		.loc 2 198 0 is_stmt 1
 1332 003a 38BD     		pop	{r3, r4, r5, pc}
 1333              	.LVL144:
 1334              	.L114:
 1335              		.align	2
 1336              	.L113:
 1337 003c 00000000 		.word	selectors
 1338              		.cfi_endproc
 1339              	.LFE77:
 1340              		.size	Disconnect_Contact_From_All_Intermediates, .-Disconnect_Contact_From_All_Intermediates
 1341              		.section	.text.Disconnect_All_Contacts_From_All_Intermediates,"ax",%progbits
 1342              		.align	2
 1343              		.global	Disconnect_All_Contacts_From_All_Intermediates
 1344              		.thumb
 1345              		.thumb_func
 1346              		.type	Disconnect_All_Contacts_From_All_Intermediates, %function
ARM GAS  C:\Users\FRANKL~1\AppData\Local\Temp\ccCAoJJX.s 			page 46


 1347              	Disconnect_All_Contacts_From_All_Intermediates:
 1348              	.LFB78:
 200:main.c        **** 	for (uint8 intermediate = 0; intermediate < INTERMEDIATE_COUNT; intermediate++) {
 1349              		.loc 2 200 0
 1350              		.cfi_startproc
 1351              		@ args = 0, pretend = 0, frame = 0
 1352              		@ frame_needed = 0, uses_anonymous_args = 0
 1353 0000 10B5     		push	{r4, lr}
 1354              		.cfi_def_cfa_offset 8
 1355              		.cfi_offset 4, -8
 1356              		.cfi_offset 14, -4
 1357              	.LVL145:
 1358              	.LBB16:
 201:main.c        **** 		for (uint8 contact = 0; contact < CONTACT_COUNT/2; contact++) {
 1359              		.loc 2 201 0
 1360 0002 0024     		movs	r4, #0
 1361 0004 11E0     		b	.L116
 1362              	.LVL146:
 1363              	.L117:
 1364              	.LBB17:
 203:main.c        **** 		}
 1365              		.loc 2 203 0 discriminator 3
 1366 0006 C4EB0422 		rsb	r2, r4, r4, lsl #8
 1367 000a 0949     		ldr	r1, .L121
 1368 000c 0A44     		add	r2, r2, r1
 1369 000e 1A44     		add	r2, r2, r3
 1370 0010 D121     		movs	r1, #209
 1371 0012 5170     		strb	r1, [r2, #1]
 202:main.c        **** 			selectors[intermediate].write.data[contact] = CONTACT_DISCONNECT_CODE;
 1372              		.loc 2 202 0 discriminator 3
 1373 0014 0133     		adds	r3, r3, #1
 1374              	.LVL147:
 1375 0016 DBB2     		uxtb	r3, r3
 1376              	.LVL148:
 1377 0018 00E0     		b	.L118
 1378              	.LVL149:
 1379              	.L119:
 1380              	.LBE17:
 1381 001a 0023     		movs	r3, #0
 1382              	.L118:
 1383              	.LVL150:
 1384              	.LBB18:
 202:main.c        **** 			selectors[intermediate].write.data[contact] = CONTACT_DISCONNECT_CODE;
 1385              		.loc 2 202 0 is_stmt 0 discriminator 1
 1386 001c 1F2B     		cmp	r3, #31
 1387 001e F2D9     		bls	.L117
 1388              	.LBE18:
 206:main.c        **** 	}
 1389              		.loc 2 206 0 is_stmt 1 discriminator 2
 1390 0020 2046     		mov	r0, r4
 1391 0022 FFF7FEFF 		bl	Update_Selector
 1392              	.LVL151:
 201:main.c        **** 		for (uint8 contact = 0; contact < CONTACT_COUNT/2; contact++) {
 1393              		.loc 2 201 0 discriminator 2
 1394 0026 0134     		adds	r4, r4, #1
 1395              	.LVL152:
 1396 0028 E4B2     		uxtb	r4, r4
ARM GAS  C:\Users\FRANKL~1\AppData\Local\Temp\ccCAoJJX.s 			page 47


 1397              	.LVL153:
 1398              	.L116:
 201:main.c        **** 		for (uint8 contact = 0; contact < CONTACT_COUNT/2; contact++) {
 1399              		.loc 2 201 0 is_stmt 0 discriminator 1
 1400 002a 032C     		cmp	r4, #3
 1401 002c F5D9     		bls	.L119
 1402              	.LBE16:
 208:main.c        **** 
 1403              		.loc 2 208 0 is_stmt 1
 1404 002e 10BD     		pop	{r4, pc}
 1405              	.LVL154:
 1406              	.L122:
 1407              		.align	2
 1408              	.L121:
 1409 0030 00000000 		.word	selectors
 1410              		.cfi_endproc
 1411              	.LFE78:
 1412              		.size	Disconnect_All_Contacts_From_All_Intermediates, .-Disconnect_All_Contacts_From_All_Intermedi
 1413              		.section	.text.Disconnect_All_Contacts_From_Intermediate,"ax",%progbits
 1414              		.align	2
 1415              		.global	Disconnect_All_Contacts_From_Intermediate
 1416              		.thumb
 1417              		.thumb_func
 1418              		.type	Disconnect_All_Contacts_From_Intermediate, %function
 1419              	Disconnect_All_Contacts_From_Intermediate:
 1420              	.LFB79:
 210:main.c        **** 	intermediate--;
 1421              		.loc 2 210 0
 1422              		.cfi_startproc
 1423              		@ args = 0, pretend = 0, frame = 0
 1424              		@ frame_needed = 0, uses_anonymous_args = 0
 1425              	.LVL155:
 1426 0000 08B5     		push	{r3, lr}
 1427              		.cfi_def_cfa_offset 8
 1428              		.cfi_offset 3, -8
 1429              		.cfi_offset 14, -4
 211:main.c        **** 	
 1430              		.loc 2 211 0
 1431 0002 0138     		subs	r0, r0, #1
 1432              	.LVL156:
 1433 0004 C0B2     		uxtb	r0, r0
 1434              	.LVL157:
 1435              	.LBB19:
 213:main.c        **** 		selectors[intermediate].write.data[contact] = CONTACT_DISCONNECT_CODE;
 1436              		.loc 2 213 0
 1437 0006 0023     		movs	r3, #0
 1438 0008 08E0     		b	.L124
 1439              	.LVL158:
 1440              	.L125:
 214:main.c        **** 	}
 1441              		.loc 2 214 0 discriminator 3
 1442 000a C0EB0022 		rsb	r2, r0, r0, lsl #8
 1443 000e 0649     		ldr	r1, .L127
 1444 0010 0A44     		add	r2, r2, r1
 1445 0012 1A44     		add	r2, r2, r3
 1446 0014 D121     		movs	r1, #209
 1447 0016 5170     		strb	r1, [r2, #1]
ARM GAS  C:\Users\FRANKL~1\AppData\Local\Temp\ccCAoJJX.s 			page 48


 213:main.c        **** 		selectors[intermediate].write.data[contact] = CONTACT_DISCONNECT_CODE;
 1448              		.loc 2 213 0 discriminator 3
 1449 0018 0133     		adds	r3, r3, #1
 1450              	.LVL159:
 1451 001a DBB2     		uxtb	r3, r3
 1452              	.LVL160:
 1453              	.L124:
 213:main.c        **** 		selectors[intermediate].write.data[contact] = CONTACT_DISCONNECT_CODE;
 1454              		.loc 2 213 0 is_stmt 0 discriminator 1
 1455 001c 1F2B     		cmp	r3, #31
 1456 001e F4D9     		bls	.L125
 1457              	.LBE19:
 217:main.c        **** }
 1458              		.loc 2 217 0 is_stmt 1
 1459 0020 FFF7FEFF 		bl	Update_Selector
 1460              	.LVL161:
 1461 0024 08BD     		pop	{r3, pc}
 1462              	.L128:
 1463 0026 00BF     		.align	2
 1464              	.L127:
 1465 0028 00000000 		.word	selectors
 1466              		.cfi_endproc
 1467              	.LFE79:
 1468              		.size	Disconnect_All_Contacts_From_Intermediate, .-Disconnect_All_Contacts_From_Intermediate
 1469              		.section	.text.Connect_Intermediate,"ax",%progbits
 1470              		.align	2
 1471              		.global	Connect_Intermediate
 1472              		.thumb
 1473              		.thumb_func
 1474              		.type	Connect_Intermediate, %function
 1475              	Connect_Intermediate:
 1476              	.LFB80:
 220:main.c        **** 	switch (intermediate) {
 1477              		.loc 2 220 0
 1478              		.cfi_startproc
 1479              		@ args = 0, pretend = 0, frame = 0
 1480              		@ frame_needed = 0, uses_anonymous_args = 0
 1481              	.LVL162:
 1482 0000 08B5     		push	{r3, lr}
 1483              		.cfi_def_cfa_offset 8
 1484              		.cfi_offset 3, -8
 1485              		.cfi_offset 14, -4
 221:main.c        **** 		case 1: Connect_Channel_On_Intermediate(33, 1); break;
 1486              		.loc 2 221 0
 1487 0002 0138     		subs	r0, r0, #1
 1488              	.LVL163:
 1489 0004 0328     		cmp	r0, #3
 1490 0006 16D8     		bhi	.L129
 1491 0008 DFE800F0 		tbb	[pc, r0]
 1492              	.L132:
 1493 000c 02       		.byte	(.L131-.L132)/2
 1494 000d 07       		.byte	(.L133-.L132)/2
 1495 000e 0C       		.byte	(.L134-.L132)/2
 1496 000f 11       		.byte	(.L135-.L132)/2
 1497              		.p2align 1
 1498              	.L131:
 222:main.c        **** 		case 2: Connect_Channel_On_Intermediate(33, 2); break;
ARM GAS  C:\Users\FRANKL~1\AppData\Local\Temp\ccCAoJJX.s 			page 49


 1499              		.loc 2 222 0
 1500 0010 0121     		movs	r1, #1
 1501 0012 2120     		movs	r0, #33
 1502 0014 FFF7FEFF 		bl	Connect_Channel_On_Intermediate
 1503              	.LVL164:
 1504 0018 08BD     		pop	{r3, pc}
 1505              	.L133:
 223:main.c        **** 		case 3: Connect_Channel_On_Intermediate(33, 3); break;
 1506              		.loc 2 223 0
 1507 001a 0221     		movs	r1, #2
 1508 001c 2120     		movs	r0, #33
 1509 001e FFF7FEFF 		bl	Connect_Channel_On_Intermediate
 1510              	.LVL165:
 1511 0022 08BD     		pop	{r3, pc}
 1512              	.L134:
 224:main.c        **** 		case 4: Connect_Channel_On_Intermediate(33, 4); break;
 1513              		.loc 2 224 0
 1514 0024 0321     		movs	r1, #3
 1515 0026 2120     		movs	r0, #33
 1516 0028 FFF7FEFF 		bl	Connect_Channel_On_Intermediate
 1517              	.LVL166:
 1518 002c 08BD     		pop	{r3, pc}
 1519              	.L135:
 225:main.c        **** 		default: return;
 1520              		.loc 2 225 0
 1521 002e 0421     		movs	r1, #4
 1522 0030 2120     		movs	r0, #33
 1523 0032 FFF7FEFF 		bl	Connect_Channel_On_Intermediate
 1524              	.LVL167:
 1525              	.L129:
 1526 0036 08BD     		pop	{r3, pc}
 1527              		.cfi_endproc
 1528              	.LFE80:
 1529              		.size	Connect_Intermediate, .-Connect_Intermediate
 1530              		.section	.text.Connect_Intermediates,"ax",%progbits
 1531              		.align	2
 1532              		.global	Connect_Intermediates
 1533              		.thumb
 1534              		.thumb_func
 1535              		.type	Connect_Intermediates, %function
 1536              	Connect_Intermediates:
 1537              	.LFB81:
 230:main.c        **** 	for (uint8 i = 1; i <= INTERMEDIATE_COUNT; i++) {
 1538              		.loc 2 230 0
 1539              		.cfi_startproc
 1540              		@ args = 0, pretend = 0, frame = 0
 1541              		@ frame_needed = 0, uses_anonymous_args = 0
 1542 0000 10B5     		push	{r4, lr}
 1543              		.cfi_def_cfa_offset 8
 1544              		.cfi_offset 4, -8
 1545              		.cfi_offset 14, -4
 1546              	.LVL168:
 1547              	.LBB20:
 231:main.c        **** 		Connect_Intermediate(i);
 1548              		.loc 2 231 0
 1549 0002 0124     		movs	r4, #1
 1550 0004 04E0     		b	.L138
ARM GAS  C:\Users\FRANKL~1\AppData\Local\Temp\ccCAoJJX.s 			page 50


 1551              	.LVL169:
 1552              	.L139:
 232:main.c        **** 	}
 1553              		.loc 2 232 0 discriminator 3
 1554 0006 2046     		mov	r0, r4
 1555 0008 FFF7FEFF 		bl	Connect_Intermediate
 1556              	.LVL170:
 231:main.c        **** 		Connect_Intermediate(i);
 1557              		.loc 2 231 0 discriminator 3
 1558 000c 0134     		adds	r4, r4, #1
 1559              	.LVL171:
 1560 000e E4B2     		uxtb	r4, r4
 1561              	.LVL172:
 1562              	.L138:
 231:main.c        **** 		Connect_Intermediate(i);
 1563              		.loc 2 231 0 is_stmt 0 discriminator 1
 1564 0010 042C     		cmp	r4, #4
 1565 0012 F8D9     		bls	.L139
 1566              	.LBE20:
 234:main.c        **** 
 1567              		.loc 2 234 0 is_stmt 1
 1568 0014 10BD     		pop	{r4, pc}
 1569              		.cfi_endproc
 1570              	.LFE81:
 1571              		.size	Connect_Intermediates, .-Connect_Intermediates
 1572 0016 00BF     		.section	.text.TIA_Set_Resistor,"ax",%progbits
 1573              		.align	2
 1574              		.global	TIA_Set_Resistor
 1575              		.thumb
 1576              		.thumb_func
 1577              		.type	TIA_Set_Resistor, %function
 1578              	TIA_Set_Resistor:
 1579              	.LFB82:
 236:main.c        **** 	TIA_Selected_Resistor = resistor;
 1580              		.loc 2 236 0
 1581              		.cfi_startproc
 1582              		@ args = 0, pretend = 0, frame = 0
 1583              		@ frame_needed = 0, uses_anonymous_args = 0
 1584              	.LVL173:
 1585 0000 08B5     		push	{r3, lr}
 1586              		.cfi_def_cfa_offset 8
 1587              		.cfi_offset 3, -8
 1588              		.cfi_offset 14, -4
 237:main.c        **** 	TIA_1_SetResFB(TIA_Resistor_Codes[resistor]);
 1589              		.loc 2 237 0
 1590 0002 044B     		ldr	r3, .L143
 1591 0004 1871     		strb	r0, [r3, #4]
 238:main.c        **** }
 1592              		.loc 2 238 0
 1593 0006 044B     		ldr	r3, .L143+4
 1594 0008 1844     		add	r0, r0, r3
 1595              	.LVL174:
 1596 000a 0079     		ldrb	r0, [r0, #4]	@ zero_extendqisi2
 1597 000c FFF7FEFF 		bl	TIA_1_SetResFB
 1598              	.LVL175:
 1599 0010 08BD     		pop	{r3, pc}
 1600              	.L144:
ARM GAS  C:\Users\FRANKL~1\AppData\Local\Temp\ccCAoJJX.s 			page 51


 1601 0012 00BF     		.align	2
 1602              	.L143:
 1603 0014 00000000 		.word	.LANCHOR0
 1604 0018 00000000 		.word	.LANCHOR1
 1605              		.cfi_endproc
 1606              	.LFE82:
 1607              		.size	TIA_Set_Resistor, .-TIA_Set_Resistor
 1608              		.section	.text.ADC_Increase_Range,"ax",%progbits
 1609              		.align	2
 1610              		.global	ADC_Increase_Range
 1611              		.thumb
 1612              		.thumb_func
 1613              		.type	ADC_Increase_Range, %function
 1614              	ADC_Increase_Range:
 1615              	.LFB83:
 241:main.c        **** 	switch(TIA_Selected_Resistor) {
 1616              		.loc 2 241 0
 1617              		.cfi_startproc
 1618              		@ args = 0, pretend = 0, frame = 0
 1619              		@ frame_needed = 0, uses_anonymous_args = 0
 1620 0000 08B5     		push	{r3, lr}
 1621              		.cfi_def_cfa_offset 8
 1622              		.cfi_offset 3, -8
 1623              		.cfi_offset 14, -4
 242:main.c        **** 		case R20K: 	 break;
 1624              		.loc 2 242 0
 1625 0002 044B     		ldr	r3, .L149
 1626 0004 1B79     		ldrb	r3, [r3, #4]	@ zero_extendqisi2
 1627 0006 072B     		cmp	r3, #7
 1628 0008 02D1     		bne	.L145
 250:main.c        **** 		default: return;
 1629              		.loc 2 250 0
 1630 000a 0020     		movs	r0, #0
 1631 000c FFF7FEFF 		bl	TIA_Set_Resistor
 1632              	.LVL176:
 1633              	.L145:
 1634 0010 08BD     		pop	{r3, pc}
 1635              	.L150:
 1636 0012 00BF     		.align	2
 1637              	.L149:
 1638 0014 00000000 		.word	.LANCHOR0
 1639              		.cfi_endproc
 1640              	.LFE83:
 1641              		.size	ADC_Increase_Range, .-ADC_Increase_Range
 1642              		.section	.text.ADC_Decrease_Range,"ax",%progbits
 1643              		.align	2
 1644              		.global	ADC_Decrease_Range
 1645              		.thumb
 1646              		.thumb_func
 1647              		.type	ADC_Decrease_Range, %function
 1648              	ADC_Decrease_Range:
 1649              	.LFB84:
 255:main.c        **** 	switch(TIA_Selected_Resistor) {
 1650              		.loc 2 255 0
 1651              		.cfi_startproc
 1652              		@ args = 0, pretend = 0, frame = 0
 1653              		@ frame_needed = 0, uses_anonymous_args = 0
ARM GAS  C:\Users\FRANKL~1\AppData\Local\Temp\ccCAoJJX.s 			page 52


 1654 0000 08B5     		push	{r3, lr}
 1655              		.cfi_def_cfa_offset 8
 1656              		.cfi_offset 3, -8
 1657              		.cfi_offset 14, -4
 256:main.c        **** 		case R20K: 	 TIA_Set_Resistor(R1000K); break;
 1658              		.loc 2 256 0
 1659 0002 034B     		ldr	r3, .L155
 1660 0004 1B79     		ldrb	r3, [r3, #4]	@ zero_extendqisi2
 1661 0006 13B9     		cbnz	r3, .L151
 257:main.c        **** 		//case R30K: 	 TIA_Set_Resistor(R40K); break;
 1662              		.loc 2 257 0
 1663 0008 0720     		movs	r0, #7
 1664 000a FFF7FEFF 		bl	TIA_Set_Resistor
 1665              	.LVL177:
 1666              	.L151:
 1667 000e 08BD     		pop	{r3, pc}
 1668              	.L156:
 1669              		.align	2
 1670              	.L155:
 1671 0010 00000000 		.word	.LANCHOR0
 1672              		.cfi_endproc
 1673              	.LFE84:
 1674              		.size	ADC_Decrease_Range, .-ADC_Decrease_Range
 1675              		.section	.text.sortArray,"ax",%progbits
 1676              		.align	2
 1677              		.global	sortArray
 1678              		.thumb
 1679              		.thumb_func
 1680              		.type	sortArray, %function
 1681              	sortArray:
 1682              	.LFB85:
 269:main.c        **** 	int32 temp;
 1683              		.loc 2 269 0
 1684              		.cfi_startproc
 1685              		@ args = 0, pretend = 0, frame = 0
 1686              		@ frame_needed = 0, uses_anonymous_args = 0
 1687              		@ link register save eliminated.
 1688              	.LVL178:
 1689 0000 70B4     		push	{r4, r5, r6}
 1690              		.cfi_def_cfa_offset 12
 1691              		.cfi_offset 4, -12
 1692              		.cfi_offset 5, -8
 1693              		.cfi_offset 6, -4
 1694              	.LVL179:
 1695              	.LBB21:
 272:main.c        **** 		for(uint32 j = i+1; j < size; j++) {
 1696              		.loc 2 272 0
 1697 0002 0025     		movs	r5, #0
 1698 0004 10E0     		b	.L158
 1699              	.LVL180:
 1700              	.L162:
 1701              	.LBB22:
 273:main.c        **** 			if(array[j] < array[i]) {
 1702              		.loc 2 273 0
 1703 0006 6E1C     		adds	r6, r5, #1
 1704              	.LVL181:
 1705 0008 3346     		mov	r3, r6
ARM GAS  C:\Users\FRANKL~1\AppData\Local\Temp\ccCAoJJX.s 			page 53


 1706 000a 0AE0     		b	.L159
 1707              	.LVL182:
 1708              	.L161:
 274:main.c        **** 				// swap elements
 1709              		.loc 2 274 0
 1710 000c 50F82340 		ldr	r4, [r0, r3, lsl #2]
 1711 0010 50F82520 		ldr	r2, [r0, r5, lsl #2]
 1712 0014 9442     		cmp	r4, r2
 1713 0016 03DA     		bge	.L160
 1714              	.LVL183:
 277:main.c        **** 				array[j] = temp;
 1715              		.loc 2 277 0
 1716 0018 40F82540 		str	r4, [r0, r5, lsl #2]
 278:main.c        **** 			}
 1717              		.loc 2 278 0
 1718 001c 40F82320 		str	r2, [r0, r3, lsl #2]
 1719              	.LVL184:
 1720              	.L160:
 273:main.c        **** 			if(array[j] < array[i]) {
 1721              		.loc 2 273 0 discriminator 2
 1722 0020 0133     		adds	r3, r3, #1
 1723              	.LVL185:
 1724              	.L159:
 273:main.c        **** 			if(array[j] < array[i]) {
 1725              		.loc 2 273 0 is_stmt 0 discriminator 1
 1726 0022 8B42     		cmp	r3, r1
 1727 0024 F2D3     		bcc	.L161
 1728              	.LBE22:
 272:main.c        **** 		for(uint32 j = i+1; j < size; j++) {
 1729              		.loc 2 272 0 is_stmt 1
 1730 0026 3546     		mov	r5, r6
 1731              	.LVL186:
 1732              	.L158:
 272:main.c        **** 		for(uint32 j = i+1; j < size; j++) {
 1733              		.loc 2 272 0 is_stmt 0 discriminator 1
 1734 0028 4B1E     		subs	r3, r1, #1
 1735 002a 9D42     		cmp	r5, r3
 1736 002c EBD3     		bcc	.L162
 1737              	.LBE21:
 282:main.c        **** 
 1738              		.loc 2 282 0 is_stmt 1
 1739 002e 70BC     		pop	{r4, r5, r6}
 1740              		.cfi_restore 6
 1741              		.cfi_restore 5
 1742              		.cfi_restore 4
 1743              		.cfi_def_cfa_offset 0
 1744              	.LVL187:
 1745 0030 7047     		bx	lr
 1746              		.cfi_endproc
 1747              	.LFE85:
 1748              		.size	sortArray, .-sortArray
 1749 0032 00BF     		.section	.text.medianOfArray,"ax",%progbits
 1750              		.align	2
 1751              		.global	medianOfArray
 1752              		.thumb
 1753              		.thumb_func
 1754              		.type	medianOfArray, %function
ARM GAS  C:\Users\FRANKL~1\AppData\Local\Temp\ccCAoJJX.s 			page 54


 1755              	medianOfArray:
 1756              	.LFB86:
 284:main.c        **** 	sortArray(array, size);
 1757              		.loc 2 284 0
 1758              		.cfi_startproc
 1759              		@ args = 0, pretend = 0, frame = 0
 1760              		@ frame_needed = 0, uses_anonymous_args = 0
 1761              	.LVL188:
 1762 0000 38B5     		push	{r3, r4, r5, lr}
 1763              		.cfi_def_cfa_offset 16
 1764              		.cfi_offset 3, -16
 1765              		.cfi_offset 4, -12
 1766              		.cfi_offset 5, -8
 1767              		.cfi_offset 14, -4
 1768 0002 0546     		mov	r5, r0
 1769 0004 0C46     		mov	r4, r1
 285:main.c        **** 	
 1770              		.loc 2 285 0
 1771 0006 FFF7FEFF 		bl	sortArray
 1772              	.LVL189:
 287:main.c        **** 		// if size is even, return the mean of middle elements
 1773              		.loc 2 287 0
 1774 000a 14F0010F 		tst	r4, #1
 1775 000e 0CD1     		bne	.L165
 289:main.c        **** 	} else {
 1776              		.loc 2 289 0
 1777 0010 6408     		lsrs	r4, r4, #1
 1778              	.LVL190:
 1779 0012 55F82400 		ldr	r0, [r5, r4, lsl #2]
 1780 0016 04F18044 		add	r4, r4, #1073741824
 1781 001a 013C     		subs	r4, r4, #1
 1782 001c 55F82430 		ldr	r3, [r5, r4, lsl #2]
 1783 0020 1844     		add	r0, r0, r3
 1784 0022 00EBD070 		add	r0, r0, r0, lsr #31
 1785 0026 4010     		asrs	r0, r0, #1
 1786 0028 38BD     		pop	{r3, r4, r5, pc}
 1787              	.LVL191:
 1788              	.L165:
 292:main.c        **** 	}
 1789              		.loc 2 292 0
 1790 002a 6408     		lsrs	r4, r4, #1
 1791              	.LVL192:
 1792 002c 55F82400 		ldr	r0, [r5, r4, lsl #2]
 294:main.c        **** 
 1793              		.loc 2 294 0
 1794 0030 38BD     		pop	{r3, r4, r5, pc}
 1795              		.cfi_endproc
 1796              	.LFE86:
 1797              		.size	medianOfArray, .-medianOfArray
 1798              		.global	__aeabi_ui2f
 1799              		.global	__aeabi_fdiv
 1800              		.global	__aeabi_i2f
 1801              		.global	__aeabi_fmul
 1802              		.global	__aeabi_fadd
 1803              		.global	__aeabi_f2iz
 1804              		.global	__aeabi_fsub
 1805 0032 00BF     		.section	.text.ADC_Measure_uV,"ax",%progbits
ARM GAS  C:\Users\FRANKL~1\AppData\Local\Temp\ccCAoJJX.s 			page 55


 1806              		.align	2
 1807              		.global	ADC_Measure_uV
 1808              		.thumb
 1809              		.thumb_func
 1810              		.type	ADC_Measure_uV, %function
 1811              	ADC_Measure_uV:
 1812              	.LFB87:
 297:main.c        **** 	int32 ADC_Result = 0;
 1813              		.loc 2 297 0
 1814              		.cfi_startproc
 1815              		@ args = 0, pretend = 0, frame = 24
 1816              		@ frame_needed = 1, uses_anonymous_args = 0
 1817              	.LVL193:
 1818 0000 2DE9F04F 		push	{r4, r5, r6, r7, r8, r9, r10, fp, lr}
 1819              		.cfi_def_cfa_offset 36
 1820              		.cfi_offset 4, -36
 1821              		.cfi_offset 5, -32
 1822              		.cfi_offset 6, -28
 1823              		.cfi_offset 7, -24
 1824              		.cfi_offset 8, -20
 1825              		.cfi_offset 9, -16
 1826              		.cfi_offset 10, -12
 1827              		.cfi_offset 11, -8
 1828              		.cfi_offset 14, -4
 1829 0004 87B0     		sub	sp, sp, #28
 1830              		.cfi_def_cfa_offset 64
 1831 0006 00AF     		add	r7, sp, #0
 1832              		.cfi_def_cfa_register 7
 1833 0008 B860     		str	r0, [r7, #8]
 1834 000a 7960     		str	r1, [r7, #4]
 1835              	.LVL194:
 302:main.c        **** 	
 1836              		.loc 2 302 0
 1837 000c 122A     		cmp	r2, #18
 1838 000e 01D9     		bls	.L174
 301:main.c        **** 	if (sampleCount < medianArraySize) medianArraySize = sampleCount;
 1839              		.loc 2 301 0
 1840 0010 1324     		movs	r4, #19
 1841 0012 00E0     		b	.L169
 1842              	.L174:
 302:main.c        **** 	
 1843              		.loc 2 302 0
 1844 0014 1446     		mov	r4, r2
 1845              	.L169:
 1846              	.LVL195:
 304:main.c        **** 	int32 medianArray[medianArraySize];
 1847              		.loc 2 304 0
 1848 0016 B2FBF4FA 		udiv	r10, r2, r4
 1849              	.LVL196:
 305:main.c        **** 	
 1850              		.loc 2 305 0
 1851 001a A300     		lsls	r3, r4, #2
 1852 001c 0A33     		adds	r3, r3, #10
 1853 001e 23F00703 		bic	r3, r3, #7
 1854 0022 ADEB030D 		sub	sp, sp, r3
 1855 0026 6D46     		mov	r5, sp
 1856              	.LVL197:
ARM GAS  C:\Users\FRANKL~1\AppData\Local\Temp\ccCAoJJX.s 			page 56


 1857              	.LBB23:
 307:main.c        **** 		for (uint32 j = 0; j < medianArraySize; j++) {
 1858              		.loc 2 307 0
 1859 0028 0126     		movs	r6, #1
 1860              	.LBE23:
 299:main.c        **** 	
 1861              		.loc 2 299 0
 1862 002a 0023     		movs	r3, #0
 1863 002c 7B61     		str	r3, [r7, #20]
 298:main.c        **** 	int32 ADC_SD = 0;
 1864              		.loc 2 298 0
 1865 002e 9B46     		mov	fp, r3
 1866              	.LBB28:
 307:main.c        **** 		for (uint32 j = 0; j < medianArraySize; j++) {
 1867              		.loc 2 307 0
 1868 0030 53E0     		b	.L170
 1869              	.LVL198:
 1870              	.L172:
 1871              	.LBB24:
 1872              	.LBB25:
 309:main.c        **** 			while (!ADC_DelSig_1_IsEndConversion(ADC_DelSig_1_RETURN_STATUS));
 1873              		.loc 2 309 0
 1874 0032 FFF7FEFF 		bl	ADC_DelSig_1_StartConvert
 1875              	.LVL199:
 1876              	.L171:
 310:main.c        **** 			//int16 ADC_Result = ADC_DelSig_1_CountsTo_mVolts(ADC_DelSig_1_GetResult16());
 1877              		.loc 2 310 0 discriminator 1
 1878 0036 0120     		movs	r0, #1
 1879 0038 FFF7FEFF 		bl	ADC_DelSig_1_IsEndConversion
 1880              	.LVL200:
 1881 003c 0028     		cmp	r0, #0
 1882 003e FAD0     		beq	.L171
 312:main.c        **** 		}
 1883              		.loc 2 312 0 discriminator 2
 1884 0040 FFF7FEFF 		bl	ADC_DelSig_1_GetResult32
 1885              	.LVL201:
 1886 0044 FFF7FEFF 		bl	ADC_DelSig_1_CountsTo_uVolts
 1887              	.LVL202:
 1888 0048 45F82800 		str	r0, [r5, r8, lsl #2]
 308:main.c        **** 			ADC_DelSig_1_StartConvert();
 1889              		.loc 2 308 0 discriminator 2
 1890 004c 08F10108 		add	r8, r8, #1
 1891              	.LVL203:
 1892 0050 01E0     		b	.L173
 1893              	.LVL204:
 1894              	.L175:
 1895              	.LBE25:
 1896              	.LBE24:
 1897 0052 4FF00008 		mov	r8, #0
 1898              	.L173:
 1899              	.LVL205:
 1900              	.LBB27:
 1901              	.LBB26:
 308:main.c        **** 			ADC_DelSig_1_StartConvert();
 1902              		.loc 2 308 0 is_stmt 0 discriminator 1
 1903 0056 4445     		cmp	r4, r8
 1904 0058 EBD8     		bhi	.L172
ARM GAS  C:\Users\FRANKL~1\AppData\Local\Temp\ccCAoJJX.s 			page 57


 1905              	.LBE26:
 315:main.c        **** 		
 1906              		.loc 2 315 0 is_stmt 1 discriminator 2
 1907 005a 2146     		mov	r1, r4
 1908 005c 2846     		mov	r0, r5
 1909 005e FFF7FEFF 		bl	medianOfArray
 1910              	.LVL206:
 1911 0062 8046     		mov	r8, r0
 1912              	.LVL207:
 317:main.c        **** 		ADC_Result += ((float)ADC_Result_Current - (float)ADC_Result)/(float)i;
 1913              		.loc 2 317 0 discriminator 2
 1914 0064 701E     		subs	r0, r6, #1
 1915              	.LVL208:
 1916 0066 FFF7FEFF 		bl	__aeabi_ui2f
 1917              	.LVL209:
 1918 006a 8146     		mov	r9, r0
 1919 006c 3046     		mov	r0, r6
 1920 006e FFF7FEFF 		bl	__aeabi_ui2f
 1921              	.LVL210:
 1922 0072 3861     		str	r0, [r7, #16]	@ float
 1923 0074 0146     		mov	r1, r0
 1924 0076 4846     		mov	r0, r9
 1925 0078 FFF7FEFF 		bl	__aeabi_fdiv
 1926              	.LVL211:
 1927 007c F860     		str	r0, [r7, #12]	@ float
 1928 007e CBEB0800 		rsb	r0, fp, r8
 1929 0082 FFF7FEFF 		bl	__aeabi_i2f
 1930              	.LVL212:
 1931 0086 8146     		mov	r9, r0
 1932 0088 0146     		mov	r1, r0
 1933 008a F868     		ldr	r0, [r7, #12]	@ float
 1934 008c FFF7FEFF 		bl	__aeabi_fmul
 1935              	.LVL213:
 1936 0090 0146     		mov	r1, r0
 1937 0092 4846     		mov	r0, r9
 1938 0094 FFF7FEFF 		bl	__aeabi_fmul
 1939              	.LVL214:
 1940 0098 8146     		mov	r9, r0
 1941 009a 7869     		ldr	r0, [r7, #20]
 1942 009c FFF7FEFF 		bl	__aeabi_i2f
 1943              	.LVL215:
 1944 00a0 4946     		mov	r1, r9
 1945 00a2 FFF7FEFF 		bl	__aeabi_fadd
 1946              	.LVL216:
 1947 00a6 FFF7FEFF 		bl	__aeabi_f2iz
 1948              	.LVL217:
 1949 00aa 7861     		str	r0, [r7, #20]
 1950              	.LVL218:
 318:main.c        **** 	}
 1951              		.loc 2 318 0 discriminator 2
 1952 00ac 4046     		mov	r0, r8
 1953              	.LVL219:
 1954 00ae FFF7FEFF 		bl	__aeabi_i2f
 1955              	.LVL220:
 1956 00b2 8046     		mov	r8, r0
 1957              	.LVL221:
 1958 00b4 5846     		mov	r0, fp
ARM GAS  C:\Users\FRANKL~1\AppData\Local\Temp\ccCAoJJX.s 			page 58


 1959 00b6 FFF7FEFF 		bl	__aeabi_i2f
 1960              	.LVL222:
 1961 00ba 8146     		mov	r9, r0
 1962 00bc 0146     		mov	r1, r0
 1963 00be 4046     		mov	r0, r8
 1964 00c0 FFF7FEFF 		bl	__aeabi_fsub
 1965              	.LVL223:
 1966 00c4 3969     		ldr	r1, [r7, #16]	@ float
 1967 00c6 FFF7FEFF 		bl	__aeabi_fdiv
 1968              	.LVL224:
 1969 00ca 0146     		mov	r1, r0
 1970 00cc 4846     		mov	r0, r9
 1971 00ce FFF7FEFF 		bl	__aeabi_fadd
 1972              	.LVL225:
 1973 00d2 FFF7FEFF 		bl	__aeabi_f2iz
 1974              	.LVL226:
 1975 00d6 8346     		mov	fp, r0
 1976              	.LVL227:
 1977              	.LBE27:
 307:main.c        **** 		for (uint32 j = 0; j < medianArraySize; j++) {
 1978              		.loc 2 307 0 discriminator 2
 1979 00d8 0136     		adds	r6, r6, #1
 1980              	.LVL228:
 1981              	.L170:
 307:main.c        **** 		for (uint32 j = 0; j < medianArraySize; j++) {
 1982              		.loc 2 307 0 is_stmt 0 discriminator 1
 1983 00da 5645     		cmp	r6, r10
 1984 00dc B9D9     		bls	.L175
 1985              	.LBE28:
 321:main.c        **** 	*standardDeviation = ADC_SD;
 1986              		.loc 2 321 0 is_stmt 1
 1987 00de BB68     		ldr	r3, [r7, #8]
 1988 00e0 C3F800B0 		str	fp, [r3]
 322:main.c        **** }
 1989              		.loc 2 322 0
 1990 00e4 7B68     		ldr	r3, [r7, #4]
 1991 00e6 1A46     		mov	r2, r3
 1992 00e8 7B69     		ldr	r3, [r7, #20]
 1993 00ea 1360     		str	r3, [r2]
 323:main.c        **** 
 1994              		.loc 2 323 0
 1995 00ec 1C37     		adds	r7, r7, #28
 1996              		.cfi_def_cfa_offset 36
 1997              	.LVL229:
 1998 00ee BD46     		mov	sp, r7
 1999              		.cfi_def_cfa_register 13
 2000              		@ sp needed
 2001 00f0 BDE8F08F 		pop	{r4, r5, r6, r7, r8, r9, r10, fp, pc}
 2002              		.cfi_endproc
 2003              	.LFE87:
 2004              		.size	ADC_Measure_uV, .-ADC_Measure_uV
 2005              		.section	.text.ADC_Adjust_Range,"ax",%progbits
 2006              		.align	2
 2007              		.global	ADC_Adjust_Range
 2008              		.thumb
 2009              		.thumb_func
 2010              		.type	ADC_Adjust_Range, %function
ARM GAS  C:\Users\FRANKL~1\AppData\Local\Temp\ccCAoJJX.s 			page 59


 2011              	ADC_Adjust_Range:
 2012              	.LFB88:
 325:main.c        **** 	int32 ADC_Voltage = 0;
 2013              		.loc 2 325 0
 2014              		.cfi_startproc
 2015              		@ args = 0, pretend = 0, frame = 8
 2016              		@ frame_needed = 0, uses_anonymous_args = 0
 2017              	.LVL230:
 2018 0000 00B5     		push	{lr}
 2019              		.cfi_def_cfa_offset 4
 2020              		.cfi_offset 14, -4
 2021 0002 83B0     		sub	sp, sp, #12
 2022              		.cfi_def_cfa_offset 16
 326:main.c        **** 	int32 ADC_Voltage_SD = 0;
 2023              		.loc 2 326 0
 2024 0004 0023     		movs	r3, #0
 2025 0006 0193     		str	r3, [sp, #4]
 327:main.c        **** 	
 2026              		.loc 2 327 0
 2027 0008 02A9     		add	r1, sp, #8
 2028 000a 41F8083D 		str	r3, [r1, #-8]!
 329:main.c        **** 	
 2029              		.loc 2 329 0
 2030 000e 0246     		mov	r2, r0
 2031 0010 01A8     		add	r0, sp, #4
 2032              	.LVL231:
 2033 0012 FFF7FEFF 		bl	ADC_Measure_uV
 2034              	.LVL232:
 331:main.c        **** 		ADC_Increase_Range();
 2035              		.loc 2 331 0
 2036 0016 019B     		ldr	r3, [sp, #4]
 2037 0018 83EAE371 		eor	r1, r3, r3, asr #31
 2038 001c A1EBE371 		sub	r1, r1, r3, asr #31
 2039 0020 0B4A     		ldr	r2, .L183
 2040 0022 9142     		cmp	r1, r2
 2041 0024 02DD     		ble	.L178
 332:main.c        **** 	} else if (abs(ADC_Voltage) < 10240) {
 2042              		.loc 2 332 0
 2043 0026 FFF7FEFF 		bl	ADC_Increase_Range
 2044              	.LVL233:
 2045 002a 08E0     		b	.L179
 2046              	.L178:
 333:main.c        **** 		ADC_Decrease_Range();
 2047              		.loc 2 333 0
 2048 002c 03F51F53 		add	r3, r3, #10176
 2049 0030 3F33     		adds	r3, r3, #63
 2050 0032 44F6FE72 		movw	r2, #20478
 2051 0036 9342     		cmp	r3, r2
 2052 0038 06D8     		bhi	.L177
 334:main.c        **** 	} else {
 2053              		.loc 2 334 0
 2054 003a FFF7FEFF 		bl	ADC_Decrease_Range
 2055              	.LVL234:
 2056              	.L179:
 340:main.c        **** }
 2057              		.loc 2 340 0
 2058 003e 0522     		movs	r2, #5
ARM GAS  C:\Users\FRANKL~1\AppData\Local\Temp\ccCAoJJX.s 			page 60


 2059 0040 6946     		mov	r1, sp
 2060 0042 01A8     		add	r0, sp, #4
 2061 0044 FFF7FEFF 		bl	ADC_Measure_uV
 2062              	.LVL235:
 2063              	.L177:
 341:main.c        **** 
 2064              		.loc 2 341 0
 2065 0048 03B0     		add	sp, sp, #12
 2066              		.cfi_def_cfa_offset 4
 2067              		@ sp needed
 2068 004a 5DF804FB 		ldr	pc, [sp], #4
 2069              	.L184:
 2070 004e 00BF     		.align	2
 2071              	.L183:
 2072 0050 00480D00 		.word	870400
 2073              		.cfi_endproc
 2074              	.LFE88:
 2075              		.size	ADC_Adjust_Range, .-ADC_Adjust_Range
 2076              		.section	.text.SAR1_Measure_V,"ax",%progbits
 2077              		.align	2
 2078              		.global	SAR1_Measure_V
 2079              		.thumb
 2080              		.thumb_func
 2081              		.type	SAR1_Measure_V, %function
 2082              	SAR1_Measure_V:
 2083              	.LFB89:
 344:main.c        **** 	int32 SAR_Result = 0;
 2084              		.loc 2 344 0
 2085              		.cfi_startproc
 2086              		@ args = 0, pretend = 0, frame = 8
 2087              		@ frame_needed = 0, uses_anonymous_args = 0
 2088              	.LVL236:
 2089 0000 2DE9F04F 		push	{r4, r5, r6, r7, r8, r9, r10, fp, lr}
 2090              		.cfi_def_cfa_offset 36
 2091              		.cfi_offset 4, -36
 2092              		.cfi_offset 5, -32
 2093              		.cfi_offset 6, -28
 2094              		.cfi_offset 7, -24
 2095              		.cfi_offset 8, -20
 2096              		.cfi_offset 9, -16
 2097              		.cfi_offset 10, -12
 2098              		.cfi_offset 11, -8
 2099              		.cfi_offset 14, -4
 2100 0004 83B0     		sub	sp, sp, #12
 2101              		.cfi_def_cfa_offset 48
 2102 0006 0090     		str	r0, [sp]
 2103 0008 0191     		str	r1, [sp, #4]
 2104 000a 9346     		mov	fp, r2
 2105              	.LVL237:
 2106              	.LBB29:
 348:main.c        **** 		ADC_SAR_1_StartConvert();
 2107              		.loc 2 348 0
 2108 000c 0124     		movs	r4, #1
 2109              	.LBE29:
 346:main.c        **** 	
 2110              		.loc 2 346 0
 2111 000e 4FF00009 		mov	r9, #0
ARM GAS  C:\Users\FRANKL~1\AppData\Local\Temp\ccCAoJJX.s 			page 61


 345:main.c        **** 	int32 SAR_SD = 0;
 2112              		.loc 2 345 0
 2113 0012 4D46     		mov	r5, r9
 2114              	.LBB31:
 348:main.c        **** 		ADC_SAR_1_StartConvert();
 2115              		.loc 2 348 0
 2116 0014 45E0     		b	.L186
 2117              	.LVL238:
 2118              	.L188:
 2119              	.LBB30:
 349:main.c        **** 		while (!ADC_SAR_1_IsEndConversion(ADC_SAR_1_RETURN_STATUS));
 2120              		.loc 2 349 0
 2121 0016 FFF7FEFF 		bl	ADC_SAR_1_StartConvert
 2122              	.LVL239:
 2123              	.L187:
 350:main.c        **** 		
 2124              		.loc 2 350 0 discriminator 1
 2125 001a 0120     		movs	r0, #1
 2126 001c FFF7FEFF 		bl	ADC_SAR_1_IsEndConversion
 2127              	.LVL240:
 2128 0020 0028     		cmp	r0, #0
 2129 0022 FAD0     		beq	.L187
 352:main.c        **** 		
 2130              		.loc 2 352 0 discriminator 2
 2131 0024 FFF7FEFF 		bl	ADC_SAR_1_GetResult16
 2132              	.LVL241:
 2133 0028 FFF7FEFF 		bl	ADC_SAR_1_CountsTo_uVolts
 2134              	.LVL242:
 2135 002c 0746     		mov	r7, r0
 2136              	.LVL243:
 354:main.c        **** 		SAR_Result += ((float)SAR1_Result_Current - (float)SAR_Result)/(float)i;
 2137              		.loc 2 354 0 discriminator 2
 2138 002e 601E     		subs	r0, r4, #1
 2139              	.LVL244:
 2140 0030 FFF7FEFF 		bl	__aeabi_ui2f
 2141              	.LVL245:
 2142 0034 8046     		mov	r8, r0
 2143 0036 2046     		mov	r0, r4
 2144 0038 FFF7FEFF 		bl	__aeabi_ui2f
 2145              	.LVL246:
 2146 003c 0646     		mov	r6, r0
 2147 003e 0146     		mov	r1, r0
 2148 0040 4046     		mov	r0, r8
 2149 0042 FFF7FEFF 		bl	__aeabi_fdiv
 2150              	.LVL247:
 2151 0046 8246     		mov	r10, r0
 2152 0048 781B     		subs	r0, r7, r5
 2153 004a FFF7FEFF 		bl	__aeabi_i2f
 2154              	.LVL248:
 2155 004e 8046     		mov	r8, r0
 2156 0050 0146     		mov	r1, r0
 2157 0052 5046     		mov	r0, r10
 2158 0054 FFF7FEFF 		bl	__aeabi_fmul
 2159              	.LVL249:
 2160 0058 0146     		mov	r1, r0
 2161 005a 4046     		mov	r0, r8
 2162 005c FFF7FEFF 		bl	__aeabi_fmul
ARM GAS  C:\Users\FRANKL~1\AppData\Local\Temp\ccCAoJJX.s 			page 62


 2163              	.LVL250:
 2164 0060 8046     		mov	r8, r0
 2165 0062 4846     		mov	r0, r9
 2166 0064 FFF7FEFF 		bl	__aeabi_i2f
 2167              	.LVL251:
 2168 0068 4146     		mov	r1, r8
 2169 006a FFF7FEFF 		bl	__aeabi_fadd
 2170              	.LVL252:
 2171 006e FFF7FEFF 		bl	__aeabi_f2iz
 2172              	.LVL253:
 2173 0072 8146     		mov	r9, r0
 2174              	.LVL254:
 355:main.c        **** 	}
 2175              		.loc 2 355 0 discriminator 2
 2176 0074 3846     		mov	r0, r7
 2177              	.LVL255:
 2178 0076 FFF7FEFF 		bl	__aeabi_i2f
 2179              	.LVL256:
 2180 007a 0746     		mov	r7, r0
 2181              	.LVL257:
 2182 007c 2846     		mov	r0, r5
 2183 007e FFF7FEFF 		bl	__aeabi_i2f
 2184              	.LVL258:
 2185 0082 0546     		mov	r5, r0
 2186              	.LVL259:
 2187 0084 0146     		mov	r1, r0
 2188 0086 3846     		mov	r0, r7
 2189 0088 FFF7FEFF 		bl	__aeabi_fsub
 2190              	.LVL260:
 2191 008c 3146     		mov	r1, r6
 2192 008e FFF7FEFF 		bl	__aeabi_fdiv
 2193              	.LVL261:
 2194 0092 0146     		mov	r1, r0
 2195 0094 2846     		mov	r0, r5
 2196 0096 FFF7FEFF 		bl	__aeabi_fadd
 2197              	.LVL262:
 2198 009a FFF7FEFF 		bl	__aeabi_f2iz
 2199              	.LVL263:
 2200 009e 0546     		mov	r5, r0
 2201              	.LVL264:
 2202              	.LBE30:
 348:main.c        **** 		ADC_SAR_1_StartConvert();
 2203              		.loc 2 348 0 discriminator 2
 2204 00a0 0134     		adds	r4, r4, #1
 2205              	.LVL265:
 2206              	.L186:
 348:main.c        **** 		ADC_SAR_1_StartConvert();
 2207              		.loc 2 348 0 is_stmt 0 discriminator 1
 2208 00a2 5C45     		cmp	r4, fp
 2209 00a4 B7D9     		bls	.L188
 2210              	.LBE31:
 358:main.c        **** 	*standardDeviation = SAR_SD;
 2211              		.loc 2 358 0 is_stmt 1
 2212 00a6 009B     		ldr	r3, [sp]
 2213 00a8 1D60     		str	r5, [r3]
 359:main.c        **** }
 2214              		.loc 2 359 0
ARM GAS  C:\Users\FRANKL~1\AppData\Local\Temp\ccCAoJJX.s 			page 63


 2215 00aa 019B     		ldr	r3, [sp, #4]
 2216 00ac C3F80090 		str	r9, [r3]
 360:main.c        **** 
 2217              		.loc 2 360 0
 2218 00b0 03B0     		add	sp, sp, #12
 2219              		.cfi_def_cfa_offset 36
 2220              	.LVL266:
 2221              		@ sp needed
 2222 00b2 BDE8F08F 		pop	{r4, r5, r6, r7, r8, r9, r10, fp, pc}
 2223              		.cfi_endproc
 2224              	.LFE89:
 2225              		.size	SAR1_Measure_V, .-SAR1_Measure_V
 2226 00b6 00BF     		.section	.text.SAR2_Measure_V,"ax",%progbits
 2227              		.align	2
 2228              		.global	SAR2_Measure_V
 2229              		.thumb
 2230              		.thumb_func
 2231              		.type	SAR2_Measure_V, %function
 2232              	SAR2_Measure_V:
 2233              	.LFB90:
 363:main.c        **** 	int32 SAR_Result = 0;
 2234              		.loc 2 363 0
 2235              		.cfi_startproc
 2236              		@ args = 0, pretend = 0, frame = 8
 2237              		@ frame_needed = 0, uses_anonymous_args = 0
 2238              	.LVL267:
 2239 0000 2DE9F04F 		push	{r4, r5, r6, r7, r8, r9, r10, fp, lr}
 2240              		.cfi_def_cfa_offset 36
 2241              		.cfi_offset 4, -36
 2242              		.cfi_offset 5, -32
 2243              		.cfi_offset 6, -28
 2244              		.cfi_offset 7, -24
 2245              		.cfi_offset 8, -20
 2246              		.cfi_offset 9, -16
 2247              		.cfi_offset 10, -12
 2248              		.cfi_offset 11, -8
 2249              		.cfi_offset 14, -4
 2250 0004 83B0     		sub	sp, sp, #12
 2251              		.cfi_def_cfa_offset 48
 2252 0006 0090     		str	r0, [sp]
 2253 0008 0191     		str	r1, [sp, #4]
 2254 000a 9346     		mov	fp, r2
 2255              	.LVL268:
 2256              	.LBB32:
 367:main.c        **** 		ADC_SAR_2_StartConvert();
 2257              		.loc 2 367 0
 2258 000c 0124     		movs	r4, #1
 2259              	.LBE32:
 365:main.c        **** 	
 2260              		.loc 2 365 0
 2261 000e 4FF00009 		mov	r9, #0
 364:main.c        **** 	int32 SAR_SD = 0;
 2262              		.loc 2 364 0
 2263 0012 4D46     		mov	r5, r9
 2264              	.LBB34:
 367:main.c        **** 		ADC_SAR_2_StartConvert();
 2265              		.loc 2 367 0
ARM GAS  C:\Users\FRANKL~1\AppData\Local\Temp\ccCAoJJX.s 			page 64


 2266 0014 45E0     		b	.L191
 2267              	.LVL269:
 2268              	.L193:
 2269              	.LBB33:
 368:main.c        **** 		while (!ADC_SAR_2_IsEndConversion(ADC_SAR_2_RETURN_STATUS));
 2270              		.loc 2 368 0
 2271 0016 FFF7FEFF 		bl	ADC_SAR_2_StartConvert
 2272              	.LVL270:
 2273              	.L192:
 369:main.c        **** 		
 2274              		.loc 2 369 0 discriminator 1
 2275 001a 0120     		movs	r0, #1
 2276 001c FFF7FEFF 		bl	ADC_SAR_2_IsEndConversion
 2277              	.LVL271:
 2278 0020 0028     		cmp	r0, #0
 2279 0022 FAD0     		beq	.L192
 371:main.c        **** 		
 2280              		.loc 2 371 0 discriminator 2
 2281 0024 FFF7FEFF 		bl	ADC_SAR_2_GetResult16
 2282              	.LVL272:
 2283 0028 FFF7FEFF 		bl	ADC_SAR_2_CountsTo_uVolts
 2284              	.LVL273:
 2285 002c 0746     		mov	r7, r0
 2286              	.LVL274:
 373:main.c        **** 		SAR_Result += ((float)SAR2_Result_Current - (float)SAR_Result)/(float)i;
 2287              		.loc 2 373 0 discriminator 2
 2288 002e 601E     		subs	r0, r4, #1
 2289              	.LVL275:
 2290 0030 FFF7FEFF 		bl	__aeabi_ui2f
 2291              	.LVL276:
 2292 0034 8046     		mov	r8, r0
 2293 0036 2046     		mov	r0, r4
 2294 0038 FFF7FEFF 		bl	__aeabi_ui2f
 2295              	.LVL277:
 2296 003c 0646     		mov	r6, r0
 2297 003e 0146     		mov	r1, r0
 2298 0040 4046     		mov	r0, r8
 2299 0042 FFF7FEFF 		bl	__aeabi_fdiv
 2300              	.LVL278:
 2301 0046 8246     		mov	r10, r0
 2302 0048 781B     		subs	r0, r7, r5
 2303 004a FFF7FEFF 		bl	__aeabi_i2f
 2304              	.LVL279:
 2305 004e 8046     		mov	r8, r0
 2306 0050 0146     		mov	r1, r0
 2307 0052 5046     		mov	r0, r10
 2308 0054 FFF7FEFF 		bl	__aeabi_fmul
 2309              	.LVL280:
 2310 0058 0146     		mov	r1, r0
 2311 005a 4046     		mov	r0, r8
 2312 005c FFF7FEFF 		bl	__aeabi_fmul
 2313              	.LVL281:
 2314 0060 8046     		mov	r8, r0
 2315 0062 4846     		mov	r0, r9
 2316 0064 FFF7FEFF 		bl	__aeabi_i2f
 2317              	.LVL282:
 2318 0068 4146     		mov	r1, r8
ARM GAS  C:\Users\FRANKL~1\AppData\Local\Temp\ccCAoJJX.s 			page 65


 2319 006a FFF7FEFF 		bl	__aeabi_fadd
 2320              	.LVL283:
 2321 006e FFF7FEFF 		bl	__aeabi_f2iz
 2322              	.LVL284:
 2323 0072 8146     		mov	r9, r0
 2324              	.LVL285:
 374:main.c        **** 	}
 2325              		.loc 2 374 0 discriminator 2
 2326 0074 3846     		mov	r0, r7
 2327              	.LVL286:
 2328 0076 FFF7FEFF 		bl	__aeabi_i2f
 2329              	.LVL287:
 2330 007a 0746     		mov	r7, r0
 2331              	.LVL288:
 2332 007c 2846     		mov	r0, r5
 2333 007e FFF7FEFF 		bl	__aeabi_i2f
 2334              	.LVL289:
 2335 0082 0546     		mov	r5, r0
 2336              	.LVL290:
 2337 0084 0146     		mov	r1, r0
 2338 0086 3846     		mov	r0, r7
 2339 0088 FFF7FEFF 		bl	__aeabi_fsub
 2340              	.LVL291:
 2341 008c 3146     		mov	r1, r6
 2342 008e FFF7FEFF 		bl	__aeabi_fdiv
 2343              	.LVL292:
 2344 0092 0146     		mov	r1, r0
 2345 0094 2846     		mov	r0, r5
 2346 0096 FFF7FEFF 		bl	__aeabi_fadd
 2347              	.LVL293:
 2348 009a FFF7FEFF 		bl	__aeabi_f2iz
 2349              	.LVL294:
 2350 009e 0546     		mov	r5, r0
 2351              	.LVL295:
 2352              	.LBE33:
 367:main.c        **** 		ADC_SAR_2_StartConvert();
 2353              		.loc 2 367 0 discriminator 2
 2354 00a0 0134     		adds	r4, r4, #1
 2355              	.LVL296:
 2356              	.L191:
 367:main.c        **** 		ADC_SAR_2_StartConvert();
 2357              		.loc 2 367 0 is_stmt 0 discriminator 1
 2358 00a2 5C45     		cmp	r4, fp
 2359 00a4 B7D9     		bls	.L193
 2360              	.LBE34:
 377:main.c        **** 	*standardDeviation = SAR_SD;
 2361              		.loc 2 377 0 is_stmt 1
 2362 00a6 009B     		ldr	r3, [sp]
 2363 00a8 1D60     		str	r5, [r3]
 378:main.c        **** }
 2364              		.loc 2 378 0
 2365 00aa 019B     		ldr	r3, [sp, #4]
 2366 00ac C3F80090 		str	r9, [r3]
 379:main.c        **** 
 2367              		.loc 2 379 0
 2368 00b0 03B0     		add	sp, sp, #12
 2369              		.cfi_def_cfa_offset 36
ARM GAS  C:\Users\FRANKL~1\AppData\Local\Temp\ccCAoJJX.s 			page 66


 2370              	.LVL297:
 2371              		@ sp needed
 2372 00b2 BDE8F08F 		pop	{r4, r5, r6, r7, r8, r9, r10, fp, pc}
 2373              		.cfi_endproc
 2374              	.LFE90:
 2375              		.size	SAR2_Measure_V, .-SAR2_Measure_V
 2376              		.global	__aeabi_f2d
 2377              		.global	__aeabi_ddiv
 2378              		.global	__aeabi_d2f
 2379              		.global	__aeabi_dsub
 2380              		.global	__aeabi_dmul
 2381              		.global	__aeabi_dadd
 2382              		.global	__aeabi_i2d
 2383              		.global	__aeabi_dcmpgt
 2384 00b6 00BF     		.section	.text.Measure_Current_Vss,"ax",%progbits
 2385              		.align	2
 2386              		.global	Measure_Current_Vss
 2387              		.thumb
 2388              		.thumb_func
 2389              		.type	Measure_Current_Vss, %function
 2390              	Measure_Current_Vss:
 2391              	.LFB91:
 382:main.c        **** 	Compliance_Reached = 0;
 2392              		.loc 2 382 0
 2393              		.cfi_startproc
 2394              		@ args = 0, pretend = 0, frame = 40
 2395              		@ frame_needed = 0, uses_anonymous_args = 0
 2396              	.LVL298:
 2397 0000 2DE9F04F 		push	{r4, r5, r6, r7, r8, r9, r10, fp, lr}
 2398              		.cfi_def_cfa_offset 36
 2399              		.cfi_offset 4, -36
 2400              		.cfi_offset 5, -32
 2401              		.cfi_offset 6, -28
 2402              		.cfi_offset 7, -24
 2403              		.cfi_offset 8, -20
 2404              		.cfi_offset 9, -16
 2405              		.cfi_offset 10, -12
 2406              		.cfi_offset 11, -8
 2407              		.cfi_offset 14, -4
 2408 0004 8BB0     		sub	sp, sp, #44
 2409              		.cfi_def_cfa_offset 80
 2410 0006 0690     		str	r0, [sp, #24]
 2411 0008 0791     		str	r1, [sp, #28]
 2412 000a 9246     		mov	r10, r2
 2413 000c 1D46     		mov	r5, r3
 383:main.c        **** 		
 2414              		.loc 2 383 0
 2415 000e 0026     		movs	r6, #0
 2416 0010 5B4B     		ldr	r3, .L207+16
 2417              	.LVL299:
 2418 0012 1E70     		strb	r6, [r3]
 386:main.c        **** 	
 2419              		.loc 2 386 0
 2420 0014 0320     		movs	r0, #3
 2421              	.LVL300:
 2422 0016 FFF7FEFF 		bl	ADC_Adjust_Range
 2423              	.LVL301:
ARM GAS  C:\Users\FRANKL~1\AppData\Local\Temp\ccCAoJJX.s 			page 67


 389:main.c        **** 	int32 ADC_Voltage_SD = 0;
 2424              		.loc 2 389 0
 2425 001a 0996     		str	r6, [sp, #36]
 390:main.c        **** 	
 2426              		.loc 2 390 0
 2427 001c 0AAC     		add	r4, sp, #40
 2428 001e 44F8086D 		str	r6, [r4, #-8]!
 2429              	.LVL302:
 397:main.c        **** 	int32 TIA_Offset_uV = TIA_Offsets_uV[TIA_Selected_Resistor];
 2430              		.loc 2 397 0
 2431 0022 5849     		ldr	r1, .L207+20
 2432 0024 0A79     		ldrb	r2, [r1, #4]	@ zero_extendqisi2
 2433 0026 9300     		lsls	r3, r2, #2
 2434 0028 574A     		ldr	r2, .L207+24
 2435 002a 1A44     		add	r2, r2, r3
 2436              	.LVL303:
 398:main.c        **** 	float unitConversion = -1.0e-6/TIA_Feedback_R;
 2437              		.loc 2 398 0
 2438 002c 0B44     		add	r3, r3, r1
 2439 002e D3F80890 		ldr	r9, [r3, #8]
 2440              	.LVL304:
 399:main.c        **** 	
 2441              		.loc 2 399 0
 2442 0032 D068     		ldr	r0, [r2, #12]	@ float
 2443 0034 FFF7FEFF 		bl	__aeabi_f2d
 2444              	.LVL305:
 2445 0038 0246     		mov	r2, r0
 2446 003a 0B46     		mov	r3, r1
 2447 003c 4CA1     		adr	r1, .L207
 2448 003e D1E90001 		ldrd	r0, [r1]
 2449 0042 FFF7FEFF 		bl	__aeabi_ddiv
 2450              	.LVL306:
 2451 0046 FFF7FEFF 		bl	__aeabi_d2f
 2452              	.LVL307:
 2453 004a 0590     		str	r0, [sp, #20]	@ float
 2454              	.LVL308:
 402:main.c        **** 	
 2455              		.loc 2 402 0
 2456 004c 0322     		movs	r2, #3
 2457 004e 2146     		mov	r1, r4
 2458 0050 09A8     		add	r0, sp, #36
 2459              	.LVL309:
 2460 0052 FFF7FEFF 		bl	ADC_Measure_uV
 2461              	.LVL310:
 405:main.c        **** 		for (uint32 i = 1; i <= sampleCount; i++) {
 2462              		.loc 2 405 0
 2463 0056 002D     		cmp	r5, #0
 2464 0058 63D1     		bne	.L202
 2465 005a 69E0     		b	.L204
 2466              	.LVL311:
 2467              	.L201:
 2468              	.LBB35:
 407:main.c        **** 			
 2469              		.loc 2 407 0
 2470 005c 0122     		movs	r2, #1
 2471 005e 08A9     		add	r1, sp, #32
 2472 0060 09A8     		add	r0, sp, #36
ARM GAS  C:\Users\FRANKL~1\AppData\Local\Temp\ccCAoJJX.s 			page 68


 2473 0062 FFF7FEFF 		bl	ADC_Measure_uV
 2474              	.LVL312:
 409:main.c        **** 			
 2475              		.loc 2 409 0
 2476 0066 0998     		ldr	r0, [sp, #36]
 2477 0068 4844     		add	r0, r0, r9
 2478 006a FFF7FEFF 		bl	__aeabi_i2f
 2479              	.LVL313:
 2480 006e 0146     		mov	r1, r0
 2481 0070 0598     		ldr	r0, [sp, #20]	@ float
 2482 0072 FFF7FEFF 		bl	__aeabi_fmul
 2483              	.LVL314:
 2484 0076 0446     		mov	r4, r0
 2485              	.LVL315:
 411:main.c        **** 			currentAverage += (currentNow - currentAverage)/(float)i;
 2486              		.loc 2 411 0
 2487 0078 5846     		mov	r0, fp
 2488              	.LVL316:
 2489 007a FFF7FEFF 		bl	__aeabi_ui2f
 2490              	.LVL317:
 2491 007e 0190     		str	r0, [sp, #4]	@ float
 2492 0080 FFF7FEFF 		bl	__aeabi_f2d
 2493              	.LVL318:
 2494 0084 0646     		mov	r6, r0
 2495 0086 0F46     		mov	r7, r1
 2496 0088 0022     		movs	r2, #0
 2497 008a 404B     		ldr	r3, .L207+28
 2498 008c FFF7FEFF 		bl	__aeabi_dsub
 2499              	.LVL319:
 2500 0090 3246     		mov	r2, r6
 2501 0092 3B46     		mov	r3, r7
 2502 0094 FFF7FEFF 		bl	__aeabi_ddiv
 2503              	.LVL320:
 2504 0098 CDE90201 		strd	r0, [sp, #8]
 2505 009c 4146     		mov	r1, r8
 2506 009e 2046     		mov	r0, r4
 2507 00a0 FFF7FEFF 		bl	__aeabi_fsub
 2508              	.LVL321:
 2509 00a4 0490     		str	r0, [sp, #16]	@ float
 2510 00a6 FFF7FEFF 		bl	__aeabi_f2d
 2511              	.LVL322:
 2512 00aa 0646     		mov	r6, r0
 2513 00ac 0F46     		mov	r7, r1
 2514 00ae 0246     		mov	r2, r0
 2515 00b0 0B46     		mov	r3, r1
 2516 00b2 DDE90201 		ldrd	r0, [sp, #8]
 2517 00b6 FFF7FEFF 		bl	__aeabi_dmul
 2518              	.LVL323:
 2519 00ba 0246     		mov	r2, r0
 2520 00bc 0B46     		mov	r3, r1
 2521 00be 3046     		mov	r0, r6
 2522 00c0 3946     		mov	r1, r7
 2523 00c2 FFF7FEFF 		bl	__aeabi_dmul
 2524              	.LVL324:
 2525 00c6 0646     		mov	r6, r0
 2526 00c8 0F46     		mov	r7, r1
 2527 00ca 2846     		mov	r0, r5
ARM GAS  C:\Users\FRANKL~1\AppData\Local\Temp\ccCAoJJX.s 			page 69


 2528 00cc FFF7FEFF 		bl	__aeabi_f2d
 2529              	.LVL325:
 2530 00d0 3246     		mov	r2, r6
 2531 00d2 3B46     		mov	r3, r7
 2532 00d4 FFF7FEFF 		bl	__aeabi_dadd
 2533              	.LVL326:
 2534 00d8 FFF7FEFF 		bl	__aeabi_d2f
 2535              	.LVL327:
 2536 00dc 0546     		mov	r5, r0
 2537              	.LVL328:
 412:main.c        **** 			
 2538              		.loc 2 412 0
 2539 00de 0199     		ldr	r1, [sp, #4]	@ float
 2540 00e0 0498     		ldr	r0, [sp, #16]	@ float
 2541              	.LVL329:
 2542 00e2 FFF7FEFF 		bl	__aeabi_fdiv
 2543              	.LVL330:
 2544 00e6 0146     		mov	r1, r0
 2545 00e8 4046     		mov	r0, r8
 2546 00ea FFF7FEFF 		bl	__aeabi_fadd
 2547              	.LVL331:
 2548 00ee 8046     		mov	r8, r0
 2549              	.LVL332:
 414:main.c        **** 				Compliance_Reached += 1;
 2550              		.loc 2 414 0
 2551 00f0 2046     		mov	r0, r4
 2552              	.LVL333:
 2553 00f2 FFF7FEFF 		bl	__aeabi_f2iz
 2554              	.LVL334:
 2555 00f6 0028     		cmp	r0, #0
 2556 00f8 B8BF     		it	lt
 2557 00fa 4042     		rsblt	r0, r0, #0
 2558 00fc FFF7FEFF 		bl	__aeabi_i2d
 2559              	.LVL335:
 2560 0100 1DA3     		adr	r3, .L207+8
 2561 0102 D3E90023 		ldrd	r2, [r3]
 2562 0106 FFF7FEFF 		bl	__aeabi_dcmpgt
 2563              	.LVL336:
 2564 010a 20B1     		cbz	r0, .L205
 415:main.c        **** 				break;
 2565              		.loc 2 415 0
 2566 010c 1C4A     		ldr	r2, .L207+16
 2567 010e 1378     		ldrb	r3, [r2]	@ zero_extendqisi2
 2568 0110 0133     		adds	r3, r3, #1
 2569 0112 1370     		strb	r3, [r2]
 416:main.c        **** 			} else {
 2570              		.loc 2 416 0
 2571 0114 24E0     		b	.L200
 2572              	.L205:
 418:main.c        **** 			}
 2573              		.loc 2 418 0 discriminator 2
 2574 0116 0022     		movs	r2, #0
 2575 0118 194B     		ldr	r3, .L207+16
 2576 011a 1A70     		strb	r2, [r3]
 406:main.c        **** 			ADC_Measure_uV(&ADC_Voltage, &ADC_Voltage_SD, 1);
 2577              		.loc 2 406 0 discriminator 2
 2578 011c 0BF1010B 		add	fp, fp, #1
ARM GAS  C:\Users\FRANKL~1\AppData\Local\Temp\ccCAoJJX.s 			page 70


 2579              	.LVL337:
 2580 0120 03E0     		b	.L196
 2581              	.LVL338:
 2582              	.L202:
 2583              	.LBE35:
 2584 0122 4FF0010B 		mov	fp, #1
 2585 0126 0025     		movs	r5, #0
 2586 0128 A846     		mov	r8, r5
 2587              	.LVL339:
 2588              	.L196:
 2589              	.LBB36:
 406:main.c        **** 			ADC_Measure_uV(&ADC_Voltage, &ADC_Voltage_SD, 1);
 2590              		.loc 2 406 0 is_stmt 0 discriminator 1
 2591 012a D345     		cmp	fp, r10
 2592 012c 96D9     		bls	.L201
 2593 012e 17E0     		b	.L200
 2594              	.LVL340:
 2595              	.L204:
 2596              	.LBE36:
 422:main.c        **** 			
 2597              		.loc 2 422 0 is_stmt 1
 2598 0130 5246     		mov	r2, r10
 2599 0132 08A9     		add	r1, sp, #32
 2600 0134 09A8     		add	r0, sp, #36
 2601 0136 FFF7FEFF 		bl	ADC_Measure_uV
 2602              	.LVL341:
 424:main.c        **** 		currentStdDev = unitConversion * (ADC_Voltage_SD + TIA_Offset_uV);
 2603              		.loc 2 424 0
 2604 013a 0998     		ldr	r0, [sp, #36]
 2605 013c 4844     		add	r0, r0, r9
 2606 013e FFF7FEFF 		bl	__aeabi_i2f
 2607              	.LVL342:
 2608 0142 0146     		mov	r1, r0
 2609 0144 059C     		ldr	r4, [sp, #20]	@ float
 2610 0146 2046     		mov	r0, r4
 2611 0148 FFF7FEFF 		bl	__aeabi_fmul
 2612              	.LVL343:
 2613 014c 8046     		mov	r8, r0
 2614              	.LVL344:
 425:main.c        **** 	}
 2615              		.loc 2 425 0
 2616 014e 0898     		ldr	r0, [sp, #32]
 2617              	.LVL345:
 2618 0150 4844     		add	r0, r0, r9
 2619 0152 FFF7FEFF 		bl	__aeabi_i2f
 2620              	.LVL346:
 2621 0156 0146     		mov	r1, r0
 2622 0158 2046     		mov	r0, r4
 2623 015a FFF7FEFF 		bl	__aeabi_fmul
 2624              	.LVL347:
 2625 015e 0546     		mov	r5, r0
 2626              	.LVL348:
 2627              	.L200:
 428:main.c        **** 	*currentStdDevIn = currentStdDev;
 2628              		.loc 2 428 0
 2629 0160 069B     		ldr	r3, [sp, #24]
 2630 0162 C3F80080 		str	r8, [r3]	@ float
ARM GAS  C:\Users\FRANKL~1\AppData\Local\Temp\ccCAoJJX.s 			page 71


 429:main.c        **** }
 2631              		.loc 2 429 0
 2632 0166 079B     		ldr	r3, [sp, #28]
 2633 0168 1D60     		str	r5, [r3]	@ float
 430:main.c        **** 
 2634              		.loc 2 430 0
 2635 016a 0BB0     		add	sp, sp, #44
 2636              		.cfi_def_cfa_offset 36
 2637              		@ sp needed
 2638 016c BDE8F08F 		pop	{r4, r5, r6, r7, r8, r9, r10, fp, pc}
 2639              	.LVL349:
 2640              	.L208:
 2641              		.align	3
 2642              	.L207:
 2643 0170 8DEDB5A0 		.word	-1598689907
 2644 0174 F7C6B0BE 		.word	-1095710985
 2645 0178 F168E388 		.word	-1998362383
 2646 017c B5F8E43E 		.word	1055193269
 2647 0180 00000000 		.word	Compliance_Reached
 2648 0184 00000000 		.word	.LANCHOR0
 2649 0188 00000000 		.word	.LANCHOR1
 2650 018c 0000F03F 		.word	1072693248
 2651              		.cfi_endproc
 2652              	.LFE91:
 2653              		.size	Measure_Current_Vss, .-Measure_Current_Vss
 2654              		.section	.text.At_Compliance,"ax",%progbits
 2655              		.align	2
 2656              		.global	At_Compliance
 2657              		.thumb
 2658              		.thumb_func
 2659              		.type	At_Compliance, %function
 2660              	At_Compliance:
 2661              	.LFB92:
 432:main.c        **** 	Compliance_Reached = 0;
 2662              		.loc 2 432 0
 2663              		.cfi_startproc
 2664              		@ args = 0, pretend = 0, frame = 8
 2665              		@ frame_needed = 0, uses_anonymous_args = 0
 2666 0000 00B5     		push	{lr}
 2667              		.cfi_def_cfa_offset 4
 2668              		.cfi_offset 14, -4
 2669 0002 83B0     		sub	sp, sp, #12
 2670              		.cfi_def_cfa_offset 16
 433:main.c        **** 	
 2671              		.loc 2 433 0
 2672 0004 0022     		movs	r2, #0
 2673 0006 144B     		ldr	r3, .L216+8
 2674 0008 1A70     		strb	r2, [r3]
 435:main.c        **** 	float currentSD = 0;
 2675              		.loc 2 435 0
 2676 000a 0023     		movs	r3, #0
 2677 000c 0193     		str	r3, [sp, #4]	@ float
 436:main.c        **** 	
 2678              		.loc 2 436 0
 2679 000e 02A9     		add	r1, sp, #8
 2680 0010 41F8083D 		str	r3, [r1, #-8]!	@ float
 438:main.c        **** 	
ARM GAS  C:\Users\FRANKL~1\AppData\Local\Temp\ccCAoJJX.s 			page 72


 2681              		.loc 2 438 0
 2682 0014 0123     		movs	r3, #1
 2683 0016 0322     		movs	r2, #3
 2684 0018 01A8     		add	r0, sp, #4
 2685 001a FFF7FEFF 		bl	Measure_Current_Vss
 2686              	.LVL350:
 440:main.c        **** 		Compliance_Reached = 1;
 2687              		.loc 2 440 0
 2688 001e 0198     		ldr	r0, [sp, #4]	@ float
 2689 0020 FFF7FEFF 		bl	__aeabi_f2iz
 2690              	.LVL351:
 2691 0024 0028     		cmp	r0, #0
 2692 0026 B8BF     		it	lt
 2693 0028 4042     		rsblt	r0, r0, #0
 2694 002a FFF7FEFF 		bl	__aeabi_i2d
 2695              	.LVL352:
 2696 002e 08A3     		adr	r3, .L216
 2697 0030 D3E90023 		ldrd	r2, [r3]
 2698 0034 FFF7FEFF 		bl	__aeabi_dcmpgt
 2699              	.LVL353:
 2700 0038 18B1     		cbz	r0, .L214
 441:main.c        **** 		return 1;
 2701              		.loc 2 441 0
 2702 003a 0120     		movs	r0, #1
 2703 003c 064B     		ldr	r3, .L216+8
 2704 003e 1870     		strb	r0, [r3]
 442:main.c        **** 	}
 2705              		.loc 2 442 0
 2706 0040 00E0     		b	.L210
 2707              	.L214:
 445:main.c        **** }
 2708              		.loc 2 445 0
 2709 0042 0020     		movs	r0, #0
 2710              	.L210:
 446:main.c        **** 
 2711              		.loc 2 446 0
 2712 0044 03B0     		add	sp, sp, #12
 2713              		.cfi_def_cfa_offset 4
 2714              		@ sp needed
 2715 0046 5DF804FB 		ldr	pc, [sp], #4
 2716              	.L217:
 2717 004a 00BFAFF3 		.align	3
 2717      0080
 2718              	.L216:
 2719 0050 F168E388 		.word	-1998362383
 2720 0054 B5F8E43E 		.word	1055193269
 2721 0058 00000000 		.word	Compliance_Reached
 2722              		.cfi_endproc
 2723              	.LFE92:
 2724              		.size	At_Compliance, .-At_Compliance
 2725              		.section	.text.Handle_Compliance_Breach,"ax",%progbits
 2726              		.align	2
 2727              		.global	Handle_Compliance_Breach
 2728              		.thumb
 2729              		.thumb_func
 2730              		.type	Handle_Compliance_Breach, %function
 2731              	Handle_Compliance_Breach:
ARM GAS  C:\Users\FRANKL~1\AppData\Local\Temp\ccCAoJJX.s 			page 73


 2732              	.LFB93:
 448:main.c        **** 	uint8 istart = VDAC_Vds_Data;
 2733              		.loc 2 448 0
 2734              		.cfi_startproc
 2735              		@ args = 0, pretend = 0, frame = 0
 2736              		@ frame_needed = 0, uses_anonymous_args = 0
 2737 0000 70B5     		push	{r4, r5, r6, lr}
 2738              		.cfi_def_cfa_offset 16
 2739              		.cfi_offset 4, -16
 2740              		.cfi_offset 5, -12
 2741              		.cfi_offset 6, -8
 2742              		.cfi_offset 14, -4
 449:main.c        **** 	uint8 istop = VDAC_Ref_Data;
 2743              		.loc 2 449 0
 2744 0002 174B     		ldr	r3, .L229
 2745 0004 1C78     		ldrb	r4, [r3]	@ zero_extendqisi2
 2746 0006 E4B2     		uxtb	r4, r4
 2747              	.LVL354:
 450:main.c        **** 	int8 increment = 1;
 2748              		.loc 2 450 0
 2749 0008 0233     		adds	r3, r3, #2
 2750 000a 1D78     		ldrb	r5, [r3]	@ zero_extendqisi2
 2751 000c EDB2     		uxtb	r5, r5
 2752              	.LVL355:
 452:main.c        **** 	
 2753              		.loc 2 452 0
 2754 000e AC42     		cmp	r4, r5
 2755 0010 01D3     		bcc	.L226
 451:main.c        **** 	if (istart < istop) increment = -1;
 2756              		.loc 2 451 0
 2757 0012 0126     		movs	r6, #1
 2758 0014 0AE0     		b	.L220
 2759              	.L226:
 452:main.c        **** 	
 2760              		.loc 2 452 0
 2761 0016 4FF0FF36 		mov	r6, #-1
 2762              	.LVL356:
 2763              	.LBB37:
 454:main.c        **** 		VDAC_Vds_SetValue(i);
 2764              		.loc 2 454 0
 2765 001a 07E0     		b	.L220
 2766              	.LVL357:
 2767              	.L222:
 455:main.c        **** 		
 2768              		.loc 2 455 0
 2769 001c 2046     		mov	r0, r4
 2770 001e FFF7FEFF 		bl	VDAC_Vds_SetValue
 2771              	.LVL358:
 457:main.c        **** 	}
 2772              		.loc 2 457 0
 2773 0022 FFF7FEFF 		bl	At_Compliance
 2774              	.LVL359:
 2775 0026 D0B1     		cbz	r0, .L218
 454:main.c        **** 		VDAC_Vds_SetValue(i);
 2776              		.loc 2 454 0 discriminator 2
 2777 0028 3444     		add	r4, r4, r6
 2778              	.LVL360:
ARM GAS  C:\Users\FRANKL~1\AppData\Local\Temp\ccCAoJJX.s 			page 74


 2779 002a E4B2     		uxtb	r4, r4
 2780              	.LVL361:
 2781              	.L220:
 454:main.c        **** 		VDAC_Vds_SetValue(i);
 2782              		.loc 2 454 0 is_stmt 0 discriminator 1
 2783 002c AC42     		cmp	r4, r5
 2784 002e F5D1     		bne	.L222
 2785              	.LBE37:
 460:main.c        **** 	istop = VDAC_Ref_Data;
 2786              		.loc 2 460 0 is_stmt 1
 2787 0030 0C4B     		ldr	r3, .L229+4
 2788 0032 1C78     		ldrb	r4, [r3]	@ zero_extendqisi2
 2789              	.LVL362:
 2790 0034 E4B2     		uxtb	r4, r4
 2791              	.LVL363:
 461:main.c        **** 	increment = 1;
 2792              		.loc 2 461 0
 2793 0036 013B     		subs	r3, r3, #1
 2794 0038 1D78     		ldrb	r5, [r3]	@ zero_extendqisi2
 2795              	.LVL364:
 2796 003a EDB2     		uxtb	r5, r5
 2797              	.LVL365:
 463:main.c        **** 	
 2798              		.loc 2 463 0
 2799 003c AC42     		cmp	r4, r5
 2800 003e 01D3     		bcc	.L227
 462:main.c        **** 	if (istart < istop) increment = -1;
 2801              		.loc 2 462 0
 2802 0040 0126     		movs	r6, #1
 2803 0042 0AE0     		b	.L224
 2804              	.L227:
 463:main.c        **** 	
 2805              		.loc 2 463 0
 2806 0044 4FF0FF36 		mov	r6, #-1
 2807              	.LVL366:
 2808              	.LBB38:
 465:main.c        **** 		VDAC_Vgs_SetValue(i);
 2809              		.loc 2 465 0
 2810 0048 07E0     		b	.L224
 2811              	.LVL367:
 2812              	.L225:
 466:main.c        **** 		
 2813              		.loc 2 466 0
 2814 004a 2046     		mov	r0, r4
 2815 004c FFF7FEFF 		bl	VDAC_Vgs_SetValue
 2816              	.LVL368:
 468:main.c        **** 	}
 2817              		.loc 2 468 0
 2818 0050 FFF7FEFF 		bl	At_Compliance
 2819              	.LVL369:
 2820 0054 18B1     		cbz	r0, .L218
 465:main.c        **** 		VDAC_Vgs_SetValue(i);
 2821              		.loc 2 465 0 discriminator 2
 2822 0056 3444     		add	r4, r4, r6
 2823              	.LVL370:
 2824 0058 E4B2     		uxtb	r4, r4
 2825              	.LVL371:
ARM GAS  C:\Users\FRANKL~1\AppData\Local\Temp\ccCAoJJX.s 			page 75


 2826              	.L224:
 465:main.c        **** 		VDAC_Vgs_SetValue(i);
 2827              		.loc 2 465 0 is_stmt 0 discriminator 1
 2828 005a AC42     		cmp	r4, r5
 2829 005c F5D1     		bne	.L225
 2830              	.LVL372:
 2831              	.L218:
 2832 005e 70BD     		pop	{r4, r5, r6, pc}
 2833              	.LVL373:
 2834              	.L230:
 2835              		.align	2
 2836              	.L229:
 2837 0060 805B0040 		.word	1073765248
 2838 0064 835B0040 		.word	1073765251
 2839              	.LBE38:
 2840              		.cfi_endproc
 2841              	.LFE93:
 2842              		.size	Handle_Compliance_Breach, .-Handle_Compliance_Breach
 2843              		.section	.text.Get_Ref,"ax",%progbits
 2844              		.align	2
 2845              		.global	Get_Ref
 2846              		.thumb
 2847              		.thumb_func
 2848              		.type	Get_Ref, %function
 2849              	Get_Ref:
 2850              	.LFB94:
 475:main.c        **** 	float result = 4.080/255.0*VDAC_Ref_Data;
 2851              		.loc 2 475 0 is_stmt 1
 2852              		.cfi_startproc
 2853              		@ args = 0, pretend = 0, frame = 0
 2854              		@ frame_needed = 0, uses_anonymous_args = 0
 2855 0000 08B5     		push	{r3, lr}
 2856              		.cfi_def_cfa_offset 8
 2857              		.cfi_offset 3, -8
 2858              		.cfi_offset 14, -4
 476:main.c        **** 	if (VDAC_Ref_CR0 & (VDAC_Ref_RANGE_1V & VDAC_Ref_RANGE_MASK)) {
 2859              		.loc 2 476 0
 2860 0002 094B     		ldr	r3, .L233+8
 2861 0004 1878     		ldrb	r0, [r3]	@ zero_extendqisi2
 2862 0006 FFF7FEFF 		bl	__aeabi_i2d
 2863              	.LVL374:
 2864 000a 05A3     		adr	r3, .L233
 2865 000c D3E90023 		ldrd	r2, [r3]
 2866 0010 FFF7FEFF 		bl	__aeabi_dmul
 2867              	.LVL375:
 2868 0014 FFF7FEFF 		bl	__aeabi_d2f
 2869              	.LVL376:
 477:main.c        **** 		result = 1.020/255.0*VDAC_Ref_Data;
 2870              		.loc 2 477 0
 2871 0018 044B     		ldr	r3, .L233+12
 2872 001a 1B78     		ldrb	r3, [r3]	@ zero_extendqisi2
 481:main.c        **** 
 2873              		.loc 2 481 0
 2874 001c 08BD     		pop	{r3, pc}
 2875              	.L234:
 2876 001e 00BF     		.align	3
 2877              	.L233:
ARM GAS  C:\Users\FRANKL~1\AppData\Local\Temp\ccCAoJJX.s 			page 76


 2878 0020 FCA9F1D2 		.word	-755914244
 2879 0024 4D62903F 		.word	1066426957
 2880 0028 825B0040 		.word	1073765250
 2881 002c 28580040 		.word	1073764392
 2882              		.cfi_endproc
 2883              	.LFE94:
 2884              		.size	Get_Ref, .-Get_Ref
 2885              		.section	.text.Get_Vgs,"ax",%progbits
 2886              		.align	2
 2887              		.global	Get_Vgs
 2888              		.thumb
 2889              		.thumb_func
 2890              		.type	Get_Vgs, %function
 2891              	Get_Vgs:
 2892              	.LFB95:
 484:main.c        **** 	float result = 4.080/255.0*VDAC_Vgs_Data - Get_Ref();
 2893              		.loc 2 484 0
 2894              		.cfi_startproc
 2895              		@ args = 0, pretend = 0, frame = 0
 2896              		@ frame_needed = 0, uses_anonymous_args = 0
 2897 0000 38B5     		push	{r3, r4, r5, lr}
 2898              		.cfi_def_cfa_offset 16
 2899              		.cfi_offset 3, -16
 2900              		.cfi_offset 4, -12
 2901              		.cfi_offset 5, -8
 2902              		.cfi_offset 14, -4
 485:main.c        **** 	if (VDAC_Vgs_CR0 & (VDAC_Vgs_RANGE_1V & VDAC_Vgs_RANGE_MASK)) {
 2903              		.loc 2 485 0
 2904 0002 0F4B     		ldr	r3, .L237+8
 2905 0004 1878     		ldrb	r0, [r3]	@ zero_extendqisi2
 2906 0006 FFF7FEFF 		bl	__aeabi_i2d
 2907              	.LVL377:
 2908 000a 0BA3     		adr	r3, .L237
 2909 000c D3E90023 		ldrd	r2, [r3]
 2910 0010 FFF7FEFF 		bl	__aeabi_dmul
 2911              	.LVL378:
 2912 0014 0446     		mov	r4, r0
 2913 0016 0D46     		mov	r5, r1
 2914 0018 FFF7FEFF 		bl	Get_Ref
 2915              	.LVL379:
 2916 001c FFF7FEFF 		bl	__aeabi_f2d
 2917              	.LVL380:
 2918 0020 0246     		mov	r2, r0
 2919 0022 0B46     		mov	r3, r1
 2920 0024 2046     		mov	r0, r4
 2921 0026 2946     		mov	r1, r5
 2922 0028 FFF7FEFF 		bl	__aeabi_dsub
 2923              	.LVL381:
 2924 002c FFF7FEFF 		bl	__aeabi_d2f
 2925              	.LVL382:
 486:main.c        **** 		result = 1.020/255.0*VDAC_Vgs_Data - Get_Ref();
 2926              		.loc 2 486 0
 2927 0030 044B     		ldr	r3, .L237+12
 2928 0032 1B78     		ldrb	r3, [r3]	@ zero_extendqisi2
 490:main.c        **** 
 2929              		.loc 2 490 0
 2930 0034 38BD     		pop	{r3, r4, r5, pc}
ARM GAS  C:\Users\FRANKL~1\AppData\Local\Temp\ccCAoJJX.s 			page 77


 2931              	.L238:
 2932 0036 00BF     		.align	3
 2933              	.L237:
 2934 0038 FCA9F1D2 		.word	-755914244
 2935 003c 4D62903F 		.word	1066426957
 2936 0040 835B0040 		.word	1073765251
 2937 0044 2C580040 		.word	1073764396
 2938              		.cfi_endproc
 2939              	.LFE95:
 2940              		.size	Get_Vgs, .-Get_Vgs
 2941              		.section	.text.Get_Vds,"ax",%progbits
 2942              		.align	2
 2943              		.global	Get_Vds
 2944              		.thumb
 2945              		.thumb_func
 2946              		.type	Get_Vds, %function
 2947              	Get_Vds:
 2948              	.LFB96:
 493:main.c        **** 	float result = 4.080/255.0*VDAC_Vds_Data - Get_Ref();
 2949              		.loc 2 493 0
 2950              		.cfi_startproc
 2951              		@ args = 0, pretend = 0, frame = 0
 2952              		@ frame_needed = 0, uses_anonymous_args = 0
 2953 0000 38B5     		push	{r3, r4, r5, lr}
 2954              		.cfi_def_cfa_offset 16
 2955              		.cfi_offset 3, -16
 2956              		.cfi_offset 4, -12
 2957              		.cfi_offset 5, -8
 2958              		.cfi_offset 14, -4
 494:main.c        **** 	if (VDAC_Vds_CR0 & (VDAC_Vds_RANGE_1V & VDAC_Vds_RANGE_MASK)) {
 2959              		.loc 2 494 0
 2960 0002 0F4B     		ldr	r3, .L241+8
 2961 0004 1878     		ldrb	r0, [r3]	@ zero_extendqisi2
 2962 0006 FFF7FEFF 		bl	__aeabi_i2d
 2963              	.LVL383:
 2964 000a 0BA3     		adr	r3, .L241
 2965 000c D3E90023 		ldrd	r2, [r3]
 2966 0010 FFF7FEFF 		bl	__aeabi_dmul
 2967              	.LVL384:
 2968 0014 0446     		mov	r4, r0
 2969 0016 0D46     		mov	r5, r1
 2970 0018 FFF7FEFF 		bl	Get_Ref
 2971              	.LVL385:
 2972 001c FFF7FEFF 		bl	__aeabi_f2d
 2973              	.LVL386:
 2974 0020 0246     		mov	r2, r0
 2975 0022 0B46     		mov	r3, r1
 2976 0024 2046     		mov	r0, r4
 2977 0026 2946     		mov	r1, r5
 2978 0028 FFF7FEFF 		bl	__aeabi_dsub
 2979              	.LVL387:
 2980 002c FFF7FEFF 		bl	__aeabi_d2f
 2981              	.LVL388:
 495:main.c        **** 		result = 1.020/255.0*VDAC_Vds_Data - Get_Ref();
 2982              		.loc 2 495 0
 2983 0030 044B     		ldr	r3, .L241+12
 2984 0032 1B78     		ldrb	r3, [r3]	@ zero_extendqisi2
ARM GAS  C:\Users\FRANKL~1\AppData\Local\Temp\ccCAoJJX.s 			page 78


 499:main.c        **** 
 2985              		.loc 2 499 0
 2986 0034 38BD     		pop	{r3, r4, r5, pc}
 2987              	.L242:
 2988 0036 00BF     		.align	3
 2989              	.L241:
 2990 0038 FCA9F1D2 		.word	-755914244
 2991 003c 4D62903F 		.word	1066426957
 2992 0040 805B0040 		.word	1073765248
 2993 0044 20580040 		.word	1073764384
 2994              		.cfi_endproc
 2995              	.LFE96:
 2996              		.size	Get_Vds, .-Get_Vds
 2997              		.section	.text.Set_Vds_Raw,"ax",%progbits
 2998              		.align	2
 2999              		.global	Set_Vds_Raw
 3000              		.thumb
 3001              		.thumb_func
 3002              		.type	Set_Vds_Raw, %function
 3003              	Set_Vds_Raw:
 3004              	.LFB97:
 504:main.c        **** 	Vds_Index_Goal_Relative = (int16)value - (int16)VDAC_Ref_Data;
 3005              		.loc 2 504 0
 3006              		.cfi_startproc
 3007              		@ args = 0, pretend = 0, frame = 0
 3008              		@ frame_needed = 0, uses_anonymous_args = 0
 3009              	.LVL389:
 3010 0000 2DE9F041 		push	{r4, r5, r6, r7, r8, lr}
 3011              		.cfi_def_cfa_offset 24
 3012              		.cfi_offset 4, -24
 3013              		.cfi_offset 5, -20
 3014              		.cfi_offset 6, -16
 3015              		.cfi_offset 7, -12
 3016              		.cfi_offset 8, -8
 3017              		.cfi_offset 14, -4
 3018 0004 8046     		mov	r8, r0
 505:main.c        **** 	
 3019              		.loc 2 505 0
 3020 0006 194B     		ldr	r3, .L254
 3021 0008 1B78     		ldrb	r3, [r3]	@ zero_extendqisi2
 3022 000a C31A     		subs	r3, r0, r3
 3023 000c 184A     		ldr	r2, .L254+4
 3024 000e 1380     		strh	r3, [r2]	@ movhi
 507:main.c        **** 	int8 increment = 1;
 3025              		.loc 2 507 0
 3026 0010 184B     		ldr	r3, .L254+8
 3027 0012 1D78     		ldrb	r5, [r3]	@ zero_extendqisi2
 3028 0014 EDB2     		uxtb	r5, r5
 3029              	.LVL390:
 509:main.c        **** 	
 3030              		.loc 2 509 0
 3031 0016 A842     		cmp	r0, r5
 3032 0018 01D3     		bcc	.L251
 508:main.c        **** 	if (istart > value) increment = -1;
 3033              		.loc 2 508 0
 3034 001a 0126     		movs	r6, #1
 3035 001c 01E0     		b	.L244
ARM GAS  C:\Users\FRANKL~1\AppData\Local\Temp\ccCAoJJX.s 			page 79


 3036              	.L251:
 509:main.c        **** 	
 3037              		.loc 2 509 0
 3038 001e 4FF0FF36 		mov	r6, #-1
 3039              	.L244:
 3040              	.LVL391:
 3041              	.LBB39:
 512:main.c        **** 		if (At_Compliance()) {
 3042              		.loc 2 512 0
 3043 0022 2F46     		mov	r7, r5
 3044 0024 1BE0     		b	.L245
 3045              	.LVL392:
 3046              	.L250:
 513:main.c        **** 			for (uint8 j = i; j != istart; j -= increment) {
 3047              		.loc 2 513 0
 3048 0026 FFF7FEFF 		bl	At_Compliance
 3049              	.LVL393:
 3050 002a 48B9     		cbnz	r0, .L252
 3051 002c 12E0     		b	.L247
 3052              	.LVL394:
 3053              	.L249:
 3054              	.LBB40:
 515:main.c        **** 				
 3055              		.loc 2 515 0
 3056 002e 2046     		mov	r0, r4
 3057 0030 FFF7FEFF 		bl	VDAC_Vds_SetValue
 3058              	.LVL395:
 517:main.c        **** 			}
 3059              		.loc 2 517 0
 3060 0034 FFF7FEFF 		bl	At_Compliance
 3061              	.LVL396:
 3062 0038 B0B1     		cbz	r0, .L243
 514:main.c        **** 				VDAC_Vds_SetValue(j);
 3063              		.loc 2 514 0 discriminator 2
 3064 003a A41B     		subs	r4, r4, r6
 3065              	.LVL397:
 3066 003c E4B2     		uxtb	r4, r4
 3067              	.LVL398:
 3068 003e 00E0     		b	.L246
 3069              	.LVL399:
 3070              	.L252:
 3071              	.LBE40:
 3072 0040 3C46     		mov	r4, r7
 3073              	.L246:
 3074              	.LVL400:
 3075              	.LBB41:
 514:main.c        **** 				VDAC_Vds_SetValue(j);
 3076              		.loc 2 514 0 is_stmt 0 discriminator 1
 3077 0042 AC42     		cmp	r4, r5
 3078 0044 F3D1     		bne	.L249
 3079              	.LBE41:
 519:main.c        **** 				Handle_Compliance_Breach();
 3080              		.loc 2 519 0 is_stmt 1
 3081 0046 FFF7FEFF 		bl	At_Compliance
 3082              	.LVL401:
 3083 004a 18B1     		cbz	r0, .L247
 520:main.c        **** 				return;
ARM GAS  C:\Users\FRANKL~1\AppData\Local\Temp\ccCAoJJX.s 			page 80


 3084              		.loc 2 520 0
 3085 004c FFF7FEFF 		bl	Handle_Compliance_Breach
 3086              	.LVL402:
 521:main.c        **** 			}
 3087              		.loc 2 521 0
 3088 0050 BDE8F081 		pop	{r4, r5, r6, r7, r8, pc}
 3089              	.LVL403:
 3090              	.L247:
 525:main.c        **** 	}
 3091              		.loc 2 525 0 discriminator 2
 3092 0054 3846     		mov	r0, r7
 3093 0056 FFF7FEFF 		bl	VDAC_Vds_SetValue
 3094              	.LVL404:
 512:main.c        **** 		if (At_Compliance()) {
 3095              		.loc 2 512 0 discriminator 2
 3096 005a 3744     		add	r7, r7, r6
 3097              	.LVL405:
 3098 005c FFB2     		uxtb	r7, r7
 3099              	.LVL406:
 3100              	.L245:
 512:main.c        **** 		if (At_Compliance()) {
 3101              		.loc 2 512 0 is_stmt 0 discriminator 1
 3102 005e 4745     		cmp	r7, r8
 3103 0060 E1D1     		bne	.L250
 3104              	.LBE39:
 529:main.c        **** }
 3105              		.loc 2 529 0 is_stmt 1
 3106 0062 4046     		mov	r0, r8
 3107 0064 FFF7FEFF 		bl	VDAC_Vds_SetValue
 3108              	.LVL407:
 3109              	.L243:
 3110 0068 BDE8F081 		pop	{r4, r5, r6, r7, r8, pc}
 3111              	.LVL408:
 3112              	.L255:
 3113              		.align	2
 3114              	.L254:
 3115 006c 825B0040 		.word	1073765250
 3116 0070 00000000 		.word	Vds_Index_Goal_Relative
 3117 0074 805B0040 		.word	1073765248
 3118              		.cfi_endproc
 3119              	.LFE97:
 3120              		.size	Set_Vds_Raw, .-Set_Vds_Raw
 3121              		.section	.text.Set_Vgs_Raw,"ax",%progbits
 3122              		.align	2
 3123              		.global	Set_Vgs_Raw
 3124              		.thumb
 3125              		.thumb_func
 3126              		.type	Set_Vgs_Raw, %function
 3127              	Set_Vgs_Raw:
 3128              	.LFB98:
 533:main.c        **** 	Vgs_Index_Goal_Relative = (int16)value - (int16)VDAC_Ref_Data;
 3129              		.loc 2 533 0
 3130              		.cfi_startproc
 3131              		@ args = 0, pretend = 0, frame = 0
 3132              		@ frame_needed = 0, uses_anonymous_args = 0
 3133              	.LVL409:
 3134 0000 2DE9F041 		push	{r4, r5, r6, r7, r8, lr}
ARM GAS  C:\Users\FRANKL~1\AppData\Local\Temp\ccCAoJJX.s 			page 81


 3135              		.cfi_def_cfa_offset 24
 3136              		.cfi_offset 4, -24
 3137              		.cfi_offset 5, -20
 3138              		.cfi_offset 6, -16
 3139              		.cfi_offset 7, -12
 3140              		.cfi_offset 8, -8
 3141              		.cfi_offset 14, -4
 3142 0004 8046     		mov	r8, r0
 534:main.c        **** 	
 3143              		.loc 2 534 0
 3144 0006 194B     		ldr	r3, .L267
 3145 0008 1B78     		ldrb	r3, [r3]	@ zero_extendqisi2
 3146 000a C31A     		subs	r3, r0, r3
 3147 000c 184A     		ldr	r2, .L267+4
 3148 000e 1380     		strh	r3, [r2]	@ movhi
 3149              	.LVL410:
 537:main.c        **** 	if (value < istart) increment = -1;
 3150              		.loc 2 537 0
 3151 0010 184B     		ldr	r3, .L267+8
 3152 0012 1D78     		ldrb	r5, [r3]	@ zero_extendqisi2
 3153 0014 EDB2     		uxtb	r5, r5
 3154              	.LVL411:
 538:main.c        **** 	
 3155              		.loc 2 538 0
 3156 0016 A842     		cmp	r0, r5
 3157 0018 01D3     		bcc	.L264
 536:main.c        **** 	uint8 istart = VDAC_Vgs_Data;
 3158              		.loc 2 536 0
 3159 001a 0126     		movs	r6, #1
 3160 001c 01E0     		b	.L257
 3161              	.L264:
 538:main.c        **** 	
 3162              		.loc 2 538 0
 3163 001e 4FF0FF36 		mov	r6, #-1
 3164              	.L257:
 3165              	.LVL412:
 3166              	.LBB42:
 541:main.c        **** 		if (At_Compliance()) {
 3167              		.loc 2 541 0
 3168 0022 2F46     		mov	r7, r5
 3169 0024 1BE0     		b	.L258
 3170              	.LVL413:
 3171              	.L263:
 542:main.c        **** 			for (uint8 j = i; j != istart; j -= increment) {
 3172              		.loc 2 542 0
 3173 0026 FFF7FEFF 		bl	At_Compliance
 3174              	.LVL414:
 3175 002a 48B9     		cbnz	r0, .L265
 3176 002c 12E0     		b	.L260
 3177              	.LVL415:
 3178              	.L262:
 3179              	.LBB43:
 544:main.c        **** 				
 3180              		.loc 2 544 0
 3181 002e 2046     		mov	r0, r4
 3182 0030 FFF7FEFF 		bl	VDAC_Vgs_SetValue
 3183              	.LVL416:
ARM GAS  C:\Users\FRANKL~1\AppData\Local\Temp\ccCAoJJX.s 			page 82


 546:main.c        **** 			}
 3184              		.loc 2 546 0
 3185 0034 FFF7FEFF 		bl	At_Compliance
 3186              	.LVL417:
 3187 0038 B0B1     		cbz	r0, .L256
 543:main.c        **** 				VDAC_Vgs_SetValue(j);
 3188              		.loc 2 543 0 discriminator 2
 3189 003a A41B     		subs	r4, r4, r6
 3190              	.LVL418:
 3191 003c E4B2     		uxtb	r4, r4
 3192              	.LVL419:
 3193 003e 00E0     		b	.L259
 3194              	.LVL420:
 3195              	.L265:
 3196              	.LBE43:
 3197 0040 3C46     		mov	r4, r7
 3198              	.L259:
 3199              	.LVL421:
 3200              	.LBB44:
 543:main.c        **** 				VDAC_Vgs_SetValue(j);
 3201              		.loc 2 543 0 is_stmt 0 discriminator 1
 3202 0042 AC42     		cmp	r4, r5
 3203 0044 F3D1     		bne	.L262
 3204              	.LBE44:
 548:main.c        **** 				Handle_Compliance_Breach();
 3205              		.loc 2 548 0 is_stmt 1
 3206 0046 FFF7FEFF 		bl	At_Compliance
 3207              	.LVL422:
 3208 004a 18B1     		cbz	r0, .L260
 549:main.c        **** 				return;
 3209              		.loc 2 549 0
 3210 004c FFF7FEFF 		bl	Handle_Compliance_Breach
 3211              	.LVL423:
 550:main.c        **** 			}
 3212              		.loc 2 550 0
 3213 0050 BDE8F081 		pop	{r4, r5, r6, r7, r8, pc}
 3214              	.LVL424:
 3215              	.L260:
 554:main.c        **** 	}
 3216              		.loc 2 554 0 discriminator 2
 3217 0054 3846     		mov	r0, r7
 3218 0056 FFF7FEFF 		bl	VDAC_Vgs_SetValue
 3219              	.LVL425:
 541:main.c        **** 		if (At_Compliance()) {
 3220              		.loc 2 541 0 discriminator 2
 3221 005a 3744     		add	r7, r7, r6
 3222              	.LVL426:
 3223 005c FFB2     		uxtb	r7, r7
 3224              	.LVL427:
 3225              	.L258:
 541:main.c        **** 		if (At_Compliance()) {
 3226              		.loc 2 541 0 is_stmt 0 discriminator 1
 3227 005e 4745     		cmp	r7, r8
 3228 0060 E1D1     		bne	.L263
 3229              	.LBE42:
 558:main.c        **** }
 3230              		.loc 2 558 0 is_stmt 1
ARM GAS  C:\Users\FRANKL~1\AppData\Local\Temp\ccCAoJJX.s 			page 83


 3231 0062 4046     		mov	r0, r8
 3232 0064 FFF7FEFF 		bl	VDAC_Vgs_SetValue
 3233              	.LVL428:
 3234              	.L256:
 3235 0068 BDE8F081 		pop	{r4, r5, r6, r7, r8, pc}
 3236              	.LVL429:
 3237              	.L268:
 3238              		.align	2
 3239              	.L267:
 3240 006c 825B0040 		.word	1073765250
 3241 0070 00000000 		.word	Vgs_Index_Goal_Relative
 3242 0074 835B0040 		.word	1073765251
 3243              		.cfi_endproc
 3244              	.LFE98:
 3245              		.size	Set_Vgs_Raw, .-Set_Vgs_Raw
 3246              		.section	.text.Set_Ref_Raw,"ax",%progbits
 3247              		.align	2
 3248              		.global	Set_Ref_Raw
 3249              		.thumb
 3250              		.thumb_func
 3251              		.type	Set_Ref_Raw, %function
 3252              	Set_Ref_Raw:
 3253              	.LFB99:
 562:main.c        **** 	if (value < 6) value = 6;
 3254              		.loc 2 562 0
 3255              		.cfi_startproc
 3256              		@ args = 0, pretend = 0, frame = 0
 3257              		@ frame_needed = 0, uses_anonymous_args = 0
 3258              	.LVL430:
 3259 0000 2DE9F041 		push	{r4, r5, r6, r7, r8, lr}
 3260              		.cfi_def_cfa_offset 24
 3261              		.cfi_offset 4, -24
 3262              		.cfi_offset 5, -20
 3263              		.cfi_offset 6, -16
 3264              		.cfi_offset 7, -12
 3265              		.cfi_offset 8, -8
 3266              		.cfi_offset 14, -4
 3267 0004 0746     		mov	r7, r0
 563:main.c        **** 	
 3268              		.loc 2 563 0
 3269 0006 0528     		cmp	r0, #5
 3270 0008 00D8     		bhi	.L270
 3271 000a 0627     		movs	r7, #6
 3272              	.L270:
 3273              	.LVL431:
 566:main.c        **** 	
 3274              		.loc 2 566 0
 3275 000c 294B     		ldr	r3, .L294
 3276 000e 1B78     		ldrb	r3, [r3]	@ zero_extendqisi2
 3277 0010 DBB2     		uxtb	r3, r3
 3278 0012 9F42     		cmp	r7, r3
 3279 0014 02D3     		bcc	.L284
 565:main.c        **** 	if (value < VDAC_Ref_Data) increment = -1;
 3280              		.loc 2 565 0
 3281 0016 4FF00108 		mov	r8, #1
 3282 001a 01E0     		b	.L271
 3283              	.L284:
ARM GAS  C:\Users\FRANKL~1\AppData\Local\Temp\ccCAoJJX.s 			page 84


 566:main.c        **** 	
 3284              		.loc 2 566 0
 3285 001c 4FF0FF38 		mov	r8, #-1
 3286              	.L271:
 3287              	.LVL432:
 3288              	.LBB45:
 569:main.c        **** 		
 3289              		.loc 2 569 0
 3290 0020 244B     		ldr	r3, .L294
 3291 0022 1E78     		ldrb	r6, [r3]	@ zero_extendqisi2
 3292 0024 F6B2     		uxtb	r6, r6
 3293              	.LVL433:
 3294 0026 23E0     		b	.L272
 3295              	.L278:
 3296              	.LBB46:
 571:main.c        **** 		
 3297              		.loc 2 571 0
 3298 0028 FFF7FEFF 		bl	At_Compliance
 3299              	.LVL434:
 3300 002c 0028     		cmp	r0, #0
 3301 002e 3FD1     		bne	.L269
 573:main.c        **** 		int16 new_Vds = (int16)i + Vds_Index_Goal_Relative;
 3302              		.loc 2 573 0
 3303 0030 B4B2     		uxth	r4, r6
 3304 0032 214B     		ldr	r3, .L294+4
 3305 0034 1D88     		ldrh	r5, [r3]
 3306 0036 2544     		add	r5, r5, r4
 3307 0038 2DB2     		sxth	r5, r5
 3308              	.LVL435:
 574:main.c        **** 		
 3309              		.loc 2 574 0
 3310 003a 204B     		ldr	r3, .L294+8
 3311 003c 1B88     		ldrh	r3, [r3]
 3312 003e 1C44     		add	r4, r4, r3
 3313 0040 24B2     		sxth	r4, r4
 3314              	.LVL436:
 576:main.c        **** 		if (new_Vds > 255) new_Vds = 255;
 3315              		.loc 2 576 0
 3316 0042 FF2D     		cmp	r5, #255
 3317 0044 00DD     		ble	.L274
 3318 0046 FF25     		movs	r5, #255
 3319              	.LVL437:
 3320              	.L274:
 577:main.c        **** 		
 3321              		.loc 2 577 0
 3322 0048 FF2C     		cmp	r4, #255
 3323 004a 00DD     		ble	.L275
 3324 004c FF24     		movs	r4, #255
 3325              	.LVL438:
 3326              	.L275:
 579:main.c        **** 		if (new_Vds < 0) new_Vds = 0;
 3327              		.loc 2 579 0
 3328 004e 002D     		cmp	r5, #0
 3329 0050 00DA     		bge	.L276
 3330 0052 0025     		movs	r5, #0
 3331              	.LVL439:
 3332              	.L276:
ARM GAS  C:\Users\FRANKL~1\AppData\Local\Temp\ccCAoJJX.s 			page 85


 580:main.c        **** 		
 3333              		.loc 2 580 0
 3334 0054 002C     		cmp	r4, #0
 3335 0056 00DA     		bge	.L277
 3336 0058 0024     		movs	r4, #0
 3337              	.LVL440:
 3338              	.L277:
 582:main.c        **** 		VDAC_Vgs_SetValue(new_Vgs);
 3339              		.loc 2 582 0 discriminator 2
 3340 005a 3046     		mov	r0, r6
 3341 005c FFF7FEFF 		bl	VDAC_Ref_SetValue
 3342              	.LVL441:
 583:main.c        **** 		VDAC_Vds_SetValue(new_Vds);
 3343              		.loc 2 583 0 discriminator 2
 3344 0060 E8B2     		uxtb	r0, r5
 3345 0062 FFF7FEFF 		bl	VDAC_Vgs_SetValue
 3346              	.LVL442:
 584:main.c        **** 	}
 3347              		.loc 2 584 0 discriminator 2
 3348 0066 E0B2     		uxtb	r0, r4
 3349 0068 FFF7FEFF 		bl	VDAC_Vds_SetValue
 3350              	.LVL443:
 3351              	.LBE46:
 569:main.c        **** 		
 3352              		.loc 2 569 0 discriminator 2
 3353 006c 4644     		add	r6, r6, r8
 3354              	.LVL444:
 3355 006e F6B2     		uxtb	r6, r6
 3356              	.LVL445:
 3357              	.L272:
 569:main.c        **** 		
 3358              		.loc 2 569 0 is_stmt 0 discriminator 1
 3359 0070 B742     		cmp	r7, r6
 3360 0072 D9D1     		bne	.L278
 3361              	.LBE45:
 588:main.c        **** 	int16 new_Vds = (int16)value + Vds_Index_Goal_Relative;
 3362              		.loc 2 588 0 is_stmt 1
 3363 0074 BCB2     		uxth	r4, r7
 3364 0076 104B     		ldr	r3, .L294+4
 3365 0078 1D88     		ldrh	r5, [r3]
 3366 007a 2544     		add	r5, r5, r4
 3367 007c 2DB2     		sxth	r5, r5
 3368              	.LVL446:
 589:main.c        **** 	
 3369              		.loc 2 589 0
 3370 007e 0F4B     		ldr	r3, .L294+8
 3371 0080 1B88     		ldrh	r3, [r3]
 3372 0082 1C44     		add	r4, r4, r3
 3373 0084 24B2     		sxth	r4, r4
 3374              	.LVL447:
 591:main.c        **** 	if (new_Vds > 255) new_Vds = 255;
 3375              		.loc 2 591 0
 3376 0086 FF2D     		cmp	r5, #255
 3377 0088 00DD     		ble	.L279
 3378 008a FF25     		movs	r5, #255
 3379              	.LVL448:
 3380              	.L279:
ARM GAS  C:\Users\FRANKL~1\AppData\Local\Temp\ccCAoJJX.s 			page 86


 592:main.c        **** 	
 3381              		.loc 2 592 0
 3382 008c FF2C     		cmp	r4, #255
 3383 008e 00DD     		ble	.L280
 3384 0090 FF24     		movs	r4, #255
 3385              	.LVL449:
 3386              	.L280:
 594:main.c        **** 	if (new_Vds < 0) new_Vds = 0;
 3387              		.loc 2 594 0
 3388 0092 002D     		cmp	r5, #0
 3389 0094 00DA     		bge	.L281
 3390 0096 0025     		movs	r5, #0
 3391              	.LVL450:
 3392              	.L281:
 595:main.c        **** 	
 3393              		.loc 2 595 0
 3394 0098 002C     		cmp	r4, #0
 3395 009a 00DA     		bge	.L282
 3396 009c 0024     		movs	r4, #0
 3397              	.LVL451:
 3398              	.L282:
 597:main.c        **** 	VDAC_Vgs_SetValue(new_Vgs);
 3399              		.loc 2 597 0
 3400 009e 3846     		mov	r0, r7
 3401 00a0 FFF7FEFF 		bl	VDAC_Ref_SetValue
 3402              	.LVL452:
 598:main.c        **** 	VDAC_Vds_SetValue(new_Vds);
 3403              		.loc 2 598 0
 3404 00a4 E8B2     		uxtb	r0, r5
 3405 00a6 FFF7FEFF 		bl	VDAC_Vgs_SetValue
 3406              	.LVL453:
 599:main.c        **** }
 3407              		.loc 2 599 0
 3408 00aa E0B2     		uxtb	r0, r4
 3409 00ac FFF7FEFF 		bl	VDAC_Vds_SetValue
 3410              	.LVL454:
 3411              	.L269:
 3412 00b0 BDE8F081 		pop	{r4, r5, r6, r7, r8, pc}
 3413              	.LVL455:
 3414              	.L295:
 3415              		.align	2
 3416              	.L294:
 3417 00b4 825B0040 		.word	1073765250
 3418 00b8 00000000 		.word	Vgs_Index_Goal_Relative
 3419 00bc 00000000 		.word	Vds_Index_Goal_Relative
 3420              		.cfi_endproc
 3421              	.LFE99:
 3422              		.size	Set_Ref_Raw, .-Set_Ref_Raw
 3423              		.section	.text.Set_Vds_Rel,"ax",%progbits
 3424              		.align	2
 3425              		.global	Set_Vds_Rel
 3426              		.thumb
 3427              		.thumb_func
 3428              		.type	Set_Vds_Rel, %function
 3429              	Set_Vds_Rel:
 3430              	.LFB100:
 604:main.c        **** 	if (value > 255) value = 255;
ARM GAS  C:\Users\FRANKL~1\AppData\Local\Temp\ccCAoJJX.s 			page 87


 3431              		.loc 2 604 0
 3432              		.cfi_startproc
 3433              		@ args = 0, pretend = 0, frame = 0
 3434              		@ frame_needed = 0, uses_anonymous_args = 0
 3435              	.LVL456:
 3436 0000 70B5     		push	{r4, r5, r6, lr}
 3437              		.cfi_def_cfa_offset 16
 3438              		.cfi_offset 4, -16
 3439              		.cfi_offset 5, -12
 3440              		.cfi_offset 6, -8
 3441              		.cfi_offset 14, -4
 3442 0002 0446     		mov	r4, r0
 605:main.c        **** 	if (value < -255) value = -255;
 3443              		.loc 2 605 0
 3444 0004 FF28     		cmp	r0, #255
 3445 0006 00DD     		ble	.L297
 3446 0008 FF24     		movs	r4, #255
 3447              	.L297:
 3448              	.LVL457:
 606:main.c        **** 	
 3449              		.loc 2 606 0
 3450 000a 14F1FF0F 		cmn	r4, #255
 3451 000e 01DA     		bge	.L298
 3452 0010 6FF0FE04 		mvn	r4, #254
 3453              	.LVL458:
 3454              	.L298:
 608:main.c        **** 	
 3455              		.loc 2 608 0
 3456 0014 294B     		ldr	r3, .L317
 3457 0016 1878     		ldrb	r0, [r3]	@ zero_extendqisi2
 3458 0018 A5B2     		uxth	r5, r4
 3459 001a 2844     		add	r0, r0, r5
 3460 001c 80B2     		uxth	r0, r0
 3461 001e 03B2     		sxth	r3, r0
 3462              	.LVL459:
 610:main.c        **** 		Set_Ref_Raw(VDAC_Ref_Data - (absolute - 255));
 3463              		.loc 2 610 0
 3464 0020 FF2B     		cmp	r3, #255
 3465 0022 0ADD     		ble	.L299
 611:main.c        **** 		Set_Vds_Raw(255);
 3466              		.loc 2 611 0
 3467 0024 254B     		ldr	r3, .L317
 3468              	.LVL460:
 3469 0026 1B78     		ldrb	r3, [r3]	@ zero_extendqisi2
 3470 0028 181A     		subs	r0, r3, r0
 3471              	.LVL461:
 3472 002a 0138     		subs	r0, r0, #1
 3473 002c C0B2     		uxtb	r0, r0
 3474 002e FFF7FEFF 		bl	Set_Ref_Raw
 3475              	.LVL462:
 612:main.c        **** 	} else if (absolute < 0) {
 3476              		.loc 2 612 0
 3477 0032 FF20     		movs	r0, #255
 3478 0034 FFF7FEFF 		bl	Set_Vds_Raw
 3479              	.LVL463:
 3480 0038 0EE0     		b	.L300
 3481              	.LVL464:
ARM GAS  C:\Users\FRANKL~1\AppData\Local\Temp\ccCAoJJX.s 			page 88


 3482              	.L299:
 613:main.c        **** 		Set_Ref_Raw(VDAC_Ref_Data - absolute);
 3483              		.loc 2 613 0
 3484 003a 002B     		cmp	r3, #0
 3485 003c 09DA     		bge	.L301
 614:main.c        **** 		Set_Vds_Raw(0);
 3486              		.loc 2 614 0
 3487 003e 1F4B     		ldr	r3, .L317
 3488              	.LVL465:
 3489 0040 1B78     		ldrb	r3, [r3]	@ zero_extendqisi2
 3490 0042 181A     		subs	r0, r3, r0
 3491              	.LVL466:
 3492 0044 C0B2     		uxtb	r0, r0
 3493 0046 FFF7FEFF 		bl	Set_Ref_Raw
 3494              	.LVL467:
 615:main.c        **** 	} else {
 3495              		.loc 2 615 0
 3496 004a 0020     		movs	r0, #0
 3497 004c FFF7FEFF 		bl	Set_Vds_Raw
 3498              	.LVL468:
 3499 0050 02E0     		b	.L300
 3500              	.LVL469:
 3501              	.L301:
 617:main.c        **** 	}
 3502              		.loc 2 617 0
 3503 0052 C0B2     		uxtb	r0, r0
 3504 0054 FFF7FEFF 		bl	Set_Vds_Raw
 3505              	.LVL470:
 3506              	.L300:
 620:main.c        **** 	
 3507              		.loc 2 620 0
 3508 0058 194B     		ldr	r3, .L317+4
 3509 005a 1C80     		strh	r4, [r3]	@ movhi
 622:main.c        **** 	uint16 Vds_maxRefRaw = Vds_Index_Goal_Relative > 0? 255 - Vds_Index_Goal_Relative: 255;
 3510              		.loc 2 622 0
 3511 005c 002C     		cmp	r4, #0
 3512 005e 02DC     		bgt	.L312
 622:main.c        **** 	uint16 Vds_maxRefRaw = Vds_Index_Goal_Relative > 0? 255 - Vds_Index_Goal_Relative: 255;
 3513              		.loc 2 622 0 is_stmt 0 discriminator 1
 3514 0060 6E42     		negs	r6, r5
 3515 0062 B6B2     		uxth	r6, r6
 3516 0064 00E0     		b	.L302
 3517              	.L312:
 622:main.c        **** 	uint16 Vds_maxRefRaw = Vds_Index_Goal_Relative > 0? 255 - Vds_Index_Goal_Relative: 255;
 3518              		.loc 2 622 0
 3519 0066 0026     		movs	r6, #0
 3520              	.L302:
 3521              	.LVL471:
 623:main.c        **** 	uint16 Vgs_minRefRaw = Vgs_Index_Goal_Relative > 0? 0: -Vgs_Index_Goal_Relative;
 3522              		.loc 2 623 0 is_stmt 1 discriminator 4
 3523 0068 002C     		cmp	r4, #0
 3524 006a 03DD     		ble	.L313
 623:main.c        **** 	uint16 Vgs_minRefRaw = Vgs_Index_Goal_Relative > 0? 0: -Vgs_Index_Goal_Relative;
 3525              		.loc 2 623 0 is_stmt 0 discriminator 1
 3526 006c C5F1FF00 		rsb	r0, r5, #255
 3527 0070 80B2     		uxth	r0, r0
 3528 0072 00E0     		b	.L303
ARM GAS  C:\Users\FRANKL~1\AppData\Local\Temp\ccCAoJJX.s 			page 89


 3529              	.L313:
 623:main.c        **** 	uint16 Vgs_minRefRaw = Vgs_Index_Goal_Relative > 0? 0: -Vgs_Index_Goal_Relative;
 3530              		.loc 2 623 0
 3531 0074 FF20     		movs	r0, #255
 3532              	.L303:
 3533              	.LVL472:
 624:main.c        **** 	uint16 Vgs_maxRefRaw = Vgs_Index_Goal_Relative > 0? 255 - Vgs_Index_Goal_Relative: 255;
 3534              		.loc 2 624 0 is_stmt 1 discriminator 4
 3535 0076 134B     		ldr	r3, .L317+8
 3536 0078 B3F90030 		ldrsh	r3, [r3]
 3537 007c 002B     		cmp	r3, #0
 3538 007e 02DC     		bgt	.L314
 624:main.c        **** 	uint16 Vgs_maxRefRaw = Vgs_Index_Goal_Relative > 0? 255 - Vgs_Index_Goal_Relative: 255;
 3539              		.loc 2 624 0 is_stmt 0 discriminator 1
 3540 0080 5A42     		negs	r2, r3
 3541 0082 92B2     		uxth	r2, r2
 3542 0084 00E0     		b	.L304
 3543              	.L314:
 624:main.c        **** 	uint16 Vgs_maxRefRaw = Vgs_Index_Goal_Relative > 0? 255 - Vgs_Index_Goal_Relative: 255;
 3544              		.loc 2 624 0
 3545 0086 0022     		movs	r2, #0
 3546              	.L304:
 3547              	.LVL473:
 625:main.c        **** 	
 3548              		.loc 2 625 0 is_stmt 1 discriminator 4
 3549 0088 002B     		cmp	r3, #0
 3550 008a 03DD     		ble	.L315
 625:main.c        **** 	
 3551              		.loc 2 625 0 is_stmt 0 discriminator 1
 3552 008c C3F1FF03 		rsb	r3, r3, #255
 3553 0090 9BB2     		uxth	r3, r3
 3554 0092 00E0     		b	.L305
 3555              	.L315:
 625:main.c        **** 	
 3556              		.loc 2 625 0
 3557 0094 FF23     		movs	r3, #255
 3558              	.L305:
 3559              	.LVL474:
 627:main.c        **** 	
 3560              		.loc 2 627 0 is_stmt 1 discriminator 4
 3561 0096 0949     		ldr	r1, .L317
 3562 0098 0978     		ldrb	r1, [r1]	@ zero_extendqisi2
 3563              	.LVL475:
 629:main.c        **** 	if (newRefRaw > Vgs_maxRefRaw) newRefRaw = Vgs_maxRefRaw;
 3564              		.loc 2 629 0 discriminator 4
 3565 009a 8A42     		cmp	r2, r1
 3566 009c 00D8     		bhi	.L306
 627:main.c        **** 	
 3567              		.loc 2 627 0
 3568 009e 0A46     		mov	r2, r1
 3569              	.LVL476:
 3570              	.L306:
 630:main.c        **** 	if (newRefRaw < Vds_minRefRaw) newRefRaw = Vds_minRefRaw;
 3571              		.loc 2 630 0
 3572 00a0 9A42     		cmp	r2, r3
 3573 00a2 00D8     		bhi	.L307
 3574 00a4 1346     		mov	r3, r2
ARM GAS  C:\Users\FRANKL~1\AppData\Local\Temp\ccCAoJJX.s 			page 90


 3575              	.LVL477:
 3576              	.L307:
 631:main.c        **** 	if (newRefRaw > Vds_maxRefRaw) newRefRaw = Vds_maxRefRaw;
 3577              		.loc 2 631 0
 3578 00a6 B342     		cmp	r3, r6
 3579 00a8 00D3     		bcc	.L308
 3580 00aa 1E46     		mov	r6, r3
 3581              	.LVL478:
 3582              	.L308:
 632:main.c        **** 	
 3583              		.loc 2 632 0
 3584 00ac 8642     		cmp	r6, r0
 3585 00ae 00D8     		bhi	.L309
 3586 00b0 3046     		mov	r0, r6
 3587              	.LVL479:
 3588              	.L309:
 634:main.c        **** }
 3589              		.loc 2 634 0
 3590 00b2 C0B2     		uxtb	r0, r0
 3591              	.LVL480:
 3592 00b4 FFF7FEFF 		bl	Set_Ref_Raw
 3593              	.LVL481:
 3594 00b8 70BD     		pop	{r4, r5, r6, pc}
 3595              	.LVL482:
 3596              	.L318:
 3597 00ba 00BF     		.align	2
 3598              	.L317:
 3599 00bc 825B0040 		.word	1073765250
 3600 00c0 00000000 		.word	Vds_Index_Goal_Relative
 3601 00c4 00000000 		.word	Vgs_Index_Goal_Relative
 3602              		.cfi_endproc
 3603              	.LFE100:
 3604              		.size	Set_Vds_Rel, .-Set_Vds_Rel
 3605              		.section	.text.Set_Vgs_Rel,"ax",%progbits
 3606              		.align	2
 3607              		.global	Set_Vgs_Rel
 3608              		.thumb
 3609              		.thumb_func
 3610              		.type	Set_Vgs_Rel, %function
 3611              	Set_Vgs_Rel:
 3612              	.LFB101:
 638:main.c        **** 	if (value > 255) value = 255;
 3613              		.loc 2 638 0
 3614              		.cfi_startproc
 3615              		@ args = 0, pretend = 0, frame = 0
 3616              		@ frame_needed = 0, uses_anonymous_args = 0
 3617              	.LVL483:
 3618 0000 70B5     		push	{r4, r5, r6, lr}
 3619              		.cfi_def_cfa_offset 16
 3620              		.cfi_offset 4, -16
 3621              		.cfi_offset 5, -12
 3622              		.cfi_offset 6, -8
 3623              		.cfi_offset 14, -4
 3624 0002 0446     		mov	r4, r0
 639:main.c        **** 	if (value < -255) value = -255;
 3625              		.loc 2 639 0
 3626 0004 FF28     		cmp	r0, #255
ARM GAS  C:\Users\FRANKL~1\AppData\Local\Temp\ccCAoJJX.s 			page 91


 3627 0006 00DD     		ble	.L320
 3628 0008 FF24     		movs	r4, #255
 3629              	.L320:
 3630              	.LVL484:
 640:main.c        **** 	
 3631              		.loc 2 640 0
 3632 000a 14F1FF0F 		cmn	r4, #255
 3633 000e 01DA     		bge	.L321
 3634 0010 6FF0FE04 		mvn	r4, #254
 3635              	.LVL485:
 3636              	.L321:
 642:main.c        **** 	
 3637              		.loc 2 642 0
 3638 0014 294B     		ldr	r3, .L340
 3639 0016 1878     		ldrb	r0, [r3]	@ zero_extendqisi2
 3640 0018 A5B2     		uxth	r5, r4
 3641 001a 2844     		add	r0, r0, r5
 3642 001c 80B2     		uxth	r0, r0
 3643 001e 03B2     		sxth	r3, r0
 3644              	.LVL486:
 644:main.c        **** 		Set_Ref_Raw(VDAC_Ref_Data - (absolute - 255));
 3645              		.loc 2 644 0
 3646 0020 FF2B     		cmp	r3, #255
 3647 0022 0ADD     		ble	.L322
 645:main.c        **** 		Set_Vgs_Raw(255);
 3648              		.loc 2 645 0
 3649 0024 254B     		ldr	r3, .L340
 3650              	.LVL487:
 3651 0026 1B78     		ldrb	r3, [r3]	@ zero_extendqisi2
 3652 0028 181A     		subs	r0, r3, r0
 3653              	.LVL488:
 3654 002a 0138     		subs	r0, r0, #1
 3655 002c C0B2     		uxtb	r0, r0
 3656 002e FFF7FEFF 		bl	Set_Ref_Raw
 3657              	.LVL489:
 646:main.c        **** 	} else if (absolute < 0) {
 3658              		.loc 2 646 0
 3659 0032 FF20     		movs	r0, #255
 3660 0034 FFF7FEFF 		bl	Set_Vgs_Raw
 3661              	.LVL490:
 3662 0038 0EE0     		b	.L323
 3663              	.LVL491:
 3664              	.L322:
 647:main.c        **** 		Set_Ref_Raw(VDAC_Ref_Data - absolute);
 3665              		.loc 2 647 0
 3666 003a 002B     		cmp	r3, #0
 3667 003c 09DA     		bge	.L324
 648:main.c        **** 		Set_Vgs_Raw(0);
 3668              		.loc 2 648 0
 3669 003e 1F4B     		ldr	r3, .L340
 3670              	.LVL492:
 3671 0040 1B78     		ldrb	r3, [r3]	@ zero_extendqisi2
 3672 0042 181A     		subs	r0, r3, r0
 3673              	.LVL493:
 3674 0044 C0B2     		uxtb	r0, r0
 3675 0046 FFF7FEFF 		bl	Set_Ref_Raw
 3676              	.LVL494:
ARM GAS  C:\Users\FRANKL~1\AppData\Local\Temp\ccCAoJJX.s 			page 92


 649:main.c        **** 	} else {
 3677              		.loc 2 649 0
 3678 004a 0020     		movs	r0, #0
 3679 004c FFF7FEFF 		bl	Set_Vgs_Raw
 3680              	.LVL495:
 3681 0050 02E0     		b	.L323
 3682              	.LVL496:
 3683              	.L324:
 651:main.c        **** 	}
 3684              		.loc 2 651 0
 3685 0052 C0B2     		uxtb	r0, r0
 3686 0054 FFF7FEFF 		bl	Set_Vgs_Raw
 3687              	.LVL497:
 3688              	.L323:
 654:main.c        **** 	
 3689              		.loc 2 654 0
 3690 0058 194B     		ldr	r3, .L340+4
 3691 005a 1C80     		strh	r4, [r3]	@ movhi
 656:main.c        **** 	uint16 Vds_maxRefRaw = Vds_Index_Goal_Relative > 0? 255 - Vds_Index_Goal_Relative: 255;
 3692              		.loc 2 656 0
 3693 005c 194B     		ldr	r3, .L340+8
 3694 005e B3F90030 		ldrsh	r3, [r3]
 3695 0062 002B     		cmp	r3, #0
 3696 0064 02DC     		bgt	.L335
 656:main.c        **** 	uint16 Vds_maxRefRaw = Vds_Index_Goal_Relative > 0? 255 - Vds_Index_Goal_Relative: 255;
 3697              		.loc 2 656 0 is_stmt 0 discriminator 1
 3698 0066 5A42     		negs	r2, r3
 3699 0068 92B2     		uxth	r2, r2
 3700 006a 00E0     		b	.L325
 3701              	.L335:
 656:main.c        **** 	uint16 Vds_maxRefRaw = Vds_Index_Goal_Relative > 0? 255 - Vds_Index_Goal_Relative: 255;
 3702              		.loc 2 656 0
 3703 006c 0022     		movs	r2, #0
 3704              	.L325:
 3705              	.LVL498:
 657:main.c        **** 	uint16 Vgs_minRefRaw = Vgs_Index_Goal_Relative > 0? 0: -Vgs_Index_Goal_Relative;
 3706              		.loc 2 657 0 is_stmt 1 discriminator 4
 3707 006e 002B     		cmp	r3, #0
 3708 0070 03DD     		ble	.L336
 657:main.c        **** 	uint16 Vgs_minRefRaw = Vgs_Index_Goal_Relative > 0? 0: -Vgs_Index_Goal_Relative;
 3709              		.loc 2 657 0 is_stmt 0 discriminator 1
 3710 0072 C3F1FF03 		rsb	r3, r3, #255
 3711 0076 9BB2     		uxth	r3, r3
 3712 0078 00E0     		b	.L326
 3713              	.L336:
 657:main.c        **** 	uint16 Vgs_minRefRaw = Vgs_Index_Goal_Relative > 0? 0: -Vgs_Index_Goal_Relative;
 3714              		.loc 2 657 0
 3715 007a FF23     		movs	r3, #255
 3716              	.L326:
 3717              	.LVL499:
 658:main.c        **** 	uint16 Vgs_maxRefRaw = Vgs_Index_Goal_Relative > 0? 255 - Vgs_Index_Goal_Relative: 255;
 3718              		.loc 2 658 0 is_stmt 1 discriminator 4
 3719 007c 002C     		cmp	r4, #0
 3720 007e 02DC     		bgt	.L337
 658:main.c        **** 	uint16 Vgs_maxRefRaw = Vgs_Index_Goal_Relative > 0? 255 - Vgs_Index_Goal_Relative: 255;
 3721              		.loc 2 658 0 is_stmt 0 discriminator 1
 3722 0080 6E42     		negs	r6, r5
ARM GAS  C:\Users\FRANKL~1\AppData\Local\Temp\ccCAoJJX.s 			page 93


 3723 0082 B6B2     		uxth	r6, r6
 3724 0084 00E0     		b	.L327
 3725              	.L337:
 658:main.c        **** 	uint16 Vgs_maxRefRaw = Vgs_Index_Goal_Relative > 0? 255 - Vgs_Index_Goal_Relative: 255;
 3726              		.loc 2 658 0
 3727 0086 0026     		movs	r6, #0
 3728              	.L327:
 3729              	.LVL500:
 659:main.c        **** 	
 3730              		.loc 2 659 0 is_stmt 1 discriminator 4
 3731 0088 002C     		cmp	r4, #0
 3732 008a 03DD     		ble	.L338
 659:main.c        **** 	
 3733              		.loc 2 659 0 is_stmt 0 discriminator 1
 3734 008c C5F1FF00 		rsb	r0, r5, #255
 3735 0090 80B2     		uxth	r0, r0
 3736 0092 00E0     		b	.L328
 3737              	.L338:
 659:main.c        **** 	
 3738              		.loc 2 659 0
 3739 0094 FF20     		movs	r0, #255
 3740              	.L328:
 3741              	.LVL501:
 661:main.c        **** 	
 3742              		.loc 2 661 0 is_stmt 1 discriminator 4
 3743 0096 0949     		ldr	r1, .L340
 3744 0098 0978     		ldrb	r1, [r1]	@ zero_extendqisi2
 3745              	.LVL502:
 663:main.c        **** 	if (newRefRaw > Vds_maxRefRaw) newRefRaw = Vds_maxRefRaw;
 3746              		.loc 2 663 0 discriminator 4
 3747 009a 8A42     		cmp	r2, r1
 3748 009c 00D8     		bhi	.L329
 661:main.c        **** 	
 3749              		.loc 2 661 0
 3750 009e 0A46     		mov	r2, r1
 3751              	.LVL503:
 3752              	.L329:
 664:main.c        **** 	if (newRefRaw < Vgs_minRefRaw) newRefRaw = Vgs_minRefRaw;
 3753              		.loc 2 664 0
 3754 00a0 9A42     		cmp	r2, r3
 3755 00a2 00D8     		bhi	.L330
 3756 00a4 1346     		mov	r3, r2
 3757              	.LVL504:
 3758              	.L330:
 665:main.c        **** 	if (newRefRaw > Vgs_maxRefRaw) newRefRaw = Vgs_maxRefRaw;
 3759              		.loc 2 665 0
 3760 00a6 B342     		cmp	r3, r6
 3761 00a8 00D3     		bcc	.L331
 3762 00aa 1E46     		mov	r6, r3
 3763              	.LVL505:
 3764              	.L331:
 666:main.c        **** 	
 3765              		.loc 2 666 0
 3766 00ac 8642     		cmp	r6, r0
 3767 00ae 00D8     		bhi	.L332
 3768 00b0 3046     		mov	r0, r6
 3769              	.LVL506:
ARM GAS  C:\Users\FRANKL~1\AppData\Local\Temp\ccCAoJJX.s 			page 94


 3770              	.L332:
 668:main.c        **** }
 3771              		.loc 2 668 0
 3772 00b2 C0B2     		uxtb	r0, r0
 3773              	.LVL507:
 3774 00b4 FFF7FEFF 		bl	Set_Ref_Raw
 3775              	.LVL508:
 3776 00b8 70BD     		pop	{r4, r5, r6, pc}
 3777              	.LVL509:
 3778              	.L341:
 3779 00ba 00BF     		.align	2
 3780              	.L340:
 3781 00bc 825B0040 		.word	1073765250
 3782 00c0 00000000 		.word	Vgs_Index_Goal_Relative
 3783 00c4 00000000 		.word	Vds_Index_Goal_Relative
 3784              		.cfi_endproc
 3785              	.LFE101:
 3786              		.size	Set_Vgs_Rel, .-Set_Vgs_Rel
 3787              		.global	__aeabi_d2iz
 3788              		.section	.text.Set_Vgs,"ax",%progbits
 3789              		.align	2
 3790              		.global	Set_Vgs
 3791              		.thumb
 3792              		.thumb_func
 3793              		.type	Set_Vgs, %function
 3794              	Set_Vgs:
 3795              	.LFB102:
 673:main.c        **** 	Set_Vgs_Rel((voltage/4.080)*255.0);
 3796              		.loc 2 673 0
 3797              		.cfi_startproc
 3798              		@ args = 0, pretend = 0, frame = 0
 3799              		@ frame_needed = 0, uses_anonymous_args = 0
 3800              	.LVL510:
 3801 0000 08B5     		push	{r3, lr}
 3802              		.cfi_def_cfa_offset 8
 3803              		.cfi_offset 3, -8
 3804              		.cfi_offset 14, -4
 674:main.c        **** }
 3805              		.loc 2 674 0
 3806 0002 FFF7FEFF 		bl	__aeabi_f2d
 3807              	.LVL511:
 3808 0006 08A3     		adr	r3, .L344
 3809 0008 D3E90023 		ldrd	r2, [r3]
 3810 000c FFF7FEFF 		bl	__aeabi_ddiv
 3811              	.LVL512:
 3812 0010 07A3     		adr	r3, .L344+8
 3813 0012 D3E90023 		ldrd	r2, [r3]
 3814 0016 FFF7FEFF 		bl	__aeabi_dmul
 3815              	.LVL513:
 3816 001a FFF7FEFF 		bl	__aeabi_d2iz
 3817              	.LVL514:
 3818 001e 00B2     		sxth	r0, r0
 3819 0020 FFF7FEFF 		bl	Set_Vgs_Rel
 3820              	.LVL515:
 3821 0024 08BD     		pop	{r3, pc}
 3822              	.L345:
 3823 0026 00BF     		.align	3
ARM GAS  C:\Users\FRANKL~1\AppData\Local\Temp\ccCAoJJX.s 			page 95


 3824              	.L344:
 3825 0028 52B81E85 		.word	-2061584302
 3826 002c EB511040 		.word	1074811371
 3827 0030 00000000 		.word	0
 3828 0034 00E06F40 		.word	1081073664
 3829              		.cfi_endproc
 3830              	.LFE102:
 3831              		.size	Set_Vgs, .-Set_Vgs
 3832              		.section	.text.Set_Vds,"ax",%progbits
 3833              		.align	2
 3834              		.global	Set_Vds
 3835              		.thumb
 3836              		.thumb_func
 3837              		.type	Set_Vds, %function
 3838              	Set_Vds:
 3839              	.LFB103:
 678:main.c        **** 	Set_Vds_Rel((voltage/4.080)*255.0);
 3840              		.loc 2 678 0
 3841              		.cfi_startproc
 3842              		@ args = 0, pretend = 0, frame = 0
 3843              		@ frame_needed = 0, uses_anonymous_args = 0
 3844              	.LVL516:
 3845 0000 08B5     		push	{r3, lr}
 3846              		.cfi_def_cfa_offset 8
 3847              		.cfi_offset 3, -8
 3848              		.cfi_offset 14, -4
 679:main.c        **** }
 3849              		.loc 2 679 0
 3850 0002 FFF7FEFF 		bl	__aeabi_f2d
 3851              	.LVL517:
 3852 0006 08A3     		adr	r3, .L348
 3853 0008 D3E90023 		ldrd	r2, [r3]
 3854 000c FFF7FEFF 		bl	__aeabi_ddiv
 3855              	.LVL518:
 3856 0010 07A3     		adr	r3, .L348+8
 3857 0012 D3E90023 		ldrd	r2, [r3]
 3858 0016 FFF7FEFF 		bl	__aeabi_dmul
 3859              	.LVL519:
 3860 001a FFF7FEFF 		bl	__aeabi_d2iz
 3861              	.LVL520:
 3862 001e 00B2     		sxth	r0, r0
 3863 0020 FFF7FEFF 		bl	Set_Vds_Rel
 3864              	.LVL521:
 3865 0024 08BD     		pop	{r3, pc}
 3866              	.L349:
 3867 0026 00BF     		.align	3
 3868              	.L348:
 3869 0028 52B81E85 		.word	-2061584302
 3870 002c EB511040 		.word	1074811371
 3871 0030 00000000 		.word	0
 3872 0034 00E06F40 		.word	1081073664
 3873              		.cfi_endproc
 3874              	.LFE103:
 3875              		.size	Set_Vds, .-Set_Vds
 3876              		.section	.text.Set_Vgs_mV,"ax",%progbits
 3877              		.align	2
 3878              		.global	Set_Vgs_mV
ARM GAS  C:\Users\FRANKL~1\AppData\Local\Temp\ccCAoJJX.s 			page 96


 3879              		.thumb
 3880              		.thumb_func
 3881              		.type	Set_Vgs_mV, %function
 3882              	Set_Vgs_mV:
 3883              	.LFB104:
 684:main.c        **** 	Set_Vgs(mV/1000.0);
 3884              		.loc 2 684 0
 3885              		.cfi_startproc
 3886              		@ args = 0, pretend = 0, frame = 0
 3887              		@ frame_needed = 0, uses_anonymous_args = 0
 3888              	.LVL522:
 3889 0000 08B5     		push	{r3, lr}
 3890              		.cfi_def_cfa_offset 8
 3891              		.cfi_offset 3, -8
 3892              		.cfi_offset 14, -4
 685:main.c        **** }
 3893              		.loc 2 685 0
 3894 0002 0349     		ldr	r1, .L352
 3895 0004 FFF7FEFF 		bl	__aeabi_fdiv
 3896              	.LVL523:
 3897 0008 FFF7FEFF 		bl	Set_Vgs
 3898              	.LVL524:
 3899 000c 08BD     		pop	{r3, pc}
 3900              	.L353:
 3901 000e 00BF     		.align	2
 3902              	.L352:
 3903 0010 00007A44 		.word	1148846080
 3904              		.cfi_endproc
 3905              	.LFE104:
 3906              		.size	Set_Vgs_mV, .-Set_Vgs_mV
 3907              		.section	.text.Set_Vds_mV,"ax",%progbits
 3908              		.align	2
 3909              		.global	Set_Vds_mV
 3910              		.thumb
 3911              		.thumb_func
 3912              		.type	Set_Vds_mV, %function
 3913              	Set_Vds_mV:
 3914              	.LFB105:
 689:main.c        **** 	Set_Vds(mV/1000.0);
 3915              		.loc 2 689 0
 3916              		.cfi_startproc
 3917              		@ args = 0, pretend = 0, frame = 0
 3918              		@ frame_needed = 0, uses_anonymous_args = 0
 3919              	.LVL525:
 3920 0000 08B5     		push	{r3, lr}
 3921              		.cfi_def_cfa_offset 8
 3922              		.cfi_offset 3, -8
 3923              		.cfi_offset 14, -4
 690:main.c        **** }
 3924              		.loc 2 690 0
 3925 0002 0349     		ldr	r1, .L356
 3926 0004 FFF7FEFF 		bl	__aeabi_fdiv
 3927              	.LVL526:
 3928 0008 FFF7FEFF 		bl	Set_Vds
 3929              	.LVL527:
 3930 000c 08BD     		pop	{r3, pc}
 3931              	.L357:
ARM GAS  C:\Users\FRANKL~1\AppData\Local\Temp\ccCAoJJX.s 			page 97


 3932 000e 00BF     		.align	2
 3933              	.L356:
 3934 0010 00007A44 		.word	1148846080
 3935              		.cfi_endproc
 3936              	.LFE105:
 3937              		.size	Set_Vds_mV, .-Set_Vds_mV
 3938              		.section	.text.Zero_All_DACs,"ax",%progbits
 3939              		.align	2
 3940              		.global	Zero_All_DACs
 3941              		.thumb
 3942              		.thumb_func
 3943              		.type	Zero_All_DACs, %function
 3944              	Zero_All_DACs:
 3945              	.LFB106:
 695:main.c        **** 	Set_Vds_Raw(0);
 3946              		.loc 2 695 0
 3947              		.cfi_startproc
 3948              		@ args = 0, pretend = 0, frame = 0
 3949              		@ frame_needed = 0, uses_anonymous_args = 0
 3950 0000 08B5     		push	{r3, lr}
 3951              		.cfi_def_cfa_offset 8
 3952              		.cfi_offset 3, -8
 3953              		.cfi_offset 14, -4
 696:main.c        **** 	Set_Vgs_Raw(0);
 3954              		.loc 2 696 0
 3955 0002 0020     		movs	r0, #0
 3956 0004 FFF7FEFF 		bl	Set_Vds_Raw
 3957              	.LVL528:
 697:main.c        **** 	
 3958              		.loc 2 697 0
 3959 0008 0020     		movs	r0, #0
 3960 000a FFF7FEFF 		bl	Set_Vgs_Raw
 3961              	.LVL529:
 699:main.c        **** 	VDAC_Vgs_SetValue(0);
 3962              		.loc 2 699 0
 3963 000e 0020     		movs	r0, #0
 3964 0010 FFF7FEFF 		bl	VDAC_Vds_SetValue
 3965              	.LVL530:
 700:main.c        **** }
 3966              		.loc 2 700 0
 3967 0014 0020     		movs	r0, #0
 3968 0016 FFF7FEFF 		bl	VDAC_Vgs_SetValue
 3969              	.LVL531:
 3970 001a 08BD     		pop	{r3, pc}
 3971              		.cfi_endproc
 3972              	.LFE106:
 3973              		.size	Zero_All_DACs, .-Zero_All_DACs
 3974              		.section	.text.Calibrate_ADC_Offset,"ax",%progbits
 3975              		.align	2
 3976              		.global	Calibrate_ADC_Offset
 3977              		.thumb
 3978              		.thumb_func
 3979              		.type	Calibrate_ADC_Offset, %function
 3980              	Calibrate_ADC_Offset:
 3981              	.LFB107:
 703:main.c        **** 	uint8 current_range_resistor = TIA_Selected_Resistor;
 3982              		.loc 2 703 0
ARM GAS  C:\Users\FRANKL~1\AppData\Local\Temp\ccCAoJJX.s 			page 98


 3983              		.cfi_startproc
 3984              		@ args = 0, pretend = 0, frame = 8
 3985              		@ frame_needed = 0, uses_anonymous_args = 0
 3986              	.LVL532:
 3987 0000 F0B5     		push	{r4, r5, r6, r7, lr}
 3988              		.cfi_def_cfa_offset 20
 3989              		.cfi_offset 4, -20
 3990              		.cfi_offset 5, -16
 3991              		.cfi_offset 6, -12
 3992              		.cfi_offset 7, -8
 3993              		.cfi_offset 14, -4
 3994 0002 85B0     		sub	sp, sp, #20
 3995              		.cfi_def_cfa_offset 40
 3996 0004 0546     		mov	r5, r0
 704:main.c        **** 	
 3997              		.loc 2 704 0
 3998 0006 234B     		ldr	r3, .L364
 3999 0008 1E79     		ldrb	r6, [r3, #4]	@ zero_extendqisi2
 4000              	.LVL533:
 707:main.c        **** 	Set_Vgs(0);
 4001              		.loc 2 707 0
 4002 000a 0024     		movs	r4, #0
 4003 000c 2046     		mov	r0, r4
 4004              	.LVL534:
 4005 000e FFF7FEFF 		bl	Set_Vds
 4006              	.LVL535:
 708:main.c        **** 	
 4007              		.loc 2 708 0
 4008 0012 2046     		mov	r0, r4
 4009 0014 FFF7FEFF 		bl	Set_Vgs
 4010              	.LVL536:
 711:main.c        **** 	int32 voltageSD = 0;
 4011              		.loc 2 711 0
 4012 0018 0024     		movs	r4, #0
 4013 001a 0394     		str	r4, [sp, #12]
 712:main.c        **** 	
 4014              		.loc 2 712 0
 4015 001c 0294     		str	r4, [sp, #8]
 4016              	.LVL537:
 4017              	.LBB47:
 715:main.c        **** 		TIA_Set_Resistor(i);
 4018              		.loc 2 715 0
 4019 001e 22E0     		b	.L361
 4020              	.LVL538:
 4021              	.L362:
 716:main.c        **** 		// Take a few measurements to discard any problems with the initial measurements
 4022              		.loc 2 716 0 discriminator 3
 4023 0020 2046     		mov	r0, r4
 4024 0022 FFF7FEFF 		bl	TIA_Set_Resistor
 4025              	.LVL539:
 718:main.c        **** 		ADC_Measure_uV(&voltage, &voltageSD, sampleCount);
 4026              		.loc 2 718 0 discriminator 3
 4027 0026 0322     		movs	r2, #3
 4028 0028 02A9     		add	r1, sp, #8
 4029 002a 03A8     		add	r0, sp, #12
 4030 002c FFF7FEFF 		bl	ADC_Measure_uV
 4031              	.LVL540:
ARM GAS  C:\Users\FRANKL~1\AppData\Local\Temp\ccCAoJJX.s 			page 99


 719:main.c        **** 		TIA_Offsets_uV[i] = -voltage;
 4032              		.loc 2 719 0 discriminator 3
 4033 0030 2A46     		mov	r2, r5
 4034 0032 02A9     		add	r1, sp, #8
 4035 0034 03A8     		add	r0, sp, #12
 4036 0036 FFF7FEFF 		bl	ADC_Measure_uV
 4037              	.LVL541:
 720:main.c        **** 		sprintf(TransmitBuffer, "# Offset %e Ohm: %li uV\r\n", TIA_Resistor_Values[i], -voltage);
 4038              		.loc 2 720 0 discriminator 3
 4039 003a 039F     		ldr	r7, [sp, #12]
 4040 003c 7F42     		negs	r7, r7
 4041 003e A300     		lsls	r3, r4, #2
 4042 0040 144A     		ldr	r2, .L364
 4043 0042 1A44     		add	r2, r2, r3
 4044 0044 9760     		str	r7, [r2, #8]
 721:main.c        **** 		sendTransmitBuffer();
 4045              		.loc 2 721 0 discriminator 3
 4046 0046 144A     		ldr	r2, .L364+4
 4047 0048 1344     		add	r3, r3, r2
 4048 004a D868     		ldr	r0, [r3, #12]	@ float
 4049 004c FFF7FEFF 		bl	__aeabi_f2d
 4050              	.LVL542:
 4051 0050 0097     		str	r7, [sp]
 4052 0052 0246     		mov	r2, r0
 4053 0054 0B46     		mov	r3, r1
 4054 0056 1149     		ldr	r1, .L364+8
 4055 0058 1148     		ldr	r0, .L364+12
 4056 005a FFF7FEFF 		bl	sprintf
 4057              	.LVL543:
 722:main.c        **** 	}
 4058              		.loc 2 722 0 discriminator 3
 4059 005e FFF7FEFF 		bl	sendTransmitBuffer
 4060              	.LVL544:
 715:main.c        **** 		TIA_Set_Resistor(i);
 4061              		.loc 2 715 0 discriminator 3
 4062 0062 0134     		adds	r4, r4, #1
 4063              	.LVL545:
 4064 0064 E4B2     		uxtb	r4, r4
 4065              	.LVL546:
 4066              	.L361:
 715:main.c        **** 		TIA_Set_Resistor(i);
 4067              		.loc 2 715 0 is_stmt 0 discriminator 1
 4068 0066 072C     		cmp	r4, #7
 4069 0068 DAD9     		bls	.L362
 4070              	.LBE47:
 726:main.c        **** 	
 4071              		.loc 2 726 0 is_stmt 1
 4072 006a 3046     		mov	r0, r6
 4073 006c FFF7FEFF 		bl	TIA_Set_Resistor
 4074              	.LVL547:
 728:main.c        **** 	sendTransmitBuffer();
 4075              		.loc 2 728 0
 4076 0070 0B4D     		ldr	r5, .L364+12
 4077              	.LVL548:
 4078 0072 0C4C     		ldr	r4, .L364+16
 4079              	.LVL549:
 4080 0074 0FCC     		ldmia	r4!, {r0, r1, r2, r3}
ARM GAS  C:\Users\FRANKL~1\AppData\Local\Temp\ccCAoJJX.s 			page 100


 4081 0076 2860     		str	r0, [r5]	@ unaligned
 4082 0078 6960     		str	r1, [r5, #4]	@ unaligned
 4083 007a AA60     		str	r2, [r5, #8]	@ unaligned
 4084 007c EB60     		str	r3, [r5, #12]	@ unaligned
 4085 007e 03CC     		ldmia	r4!, {r0, r1}
 4086 0080 2861     		str	r0, [r5, #16]	@ unaligned
 4087 0082 6961     		str	r1, [r5, #20]	@ unaligned
 4088 0084 2288     		ldrh	r2, [r4]	@ unaligned
 4089 0086 A378     		ldrb	r3, [r4, #2]	@ zero_extendqisi2
 4090 0088 2A83     		strh	r2, [r5, #24]	@ unaligned
 4091 008a AB76     		strb	r3, [r5, #26]
 729:main.c        **** }
 4092              		.loc 2 729 0
 4093 008c FFF7FEFF 		bl	sendTransmitBuffer
 4094              	.LVL550:
 730:main.c        **** 
 4095              		.loc 2 730 0
 4096 0090 05B0     		add	sp, sp, #20
 4097              		.cfi_def_cfa_offset 20
 4098              		@ sp needed
 4099 0092 F0BD     		pop	{r4, r5, r6, r7, pc}
 4100              	.LVL551:
 4101              	.L365:
 4102              		.align	2
 4103              	.L364:
 4104 0094 00000000 		.word	.LANCHOR0
 4105 0098 00000000 		.word	.LANCHOR1
 4106 009c A8000000 		.word	.LC11
 4107 00a0 00000000 		.word	TransmitBuffer
 4108 00a4 C4000000 		.word	.LC12
 4109              		.cfi_endproc
 4110              	.LFE107:
 4111              		.size	Calibrate_ADC_Offset, .-Calibrate_ADC_Offset
 4112              		.section	.text.Measure,"ax",%progbits
 4113              		.align	2
 4114              		.global	Measure
 4115              		.thumb
 4116              		.thumb_func
 4117              		.type	Measure, %function
 4118              	Measure:
 4119              	.LFB108:
 733:main.c        **** 	float IdsAverageAmps = 0;
 4120              		.loc 2 733 0
 4121              		.cfi_startproc
 4122              		@ args = 0, pretend = 0, frame = 8
 4123              		@ frame_needed = 0, uses_anonymous_args = 0
 4124              	.LVL552:
 4125 0000 70B5     		push	{r4, r5, r6, lr}
 4126              		.cfi_def_cfa_offset 16
 4127              		.cfi_offset 4, -16
 4128              		.cfi_offset 5, -12
 4129              		.cfi_offset 6, -8
 4130              		.cfi_offset 14, -4
 4131 0002 86B0     		sub	sp, sp, #24
 4132              		.cfi_def_cfa_offset 40
 734:main.c        **** 	float IdsSDAmps = 0;
 4133              		.loc 2 734 0
ARM GAS  C:\Users\FRANKL~1\AppData\Local\Temp\ccCAoJJX.s 			page 101


 4134 0004 0023     		movs	r3, #0
 4135 0006 0593     		str	r3, [sp, #20]	@ float
 735:main.c        **** 	
 4136              		.loc 2 735 0
 4137 0008 06A9     		add	r1, sp, #24
 4138              	.LVL553:
 4139 000a 41F8083D 		str	r3, [r1, #-8]!	@ float
 737:main.c        **** 	
 4140              		.loc 2 737 0
 4141 000e 0023     		movs	r3, #0
 4142 0010 0246     		mov	r2, r0
 4143              	.LVL554:
 4144 0012 05A8     		add	r0, sp, #20
 4145              	.LVL555:
 4146 0014 FFF7FEFF 		bl	Measure_Current_Vss
 4147              	.LVL556:
 750:main.c        **** 	sendTransmitBuffer();
 4148              		.loc 2 750 0
 4149 0018 0598     		ldr	r0, [sp, #20]	@ float
 4150 001a FFF7FEFF 		bl	__aeabi_f2d
 4151              	.LVL557:
 4152 001e 10A3     		adr	r3, .L368
 4153 0020 D3E90023 		ldrd	r2, [r3]
 4154 0024 FFF7FEFF 		bl	__aeabi_dmul
 4155              	.LVL558:
 4156 0028 0446     		mov	r4, r0
 4157 002a 0D46     		mov	r5, r1
 4158 002c FFF7FEFF 		bl	Get_Vgs
 4159              	.LVL559:
 4160 0030 0646     		mov	r6, r0
 4161 0032 FFF7FEFF 		bl	Get_Vds
 4162              	.LVL560:
 4163 0036 FFF7FEFF 		bl	__aeabi_f2d
 4164              	.LVL561:
 4165 003a CDE90201 		strd	r0, [sp, #8]
 4166 003e 3046     		mov	r0, r6
 4167 0040 FFF7FEFF 		bl	__aeabi_f2d
 4168              	.LVL562:
 4169 0044 CDE90001 		strd	r0, [sp]
 4170 0048 2246     		mov	r2, r4
 4171 004a 2B46     		mov	r3, r5
 4172 004c 0649     		ldr	r1, .L368+8
 4173 004e 0748     		ldr	r0, .L368+12
 4174 0050 FFF7FEFF 		bl	sprintf
 4175              	.LVL563:
 751:main.c        **** }
 4176              		.loc 2 751 0
 4177 0054 FFF7FEFF 		bl	sendTransmitBuffer
 4178              	.LVL564:
 752:main.c        **** 
 4179              		.loc 2 752 0
 4180 0058 06B0     		add	sp, sp, #24
 4181              		.cfi_def_cfa_offset 16
 4182              		@ sp needed
 4183 005a 70BD     		pop	{r4, r5, r6, pc}
 4184              	.L369:
 4185 005c AFF30080 		.align	3
ARM GAS  C:\Users\FRANKL~1\AppData\Local\Temp\ccCAoJJX.s 			page 102


 4186              	.L368:
 4187 0060 000000A2 		.word	-1577058304
 4188 0064 941A6D42 		.word	1114446484
 4189 0068 E0000000 		.word	.LC13
 4190 006c 00000000 		.word	TransmitBuffer
 4191              		.cfi_endproc
 4192              	.LFE108:
 4193              		.size	Measure, .-Measure
 4194              		.section	.text.Measure_Multiple,"ax",%progbits
 4195              		.align	2
 4196              		.global	Measure_Multiple
 4197              		.thumb
 4198              		.thumb_func
 4199              		.type	Measure_Multiple, %function
 4200              	Measure_Multiple:
 4201              	.LFB109:
 755:main.c        **** 	for (uint32 i = 0; i < n; i++) {
 4202              		.loc 2 755 0
 4203              		.cfi_startproc
 4204              		@ args = 0, pretend = 0, frame = 0
 4205              		@ frame_needed = 0, uses_anonymous_args = 0
 4206              	.LVL565:
 4207 0000 38B5     		push	{r3, r4, r5, lr}
 4208              		.cfi_def_cfa_offset 16
 4209              		.cfi_offset 3, -16
 4210              		.cfi_offset 4, -12
 4211              		.cfi_offset 5, -8
 4212              		.cfi_offset 14, -4
 4213 0002 0546     		mov	r5, r0
 4214              	.LVL566:
 4215              	.LBB48:
 756:main.c        **** 		Measure(100, 1, 10);
 4216              		.loc 2 756 0
 4217 0004 0024     		movs	r4, #0
 4218 0006 05E0     		b	.L371
 4219              	.LVL567:
 4220              	.L372:
 757:main.c        **** 	}
 4221              		.loc 2 757 0 discriminator 3
 4222 0008 0A22     		movs	r2, #10
 4223 000a 0121     		movs	r1, #1
 4224 000c 6420     		movs	r0, #100
 4225 000e FFF7FEFF 		bl	Measure
 4226              	.LVL568:
 756:main.c        **** 		Measure(100, 1, 10);
 4227              		.loc 2 756 0 discriminator 3
 4228 0012 0134     		adds	r4, r4, #1
 4229              	.LVL569:
 4230              	.L371:
 756:main.c        **** 		Measure(100, 1, 10);
 4231              		.loc 2 756 0 is_stmt 0 discriminator 1
 4232 0014 AC42     		cmp	r4, r5
 4233 0016 F7D3     		bcc	.L372
 4234              	.LBE48:
 759:main.c        **** 
 4235              		.loc 2 759 0 is_stmt 1
 4236 0018 38BD     		pop	{r3, r4, r5, pc}
ARM GAS  C:\Users\FRANKL~1\AppData\Local\Temp\ccCAoJJX.s 			page 103


 4237              		.cfi_endproc
 4238              	.LFE109:
 4239              		.size	Measure_Multiple, .-Measure_Multiple
 4240 001a 00BF     		.section	.text.Measure_Sweep,"ax",%progbits
 4241              		.align	2
 4242              		.global	Measure_Sweep
 4243              		.thumb
 4244              		.thumb_func
 4245              		.type	Measure_Sweep, %function
 4246              	Measure_Sweep:
 4247              	.LFB110:
 762:main.c        **** 	VDAC_Vds_SetValue(90);
 4248              		.loc 2 762 0
 4249              		.cfi_startproc
 4250              		@ args = 0, pretend = 0, frame = 0
 4251              		@ frame_needed = 0, uses_anonymous_args = 0
 4252 0000 10B5     		push	{r4, lr}
 4253              		.cfi_def_cfa_offset 8
 4254              		.cfi_offset 4, -8
 4255              		.cfi_offset 14, -4
 763:main.c        **** 	VDAC_Vgs_SetValue(254);
 4256              		.loc 2 763 0
 4257 0002 5A20     		movs	r0, #90
 4258 0004 FFF7FEFF 		bl	VDAC_Vds_SetValue
 4259              	.LVL570:
 764:main.c        **** 	
 4260              		.loc 2 764 0
 4261 0008 FE20     		movs	r0, #254
 4262 000a FFF7FEFF 		bl	VDAC_Vgs_SetValue
 4263              	.LVL571:
 4264              	.LBB49:
 766:main.c        **** 		VDAC_Vgs_SetValue(Vgsi);
 4265              		.loc 2 766 0
 4266 000e 0024     		movs	r4, #0
 4267 0010 09E0     		b	.L375
 4268              	.LVL572:
 4269              	.L376:
 767:main.c        **** 		Measure(100, 1, 1);
 4270              		.loc 2 767 0 discriminator 3
 4271 0012 E0B2     		uxtb	r0, r4
 4272 0014 FFF7FEFF 		bl	VDAC_Vgs_SetValue
 4273              	.LVL573:
 768:main.c        **** 	}
 4274              		.loc 2 768 0 discriminator 3
 4275 0018 0122     		movs	r2, #1
 4276 001a 1146     		mov	r1, r2
 4277 001c 6420     		movs	r0, #100
 4278 001e FFF7FEFF 		bl	Measure
 4279              	.LVL574:
 766:main.c        **** 		VDAC_Vgs_SetValue(Vgsi);
 4280              		.loc 2 766 0 discriminator 3
 4281 0022 0134     		adds	r4, r4, #1
 4282              	.LVL575:
 4283 0024 A4B2     		uxth	r4, r4
 4284              	.LVL576:
 4285              	.L375:
 766:main.c        **** 		VDAC_Vgs_SetValue(Vgsi);
ARM GAS  C:\Users\FRANKL~1\AppData\Local\Temp\ccCAoJJX.s 			page 104


 4286              		.loc 2 766 0 is_stmt 0 discriminator 1
 4287 0026 FF2C     		cmp	r4, #255
 4288 0028 F3D9     		bls	.L376
 4289              	.LBE49:
 770:main.c        **** 
 4290              		.loc 2 770 0 is_stmt 1
 4291 002a 10BD     		pop	{r4, pc}
 4292              		.cfi_endproc
 4293              	.LFE110:
 4294              		.size	Measure_Sweep, .-Measure_Sweep
 4295              		.section	.text.Measure_Gate_Sweep,"ax",%progbits
 4296              		.align	2
 4297              		.global	Measure_Gate_Sweep
 4298              		.thumb
 4299              		.thumb_func
 4300              		.type	Measure_Gate_Sweep, %function
 4301              	Measure_Gate_Sweep:
 4302              	.LFB111:
 772:main.c        **** 	
 4303              		.loc 2 772 0
 4304              		.cfi_startproc
 4305              		@ args = 0, pretend = 0, frame = 0
 4306              		@ frame_needed = 0, uses_anonymous_args = 0
 4307              	.LVL577:
 4308 0000 2DE9F843 		push	{r3, r4, r5, r6, r7, r8, r9, lr}
 4309              		.cfi_def_cfa_offset 32
 4310              		.cfi_offset 3, -32
 4311              		.cfi_offset 4, -28
 4312              		.cfi_offset 5, -24
 4313              		.cfi_offset 6, -20
 4314              		.cfi_offset 7, -16
 4315              		.cfi_offset 8, -12
 4316              		.cfi_offset 9, -8
 4317              		.cfi_offset 14, -4
 4318 0004 8146     		mov	r9, r0
 774:main.c        **** 		Set_Ref_Raw(254 - Vds_Index_Goal_Relative);
 4319              		.loc 2 774 0
 4320 0006 274B     		ldr	r3, .L395
 4321 0008 B3F90030 		ldrsh	r3, [r3]
 4322 000c 002B     		cmp	r3, #0
 4323 000e 07DD     		ble	.L379
 775:main.c        **** 	} else {
 4324              		.loc 2 775 0
 4325 0010 C3F1FE00 		rsb	r0, r3, #254
 4326              	.LVL578:
 4327 0014 C0B2     		uxtb	r0, r0
 4328 0016 FFF7FEFF 		bl	Set_Ref_Raw
 4329              	.LVL579:
 4330              	.L381:
 4331              	.LBB50:
 4332              	.LBB51:
 4333              	.LBB52:
 4334 001a 4FF00008 		mov	r8, #0
 4335 001e 3DE0     		b	.L380
 4336              	.LVL580:
 4337              	.L379:
 4338              	.LBE52:
ARM GAS  C:\Users\FRANKL~1\AppData\Local\Temp\ccCAoJJX.s 			page 105


 4339              	.LBE51:
 4340              	.LBE50:
 777:main.c        **** 	}
 4341              		.loc 2 777 0
 4342 0020 FE20     		movs	r0, #254
 4343              	.LVL581:
 4344 0022 FFF7FEFF 		bl	Set_Ref_Raw
 4345              	.LVL582:
 4346 0026 F8E7     		b	.L381
 4347              	.LVL583:
 4348              	.L390:
 4349              	.LBB57:
 4350              	.LBB56:
 785:main.c        **** 			istart = -Vds_Index_Goal_Relative;
 4351              		.loc 2 785 0
 4352 0028 1E4B     		ldr	r3, .L395
 4353 002a B3F90030 		ldrsh	r3, [r3]
 4354 002e 002B     		cmp	r3, #0
 4355 0030 02DA     		bge	.L391
 786:main.c        **** 		}
 4356              		.loc 2 786 0
 4357 0032 5B42     		negs	r3, r3
 4358 0034 DDB2     		uxtb	r5, r3
 4359              	.LVL584:
 4360 0036 00E0     		b	.L382
 4361              	.LVL585:
 4362              	.L391:
 784:main.c        **** 		if (Vds_Index_Goal_Relative < 0) {
 4363              		.loc 2 784 0
 4364 0038 0025     		movs	r5, #0
 4365              	.LVL586:
 4366              	.L382:
 791:main.c        **** 			direction = -1*speed;
 4367              		.loc 2 791 0
 4368 003a 18F0010F 		tst	r8, #1
 4369 003e 02D1     		bne	.L392
 789:main.c        **** 		
 4370              		.loc 2 789 0
 4371 0040 F026     		movs	r6, #240
 783:main.c        **** 		uint8 istart = 0;
 4372              		.loc 2 783 0
 4373 0042 1027     		movs	r7, #16
 4374 0044 24E0     		b	.L384
 4375              	.L392:
 794:main.c        **** 		}
 4376              		.loc 2 794 0
 4377 0046 0026     		movs	r6, #0
 793:main.c        **** 			istop = 0;
 4378              		.loc 2 793 0
 4379 0048 F025     		movs	r5, #240
 4380              	.LVL587:
 792:main.c        **** 			istart = 256-speed;
 4381              		.loc 2 792 0
 4382 004a 6FF00F07 		mvn	r7, #15
 4383              	.LVL588:
 4384              	.LBB55:
 797:main.c        **** 			for (uint8 j = 0; j <= 1; j++) {
ARM GAS  C:\Users\FRANKL~1\AppData\Local\Temp\ccCAoJJX.s 			page 106


 4385              		.loc 2 797 0
 4386 004e 1FE0     		b	.L384
 4387              	.LVL589:
 4388              	.L388:
 4389              	.LBB53:
 799:main.c        **** 				Set_Vgs_Raw(i);
 4390              		.loc 2 799 0
 4391 0050 012C     		cmp	r4, #1
 4392 0052 03D1     		bne	.L385
 799:main.c        **** 				Set_Vgs_Raw(i);
 4393              		.loc 2 799 0 is_stmt 0 discriminator 1
 4394 0054 E843     		mvns	r0, r5
 4395 0056 C0B2     		uxtb	r0, r0
 4396 0058 FFF7FEFF 		bl	Set_Ref_Raw
 4397              	.LVL590:
 4398              	.L385:
 800:main.c        **** 				
 4399              		.loc 2 800 0 is_stmt 1
 4400 005c 2846     		mov	r0, r5
 4401 005e FFF7FEFF 		bl	Set_Vgs_Raw
 4402              	.LVL591:
 802:main.c        **** 				
 4403              		.loc 2 802 0
 4404 0062 0122     		movs	r2, #1
 4405 0064 1146     		mov	r1, r2
 4406 0066 2120     		movs	r0, #33
 4407 0068 FFF7FEFF 		bl	Measure
 4408              	.LVL592:
 804:main.c        **** 				while (G_Pause);
 4409              		.loc 2 804 0
 4410 006c 0E4B     		ldr	r3, .L395+4
 4411 006e 5B78     		ldrb	r3, [r3, #1]	@ zero_extendqisi2
 4412 0070 13F0FF0F 		tst	r3, #255
 4413 0074 0AD1     		bne	.L386
 4414              	.L387:
 805:main.c        **** 			}
 4415              		.loc 2 805 0 discriminator 1
 4416 0076 0C4B     		ldr	r3, .L395+4
 4417 0078 DB78     		ldrb	r3, [r3, #3]	@ zero_extendqisi2
 4418 007a 13F0FF0F 		tst	r3, #255
 4419 007e FAD1     		bne	.L387
 798:main.c        **** 				if (j == 1) Set_Ref_Raw(254 - i + 1);
 4420              		.loc 2 798 0 discriminator 2
 4421 0080 0134     		adds	r4, r4, #1
 4422              	.LVL593:
 4423 0082 E4B2     		uxtb	r4, r4
 4424              	.LVL594:
 4425 0084 00E0     		b	.L389
 4426              	.LVL595:
 4427              	.L393:
 4428              	.LBE53:
 4429 0086 0024     		movs	r4, #0
 4430              	.L389:
 4431              	.LVL596:
 4432              	.LBB54:
 798:main.c        **** 				if (j == 1) Set_Ref_Raw(254 - i + 1);
 4433              		.loc 2 798 0 is_stmt 0 discriminator 1
ARM GAS  C:\Users\FRANKL~1\AppData\Local\Temp\ccCAoJJX.s 			page 107


 4434 0088 012C     		cmp	r4, #1
 4435 008a E1D9     		bls	.L388
 4436              	.L386:
 4437              	.LBE54:
 797:main.c        **** 			for (uint8 j = 0; j <= 1; j++) {
 4438              		.loc 2 797 0 is_stmt 1 discriminator 2
 4439 008c 3D44     		add	r5, r5, r7
 4440              	.LVL597:
 4441 008e EDB2     		uxtb	r5, r5
 4442              	.LVL598:
 4443              	.L384:
 797:main.c        **** 			for (uint8 j = 0; j <= 1; j++) {
 4444              		.loc 2 797 0 is_stmt 0 discriminator 1
 4445 0090 AE42     		cmp	r6, r5
 4446 0092 F8D1     		bne	.L393
 4447              	.LBE55:
 4448              	.LBE56:
 782:main.c        **** 		int8 direction = 1*speed;
 4449              		.loc 2 782 0 is_stmt 1 discriminator 2
 4450 0094 08F10108 		add	r8, r8, #1
 4451              	.LVL599:
 4452 0098 5FFA88F8 		uxtb	r8, r8
 4453              	.LVL600:
 4454              	.L380:
 782:main.c        **** 		int8 direction = 1*speed;
 4455              		.loc 2 782 0 is_stmt 0 discriminator 1
 4456 009c C845     		cmp	r8, r9
 4457 009e C3D9     		bls	.L390
 4458              	.LBE57:
 809:main.c        **** 
 4459              		.loc 2 809 0 is_stmt 1
 4460 00a0 BDE8F883 		pop	{r3, r4, r5, r6, r7, r8, r9, pc}
 4461              	.LVL601:
 4462              	.L396:
 4463              		.align	2
 4464              	.L395:
 4465 00a4 00000000 		.word	Vds_Index_Goal_Relative
 4466 00a8 00000000 		.word	.LANCHOR0
 4467              		.cfi_endproc
 4468              	.LFE111:
 4469              		.size	Measure_Gate_Sweep, .-Measure_Gate_Sweep
 4470              		.section	.text.Measure_Wide_Gate_Sweep,"ax",%progbits
 4471              		.align	2
 4472              		.global	Measure_Wide_Gate_Sweep
 4473              		.thumb
 4474              		.thumb_func
 4475              		.type	Measure_Wide_Gate_Sweep, %function
 4476              	Measure_Wide_Gate_Sweep:
 4477              	.LFB112:
 811:main.c        **** 	Set_Ref_Raw(254);
 4478              		.loc 2 811 0
 4479              		.cfi_startproc
 4480              		@ args = 0, pretend = 0, frame = 0
 4481              		@ frame_needed = 0, uses_anonymous_args = 0
 4482              	.LVL602:
 4483 0000 2DE9F843 		push	{r3, r4, r5, r6, r7, r8, r9, lr}
 4484              		.cfi_def_cfa_offset 32
ARM GAS  C:\Users\FRANKL~1\AppData\Local\Temp\ccCAoJJX.s 			page 108


 4485              		.cfi_offset 3, -32
 4486              		.cfi_offset 4, -28
 4487              		.cfi_offset 5, -24
 4488              		.cfi_offset 6, -20
 4489              		.cfi_offset 7, -16
 4490              		.cfi_offset 8, -12
 4491              		.cfi_offset 9, -8
 4492              		.cfi_offset 14, -4
 4493 0004 8146     		mov	r9, r0
 812:main.c        **** 	
 4494              		.loc 2 812 0
 4495 0006 FE20     		movs	r0, #254
 4496              	.LVL603:
 4497 0008 FFF7FEFF 		bl	Set_Ref_Raw
 4498              	.LVL604:
 4499              	.LBB58:
 816:main.c        **** 		int8 direction = 1*speed;
 4500              		.loc 2 816 0
 4501 000c 4FF00008 		mov	r8, #0
 4502 0010 31E0     		b	.L398
 4503              	.LVL605:
 4504              	.L406:
 4505              	.LBB59:
 821:main.c        **** 			direction = -1*speed;
 4506              		.loc 2 821 0
 4507 0012 18F0010F 		tst	r8, #1
 4508 0016 03D1     		bne	.L407
 819:main.c        **** 		
 4509              		.loc 2 819 0
 4510 0018 F026     		movs	r6, #240
 818:main.c        **** 		uint8 istop = 256-speed;
 4511              		.loc 2 818 0
 4512 001a 0025     		movs	r5, #0
 817:main.c        **** 		uint8 istart = 0;
 4513              		.loc 2 817 0
 4514 001c 1027     		movs	r7, #16
 4515 001e 24E0     		b	.L400
 4516              	.L407:
 824:main.c        **** 		}
 4517              		.loc 2 824 0
 4518 0020 0026     		movs	r6, #0
 823:main.c        **** 			istop = 0;
 4519              		.loc 2 823 0
 4520 0022 F025     		movs	r5, #240
 822:main.c        **** 			istart = 256-speed;
 4521              		.loc 2 822 0
 4522 0024 6FF00F07 		mvn	r7, #15
 4523              	.LVL606:
 4524              	.LBB60:
 827:main.c        **** 			for (uint8 j = 0; j <= 1; j++) {
 4525              		.loc 2 827 0
 4526 0028 1FE0     		b	.L400
 4527              	.LVL607:
 4528              	.L404:
 4529              	.LBB61:
 830:main.c        **** 				Set_Vgs_Raw(i);
 4530              		.loc 2 830 0
ARM GAS  C:\Users\FRANKL~1\AppData\Local\Temp\ccCAoJJX.s 			page 109


 4531 002a 012C     		cmp	r4, #1
 4532 002c 03D1     		bne	.L401
 830:main.c        **** 				Set_Vgs_Raw(i);
 4533              		.loc 2 830 0 is_stmt 0 discriminator 1
 4534 002e E843     		mvns	r0, r5
 4535 0030 C0B2     		uxtb	r0, r0
 4536 0032 FFF7FEFF 		bl	Set_Ref_Raw
 4537              	.LVL608:
 4538              	.L401:
 831:main.c        **** 				
 4539              		.loc 2 831 0 is_stmt 1
 4540 0036 2846     		mov	r0, r5
 4541 0038 FFF7FEFF 		bl	Set_Vgs_Raw
 4542              	.LVL609:
 833:main.c        **** 				
 4543              		.loc 2 833 0
 4544 003c 0122     		movs	r2, #1
 4545 003e 1146     		mov	r1, r2
 4546 0040 2120     		movs	r0, #33
 4547 0042 FFF7FEFF 		bl	Measure
 4548              	.LVL610:
 835:main.c        **** 				while (G_Pause);
 4549              		.loc 2 835 0
 4550 0046 0E4B     		ldr	r3, .L410
 4551 0048 5B78     		ldrb	r3, [r3, #1]	@ zero_extendqisi2
 4552 004a 13F0FF0F 		tst	r3, #255
 4553 004e 0AD1     		bne	.L402
 4554              	.L403:
 836:main.c        **** 			}
 4555              		.loc 2 836 0 discriminator 1
 4556 0050 0B4B     		ldr	r3, .L410
 4557 0052 DB78     		ldrb	r3, [r3, #3]	@ zero_extendqisi2
 4558 0054 13F0FF0F 		tst	r3, #255
 4559 0058 FAD1     		bne	.L403
 828:main.c        **** 				
 4560              		.loc 2 828 0 discriminator 2
 4561 005a 0134     		adds	r4, r4, #1
 4562              	.LVL611:
 4563 005c E4B2     		uxtb	r4, r4
 4564              	.LVL612:
 4565 005e 00E0     		b	.L405
 4566              	.LVL613:
 4567              	.L408:
 4568              	.LBE61:
 4569 0060 0024     		movs	r4, #0
 4570              	.L405:
 4571              	.LVL614:
 4572              	.LBB62:
 828:main.c        **** 				
 4573              		.loc 2 828 0 is_stmt 0 discriminator 1
 4574 0062 012C     		cmp	r4, #1
 4575 0064 E1D9     		bls	.L404
 4576              	.L402:
 4577              	.LBE62:
 827:main.c        **** 			for (uint8 j = 0; j <= 1; j++) {
 4578              		.loc 2 827 0 is_stmt 1 discriminator 2
 4579 0066 3D44     		add	r5, r5, r7
ARM GAS  C:\Users\FRANKL~1\AppData\Local\Temp\ccCAoJJX.s 			page 110


 4580              	.LVL615:
 4581 0068 EDB2     		uxtb	r5, r5
 4582              	.LVL616:
 4583              	.L400:
 827:main.c        **** 			for (uint8 j = 0; j <= 1; j++) {
 4584              		.loc 2 827 0 is_stmt 0 discriminator 1
 4585 006a AE42     		cmp	r6, r5
 4586 006c F8D1     		bne	.L408
 4587              	.LBE60:
 4588              	.LBE59:
 816:main.c        **** 		int8 direction = 1*speed;
 4589              		.loc 2 816 0 is_stmt 1 discriminator 2
 4590 006e 08F10108 		add	r8, r8, #1
 4591              	.LVL617:
 4592 0072 5FFA88F8 		uxtb	r8, r8
 4593              	.LVL618:
 4594              	.L398:
 816:main.c        **** 		int8 direction = 1*speed;
 4595              		.loc 2 816 0 is_stmt 0 discriminator 1
 4596 0076 C845     		cmp	r8, r9
 4597 0078 CBD9     		bls	.L406
 4598              	.LBE58:
 840:main.c        **** 
 4599              		.loc 2 840 0 is_stmt 1
 4600 007a BDE8F883 		pop	{r3, r4, r5, r6, r7, r8, r9, pc}
 4601              	.LVL619:
 4602              	.L411:
 4603 007e 00BF     		.align	2
 4604              	.L410:
 4605 0080 00000000 		.word	.LANCHOR0
 4606              		.cfi_endproc
 4607              	.LFE112:
 4608              		.size	Measure_Wide_Gate_Sweep, .-Measure_Wide_Gate_Sweep
 4609              		.section	.text.Measure_Gate_Sweep_New,"ax",%progbits
 4610              		.align	2
 4611              		.global	Measure_Gate_Sweep_New
 4612              		.thumb
 4613              		.thumb_func
 4614              		.type	Measure_Gate_Sweep_New, %function
 4615              	Measure_Gate_Sweep_New:
 4616              	.LFB113:
 842:main.c        **** 	uint8 refTurn = 1;
 4617              		.loc 2 842 0
 4618              		.cfi_startproc
 4619              		@ args = 0, pretend = 0, frame = 0
 4620              		@ frame_needed = 0, uses_anonymous_args = 0
 4621 0000 2DE9F843 		push	{r3, r4, r5, r6, r7, r8, r9, lr}
 4622              		.cfi_def_cfa_offset 32
 4623              		.cfi_offset 3, -32
 4624              		.cfi_offset 4, -28
 4625              		.cfi_offset 5, -24
 4626              		.cfi_offset 6, -20
 4627              		.cfi_offset 7, -16
 4628              		.cfi_offset 8, -12
 4629              		.cfi_offset 9, -8
 4630              		.cfi_offset 14, -4
 4631              	.LVL620:
ARM GAS  C:\Users\FRANKL~1\AppData\Local\Temp\ccCAoJJX.s 			page 111


 854:main.c        **** 	
 4632              		.loc 2 854 0
 4633 0004 0027     		movs	r7, #0
 853:main.c        **** 	uint8 gateArrived = 0;
 4634              		.loc 2 853 0
 4635 0006 3E46     		mov	r6, r7
 848:main.c        **** 	
 4636              		.loc 2 848 0
 4637 0008 B946     		mov	r9, r7
 847:main.c        **** 	uint8 refArrived = 0;
 4638              		.loc 2 847 0
 4639 000a 3D46     		mov	r5, r7
 843:main.c        **** 	int8 refIncrement = 1;
 4640              		.loc 2 843 0
 4641 000c 0124     		movs	r4, #1
 857:main.c        **** 		gateArrived = abs(gateIndex-endGateIndex) < abs(gateIncrement);
 4642              		.loc 2 857 0
 4643 000e 39E0     		b	.L413
 4644              	.LVL621:
 4645              	.L421:
 858:main.c        **** 		refArrived = abs(refIndex-endRefIndex) < abs(refIncrement);
 4646              		.loc 2 858 0
 4647 0010 86EAE673 		eor	r3, r6, r6, asr #31
 4648 0014 A3EBE673 		sub	r3, r3, r6, asr #31
 4649 0018 002B     		cmp	r3, #0
 4650 001a CCBF     		ite	gt
 4651 001c 0027     		movgt	r7, #0
 4652              	.LVL622:
 4653 001e 0127     		movle	r7, #1
 4654              	.LVL623:
 859:main.c        **** 		
 4655              		.loc 2 859 0
 4656 0020 85EAE572 		eor	r2, r5, r5, asr #31
 4657 0024 A2EBE572 		sub	r2, r2, r5, asr #31
 4658 0028 002A     		cmp	r2, #0
 4659 002a CCBF     		ite	gt
 4660 002c 4FF00009 		movgt	r9, #0
 4661              	.LVL624:
 4662 0030 4FF00109 		movle	r9, #1
 4663              	.LVL625:
 861:main.c        **** 		
 4664              		.loc 2 861 0
 4665 0034 002C     		cmp	r4, #0
 4666 0036 0CBF     		ite	eq
 4667 0038 4FF00108 		moveq	r8, #1
 4668 003c 4FF00008 		movne	r8, #0
 4669              	.LVL626:
 863:main.c        **** 		if (!refTurn && gateArrived) continue;
 4670              		.loc 2 863 0
 4671 0040 01D1     		bne	.L414
 863:main.c        **** 		if (!refTurn && gateArrived) continue;
 4672              		.loc 2 863 0 is_stmt 0 discriminator 1
 4673 0042 002A     		cmp	r2, #0
 4674 0044 1DDD     		ble	.L415
 4675              	.L414:
 864:main.c        **** 		
 4676              		.loc 2 864 0 is_stmt 1
ARM GAS  C:\Users\FRANKL~1\AppData\Local\Temp\ccCAoJJX.s 			page 112


 4677 0046 0CB1     		cbz	r4, .L416
 864:main.c        **** 		
 4678              		.loc 2 864 0 is_stmt 0 discriminator 1
 4679 0048 002B     		cmp	r3, #0
 4680 004a 1ADD     		ble	.L415
 4681              	.L416:
 866:main.c        **** 		Set_Vgs_Raw(gateIndex);
 4682              		.loc 2 866 0 is_stmt 1
 4683 004c 2846     		mov	r0, r5
 4684 004e FFF7FEFF 		bl	Set_Ref_Raw
 4685              	.LVL627:
 867:main.c        **** 		
 4686              		.loc 2 867 0
 4687 0052 3046     		mov	r0, r6
 4688 0054 FFF7FEFF 		bl	Set_Vgs_Raw
 4689              	.LVL628:
 869:main.c        **** 		
 4690              		.loc 2 869 0
 4691 0058 0122     		movs	r2, #1
 4692 005a 1146     		mov	r1, r2
 4693 005c 6420     		movs	r0, #100
 4694 005e FFF7FEFF 		bl	Measure
 4695              	.LVL629:
 871:main.c        **** 			refIndex += refIncrement;
 4696              		.loc 2 871 0
 4697 0062 14B9     		cbnz	r4, .L417
 872:main.c        **** 		} else {
 4698              		.loc 2 872 0
 4699 0064 0135     		adds	r5, r5, #1
 4700              	.LVL630:
 4701 0066 EDB2     		uxtb	r5, r5
 4702              	.LVL631:
 4703 0068 01E0     		b	.L418
 4704              	.L417:
 874:main.c        **** 		}
 4705              		.loc 2 874 0
 4706 006a 0136     		adds	r6, r6, #1
 4707              	.LVL632:
 4708 006c F6B2     		uxtb	r6, r6
 4709              	.LVL633:
 4710              	.L418:
 877:main.c        **** 		while (G_Pause);
 4711              		.loc 2 877 0
 4712 006e 094B     		ldr	r3, .L423
 4713 0070 5B78     		ldrb	r3, [r3, #1]	@ zero_extendqisi2
 4714 0072 13F0FF0F 		tst	r3, #255
 4715 0076 0AD1     		bne	.L412
 4716              	.L420:
 878:main.c        **** 	}
 4717              		.loc 2 878 0 discriminator 1
 4718 0078 064B     		ldr	r3, .L423
 4719 007a DB78     		ldrb	r3, [r3, #3]	@ zero_extendqisi2
 4720 007c 13F0FF0F 		tst	r3, #255
 4721 0080 FAD1     		bne	.L420
 4722              	.L415:
 842:main.c        **** 	uint8 refTurn = 1;
 4723              		.loc 2 842 0
ARM GAS  C:\Users\FRANKL~1\AppData\Local\Temp\ccCAoJJX.s 			page 113


 4724 0082 4446     		mov	r4, r8
 4725              	.LVL634:
 4726              	.L413:
 857:main.c        **** 		gateArrived = abs(gateIndex-endGateIndex) < abs(gateIncrement);
 4727              		.loc 2 857 0
 4728 0084 002F     		cmp	r7, #0
 4729 0086 C3D0     		beq	.L421
 857:main.c        **** 		gateArrived = abs(gateIndex-endGateIndex) < abs(gateIncrement);
 4730              		.loc 2 857 0 is_stmt 0 discriminator 1
 4731 0088 B9F1000F 		cmp	r9, #0
 4732 008c C0D0     		beq	.L421
 4733              	.LVL635:
 4734              	.L412:
 4735 008e BDE8F883 		pop	{r3, r4, r5, r6, r7, r8, r9, pc}
 4736              	.LVL636:
 4737              	.L424:
 4738 0092 00BF     		.align	2
 4739              	.L423:
 4740 0094 00000000 		.word	.LANCHOR0
 4741              		.cfi_endproc
 4742              	.LFE113:
 4743              		.size	Measure_Gate_Sweep_New, .-Measure_Gate_Sweep_New
 4744              		.section	.text.Scan,"ax",%progbits
 4745              		.align	2
 4746              		.global	Scan
 4747              		.thumb
 4748              		.thumb_func
 4749              		.type	Scan, %function
 4750              	Scan:
 4751              	.LFB114:
 882:main.c        **** 	for (uint8 device = 1; device <= CONTACT_COUNT/**//2; device++) {
 4752              		.loc 2 882 0 is_stmt 1
 4753              		.cfi_startproc
 4754              		@ args = 0, pretend = 0, frame = 0
 4755              		@ frame_needed = 0, uses_anonymous_args = 0
 4756              	.LVL637:
 4757 0000 F8B5     		push	{r3, r4, r5, r6, r7, lr}
 4758              		.cfi_def_cfa_offset 24
 4759              		.cfi_offset 3, -24
 4760              		.cfi_offset 4, -20
 4761              		.cfi_offset 5, -16
 4762              		.cfi_offset 6, -12
 4763              		.cfi_offset 7, -8
 4764              		.cfi_offset 14, -4
 4765 0002 0646     		mov	r6, r0
 4766 0004 0F46     		mov	r7, r1
 4767              	.LVL638:
 4768              	.LBB63:
 883:main.c        **** 		uint8 contact1 = device;
 4769              		.loc 2 883 0
 4770 0006 0124     		movs	r4, #1
 4771 0008 2EE0     		b	.L426
 4772              	.LVL639:
 4773              	.L431:
 4774              	.LBB64:
 885:main.c        **** 		uint8 intermediate1 = 1;
 4775              		.loc 2 885 0
ARM GAS  C:\Users\FRANKL~1\AppData\Local\Temp\ccCAoJJX.s 			page 114


 4776 000a 651C     		adds	r5, r4, #1
 4777 000c EDB2     		uxtb	r5, r5
 4778              	.LVL640:
 889:main.c        **** 		Zero_All_DACs();
 4779              		.loc 2 889 0
 4780 000e FFF7FEFF 		bl	Disconnect_All_Contacts_From_All_Intermediates
 4781              	.LVL641:
 890:main.c        **** 		Connect_Intermediates();
 4782              		.loc 2 890 0
 4783 0012 FFF7FEFF 		bl	Zero_All_DACs
 4784              	.LVL642:
 891:main.c        **** 		Connect_Contact_To_Intermediate(contact1, intermediate1);
 4785              		.loc 2 891 0
 4786 0016 FFF7FEFF 		bl	Connect_Intermediates
 4787              	.LVL643:
 892:main.c        **** 		Connect_Contact_To_Intermediate(contact2, intermediate2);
 4788              		.loc 2 892 0
 4789 001a 0121     		movs	r1, #1
 4790 001c 2046     		mov	r0, r4
 4791 001e FFF7FEFF 		bl	Connect_Contact_To_Intermediate
 4792              	.LVL644:
 893:main.c        **** 		
 4793              		.loc 2 893 0
 4794 0022 0221     		movs	r1, #2
 4795 0024 2846     		mov	r0, r5
 4796 0026 FFF7FEFF 		bl	Connect_Contact_To_Intermediate
 4797              	.LVL645:
 895:main.c        **** 		sendTransmitBuffer();
 4798              		.loc 2 895 0
 4799 002a 2246     		mov	r2, r4
 4800 002c 1049     		ldr	r1, .L433
 4801 002e 1148     		ldr	r0, .L433+4
 4802 0030 FFF7FEFF 		bl	sprintf
 4803              	.LVL646:
 896:main.c        **** 		
 4804              		.loc 2 896 0
 4805 0034 FFF7FEFF 		bl	sendTransmitBuffer
 4806              	.LVL647:
 898:main.c        **** 			Measure_Wide_Gate_Sweep(loop);
 4807              		.loc 2 898 0
 4808 0038 1EB1     		cbz	r6, .L427
 899:main.c        **** 		} else {
 4809              		.loc 2 899 0
 4810 003a 3846     		mov	r0, r7
 4811 003c FFF7FEFF 		bl	Measure_Wide_Gate_Sweep
 4812              	.LVL648:
 4813 0040 02E0     		b	.L428
 4814              	.L427:
 901:main.c        **** 		}
 4815              		.loc 2 901 0
 4816 0042 3846     		mov	r0, r7
 4817 0044 FFF7FEFF 		bl	Measure_Gate_Sweep
 4818              	.LVL649:
 4819              	.L428:
 904:main.c        **** 		while (G_Pause);
 4820              		.loc 2 904 0
 4821 0048 0B4B     		ldr	r3, .L433+8
ARM GAS  C:\Users\FRANKL~1\AppData\Local\Temp\ccCAoJJX.s 			page 115


 4822 004a 9B78     		ldrb	r3, [r3, #2]	@ zero_extendqisi2
 4823 004c 13F0FF0F 		tst	r3, #255
 4824 0050 0CD1     		bne	.L425
 904:main.c        **** 		while (G_Pause);
 4825              		.loc 2 904 0 is_stmt 0 discriminator 1
 4826 0052 094B     		ldr	r3, .L433+8
 4827 0054 5B78     		ldrb	r3, [r3, #1]	@ zero_extendqisi2
 4828 0056 13F0FF0F 		tst	r3, #255
 4829 005a 07D1     		bne	.L425
 4830              	.L430:
 905:main.c        **** 	}
 4831              		.loc 2 905 0 is_stmt 1 discriminator 1
 4832 005c 064B     		ldr	r3, .L433+8
 4833 005e DB78     		ldrb	r3, [r3, #3]	@ zero_extendqisi2
 4834 0060 13F0FF0F 		tst	r3, #255
 4835 0064 FAD1     		bne	.L430
 4836              	.LBE64:
 883:main.c        **** 		uint8 contact1 = device;
 4837              		.loc 2 883 0
 4838 0066 2C46     		mov	r4, r5
 4839              	.LVL650:
 4840              	.L426:
 883:main.c        **** 		uint8 contact1 = device;
 4841              		.loc 2 883 0 is_stmt 0 discriminator 1
 4842 0068 202C     		cmp	r4, #32
 4843 006a CED9     		bls	.L431
 4844              	.L425:
 4845 006c F8BD     		pop	{r3, r4, r5, r6, r7, pc}
 4846              	.LVL651:
 4847              	.L434:
 4848 006e 00BF     		.align	2
 4849              	.L433:
 4850 0070 EC000000 		.word	.LC14
 4851 0074 00000000 		.word	TransmitBuffer
 4852 0078 00000000 		.word	.LANCHOR0
 4853              	.LBE63:
 4854              		.cfi_endproc
 4855              	.LFE114:
 4856              		.size	Scan, .-Scan
 4857              		.section	.text.Scan_Range,"ax",%progbits
 4858              		.align	2
 4859              		.global	Scan_Range
 4860              		.thumb
 4861              		.thumb_func
 4862              		.type	Scan_Range, %function
 4863              	Scan_Range:
 4864              	.LFB115:
 909:main.c        **** 	if (startDevice >= CONTACT_COUNT) return;
 4865              		.loc 2 909 0 is_stmt 1
 4866              		.cfi_startproc
 4867              		@ args = 0, pretend = 0, frame = 0
 4868              		@ frame_needed = 0, uses_anonymous_args = 0
 4869              	.LVL652:
 910:main.c        **** 	if (stopDevice >= CONTACT_COUNT) return;
 4870              		.loc 2 910 0
 4871 0000 3F28     		cmp	r0, #63
 4872 0002 3CD8     		bhi	.L443
ARM GAS  C:\Users\FRANKL~1\AppData\Local\Temp\ccCAoJJX.s 			page 116


 909:main.c        **** 	if (startDevice >= CONTACT_COUNT) return;
 4873              		.loc 2 909 0
 4874 0004 2DE9F041 		push	{r4, r5, r6, r7, r8, lr}
 4875              		.cfi_def_cfa_offset 24
 4876              		.cfi_offset 4, -24
 4877              		.cfi_offset 5, -20
 4878              		.cfi_offset 6, -16
 4879              		.cfi_offset 7, -12
 4880              		.cfi_offset 8, -8
 4881              		.cfi_offset 14, -4
 4882 0008 0446     		mov	r4, r0
 4883 000a 0E46     		mov	r6, r1
 4884 000c 1746     		mov	r7, r2
 4885 000e 9846     		mov	r8, r3
 911:main.c        **** 	
 4886              		.loc 2 911 0
 4887 0010 3F29     		cmp	r1, #63
 4888 0012 30D9     		bls	.L437
 4889 0014 BDE8F081 		pop	{r4, r5, r6, r7, r8, pc}
 4890              	.LVL653:
 4891              	.L441:
 4892              	.LBB65:
 4893              	.LBB66:
 915:main.c        **** 		uint8 intermediate1 = 1;
 4894              		.loc 2 915 0
 4895 0018 651C     		adds	r5, r4, #1
 4896 001a EDB2     		uxtb	r5, r5
 4897              	.LVL654:
 919:main.c        **** 		Zero_All_DACs();
 4898              		.loc 2 919 0
 4899 001c FFF7FEFF 		bl	Disconnect_All_Contacts_From_All_Intermediates
 4900              	.LVL655:
 920:main.c        **** 		Connect_Intermediates();
 4901              		.loc 2 920 0
 4902 0020 FFF7FEFF 		bl	Zero_All_DACs
 4903              	.LVL656:
 921:main.c        **** 		Connect_Contact_To_Intermediate(contact1, intermediate1);
 4904              		.loc 2 921 0
 4905 0024 FFF7FEFF 		bl	Connect_Intermediates
 4906              	.LVL657:
 922:main.c        **** 		Connect_Contact_To_Intermediate(contact2, intermediate2);
 4907              		.loc 2 922 0
 4908 0028 0121     		movs	r1, #1
 4909 002a 2046     		mov	r0, r4
 4910 002c FFF7FEFF 		bl	Connect_Contact_To_Intermediate
 4911              	.LVL658:
 923:main.c        **** 		
 4912              		.loc 2 923 0
 4913 0030 0221     		movs	r1, #2
 4914 0032 2846     		mov	r0, r5
 4915 0034 FFF7FEFF 		bl	Connect_Contact_To_Intermediate
 4916              	.LVL659:
 925:main.c        **** 		sendTransmitBuffer();
 4917              		.loc 2 925 0
 4918 0038 2246     		mov	r2, r4
 4919 003a 1149     		ldr	r1, .L444
 4920 003c 1148     		ldr	r0, .L444+4
ARM GAS  C:\Users\FRANKL~1\AppData\Local\Temp\ccCAoJJX.s 			page 117


 4921 003e FFF7FEFF 		bl	sprintf
 4922              	.LVL660:
 926:main.c        **** 		
 4923              		.loc 2 926 0
 4924 0042 FFF7FEFF 		bl	sendTransmitBuffer
 4925              	.LVL661:
 928:main.c        **** 			Measure_Wide_Gate_Sweep(loop);
 4926              		.loc 2 928 0
 4927 0046 1FB1     		cbz	r7, .L438
 929:main.c        **** 		} else {
 4928              		.loc 2 929 0
 4929 0048 4046     		mov	r0, r8
 4930 004a FFF7FEFF 		bl	Measure_Wide_Gate_Sweep
 4931              	.LVL662:
 4932 004e 02E0     		b	.L439
 4933              	.L438:
 931:main.c        **** 		}
 4934              		.loc 2 931 0
 4935 0050 4046     		mov	r0, r8
 4936 0052 FFF7FEFF 		bl	Measure_Gate_Sweep
 4937              	.LVL663:
 4938              	.L439:
 934:main.c        **** 		while (G_Pause);
 4939              		.loc 2 934 0
 4940 0056 0C4B     		ldr	r3, .L444+8
 4941 0058 9B78     		ldrb	r3, [r3, #2]	@ zero_extendqisi2
 4942 005a 13F0FF0F 		tst	r3, #255
 4943 005e 0CD1     		bne	.L435
 934:main.c        **** 		while (G_Pause);
 4944              		.loc 2 934 0 is_stmt 0 discriminator 1
 4945 0060 094B     		ldr	r3, .L444+8
 4946 0062 5B78     		ldrb	r3, [r3, #1]	@ zero_extendqisi2
 4947 0064 13F0FF0F 		tst	r3, #255
 4948 0068 07D1     		bne	.L435
 4949              	.L440:
 935:main.c        **** 	}
 4950              		.loc 2 935 0 is_stmt 1 discriminator 1
 4951 006a 074B     		ldr	r3, .L444+8
 4952 006c DB78     		ldrb	r3, [r3, #3]	@ zero_extendqisi2
 4953 006e 13F0FF0F 		tst	r3, #255
 4954 0072 FAD1     		bne	.L440
 4955              	.LBE66:
 913:main.c        **** 		uint8 contact1 = device;
 4956              		.loc 2 913 0
 4957 0074 2C46     		mov	r4, r5
 4958              	.LVL664:
 4959              	.L437:
 913:main.c        **** 		uint8 contact1 = device;
 4960              		.loc 2 913 0 is_stmt 0 discriminator 1
 4961 0076 B442     		cmp	r4, r6
 4962 0078 CED9     		bls	.L441
 4963              	.L435:
 4964 007a BDE8F081 		pop	{r4, r5, r6, r7, r8, pc}
 4965              	.LVL665:
 4966              	.L443:
 4967              		.cfi_def_cfa_offset 0
 4968              		.cfi_restore 4
ARM GAS  C:\Users\FRANKL~1\AppData\Local\Temp\ccCAoJJX.s 			page 118


 4969              		.cfi_restore 5
 4970              		.cfi_restore 6
 4971              		.cfi_restore 7
 4972              		.cfi_restore 8
 4973              		.cfi_restore 14
 4974 007e 7047     		bx	lr
 4975              	.L445:
 4976              		.align	2
 4977              	.L444:
 4978 0080 EC000000 		.word	.LC14
 4979 0084 00000000 		.word	TransmitBuffer
 4980 0088 00000000 		.word	.LANCHOR0
 4981              	.LBE65:
 4982              		.cfi_endproc
 4983              	.LFE115:
 4984              		.size	Scan_Range, .-Scan_Range
 4985              		.section	.text.main,"ax",%progbits
 4986              		.align	2
 4987              		.global	main
 4988              		.thumb
 4989              		.thumb_func
 4990              		.type	main, %function
 4991              	main:
 4992              	.LFB117:
1008:main.c        **** 
1009:main.c        **** int main(void) {
 4993              		.loc 2 1009 0 is_stmt 1
 4994              		.cfi_startproc
 4995              		@ args = 0, pretend = 0, frame = 8
 4996              		@ frame_needed = 0, uses_anonymous_args = 0
 4997 0000 F0B5     		push	{r4, r5, r6, r7, lr}
 4998              		.cfi_def_cfa_offset 20
 4999              		.cfi_offset 4, -20
 5000              		.cfi_offset 5, -16
 5001              		.cfi_offset 6, -12
 5002              		.cfi_offset 7, -8
 5003              		.cfi_offset 14, -4
 5004 0002 83B0     		sub	sp, sp, #12
 5005              		.cfi_def_cfa_offset 32
1010:main.c        **** 	CyGlobalIntEnable;
 5006              		.loc 2 1010 0
 5007              		.syntax unified
 5008              	@ 1010 "main.c" 1
 5009 0004 62B6     		CPSIE   i
 5010              	@ 0 "" 2
1011:main.c        **** 	
1012:main.c        **** 	Setup_Selectors();
 5011              		.loc 2 1012 0
 5012              		.thumb
 5013              		.syntax unified
 5014 0006 FFF7FEFF 		bl	Setup_Selectors
 5015              	.LVL666:
1013:main.c        **** 	
1014:main.c        **** 	USBUART_Start(0u, USBUART_5V_OPERATION);
 5016              		.loc 2 1014 0
 5017 000a 0121     		movs	r1, #1
 5018 000c 0020     		movs	r0, #0
ARM GAS  C:\Users\FRANKL~1\AppData\Local\Temp\ccCAoJJX.s 			page 119


 5019 000e FFF7FEFF 		bl	USBUART_Start
 5020              	.LVL667:
1015:main.c        **** 	UART_1_Start();
 5021              		.loc 2 1015 0
 5022 0012 FFF7FEFF 		bl	UART_1_Start
 5023              	.LVL668:
1016:main.c        **** 	VDAC_Vds_Start();
 5024              		.loc 2 1016 0
 5025 0016 FFF7FEFF 		bl	VDAC_Vds_Start
 5026              	.LVL669:
1017:main.c        **** 	VDAC_Vgs_Start();
 5027              		.loc 2 1017 0
 5028 001a FFF7FEFF 		bl	VDAC_Vgs_Start
 5029              	.LVL670:
1018:main.c        **** 	VDAC_Ref_Start();
 5030              		.loc 2 1018 0
 5031 001e FFF7FEFF 		bl	VDAC_Ref_Start
 5032              	.LVL671:
1019:main.c        **** 	ADC_DelSig_1_Start();
 5033              		.loc 2 1019 0
 5034 0022 FFF7FEFF 		bl	ADC_DelSig_1_Start
 5035              	.LVL672:
1020:main.c        **** 	TIA_1_Start();
 5036              		.loc 2 1020 0
 5037 0026 FFF7FEFF 		bl	TIA_1_Start
 5038              	.LVL673:
1021:main.c        **** 	I2C_1_Start();
 5039              		.loc 2 1021 0
 5040 002a FFF7FEFF 		bl	I2C_1_Start
 5041              	.LVL674:
1022:main.c        **** 	ADC_SAR_1_Start();
 5042              		.loc 2 1022 0
 5043 002e FFF7FEFF 		bl	ADC_SAR_1_Start
 5044              	.LVL675:
1023:main.c        **** 	ADC_SAR_2_Start();
 5045              		.loc 2 1023 0
 5046 0032 FFF7FEFF 		bl	ADC_SAR_2_Start
 5047              	.LVL676:
1024:main.c        **** 	
1025:main.c        **** 	//Start the op-amp buffers
1026:main.c        **** 	Opamp_1_Start();
 5048              		.loc 2 1026 0
 5049 0036 FFF7FEFF 		bl	Opamp_1_Start
 5050              	.LVL677:
1027:main.c        **** 	Opamp_2_Start();
 5051              		.loc 2 1027 0
 5052 003a FFF7FEFF 		bl	Opamp_2_Start
 5053              	.LVL678:
1028:main.c        **** 	
1029:main.c        **** 	CyDelay(1000);
 5054              		.loc 2 1029 0
 5055 003e 4FF47A70 		mov	r0, #1000
 5056 0042 FFF7FEFF 		bl	CyDelay
 5057              	.LVL679:
1030:main.c        **** 	
1031:main.c        **** 	UART_1_PutString("\r\n# Starting\r\n");
 5058              		.loc 2 1031 0
ARM GAS  C:\Users\FRANKL~1\AppData\Local\Temp\ccCAoJJX.s 			page 120


 5059 0046 C748     		ldr	r0, .L487
 5060 0048 FFF7FEFF 		bl	UART_1_PutString
 5061              	.LVL680:
1032:main.c        **** 	
1033:main.c        **** 	Connect_Intermediates();
 5062              		.loc 2 1033 0
 5063 004c FFF7FEFF 		bl	Connect_Intermediates
 5064              	.LVL681:
1034:main.c        **** 	
1035:main.c        **** 	newData = 0;
 5065              		.loc 2 1035 0
 5066 0050 C54C     		ldr	r4, .L487+4
 5067 0052 0023     		movs	r3, #0
 5068 0054 2370     		strb	r3, [r4]
1036:main.c        **** 	UART_Rx_Position = 0;
 5069              		.loc 2 1036 0
 5070 0056 C54A     		ldr	r2, .L487+8
 5071 0058 1370     		strb	r3, [r2]
1037:main.c        **** 	USBUART_Rx_Position = 0;
 5072              		.loc 2 1037 0
 5073 005a C54A     		ldr	r2, .L487+12
 5074 005c 1370     		strb	r3, [r2]
1038:main.c        **** 	
1039:main.c        **** 	CommunicationTimer_Start();
 5075              		.loc 2 1039 0
 5076 005e FFF7FEFF 		bl	CommunicationTimer_Start
 5077              	.LVL682:
1040:main.c        **** 	CommunicationInterrupt_StartEx(CommunicationHandlerISR);
 5078              		.loc 2 1040 0
 5079 0062 C448     		ldr	r0, .L487+16
 5080 0064 FFF7FEFF 		bl	CommunicationInterrupt_StartEx
 5081              	.LVL683:
1041:main.c        **** 	
1042:main.c        **** 	Current_Measurement_Sample_Count = 100;
 5082              		.loc 2 1042 0
 5083 0068 6422     		movs	r2, #100
 5084 006a C34B     		ldr	r3, .L487+20
 5085 006c 1A60     		str	r2, [r3]
1043:main.c        **** 	
1044:main.c        **** 	Calibrate_ADC_Offset(300);
 5086              		.loc 2 1044 0
 5087 006e 4FF49670 		mov	r0, #300
 5088 0072 FFF7FEFF 		bl	Calibrate_ADC_Offset
 5089              	.LVL684:
1045:main.c        **** 	TIA_Set_Resistor(TIA_Selected_Resistor);
 5090              		.loc 2 1045 0
 5091 0076 2079     		ldrb	r0, [r4, #4]	@ zero_extendqisi2
 5092 0078 FFF7FEFF 		bl	TIA_Set_Resistor
 5093              	.LVL685:
1046:main.c        **** 	
1047:main.c        **** 	Measure_Multiple(1000);
 5094              		.loc 2 1047 0
 5095 007c 4FF47A70 		mov	r0, #1000
 5096 0080 FFF7FEFF 		bl	Measure_Multiple
 5097              	.LVL686:
 5098              	.L448:
1048:main.c        **** 	
ARM GAS  C:\Users\FRANKL~1\AppData\Local\Temp\ccCAoJJX.s 			page 121


1049:main.c        **** 	while (1) {
1050:main.c        **** 		G_Stop = 0;
 5099              		.loc 2 1050 0
 5100 0084 B84B     		ldr	r3, .L487+4
 5101 0086 0022     		movs	r2, #0
 5102 0088 5A70     		strb	r2, [r3, #1]
1051:main.c        **** 		G_Break = 0;
 5103              		.loc 2 1051 0
 5104 008a 9A70     		strb	r2, [r3, #2]
1052:main.c        **** 		
1053:main.c        **** 		if (newData) {
 5105              		.loc 2 1053 0
 5106 008c 1B78     		ldrb	r3, [r3]	@ zero_extendqisi2
 5107 008e 13F0FF0F 		tst	r3, #255
 5108 0092 F7D0     		beq	.L448
 5109              	.LVL687:
 5110              	.LBB67:
1054:main.c        **** 			char* ReceiveBuffer = &USBUART_Receive_Buffer[0];
1055:main.c        **** 			if (newData == 2) ReceiveBuffer = &UART_Receive_Buffer[0];
 5111              		.loc 2 1055 0
 5112 0094 B44B     		ldr	r3, .L487+4
 5113 0096 1B78     		ldrb	r3, [r3]	@ zero_extendqisi2
 5114 0098 DBB2     		uxtb	r3, r3
 5115 009a 022B     		cmp	r3, #2
 5116 009c 01D0     		beq	.L485
1054:main.c        **** 			char* ReceiveBuffer = &USBUART_Receive_Buffer[0];
 5117              		.loc 2 1054 0
 5118 009e B74C     		ldr	r4, .L487+24
 5119 00a0 00E0     		b	.L449
 5120              	.L485:
 5121              		.loc 2 1055 0
 5122 00a2 B74C     		ldr	r4, .L487+28
 5123              	.L449:
 5124              	.LVL688:
1056:main.c        **** 			
1057:main.c        **** 			newData = 0;
 5125              		.loc 2 1057 0
 5126 00a4 0022     		movs	r2, #0
 5127 00a6 B04B     		ldr	r3, .L487+4
 5128 00a8 1A70     		strb	r2, [r3]
1058:main.c        **** 			
1059:main.c        **** 			if (strstr(ReceiveBuffer, "measure ") == &ReceiveBuffer[0]) {
 5129              		.loc 2 1059 0
 5130 00aa B649     		ldr	r1, .L487+32
 5131 00ac 2046     		mov	r0, r4
 5132 00ae FFF7FEFF 		bl	strstr
 5133              	.LVL689:
 5134 00b2 8442     		cmp	r4, r0
 5135 00b4 05D1     		bne	.L450
1060:main.c        **** 				Measure(100, 1, 10);
 5136              		.loc 2 1060 0
 5137 00b6 0A22     		movs	r2, #10
 5138 00b8 0121     		movs	r1, #1
 5139 00ba 6420     		movs	r0, #100
 5140 00bc FFF7FEFF 		bl	Measure
 5141              	.LVL690:
 5142 00c0 E0E7     		b	.L448
ARM GAS  C:\Users\FRANKL~1\AppData\Local\Temp\ccCAoJJX.s 			page 122


 5143              	.L450:
1061:main.c        **** 			} else 
1062:main.c        **** 			if (strstr(ReceiveBuffer, "measure-multiple ") == &ReceiveBuffer[0]) {
 5144              		.loc 2 1062 0
 5145 00c2 B149     		ldr	r1, .L487+36
 5146 00c4 2046     		mov	r0, r4
 5147 00c6 FFF7FEFF 		bl	strstr
 5148              	.LVL691:
 5149 00ca 8442     		cmp	r4, r0
 5150 00cc 0CD1     		bne	.L452
 5151              	.LBB68:
1063:main.c        **** 				char* location = strstr(ReceiveBuffer, " ");
 5152              		.loc 2 1063 0
 5153 00ce 2021     		movs	r1, #32
 5154 00d0 2046     		mov	r0, r4
 5155 00d2 FFF7FEFF 		bl	strchr
 5156              	.LVL692:
 5157 00d6 02A9     		add	r1, sp, #8
 5158 00d8 41F8040D 		str	r0, [r1, #-4]!
1064:main.c        **** 				uint32 n = strtol(location, &location, 10);
 5159              		.loc 2 1064 0
 5160 00dc 0A22     		movs	r2, #10
 5161 00de FFF7FEFF 		bl	strtol
 5162              	.LVL693:
1065:main.c        **** 				
1066:main.c        **** 				Measure_Multiple(n);
 5163              		.loc 2 1066 0
 5164 00e2 FFF7FEFF 		bl	Measure_Multiple
 5165              	.LVL694:
 5166              	.LBE68:
 5167 00e6 CDE7     		b	.L448
 5168              	.L452:
1067:main.c        **** 			} else 
1068:main.c        **** 			if (strstr(ReceiveBuffer, "measure-sweep ") == &ReceiveBuffer[0]) {
 5169              		.loc 2 1068 0
 5170 00e8 A849     		ldr	r1, .L487+40
 5171 00ea 2046     		mov	r0, r4
 5172 00ec FFF7FEFF 		bl	strstr
 5173              	.LVL695:
 5174 00f0 8442     		cmp	r4, r0
 5175 00f2 02D1     		bne	.L453
1069:main.c        **** 				Measure_Sweep();
 5176              		.loc 2 1069 0
 5177 00f4 FFF7FEFF 		bl	Measure_Sweep
 5178              	.LVL696:
 5179 00f8 C4E7     		b	.L448
 5180              	.L453:
1070:main.c        **** 			} else 
1071:main.c        **** 			if (strstr(ReceiveBuffer, "measure-gate-sweep ") == &ReceiveBuffer[0]) {
 5181              		.loc 2 1071 0
 5182 00fa A549     		ldr	r1, .L487+44
 5183 00fc 2046     		mov	r0, r4
 5184 00fe FFF7FEFF 		bl	strstr
 5185              	.LVL697:
 5186 0102 8442     		cmp	r4, r0
 5187 0104 03D1     		bne	.L454
1072:main.c        **** 				Measure_Gate_Sweep(0);
ARM GAS  C:\Users\FRANKL~1\AppData\Local\Temp\ccCAoJJX.s 			page 123


 5188              		.loc 2 1072 0
 5189 0106 0020     		movs	r0, #0
 5190 0108 FFF7FEFF 		bl	Measure_Gate_Sweep
 5191              	.LVL698:
 5192 010c BAE7     		b	.L448
 5193              	.L454:
1073:main.c        **** 			} else 
1074:main.c        **** 			if (strstr(ReceiveBuffer, "measure-gate-sweep-loop ") == &ReceiveBuffer[0]) {
 5194              		.loc 2 1074 0
 5195 010e A149     		ldr	r1, .L487+48
 5196 0110 2046     		mov	r0, r4
 5197 0112 FFF7FEFF 		bl	strstr
 5198              	.LVL699:
 5199 0116 8442     		cmp	r4, r0
 5200 0118 03D1     		bne	.L455
1075:main.c        **** 				Measure_Gate_Sweep(1);
 5201              		.loc 2 1075 0
 5202 011a 0120     		movs	r0, #1
 5203 011c FFF7FEFF 		bl	Measure_Gate_Sweep
 5204              	.LVL700:
 5205 0120 B0E7     		b	.L448
 5206              	.L455:
1076:main.c        **** 			} else 
1077:main.c        **** 			if (strstr(ReceiveBuffer, "calibrate-offset ") == &ReceiveBuffer[0]) {
 5207              		.loc 2 1077 0
 5208 0122 9D49     		ldr	r1, .L487+52
 5209 0124 2046     		mov	r0, r4
 5210 0126 FFF7FEFF 		bl	strstr
 5211              	.LVL701:
 5212 012a 8442     		cmp	r4, r0
 5213 012c 04D1     		bne	.L456
1078:main.c        **** 				Calibrate_ADC_Offset(300);
 5214              		.loc 2 1078 0
 5215 012e 4FF49670 		mov	r0, #300
 5216 0132 FFF7FEFF 		bl	Calibrate_ADC_Offset
 5217              	.LVL702:
 5218 0136 A5E7     		b	.L448
 5219              	.L456:
1079:main.c        **** 			} else
1080:main.c        **** 			if (strstr(ReceiveBuffer, "set-vgs-raw ") == &ReceiveBuffer[0]) {
 5220              		.loc 2 1080 0
 5221 0138 9849     		ldr	r1, .L487+56
 5222 013a 2046     		mov	r0, r4
 5223 013c FFF7FEFF 		bl	strstr
 5224              	.LVL703:
 5225 0140 8442     		cmp	r4, r0
 5226 0142 0DD1     		bne	.L457
 5227              	.LBB69:
1081:main.c        **** 				char* location = strstr(ReceiveBuffer, " ");
 5228              		.loc 2 1081 0 discriminator 2
 5229 0144 2021     		movs	r1, #32
 5230 0146 2046     		mov	r0, r4
 5231 0148 FFF7FEFF 		bl	strchr
 5232              	.LVL704:
 5233 014c 02A9     		add	r1, sp, #8
 5234 014e 41F8040D 		str	r0, [r1, #-4]!
1082:main.c        **** 				uint8 vgsi = strtol(location, &location, 10);
ARM GAS  C:\Users\FRANKL~1\AppData\Local\Temp\ccCAoJJX.s 			page 124


 5235              		.loc 2 1082 0 discriminator 2
 5236 0152 0A22     		movs	r2, #10
 5237 0154 FFF7FEFF 		bl	strtol
 5238              	.LVL705:
1083:main.c        **** 				
1084:main.c        **** 				Set_Vgs_Raw(vgsi);
 5239              		.loc 2 1084 0 discriminator 2
 5240 0158 C0B2     		uxtb	r0, r0
 5241 015a FFF7FEFF 		bl	Set_Vgs_Raw
 5242              	.LVL706:
 5243              	.LBE69:
 5244 015e 91E7     		b	.L448
 5245              	.L457:
1085:main.c        **** 			} else 
1086:main.c        **** 			if (strstr(ReceiveBuffer, "set-vds-raw ") == &ReceiveBuffer[0]) {
 5246              		.loc 2 1086 0
 5247 0160 8F49     		ldr	r1, .L487+60
 5248 0162 2046     		mov	r0, r4
 5249 0164 FFF7FEFF 		bl	strstr
 5250              	.LVL707:
 5251 0168 8442     		cmp	r4, r0
 5252 016a 0DD1     		bne	.L458
 5253              	.LBB70:
1087:main.c        **** 				char* location = strstr(ReceiveBuffer, " ");
 5254              		.loc 2 1087 0 discriminator 3
 5255 016c 2021     		movs	r1, #32
 5256 016e 2046     		mov	r0, r4
 5257 0170 FFF7FEFF 		bl	strchr
 5258              	.LVL708:
 5259 0174 02A9     		add	r1, sp, #8
 5260 0176 41F8040D 		str	r0, [r1, #-4]!
1088:main.c        **** 				uint8 vdsi = strtol(location, &location, 10);
 5261              		.loc 2 1088 0 discriminator 3
 5262 017a 0A22     		movs	r2, #10
 5263 017c FFF7FEFF 		bl	strtol
 5264              	.LVL709:
1089:main.c        **** 				
1090:main.c        **** 				Set_Vds_Raw(vdsi);
 5265              		.loc 2 1090 0 discriminator 3
 5266 0180 C0B2     		uxtb	r0, r0
 5267 0182 FFF7FEFF 		bl	Set_Vds_Raw
 5268              	.LVL710:
 5269              	.LBE70:
 5270 0186 7DE7     		b	.L448
 5271              	.L458:
1091:main.c        **** 			} else 
1092:main.c        **** 			if (strstr(ReceiveBuffer, "set-vgs-rel ") == &ReceiveBuffer[0]) {
 5272              		.loc 2 1092 0
 5273 0188 8649     		ldr	r1, .L487+64
 5274 018a 2046     		mov	r0, r4
 5275 018c FFF7FEFF 		bl	strstr
 5276              	.LVL711:
 5277 0190 8442     		cmp	r4, r0
 5278 0192 0DD1     		bne	.L459
 5279              	.LBB71:
1093:main.c        **** 				char* location = strstr(ReceiveBuffer, " ");
 5280              		.loc 2 1093 0 discriminator 4
ARM GAS  C:\Users\FRANKL~1\AppData\Local\Temp\ccCAoJJX.s 			page 125


 5281 0194 2021     		movs	r1, #32
 5282 0196 2046     		mov	r0, r4
 5283 0198 FFF7FEFF 		bl	strchr
 5284              	.LVL712:
 5285 019c 02A9     		add	r1, sp, #8
 5286 019e 41F8040D 		str	r0, [r1, #-4]!
1094:main.c        **** 				int8 vgsi = strtol(location, &location, 10);
 5287              		.loc 2 1094 0 discriminator 4
 5288 01a2 0A22     		movs	r2, #10
 5289 01a4 FFF7FEFF 		bl	strtol
 5290              	.LVL713:
1095:main.c        **** 				
1096:main.c        **** 				Set_Vgs_Rel(vgsi);
 5291              		.loc 2 1096 0 discriminator 4
 5292 01a8 40B2     		sxtb	r0, r0
 5293 01aa FFF7FEFF 		bl	Set_Vgs_Rel
 5294              	.LVL714:
 5295              	.LBE71:
 5296 01ae 69E7     		b	.L448
 5297              	.L459:
1097:main.c        **** 			} else 
1098:main.c        **** 			if (strstr(ReceiveBuffer, "set-vds-rel ") == &ReceiveBuffer[0]) {
 5298              		.loc 2 1098 0
 5299 01b0 7D49     		ldr	r1, .L487+68
 5300 01b2 2046     		mov	r0, r4
 5301 01b4 FFF7FEFF 		bl	strstr
 5302              	.LVL715:
 5303 01b8 8442     		cmp	r4, r0
 5304 01ba 0DD1     		bne	.L460
 5305              	.LBB72:
1099:main.c        **** 				char* location = strstr(ReceiveBuffer, " ");
 5306              		.loc 2 1099 0 discriminator 5
 5307 01bc 2021     		movs	r1, #32
 5308 01be 2046     		mov	r0, r4
 5309 01c0 FFF7FEFF 		bl	strchr
 5310              	.LVL716:
 5311 01c4 02A9     		add	r1, sp, #8
 5312 01c6 41F8040D 		str	r0, [r1, #-4]!
1100:main.c        **** 				int8 vdsi = strtol(location, &location, 10);
 5313              		.loc 2 1100 0 discriminator 5
 5314 01ca 0A22     		movs	r2, #10
 5315 01cc FFF7FEFF 		bl	strtol
 5316              	.LVL717:
1101:main.c        **** 				
1102:main.c        **** 				Set_Vds_Rel(vdsi);
 5317              		.loc 2 1102 0 discriminator 5
 5318 01d0 40B2     		sxtb	r0, r0
 5319 01d2 FFF7FEFF 		bl	Set_Vds_Rel
 5320              	.LVL718:
 5321              	.LBE72:
 5322 01d6 55E7     		b	.L448
 5323              	.L460:
1103:main.c        **** 			} else 
1104:main.c        **** 			if (strstr(ReceiveBuffer, "set-vgs ") == &ReceiveBuffer[0]) {
 5324              		.loc 2 1104 0
 5325 01d8 7449     		ldr	r1, .L487+72
 5326 01da 2046     		mov	r0, r4
ARM GAS  C:\Users\FRANKL~1\AppData\Local\Temp\ccCAoJJX.s 			page 126


 5327 01dc FFF7FEFF 		bl	strstr
 5328              	.LVL719:
 5329 01e0 8442     		cmp	r4, r0
 5330 01e2 0ED1     		bne	.L461
 5331              	.LBB73:
1105:main.c        **** 				char* location = strstr(ReceiveBuffer, " ");
 5332              		.loc 2 1105 0 discriminator 6
 5333 01e4 2021     		movs	r1, #32
 5334 01e6 2046     		mov	r0, r4
 5335 01e8 FFF7FEFF 		bl	strchr
 5336              	.LVL720:
1106:main.c        **** 				float vgs = 0;
 5337              		.loc 2 1106 0 discriminator 6
 5338 01ec 02AA     		add	r2, sp, #8
 5339 01ee 0023     		movs	r3, #0
 5340 01f0 42F8043D 		str	r3, [r2, #-4]!	@ float
1107:main.c        **** 				int8 success = sscanf(location, "%f", &vgs);
 5341              		.loc 2 1107 0 discriminator 6
 5342 01f4 6E49     		ldr	r1, .L487+76
 5343 01f6 FFF7FEFF 		bl	sscanf
 5344              	.LVL721:
1108:main.c        **** 				
1109:main.c        **** 				Set_Vgs(vgs);
 5345              		.loc 2 1109 0 discriminator 6
 5346 01fa 0198     		ldr	r0, [sp, #4]	@ float
 5347 01fc FFF7FEFF 		bl	Set_Vgs
 5348              	.LVL722:
 5349              	.LBE73:
 5350 0200 40E7     		b	.L448
 5351              	.L461:
1110:main.c        **** 			} else 
1111:main.c        **** 			if (strstr(ReceiveBuffer, "set-vds ") == &ReceiveBuffer[0]) {
 5352              		.loc 2 1111 0
 5353 0202 6C49     		ldr	r1, .L487+80
 5354 0204 2046     		mov	r0, r4
 5355 0206 FFF7FEFF 		bl	strstr
 5356              	.LVL723:
 5357 020a 8442     		cmp	r4, r0
 5358 020c 0ED1     		bne	.L462
 5359              	.LBB74:
1112:main.c        **** 				char* location = strstr(ReceiveBuffer, " ");
 5360              		.loc 2 1112 0 discriminator 7
 5361 020e 2021     		movs	r1, #32
 5362 0210 2046     		mov	r0, r4
 5363 0212 FFF7FEFF 		bl	strchr
 5364              	.LVL724:
1113:main.c        **** 				float vds = 0;
 5365              		.loc 2 1113 0 discriminator 7
 5366 0216 02AA     		add	r2, sp, #8
 5367 0218 0023     		movs	r3, #0
 5368 021a 42F8043D 		str	r3, [r2, #-4]!	@ float
1114:main.c        **** 				int8 success = sscanf(location, "%f", &vds);
 5369              		.loc 2 1114 0 discriminator 7
 5370 021e 6449     		ldr	r1, .L487+76
 5371 0220 FFF7FEFF 		bl	sscanf
 5372              	.LVL725:
1115:main.c        **** 				
ARM GAS  C:\Users\FRANKL~1\AppData\Local\Temp\ccCAoJJX.s 			page 127


1116:main.c        **** 				Set_Vds(vds);
 5373              		.loc 2 1116 0 discriminator 7
 5374 0224 0198     		ldr	r0, [sp, #4]	@ float
 5375 0226 FFF7FEFF 		bl	Set_Vds
 5376              	.LVL726:
 5377              	.LBE74:
 5378 022a 2BE7     		b	.L448
 5379              	.L462:
1117:main.c        **** 			} else 
1118:main.c        **** 			if (strstr(ReceiveBuffer, "set-vgs-mv ") == &ReceiveBuffer[0]) {
 5380              		.loc 2 1118 0
 5381 022c 6249     		ldr	r1, .L487+84
 5382 022e 2046     		mov	r0, r4
 5383 0230 FFF7FEFF 		bl	strstr
 5384              	.LVL727:
 5385 0234 8442     		cmp	r4, r0
 5386 0236 1AD1     		bne	.L463
 5387              	.LBB75:
1119:main.c        **** 				char* location = strstr(ReceiveBuffer, " ");
 5388              		.loc 2 1119 0 discriminator 8
 5389 0238 2021     		movs	r1, #32
 5390 023a 2046     		mov	r0, r4
 5391 023c FFF7FEFF 		bl	strchr
 5392              	.LVL728:
 5393 0240 02A9     		add	r1, sp, #8
 5394 0242 41F8040D 		str	r0, [r1, #-4]!
1120:main.c        **** 				float Vgs_mV = (float)(strtol(location, &location, 10));
 5395              		.loc 2 1120 0 discriminator 8
 5396 0246 0A22     		movs	r2, #10
 5397 0248 FFF7FEFF 		bl	strtol
 5398              	.LVL729:
 5399 024c FFF7FEFF 		bl	__aeabi_i2f
 5400              	.LVL730:
 5401 0250 0446     		mov	r4, r0
 5402              	.LVL731:
1121:main.c        **** 				
1122:main.c        **** 				Set_Vgs_mV(Vgs_mV);
 5403              		.loc 2 1122 0 discriminator 8
 5404 0252 FFF7FEFF 		bl	Set_Vgs_mV
 5405              	.LVL732:
1123:main.c        **** 				
1124:main.c        **** 				sprintf(TransmitBuffer, "# Vgs set to %f mV\r\n", Vgs_mV);
 5406              		.loc 2 1124 0 discriminator 8
 5407 0256 2046     		mov	r0, r4
 5408 0258 FFF7FEFF 		bl	__aeabi_f2d
 5409              	.LVL733:
 5410 025c 0246     		mov	r2, r0
 5411 025e 0B46     		mov	r3, r1
 5412 0260 5649     		ldr	r1, .L487+88
 5413 0262 5748     		ldr	r0, .L487+92
 5414 0264 FFF7FEFF 		bl	sprintf
 5415              	.LVL734:
1125:main.c        **** 				sendTransmitBuffer();
 5416              		.loc 2 1125 0 discriminator 8
 5417 0268 FFF7FEFF 		bl	sendTransmitBuffer
 5418              	.LVL735:
 5419              	.LBE75:
ARM GAS  C:\Users\FRANKL~1\AppData\Local\Temp\ccCAoJJX.s 			page 128


 5420 026c 0AE7     		b	.L448
 5421              	.LVL736:
 5422              	.L463:
1126:main.c        **** 			} else 
1127:main.c        **** 			if (strstr(ReceiveBuffer, "set-vds-mv ") == &ReceiveBuffer[0]) {
 5423              		.loc 2 1127 0
 5424 026e 5549     		ldr	r1, .L487+96
 5425 0270 2046     		mov	r0, r4
 5426 0272 FFF7FEFF 		bl	strstr
 5427              	.LVL737:
 5428 0276 8442     		cmp	r4, r0
 5429 0278 1AD1     		bne	.L464
 5430              	.LBB76:
1128:main.c        **** 				char* location = strstr(ReceiveBuffer, " ");
 5431              		.loc 2 1128 0 discriminator 9
 5432 027a 2021     		movs	r1, #32
 5433 027c 2046     		mov	r0, r4
 5434 027e FFF7FEFF 		bl	strchr
 5435              	.LVL738:
 5436 0282 02A9     		add	r1, sp, #8
 5437 0284 41F8040D 		str	r0, [r1, #-4]!
1129:main.c        **** 				float Vds_mV = (float)(strtol(location, &location, 10));
 5438              		.loc 2 1129 0 discriminator 9
 5439 0288 0A22     		movs	r2, #10
 5440 028a FFF7FEFF 		bl	strtol
 5441              	.LVL739:
 5442 028e FFF7FEFF 		bl	__aeabi_i2f
 5443              	.LVL740:
 5444 0292 0446     		mov	r4, r0
 5445              	.LVL741:
1130:main.c        **** 				
1131:main.c        **** 				Set_Vds_mV(Vds_mV);
 5446              		.loc 2 1131 0 discriminator 9
 5447 0294 FFF7FEFF 		bl	Set_Vds_mV
 5448              	.LVL742:
1132:main.c        **** 				
1133:main.c        **** 				sprintf(TransmitBuffer, "# Vds set to %f mV\r\n", Vds_mV);
 5449              		.loc 2 1133 0 discriminator 9
 5450 0298 2046     		mov	r0, r4
 5451 029a FFF7FEFF 		bl	__aeabi_f2d
 5452              	.LVL743:
 5453 029e 0246     		mov	r2, r0
 5454 02a0 0B46     		mov	r3, r1
 5455 02a2 4949     		ldr	r1, .L487+100
 5456 02a4 4648     		ldr	r0, .L487+92
 5457 02a6 FFF7FEFF 		bl	sprintf
 5458              	.LVL744:
1134:main.c        **** 				sendTransmitBuffer();
 5459              		.loc 2 1134 0 discriminator 9
 5460 02aa FFF7FEFF 		bl	sendTransmitBuffer
 5461              	.LVL745:
 5462              	.LBE76:
 5463 02ae E9E6     		b	.L448
 5464              	.LVL746:
 5465              	.L464:
1135:main.c        **** 			} else 
1136:main.c        **** 			if (strstr(ReceiveBuffer, "scan ") == &ReceiveBuffer[0]) {
ARM GAS  C:\Users\FRANKL~1\AppData\Local\Temp\ccCAoJJX.s 			page 129


 5466              		.loc 2 1136 0
 5467 02b0 4649     		ldr	r1, .L487+104
 5468 02b2 2046     		mov	r0, r4
 5469 02b4 FFF7FEFF 		bl	strstr
 5470              	.LVL747:
 5471 02b8 8442     		cmp	r4, r0
 5472 02ba 19D1     		bne	.L465
1137:main.c        **** 				sprintf(TransmitBuffer, "\r\n# Scan Starting\r\n");
 5473              		.loc 2 1137 0
 5474 02bc 404C     		ldr	r4, .L487+92
 5475              	.LVL748:
 5476 02be 444D     		ldr	r5, .L487+108
 5477 02c0 0FCD     		ldmia	r5!, {r0, r1, r2, r3}
 5478 02c2 2060     		str	r0, [r4]	@ unaligned
 5479 02c4 6160     		str	r1, [r4, #4]	@ unaligned
 5480 02c6 A260     		str	r2, [r4, #8]	@ unaligned
 5481 02c8 E360     		str	r3, [r4, #12]	@ unaligned
 5482 02ca 2868     		ldr	r0, [r5]	@ unaligned
 5483 02cc 2061     		str	r0, [r4, #16]	@ unaligned
1138:main.c        **** 				sendTransmitBuffer();
 5484              		.loc 2 1138 0
 5485 02ce FFF7FEFF 		bl	sendTransmitBuffer
 5486              	.LVL749:
1139:main.c        **** 				
1140:main.c        **** 				Scan(0, 0);
 5487              		.loc 2 1140 0
 5488 02d2 0021     		movs	r1, #0
 5489 02d4 0846     		mov	r0, r1
 5490 02d6 FFF7FEFF 		bl	Scan
 5491              	.LVL750:
1141:main.c        **** 				
1142:main.c        **** 				sprintf(TransmitBuffer, "\r\n# Scan Complete\r\n");
 5492              		.loc 2 1142 0
 5493 02da 3E4D     		ldr	r5, .L487+112
 5494 02dc 0FCD     		ldmia	r5!, {r0, r1, r2, r3}
 5495 02de 2060     		str	r0, [r4]	@ unaligned
 5496 02e0 6160     		str	r1, [r4, #4]	@ unaligned
 5497 02e2 A260     		str	r2, [r4, #8]	@ unaligned
 5498 02e4 E360     		str	r3, [r4, #12]	@ unaligned
 5499 02e6 2868     		ldr	r0, [r5]	@ unaligned
 5500 02e8 2061     		str	r0, [r4, #16]	@ unaligned
1143:main.c        **** 				sendTransmitBuffer();
 5501              		.loc 2 1143 0
 5502 02ea FFF7FEFF 		bl	sendTransmitBuffer
 5503              	.LVL751:
 5504 02ee C9E6     		b	.L448
 5505              	.LVL752:
 5506              	.L465:
1144:main.c        **** 			} else 
1145:main.c        **** 			if (strstr(ReceiveBuffer, "scan-range ") == &ReceiveBuffer[0]) {
 5507              		.loc 2 1145 0
 5508 02f0 3949     		ldr	r1, .L487+116
 5509 02f2 2046     		mov	r0, r4
 5510 02f4 FFF7FEFF 		bl	strstr
 5511              	.LVL753:
 5512 02f8 8442     		cmp	r4, r0
 5513 02fa 73D1     		bne	.L466
ARM GAS  C:\Users\FRANKL~1\AppData\Local\Temp\ccCAoJJX.s 			page 130


 5514              	.LBB77:
1146:main.c        **** 				sprintf(TransmitBuffer, "\r\n# Scan-Range Starting\r\n");
 5515              		.loc 2 1146 0 discriminator 10
 5516 02fc 304D     		ldr	r5, .L487+92
 5517 02fe 374E     		ldr	r6, .L487+120
 5518 0300 0FCE     		ldmia	r6!, {r0, r1, r2, r3}
 5519 0302 2860     		str	r0, [r5]	@ unaligned
 5520 0304 6960     		str	r1, [r5, #4]	@ unaligned
 5521 0306 AA60     		str	r2, [r5, #8]	@ unaligned
 5522 0308 EB60     		str	r3, [r5, #12]	@ unaligned
 5523 030a 03CE     		ldmia	r6!, {r0, r1}
 5524 030c 2861     		str	r0, [r5, #16]	@ unaligned
 5525 030e 6961     		str	r1, [r5, #20]	@ unaligned
 5526 0310 3388     		ldrh	r3, [r6]	@ unaligned
 5527 0312 2B83     		strh	r3, [r5, #24]	@ unaligned
1147:main.c        **** 				sendTransmitBuffer();
 5528              		.loc 2 1147 0 discriminator 10
 5529 0314 FFF7FEFF 		bl	sendTransmitBuffer
 5530              	.LVL754:
1148:main.c        **** 				
1149:main.c        **** 				char* location = strstr(ReceiveBuffer, " ");
 5531              		.loc 2 1149 0 discriminator 10
 5532 0318 2021     		movs	r1, #32
 5533 031a 2046     		mov	r0, r4
 5534 031c FFF7FEFF 		bl	strchr
 5535              	.LVL755:
 5536 0320 02AC     		add	r4, sp, #8
 5537              	.LVL756:
 5538 0322 44F8040D 		str	r0, [r4, #-4]!
1150:main.c        **** 				uint8 startDevice = strtol(location, &location, 10);
 5539              		.loc 2 1150 0 discriminator 10
 5540 0326 0A22     		movs	r2, #10
 5541 0328 2146     		mov	r1, r4
 5542 032a FFF7FEFF 		bl	strtol
 5543              	.LVL757:
 5544 032e C6B2     		uxtb	r6, r0
 5545              	.LVL758:
1151:main.c        **** 				uint8 stopDevice = strtol(location, &location, 10);
 5546              		.loc 2 1151 0 discriminator 10
 5547 0330 0A22     		movs	r2, #10
 5548 0332 2146     		mov	r1, r4
 5549 0334 0198     		ldr	r0, [sp, #4]
 5550 0336 FFF7FEFF 		bl	strtol
 5551              	.LVL759:
1152:main.c        **** 				Scan_Range(startDevice, stopDevice, 0, 0);
 5552              		.loc 2 1152 0 discriminator 10
 5553 033a 0023     		movs	r3, #0
 5554 033c 1A46     		mov	r2, r3
 5555 033e C1B2     		uxtb	r1, r0
 5556 0340 3046     		mov	r0, r6
 5557              	.LVL760:
 5558 0342 FFF7FEFF 		bl	Scan_Range
 5559              	.LVL761:
1153:main.c        **** 				
1154:main.c        **** 				sprintf(TransmitBuffer, "\r\n# Scan Range Complete\r\n");
 5560              		.loc 2 1154 0 discriminator 10
 5561 0346 264C     		ldr	r4, .L487+124
ARM GAS  C:\Users\FRANKL~1\AppData\Local\Temp\ccCAoJJX.s 			page 131


 5562 0348 0FCC     		ldmia	r4!, {r0, r1, r2, r3}
 5563 034a 2860     		str	r0, [r5]	@ unaligned
 5564 034c 6960     		str	r1, [r5, #4]	@ unaligned
 5565 034e AA60     		str	r2, [r5, #8]	@ unaligned
 5566 0350 EB60     		str	r3, [r5, #12]	@ unaligned
 5567 0352 03CC     		ldmia	r4!, {r0, r1}
 5568 0354 2861     		str	r0, [r5, #16]	@ unaligned
 5569 0356 6961     		str	r1, [r5, #20]	@ unaligned
 5570 0358 2388     		ldrh	r3, [r4]	@ unaligned
 5571 035a 2B83     		strh	r3, [r5, #24]	@ unaligned
1155:main.c        **** 				sendTransmitBuffer();
 5572              		.loc 2 1155 0 discriminator 10
 5573 035c FFF7FEFF 		bl	sendTransmitBuffer
 5574              	.LVL762:
 5575              	.LBE77:
 5576 0360 90E6     		b	.L448
 5577              	.L488:
 5578 0362 00BF     		.align	2
 5579              	.L487:
 5580 0364 F4000000 		.word	.LC15
 5581 0368 00000000 		.word	.LANCHOR0
 5582 036c 00000000 		.word	UART_Rx_Position
 5583 0370 00000000 		.word	USBUART_Rx_Position
 5584 0374 00000000 		.word	CommunicationHandlerISR
 5585 0378 00000000 		.word	Current_Measurement_Sample_Count
 5586 037c 00000000 		.word	USBUART_Receive_Buffer
 5587 0380 00000000 		.word	UART_Receive_Buffer
 5588 0384 04010000 		.word	.LC16
 5589 0388 10010000 		.word	.LC17
 5590 038c 24010000 		.word	.LC18
 5591 0390 34010000 		.word	.LC19
 5592 0394 48010000 		.word	.LC20
 5593 0398 64010000 		.word	.LC21
 5594 039c 78010000 		.word	.LC22
 5595 03a0 88010000 		.word	.LC23
 5596 03a4 98010000 		.word	.LC24
 5597 03a8 A8010000 		.word	.LC25
 5598 03ac B8010000 		.word	.LC26
 5599 03b0 C4010000 		.word	.LC27
 5600 03b4 C8010000 		.word	.LC28
 5601 03b8 D4010000 		.word	.LC29
 5602 03bc E0010000 		.word	.LC30
 5603 03c0 00000000 		.word	TransmitBuffer
 5604 03c4 F8010000 		.word	.LC31
 5605 03c8 04020000 		.word	.LC32
 5606 03cc 1C020000 		.word	.LC33
 5607 03d0 24020000 		.word	.LC34
 5608 03d4 38020000 		.word	.LC35
 5609 03d8 4C020000 		.word	.LC36
 5610 03dc 58020000 		.word	.LC37
 5611 03e0 74020000 		.word	.LC38
 5612              	.LVL763:
 5613              	.L466:
1156:main.c        **** 			} else 
1157:main.c        **** 			if (strstr(ReceiveBuffer, "scan-range-loop ") == &ReceiveBuffer[0]) {
 5614              		.loc 2 1157 0
 5615 03e4 B849     		ldr	r1, .L489
ARM GAS  C:\Users\FRANKL~1\AppData\Local\Temp\ccCAoJJX.s 			page 132


 5616 03e6 2046     		mov	r0, r4
 5617 03e8 FFF7FEFF 		bl	strstr
 5618              	.LVL764:
 5619 03ec 8442     		cmp	r4, r0
 5620 03ee 38D1     		bne	.L467
 5621              	.LBB78:
1158:main.c        **** 				sprintf(TransmitBuffer, "\r\n# Scan-Range-Loop Starting\r\n");
 5622              		.loc 2 1158 0 discriminator 11
 5623 03f0 B64D     		ldr	r5, .L489+4
 5624 03f2 B74E     		ldr	r6, .L489+8
 5625 03f4 0FCE     		ldmia	r6!, {r0, r1, r2, r3}
 5626 03f6 2860     		str	r0, [r5]	@ unaligned
 5627 03f8 6960     		str	r1, [r5, #4]	@ unaligned
 5628 03fa AA60     		str	r2, [r5, #8]	@ unaligned
 5629 03fc EB60     		str	r3, [r5, #12]	@ unaligned
 5630 03fe 07CE     		ldmia	r6!, {r0, r1, r2}
 5631 0400 2861     		str	r0, [r5, #16]	@ unaligned
 5632 0402 6961     		str	r1, [r5, #20]	@ unaligned
 5633 0404 AA61     		str	r2, [r5, #24]	@ unaligned
 5634 0406 3288     		ldrh	r2, [r6]	@ unaligned
 5635 0408 B378     		ldrb	r3, [r6, #2]	@ zero_extendqisi2
 5636 040a AA83     		strh	r2, [r5, #28]	@ unaligned
 5637 040c AB77     		strb	r3, [r5, #30]
1159:main.c        **** 				sendTransmitBuffer();
 5638              		.loc 2 1159 0 discriminator 11
 5639 040e FFF7FEFF 		bl	sendTransmitBuffer
 5640              	.LVL765:
1160:main.c        **** 				
1161:main.c        **** 				char* location = strstr(ReceiveBuffer, " ");
 5641              		.loc 2 1161 0 discriminator 11
 5642 0412 2021     		movs	r1, #32
 5643 0414 2046     		mov	r0, r4
 5644 0416 FFF7FEFF 		bl	strchr
 5645              	.LVL766:
 5646 041a 02AC     		add	r4, sp, #8
 5647              	.LVL767:
 5648 041c 44F8040D 		str	r0, [r4, #-4]!
1162:main.c        **** 				uint8 startDevice = strtol(location, &location, 10);
 5649              		.loc 2 1162 0 discriminator 11
 5650 0420 0A22     		movs	r2, #10
 5651 0422 2146     		mov	r1, r4
 5652 0424 FFF7FEFF 		bl	strtol
 5653              	.LVL768:
 5654 0428 C6B2     		uxtb	r6, r0
 5655              	.LVL769:
1163:main.c        **** 				uint8 stopDevice = strtol(location, &location, 10);
 5656              		.loc 2 1163 0 discriminator 11
 5657 042a 0A22     		movs	r2, #10
 5658 042c 2146     		mov	r1, r4
 5659 042e 0198     		ldr	r0, [sp, #4]
 5660 0430 FFF7FEFF 		bl	strtol
 5661              	.LVL770:
1164:main.c        **** 				Scan_Range(startDevice, stopDevice, 0, 1);
 5662              		.loc 2 1164 0 discriminator 11
 5663 0434 0123     		movs	r3, #1
 5664 0436 0022     		movs	r2, #0
 5665 0438 C1B2     		uxtb	r1, r0
ARM GAS  C:\Users\FRANKL~1\AppData\Local\Temp\ccCAoJJX.s 			page 133


 5666 043a 3046     		mov	r0, r6
 5667              	.LVL771:
 5668 043c FFF7FEFF 		bl	Scan_Range
 5669              	.LVL772:
1165:main.c        **** 				
1166:main.c        **** 				sprintf(TransmitBuffer, "\r\n# Scan Range Loop Complete\r\n");
 5670              		.loc 2 1166 0 discriminator 11
 5671 0440 A44C     		ldr	r4, .L489+12
 5672 0442 0FCC     		ldmia	r4!, {r0, r1, r2, r3}
 5673 0444 2860     		str	r0, [r5]	@ unaligned
 5674 0446 6960     		str	r1, [r5, #4]	@ unaligned
 5675 0448 AA60     		str	r2, [r5, #8]	@ unaligned
 5676 044a EB60     		str	r3, [r5, #12]	@ unaligned
 5677 044c 07CC     		ldmia	r4!, {r0, r1, r2}
 5678 044e 2861     		str	r0, [r5, #16]	@ unaligned
 5679 0450 6961     		str	r1, [r5, #20]	@ unaligned
 5680 0452 AA61     		str	r2, [r5, #24]	@ unaligned
 5681 0454 2288     		ldrh	r2, [r4]	@ unaligned
 5682 0456 A378     		ldrb	r3, [r4, #2]	@ zero_extendqisi2
 5683 0458 AA83     		strh	r2, [r5, #28]	@ unaligned
 5684 045a AB77     		strb	r3, [r5, #30]
1167:main.c        **** 				sendTransmitBuffer();
 5685              		.loc 2 1167 0 discriminator 11
 5686 045c FFF7FEFF 		bl	sendTransmitBuffer
 5687              	.LVL773:
 5688              	.LBE78:
 5689 0460 10E6     		b	.L448
 5690              	.LVL774:
 5691              	.L467:
1168:main.c        **** 			} else 
1169:main.c        **** 			if (strstr(ReceiveBuffer, "scan-range-wide-loop ") == &ReceiveBuffer[0]) {
 5692              		.loc 2 1169 0
 5693 0462 9D49     		ldr	r1, .L489+16
 5694 0464 2046     		mov	r0, r4
 5695 0466 FFF7FEFF 		bl	strstr
 5696              	.LVL775:
 5697 046a 8442     		cmp	r4, r0
 5698 046c 3BD1     		bne	.L468
 5699              	.LBB79:
1170:main.c        **** 				sprintf(TransmitBuffer, "\r\n# Scan-Range-Wide-Loop Starting\r\n");
 5700              		.loc 2 1170 0 discriminator 12
 5701 046e 9B4E     		ldr	r6, .L489+20
 5702 0470 964D     		ldr	r5, .L489+4
 5703 0472 06F1200E 		add	lr, r6, #32
 5704              	.L469:
 5705 0476 3746     		mov	r7, r6
 5706 0478 0FCF     		ldmia	r7!, {r0, r1, r2, r3}
 5707 047a 2860     		str	r0, [r5]	@ unaligned
 5708 047c 6960     		str	r1, [r5, #4]	@ unaligned
 5709 047e AA60     		str	r2, [r5, #8]	@ unaligned
 5710 0480 EB60     		str	r3, [r5, #12]	@ unaligned
 5711 0482 3E46     		mov	r6, r7
 5712 0484 1035     		adds	r5, r5, #16
 5713 0486 7745     		cmp	r7, lr
 5714 0488 F5D1     		bne	.L469
 5715 048a 3868     		ldr	r0, [r7]	@ unaligned
 5716 048c 2860     		str	r0, [r5]	@ unaligned
ARM GAS  C:\Users\FRANKL~1\AppData\Local\Temp\ccCAoJJX.s 			page 134


1171:main.c        **** 				sendTransmitBuffer();
 5717              		.loc 2 1171 0 discriminator 12
 5718 048e FFF7FEFF 		bl	sendTransmitBuffer
 5719              	.LVL776:
1172:main.c        **** 				
1173:main.c        **** 				char* location = strstr(ReceiveBuffer, " ");
 5720              		.loc 2 1173 0 discriminator 12
 5721 0492 2021     		movs	r1, #32
 5722 0494 2046     		mov	r0, r4
 5723 0496 FFF7FEFF 		bl	strchr
 5724              	.LVL777:
 5725 049a 02AC     		add	r4, sp, #8
 5726              	.LVL778:
 5727 049c 44F8040D 		str	r0, [r4, #-4]!
1174:main.c        **** 				uint8 startDevice = strtol(location, &location, 10);
 5728              		.loc 2 1174 0 discriminator 12
 5729 04a0 0A22     		movs	r2, #10
 5730 04a2 2146     		mov	r1, r4
 5731 04a4 FFF7FEFF 		bl	strtol
 5732              	.LVL779:
 5733 04a8 C5B2     		uxtb	r5, r0
 5734              	.LVL780:
1175:main.c        **** 				uint8 stopDevice = strtol(location, &location, 10);
 5735              		.loc 2 1175 0 discriminator 12
 5736 04aa 0A22     		movs	r2, #10
 5737 04ac 2146     		mov	r1, r4
 5738 04ae 0198     		ldr	r0, [sp, #4]
 5739 04b0 FFF7FEFF 		bl	strtol
 5740              	.LVL781:
1176:main.c        **** 				Scan_Range(startDevice, stopDevice, 1, 1);
 5741              		.loc 2 1176 0 discriminator 12
 5742 04b4 0123     		movs	r3, #1
 5743 04b6 1A46     		mov	r2, r3
 5744 04b8 C1B2     		uxtb	r1, r0
 5745 04ba 2846     		mov	r0, r5
 5746              	.LVL782:
 5747 04bc FFF7FEFF 		bl	Scan_Range
 5748              	.LVL783:
1177:main.c        **** 				
1178:main.c        **** 				sprintf(TransmitBuffer, "\r\n# Scan Range Wide Loop Complete\r\n");
 5749              		.loc 2 1178 0 discriminator 12
 5750 04c0 874D     		ldr	r5, .L489+24
 5751              	.LVL784:
 5752 04c2 824C     		ldr	r4, .L489+4
 5753 04c4 05F12007 		add	r7, r5, #32
 5754              	.L470:
 5755 04c8 2E46     		mov	r6, r5
 5756 04ca 0FCE     		ldmia	r6!, {r0, r1, r2, r3}
 5757 04cc 2060     		str	r0, [r4]	@ unaligned
 5758 04ce 6160     		str	r1, [r4, #4]	@ unaligned
 5759 04d0 A260     		str	r2, [r4, #8]	@ unaligned
 5760 04d2 E360     		str	r3, [r4, #12]	@ unaligned
 5761 04d4 3546     		mov	r5, r6
 5762 04d6 1034     		adds	r4, r4, #16
 5763 04d8 BE42     		cmp	r6, r7
 5764 04da F5D1     		bne	.L470
 5765 04dc 3068     		ldr	r0, [r6]	@ unaligned
ARM GAS  C:\Users\FRANKL~1\AppData\Local\Temp\ccCAoJJX.s 			page 135


 5766 04de 2060     		str	r0, [r4]	@ unaligned
1179:main.c        **** 				sendTransmitBuffer();
 5767              		.loc 2 1179 0 discriminator 12
 5768 04e0 FFF7FEFF 		bl	sendTransmitBuffer
 5769              	.LVL785:
 5770              	.LBE79:
 5771 04e4 CEE5     		b	.L448
 5772              	.LVL786:
 5773              	.L468:
1180:main.c        **** 			} else 
1181:main.c        **** 			if (strstr(ReceiveBuffer, "connect ") == &ReceiveBuffer[0]) {
 5774              		.loc 2 1181 0
 5775 04e6 7F49     		ldr	r1, .L489+28
 5776 04e8 2046     		mov	r0, r4
 5777 04ea FFF7FEFF 		bl	strstr
 5778              	.LVL787:
 5779 04ee 8442     		cmp	r4, r0
 5780 04f0 1ED1     		bne	.L471
 5781              	.LBB80:
1182:main.c        **** 				char* location = strstr(ReceiveBuffer, " ");
 5782              		.loc 2 1182 0 discriminator 13
 5783 04f2 2021     		movs	r1, #32
 5784 04f4 2046     		mov	r0, r4
 5785 04f6 FFF7FEFF 		bl	strchr
 5786              	.LVL788:
 5787 04fa 02AC     		add	r4, sp, #8
 5788              	.LVL789:
 5789 04fc 44F8040D 		str	r0, [r4, #-4]!
1183:main.c        **** 				uint8 contact = strtol(location, &location, 10);
 5790              		.loc 2 1183 0 discriminator 13
 5791 0500 0A22     		movs	r2, #10
 5792 0502 2146     		mov	r1, r4
 5793 0504 FFF7FEFF 		bl	strtol
 5794              	.LVL790:
 5795 0508 C5B2     		uxtb	r5, r0
 5796              	.LVL791:
1184:main.c        **** 				uint8 intermediate = strtol(location, &location, 10);
 5797              		.loc 2 1184 0 discriminator 13
 5798 050a 0A22     		movs	r2, #10
 5799 050c 2146     		mov	r1, r4
 5800 050e 0198     		ldr	r0, [sp, #4]
 5801 0510 FFF7FEFF 		bl	strtol
 5802              	.LVL792:
 5803 0514 C4B2     		uxtb	r4, r0
 5804              	.LVL793:
1185:main.c        **** 				Connect_Contact_To_Intermediate(contact, intermediate);
 5805              		.loc 2 1185 0 discriminator 13
 5806 0516 2146     		mov	r1, r4
 5807 0518 2846     		mov	r0, r5
 5808 051a FFF7FEFF 		bl	Connect_Contact_To_Intermediate
 5809              	.LVL794:
1186:main.c        **** 				
1187:main.c        **** 				sprintf(TransmitBuffer, "# Connected %u to %u\r\n", contact, intermediate);
 5810              		.loc 2 1187 0 discriminator 13
 5811 051e 2346     		mov	r3, r4
 5812 0520 2A46     		mov	r2, r5
 5813 0522 7149     		ldr	r1, .L489+32
ARM GAS  C:\Users\FRANKL~1\AppData\Local\Temp\ccCAoJJX.s 			page 136


 5814 0524 6948     		ldr	r0, .L489+4
 5815 0526 FFF7FEFF 		bl	sprintf
 5816              	.LVL795:
1188:main.c        **** 				sendTransmitBuffer();
 5817              		.loc 2 1188 0 discriminator 13
 5818 052a FFF7FEFF 		bl	sendTransmitBuffer
 5819              	.LVL796:
 5820              	.LBE80:
 5821 052e A9E5     		b	.L448
 5822              	.LVL797:
 5823              	.L471:
1189:main.c        **** 			} else 
1190:main.c        **** 			if (strstr(ReceiveBuffer, "connect-c ") == &ReceiveBuffer[0]) {
 5824              		.loc 2 1190 0
 5825 0530 6E49     		ldr	r1, .L489+36
 5826 0532 2046     		mov	r0, r4
 5827 0534 FFF7FEFF 		bl	strstr
 5828              	.LVL798:
 5829 0538 8442     		cmp	r4, r0
 5830 053a 1ED1     		bne	.L472
 5831              	.LBB81:
1191:main.c        **** 				char* location = strstr(ReceiveBuffer, " ");
 5832              		.loc 2 1191 0 discriminator 14
 5833 053c 2021     		movs	r1, #32
 5834 053e 2046     		mov	r0, r4
 5835 0540 FFF7FEFF 		bl	strchr
 5836              	.LVL799:
 5837 0544 02AC     		add	r4, sp, #8
 5838              	.LVL800:
 5839 0546 44F8040D 		str	r0, [r4, #-4]!
1192:main.c        **** 				uint8 channel = strtol(location, &location, 10);
 5840              		.loc 2 1192 0 discriminator 14
 5841 054a 0A22     		movs	r2, #10
 5842 054c 2146     		mov	r1, r4
 5843 054e FFF7FEFF 		bl	strtol
 5844              	.LVL801:
 5845 0552 C5B2     		uxtb	r5, r0
 5846              	.LVL802:
1193:main.c        **** 				uint8 intermediate = strtol(location, &location, 10);
 5847              		.loc 2 1193 0 discriminator 14
 5848 0554 0A22     		movs	r2, #10
 5849 0556 2146     		mov	r1, r4
 5850 0558 0198     		ldr	r0, [sp, #4]
 5851 055a FFF7FEFF 		bl	strtol
 5852              	.LVL803:
 5853 055e C4B2     		uxtb	r4, r0
 5854              	.LVL804:
1194:main.c        **** 				Connect_Channel_On_Intermediate(channel, intermediate);
 5855              		.loc 2 1194 0 discriminator 14
 5856 0560 2146     		mov	r1, r4
 5857 0562 2846     		mov	r0, r5
 5858 0564 FFF7FEFF 		bl	Connect_Channel_On_Intermediate
 5859              	.LVL805:
1195:main.c        **** 				
1196:main.c        **** 				sprintf(TransmitBuffer, "# Connected channel %u to %u\r\n", channel, intermediate);
 5860              		.loc 2 1196 0 discriminator 14
 5861 0568 2346     		mov	r3, r4
ARM GAS  C:\Users\FRANKL~1\AppData\Local\Temp\ccCAoJJX.s 			page 137


 5862 056a 2A46     		mov	r2, r5
 5863 056c 6049     		ldr	r1, .L489+40
 5864 056e 5748     		ldr	r0, .L489+4
 5865 0570 FFF7FEFF 		bl	sprintf
 5866              	.LVL806:
1197:main.c        **** 				sendTransmitBuffer();
 5867              		.loc 2 1197 0 discriminator 14
 5868 0574 FFF7FEFF 		bl	sendTransmitBuffer
 5869              	.LVL807:
 5870              	.LBE81:
 5871 0578 84E5     		b	.L448
 5872              	.LVL808:
 5873              	.L472:
1198:main.c        **** 			} else 
1199:main.c        **** 			if (strstr(ReceiveBuffer, "disconnect ") == &ReceiveBuffer[0]) {
 5874              		.loc 2 1199 0
 5875 057a 5E49     		ldr	r1, .L489+44
 5876 057c 2046     		mov	r0, r4
 5877 057e FFF7FEFF 		bl	strstr
 5878              	.LVL809:
 5879 0582 8442     		cmp	r4, r0
 5880 0584 1ED1     		bne	.L473
 5881              	.LBB82:
1200:main.c        **** 				char* location = strstr(ReceiveBuffer, " ");
 5882              		.loc 2 1200 0 discriminator 15
 5883 0586 2021     		movs	r1, #32
 5884 0588 2046     		mov	r0, r4
 5885 058a FFF7FEFF 		bl	strchr
 5886              	.LVL810:
 5887 058e 02AC     		add	r4, sp, #8
 5888              	.LVL811:
 5889 0590 44F8040D 		str	r0, [r4, #-4]!
1201:main.c        **** 				uint8 contact = strtol(location, &location, 10);
 5890              		.loc 2 1201 0 discriminator 15
 5891 0594 0A22     		movs	r2, #10
 5892 0596 2146     		mov	r1, r4
 5893 0598 FFF7FEFF 		bl	strtol
 5894              	.LVL812:
 5895 059c C5B2     		uxtb	r5, r0
 5896              	.LVL813:
1202:main.c        **** 				uint8 intermediate = strtol(location, &location, 10);
 5897              		.loc 2 1202 0 discriminator 15
 5898 059e 0A22     		movs	r2, #10
 5899 05a0 2146     		mov	r1, r4
 5900 05a2 0198     		ldr	r0, [sp, #4]
 5901 05a4 FFF7FEFF 		bl	strtol
 5902              	.LVL814:
 5903 05a8 C4B2     		uxtb	r4, r0
 5904              	.LVL815:
1203:main.c        **** 				Disconnect_Contact_From_Intermediate(contact, intermediate);
 5905              		.loc 2 1203 0 discriminator 15
 5906 05aa 2146     		mov	r1, r4
 5907 05ac 2846     		mov	r0, r5
 5908 05ae FFF7FEFF 		bl	Disconnect_Contact_From_Intermediate
 5909              	.LVL816:
1204:main.c        **** 				
1205:main.c        **** 				sprintf(TransmitBuffer, "# Disonnected %u from %u\r\n", contact, intermediate);
ARM GAS  C:\Users\FRANKL~1\AppData\Local\Temp\ccCAoJJX.s 			page 138


 5910              		.loc 2 1205 0 discriminator 15
 5911 05b2 2346     		mov	r3, r4
 5912 05b4 2A46     		mov	r2, r5
 5913 05b6 5049     		ldr	r1, .L489+48
 5914 05b8 4448     		ldr	r0, .L489+4
 5915 05ba FFF7FEFF 		bl	sprintf
 5916              	.LVL817:
1206:main.c        **** 				sendTransmitBuffer();
 5917              		.loc 2 1206 0 discriminator 15
 5918 05be FFF7FEFF 		bl	sendTransmitBuffer
 5919              	.LVL818:
 5920              	.LBE82:
 5921 05c2 5FE5     		b	.L448
 5922              	.LVL819:
 5923              	.L473:
1207:main.c        **** 			} else 
1208:main.c        **** 			if (strstr(ReceiveBuffer, "disconnect-all-from ") == &ReceiveBuffer[0]) {
 5924              		.loc 2 1208 0
 5925 05c4 4D49     		ldr	r1, .L489+52
 5926 05c6 2046     		mov	r0, r4
 5927 05c8 FFF7FEFF 		bl	strstr
 5928              	.LVL820:
 5929 05cc 8442     		cmp	r4, r0
 5930 05ce 15D1     		bne	.L474
 5931              	.LBB83:
1209:main.c        **** 				char* location = strstr(ReceiveBuffer, " ");
 5932              		.loc 2 1209 0 discriminator 16
 5933 05d0 2021     		movs	r1, #32
 5934 05d2 2046     		mov	r0, r4
 5935 05d4 FFF7FEFF 		bl	strchr
 5936              	.LVL821:
 5937 05d8 02A9     		add	r1, sp, #8
 5938 05da 41F8040D 		str	r0, [r1, #-4]!
1210:main.c        **** 				uint8 intermediate = strtol(location, &location, 10);
 5939              		.loc 2 1210 0 discriminator 16
 5940 05de 0A22     		movs	r2, #10
 5941 05e0 FFF7FEFF 		bl	strtol
 5942              	.LVL822:
 5943 05e4 C4B2     		uxtb	r4, r0
 5944              	.LVL823:
1211:main.c        **** 				Disconnect_All_Contacts_From_Intermediate(intermediate);
 5945              		.loc 2 1211 0 discriminator 16
 5946 05e6 2046     		mov	r0, r4
 5947 05e8 FFF7FEFF 		bl	Disconnect_All_Contacts_From_Intermediate
 5948              	.LVL824:
1212:main.c        **** 				
1213:main.c        **** 				sprintf(TransmitBuffer, "# Disconnected all from  %u\r\n", intermediate);
 5949              		.loc 2 1213 0 discriminator 16
 5950 05ec 2246     		mov	r2, r4
 5951 05ee 4449     		ldr	r1, .L489+56
 5952 05f0 3648     		ldr	r0, .L489+4
 5953 05f2 FFF7FEFF 		bl	sprintf
 5954              	.LVL825:
1214:main.c        **** 				sendTransmitBuffer();
 5955              		.loc 2 1214 0 discriminator 16
 5956 05f6 FFF7FEFF 		bl	sendTransmitBuffer
 5957              	.LVL826:
ARM GAS  C:\Users\FRANKL~1\AppData\Local\Temp\ccCAoJJX.s 			page 139


 5958              	.LBE83:
 5959 05fa 43E5     		b	.L448
 5960              	.LVL827:
 5961              	.L474:
1215:main.c        **** 			} else 
1216:main.c        **** 			if (strstr(ReceiveBuffer, "disconnect-all-from-all ") == &ReceiveBuffer[0]) {
 5962              		.loc 2 1216 0
 5963 05fc 4149     		ldr	r1, .L489+60
 5964 05fe 2046     		mov	r0, r4
 5965 0600 FFF7FEFF 		bl	strstr
 5966              	.LVL828:
 5967 0604 8442     		cmp	r4, r0
 5968 0606 11D1     		bne	.L475
1217:main.c        **** 				Disconnect_All_Contacts_From_All_Intermediates();
 5969              		.loc 2 1217 0
 5970 0608 FFF7FEFF 		bl	Disconnect_All_Contacts_From_All_Intermediates
 5971              	.LVL829:
1218:main.c        **** 				
1219:main.c        **** 				sprintf(TransmitBuffer, "# Disconnected all from all\r\n");
 5972              		.loc 2 1219 0
 5973 060c 2F4D     		ldr	r5, .L489+4
 5974 060e 3E4C     		ldr	r4, .L489+64
 5975              	.LVL830:
 5976 0610 0FCC     		ldmia	r4!, {r0, r1, r2, r3}
 5977 0612 2860     		str	r0, [r5]	@ unaligned
 5978 0614 6960     		str	r1, [r5, #4]	@ unaligned
 5979 0616 AA60     		str	r2, [r5, #8]	@ unaligned
 5980 0618 EB60     		str	r3, [r5, #12]	@ unaligned
 5981 061a 07CC     		ldmia	r4!, {r0, r1, r2}
 5982 061c 2861     		str	r0, [r5, #16]	@ unaligned
 5983 061e 6961     		str	r1, [r5, #20]	@ unaligned
 5984 0620 AA61     		str	r2, [r5, #24]	@ unaligned
 5985 0622 2388     		ldrh	r3, [r4]	@ unaligned
 5986 0624 AB83     		strh	r3, [r5, #28]	@ unaligned
1220:main.c        **** 				sendTransmitBuffer();
 5987              		.loc 2 1220 0
 5988 0626 FFF7FEFF 		bl	sendTransmitBuffer
 5989              	.LVL831:
 5990 062a 2BE5     		b	.L448
 5991              	.LVL832:
 5992              	.L475:
1221:main.c        **** 			} else 
1222:main.c        **** 			if (strstr(ReceiveBuffer, "disconnect-from-all ") == &ReceiveBuffer[0]) {
 5993              		.loc 2 1222 0
 5994 062c 3749     		ldr	r1, .L489+68
 5995 062e 2046     		mov	r0, r4
 5996 0630 FFF7FEFF 		bl	strstr
 5997              	.LVL833:
 5998 0634 8442     		cmp	r4, r0
 5999 0636 15D1     		bne	.L476
 6000              	.LBB84:
1223:main.c        **** 				char* location = strstr(ReceiveBuffer, " ");
 6001              		.loc 2 1223 0 discriminator 17
 6002 0638 2021     		movs	r1, #32
 6003 063a 2046     		mov	r0, r4
 6004 063c FFF7FEFF 		bl	strchr
 6005              	.LVL834:
ARM GAS  C:\Users\FRANKL~1\AppData\Local\Temp\ccCAoJJX.s 			page 140


 6006 0640 02A9     		add	r1, sp, #8
 6007 0642 41F8040D 		str	r0, [r1, #-4]!
1224:main.c        **** 				uint8 contact = strtol(location, &location, 10);
 6008              		.loc 2 1224 0 discriminator 17
 6009 0646 0A22     		movs	r2, #10
 6010 0648 FFF7FEFF 		bl	strtol
 6011              	.LVL835:
 6012 064c C4B2     		uxtb	r4, r0
 6013              	.LVL836:
1225:main.c        **** 				Disconnect_Contact_From_All_Intermediates(contact);
 6014              		.loc 2 1225 0 discriminator 17
 6015 064e 2046     		mov	r0, r4
 6016 0650 FFF7FEFF 		bl	Disconnect_Contact_From_All_Intermediates
 6017              	.LVL837:
1226:main.c        **** 				
1227:main.c        **** 				sprintf(TransmitBuffer, "# Disconnected %u from all\r\n", contact);
 6018              		.loc 2 1227 0 discriminator 17
 6019 0654 2246     		mov	r2, r4
 6020 0656 2E49     		ldr	r1, .L489+72
 6021 0658 1C48     		ldr	r0, .L489+4
 6022 065a FFF7FEFF 		bl	sprintf
 6023              	.LVL838:
1228:main.c        **** 				sendTransmitBuffer();
 6024              		.loc 2 1228 0 discriminator 17
 6025 065e FFF7FEFF 		bl	sendTransmitBuffer
 6026              	.LVL839:
 6027              	.LBE84:
 6028 0662 0FE5     		b	.L448
 6029              	.LVL840:
 6030              	.L476:
1229:main.c        **** 			} else 
1230:main.c        **** 			if (strstr(ReceiveBuffer, "connect-intermediate ") == &ReceiveBuffer[0]) {
 6031              		.loc 2 1230 0
 6032 0664 2B49     		ldr	r1, .L489+76
 6033 0666 2046     		mov	r0, r4
 6034 0668 FFF7FEFF 		bl	strstr
 6035              	.LVL841:
 6036 066c 8442     		cmp	r4, r0
 6037 066e 15D1     		bne	.L477
 6038              	.LBB85:
1231:main.c        **** 				char* location = strstr(ReceiveBuffer, " ");
 6039              		.loc 2 1231 0 discriminator 18
 6040 0670 2021     		movs	r1, #32
 6041 0672 2046     		mov	r0, r4
 6042 0674 FFF7FEFF 		bl	strchr
 6043              	.LVL842:
 6044 0678 02A9     		add	r1, sp, #8
 6045 067a 41F8040D 		str	r0, [r1, #-4]!
1232:main.c        **** 				uint8 intermediate = strtol(location, &location, 10);
 6046              		.loc 2 1232 0 discriminator 18
 6047 067e 0A22     		movs	r2, #10
 6048 0680 FFF7FEFF 		bl	strtol
 6049              	.LVL843:
 6050 0684 C4B2     		uxtb	r4, r0
 6051              	.LVL844:
1233:main.c        **** 				Connect_Intermediate(intermediate);
 6052              		.loc 2 1233 0 discriminator 18
ARM GAS  C:\Users\FRANKL~1\AppData\Local\Temp\ccCAoJJX.s 			page 141


 6053 0686 2046     		mov	r0, r4
 6054 0688 FFF7FEFF 		bl	Connect_Intermediate
 6055              	.LVL845:
1234:main.c        **** 				
1235:main.c        **** 				sprintf(TransmitBuffer, "# Connected intermediate %u\r\n", intermediate);
 6056              		.loc 2 1235 0 discriminator 18
 6057 068c 2246     		mov	r2, r4
 6058 068e 2249     		ldr	r1, .L489+80
 6059 0690 0E48     		ldr	r0, .L489+4
 6060 0692 FFF7FEFF 		bl	sprintf
 6061              	.LVL846:
1236:main.c        **** 				sendTransmitBuffer();
 6062              		.loc 2 1236 0 discriminator 18
 6063 0696 FFF7FEFF 		bl	sendTransmitBuffer
 6064              	.LVL847:
 6065              	.LBE85:
 6066 069a F3E4     		b	.L448
 6067              	.LVL848:
 6068              	.L477:
1237:main.c        **** 			} else 
1238:main.c        **** 			if (strstr(ReceiveBuffer, "connect-intermediates ") == &ReceiveBuffer[0]) {
 6069              		.loc 2 1238 0
 6070 069c 1F49     		ldr	r1, .L489+84
 6071 069e 2046     		mov	r0, r4
 6072 06a0 FFF7FEFF 		bl	strstr
 6073              	.LVL849:
 6074 06a4 8442     		cmp	r4, r0
 6075 06a6 3DD1     		bne	.L478
1239:main.c        **** 				Connect_Intermediates();
 6076              		.loc 2 1239 0
 6077 06a8 FFF7FEFF 		bl	Connect_Intermediates
 6078              	.LVL850:
1240:main.c        **** 				
1241:main.c        **** 				sprintf(TransmitBuffer, "# Connected intermediates\r\n");
 6079              		.loc 2 1241 0
 6080 06ac 074D     		ldr	r5, .L489+4
 6081 06ae 1C4C     		ldr	r4, .L489+88
 6082              	.LVL851:
 6083 06b0 0FCC     		ldmia	r4!, {r0, r1, r2, r3}
 6084 06b2 2860     		str	r0, [r5]	@ unaligned
 6085 06b4 6960     		str	r1, [r5, #4]	@ unaligned
 6086 06b6 AA60     		str	r2, [r5, #8]	@ unaligned
 6087 06b8 EB60     		str	r3, [r5, #12]	@ unaligned
 6088 06ba 07CC     		ldmia	r4!, {r0, r1, r2}
 6089 06bc 2861     		str	r0, [r5, #16]	@ unaligned
 6090 06be 6961     		str	r1, [r5, #20]	@ unaligned
 6091 06c0 AA61     		str	r2, [r5, #24]	@ unaligned
1242:main.c        **** 				sendTransmitBuffer();
 6092              		.loc 2 1242 0
 6093 06c2 FFF7FEFF 		bl	sendTransmitBuffer
 6094              	.LVL852:
 6095 06c6 DDE4     		b	.L448
 6096              	.L490:
 6097              		.align	2
 6098              	.L489:
 6099 06c8 90020000 		.word	.LC39
 6100 06cc 00000000 		.word	TransmitBuffer
ARM GAS  C:\Users\FRANKL~1\AppData\Local\Temp\ccCAoJJX.s 			page 142


 6101 06d0 A4020000 		.word	.LC40
 6102 06d4 C4020000 		.word	.LC41
 6103 06d8 E4020000 		.word	.LC42
 6104 06dc FC020000 		.word	.LC43
 6105 06e0 20030000 		.word	.LC44
 6106 06e4 44030000 		.word	.LC45
 6107 06e8 50030000 		.word	.LC46
 6108 06ec 68030000 		.word	.LC47
 6109 06f0 74030000 		.word	.LC48
 6110 06f4 94030000 		.word	.LC49
 6111 06f8 A0030000 		.word	.LC50
 6112 06fc BC030000 		.word	.LC51
 6113 0700 D4030000 		.word	.LC52
 6114 0704 F4030000 		.word	.LC53
 6115 0708 10040000 		.word	.LC54
 6116 070c 30040000 		.word	.LC55
 6117 0710 48040000 		.word	.LC56
 6118 0714 68040000 		.word	.LC57
 6119 0718 80040000 		.word	.LC58
 6120 071c A0040000 		.word	.LC59
 6121 0720 B8040000 		.word	.LC60
 6122              	.LVL853:
 6123              	.L478:
1243:main.c        **** 			} else 
1244:main.c        **** 			if (strstr(ReceiveBuffer, "Set_Current_Measurement_Sample_Count ") == &ReceiveBuffer[0]) {
 6124              		.loc 2 1244 0
 6125 0724 4749     		ldr	r1, .L491
 6126 0726 2046     		mov	r0, r4
 6127 0728 FFF7FEFF 		bl	strstr
 6128              	.LVL854:
 6129 072c 8442     		cmp	r4, r0
 6130 072e 21D1     		bne	.L479
 6131              	.LBB86:
1245:main.c        **** 				char* location = strstr(ReceiveBuffer, " ");
 6132              		.loc 2 1245 0 discriminator 19
 6133 0730 2021     		movs	r1, #32
 6134 0732 2046     		mov	r0, r4
 6135 0734 FFF7FEFF 		bl	strchr
 6136              	.LVL855:
 6137 0738 02A9     		add	r1, sp, #8
 6138 073a 41F8040D 		str	r0, [r1, #-4]!
1246:main.c        **** 				uint32 sampleCount = strtol(location, &location, 10);
 6139              		.loc 2 1246 0 discriminator 19
 6140 073e 0A22     		movs	r2, #10
 6141 0740 FFF7FEFF 		bl	strtol
 6142              	.LVL856:
1247:main.c        **** 				
1248:main.c        **** 				Current_Measurement_Sample_Count = sampleCount;
 6143              		.loc 2 1248 0 discriminator 19
 6144 0744 404B     		ldr	r3, .L491+4
 6145 0746 1860     		str	r0, [r3]
1249:main.c        **** 				
1250:main.c        **** 				sprintf(TransmitBuffer, "# Set Current Measurement Sample Count\r\n");
 6146              		.loc 2 1250 0 discriminator 19
 6147 0748 404C     		ldr	r4, .L491+8
 6148              	.LVL857:
 6149 074a 414D     		ldr	r5, .L491+12
ARM GAS  C:\Users\FRANKL~1\AppData\Local\Temp\ccCAoJJX.s 			page 143


 6150 074c 04F12007 		add	r7, r4, #32
 6151              	.LVL858:
 6152              	.L480:
 6153 0750 2646     		mov	r6, r4
 6154 0752 0FCE     		ldmia	r6!, {r0, r1, r2, r3}
 6155 0754 2860     		str	r0, [r5]	@ unaligned
 6156 0756 6960     		str	r1, [r5, #4]	@ unaligned
 6157 0758 AA60     		str	r2, [r5, #8]	@ unaligned
 6158 075a EB60     		str	r3, [r5, #12]	@ unaligned
 6159 075c 3446     		mov	r4, r6
 6160 075e 1035     		adds	r5, r5, #16
 6161 0760 BE42     		cmp	r6, r7
 6162 0762 F5D1     		bne	.L480
 6163 0764 03CC     		ldmia	r4!, {r0, r1}
 6164 0766 2860     		str	r0, [r5]	@ unaligned
 6165 0768 6960     		str	r1, [r5, #4]	@ unaligned
 6166 076a 2378     		ldrb	r3, [r4]	@ zero_extendqisi2
 6167 076c 2B72     		strb	r3, [r5, #8]
1251:main.c        **** 				sendTransmitBuffer();
 6168              		.loc 2 1251 0 discriminator 19
 6169 076e FFF7FEFF 		bl	sendTransmitBuffer
 6170              	.LVL859:
 6171              	.LBE86:
 6172 0772 87E4     		b	.L448
 6173              	.LVL860:
 6174              	.L479:
1252:main.c        **** 			} else 
1253:main.c        **** 			if (strstr(ReceiveBuffer, "enable-uart-sending ") == &ReceiveBuffer[0]) {
 6175              		.loc 2 1253 0
 6176 0774 3749     		ldr	r1, .L491+16
 6177 0776 2046     		mov	r0, r4
 6178 0778 FFF7FEFF 		bl	strstr
 6179              	.LVL861:
 6180 077c 8442     		cmp	r4, r0
 6181 077e 11D1     		bne	.L481
1254:main.c        **** 				sprintf(TransmitBuffer, "# Enabled UART Sending\r\n");
 6182              		.loc 2 1254 0
 6183 0780 334D     		ldr	r5, .L491+12
 6184 0782 354C     		ldr	r4, .L491+20
 6185              	.LVL862:
 6186 0784 0FCC     		ldmia	r4!, {r0, r1, r2, r3}
 6187 0786 2860     		str	r0, [r5]	@ unaligned
 6188 0788 6960     		str	r1, [r5, #4]	@ unaligned
 6189 078a AA60     		str	r2, [r5, #8]	@ unaligned
 6190 078c EB60     		str	r3, [r5, #12]	@ unaligned
 6191 078e 03CC     		ldmia	r4!, {r0, r1}
 6192 0790 2861     		str	r0, [r5, #16]	@ unaligned
 6193 0792 6961     		str	r1, [r5, #20]	@ unaligned
 6194 0794 2378     		ldrb	r3, [r4]	@ zero_extendqisi2
 6195 0796 2B76     		strb	r3, [r5, #24]
1255:main.c        **** 				sendTransmitBuffer();
 6196              		.loc 2 1255 0
 6197 0798 FFF7FEFF 		bl	sendTransmitBuffer
 6198              	.LVL863:
1256:main.c        **** 				
1257:main.c        **** 				uartSendingEnabled = true;
 6199              		.loc 2 1257 0
ARM GAS  C:\Users\FRANKL~1\AppData\Local\Temp\ccCAoJJX.s 			page 144


 6200 079c 0122     		movs	r2, #1
 6201 079e 2F4B     		ldr	r3, .L491+24
 6202 07a0 5A70     		strb	r2, [r3, #1]
 6203 07a2 6FE4     		b	.L448
 6204              	.LVL864:
 6205              	.L481:
1258:main.c        **** 			} else 
1259:main.c        **** 			if (strstr(ReceiveBuffer, "enable-usbu-sending ") == &ReceiveBuffer[0]) {
 6206              		.loc 2 1259 0
 6207 07a4 2E49     		ldr	r1, .L491+28
 6208 07a6 2046     		mov	r0, r4
 6209 07a8 FFF7FEFF 		bl	strstr
 6210              	.LVL865:
 6211 07ac 8442     		cmp	r4, r0
 6212 07ae 11D1     		bne	.L482
1260:main.c        **** 				sprintf(TransmitBuffer, "# Enabled USBU Sending\r\n");
 6213              		.loc 2 1260 0
 6214 07b0 274D     		ldr	r5, .L491+12
 6215 07b2 2C4C     		ldr	r4, .L491+32
 6216              	.LVL866:
 6217 07b4 0FCC     		ldmia	r4!, {r0, r1, r2, r3}
 6218 07b6 2860     		str	r0, [r5]	@ unaligned
 6219 07b8 6960     		str	r1, [r5, #4]	@ unaligned
 6220 07ba AA60     		str	r2, [r5, #8]	@ unaligned
 6221 07bc EB60     		str	r3, [r5, #12]	@ unaligned
 6222 07be 03CC     		ldmia	r4!, {r0, r1}
 6223 07c0 2861     		str	r0, [r5, #16]	@ unaligned
 6224 07c2 6961     		str	r1, [r5, #20]	@ unaligned
 6225 07c4 2378     		ldrb	r3, [r4]	@ zero_extendqisi2
 6226 07c6 2B76     		strb	r3, [r5, #24]
1261:main.c        **** 				sendTransmitBuffer();
 6227              		.loc 2 1261 0
 6228 07c8 FFF7FEFF 		bl	sendTransmitBuffer
 6229              	.LVL867:
1262:main.c        **** 				
1263:main.c        **** 				usbuSendingEnabled = true;
 6230              		.loc 2 1263 0
 6231 07cc 0122     		movs	r2, #1
 6232 07ce 234B     		ldr	r3, .L491+24
 6233 07d0 1A70     		strb	r2, [r3]
 6234 07d2 57E4     		b	.L448
 6235              	.LVL868:
 6236              	.L482:
1264:main.c        **** 			} else 
1265:main.c        **** 			if (strstr(ReceiveBuffer, "disable-uart-sending ") == &ReceiveBuffer[0]) {
 6237              		.loc 2 1265 0
 6238 07d4 2449     		ldr	r1, .L491+36
 6239 07d6 2046     		mov	r0, r4
 6240 07d8 FFF7FEFF 		bl	strstr
 6241              	.LVL869:
 6242 07dc 8442     		cmp	r4, r0
 6243 07de 11D1     		bne	.L483
1266:main.c        **** 				sprintf(TransmitBuffer, "# Disabled UART Sending\r\n");
 6244              		.loc 2 1266 0
 6245 07e0 1B4D     		ldr	r5, .L491+12
 6246 07e2 224C     		ldr	r4, .L491+40
 6247              	.LVL870:
ARM GAS  C:\Users\FRANKL~1\AppData\Local\Temp\ccCAoJJX.s 			page 145


 6248 07e4 0FCC     		ldmia	r4!, {r0, r1, r2, r3}
 6249 07e6 2860     		str	r0, [r5]	@ unaligned
 6250 07e8 6960     		str	r1, [r5, #4]	@ unaligned
 6251 07ea AA60     		str	r2, [r5, #8]	@ unaligned
 6252 07ec EB60     		str	r3, [r5, #12]	@ unaligned
 6253 07ee 03CC     		ldmia	r4!, {r0, r1}
 6254 07f0 2861     		str	r0, [r5, #16]	@ unaligned
 6255 07f2 6961     		str	r1, [r5, #20]	@ unaligned
 6256 07f4 2388     		ldrh	r3, [r4]	@ unaligned
 6257 07f6 2B83     		strh	r3, [r5, #24]	@ unaligned
1267:main.c        **** 				sendTransmitBuffer();
 6258              		.loc 2 1267 0
 6259 07f8 FFF7FEFF 		bl	sendTransmitBuffer
 6260              	.LVL871:
1268:main.c        **** 				
1269:main.c        **** 				uartSendingEnabled = false;
 6261              		.loc 2 1269 0
 6262 07fc 0022     		movs	r2, #0
 6263 07fe 174B     		ldr	r3, .L491+24
 6264 0800 5A70     		strb	r2, [r3, #1]
 6265 0802 3FE4     		b	.L448
 6266              	.LVL872:
 6267              	.L483:
1270:main.c        **** 			} else 
1271:main.c        **** 			if (strstr(ReceiveBuffer, "disable-usbu-sending ") == &ReceiveBuffer[0]) {
 6268              		.loc 2 1271 0
 6269 0804 1A49     		ldr	r1, .L491+44
 6270 0806 2046     		mov	r0, r4
 6271 0808 FFF7FEFF 		bl	strstr
 6272              	.LVL873:
 6273 080c 8442     		cmp	r4, r0
 6274 080e 11D1     		bne	.L484
1272:main.c        **** 				sprintf(TransmitBuffer, "# Disabled USBU Sending\r\n");
 6275              		.loc 2 1272 0
 6276 0810 0F4D     		ldr	r5, .L491+12
 6277 0812 184C     		ldr	r4, .L491+48
 6278              	.LVL874:
 6279 0814 0FCC     		ldmia	r4!, {r0, r1, r2, r3}
 6280 0816 2860     		str	r0, [r5]	@ unaligned
 6281 0818 6960     		str	r1, [r5, #4]	@ unaligned
 6282 081a AA60     		str	r2, [r5, #8]	@ unaligned
 6283 081c EB60     		str	r3, [r5, #12]	@ unaligned
 6284 081e 03CC     		ldmia	r4!, {r0, r1}
 6285 0820 2861     		str	r0, [r5, #16]	@ unaligned
 6286 0822 6961     		str	r1, [r5, #20]	@ unaligned
 6287 0824 2388     		ldrh	r3, [r4]	@ unaligned
 6288 0826 2B83     		strh	r3, [r5, #24]	@ unaligned
1273:main.c        **** 				sendTransmitBuffer();
 6289              		.loc 2 1273 0
 6290 0828 FFF7FEFF 		bl	sendTransmitBuffer
 6291              	.LVL875:
1274:main.c        **** 				
1275:main.c        **** 				usbuSendingEnabled = false;
 6292              		.loc 2 1275 0
 6293 082c 0022     		movs	r2, #0
 6294 082e 0B4B     		ldr	r3, .L491+24
 6295 0830 1A70     		strb	r2, [r3]
ARM GAS  C:\Users\FRANKL~1\AppData\Local\Temp\ccCAoJJX.s 			page 146


 6296 0832 27E4     		b	.L448
 6297              	.LVL876:
 6298              	.L484:
1276:main.c        **** 			} else {
1277:main.c        **** 				sprintf(TransmitBuffer, "! Unidentified command: |%s|\r\n", ReceiveBuffer);
 6299              		.loc 2 1277 0
 6300 0834 2246     		mov	r2, r4
 6301 0836 1049     		ldr	r1, .L491+52
 6302 0838 0548     		ldr	r0, .L491+12
 6303 083a FFF7FEFF 		bl	sprintf
 6304              	.LVL877:
1278:main.c        **** 				sendTransmitBuffer();
 6305              		.loc 2 1278 0
 6306 083e FFF7FEFF 		bl	sendTransmitBuffer
 6307              	.LVL878:
 6308 0842 1FE4     		b	.L448
 6309              	.L492:
 6310              		.align	2
 6311              	.L491:
 6312 0844 D4040000 		.word	.LC61
 6313 0848 00000000 		.word	Current_Measurement_Sample_Count
 6314 084c FC040000 		.word	.LC62
 6315 0850 00000000 		.word	TransmitBuffer
 6316 0854 28050000 		.word	.LC63
 6317 0858 40050000 		.word	.LC64
 6318 085c 00000000 		.word	.LANCHOR1
 6319 0860 5C050000 		.word	.LC65
 6320 0864 74050000 		.word	.LC66
 6321 0868 90050000 		.word	.LC67
 6322 086c A8050000 		.word	.LC68
 6323 0870 C4050000 		.word	.LC69
 6324 0874 DC050000 		.word	.LC70
 6325 0878 F8050000 		.word	.LC71
 6326              	.LBE67:
 6327              		.cfi_endproc
 6328              	.LFE117:
 6329              		.size	main, .-main
 6330              		.global	usbuSendingEnabled
 6331              		.global	uartSendingEnabled
 6332              		.comm	Current_Measurement_Sample_Count,4,4
 6333              		.comm	Vds_Index_Goal_Relative,2,2
 6334              		.comm	Vgs_Index_Goal_Relative,2,2
 6335              		.comm	Compliance_Reached,1,1
 6336              		.global	TIA_Offsets_uV
 6337              		.global	TIA_Resistor_Values
 6338              		.global	TIA_Resistor_Codes
 6339              		.global	TIA_Selected_Resistor
 6340              		.comm	USBUART_Rx_Position,1,1
 6341              		.comm	USBUART_Receive_Buffer,64,4
 6342              		.comm	UART_Rx_Position,1,1
 6343              		.comm	UART_Receive_Buffer,64,4
 6344              		.global	G_Pause
 6345              		.global	G_Break
 6346              		.global	G_Stop
 6347              		.global	newData
 6348              		.comm	TransmitBuffer,64,4
 6349              		.comm	selectors,1020,4
ARM GAS  C:\Users\FRANKL~1\AppData\Local\Temp\ccCAoJJX.s 			page 147


 6350              		.data
 6351              		.align	2
 6352              		.set	.LANCHOR1,. + 0
 6353              		.type	usbuSendingEnabled, %object
 6354              		.size	usbuSendingEnabled, 1
 6355              	usbuSendingEnabled:
 6356 0000 01       		.byte	1
 6357              		.type	uartSendingEnabled, %object
 6358              		.size	uartSendingEnabled, 1
 6359              	uartSendingEnabled:
 6360 0001 01       		.byte	1
 6361 0002 0000     		.space	2
 6362              		.type	TIA_Resistor_Codes, %object
 6363              		.size	TIA_Resistor_Codes, 8
 6364              	TIA_Resistor_Codes:
 6365 0004 00       		.byte	0
 6366 0005 01       		.byte	1
 6367 0006 02       		.byte	2
 6368 0007 03       		.byte	3
 6369 0008 04       		.byte	4
 6370 0009 05       		.byte	5
 6371 000a 06       		.byte	6
 6372 000b 07       		.byte	7
 6373              		.type	TIA_Resistor_Values, %object
 6374              		.size	TIA_Resistor_Values, 32
 6375              	TIA_Resistor_Values:
 6376 000c 00409C46 		.word	1184645120
 6377 0010 0060EA46 		.word	1189765120
 6378 0014 00401C47 		.word	1193033728
 6379 0018 00409C47 		.word	1201422336
 6380 001c 0060EA47 		.word	1206542336
 6381 0020 00247448 		.word	1215570944
 6382 0024 0024F448 		.word	1223959552
 6383 0028 00247449 		.word	1232348160
 6384              		.section	.rodata.str1.4,"aMS",%progbits,1
 6385              		.align	2
 6386              	.LC0:
 6387 0000 73746F70 		.ascii	"stop \000"
 6387      2000
 6388 0006 0000     		.space	2
 6389              	.LC1:
 6390 0008 62726561 		.ascii	"break \000"
 6390      6B2000
 6391 000f 00       		.space	1
 6392              	.LC2:
 6393 0010 70617573 		.ascii	"pause \000"
 6393      652000
 6394 0017 00       		.space	1
 6395              	.LC3:
 6396 0018 72657375 		.ascii	"resume \000"
 6396      6D652000 
 6397              	.LC4:
 6398 0020 74726973 		.ascii	"tristate \000"
 6398      74617465 
 6398      2000
 6399 002a 0000     		.space	2
 6400              	.LC5:
ARM GAS  C:\Users\FRANKL~1\AppData\Local\Temp\ccCAoJJX.s 			page 148


 6401 002c 55706461 		.ascii	"Updating Selector %u\015\012\000"
 6401      74696E67 
 6401      2053656C 
 6401      6563746F 
 6401      72202575 
 6402 0043 00       		.space	1
 6403              	.LC6:
 6404 0044 49324320 		.ascii	"I2C Transfer Error! Type: Timeout\015\012\000"
 6404      5472616E 
 6404      73666572 
 6404      20457272 
 6404      6F722120 
 6405              	.LC7:
 6406 0068 49324320 		.ascii	"I2C Transfer Error! \000"
 6406      5472616E 
 6406      73666572 
 6406      20457272 
 6406      6F722120 
 6407 007d 000000   		.space	3
 6408              	.LC8:
 6409 0080 54797065 		.ascii	"Type: NAK\000"
 6409      3A204E41 
 6409      4B00
 6410 008a 0000     		.space	2
 6411              	.LC9:
 6412 008c 0D0A00   		.ascii	"\015\012\000"
 6413 008f 00       		.space	1
 6414              	.LC10:
 6415 0090 55706461 		.ascii	"Updated Selector %u\015\012\000"
 6415      74656420 
 6415      53656C65 
 6415      63746F72 
 6415      2025750D 
 6416 00a6 0000     		.space	2
 6417              	.LC11:
 6418 00a8 23204F66 		.ascii	"# Offset %e Ohm: %li uV\015\012\000"
 6418      66736574 
 6418      20256520 
 6418      4F686D3A 
 6418      20256C69 
 6419 00c2 0000     		.space	2
 6420              	.LC12:
 6421 00c4 23204361 		.ascii	"# Calibrated ADC Offsets\015\012\000"
 6421      6C696272 
 6421      61746564 
 6421      20414443 
 6421      204F6666 
 6422 00df 00       		.space	1
 6423              	.LC13:
 6424 00e0 25662C25 		.ascii	"%f,%f,%f\015\012\000"
 6424      662C2566 
 6424      0D0A00
 6425 00eb 00       		.space	1
 6426              	.LC14:
 6427 00ec 0D0A2575 		.ascii	"\015\012%u\015\012\000"
 6427      0D0A00
 6428 00f3 00       		.space	1
ARM GAS  C:\Users\FRANKL~1\AppData\Local\Temp\ccCAoJJX.s 			page 149


 6429              	.LC15:
 6430 00f4 0D0A2320 		.ascii	"\015\012# Starting\015\012\000"
 6430      53746172 
 6430      74696E67 
 6430      0D0A00
 6431 0103 00       		.space	1
 6432              	.LC16:
 6433 0104 6D656173 		.ascii	"measure \000"
 6433      75726520 
 6433      00
 6434 010d 000000   		.space	3
 6435              	.LC17:
 6436 0110 6D656173 		.ascii	"measure-multiple \000"
 6436      7572652D 
 6436      6D756C74 
 6436      69706C65 
 6436      2000
 6437 0122 0000     		.space	2
 6438              	.LC18:
 6439 0124 6D656173 		.ascii	"measure-sweep \000"
 6439      7572652D 
 6439      73776565 
 6439      702000
 6440 0133 00       		.space	1
 6441              	.LC19:
 6442 0134 6D656173 		.ascii	"measure-gate-sweep \000"
 6442      7572652D 
 6442      67617465 
 6442      2D737765 
 6442      65702000 
 6443              	.LC20:
 6444 0148 6D656173 		.ascii	"measure-gate-sweep-loop \000"
 6444      7572652D 
 6444      67617465 
 6444      2D737765 
 6444      65702D6C 
 6445 0161 000000   		.space	3
 6446              	.LC21:
 6447 0164 63616C69 		.ascii	"calibrate-offset \000"
 6447      62726174 
 6447      652D6F66 
 6447      66736574 
 6447      2000
 6448 0176 0000     		.space	2
 6449              	.LC22:
 6450 0178 7365742D 		.ascii	"set-vgs-raw \000"
 6450      7667732D 
 6450      72617720 
 6450      00
 6451 0185 000000   		.space	3
 6452              	.LC23:
 6453 0188 7365742D 		.ascii	"set-vds-raw \000"
 6453      7664732D 
 6453      72617720 
 6453      00
 6454 0195 000000   		.space	3
 6455              	.LC24:
ARM GAS  C:\Users\FRANKL~1\AppData\Local\Temp\ccCAoJJX.s 			page 150


 6456 0198 7365742D 		.ascii	"set-vgs-rel \000"
 6456      7667732D 
 6456      72656C20 
 6456      00
 6457 01a5 000000   		.space	3
 6458              	.LC25:
 6459 01a8 7365742D 		.ascii	"set-vds-rel \000"
 6459      7664732D 
 6459      72656C20 
 6459      00
 6460 01b5 000000   		.space	3
 6461              	.LC26:
 6462 01b8 7365742D 		.ascii	"set-vgs \000"
 6462      76677320 
 6462      00
 6463 01c1 000000   		.space	3
 6464              	.LC27:
 6465 01c4 256600   		.ascii	"%f\000"
 6466 01c7 00       		.space	1
 6467              	.LC28:
 6468 01c8 7365742D 		.ascii	"set-vds \000"
 6468      76647320 
 6468      00
 6469 01d1 000000   		.space	3
 6470              	.LC29:
 6471 01d4 7365742D 		.ascii	"set-vgs-mv \000"
 6471      7667732D 
 6471      6D762000 
 6472              	.LC30:
 6473 01e0 23205667 		.ascii	"# Vgs set to %f mV\015\012\000"
 6473      73207365 
 6473      7420746F 
 6473      20256620 
 6473      6D560D0A 
 6474 01f5 000000   		.space	3
 6475              	.LC31:
 6476 01f8 7365742D 		.ascii	"set-vds-mv \000"
 6476      7664732D 
 6476      6D762000 
 6477              	.LC32:
 6478 0204 23205664 		.ascii	"# Vds set to %f mV\015\012\000"
 6478      73207365 
 6478      7420746F 
 6478      20256620 
 6478      6D560D0A 
 6479 0219 000000   		.space	3
 6480              	.LC33:
 6481 021c 7363616E 		.ascii	"scan \000"
 6481      2000
 6482 0222 0000     		.space	2
 6483              	.LC34:
 6484 0224 0D0A2320 		.ascii	"\015\012# Scan Starting\015\012\000"
 6484      5363616E 
 6484      20537461 
 6484      7274696E 
 6484      670D0A00 
 6485              	.LC35:
ARM GAS  C:\Users\FRANKL~1\AppData\Local\Temp\ccCAoJJX.s 			page 151


 6486 0238 0D0A2320 		.ascii	"\015\012# Scan Complete\015\012\000"
 6486      5363616E 
 6486      20436F6D 
 6486      706C6574 
 6486      650D0A00 
 6487              	.LC36:
 6488 024c 7363616E 		.ascii	"scan-range \000"
 6488      2D72616E 
 6488      67652000 
 6489              	.LC37:
 6490 0258 0D0A2320 		.ascii	"\015\012# Scan-Range Starting\015\012\000"
 6490      5363616E 
 6490      2D52616E 
 6490      67652053 
 6490      74617274 
 6491 0272 0000     		.space	2
 6492              	.LC38:
 6493 0274 0D0A2320 		.ascii	"\015\012# Scan Range Complete\015\012\000"
 6493      5363616E 
 6493      2052616E 
 6493      67652043 
 6493      6F6D706C 
 6494 028e 0000     		.space	2
 6495              	.LC39:
 6496 0290 7363616E 		.ascii	"scan-range-loop \000"
 6496      2D72616E 
 6496      67652D6C 
 6496      6F6F7020 
 6496      00
 6497 02a1 000000   		.space	3
 6498              	.LC40:
 6499 02a4 0D0A2320 		.ascii	"\015\012# Scan-Range-Loop Starting\015\012\000"
 6499      5363616E 
 6499      2D52616E 
 6499      67652D4C 
 6499      6F6F7020 
 6500 02c3 00       		.space	1
 6501              	.LC41:
 6502 02c4 0D0A2320 		.ascii	"\015\012# Scan Range Loop Complete\015\012\000"
 6502      5363616E 
 6502      2052616E 
 6502      6765204C 
 6502      6F6F7020 
 6503 02e3 00       		.space	1
 6504              	.LC42:
 6505 02e4 7363616E 		.ascii	"scan-range-wide-loop \000"
 6505      2D72616E 
 6505      67652D77 
 6505      6964652D 
 6505      6C6F6F70 
 6506 02fa 0000     		.space	2
 6507              	.LC43:
 6508 02fc 0D0A2320 		.ascii	"\015\012# Scan-Range-Wide-Loop Starting\015\012\000"
 6508      5363616E 
 6508      2D52616E 
 6508      67652D57 
 6508      6964652D 
ARM GAS  C:\Users\FRANKL~1\AppData\Local\Temp\ccCAoJJX.s 			page 152


 6509              	.LC44:
 6510 0320 0D0A2320 		.ascii	"\015\012# Scan Range Wide Loop Complete\015\012\000"
 6510      5363616E 
 6510      2052616E 
 6510      67652057 
 6510      69646520 
 6511              	.LC45:
 6512 0344 636F6E6E 		.ascii	"connect \000"
 6512      65637420 
 6512      00
 6513 034d 000000   		.space	3
 6514              	.LC46:
 6515 0350 2320436F 		.ascii	"# Connected %u to %u\015\012\000"
 6515      6E6E6563 
 6515      74656420 
 6515      25752074 
 6515      6F202575 
 6516 0367 00       		.space	1
 6517              	.LC47:
 6518 0368 636F6E6E 		.ascii	"connect-c \000"
 6518      6563742D 
 6518      632000
 6519 0373 00       		.space	1
 6520              	.LC48:
 6521 0374 2320436F 		.ascii	"# Connected channel %u to %u\015\012\000"
 6521      6E6E6563 
 6521      74656420 
 6521      6368616E 
 6521      6E656C20 
 6522 0393 00       		.space	1
 6523              	.LC49:
 6524 0394 64697363 		.ascii	"disconnect \000"
 6524      6F6E6E65 
 6524      63742000 
 6525              	.LC50:
 6526 03a0 23204469 		.ascii	"# Disonnected %u from %u\015\012\000"
 6526      736F6E6E 
 6526      65637465 
 6526      64202575 
 6526      2066726F 
 6527 03bb 00       		.space	1
 6528              	.LC51:
 6529 03bc 64697363 		.ascii	"disconnect-all-from \000"
 6529      6F6E6E65 
 6529      63742D61 
 6529      6C6C2D66 
 6529      726F6D20 
 6530 03d1 000000   		.space	3
 6531              	.LC52:
 6532 03d4 23204469 		.ascii	"# Disconnected all from  %u\015\012\000"
 6532      73636F6E 
 6532      6E656374 
 6532      65642061 
 6532      6C6C2066 
 6533 03f2 0000     		.space	2
 6534              	.LC53:
 6535 03f4 64697363 		.ascii	"disconnect-all-from-all \000"
ARM GAS  C:\Users\FRANKL~1\AppData\Local\Temp\ccCAoJJX.s 			page 153


 6535      6F6E6E65 
 6535      63742D61 
 6535      6C6C2D66 
 6535      726F6D2D 
 6536 040d 000000   		.space	3
 6537              	.LC54:
 6538 0410 23204469 		.ascii	"# Disconnected all from all\015\012\000"
 6538      73636F6E 
 6538      6E656374 
 6538      65642061 
 6538      6C6C2066 
 6539 042e 0000     		.space	2
 6540              	.LC55:
 6541 0430 64697363 		.ascii	"disconnect-from-all \000"
 6541      6F6E6E65 
 6541      63742D66 
 6541      726F6D2D 
 6541      616C6C20 
 6542 0445 000000   		.space	3
 6543              	.LC56:
 6544 0448 23204469 		.ascii	"# Disconnected %u from all\015\012\000"
 6544      73636F6E 
 6544      6E656374 
 6544      65642025 
 6544      75206672 
 6545 0465 000000   		.space	3
 6546              	.LC57:
 6547 0468 636F6E6E 		.ascii	"connect-intermediate \000"
 6547      6563742D 
 6547      696E7465 
 6547      726D6564 
 6547      69617465 
 6548 047e 0000     		.space	2
 6549              	.LC58:
 6550 0480 2320436F 		.ascii	"# Connected intermediate %u\015\012\000"
 6550      6E6E6563 
 6550      74656420 
 6550      696E7465 
 6550      726D6564 
 6551 049e 0000     		.space	2
 6552              	.LC59:
 6553 04a0 636F6E6E 		.ascii	"connect-intermediates \000"
 6553      6563742D 
 6553      696E7465 
 6553      726D6564 
 6553      69617465 
 6554 04b7 00       		.space	1
 6555              	.LC60:
 6556 04b8 2320436F 		.ascii	"# Connected intermediates\015\012\000"
 6556      6E6E6563 
 6556      74656420 
 6556      696E7465 
 6556      726D6564 
 6557              	.LC61:
 6558 04d4 5365745F 		.ascii	"Set_Current_Measurement_Sample_Count \000"
 6558      43757272 
 6558      656E745F 
ARM GAS  C:\Users\FRANKL~1\AppData\Local\Temp\ccCAoJJX.s 			page 154


 6558      4D656173 
 6558      7572656D 
 6559 04fa 0000     		.space	2
 6560              	.LC62:
 6561 04fc 23205365 		.ascii	"# Set Current Measurement Sample Count\015\012\000"
 6561      74204375 
 6561      7272656E 
 6561      74204D65 
 6561      61737572 
 6562 0525 000000   		.space	3
 6563              	.LC63:
 6564 0528 656E6162 		.ascii	"enable-uart-sending \000"
 6564      6C652D75 
 6564      6172742D 
 6564      73656E64 
 6564      696E6720 
 6565 053d 000000   		.space	3
 6566              	.LC64:
 6567 0540 2320456E 		.ascii	"# Enabled UART Sending\015\012\000"
 6567      61626C65 
 6567      64205541 
 6567      52542053 
 6567      656E6469 
 6568 0559 000000   		.space	3
 6569              	.LC65:
 6570 055c 656E6162 		.ascii	"enable-usbu-sending \000"
 6570      6C652D75 
 6570      7362752D 
 6570      73656E64 
 6570      696E6720 
 6571 0571 000000   		.space	3
 6572              	.LC66:
 6573 0574 2320456E 		.ascii	"# Enabled USBU Sending\015\012\000"
 6573      61626C65 
 6573      64205553 
 6573      42552053 
 6573      656E6469 
 6574 058d 000000   		.space	3
 6575              	.LC67:
 6576 0590 64697361 		.ascii	"disable-uart-sending \000"
 6576      626C652D 
 6576      75617274 
 6576      2D73656E 
 6576      64696E67 
 6577 05a6 0000     		.space	2
 6578              	.LC68:
 6579 05a8 23204469 		.ascii	"# Disabled UART Sending\015\012\000"
 6579      7361626C 
 6579      65642055 
 6579      41525420 
 6579      53656E64 
 6580 05c2 0000     		.space	2
 6581              	.LC69:
 6582 05c4 64697361 		.ascii	"disable-usbu-sending \000"
 6582      626C652D 
 6582      75736275 
 6582      2D73656E 
ARM GAS  C:\Users\FRANKL~1\AppData\Local\Temp\ccCAoJJX.s 			page 155


 6582      64696E67 
 6583 05da 0000     		.space	2
 6584              	.LC70:
 6585 05dc 23204469 		.ascii	"# Disabled USBU Sending\015\012\000"
 6585      7361626C 
 6585      65642055 
 6585      53425520 
 6585      53656E64 
 6586 05f6 0000     		.space	2
 6587              	.LC71:
 6588 05f8 2120556E 		.ascii	"! Unidentified command: |%s|\015\012\000"
 6588      6964656E 
 6588      74696669 
 6588      65642063 
 6588      6F6D6D61 
 6589              		.bss
 6590              		.align	2
 6591              		.set	.LANCHOR0,. + 0
 6592              		.type	newData, %object
 6593              		.size	newData, 1
 6594              	newData:
 6595 0000 00       		.space	1
 6596              		.type	G_Stop, %object
 6597              		.size	G_Stop, 1
 6598              	G_Stop:
 6599 0001 00       		.space	1
 6600              		.type	G_Break, %object
 6601              		.size	G_Break, 1
 6602              	G_Break:
 6603 0002 00       		.space	1
 6604              		.type	G_Pause, %object
 6605              		.size	G_Pause, 1
 6606              	G_Pause:
 6607 0003 00       		.space	1
 6608              		.type	TIA_Selected_Resistor, %object
 6609              		.size	TIA_Selected_Resistor, 1
 6610              	TIA_Selected_Resistor:
 6611 0004 00       		.space	1
 6612 0005 000000   		.space	3
 6613              		.type	TIA_Offsets_uV, %object
 6614              		.size	TIA_Offsets_uV, 32
 6615              	TIA_Offsets_uV:
 6616 0008 00000000 		.space	32
 6616      00000000 
 6616      00000000 
 6616      00000000 
 6616      00000000 
 6617              		.text
 6618              	.Letext0:
 6619              		.file 3 "c:\\program files (x86)\\cypress\\psoc creator\\4.1\\psoc creator\\import\\gnu\\arm\\5.4.
 6620              		.file 4 "c:\\program files (x86)\\cypress\\psoc creator\\4.1\\psoc creator\\import\\gnu\\arm\\5.4.
 6621              		.file 5 "Generated_Source\\PSoC5/cytypes.h"
 6622              		.file 6 "Generated_Source\\PSoC5/core_cm3.h"
 6623              		.file 7 "Generated_Source\\PSoC5/USBUART.h"
 6624              		.file 8 "Generated_Source\\PSoC5/USBUART_cdc.h"
 6625              		.file 9 "c:\\program files (x86)\\cypress\\psoc creator\\4.1\\psoc creator\\import\\gnu\\arm\\5.4.
 6626              		.file 10 "Generated_Source\\PSoC5/UART_1.h"
ARM GAS  C:\Users\FRANKL~1\AppData\Local\Temp\ccCAoJJX.s 			page 156


 6627              		.file 11 "Generated_Source\\PSoC5/CommunicationInterrupt.h"
 6628              		.file 12 "Generated_Source\\PSoC5/CommunicationTimer.h"
 6629              		.file 13 "Generated_Source\\PSoC5/I2C_1.h"
 6630              		.file 14 "c:\\program files (x86)\\cypress\\psoc creator\\4.1\\psoc creator\\import\\gnu\\arm\\5.4
 6631              		.file 15 "Generated_Source\\PSoC5/TIA_1.h"
 6632              		.file 16 "Generated_Source\\PSoC5/ADC_DelSig_1.h"
 6633              		.file 17 "Generated_Source\\PSoC5/ADC_SAR_1.h"
 6634              		.file 18 "Generated_Source\\PSoC5/ADC_SAR_2.h"
 6635              		.file 19 "Generated_Source\\PSoC5/VDAC_Vds.h"
 6636              		.file 20 "Generated_Source\\PSoC5/VDAC_Vgs.h"
 6637              		.file 21 "Generated_Source\\PSoC5/VDAC_Ref.h"
 6638              		.file 22 "c:\\program files (x86)\\cypress\\psoc creator\\4.1\\psoc creator\\import\\gnu\\arm\\5.4
 6639              		.file 23 "Generated_Source\\PSoC5/Opamp_1.h"
 6640              		.file 24 "Generated_Source\\PSoC5/Opamp_2.h"
 6641              		.file 25 "Generated_Source\\PSoC5/CyLib.h"
 6642              		.file 26 "<built-in>"
 6643              		.section	.debug_info,"",%progbits
 6644              	.Ldebug_info0:
 6645 0000 FB340000 		.4byte	0x34fb
 6646 0004 0400     		.2byte	0x4
 6647 0006 00000000 		.4byte	.Ldebug_abbrev0
 6648 000a 04       		.byte	0x4
 6649 000b 01       		.uleb128 0x1
 6650 000c A1020000 		.4byte	.LASF258
 6651 0010 0C       		.byte	0xc
 6652 0011 DD060000 		.4byte	.LASF259
 6653 0015 2B0C0000 		.4byte	.LASF260
 6654 0019 68010000 		.4byte	.Ldebug_ranges0+0x168
 6655 001d 00000000 		.4byte	0
 6656 0021 00000000 		.4byte	.Ldebug_line0
 6657 0025 02       		.uleb128 0x2
 6658 0026 04       		.byte	0x4
 6659 0027 04       		.byte	0x4
 6660 0028 DA0E0000 		.4byte	.LASF0
 6661 002c 02       		.uleb128 0x2
 6662 002d 04       		.byte	0x4
 6663 002e 07       		.byte	0x7
 6664 002f C6070000 		.4byte	.LASF1
 6665 0033 03       		.uleb128 0x3
 6666 0034 04       		.byte	0x4
 6667 0035 05       		.byte	0x5
 6668 0036 696E7400 		.ascii	"int\000"
 6669 003a 02       		.uleb128 0x2
 6670 003b 08       		.byte	0x8
 6671 003c 05       		.byte	0x5
 6672 003d BD060000 		.4byte	.LASF2
 6673 0041 02       		.uleb128 0x2
 6674 0042 08       		.byte	0x8
 6675 0043 04       		.byte	0x4
 6676 0044 B9090000 		.4byte	.LASF3
 6677 0048 02       		.uleb128 0x2
 6678 0049 01       		.byte	0x1
 6679 004a 06       		.byte	0x6
 6680 004b 76030000 		.4byte	.LASF4
 6681 004f 02       		.uleb128 0x2
 6682 0050 01       		.byte	0x1
 6683 0051 08       		.byte	0x8
ARM GAS  C:\Users\FRANKL~1\AppData\Local\Temp\ccCAoJJX.s 			page 157


 6684 0052 AD030000 		.4byte	.LASF5
 6685 0056 02       		.uleb128 0x2
 6686 0057 02       		.byte	0x2
 6687 0058 05       		.byte	0x5
 6688 0059 EE0C0000 		.4byte	.LASF6
 6689 005d 02       		.uleb128 0x2
 6690 005e 02       		.byte	0x2
 6691 005f 07       		.byte	0x7
 6692 0060 89020000 		.4byte	.LASF7
 6693 0064 04       		.uleb128 0x4
 6694 0065 020F0000 		.4byte	.LASF13
 6695 0069 03       		.byte	0x3
 6696 006a 3F       		.byte	0x3f
 6697 006b 6F000000 		.4byte	0x6f
 6698 006f 02       		.uleb128 0x2
 6699 0070 04       		.byte	0x4
 6700 0071 05       		.byte	0x5
 6701 0072 25020000 		.4byte	.LASF8
 6702 0076 02       		.uleb128 0x2
 6703 0077 04       		.byte	0x4
 6704 0078 07       		.byte	0x7
 6705 0079 9C050000 		.4byte	.LASF9
 6706 007d 02       		.uleb128 0x2
 6707 007e 08       		.byte	0x8
 6708 007f 07       		.byte	0x7
 6709 0080 AE0A0000 		.4byte	.LASF10
 6710 0084 02       		.uleb128 0x2
 6711 0085 04       		.byte	0x4
 6712 0086 07       		.byte	0x7
 6713 0087 0D000000 		.4byte	.LASF11
 6714 008b 05       		.uleb128 0x5
 6715 008c 04       		.byte	0x4
 6716 008d 91000000 		.4byte	0x91
 6717 0091 02       		.uleb128 0x2
 6718 0092 01       		.byte	0x1
 6719 0093 08       		.byte	0x8
 6720 0094 0C040000 		.4byte	.LASF12
 6721 0098 05       		.uleb128 0x5
 6722 0099 04       		.byte	0x4
 6723 009a 9E000000 		.4byte	0x9e
 6724 009e 06       		.uleb128 0x6
 6725 009f 91000000 		.4byte	0x91
 6726 00a3 04       		.uleb128 0x4
 6727 00a4 61000000 		.4byte	.LASF14
 6728 00a8 04       		.byte	0x4
 6729 00a9 2C       		.byte	0x2c
 6730 00aa 64000000 		.4byte	0x64
 6731 00ae 07       		.uleb128 0x7
 6732 00af A40C0000 		.4byte	.LASF15
 6733 00b3 05       		.byte	0x5
 6734 00b4 9201     		.2byte	0x192
 6735 00b6 4F000000 		.4byte	0x4f
 6736 00ba 07       		.uleb128 0x7
 6737 00bb 750F0000 		.4byte	.LASF16
 6738 00bf 05       		.byte	0x5
 6739 00c0 9301     		.2byte	0x193
 6740 00c2 5D000000 		.4byte	0x5d
ARM GAS  C:\Users\FRANKL~1\AppData\Local\Temp\ccCAoJJX.s 			page 158


 6741 00c6 07       		.uleb128 0x7
 6742 00c7 8C000000 		.4byte	.LASF17
 6743 00cb 05       		.byte	0x5
 6744 00cc 9401     		.2byte	0x194
 6745 00ce 76000000 		.4byte	0x76
 6746 00d2 07       		.uleb128 0x7
 6747 00d3 5C010000 		.4byte	.LASF18
 6748 00d7 05       		.byte	0x5
 6749 00d8 9501     		.2byte	0x195
 6750 00da 48000000 		.4byte	0x48
 6751 00de 07       		.uleb128 0x7
 6752 00df 240E0000 		.4byte	.LASF19
 6753 00e3 05       		.byte	0x5
 6754 00e4 9601     		.2byte	0x196
 6755 00e6 56000000 		.4byte	0x56
 6756 00ea 07       		.uleb128 0x7
 6757 00eb FC0E0000 		.4byte	.LASF20
 6758 00ef 05       		.byte	0x5
 6759 00f0 9701     		.2byte	0x197
 6760 00f2 6F000000 		.4byte	0x6f
 6761 00f6 02       		.uleb128 0x2
 6762 00f7 08       		.byte	0x8
 6763 00f8 04       		.byte	0x4
 6764 00f9 D6060000 		.4byte	.LASF21
 6765 00fd 07       		.uleb128 0x7
 6766 00fe 280B0000 		.4byte	.LASF22
 6767 0102 05       		.byte	0x5
 6768 0103 3C02     		.2byte	0x23c
 6769 0105 09010000 		.4byte	0x109
 6770 0109 08       		.uleb128 0x8
 6771 010a AE000000 		.4byte	0xae
 6772 010e 09       		.uleb128 0x9
 6773 010f AE000000 		.4byte	0xae
 6774 0113 1E010000 		.4byte	0x11e
 6775 0117 0A       		.uleb128 0xa
 6776 0118 84000000 		.4byte	0x84
 6777 011c 07       		.byte	0x7
 6778 011d 00       		.byte	0
 6779 011e 0B       		.uleb128 0xb
 6780 011f 7F       		.byte	0x7f
 6781 0120 02       		.byte	0x2
 6782 0121 09       		.byte	0x9
 6783 0122 3F010000 		.4byte	0x13f
 6784 0126 0C       		.uleb128 0xc
 6785 0127 CB060000 		.4byte	.LASF23
 6786 012b 02       		.byte	0x2
 6787 012c 0A       		.byte	0xa
 6788 012d AE000000 		.4byte	0xae
 6789 0131 00       		.byte	0
 6790 0132 0C       		.uleb128 0xc
 6791 0133 4E0F0000 		.4byte	.LASF24
 6792 0137 02       		.byte	0x2
 6793 0138 0B       		.byte	0xb
 6794 0139 3F010000 		.4byte	0x13f
 6795 013d 01       		.byte	0x1
 6796 013e 00       		.byte	0
 6797 013f 09       		.uleb128 0x9
ARM GAS  C:\Users\FRANKL~1\AppData\Local\Temp\ccCAoJJX.s 			page 159


 6798 0140 AE000000 		.4byte	0xae
 6799 0144 4F010000 		.4byte	0x14f
 6800 0148 0A       		.uleb128 0xa
 6801 0149 84000000 		.4byte	0x84
 6802 014d 7D       		.byte	0x7d
 6803 014e 00       		.byte	0
 6804 014f 0B       		.uleb128 0xb
 6805 0150 7F       		.byte	0x7f
 6806 0151 02       		.byte	0x2
 6807 0152 0D       		.byte	0xd
 6808 0153 70010000 		.4byte	0x170
 6809 0157 0C       		.uleb128 0xc
 6810 0158 CB060000 		.4byte	.LASF23
 6811 015c 02       		.byte	0x2
 6812 015d 0E       		.byte	0xe
 6813 015e AE000000 		.4byte	0xae
 6814 0162 00       		.byte	0
 6815 0163 0C       		.uleb128 0xc
 6816 0164 4E0F0000 		.4byte	.LASF24
 6817 0168 02       		.byte	0x2
 6818 0169 0F       		.byte	0xf
 6819 016a 3F010000 		.4byte	0x13f
 6820 016e 01       		.byte	0x1
 6821 016f 00       		.byte	0
 6822 0170 0D       		.uleb128 0xd
 6823 0171 82030000 		.4byte	.LASF261
 6824 0175 FF       		.byte	0xff
 6825 0176 02       		.byte	0x2
 6826 0177 08       		.byte	0x8
 6827 0178 A1010000 		.4byte	0x1a1
 6828 017c 0C       		.uleb128 0xc
 6829 017d 93000000 		.4byte	.LASF25
 6830 0181 02       		.byte	0x2
 6831 0182 0C       		.byte	0xc
 6832 0183 1E010000 		.4byte	0x11e
 6833 0187 00       		.byte	0
 6834 0188 0C       		.uleb128 0xc
 6835 0189 98070000 		.4byte	.LASF26
 6836 018d 02       		.byte	0x2
 6837 018e 10       		.byte	0x10
 6838 018f 4F010000 		.4byte	0x14f
 6839 0193 7F       		.byte	0x7f
 6840 0194 0C       		.uleb128 0xc
 6841 0195 970D0000 		.4byte	.LASF27
 6842 0199 02       		.byte	0x2
 6843 019a 11       		.byte	0x11
 6844 019b AE000000 		.4byte	0xae
 6845 019f FE       		.byte	0xfe
 6846 01a0 00       		.byte	0
 6847 01a1 0E       		.uleb128 0xe
 6848 01a2 77000000 		.4byte	.LASF262
 6849 01a6 01       		.byte	0x1
 6850 01a7 4F000000 		.4byte	0x4f
 6851 01ab 02       		.byte	0x2
 6852 01ac 2C       		.byte	0x2c
 6853 01ad E2010000 		.4byte	0x1e2
 6854 01b1 0F       		.uleb128 0xf
ARM GAS  C:\Users\FRANKL~1\AppData\Local\Temp\ccCAoJJX.s 			page 160


 6855 01b2 61020000 		.4byte	.LASF28
 6856 01b6 00       		.byte	0
 6857 01b7 0F       		.uleb128 0xf
 6858 01b8 F6040000 		.4byte	.LASF29
 6859 01bc 01       		.byte	0x1
 6860 01bd 0F       		.uleb128 0xf
 6861 01be 24080000 		.4byte	.LASF30
 6862 01c2 02       		.byte	0x2
 6863 01c3 0F       		.uleb128 0xf
 6864 01c4 2F050000 		.4byte	.LASF31
 6865 01c8 03       		.byte	0x3
 6866 01c9 0F       		.uleb128 0xf
 6867 01ca 5F040000 		.4byte	.LASF32
 6868 01ce 04       		.byte	0x4
 6869 01cf 0F       		.uleb128 0xf
 6870 01d0 80050000 		.4byte	.LASF33
 6871 01d4 05       		.byte	0x5
 6872 01d5 0F       		.uleb128 0xf
 6873 01d6 BD0E0000 		.4byte	.LASF34
 6874 01da 06       		.byte	0x6
 6875 01db 0F       		.uleb128 0xf
 6876 01dc 3F030000 		.4byte	.LASF35
 6877 01e0 07       		.byte	0x7
 6878 01e1 00       		.byte	0
 6879 01e2 10       		.uleb128 0x10
 6880 01e3 04080000 		.4byte	.LASF50
 6881 01e7 01       		.byte	0x1
 6882 01e8 10       		.byte	0x10
 6883 01e9 00000000 		.4byte	.LFB64
 6884 01ed 18000000 		.4byte	.LFE64-.LFB64
 6885 01f1 01       		.uleb128 0x1
 6886 01f2 9C       		.byte	0x9c
 6887 01f3 2B020000 		.4byte	0x22b
 6888 01f7 11       		.uleb128 0x11
 6889 01f8 5B000000 		.4byte	.LASF38
 6890 01fc 01       		.byte	0x1
 6891 01fd 11       		.byte	0x11
 6892 01fe 76000000 		.4byte	0x76
 6893 0202 00000000 		.4byte	.LLST0
 6894 0206 12       		.uleb128 0x12
 6895 0207 06000000 		.4byte	.LVL1
 6896 020b A5320000 		.4byte	0x32a5
 6897 020f 12       		.uleb128 0x12
 6898 0210 0C000000 		.4byte	.LVL2
 6899 0214 B1320000 		.4byte	0x32b1
 6900 0218 12       		.uleb128 0x12
 6901 0219 12000000 		.4byte	.LVL3
 6902 021d BD320000 		.4byte	0x32bd
 6903 0221 12       		.uleb128 0x12
 6904 0222 16000000 		.4byte	.LVL4
 6905 0226 B1320000 		.4byte	0x32b1
 6906 022a 00       		.byte	0
 6907 022b 13       		.uleb128 0x13
 6908 022c 09070000 		.4byte	.LASF36
 6909 0230 01       		.byte	0x1
 6910 0231 22       		.byte	0x22
 6911 0232 AE000000 		.4byte	0xae
ARM GAS  C:\Users\FRANKL~1\AppData\Local\Temp\ccCAoJJX.s 			page 161


 6912 0236 00000000 		.4byte	.LFB65
 6913 023a 1E000000 		.4byte	.LFE65-.LFB65
 6914 023e 01       		.uleb128 0x1
 6915 023f 9C       		.byte	0x9c
 6916 0240 60020000 		.4byte	0x260
 6917 0244 12       		.uleb128 0x12
 6918 0245 06000000 		.4byte	.LVL5
 6919 0249 E2010000 		.4byte	0x1e2
 6920 024d 12       		.uleb128 0x12
 6921 024e 0A000000 		.4byte	.LVL6
 6922 0252 B1320000 		.4byte	0x32b1
 6923 0256 12       		.uleb128 0x12
 6924 0257 10000000 		.4byte	.LVL7
 6925 025b C8320000 		.4byte	0x32c8
 6926 025f 00       		.byte	0
 6927 0260 14       		.uleb128 0x14
 6928 0261 D20B0000 		.4byte	.LASF37
 6929 0265 02       		.byte	0x2
 6930 0266 AB03     		.2byte	0x3ab
 6931 0268 00000000 		.4byte	.LFB116
 6932 026c B0010000 		.4byte	.LFE116-.LFB116
 6933 0270 01       		.uleb128 0x1
 6934 0271 9C       		.byte	0x9c
 6935 0272 C1030000 		.4byte	0x3c1
 6936 0276 15       		.uleb128 0x15
 6937 0277 0C000000 		.4byte	.LBB2
 6938 027b 70000000 		.4byte	.LBE2-.LBB2
 6939 027f E8020000 		.4byte	0x2e8
 6940 0283 16       		.uleb128 0x16
 6941 0284 EA040000 		.4byte	.LASF39
 6942 0288 02       		.byte	0x2
 6943 0289 AF03     		.2byte	0x3af
 6944 028b C1030000 		.4byte	0x3c1
 6945 028f 03       		.uleb128 0x3
 6946 0290 91       		.byte	0x91
 6947 0291 B07F     		.sleb128 -80
 6948 0293 17       		.uleb128 0x17
 6949 0294 450B0000 		.4byte	.LASF40
 6950 0298 02       		.byte	0x2
 6951 0299 B003     		.2byte	0x3b0
 6952 029b AE000000 		.4byte	0xae
 6953 029f 20000000 		.4byte	.LLST1
 6954 02a3 15       		.uleb128 0x15
 6955 02a4 14000000 		.4byte	.LBB3
 6956 02a8 68000000 		.4byte	.LBE3-.LBB3
 6957 02ac D7020000 		.4byte	0x2d7
 6958 02b0 18       		.uleb128 0x18
 6959 02b1 6900     		.ascii	"i\000"
 6960 02b3 02       		.byte	0x2
 6961 02b4 B203     		.2byte	0x3b2
 6962 02b6 AE000000 		.4byte	0xae
 6963 02ba 33000000 		.4byte	.LLST2
 6964 02be 19       		.uleb128 0x19
 6965 02bf 18000000 		.4byte	.LBB4
 6966 02c3 5A000000 		.4byte	.LBE4-.LBB4
 6967 02c7 18       		.uleb128 0x18
 6968 02c8 6300     		.ascii	"c\000"
ARM GAS  C:\Users\FRANKL~1\AppData\Local\Temp\ccCAoJJX.s 			page 162


 6969 02ca 02       		.byte	0x2
 6970 02cb B303     		.2byte	0x3b3
 6971 02cd 91000000 		.4byte	0x91
 6972 02d1 5D000000 		.4byte	.LLST3
 6973 02d5 00       		.byte	0
 6974 02d6 00       		.byte	0
 6975 02d7 1A       		.uleb128 0x1a
 6976 02d8 12000000 		.4byte	.LVL9
 6977 02dc D3320000 		.4byte	0x32d3
 6978 02e0 1B       		.uleb128 0x1b
 6979 02e1 01       		.uleb128 0x1
 6980 02e2 50       		.byte	0x50
 6981 02e3 02       		.uleb128 0x2
 6982 02e4 7D       		.byte	0x7d
 6983 02e5 00       		.sleb128 0
 6984 02e6 00       		.byte	0
 6985 02e7 00       		.byte	0
 6986 02e8 15       		.uleb128 0x15
 6987 02e9 FC000000 		.4byte	.LBB5
 6988 02ed 80000000 		.4byte	.LBE5-.LBB5
 6989 02f1 93030000 		.4byte	0x393
 6990 02f5 17       		.uleb128 0x17
 6991 02f6 E2090000 		.4byte	.LASF41
 6992 02fa 02       		.byte	0x2
 6993 02fb D403     		.2byte	0x3d4
 6994 02fd 8B000000 		.4byte	0x8b
 6995 0301 B1000000 		.4byte	.LLST4
 6996 0305 1C       		.uleb128 0x1c
 6997 0306 14010000 		.4byte	.LVL23
 6998 030a DE320000 		.4byte	0x32de
 6999 030e 22030000 		.4byte	0x322
 7000 0312 1B       		.uleb128 0x1b
 7001 0313 01       		.uleb128 0x1
 7002 0314 50       		.byte	0x50
 7003 0315 02       		.uleb128 0x2
 7004 0316 74       		.byte	0x74
 7005 0317 00       		.sleb128 0
 7006 0318 1B       		.uleb128 0x1b
 7007 0319 01       		.uleb128 0x1
 7008 031a 51       		.byte	0x51
 7009 031b 05       		.uleb128 0x5
 7010 031c 03       		.byte	0x3
 7011 031d 00000000 		.4byte	.LC0
 7012 0321 00       		.byte	0
 7013 0322 1C       		.uleb128 0x1c
 7014 0323 2C010000 		.4byte	.LVL24
 7015 0327 DE320000 		.4byte	0x32de
 7016 032b 3F030000 		.4byte	0x33f
 7017 032f 1B       		.uleb128 0x1b
 7018 0330 01       		.uleb128 0x1
 7019 0331 50       		.byte	0x50
 7020 0332 02       		.uleb128 0x2
 7021 0333 74       		.byte	0x74
 7022 0334 00       		.sleb128 0
 7023 0335 1B       		.uleb128 0x1b
 7024 0336 01       		.uleb128 0x1
 7025 0337 51       		.byte	0x51
ARM GAS  C:\Users\FRANKL~1\AppData\Local\Temp\ccCAoJJX.s 			page 163


 7026 0338 05       		.uleb128 0x5
 7027 0339 03       		.byte	0x3
 7028 033a 08000000 		.4byte	.LC1
 7029 033e 00       		.byte	0
 7030 033f 1C       		.uleb128 0x1c
 7031 0340 44010000 		.4byte	.LVL25
 7032 0344 DE320000 		.4byte	0x32de
 7033 0348 5C030000 		.4byte	0x35c
 7034 034c 1B       		.uleb128 0x1b
 7035 034d 01       		.uleb128 0x1
 7036 034e 50       		.byte	0x50
 7037 034f 02       		.uleb128 0x2
 7038 0350 74       		.byte	0x74
 7039 0351 00       		.sleb128 0
 7040 0352 1B       		.uleb128 0x1b
 7041 0353 01       		.uleb128 0x1
 7042 0354 51       		.byte	0x51
 7043 0355 05       		.uleb128 0x5
 7044 0356 03       		.byte	0x3
 7045 0357 10000000 		.4byte	.LC2
 7046 035b 00       		.byte	0
 7047 035c 1C       		.uleb128 0x1c
 7048 035d 5C010000 		.4byte	.LVL26
 7049 0361 DE320000 		.4byte	0x32de
 7050 0365 79030000 		.4byte	0x379
 7051 0369 1B       		.uleb128 0x1b
 7052 036a 01       		.uleb128 0x1
 7053 036b 50       		.byte	0x50
 7054 036c 02       		.uleb128 0x2
 7055 036d 74       		.byte	0x74
 7056 036e 00       		.sleb128 0
 7057 036f 1B       		.uleb128 0x1b
 7058 0370 01       		.uleb128 0x1
 7059 0371 51       		.byte	0x51
 7060 0372 05       		.uleb128 0x5
 7061 0373 03       		.byte	0x3
 7062 0374 18000000 		.4byte	.LC3
 7063 0378 00       		.byte	0
 7064 0379 1A       		.uleb128 0x1a
 7065 037a 72010000 		.4byte	.LVL27
 7066 037e DE320000 		.4byte	0x32de
 7067 0382 1B       		.uleb128 0x1b
 7068 0383 01       		.uleb128 0x1
 7069 0384 50       		.byte	0x50
 7070 0385 02       		.uleb128 0x2
 7071 0386 74       		.byte	0x74
 7072 0387 00       		.sleb128 0
 7073 0388 1B       		.uleb128 0x1b
 7074 0389 01       		.uleb128 0x1
 7075 038a 51       		.byte	0x51
 7076 038b 05       		.uleb128 0x5
 7077 038c 03       		.byte	0x3
 7078 038d 20000000 		.4byte	.LC4
 7079 0391 00       		.byte	0
 7080 0392 00       		.byte	0
 7081 0393 12       		.uleb128 0x12
 7082 0394 08000000 		.4byte	.LVL8
ARM GAS  C:\Users\FRANKL~1\AppData\Local\Temp\ccCAoJJX.s 			page 164


 7083 0398 2B020000 		.4byte	0x22b
 7084 039c 12       		.uleb128 0x12
 7085 039d 80000000 		.4byte	.LVL19
 7086 03a1 E9320000 		.4byte	0x32e9
 7087 03a5 12       		.uleb128 0x12
 7088 03a6 8E000000 		.4byte	.LVL20
 7089 03aa F4320000 		.4byte	0x32f4
 7090 03ae 12       		.uleb128 0x12
 7091 03af 80010000 		.4byte	.LVL29
 7092 03b3 FF320000 		.4byte	0x32ff
 7093 03b7 12       		.uleb128 0x12
 7094 03b8 84010000 		.4byte	.LVL30
 7095 03bc 0A330000 		.4byte	0x330a
 7096 03c0 00       		.byte	0
 7097 03c1 09       		.uleb128 0x9
 7098 03c2 91000000 		.4byte	0x91
 7099 03c6 D1030000 		.4byte	0x3d1
 7100 03ca 0A       		.uleb128 0xa
 7101 03cb 84000000 		.4byte	0x84
 7102 03cf 3F       		.byte	0x3f
 7103 03d0 00       		.byte	0
 7104 03d1 1D       		.uleb128 0x1d
 7105 03d2 EA000000 		.4byte	.LASF44
 7106 03d6 01       		.byte	0x1
 7107 03d7 29       		.byte	0x29
 7108 03d8 AE000000 		.4byte	0xae
 7109 03dc 00000000 		.4byte	.LFB66
 7110 03e0 50000000 		.4byte	.LFE66-.LFB66
 7111 03e4 01       		.uleb128 0x1
 7112 03e5 9C       		.byte	0x9c
 7113 03e6 74040000 		.4byte	0x474
 7114 03ea 1E       		.uleb128 0x1e
 7115 03eb D2040000 		.4byte	.LASF42
 7116 03ef 01       		.byte	0x1
 7117 03f0 29       		.byte	0x29
 7118 03f1 8B000000 		.4byte	0x8b
 7119 03f5 D4000000 		.4byte	.LLST5
 7120 03f9 1E       		.uleb128 0x1e
 7121 03fa 92070000 		.4byte	.LASF43
 7122 03fe 01       		.byte	0x1
 7123 03ff 29       		.byte	0x29
 7124 0400 BA000000 		.4byte	0xba
 7125 0404 16010000 		.4byte	.LLST6
 7126 0408 1F       		.uleb128 0x1f
 7127 0409 00000000 		.4byte	.Ldebug_ranges0+0
 7128 040d 33040000 		.4byte	0x433
 7129 0411 11       		.uleb128 0x11
 7130 0412 5B000000 		.4byte	.LASF38
 7131 0416 01       		.byte	0x1
 7132 0417 2C       		.byte	0x2c
 7133 0418 C6000000 		.4byte	0xc6
 7134 041c 50010000 		.4byte	.LLST7
 7135 0420 12       		.uleb128 0x12
 7136 0421 0C000000 		.4byte	.LVL34
 7137 0425 E2010000 		.4byte	0x1e2
 7138 0429 12       		.uleb128 0x12
 7139 042a 10000000 		.4byte	.LVL35
ARM GAS  C:\Users\FRANKL~1\AppData\Local\Temp\ccCAoJJX.s 			page 165


 7140 042e 15330000 		.4byte	0x3315
 7141 0432 00       		.byte	0
 7142 0433 12       		.uleb128 0x12
 7143 0434 26000000 		.4byte	.LVL39
 7144 0438 15330000 		.4byte	0x3315
 7145 043c 1C       		.uleb128 0x1c
 7146 043d 32000000 		.4byte	.LVL40
 7147 0441 20330000 		.4byte	0x3320
 7148 0445 56040000 		.4byte	0x456
 7149 0449 1B       		.uleb128 0x1b
 7150 044a 01       		.uleb128 0x1
 7151 044b 50       		.byte	0x50
 7152 044c 02       		.uleb128 0x2
 7153 044d 76       		.byte	0x76
 7154 044e 00       		.sleb128 0
 7155 044f 1B       		.uleb128 0x1b
 7156 0450 01       		.uleb128 0x1
 7157 0451 51       		.byte	0x51
 7158 0452 02       		.uleb128 0x2
 7159 0453 75       		.byte	0x75
 7160 0454 00       		.sleb128 0
 7161 0455 00       		.byte	0
 7162 0456 12       		.uleb128 0x12
 7163 0457 3A000000 		.4byte	.LVL41
 7164 045b 15330000 		.4byte	0x3315
 7165 045f 1A       		.uleb128 0x1a
 7166 0460 46000000 		.4byte	.LVL42
 7167 0464 20330000 		.4byte	0x3320
 7168 0468 1B       		.uleb128 0x1b
 7169 0469 01       		.uleb128 0x1
 7170 046a 50       		.byte	0x50
 7171 046b 01       		.uleb128 0x1
 7172 046c 30       		.byte	0x30
 7173 046d 1B       		.uleb128 0x1b
 7174 046e 01       		.uleb128 0x1
 7175 046f 51       		.byte	0x51
 7176 0470 01       		.uleb128 0x1
 7177 0471 30       		.byte	0x30
 7178 0472 00       		.byte	0
 7179 0473 00       		.byte	0
 7180 0474 1D       		.uleb128 0x1d
 7181 0475 DD0C0000 		.4byte	.LASF45
 7182 0479 01       		.byte	0x1
 7183 047a 47       		.byte	0x47
 7184 047b AE000000 		.4byte	0xae
 7185 047f 00000000 		.4byte	.LFB67
 7186 0483 24000000 		.4byte	.LFE67-.LFB67
 7187 0487 01       		.uleb128 0x1
 7188 0488 9C       		.byte	0x9c
 7189 0489 CE040000 		.4byte	0x4ce
 7190 048d 1E       		.uleb128 0x1e
 7191 048e D2040000 		.4byte	.LASF42
 7192 0492 01       		.byte	0x1
 7193 0493 47       		.byte	0x47
 7194 0494 8B000000 		.4byte	0x8b
 7195 0498 6E010000 		.4byte	.LLST8
 7196 049c 1E       		.uleb128 0x1e
ARM GAS  C:\Users\FRANKL~1\AppData\Local\Temp\ccCAoJJX.s 			page 166


 7197 049d 92070000 		.4byte	.LASF43
 7198 04a1 01       		.byte	0x1
 7199 04a2 47       		.byte	0x47
 7200 04a3 CE040000 		.4byte	0x4ce
 7201 04a7 8C010000 		.4byte	.LLST9
 7202 04ab 12       		.uleb128 0x12
 7203 04ac 0C000000 		.4byte	.LVL45
 7204 04b0 E2010000 		.4byte	0x1e2
 7205 04b4 12       		.uleb128 0x12
 7206 04b5 10000000 		.4byte	.LVL46
 7207 04b9 C8320000 		.4byte	0x32c8
 7208 04bd 1A       		.uleb128 0x1a
 7209 04be 1A000000 		.4byte	.LVL47
 7210 04c2 D3320000 		.4byte	0x32d3
 7211 04c6 1B       		.uleb128 0x1b
 7212 04c7 01       		.uleb128 0x1
 7213 04c8 50       		.byte	0x50
 7214 04c9 02       		.uleb128 0x2
 7215 04ca 74       		.byte	0x74
 7216 04cb 00       		.sleb128 0
 7217 04cc 00       		.byte	0
 7218 04cd 00       		.byte	0
 7219 04ce 05       		.uleb128 0x5
 7220 04cf 04       		.byte	0x4
 7221 04d0 BA000000 		.4byte	0xba
 7222 04d4 13       		.uleb128 0x13
 7223 04d5 DC030000 		.4byte	.LASF46
 7224 04d9 01       		.byte	0x1
 7225 04da 53       		.byte	0x53
 7226 04db 91000000 		.4byte	0x91
 7227 04df 00000000 		.4byte	.LFB68
 7228 04e3 16000000 		.4byte	.LFE68-.LFB68
 7229 04e7 01       		.uleb128 0x1
 7230 04e8 9C       		.byte	0x9c
 7231 04e9 09050000 		.4byte	0x509
 7232 04ed 12       		.uleb128 0x12
 7233 04ee 08000000 		.4byte	.LVL48
 7234 04f2 E2010000 		.4byte	0x1e2
 7235 04f6 12       		.uleb128 0x12
 7236 04f7 0C000000 		.4byte	.LVL49
 7237 04fb C8320000 		.4byte	0x32c8
 7238 04ff 12       		.uleb128 0x12
 7239 0500 14000000 		.4byte	.LVL50
 7240 0504 2B330000 		.4byte	0x332b
 7241 0508 00       		.byte	0
 7242 0509 1D       		.uleb128 0x1d
 7243 050a F9080000 		.4byte	.LASF47
 7244 050e 01       		.byte	0x1
 7245 050f 59       		.byte	0x59
 7246 0510 AE000000 		.4byte	0xae
 7247 0514 00000000 		.4byte	.LFB69
 7248 0518 58000000 		.4byte	.LFE69-.LFB69
 7249 051c 01       		.uleb128 0x1
 7250 051d 9C       		.byte	0x9c
 7251 051e B5050000 		.4byte	0x5b5
 7252 0522 1E       		.uleb128 0x1e
 7253 0523 D2040000 		.4byte	.LASF42
ARM GAS  C:\Users\FRANKL~1\AppData\Local\Temp\ccCAoJJX.s 			page 167


 7254 0527 01       		.byte	0x1
 7255 0528 59       		.byte	0x59
 7256 0529 8B000000 		.4byte	0x8b
 7257 052d AA010000 		.4byte	.LLST10
 7258 0531 1E       		.uleb128 0x1e
 7259 0532 59050000 		.4byte	.LASF48
 7260 0536 01       		.byte	0x1
 7261 0537 59       		.byte	0x59
 7262 0538 BA000000 		.4byte	0xba
 7263 053c C8010000 		.4byte	.LLST11
 7264 0540 1E       		.uleb128 0x1e
 7265 0541 1E070000 		.4byte	.LASF49
 7266 0545 01       		.byte	0x1
 7267 0546 59       		.byte	0x59
 7268 0547 98000000 		.4byte	0x98
 7269 054b E9010000 		.4byte	.LLST12
 7270 054f 15       		.uleb128 0x15
 7271 0550 0A000000 		.4byte	.LBB8
 7272 0554 14000000 		.4byte	.LBE8-.LBB8
 7273 0558 6A050000 		.4byte	0x56a
 7274 055c 20       		.uleb128 0x20
 7275 055d 6900     		.ascii	"i\000"
 7276 055f 01       		.byte	0x1
 7277 0560 5A       		.byte	0x5a
 7278 0561 BA000000 		.4byte	0xba
 7279 0565 07020000 		.4byte	.LLST13
 7280 0569 00       		.byte	0
 7281 056a 19       		.uleb128 0x19
 7282 056b 1E000000 		.4byte	.LBB9
 7283 056f 34000000 		.4byte	.LBE9-.LBB9
 7284 0573 20       		.uleb128 0x20
 7285 0574 6900     		.ascii	"i\000"
 7286 0576 01       		.byte	0x1
 7287 0577 5E       		.byte	0x5e
 7288 0578 BA000000 		.4byte	0xba
 7289 057c 31020000 		.4byte	.LLST14
 7290 0580 12       		.uleb128 0x12
 7291 0581 22000000 		.4byte	.LVL57
 7292 0585 D4040000 		.4byte	0x4d4
 7293 0589 1C       		.uleb128 0x1c
 7294 058a 32000000 		.4byte	.LVL58
 7295 058e DE320000 		.4byte	0x32de
 7296 0592 A3050000 		.4byte	0x5a3
 7297 0596 1B       		.uleb128 0x1b
 7298 0597 01       		.uleb128 0x1
 7299 0598 50       		.byte	0x50
 7300 0599 02       		.uleb128 0x2
 7301 059a 75       		.byte	0x75
 7302 059b 00       		.sleb128 0
 7303 059c 1B       		.uleb128 0x1b
 7304 059d 01       		.uleb128 0x1
 7305 059e 51       		.byte	0x51
 7306 059f 02       		.uleb128 0x2
 7307 05a0 77       		.byte	0x77
 7308 05a1 00       		.sleb128 0
 7309 05a2 00       		.byte	0
 7310 05a3 1A       		.uleb128 0x1a
ARM GAS  C:\Users\FRANKL~1\AppData\Local\Temp\ccCAoJJX.s 			page 168


 7311 05a4 3A000000 		.4byte	.LVL59
 7312 05a8 36330000 		.4byte	0x3336
 7313 05ac 1B       		.uleb128 0x1b
 7314 05ad 01       		.uleb128 0x1
 7315 05ae 50       		.byte	0x50
 7316 05af 02       		.uleb128 0x2
 7317 05b0 77       		.byte	0x77
 7318 05b1 00       		.sleb128 0
 7319 05b2 00       		.byte	0
 7320 05b3 00       		.byte	0
 7321 05b4 00       		.byte	0
 7322 05b5 10       		.uleb128 0x10
 7323 05b6 E8050000 		.4byte	.LASF51
 7324 05ba 02       		.byte	0x2
 7325 05bb 3C       		.byte	0x3c
 7326 05bc 00000000 		.4byte	.LFB70
 7327 05c0 30000000 		.4byte	.LFE70-.LFB70
 7328 05c4 01       		.uleb128 0x1
 7329 05c5 9C       		.byte	0x9c
 7330 05c6 06060000 		.4byte	0x606
 7331 05ca 1C       		.uleb128 0x1c
 7332 05cb 10000000 		.4byte	.LVL63
 7333 05cf 36330000 		.4byte	0x3336
 7334 05d3 DE050000 		.4byte	0x5de
 7335 05d7 1B       		.uleb128 0x1b
 7336 05d8 01       		.uleb128 0x1
 7337 05d9 50       		.byte	0x50
 7338 05da 02       		.uleb128 0x2
 7339 05db 74       		.byte	0x74
 7340 05dc 00       		.sleb128 0
 7341 05dd 00       		.byte	0
 7342 05de 1C       		.uleb128 0x1c
 7343 05df 18000000 		.4byte	.LVL64
 7344 05e3 D1030000 		.4byte	0x3d1
 7345 05e7 F2050000 		.4byte	0x5f2
 7346 05eb 1B       		.uleb128 0x1b
 7347 05ec 01       		.uleb128 0x1
 7348 05ed 50       		.byte	0x50
 7349 05ee 02       		.uleb128 0x2
 7350 05ef 74       		.byte	0x74
 7351 05f0 00       		.sleb128 0
 7352 05f1 00       		.byte	0
 7353 05f2 1A       		.uleb128 0x1a
 7354 05f3 24000000 		.4byte	.LVL65
 7355 05f7 41330000 		.4byte	0x3341
 7356 05fb 1B       		.uleb128 0x1b
 7357 05fc 01       		.uleb128 0x1
 7358 05fd 50       		.byte	0x50
 7359 05fe 05       		.uleb128 0x5
 7360 05ff 03       		.byte	0x3
 7361 0600 00000000 		.4byte	TransmitBuffer
 7362 0604 00       		.byte	0
 7363 0605 00       		.byte	0
 7364 0606 21       		.uleb128 0x21
 7365 0607 5C030000 		.4byte	.LASF52
 7366 060b 02       		.byte	0x2
 7367 060c 41       		.byte	0x41
ARM GAS  C:\Users\FRANKL~1\AppData\Local\Temp\ccCAoJJX.s 			page 169


 7368 060d 00000000 		.4byte	.LFB71
 7369 0611 32000000 		.4byte	.LFE71-.LFB71
 7370 0615 01       		.uleb128 0x1
 7371 0616 9C       		.byte	0x9c
 7372 0617 5B060000 		.4byte	0x65b
 7373 061b 22       		.uleb128 0x22
 7374 061c 0C0F0000 		.4byte	.LASF53
 7375 0620 02       		.byte	0x2
 7376 0621 41       		.byte	0x41
 7377 0622 5B060000 		.4byte	0x65b
 7378 0626 01       		.uleb128 0x1
 7379 0627 50       		.byte	0x50
 7380 0628 15       		.uleb128 0x15
 7381 0629 0A000000 		.4byte	.LBB10
 7382 062d 16000000 		.4byte	.LBE10-.LBB10
 7383 0631 43060000 		.4byte	0x643
 7384 0635 20       		.uleb128 0x20
 7385 0636 6900     		.ascii	"i\000"
 7386 0638 02       		.byte	0x2
 7387 0639 45       		.byte	0x45
 7388 063a BA000000 		.4byte	0xba
 7389 063e 4F020000 		.4byte	.LLST15
 7390 0642 00       		.byte	0
 7391 0643 19       		.uleb128 0x19
 7392 0644 20000000 		.4byte	.LBB11
 7393 0648 10000000 		.4byte	.LBE11-.LBB11
 7394 064c 20       		.uleb128 0x20
 7395 064d 6900     		.ascii	"i\000"
 7396 064f 02       		.byte	0x2
 7397 0650 48       		.byte	0x48
 7398 0651 BA000000 		.4byte	0xba
 7399 0655 79020000 		.4byte	.LLST16
 7400 0659 00       		.byte	0
 7401 065a 00       		.byte	0
 7402 065b 05       		.uleb128 0x5
 7403 065c 04       		.byte	0x4
 7404 065d 70010000 		.4byte	0x170
 7405 0661 23       		.uleb128 0x23
 7406 0662 FD0B0000 		.4byte	.LASF54
 7407 0666 02       		.byte	0x2
 7408 0667 4D       		.byte	0x4d
 7409 0668 00000000 		.4byte	.LFB72
 7410 066c 28010000 		.4byte	.LFE72-.LFB72
 7411 0670 01       		.uleb128 0x1
 7412 0671 9C       		.byte	0x9c
 7413 0672 87070000 		.4byte	0x787
 7414 0676 1E       		.uleb128 0x1e
 7415 0677 5F070000 		.4byte	.LASF55
 7416 067b 02       		.byte	0x2
 7417 067c 4D       		.byte	0x4d
 7418 067d AE000000 		.4byte	0xae
 7419 0681 97020000 		.4byte	.LLST17
 7420 0685 11       		.uleb128 0x11
 7421 0686 0C0F0000 		.4byte	.LASF53
 7422 068a 02       		.byte	0x2
 7423 068b 51       		.byte	0x51
 7424 068c 5B060000 		.4byte	0x65b
ARM GAS  C:\Users\FRANKL~1\AppData\Local\Temp\ccCAoJJX.s 			page 170


 7425 0690 B8020000 		.4byte	.LLST18
 7426 0694 15       		.uleb128 0x15
 7427 0695 32000000 		.4byte	.LBB12
 7428 0699 64000000 		.4byte	.LBE12-.LBB12
 7429 069d D3060000 		.4byte	0x6d3
 7430 06a1 20       		.uleb128 0x20
 7431 06a2 6900     		.ascii	"i\000"
 7432 06a4 02       		.byte	0x2
 7433 06a5 55       		.byte	0x55
 7434 06a6 C6000000 		.4byte	0xc6
 7435 06aa EC020000 		.4byte	.LLST19
 7436 06ae 12       		.uleb128 0x12
 7437 06af 3A000000 		.4byte	.LVL83
 7438 06b3 4C330000 		.4byte	0x334c
 7439 06b7 12       		.uleb128 0x12
 7440 06b8 74000000 		.4byte	.LVL85
 7441 06bc B5050000 		.4byte	0x5b5
 7442 06c0 12       		.uleb128 0x12
 7443 06c1 78000000 		.4byte	.LVL86
 7444 06c5 57330000 		.4byte	0x3357
 7445 06c9 12       		.uleb128 0x12
 7446 06ca 7C000000 		.4byte	.LVL87
 7447 06ce 62330000 		.4byte	0x3362
 7448 06d2 00       		.byte	0
 7449 06d3 1C       		.uleb128 0x1c
 7450 06d4 14000000 		.4byte	.LVL77
 7451 06d8 6D330000 		.4byte	0x336d
 7452 06dc F9060000 		.4byte	0x6f9
 7453 06e0 1B       		.uleb128 0x1b
 7454 06e1 01       		.uleb128 0x1
 7455 06e2 50       		.byte	0x50
 7456 06e3 05       		.uleb128 0x5
 7457 06e4 03       		.byte	0x3
 7458 06e5 00000000 		.4byte	TransmitBuffer
 7459 06e9 1B       		.uleb128 0x1b
 7460 06ea 01       		.uleb128 0x1
 7461 06eb 51       		.byte	0x51
 7462 06ec 05       		.uleb128 0x5
 7463 06ed 03       		.byte	0x3
 7464 06ee 2C000000 		.4byte	.LC5
 7465 06f2 1B       		.uleb128 0x1b
 7466 06f3 01       		.uleb128 0x1
 7467 06f4 52       		.byte	0x52
 7468 06f5 02       		.uleb128 0x2
 7469 06f6 78       		.byte	0x78
 7470 06f7 00       		.sleb128 0
 7471 06f8 00       		.byte	0
 7472 06f9 12       		.uleb128 0x12
 7473 06fa 18000000 		.4byte	.LVL78
 7474 06fe B5050000 		.4byte	0x5b5
 7475 0702 12       		.uleb128 0x12
 7476 0703 1C000000 		.4byte	.LVL79
 7477 0707 78330000 		.4byte	0x3378
 7478 070b 1C       		.uleb128 0x1c
 7479 070c 32000000 		.4byte	.LVL81
 7480 0710 83330000 		.4byte	0x3383
 7481 0714 2A070000 		.4byte	0x72a
ARM GAS  C:\Users\FRANKL~1\AppData\Local\Temp\ccCAoJJX.s 			page 171


 7482 0718 1B       		.uleb128 0x1b
 7483 0719 01       		.uleb128 0x1
 7484 071a 51       		.byte	0x51
 7485 071b 02       		.uleb128 0x2
 7486 071c 74       		.byte	0x74
 7487 071d 00       		.sleb128 0
 7488 071e 1B       		.uleb128 0x1b
 7489 071f 01       		.uleb128 0x1
 7490 0720 52       		.byte	0x52
 7491 0721 02       		.uleb128 0x2
 7492 0722 08       		.byte	0x8
 7493 0723 7F       		.byte	0x7f
 7494 0724 1B       		.uleb128 0x1b
 7495 0725 01       		.uleb128 0x1
 7496 0726 53       		.byte	0x53
 7497 0727 01       		.uleb128 0x1
 7498 0728 30       		.byte	0x30
 7499 0729 00       		.byte	0
 7500 072a 12       		.uleb128 0x12
 7501 072b 9A000000 		.4byte	.LVL91
 7502 072f 4C330000 		.4byte	0x334c
 7503 0733 12       		.uleb128 0x12
 7504 0734 BA000000 		.4byte	.LVL93
 7505 0738 B5050000 		.4byte	0x5b5
 7506 073c 12       		.uleb128 0x12
 7507 073d BE000000 		.4byte	.LVL94
 7508 0741 4C330000 		.4byte	0x334c
 7509 0745 12       		.uleb128 0x12
 7510 0746 D4000000 		.4byte	.LVL95
 7511 074a B5050000 		.4byte	0x5b5
 7512 074e 12       		.uleb128 0x12
 7513 074f E4000000 		.4byte	.LVL96
 7514 0753 B5050000 		.4byte	0x5b5
 7515 0757 1C       		.uleb128 0x1c
 7516 0758 EE000000 		.4byte	.LVL97
 7517 075c 6D330000 		.4byte	0x336d
 7518 0760 7D070000 		.4byte	0x77d
 7519 0764 1B       		.uleb128 0x1b
 7520 0765 01       		.uleb128 0x1
 7521 0766 50       		.byte	0x50
 7522 0767 05       		.uleb128 0x5
 7523 0768 03       		.byte	0x3
 7524 0769 00000000 		.4byte	TransmitBuffer
 7525 076d 1B       		.uleb128 0x1b
 7526 076e 01       		.uleb128 0x1
 7527 076f 51       		.byte	0x51
 7528 0770 05       		.uleb128 0x5
 7529 0771 03       		.byte	0x3
 7530 0772 90000000 		.4byte	.LC10
 7531 0776 1B       		.uleb128 0x1b
 7532 0777 01       		.uleb128 0x1
 7533 0778 52       		.byte	0x52
 7534 0779 02       		.uleb128 0x2
 7535 077a 78       		.byte	0x78
 7536 077b 00       		.sleb128 0
 7537 077c 00       		.byte	0
 7538 077d 12       		.uleb128 0x12
ARM GAS  C:\Users\FRANKL~1\AppData\Local\Temp\ccCAoJJX.s 			page 172


 7539 077e F2000000 		.4byte	.LVL98
 7540 0782 B5050000 		.4byte	0x5b5
 7541 0786 00       		.byte	0
 7542 0787 10       		.uleb128 0x10
 7543 0788 2F030000 		.4byte	.LASF56
 7544 078c 02       		.byte	0x2
 7545 078d 7B       		.byte	0x7b
 7546 078e 00000000 		.4byte	.LFB73
 7547 0792 3C000000 		.4byte	.LFE73-.LFB73
 7548 0796 01       		.uleb128 0x1
 7549 0797 9C       		.byte	0x9c
 7550 0798 CF070000 		.4byte	0x7cf
 7551 079c 19       		.uleb128 0x19
 7552 079d 02000000 		.4byte	.LBB13
 7553 07a1 18000000 		.4byte	.LBE13-.LBB13
 7554 07a5 20       		.uleb128 0x20
 7555 07a6 6900     		.ascii	"i\000"
 7556 07a8 02       		.byte	0x2
 7557 07a9 7C       		.byte	0x7c
 7558 07aa AE000000 		.4byte	0xae
 7559 07ae 0B030000 		.4byte	.LLST20
 7560 07b2 1A       		.uleb128 0x1a
 7561 07b3 12000000 		.4byte	.LVL102
 7562 07b7 06060000 		.4byte	0x606
 7563 07bb 1B       		.uleb128 0x1b
 7564 07bc 01       		.uleb128 0x1
 7565 07bd 50       		.byte	0x50
 7566 07be 0D       		.uleb128 0xd
 7567 07bf 74       		.byte	0x74
 7568 07c0 00       		.sleb128 0
 7569 07c1 38       		.byte	0x38
 7570 07c2 24       		.byte	0x24
 7571 07c3 74       		.byte	0x74
 7572 07c4 00       		.sleb128 0
 7573 07c5 1C       		.byte	0x1c
 7574 07c6 03       		.byte	0x3
 7575 07c7 00000000 		.4byte	selectors
 7576 07cb 22       		.byte	0x22
 7577 07cc 00       		.byte	0
 7578 07cd 00       		.byte	0
 7579 07ce 00       		.byte	0
 7580 07cf 21       		.uleb128 0x21
 7581 07d0 9D0E0000 		.4byte	.LASF57
 7582 07d4 02       		.byte	0x2
 7583 07d5 84       		.byte	0x84
 7584 07d6 00000000 		.4byte	.LFB74
 7585 07da 2C000000 		.4byte	.LFE74-.LFB74
 7586 07de 01       		.uleb128 0x1
 7587 07df 9C       		.byte	0x9c
 7588 07e0 0C080000 		.4byte	0x80c
 7589 07e4 1E       		.uleb128 0x1e
 7590 07e5 C4050000 		.4byte	.LASF58
 7591 07e9 02       		.byte	0x2
 7592 07ea 84       		.byte	0x84
 7593 07eb AE000000 		.4byte	0xae
 7594 07ef 35030000 		.4byte	.LLST21
 7595 07f3 1E       		.uleb128 0x1e
ARM GAS  C:\Users\FRANKL~1\AppData\Local\Temp\ccCAoJJX.s 			page 173


 7596 07f4 00000000 		.4byte	.LASF59
 7597 07f8 02       		.byte	0x2
 7598 07f9 84       		.byte	0x84
 7599 07fa AE000000 		.4byte	0xae
 7600 07fe 61030000 		.4byte	.LLST22
 7601 0802 12       		.uleb128 0x12
 7602 0803 24000000 		.4byte	.LVL111
 7603 0807 61060000 		.4byte	0x661
 7604 080b 00       		.byte	0
 7605 080c 21       		.uleb128 0x21
 7606 080d 200D0000 		.4byte	.LASF60
 7607 0811 02       		.byte	0x2
 7608 0812 8F       		.byte	0x8f
 7609 0813 00000000 		.4byte	.LFB75
 7610 0817 32000000 		.4byte	.LFE75-.LFB75
 7611 081b 01       		.uleb128 0x1
 7612 081c 9C       		.byte	0x9c
 7613 081d 58080000 		.4byte	0x858
 7614 0821 1E       		.uleb128 0x1e
 7615 0822 150B0000 		.4byte	.LASF61
 7616 0826 02       		.byte	0x2
 7617 0827 8F       		.byte	0x8f
 7618 0828 AE000000 		.4byte	0xae
 7619 082c 91030000 		.4byte	.LLST23
 7620 0830 1E       		.uleb128 0x1e
 7621 0831 00000000 		.4byte	.LASF59
 7622 0835 02       		.byte	0x2
 7623 0836 8F       		.byte	0x8f
 7624 0837 AE000000 		.4byte	0xae
 7625 083b C8030000 		.4byte	.LLST24
 7626 083f 11       		.uleb128 0x11
 7627 0840 1C090000 		.4byte	.LASF62
 7628 0844 02       		.byte	0x2
 7629 0845 96       		.byte	0x96
 7630 0846 AE000000 		.4byte	0xae
 7631 084a 05040000 		.4byte	.LLST25
 7632 084e 12       		.uleb128 0x12
 7633 084f 2E000000 		.4byte	.LVL120
 7634 0853 CF070000 		.4byte	0x7cf
 7635 0857 00       		.byte	0
 7636 0858 21       		.uleb128 0x21
 7637 0859 890A0000 		.4byte	.LASF63
 7638 085d 02       		.byte	0x2
 7639 085e A1       		.byte	0xa1
 7640 085f 00000000 		.4byte	.LFB76
 7641 0863 40000000 		.4byte	.LFE76-.LFB76
 7642 0867 01       		.uleb128 0x1
 7643 0868 9C       		.byte	0x9c
 7644 0869 A4080000 		.4byte	0x8a4
 7645 086d 1E       		.uleb128 0x1e
 7646 086e 150B0000 		.4byte	.LASF61
 7647 0872 02       		.byte	0x2
 7648 0873 A1       		.byte	0xa1
 7649 0874 AE000000 		.4byte	0xae
 7650 0878 3D040000 		.4byte	.LLST26
 7651 087c 1E       		.uleb128 0x1e
 7652 087d 00000000 		.4byte	.LASF59
ARM GAS  C:\Users\FRANKL~1\AppData\Local\Temp\ccCAoJJX.s 			page 174


 7653 0881 02       		.byte	0x2
 7654 0882 A1       		.byte	0xa1
 7655 0883 AE000000 		.4byte	0xae
 7656 0887 69040000 		.4byte	.LLST27
 7657 088b 11       		.uleb128 0x11
 7658 088c 1C090000 		.4byte	.LASF62
 7659 0890 02       		.byte	0x2
 7660 0891 A8       		.byte	0xa8
 7661 0892 AE000000 		.4byte	0xae
 7662 0896 99040000 		.4byte	.LLST28
 7663 089a 12       		.uleb128 0x12
 7664 089b 38000000 		.4byte	.LVL132
 7665 089f 61060000 		.4byte	0x661
 7666 08a3 00       		.byte	0
 7667 08a4 21       		.uleb128 0x21
 7668 08a5 29080000 		.4byte	.LASF64
 7669 08a9 02       		.byte	0x2
 7670 08aa B5       		.byte	0xb5
 7671 08ab 00000000 		.4byte	.LFB77
 7672 08af 40000000 		.4byte	.LFE77-.LFB77
 7673 08b3 01       		.uleb128 0x1
 7674 08b4 9C       		.byte	0x9c
 7675 08b5 0B090000 		.4byte	0x90b
 7676 08b9 1E       		.uleb128 0x1e
 7677 08ba 150B0000 		.4byte	.LASF61
 7678 08be 02       		.byte	0x2
 7679 08bf B5       		.byte	0xb5
 7680 08c0 AE000000 		.4byte	0xae
 7681 08c4 D1040000 		.4byte	.LLST29
 7682 08c8 19       		.uleb128 0x19
 7683 08c9 06000000 		.4byte	.LBB14
 7684 08cd 34000000 		.4byte	.LBE14-.LBB14
 7685 08d1 11       		.uleb128 0x11
 7686 08d2 00000000 		.4byte	.LASF59
 7687 08d6 02       		.byte	0x2
 7688 08d7 B8       		.byte	0xb8
 7689 08d8 AE000000 		.4byte	0xae
 7690 08dc FD040000 		.4byte	.LLST30
 7691 08e0 19       		.uleb128 0x19
 7692 08e1 0A000000 		.4byte	.LBB15
 7693 08e5 28000000 		.4byte	.LBE15-.LBB15
 7694 08e9 11       		.uleb128 0x11
 7695 08ea 1C090000 		.4byte	.LASF62
 7696 08ee 02       		.byte	0x2
 7697 08ef BA       		.byte	0xba
 7698 08f0 AE000000 		.4byte	0xae
 7699 08f4 27050000 		.4byte	.LLST31
 7700 08f8 1A       		.uleb128 0x1a
 7701 08f9 32000000 		.4byte	.LVL141
 7702 08fd 61060000 		.4byte	0x661
 7703 0901 1B       		.uleb128 0x1b
 7704 0902 01       		.uleb128 0x1
 7705 0903 50       		.byte	0x50
 7706 0904 02       		.uleb128 0x2
 7707 0905 74       		.byte	0x74
 7708 0906 00       		.sleb128 0
 7709 0907 00       		.byte	0
ARM GAS  C:\Users\FRANKL~1\AppData\Local\Temp\ccCAoJJX.s 			page 175


 7710 0908 00       		.byte	0
 7711 0909 00       		.byte	0
 7712 090a 00       		.byte	0
 7713 090b 10       		.uleb128 0x10
 7714 090c A1010000 		.4byte	.LASF65
 7715 0910 02       		.byte	0x2
 7716 0911 C8       		.byte	0xc8
 7717 0912 00000000 		.4byte	.LFB78
 7718 0916 34000000 		.4byte	.LFE78-.LFB78
 7719 091a 01       		.uleb128 0x1
 7720 091b 9C       		.byte	0x9c
 7721 091c 63090000 		.4byte	0x963
 7722 0920 19       		.uleb128 0x19
 7723 0921 02000000 		.4byte	.LBB16
 7724 0925 2C000000 		.4byte	.LBE16-.LBB16
 7725 0929 11       		.uleb128 0x11
 7726 092a 00000000 		.4byte	.LASF59
 7727 092e 02       		.byte	0x2
 7728 092f C9       		.byte	0xc9
 7729 0930 AE000000 		.4byte	0xae
 7730 0934 5F050000 		.4byte	.LLST32
 7731 0938 1F       		.uleb128 0x1f
 7732 0939 18000000 		.4byte	.Ldebug_ranges0+0x18
 7733 093d 51090000 		.4byte	0x951
 7734 0941 11       		.uleb128 0x11
 7735 0942 150B0000 		.4byte	.LASF61
 7736 0946 02       		.byte	0x2
 7737 0947 CA       		.byte	0xca
 7738 0948 AE000000 		.4byte	0xae
 7739 094c 89050000 		.4byte	.LLST33
 7740 0950 00       		.byte	0
 7741 0951 1A       		.uleb128 0x1a
 7742 0952 26000000 		.4byte	.LVL151
 7743 0956 61060000 		.4byte	0x661
 7744 095a 1B       		.uleb128 0x1b
 7745 095b 01       		.uleb128 0x1
 7746 095c 50       		.byte	0x50
 7747 095d 02       		.uleb128 0x2
 7748 095e 74       		.byte	0x74
 7749 095f 00       		.sleb128 0
 7750 0960 00       		.byte	0
 7751 0961 00       		.byte	0
 7752 0962 00       		.byte	0
 7753 0963 21       		.uleb128 0x21
 7754 0964 3F090000 		.4byte	.LASF66
 7755 0968 02       		.byte	0x2
 7756 0969 D2       		.byte	0xd2
 7757 096a 00000000 		.4byte	.LFB79
 7758 096e 2C000000 		.4byte	.LFE79-.LFB79
 7759 0972 01       		.uleb128 0x1
 7760 0973 9C       		.byte	0x9c
 7761 0974 AE090000 		.4byte	0x9ae
 7762 0978 1E       		.uleb128 0x1e
 7763 0979 00000000 		.4byte	.LASF59
 7764 097d 02       		.byte	0x2
 7765 097e D2       		.byte	0xd2
 7766 097f AE000000 		.4byte	0xae
ARM GAS  C:\Users\FRANKL~1\AppData\Local\Temp\ccCAoJJX.s 			page 176


 7767 0983 B2050000 		.4byte	.LLST34
 7768 0987 15       		.uleb128 0x15
 7769 0988 06000000 		.4byte	.LBB19
 7770 098c 1A000000 		.4byte	.LBE19-.LBB19
 7771 0990 A4090000 		.4byte	0x9a4
 7772 0994 11       		.uleb128 0x11
 7773 0995 150B0000 		.4byte	.LASF61
 7774 0999 02       		.byte	0x2
 7775 099a D5       		.byte	0xd5
 7776 099b AE000000 		.4byte	0xae
 7777 099f DE050000 		.4byte	.LLST35
 7778 09a3 00       		.byte	0
 7779 09a4 12       		.uleb128 0x12
 7780 09a5 24000000 		.4byte	.LVL161
 7781 09a9 61060000 		.4byte	0x661
 7782 09ad 00       		.byte	0
 7783 09ae 21       		.uleb128 0x21
 7784 09af A3000000 		.4byte	.LASF67
 7785 09b3 02       		.byte	0x2
 7786 09b4 DC       		.byte	0xdc
 7787 09b5 00000000 		.4byte	.LFB80
 7788 09b9 38000000 		.4byte	.LFE80-.LFB80
 7789 09bd 01       		.uleb128 0x1
 7790 09be 9C       		.byte	0x9c
 7791 09bf 330A0000 		.4byte	0xa33
 7792 09c3 1E       		.uleb128 0x1e
 7793 09c4 00000000 		.4byte	.LASF59
 7794 09c8 02       		.byte	0x2
 7795 09c9 DC       		.byte	0xdc
 7796 09ca AE000000 		.4byte	0xae
 7797 09ce 08060000 		.4byte	.LLST36
 7798 09d2 1C       		.uleb128 0x1c
 7799 09d3 18000000 		.4byte	.LVL164
 7800 09d7 CF070000 		.4byte	0x7cf
 7801 09db EB090000 		.4byte	0x9eb
 7802 09df 1B       		.uleb128 0x1b
 7803 09e0 01       		.uleb128 0x1
 7804 09e1 50       		.byte	0x50
 7805 09e2 02       		.uleb128 0x2
 7806 09e3 08       		.byte	0x8
 7807 09e4 21       		.byte	0x21
 7808 09e5 1B       		.uleb128 0x1b
 7809 09e6 01       		.uleb128 0x1
 7810 09e7 51       		.byte	0x51
 7811 09e8 01       		.uleb128 0x1
 7812 09e9 31       		.byte	0x31
 7813 09ea 00       		.byte	0
 7814 09eb 1C       		.uleb128 0x1c
 7815 09ec 22000000 		.4byte	.LVL165
 7816 09f0 CF070000 		.4byte	0x7cf
 7817 09f4 040A0000 		.4byte	0xa04
 7818 09f8 1B       		.uleb128 0x1b
 7819 09f9 01       		.uleb128 0x1
 7820 09fa 50       		.byte	0x50
 7821 09fb 02       		.uleb128 0x2
 7822 09fc 08       		.byte	0x8
 7823 09fd 21       		.byte	0x21
ARM GAS  C:\Users\FRANKL~1\AppData\Local\Temp\ccCAoJJX.s 			page 177


 7824 09fe 1B       		.uleb128 0x1b
 7825 09ff 01       		.uleb128 0x1
 7826 0a00 51       		.byte	0x51
 7827 0a01 01       		.uleb128 0x1
 7828 0a02 32       		.byte	0x32
 7829 0a03 00       		.byte	0
 7830 0a04 1C       		.uleb128 0x1c
 7831 0a05 2C000000 		.4byte	.LVL166
 7832 0a09 CF070000 		.4byte	0x7cf
 7833 0a0d 1D0A0000 		.4byte	0xa1d
 7834 0a11 1B       		.uleb128 0x1b
 7835 0a12 01       		.uleb128 0x1
 7836 0a13 50       		.byte	0x50
 7837 0a14 02       		.uleb128 0x2
 7838 0a15 08       		.byte	0x8
 7839 0a16 21       		.byte	0x21
 7840 0a17 1B       		.uleb128 0x1b
 7841 0a18 01       		.uleb128 0x1
 7842 0a19 51       		.byte	0x51
 7843 0a1a 01       		.uleb128 0x1
 7844 0a1b 33       		.byte	0x33
 7845 0a1c 00       		.byte	0
 7846 0a1d 1A       		.uleb128 0x1a
 7847 0a1e 36000000 		.4byte	.LVL167
 7848 0a22 CF070000 		.4byte	0x7cf
 7849 0a26 1B       		.uleb128 0x1b
 7850 0a27 01       		.uleb128 0x1
 7851 0a28 50       		.byte	0x50
 7852 0a29 02       		.uleb128 0x2
 7853 0a2a 08       		.byte	0x8
 7854 0a2b 21       		.byte	0x21
 7855 0a2c 1B       		.uleb128 0x1b
 7856 0a2d 01       		.uleb128 0x1
 7857 0a2e 51       		.byte	0x51
 7858 0a2f 01       		.uleb128 0x1
 7859 0a30 34       		.byte	0x34
 7860 0a31 00       		.byte	0
 7861 0a32 00       		.byte	0
 7862 0a33 10       		.uleb128 0x10
 7863 0a34 99060000 		.4byte	.LASF68
 7864 0a38 02       		.byte	0x2
 7865 0a39 E6       		.byte	0xe6
 7866 0a3a 00000000 		.4byte	.LFB81
 7867 0a3e 16000000 		.4byte	.LFE81-.LFB81
 7868 0a42 01       		.uleb128 0x1
 7869 0a43 9C       		.byte	0x9c
 7870 0a44 700A0000 		.4byte	0xa70
 7871 0a48 19       		.uleb128 0x19
 7872 0a49 02000000 		.4byte	.LBB20
 7873 0a4d 12000000 		.4byte	.LBE20-.LBB20
 7874 0a51 20       		.uleb128 0x20
 7875 0a52 6900     		.ascii	"i\000"
 7876 0a54 02       		.byte	0x2
 7877 0a55 E7       		.byte	0xe7
 7878 0a56 AE000000 		.4byte	0xae
 7879 0a5a 29060000 		.4byte	.LLST37
 7880 0a5e 1A       		.uleb128 0x1a
ARM GAS  C:\Users\FRANKL~1\AppData\Local\Temp\ccCAoJJX.s 			page 178


 7881 0a5f 0C000000 		.4byte	.LVL170
 7882 0a63 AE090000 		.4byte	0x9ae
 7883 0a67 1B       		.uleb128 0x1b
 7884 0a68 01       		.uleb128 0x1
 7885 0a69 50       		.byte	0x50
 7886 0a6a 02       		.uleb128 0x2
 7887 0a6b 74       		.byte	0x74
 7888 0a6c 00       		.sleb128 0
 7889 0a6d 00       		.byte	0
 7890 0a6e 00       		.byte	0
 7891 0a6f 00       		.byte	0
 7892 0a70 21       		.uleb128 0x21
 7893 0a71 1F000000 		.4byte	.LASF69
 7894 0a75 02       		.byte	0x2
 7895 0a76 EC       		.byte	0xec
 7896 0a77 00000000 		.4byte	.LFB82
 7897 0a7b 1C000000 		.4byte	.LFE82-.LFB82
 7898 0a7f 01       		.uleb128 0x1
 7899 0a80 9C       		.byte	0x9c
 7900 0a81 9E0A0000 		.4byte	0xa9e
 7901 0a85 1E       		.uleb128 0x1e
 7902 0a86 870B0000 		.4byte	.LASF70
 7903 0a8a 02       		.byte	0x2
 7904 0a8b EC       		.byte	0xec
 7905 0a8c AE000000 		.4byte	0xae
 7906 0a90 53060000 		.4byte	.LLST38
 7907 0a94 12       		.uleb128 0x12
 7908 0a95 10000000 		.4byte	.LVL175
 7909 0a99 8E330000 		.4byte	0x338e
 7910 0a9d 00       		.byte	0
 7911 0a9e 10       		.uleb128 0x10
 7912 0a9f EA0B0000 		.4byte	.LASF71
 7913 0aa3 02       		.byte	0x2
 7914 0aa4 F1       		.byte	0xf1
 7915 0aa5 00000000 		.4byte	.LFB83
 7916 0aa9 18000000 		.4byte	.LFE83-.LFB83
 7917 0aad 01       		.uleb128 0x1
 7918 0aae 9C       		.byte	0x9c
 7919 0aaf C30A0000 		.4byte	0xac3
 7920 0ab3 1A       		.uleb128 0x1a
 7921 0ab4 10000000 		.4byte	.LVL176
 7922 0ab8 700A0000 		.4byte	0xa70
 7923 0abc 1B       		.uleb128 0x1b
 7924 0abd 01       		.uleb128 0x1
 7925 0abe 50       		.byte	0x50
 7926 0abf 01       		.uleb128 0x1
 7927 0ac0 30       		.byte	0x30
 7928 0ac1 00       		.byte	0
 7929 0ac2 00       		.byte	0
 7930 0ac3 10       		.uleb128 0x10
 7931 0ac4 6D060000 		.4byte	.LASF72
 7932 0ac8 02       		.byte	0x2
 7933 0ac9 FF       		.byte	0xff
 7934 0aca 00000000 		.4byte	.LFB84
 7935 0ace 14000000 		.4byte	.LFE84-.LFB84
 7936 0ad2 01       		.uleb128 0x1
 7937 0ad3 9C       		.byte	0x9c
ARM GAS  C:\Users\FRANKL~1\AppData\Local\Temp\ccCAoJJX.s 			page 179


 7938 0ad4 E80A0000 		.4byte	0xae8
 7939 0ad8 1A       		.uleb128 0x1a
 7940 0ad9 0E000000 		.4byte	.LVL177
 7941 0add 700A0000 		.4byte	0xa70
 7942 0ae1 1B       		.uleb128 0x1b
 7943 0ae2 01       		.uleb128 0x1
 7944 0ae3 50       		.byte	0x50
 7945 0ae4 01       		.uleb128 0x1
 7946 0ae5 37       		.byte	0x37
 7947 0ae6 00       		.byte	0
 7948 0ae7 00       		.byte	0
 7949 0ae8 14       		.uleb128 0x14
 7950 0ae9 D90A0000 		.4byte	.LASF73
 7951 0aed 02       		.byte	0x2
 7952 0aee 0D01     		.2byte	0x10d
 7953 0af0 00000000 		.4byte	.LFB85
 7954 0af4 32000000 		.4byte	.LFE85-.LFB85
 7955 0af8 01       		.uleb128 0x1
 7956 0af9 9C       		.byte	0x9c
 7957 0afa 5B0B0000 		.4byte	0xb5b
 7958 0afe 24       		.uleb128 0x24
 7959 0aff 96040000 		.4byte	.LASF74
 7960 0b03 02       		.byte	0x2
 7961 0b04 0D01     		.2byte	0x10d
 7962 0b06 5B0B0000 		.4byte	0xb5b
 7963 0b0a 01       		.uleb128 0x1
 7964 0b0b 50       		.byte	0x50
 7965 0b0c 24       		.uleb128 0x24
 7966 0b0d 840A0000 		.4byte	.LASF75
 7967 0b11 02       		.byte	0x2
 7968 0b12 0D01     		.2byte	0x10d
 7969 0b14 C6000000 		.4byte	0xc6
 7970 0b18 01       		.uleb128 0x1
 7971 0b19 51       		.byte	0x51
 7972 0b1a 17       		.uleb128 0x17
 7973 0b1b 210F0000 		.4byte	.LASF76
 7974 0b1f 02       		.byte	0x2
 7975 0b20 0E01     		.2byte	0x10e
 7976 0b22 EA000000 		.4byte	0xea
 7977 0b26 83060000 		.4byte	.LLST39
 7978 0b2a 19       		.uleb128 0x19
 7979 0b2b 02000000 		.4byte	.LBB21
 7980 0b2f 2C000000 		.4byte	.LBE21-.LBB21
 7981 0b33 18       		.uleb128 0x18
 7982 0b34 6900     		.ascii	"i\000"
 7983 0b36 02       		.byte	0x2
 7984 0b37 1001     		.2byte	0x110
 7985 0b39 C6000000 		.4byte	0xc6
 7986 0b3d 96060000 		.4byte	.LLST40
 7987 0b41 19       		.uleb128 0x19
 7988 0b42 06000000 		.4byte	.LBB22
 7989 0b46 20000000 		.4byte	.LBE22-.LBB22
 7990 0b4a 18       		.uleb128 0x18
 7991 0b4b 6A00     		.ascii	"j\000"
 7992 0b4d 02       		.byte	0x2
 7993 0b4e 1101     		.2byte	0x111
 7994 0b50 C6000000 		.4byte	0xc6
ARM GAS  C:\Users\FRANKL~1\AppData\Local\Temp\ccCAoJJX.s 			page 180


 7995 0b54 B5060000 		.4byte	.LLST41
 7996 0b58 00       		.byte	0
 7997 0b59 00       		.byte	0
 7998 0b5a 00       		.byte	0
 7999 0b5b 05       		.uleb128 0x5
 8000 0b5c 04       		.byte	0x4
 8001 0b5d EA000000 		.4byte	0xea
 8002 0b61 25       		.uleb128 0x25
 8003 0b62 C5090000 		.4byte	.LASF77
 8004 0b66 02       		.byte	0x2
 8005 0b67 1C01     		.2byte	0x11c
 8006 0b69 EA000000 		.4byte	0xea
 8007 0b6d 00000000 		.4byte	.LFB86
 8008 0b71 32000000 		.4byte	.LFE86-.LFB86
 8009 0b75 01       		.uleb128 0x1
 8010 0b76 9C       		.byte	0x9c
 8011 0b77 B20B0000 		.4byte	0xbb2
 8012 0b7b 26       		.uleb128 0x26
 8013 0b7c 96040000 		.4byte	.LASF74
 8014 0b80 02       		.byte	0x2
 8015 0b81 1C01     		.2byte	0x11c
 8016 0b83 5B0B0000 		.4byte	0xb5b
 8017 0b87 D3060000 		.4byte	.LLST42
 8018 0b8b 26       		.uleb128 0x26
 8019 0b8c 840A0000 		.4byte	.LASF75
 8020 0b90 02       		.byte	0x2
 8021 0b91 1C01     		.2byte	0x11c
 8022 0b93 C6000000 		.4byte	0xc6
 8023 0b97 F1060000 		.4byte	.LLST43
 8024 0b9b 1A       		.uleb128 0x1a
 8025 0b9c 0A000000 		.4byte	.LVL189
 8026 0ba0 E80A0000 		.4byte	0xae8
 8027 0ba4 1B       		.uleb128 0x1b
 8028 0ba5 01       		.uleb128 0x1
 8029 0ba6 50       		.byte	0x50
 8030 0ba7 02       		.uleb128 0x2
 8031 0ba8 75       		.byte	0x75
 8032 0ba9 00       		.sleb128 0
 8033 0baa 1B       		.uleb128 0x1b
 8034 0bab 01       		.uleb128 0x1
 8035 0bac 51       		.byte	0x51
 8036 0bad 02       		.uleb128 0x2
 8037 0bae 74       		.byte	0x74
 8038 0baf 00       		.sleb128 0
 8039 0bb0 00       		.byte	0
 8040 0bb1 00       		.byte	0
 8041 0bb2 27       		.uleb128 0x27
 8042 0bb3 D7010000 		.4byte	.LASF78
 8043 0bb7 02       		.byte	0x2
 8044 0bb8 2901     		.2byte	0x129
 8045 0bba 00000000 		.4byte	.LFB87
 8046 0bbe F4000000 		.4byte	.LFE87-.LFB87
 8047 0bc2 01       		.uleb128 0x1
 8048 0bc3 9C       		.byte	0x9c
 8049 0bc4 CC0C0000 		.4byte	0xccc
 8050 0bc8 26       		.uleb128 0x26
 8051 0bc9 E2000000 		.4byte	.LASF79
ARM GAS  C:\Users\FRANKL~1\AppData\Local\Temp\ccCAoJJX.s 			page 181


 8052 0bcd 02       		.byte	0x2
 8053 0bce 2901     		.2byte	0x129
 8054 0bd0 5B0B0000 		.4byte	0xb5b
 8055 0bd4 36070000 		.4byte	.LLST44
 8056 0bd8 26       		.uleb128 0x26
 8057 0bd9 E7080000 		.4byte	.LASF80
 8058 0bdd 02       		.byte	0x2
 8059 0bde 2901     		.2byte	0x129
 8060 0be0 5B0B0000 		.4byte	0xb5b
 8061 0be4 62070000 		.4byte	.LLST45
 8062 0be8 26       		.uleb128 0x26
 8063 0be9 7C070000 		.4byte	.LASF81
 8064 0bed 02       		.byte	0x2
 8065 0bee 2901     		.2byte	0x129
 8066 0bf0 C6000000 		.4byte	0xc6
 8067 0bf4 8D070000 		.4byte	.LLST46
 8068 0bf8 17       		.uleb128 0x17
 8069 0bf9 C70B0000 		.4byte	.LASF82
 8070 0bfd 02       		.byte	0x2
 8071 0bfe 2A01     		.2byte	0x12a
 8072 0c00 EA000000 		.4byte	0xea
 8073 0c04 AE070000 		.4byte	.LLST47
 8074 0c08 17       		.uleb128 0x17
 8075 0c09 18050000 		.4byte	.LASF83
 8076 0c0d 02       		.byte	0x2
 8077 0c0e 2B01     		.2byte	0x12b
 8078 0c10 EA000000 		.4byte	0xea
 8079 0c14 E3070000 		.4byte	.LLST48
 8080 0c18 17       		.uleb128 0x17
 8081 0c19 68080000 		.4byte	.LASF84
 8082 0c1d 02       		.byte	0x2
 8083 0c1e 2D01     		.2byte	0x12d
 8084 0c20 C6000000 		.4byte	0xc6
 8085 0c24 27080000 		.4byte	.LLST49
 8086 0c28 16       		.uleb128 0x16
 8087 0c29 6B020000 		.4byte	.LASF85
 8088 0c2d 02       		.byte	0x2
 8089 0c2e 3001     		.2byte	0x130
 8090 0c30 C6000000 		.4byte	0xc6
 8091 0c34 01       		.uleb128 0x1
 8092 0c35 5A       		.byte	0x5a
 8093 0c36 16       		.uleb128 0x16
 8094 0c37 260F0000 		.4byte	.LASF86
 8095 0c3b 02       		.byte	0x2
 8096 0c3c 3101     		.2byte	0x131
 8097 0c3e CC0C0000 		.4byte	0xccc
 8098 0c42 02       		.uleb128 0x2
 8099 0c43 75       		.byte	0x75
 8100 0c44 00       		.sleb128 0
 8101 0c45 28       		.uleb128 0x28
 8102 0c46 30000000 		.4byte	.Ldebug_ranges0+0x30
 8103 0c4a 18       		.uleb128 0x18
 8104 0c4b 6900     		.ascii	"i\000"
 8105 0c4d 02       		.byte	0x2
 8106 0c4e 3301     		.2byte	0x133
 8107 0c50 C6000000 		.4byte	0xc6
 8108 0c54 46080000 		.4byte	.LLST50
ARM GAS  C:\Users\FRANKL~1\AppData\Local\Temp\ccCAoJJX.s 			page 182


 8109 0c58 28       		.uleb128 0x28
 8110 0c59 48000000 		.4byte	.Ldebug_ranges0+0x48
 8111 0c5d 17       		.uleb128 0x17
 8112 0c5e 2C040000 		.4byte	.LASF87
 8113 0c62 02       		.byte	0x2
 8114 0c63 3B01     		.2byte	0x13b
 8115 0c65 EA000000 		.4byte	0xea
 8116 0c69 65080000 		.4byte	.LLST51
 8117 0c6d 1F       		.uleb128 0x1f
 8118 0c6e 60000000 		.4byte	.Ldebug_ranges0+0x60
 8119 0c72 B30C0000 		.4byte	0xcb3
 8120 0c76 18       		.uleb128 0x18
 8121 0c77 6A00     		.ascii	"j\000"
 8122 0c79 02       		.byte	0x2
 8123 0c7a 3401     		.2byte	0x134
 8124 0c7c C6000000 		.4byte	0xc6
 8125 0c80 83080000 		.4byte	.LLST52
 8126 0c84 12       		.uleb128 0x12
 8127 0c85 36000000 		.4byte	.LVL199
 8128 0c89 99330000 		.4byte	0x3399
 8129 0c8d 1C       		.uleb128 0x1c
 8130 0c8e 3C000000 		.4byte	.LVL200
 8131 0c92 A4330000 		.4byte	0x33a4
 8132 0c96 A00C0000 		.4byte	0xca0
 8133 0c9a 1B       		.uleb128 0x1b
 8134 0c9b 01       		.uleb128 0x1
 8135 0c9c 50       		.byte	0x50
 8136 0c9d 01       		.uleb128 0x1
 8137 0c9e 31       		.byte	0x31
 8138 0c9f 00       		.byte	0
 8139 0ca0 12       		.uleb128 0x12
 8140 0ca1 44000000 		.4byte	.LVL201
 8141 0ca5 AF330000 		.4byte	0x33af
 8142 0ca9 12       		.uleb128 0x12
 8143 0caa 48000000 		.4byte	.LVL202
 8144 0cae BA330000 		.4byte	0x33ba
 8145 0cb2 00       		.byte	0
 8146 0cb3 1A       		.uleb128 0x1a
 8147 0cb4 62000000 		.4byte	.LVL206
 8148 0cb8 610B0000 		.4byte	0xb61
 8149 0cbc 1B       		.uleb128 0x1b
 8150 0cbd 01       		.uleb128 0x1
 8151 0cbe 50       		.byte	0x50
 8152 0cbf 02       		.uleb128 0x2
 8153 0cc0 75       		.byte	0x75
 8154 0cc1 00       		.sleb128 0
 8155 0cc2 1B       		.uleb128 0x1b
 8156 0cc3 01       		.uleb128 0x1
 8157 0cc4 51       		.byte	0x51
 8158 0cc5 02       		.uleb128 0x2
 8159 0cc6 74       		.byte	0x74
 8160 0cc7 00       		.sleb128 0
 8161 0cc8 00       		.byte	0
 8162 0cc9 00       		.byte	0
 8163 0cca 00       		.byte	0
 8164 0ccb 00       		.byte	0
 8165 0ccc 09       		.uleb128 0x9
ARM GAS  C:\Users\FRANKL~1\AppData\Local\Temp\ccCAoJJX.s 			page 183


 8166 0ccd EA000000 		.4byte	0xea
 8167 0cd1 DE0C0000 		.4byte	0xcde
 8168 0cd5 29       		.uleb128 0x29
 8169 0cd6 84000000 		.4byte	0x84
 8170 0cda 02       		.uleb128 0x2
 8171 0cdb 74       		.byte	0x74
 8172 0cdc 7F       		.sleb128 -1
 8173 0cdd 00       		.byte	0
 8174 0cde 14       		.uleb128 0x14
 8175 0cdf 30000000 		.4byte	.LASF88
 8176 0ce3 02       		.byte	0x2
 8177 0ce4 4501     		.2byte	0x145
 8178 0ce6 00000000 		.4byte	.LFB88
 8179 0cea 54000000 		.4byte	.LFE88-.LFB88
 8180 0cee 01       		.uleb128 0x1
 8181 0cef 9C       		.byte	0x9c
 8182 0cf0 710D0000 		.4byte	0xd71
 8183 0cf4 26       		.uleb128 0x26
 8184 0cf5 7C070000 		.4byte	.LASF81
 8185 0cf9 02       		.byte	0x2
 8186 0cfa 4501     		.2byte	0x145
 8187 0cfc C6000000 		.4byte	0xc6
 8188 0d00 A1080000 		.4byte	.LLST53
 8189 0d04 16       		.uleb128 0x16
 8190 0d05 02060000 		.4byte	.LASF89
 8191 0d09 02       		.byte	0x2
 8192 0d0a 4601     		.2byte	0x146
 8193 0d0c EA000000 		.4byte	0xea
 8194 0d10 02       		.uleb128 0x2
 8195 0d11 91       		.byte	0x91
 8196 0d12 74       		.sleb128 -12
 8197 0d13 16       		.uleb128 0x16
 8198 0d14 B8000000 		.4byte	.LASF90
 8199 0d18 02       		.byte	0x2
 8200 0d19 4701     		.2byte	0x147
 8201 0d1b EA000000 		.4byte	0xea
 8202 0d1f 02       		.uleb128 0x2
 8203 0d20 91       		.byte	0x91
 8204 0d21 70       		.sleb128 -16
 8205 0d22 1C       		.uleb128 0x1c
 8206 0d23 16000000 		.4byte	.LVL232
 8207 0d27 B20B0000 		.4byte	0xbb2
 8208 0d2b 430D0000 		.4byte	0xd43
 8209 0d2f 1B       		.uleb128 0x1b
 8210 0d30 01       		.uleb128 0x1
 8211 0d31 50       		.byte	0x50
 8212 0d32 02       		.uleb128 0x2
 8213 0d33 91       		.byte	0x91
 8214 0d34 74       		.sleb128 -12
 8215 0d35 1B       		.uleb128 0x1b
 8216 0d36 01       		.uleb128 0x1
 8217 0d37 51       		.byte	0x51
 8218 0d38 02       		.uleb128 0x2
 8219 0d39 91       		.byte	0x91
 8220 0d3a 70       		.sleb128 -16
 8221 0d3b 1B       		.uleb128 0x1b
 8222 0d3c 01       		.uleb128 0x1
ARM GAS  C:\Users\FRANKL~1\AppData\Local\Temp\ccCAoJJX.s 			page 184


 8223 0d3d 52       		.byte	0x52
 8224 0d3e 03       		.uleb128 0x3
 8225 0d3f F3       		.byte	0xf3
 8226 0d40 01       		.uleb128 0x1
 8227 0d41 50       		.byte	0x50
 8228 0d42 00       		.byte	0
 8229 0d43 12       		.uleb128 0x12
 8230 0d44 2A000000 		.4byte	.LVL233
 8231 0d48 9E0A0000 		.4byte	0xa9e
 8232 0d4c 12       		.uleb128 0x12
 8233 0d4d 3E000000 		.4byte	.LVL234
 8234 0d51 C30A0000 		.4byte	0xac3
 8235 0d55 1A       		.uleb128 0x1a
 8236 0d56 48000000 		.4byte	.LVL235
 8237 0d5a B20B0000 		.4byte	0xbb2
 8238 0d5e 1B       		.uleb128 0x1b
 8239 0d5f 01       		.uleb128 0x1
 8240 0d60 50       		.byte	0x50
 8241 0d61 02       		.uleb128 0x2
 8242 0d62 91       		.byte	0x91
 8243 0d63 74       		.sleb128 -12
 8244 0d64 1B       		.uleb128 0x1b
 8245 0d65 01       		.uleb128 0x1
 8246 0d66 51       		.byte	0x51
 8247 0d67 02       		.uleb128 0x2
 8248 0d68 7D       		.byte	0x7d
 8249 0d69 00       		.sleb128 0
 8250 0d6a 1B       		.uleb128 0x1b
 8251 0d6b 01       		.uleb128 0x1
 8252 0d6c 52       		.byte	0x52
 8253 0d6d 01       		.uleb128 0x1
 8254 0d6e 35       		.byte	0x35
 8255 0d6f 00       		.byte	0
 8256 0d70 00       		.byte	0
 8257 0d71 27       		.uleb128 0x27
 8258 0d72 5A0A0000 		.4byte	.LASF91
 8259 0d76 02       		.byte	0x2
 8260 0d77 5801     		.2byte	0x158
 8261 0d79 00000000 		.4byte	.LFB89
 8262 0d7d B6000000 		.4byte	.LFE89-.LFB89
 8263 0d81 01       		.uleb128 0x1
 8264 0d82 9C       		.byte	0x9c
 8265 0d83 340E0000 		.4byte	0xe34
 8266 0d87 26       		.uleb128 0x26
 8267 0d88 E2000000 		.4byte	.LASF79
 8268 0d8c 02       		.byte	0x2
 8269 0d8d 5801     		.2byte	0x158
 8270 0d8f 5B0B0000 		.4byte	0xb5b
 8271 0d93 CD080000 		.4byte	.LLST54
 8272 0d97 26       		.uleb128 0x26
 8273 0d98 E7080000 		.4byte	.LASF80
 8274 0d9c 02       		.byte	0x2
 8275 0d9d 5801     		.2byte	0x158
 8276 0d9f 5B0B0000 		.4byte	0xb5b
 8277 0da3 F8080000 		.4byte	.LLST55
 8278 0da7 26       		.uleb128 0x26
 8279 0da8 7C070000 		.4byte	.LASF81
ARM GAS  C:\Users\FRANKL~1\AppData\Local\Temp\ccCAoJJX.s 			page 185


 8280 0dac 02       		.byte	0x2
 8281 0dad 5801     		.2byte	0x158
 8282 0daf C6000000 		.4byte	0xc6
 8283 0db3 17090000 		.4byte	.LLST56
 8284 0db7 17       		.uleb128 0x17
 8285 0db8 42050000 		.4byte	.LASF92
 8286 0dbc 02       		.byte	0x2
 8287 0dbd 5901     		.2byte	0x159
 8288 0dbf EA000000 		.4byte	0xea
 8289 0dc3 35090000 		.4byte	.LLST57
 8290 0dc7 17       		.uleb128 0x17
 8291 0dc8 FB050000 		.4byte	.LASF93
 8292 0dcc 02       		.byte	0x2
 8293 0dcd 5A01     		.2byte	0x15a
 8294 0dcf EA000000 		.4byte	0xea
 8295 0dd3 6A090000 		.4byte	.LLST58
 8296 0dd7 28       		.uleb128 0x28
 8297 0dd8 78000000 		.4byte	.Ldebug_ranges0+0x78
 8298 0ddc 18       		.uleb128 0x18
 8299 0ddd 6900     		.ascii	"i\000"
 8300 0ddf 02       		.byte	0x2
 8301 0de0 5C01     		.2byte	0x15c
 8302 0de2 C6000000 		.4byte	0xc6
 8303 0de6 9F090000 		.4byte	.LLST59
 8304 0dea 19       		.uleb128 0x19
 8305 0deb 16000000 		.4byte	.LBB30
 8306 0def 8A000000 		.4byte	.LBE30-.LBB30
 8307 0df3 17       		.uleb128 0x17
 8308 0df4 8D010000 		.4byte	.LASF94
 8309 0df8 02       		.byte	0x2
 8310 0df9 6001     		.2byte	0x160
 8311 0dfb EA000000 		.4byte	0xea
 8312 0dff BE090000 		.4byte	.LLST60
 8313 0e03 12       		.uleb128 0x12
 8314 0e04 1A000000 		.4byte	.LVL239
 8315 0e08 C5330000 		.4byte	0x33c5
 8316 0e0c 1C       		.uleb128 0x1c
 8317 0e0d 20000000 		.4byte	.LVL240
 8318 0e11 D0330000 		.4byte	0x33d0
 8319 0e15 1F0E0000 		.4byte	0xe1f
 8320 0e19 1B       		.uleb128 0x1b
 8321 0e1a 01       		.uleb128 0x1
 8322 0e1b 50       		.byte	0x50
 8323 0e1c 01       		.uleb128 0x1
 8324 0e1d 31       		.byte	0x31
 8325 0e1e 00       		.byte	0
 8326 0e1f 12       		.uleb128 0x12
 8327 0e20 28000000 		.4byte	.LVL241
 8328 0e24 DB330000 		.4byte	0x33db
 8329 0e28 12       		.uleb128 0x12
 8330 0e29 2C000000 		.4byte	.LVL242
 8331 0e2d E6330000 		.4byte	0x33e6
 8332 0e31 00       		.byte	0
 8333 0e32 00       		.byte	0
 8334 0e33 00       		.byte	0
 8335 0e34 27       		.uleb128 0x27
 8336 0e35 E4060000 		.4byte	.LASF95
ARM GAS  C:\Users\FRANKL~1\AppData\Local\Temp\ccCAoJJX.s 			page 186


 8337 0e39 02       		.byte	0x2
 8338 0e3a 6B01     		.2byte	0x16b
 8339 0e3c 00000000 		.4byte	.LFB90
 8340 0e40 B6000000 		.4byte	.LFE90-.LFB90
 8341 0e44 01       		.uleb128 0x1
 8342 0e45 9C       		.byte	0x9c
 8343 0e46 F70E0000 		.4byte	0xef7
 8344 0e4a 26       		.uleb128 0x26
 8345 0e4b E2000000 		.4byte	.LASF79
 8346 0e4f 02       		.byte	0x2
 8347 0e50 6B01     		.2byte	0x16b
 8348 0e52 5B0B0000 		.4byte	0xb5b
 8349 0e56 DC090000 		.4byte	.LLST61
 8350 0e5a 26       		.uleb128 0x26
 8351 0e5b E7080000 		.4byte	.LASF80
 8352 0e5f 02       		.byte	0x2
 8353 0e60 6B01     		.2byte	0x16b
 8354 0e62 5B0B0000 		.4byte	0xb5b
 8355 0e66 070A0000 		.4byte	.LLST62
 8356 0e6a 26       		.uleb128 0x26
 8357 0e6b 7C070000 		.4byte	.LASF81
 8358 0e6f 02       		.byte	0x2
 8359 0e70 6B01     		.2byte	0x16b
 8360 0e72 C6000000 		.4byte	0xc6
 8361 0e76 260A0000 		.4byte	.LLST63
 8362 0e7a 17       		.uleb128 0x17
 8363 0e7b 42050000 		.4byte	.LASF92
 8364 0e7f 02       		.byte	0x2
 8365 0e80 6C01     		.2byte	0x16c
 8366 0e82 EA000000 		.4byte	0xea
 8367 0e86 440A0000 		.4byte	.LLST64
 8368 0e8a 17       		.uleb128 0x17
 8369 0e8b FB050000 		.4byte	.LASF93
 8370 0e8f 02       		.byte	0x2
 8371 0e90 6D01     		.2byte	0x16d
 8372 0e92 EA000000 		.4byte	0xea
 8373 0e96 790A0000 		.4byte	.LLST65
 8374 0e9a 28       		.uleb128 0x28
 8375 0e9b 90000000 		.4byte	.Ldebug_ranges0+0x90
 8376 0e9f 18       		.uleb128 0x18
 8377 0ea0 6900     		.ascii	"i\000"
 8378 0ea2 02       		.byte	0x2
 8379 0ea3 6F01     		.2byte	0x16f
 8380 0ea5 C6000000 		.4byte	0xc6
 8381 0ea9 AE0A0000 		.4byte	.LLST66
 8382 0ead 19       		.uleb128 0x19
 8383 0eae 16000000 		.4byte	.LBB33
 8384 0eb2 8A000000 		.4byte	.LBE33-.LBB33
 8385 0eb6 17       		.uleb128 0x17
 8386 0eb7 DA0D0000 		.4byte	.LASF96
 8387 0ebb 02       		.byte	0x2
 8388 0ebc 7301     		.2byte	0x173
 8389 0ebe EA000000 		.4byte	0xea
 8390 0ec2 CD0A0000 		.4byte	.LLST67
 8391 0ec6 12       		.uleb128 0x12
 8392 0ec7 1A000000 		.4byte	.LVL270
 8393 0ecb F1330000 		.4byte	0x33f1
ARM GAS  C:\Users\FRANKL~1\AppData\Local\Temp\ccCAoJJX.s 			page 187


 8394 0ecf 1C       		.uleb128 0x1c
 8395 0ed0 20000000 		.4byte	.LVL271
 8396 0ed4 FC330000 		.4byte	0x33fc
 8397 0ed8 E20E0000 		.4byte	0xee2
 8398 0edc 1B       		.uleb128 0x1b
 8399 0edd 01       		.uleb128 0x1
 8400 0ede 50       		.byte	0x50
 8401 0edf 01       		.uleb128 0x1
 8402 0ee0 31       		.byte	0x31
 8403 0ee1 00       		.byte	0
 8404 0ee2 12       		.uleb128 0x12
 8405 0ee3 28000000 		.4byte	.LVL272
 8406 0ee7 07340000 		.4byte	0x3407
 8407 0eeb 12       		.uleb128 0x12
 8408 0eec 2C000000 		.4byte	.LVL273
 8409 0ef0 12340000 		.4byte	0x3412
 8410 0ef4 00       		.byte	0
 8411 0ef5 00       		.byte	0
 8412 0ef6 00       		.byte	0
 8413 0ef7 27       		.uleb128 0x27
 8414 0ef8 46020000 		.4byte	.LASF97
 8415 0efc 02       		.byte	0x2
 8416 0efd 7E01     		.2byte	0x17e
 8417 0eff 00000000 		.4byte	.LFB91
 8418 0f03 90010000 		.4byte	.LFE91-.LFB91
 8419 0f07 01       		.uleb128 0x1
 8420 0f08 9C       		.byte	0x9c
 8421 0f09 4D100000 		.4byte	0x104d
 8422 0f0d 26       		.uleb128 0x26
 8423 0f0e D9040000 		.4byte	.LASF98
 8424 0f12 02       		.byte	0x2
 8425 0f13 7E01     		.2byte	0x17e
 8426 0f15 4D100000 		.4byte	0x104d
 8427 0f19 EB0A0000 		.4byte	.LLST68
 8428 0f1d 26       		.uleb128 0x26
 8429 0f1e 58080000 		.4byte	.LASF99
 8430 0f22 02       		.byte	0x2
 8431 0f23 7E01     		.2byte	0x17e
 8432 0f25 4D100000 		.4byte	0x104d
 8433 0f29 160B0000 		.4byte	.LLST69
 8434 0f2d 26       		.uleb128 0x26
 8435 0f2e 7C070000 		.4byte	.LASF81
 8436 0f32 02       		.byte	0x2
 8437 0f33 7E01     		.2byte	0x17e
 8438 0f35 C6000000 		.4byte	0xc6
 8439 0f39 410B0000 		.4byte	.LLST70
 8440 0f3d 26       		.uleb128 0x26
 8441 0f3e 140C0000 		.4byte	.LASF100
 8442 0f42 02       		.byte	0x2
 8443 0f43 7E01     		.2byte	0x17e
 8444 0f45 AE000000 		.4byte	0xae
 8445 0f49 6D0B0000 		.4byte	.LLST71
 8446 0f4d 16       		.uleb128 0x16
 8447 0f4e 02060000 		.4byte	.LASF89
 8448 0f52 02       		.byte	0x2
 8449 0f53 8501     		.2byte	0x185
 8450 0f55 EA000000 		.4byte	0xea
ARM GAS  C:\Users\FRANKL~1\AppData\Local\Temp\ccCAoJJX.s 			page 188


 8451 0f59 02       		.uleb128 0x2
 8452 0f5a 91       		.byte	0x91
 8453 0f5b 54       		.sleb128 -44
 8454 0f5c 16       		.uleb128 0x16
 8455 0f5d B8000000 		.4byte	.LASF90
 8456 0f61 02       		.byte	0x2
 8457 0f62 8601     		.2byte	0x186
 8458 0f64 EA000000 		.4byte	0xea
 8459 0f68 02       		.uleb128 0x2
 8460 0f69 91       		.byte	0x91
 8461 0f6a 50       		.sleb128 -48
 8462 0f6b 17       		.uleb128 0x17
 8463 0f6c D4080000 		.4byte	.LASF101
 8464 0f70 02       		.byte	0x2
 8465 0f71 8901     		.2byte	0x189
 8466 0f73 25000000 		.4byte	0x25
 8467 0f77 8E0B0000 		.4byte	.LLST72
 8468 0f7b 17       		.uleb128 0x17
 8469 0f7c 42060000 		.4byte	.LASF102
 8470 0f80 02       		.byte	0x2
 8471 0f81 8A01     		.2byte	0x18a
 8472 0f83 25000000 		.4byte	0x25
 8473 0f87 DC0B0000 		.4byte	.LLST73
 8474 0f8b 17       		.uleb128 0x17
 8475 0f8c E6010000 		.4byte	.LASF103
 8476 0f90 02       		.byte	0x2
 8477 0f91 8B01     		.2byte	0x18b
 8478 0f93 25000000 		.4byte	0x25
 8479 0f97 560C0000 		.4byte	.LLST74
 8480 0f9b 17       		.uleb128 0x17
 8481 0f9c 4D010000 		.4byte	.LASF104
 8482 0fa0 02       		.byte	0x2
 8483 0fa1 8D01     		.2byte	0x18d
 8484 0fa3 25000000 		.4byte	0x25
 8485 0fa7 D10C0000 		.4byte	.LLST75
 8486 0fab 17       		.uleb128 0x17
 8487 0fac 9C040000 		.4byte	.LASF105
 8488 0fb0 02       		.byte	0x2
 8489 0fb1 8E01     		.2byte	0x18e
 8490 0fb3 EA000000 		.4byte	0xea
 8491 0fb7 E50C0000 		.4byte	.LLST76
 8492 0fbb 17       		.uleb128 0x17
 8493 0fbc 50040000 		.4byte	.LASF106
 8494 0fc0 02       		.byte	0x2
 8495 0fc1 8F01     		.2byte	0x18f
 8496 0fc3 25000000 		.4byte	0x25
 8497 0fc7 F80C0000 		.4byte	.LLST77
 8498 0fcb 1F       		.uleb128 0x1f
 8499 0fcc A8000000 		.4byte	.Ldebug_ranges0+0xa8
 8500 0fd0 FE0F0000 		.4byte	0xffe
 8501 0fd4 18       		.uleb128 0x18
 8502 0fd5 6900     		.ascii	"i\000"
 8503 0fd7 02       		.byte	0x2
 8504 0fd8 9601     		.2byte	0x196
 8505 0fda C6000000 		.4byte	0xc6
 8506 0fde 230D0000 		.4byte	.LLST78
 8507 0fe2 1A       		.uleb128 0x1a
ARM GAS  C:\Users\FRANKL~1\AppData\Local\Temp\ccCAoJJX.s 			page 189


 8508 0fe3 66000000 		.4byte	.LVL312
 8509 0fe7 B20B0000 		.4byte	0xbb2
 8510 0feb 1B       		.uleb128 0x1b
 8511 0fec 01       		.uleb128 0x1
 8512 0fed 50       		.byte	0x50
 8513 0fee 02       		.uleb128 0x2
 8514 0fef 91       		.byte	0x91
 8515 0ff0 54       		.sleb128 -44
 8516 0ff1 1B       		.uleb128 0x1b
 8517 0ff2 01       		.uleb128 0x1
 8518 0ff3 51       		.byte	0x51
 8519 0ff4 02       		.uleb128 0x2
 8520 0ff5 91       		.byte	0x91
 8521 0ff6 50       		.sleb128 -48
 8522 0ff7 1B       		.uleb128 0x1b
 8523 0ff8 01       		.uleb128 0x1
 8524 0ff9 52       		.byte	0x52
 8525 0ffa 01       		.uleb128 0x1
 8526 0ffb 31       		.byte	0x31
 8527 0ffc 00       		.byte	0
 8528 0ffd 00       		.byte	0
 8529 0ffe 1C       		.uleb128 0x1c
 8530 0fff 1A000000 		.4byte	.LVL301
 8531 1003 DE0C0000 		.4byte	0xcde
 8532 1007 11100000 		.4byte	0x1011
 8533 100b 1B       		.uleb128 0x1b
 8534 100c 01       		.uleb128 0x1
 8535 100d 50       		.byte	0x50
 8536 100e 01       		.uleb128 0x1
 8537 100f 33       		.byte	0x33
 8538 1010 00       		.byte	0
 8539 1011 1C       		.uleb128 0x1c
 8540 1012 56000000 		.4byte	.LVL310
 8541 1016 B20B0000 		.4byte	0xbb2
 8542 101a 30100000 		.4byte	0x1030
 8543 101e 1B       		.uleb128 0x1b
 8544 101f 01       		.uleb128 0x1
 8545 1020 50       		.byte	0x50
 8546 1021 02       		.uleb128 0x2
 8547 1022 91       		.byte	0x91
 8548 1023 54       		.sleb128 -44
 8549 1024 1B       		.uleb128 0x1b
 8550 1025 01       		.uleb128 0x1
 8551 1026 51       		.byte	0x51
 8552 1027 02       		.uleb128 0x2
 8553 1028 74       		.byte	0x74
 8554 1029 00       		.sleb128 0
 8555 102a 1B       		.uleb128 0x1b
 8556 102b 01       		.uleb128 0x1
 8557 102c 52       		.byte	0x52
 8558 102d 01       		.uleb128 0x1
 8559 102e 33       		.byte	0x33
 8560 102f 00       		.byte	0
 8561 1030 1A       		.uleb128 0x1a
 8562 1031 3A010000 		.4byte	.LVL341
 8563 1035 B20B0000 		.4byte	0xbb2
 8564 1039 1B       		.uleb128 0x1b
ARM GAS  C:\Users\FRANKL~1\AppData\Local\Temp\ccCAoJJX.s 			page 190


 8565 103a 01       		.uleb128 0x1
 8566 103b 50       		.byte	0x50
 8567 103c 02       		.uleb128 0x2
 8568 103d 91       		.byte	0x91
 8569 103e 54       		.sleb128 -44
 8570 103f 1B       		.uleb128 0x1b
 8571 1040 01       		.uleb128 0x1
 8572 1041 51       		.byte	0x51
 8573 1042 02       		.uleb128 0x2
 8574 1043 91       		.byte	0x91
 8575 1044 50       		.sleb128 -48
 8576 1045 1B       		.uleb128 0x1b
 8577 1046 01       		.uleb128 0x1
 8578 1047 52       		.byte	0x52
 8579 1048 02       		.uleb128 0x2
 8580 1049 7A       		.byte	0x7a
 8581 104a 00       		.sleb128 0
 8582 104b 00       		.byte	0
 8583 104c 00       		.byte	0
 8584 104d 05       		.uleb128 0x5
 8585 104e 04       		.byte	0x4
 8586 104f 25000000 		.4byte	0x25
 8587 1053 2A       		.uleb128 0x2a
 8588 1054 B10B0000 		.4byte	.LASF107
 8589 1058 02       		.byte	0x2
 8590 1059 B001     		.2byte	0x1b0
 8591 105b AE000000 		.4byte	0xae
 8592 105f 00000000 		.4byte	.LFB92
 8593 1063 5C000000 		.4byte	.LFE92-.LFB92
 8594 1067 01       		.uleb128 0x1
 8595 1068 9C       		.byte	0x9c
 8596 1069 AC100000 		.4byte	0x10ac
 8597 106d 16       		.uleb128 0x16
 8598 106e DF080000 		.4byte	.LASF108
 8599 1072 02       		.byte	0x2
 8600 1073 B301     		.2byte	0x1b3
 8601 1075 25000000 		.4byte	0x25
 8602 1079 02       		.uleb128 0x2
 8603 107a 91       		.byte	0x91
 8604 107b 74       		.sleb128 -12
 8605 107c 16       		.uleb128 0x16
 8606 107d 99000000 		.4byte	.LASF109
 8607 1081 02       		.byte	0x2
 8608 1082 B401     		.2byte	0x1b4
 8609 1084 25000000 		.4byte	0x25
 8610 1088 02       		.uleb128 0x2
 8611 1089 91       		.byte	0x91
 8612 108a 70       		.sleb128 -16
 8613 108b 1A       		.uleb128 0x1a
 8614 108c 1E000000 		.4byte	.LVL350
 8615 1090 F70E0000 		.4byte	0xef7
 8616 1094 1B       		.uleb128 0x1b
 8617 1095 01       		.uleb128 0x1
 8618 1096 50       		.byte	0x50
 8619 1097 02       		.uleb128 0x2
 8620 1098 91       		.byte	0x91
 8621 1099 74       		.sleb128 -12
ARM GAS  C:\Users\FRANKL~1\AppData\Local\Temp\ccCAoJJX.s 			page 191


 8622 109a 1B       		.uleb128 0x1b
 8623 109b 01       		.uleb128 0x1
 8624 109c 51       		.byte	0x51
 8625 109d 02       		.uleb128 0x2
 8626 109e 91       		.byte	0x91
 8627 109f 70       		.sleb128 -16
 8628 10a0 1B       		.uleb128 0x1b
 8629 10a1 01       		.uleb128 0x1
 8630 10a2 52       		.byte	0x52
 8631 10a3 01       		.uleb128 0x1
 8632 10a4 33       		.byte	0x33
 8633 10a5 1B       		.uleb128 0x1b
 8634 10a6 01       		.uleb128 0x1
 8635 10a7 53       		.byte	0x53
 8636 10a8 01       		.uleb128 0x1
 8637 10a9 31       		.byte	0x31
 8638 10aa 00       		.byte	0
 8639 10ab 00       		.byte	0
 8640 10ac 2B       		.uleb128 0x2b
 8641 10ad 9D070000 		.4byte	.LASF110
 8642 10b1 02       		.byte	0x2
 8643 10b2 C001     		.2byte	0x1c0
 8644 10b4 00000000 		.4byte	.LFB93
 8645 10b8 68000000 		.4byte	.LFE93-.LFB93
 8646 10bc 01       		.uleb128 0x1
 8647 10bd 9C       		.byte	0x9c
 8648 10be 61110000 		.4byte	0x1161
 8649 10c2 17       		.uleb128 0x17
 8650 10c3 D0010000 		.4byte	.LASF111
 8651 10c7 02       		.byte	0x2
 8652 10c8 C101     		.2byte	0x1c1
 8653 10ca AE000000 		.4byte	0xae
 8654 10ce 410D0000 		.4byte	.LLST79
 8655 10d2 17       		.uleb128 0x17
 8656 10d3 3C060000 		.4byte	.LASF112
 8657 10d7 02       		.byte	0x2
 8658 10d8 C201     		.2byte	0x1c2
 8659 10da AE000000 		.4byte	0xae
 8660 10de 5F0D0000 		.4byte	.LLST80
 8661 10e2 17       		.uleb128 0x17
 8662 10e3 BB030000 		.4byte	.LASF113
 8663 10e7 02       		.byte	0x2
 8664 10e8 C301     		.2byte	0x1c3
 8665 10ea D2000000 		.4byte	0xd2
 8666 10ee 7D0D0000 		.4byte	.LLST81
 8667 10f2 15       		.uleb128 0x15
 8668 10f3 1A000000 		.4byte	.LBB37
 8669 10f7 16000000 		.4byte	.LBE37-.LBB37
 8670 10fb 2B110000 		.4byte	0x112b
 8671 10ff 18       		.uleb128 0x18
 8672 1100 6900     		.ascii	"i\000"
 8673 1102 02       		.byte	0x2
 8674 1103 C601     		.2byte	0x1c6
 8675 1105 AE000000 		.4byte	0xae
 8676 1109 B30D0000 		.4byte	.LLST82
 8677 110d 1C       		.uleb128 0x1c
 8678 110e 22000000 		.4byte	.LVL358
ARM GAS  C:\Users\FRANKL~1\AppData\Local\Temp\ccCAoJJX.s 			page 192


 8679 1112 1D340000 		.4byte	0x341d
 8680 1116 21110000 		.4byte	0x1121
 8681 111a 1B       		.uleb128 0x1b
 8682 111b 01       		.uleb128 0x1
 8683 111c 50       		.byte	0x50
 8684 111d 02       		.uleb128 0x2
 8685 111e 74       		.byte	0x74
 8686 111f 00       		.sleb128 0
 8687 1120 00       		.byte	0
 8688 1121 12       		.uleb128 0x12
 8689 1122 26000000 		.4byte	.LVL359
 8690 1126 53100000 		.4byte	0x1053
 8691 112a 00       		.byte	0
 8692 112b 19       		.uleb128 0x19
 8693 112c 48000000 		.4byte	.LBB38
 8694 1130 20000000 		.4byte	.LBE38-.LBB38
 8695 1134 18       		.uleb128 0x18
 8696 1135 6900     		.ascii	"i\000"
 8697 1137 02       		.byte	0x2
 8698 1138 D101     		.2byte	0x1d1
 8699 113a AE000000 		.4byte	0xae
 8700 113e D10D0000 		.4byte	.LLST83
 8701 1142 1C       		.uleb128 0x1c
 8702 1143 50000000 		.4byte	.LVL368
 8703 1147 28340000 		.4byte	0x3428
 8704 114b 56110000 		.4byte	0x1156
 8705 114f 1B       		.uleb128 0x1b
 8706 1150 01       		.uleb128 0x1
 8707 1151 50       		.byte	0x50
 8708 1152 02       		.uleb128 0x2
 8709 1153 74       		.byte	0x74
 8710 1154 00       		.sleb128 0
 8711 1155 00       		.byte	0
 8712 1156 12       		.uleb128 0x12
 8713 1157 54000000 		.4byte	.LVL369
 8714 115b 53100000 		.4byte	0x1053
 8715 115f 00       		.byte	0
 8716 1160 00       		.byte	0
 8717 1161 2A       		.uleb128 0x2a
 8718 1162 84000000 		.4byte	.LASF114
 8719 1166 02       		.byte	0x2
 8720 1167 DB01     		.2byte	0x1db
 8721 1169 25000000 		.4byte	0x25
 8722 116d 00000000 		.4byte	.LFB94
 8723 1171 30000000 		.4byte	.LFE94-.LFB94
 8724 1175 01       		.uleb128 0x1
 8725 1176 9C       		.byte	0x9c
 8726 1177 8A110000 		.4byte	0x118a
 8727 117b 16       		.uleb128 0x16
 8728 117c FF010000 		.4byte	.LASF115
 8729 1180 02       		.byte	0x2
 8730 1181 DC01     		.2byte	0x1dc
 8731 1183 25000000 		.4byte	0x25
 8732 1187 01       		.uleb128 0x1
 8733 1188 50       		.byte	0x50
 8734 1189 00       		.byte	0
 8735 118a 2A       		.uleb128 0x2a
ARM GAS  C:\Users\FRANKL~1\AppData\Local\Temp\ccCAoJJX.s 			page 193


 8736 118b C30E0000 		.4byte	.LASF116
 8737 118f 02       		.byte	0x2
 8738 1190 E401     		.2byte	0x1e4
 8739 1192 25000000 		.4byte	0x25
 8740 1196 00000000 		.4byte	.LFB95
 8741 119a 48000000 		.4byte	.LFE95-.LFB95
 8742 119e 01       		.uleb128 0x1
 8743 119f 9C       		.byte	0x9c
 8744 11a0 BC110000 		.4byte	0x11bc
 8745 11a4 16       		.uleb128 0x16
 8746 11a5 FF010000 		.4byte	.LASF115
 8747 11a9 02       		.byte	0x2
 8748 11aa E501     		.2byte	0x1e5
 8749 11ac 25000000 		.4byte	0x25
 8750 11b0 01       		.uleb128 0x1
 8751 11b1 50       		.byte	0x50
 8752 11b2 12       		.uleb128 0x12
 8753 11b3 1C000000 		.4byte	.LVL379
 8754 11b7 61110000 		.4byte	0x1161
 8755 11bb 00       		.byte	0
 8756 11bc 2A       		.uleb128 0x2a
 8757 11bd 4E0D0000 		.4byte	.LASF117
 8758 11c1 02       		.byte	0x2
 8759 11c2 ED01     		.2byte	0x1ed
 8760 11c4 25000000 		.4byte	0x25
 8761 11c8 00000000 		.4byte	.LFB96
 8762 11cc 48000000 		.4byte	.LFE96-.LFB96
 8763 11d0 01       		.uleb128 0x1
 8764 11d1 9C       		.byte	0x9c
 8765 11d2 EE110000 		.4byte	0x11ee
 8766 11d6 16       		.uleb128 0x16
 8767 11d7 FF010000 		.4byte	.LASF115
 8768 11db 02       		.byte	0x2
 8769 11dc EE01     		.2byte	0x1ee
 8770 11de 25000000 		.4byte	0x25
 8771 11e2 01       		.uleb128 0x1
 8772 11e3 50       		.byte	0x50
 8773 11e4 12       		.uleb128 0x12
 8774 11e5 1C000000 		.4byte	.LVL385
 8775 11e9 61110000 		.4byte	0x1161
 8776 11ed 00       		.byte	0
 8777 11ee 14       		.uleb128 0x14
 8778 11ef 150F0000 		.4byte	.LASF118
 8779 11f3 02       		.byte	0x2
 8780 11f4 F801     		.2byte	0x1f8
 8781 11f6 00000000 		.4byte	.LFB97
 8782 11fa 78000000 		.4byte	.LFE97-.LFB97
 8783 11fe 01       		.uleb128 0x1
 8784 11ff 9C       		.byte	0x9c
 8785 1200 C1120000 		.4byte	0x12c1
 8786 1204 26       		.uleb128 0x26
 8787 1205 06040000 		.4byte	.LASF119
 8788 1209 02       		.byte	0x2
 8789 120a F801     		.2byte	0x1f8
 8790 120c AE000000 		.4byte	0xae
 8791 1210 EF0D0000 		.4byte	.LLST84
 8792 1214 17       		.uleb128 0x17
ARM GAS  C:\Users\FRANKL~1\AppData\Local\Temp\ccCAoJJX.s 			page 194


 8793 1215 D0010000 		.4byte	.LASF111
 8794 1219 02       		.byte	0x2
 8795 121a FB01     		.2byte	0x1fb
 8796 121c AE000000 		.4byte	0xae
 8797 1220 100E0000 		.4byte	.LLST85
 8798 1224 17       		.uleb128 0x17
 8799 1225 BB030000 		.4byte	.LASF113
 8800 1229 02       		.byte	0x2
 8801 122a FC01     		.2byte	0x1fc
 8802 122c D2000000 		.4byte	0xd2
 8803 1230 230E0000 		.4byte	.LLST86
 8804 1234 15       		.uleb128 0x15
 8805 1235 22000000 		.4byte	.LBB39
 8806 1239 40000000 		.4byte	.LBE39-.LBB39
 8807 123d B0120000 		.4byte	0x12b0
 8808 1241 18       		.uleb128 0x18
 8809 1242 6900     		.ascii	"i\000"
 8810 1244 02       		.byte	0x2
 8811 1245 0002     		.2byte	0x200
 8812 1247 AE000000 		.4byte	0xae
 8813 124b 420E0000 		.4byte	.LLST87
 8814 124f 1F       		.uleb128 0x1f
 8815 1250 C0000000 		.4byte	.Ldebug_ranges0+0xc0
 8816 1254 84120000 		.4byte	0x1284
 8817 1258 18       		.uleb128 0x18
 8818 1259 6A00     		.ascii	"j\000"
 8819 125b 02       		.byte	0x2
 8820 125c 0202     		.2byte	0x202
 8821 125e AE000000 		.4byte	0xae
 8822 1262 6B0E0000 		.4byte	.LLST88
 8823 1266 1C       		.uleb128 0x1c
 8824 1267 34000000 		.4byte	.LVL395
 8825 126b 1D340000 		.4byte	0x341d
 8826 126f 7A120000 		.4byte	0x127a
 8827 1273 1B       		.uleb128 0x1b
 8828 1274 01       		.uleb128 0x1
 8829 1275 50       		.byte	0x50
 8830 1276 02       		.uleb128 0x2
 8831 1277 74       		.byte	0x74
 8832 1278 00       		.sleb128 0
 8833 1279 00       		.byte	0
 8834 127a 12       		.uleb128 0x12
 8835 127b 38000000 		.4byte	.LVL396
 8836 127f 53100000 		.4byte	0x1053
 8837 1283 00       		.byte	0
 8838 1284 12       		.uleb128 0x12
 8839 1285 2A000000 		.4byte	.LVL393
 8840 1289 53100000 		.4byte	0x1053
 8841 128d 12       		.uleb128 0x12
 8842 128e 4A000000 		.4byte	.LVL401
 8843 1292 53100000 		.4byte	0x1053
 8844 1296 12       		.uleb128 0x12
 8845 1297 50000000 		.4byte	.LVL402
 8846 129b AC100000 		.4byte	0x10ac
 8847 129f 1A       		.uleb128 0x1a
 8848 12a0 5A000000 		.4byte	.LVL404
 8849 12a4 1D340000 		.4byte	0x341d
ARM GAS  C:\Users\FRANKL~1\AppData\Local\Temp\ccCAoJJX.s 			page 195


 8850 12a8 1B       		.uleb128 0x1b
 8851 12a9 01       		.uleb128 0x1
 8852 12aa 50       		.byte	0x50
 8853 12ab 02       		.uleb128 0x2
 8854 12ac 77       		.byte	0x77
 8855 12ad 00       		.sleb128 0
 8856 12ae 00       		.byte	0
 8857 12af 00       		.byte	0
 8858 12b0 1A       		.uleb128 0x1a
 8859 12b1 68000000 		.4byte	.LVL407
 8860 12b5 1D340000 		.4byte	0x341d
 8861 12b9 1B       		.uleb128 0x1b
 8862 12ba 01       		.uleb128 0x1
 8863 12bb 50       		.byte	0x50
 8864 12bc 02       		.uleb128 0x2
 8865 12bd 78       		.byte	0x78
 8866 12be 00       		.sleb128 0
 8867 12bf 00       		.byte	0
 8868 12c0 00       		.byte	0
 8869 12c1 14       		.uleb128 0x14
 8870 12c2 41010000 		.4byte	.LASF120
 8871 12c6 02       		.byte	0x2
 8872 12c7 1502     		.2byte	0x215
 8873 12c9 00000000 		.4byte	.LFB98
 8874 12cd 78000000 		.4byte	.LFE98-.LFB98
 8875 12d1 01       		.uleb128 0x1
 8876 12d2 9C       		.byte	0x9c
 8877 12d3 94130000 		.4byte	0x1394
 8878 12d7 26       		.uleb128 0x26
 8879 12d8 06040000 		.4byte	.LASF119
 8880 12dc 02       		.byte	0x2
 8881 12dd 1502     		.2byte	0x215
 8882 12df AE000000 		.4byte	0xae
 8883 12e3 940E0000 		.4byte	.LLST89
 8884 12e7 17       		.uleb128 0x17
 8885 12e8 BB030000 		.4byte	.LASF113
 8886 12ec 02       		.byte	0x2
 8887 12ed 1802     		.2byte	0x218
 8888 12ef D2000000 		.4byte	0xd2
 8889 12f3 B50E0000 		.4byte	.LLST90
 8890 12f7 17       		.uleb128 0x17
 8891 12f8 D0010000 		.4byte	.LASF111
 8892 12fc 02       		.byte	0x2
 8893 12fd 1902     		.2byte	0x219
 8894 12ff AE000000 		.4byte	0xae
 8895 1303 D40E0000 		.4byte	.LLST91
 8896 1307 15       		.uleb128 0x15
 8897 1308 22000000 		.4byte	.LBB42
 8898 130c 40000000 		.4byte	.LBE42-.LBB42
 8899 1310 83130000 		.4byte	0x1383
 8900 1314 18       		.uleb128 0x18
 8901 1315 6900     		.ascii	"i\000"
 8902 1317 02       		.byte	0x2
 8903 1318 1D02     		.2byte	0x21d
 8904 131a AE000000 		.4byte	0xae
 8905 131e E70E0000 		.4byte	.LLST92
 8906 1322 1F       		.uleb128 0x1f
ARM GAS  C:\Users\FRANKL~1\AppData\Local\Temp\ccCAoJJX.s 			page 196


 8907 1323 D8000000 		.4byte	.Ldebug_ranges0+0xd8
 8908 1327 57130000 		.4byte	0x1357
 8909 132b 18       		.uleb128 0x18
 8910 132c 6A00     		.ascii	"j\000"
 8911 132e 02       		.byte	0x2
 8912 132f 1F02     		.2byte	0x21f
 8913 1331 AE000000 		.4byte	0xae
 8914 1335 100F0000 		.4byte	.LLST93
 8915 1339 1C       		.uleb128 0x1c
 8916 133a 34000000 		.4byte	.LVL416
 8917 133e 28340000 		.4byte	0x3428
 8918 1342 4D130000 		.4byte	0x134d
 8919 1346 1B       		.uleb128 0x1b
 8920 1347 01       		.uleb128 0x1
 8921 1348 50       		.byte	0x50
 8922 1349 02       		.uleb128 0x2
 8923 134a 74       		.byte	0x74
 8924 134b 00       		.sleb128 0
 8925 134c 00       		.byte	0
 8926 134d 12       		.uleb128 0x12
 8927 134e 38000000 		.4byte	.LVL417
 8928 1352 53100000 		.4byte	0x1053
 8929 1356 00       		.byte	0
 8930 1357 12       		.uleb128 0x12
 8931 1358 2A000000 		.4byte	.LVL414
 8932 135c 53100000 		.4byte	0x1053
 8933 1360 12       		.uleb128 0x12
 8934 1361 4A000000 		.4byte	.LVL422
 8935 1365 53100000 		.4byte	0x1053
 8936 1369 12       		.uleb128 0x12
 8937 136a 50000000 		.4byte	.LVL423
 8938 136e AC100000 		.4byte	0x10ac
 8939 1372 1A       		.uleb128 0x1a
 8940 1373 5A000000 		.4byte	.LVL425
 8941 1377 28340000 		.4byte	0x3428
 8942 137b 1B       		.uleb128 0x1b
 8943 137c 01       		.uleb128 0x1
 8944 137d 50       		.byte	0x50
 8945 137e 02       		.uleb128 0x2
 8946 137f 77       		.byte	0x77
 8947 1380 00       		.sleb128 0
 8948 1381 00       		.byte	0
 8949 1382 00       		.byte	0
 8950 1383 1A       		.uleb128 0x1a
 8951 1384 68000000 		.4byte	.LVL428
 8952 1388 28340000 		.4byte	0x3428
 8953 138c 1B       		.uleb128 0x1b
 8954 138d 01       		.uleb128 0x1
 8955 138e 50       		.byte	0x50
 8956 138f 02       		.uleb128 0x2
 8957 1390 78       		.byte	0x78
 8958 1391 00       		.sleb128 0
 8959 1392 00       		.byte	0
 8960 1393 00       		.byte	0
 8961 1394 14       		.uleb128 0x14
 8962 1395 4D050000 		.4byte	.LASF121
 8963 1399 02       		.byte	0x2
ARM GAS  C:\Users\FRANKL~1\AppData\Local\Temp\ccCAoJJX.s 			page 197


 8964 139a 3202     		.2byte	0x232
 8965 139c 00000000 		.4byte	.LFB99
 8966 13a0 C0000000 		.4byte	.LFE99-.LFB99
 8967 13a4 01       		.uleb128 0x1
 8968 13a5 9C       		.byte	0x9c
 8969 13a6 AA140000 		.4byte	0x14aa
 8970 13aa 26       		.uleb128 0x26
 8971 13ab 06040000 		.4byte	.LASF119
 8972 13af 02       		.byte	0x2
 8973 13b0 3202     		.2byte	0x232
 8974 13b2 AE000000 		.4byte	0xae
 8975 13b6 390F0000 		.4byte	.LLST94
 8976 13ba 17       		.uleb128 0x17
 8977 13bb BB030000 		.4byte	.LASF113
 8978 13bf 02       		.byte	0x2
 8979 13c0 3502     		.2byte	0x235
 8980 13c2 D2000000 		.4byte	0xd2
 8981 13c6 570F0000 		.4byte	.LLST95
 8982 13ca 17       		.uleb128 0x17
 8983 13cb 27050000 		.4byte	.LASF122
 8984 13cf 02       		.byte	0x2
 8985 13d0 4C02     		.2byte	0x24c
 8986 13d2 DE000000 		.4byte	0xde
 8987 13d6 760F0000 		.4byte	.LLST96
 8988 13da 17       		.uleb128 0x17
 8989 13db 24040000 		.4byte	.LASF123
 8990 13df 02       		.byte	0x2
 8991 13e0 4D02     		.2byte	0x24d
 8992 13e2 DE000000 		.4byte	0xde
 8993 13e6 890F0000 		.4byte	.LLST97
 8994 13ea 15       		.uleb128 0x15
 8995 13eb 20000000 		.4byte	.LBB45
 8996 13ef 54000000 		.4byte	.LBE45-.LBB45
 8997 13f3 71140000 		.4byte	0x1471
 8998 13f7 18       		.uleb128 0x18
 8999 13f8 6900     		.ascii	"i\000"
 9000 13fa 02       		.byte	0x2
 9001 13fb 3902     		.2byte	0x239
 9002 13fd AE000000 		.4byte	0xae
 9003 1401 9C0F0000 		.4byte	.LLST98
 9004 1405 19       		.uleb128 0x19
 9005 1406 28000000 		.4byte	.LBB46
 9006 140a 44000000 		.4byte	.LBE46-.LBB46
 9007 140e 17       		.uleb128 0x17
 9008 140f 27050000 		.4byte	.LASF122
 9009 1413 02       		.byte	0x2
 9010 1414 3D02     		.2byte	0x23d
 9011 1416 DE000000 		.4byte	0xde
 9012 141a BA0F0000 		.4byte	.LLST99
 9013 141e 17       		.uleb128 0x17
 9014 141f 24040000 		.4byte	.LASF123
 9015 1423 02       		.byte	0x2
 9016 1424 3E02     		.2byte	0x23e
 9017 1426 DE000000 		.4byte	0xde
 9018 142a CD0F0000 		.4byte	.LLST100
 9019 142e 12       		.uleb128 0x12
 9020 142f 2C000000 		.4byte	.LVL434
ARM GAS  C:\Users\FRANKL~1\AppData\Local\Temp\ccCAoJJX.s 			page 198


 9021 1433 53100000 		.4byte	0x1053
 9022 1437 1C       		.uleb128 0x1c
 9023 1438 60000000 		.4byte	.LVL441
 9024 143c 33340000 		.4byte	0x3433
 9025 1440 4B140000 		.4byte	0x144b
 9026 1444 1B       		.uleb128 0x1b
 9027 1445 01       		.uleb128 0x1
 9028 1446 50       		.byte	0x50
 9029 1447 02       		.uleb128 0x2
 9030 1448 76       		.byte	0x76
 9031 1449 00       		.sleb128 0
 9032 144a 00       		.byte	0
 9033 144b 1C       		.uleb128 0x1c
 9034 144c 66000000 		.4byte	.LVL442
 9035 1450 28340000 		.4byte	0x3428
 9036 1454 5F140000 		.4byte	0x145f
 9037 1458 1B       		.uleb128 0x1b
 9038 1459 01       		.uleb128 0x1
 9039 145a 50       		.byte	0x50
 9040 145b 02       		.uleb128 0x2
 9041 145c 75       		.byte	0x75
 9042 145d 00       		.sleb128 0
 9043 145e 00       		.byte	0
 9044 145f 1A       		.uleb128 0x1a
 9045 1460 6C000000 		.4byte	.LVL443
 9046 1464 1D340000 		.4byte	0x341d
 9047 1468 1B       		.uleb128 0x1b
 9048 1469 01       		.uleb128 0x1
 9049 146a 50       		.byte	0x50
 9050 146b 02       		.uleb128 0x2
 9051 146c 74       		.byte	0x74
 9052 146d 00       		.sleb128 0
 9053 146e 00       		.byte	0
 9054 146f 00       		.byte	0
 9055 1470 00       		.byte	0
 9056 1471 1C       		.uleb128 0x1c
 9057 1472 A4000000 		.4byte	.LVL452
 9058 1476 33340000 		.4byte	0x3433
 9059 147a 85140000 		.4byte	0x1485
 9060 147e 1B       		.uleb128 0x1b
 9061 147f 01       		.uleb128 0x1
 9062 1480 50       		.byte	0x50
 9063 1481 02       		.uleb128 0x2
 9064 1482 77       		.byte	0x77
 9065 1483 00       		.sleb128 0
 9066 1484 00       		.byte	0
 9067 1485 1C       		.uleb128 0x1c
 9068 1486 AA000000 		.4byte	.LVL453
 9069 148a 28340000 		.4byte	0x3428
 9070 148e 99140000 		.4byte	0x1499
 9071 1492 1B       		.uleb128 0x1b
 9072 1493 01       		.uleb128 0x1
 9073 1494 50       		.byte	0x50
 9074 1495 02       		.uleb128 0x2
 9075 1496 75       		.byte	0x75
 9076 1497 00       		.sleb128 0
 9077 1498 00       		.byte	0
ARM GAS  C:\Users\FRANKL~1\AppData\Local\Temp\ccCAoJJX.s 			page 199


 9078 1499 1A       		.uleb128 0x1a
 9079 149a B0000000 		.4byte	.LVL454
 9080 149e 1D340000 		.4byte	0x341d
 9081 14a2 1B       		.uleb128 0x1b
 9082 14a3 01       		.uleb128 0x1
 9083 14a4 50       		.byte	0x50
 9084 14a5 02       		.uleb128 0x2
 9085 14a6 74       		.byte	0x74
 9086 14a7 00       		.sleb128 0
 9087 14a8 00       		.byte	0
 9088 14a9 00       		.byte	0
 9089 14aa 14       		.uleb128 0x14
 9090 14ab D1000000 		.4byte	.LASF124
 9091 14af 02       		.byte	0x2
 9092 14b0 5C02     		.2byte	0x25c
 9093 14b2 00000000 		.4byte	.LFB100
 9094 14b6 C8000000 		.4byte	.LFE100-.LFB100
 9095 14ba 01       		.uleb128 0x1
 9096 14bb 9C       		.byte	0x9c
 9097 14bc 7C150000 		.4byte	0x157c
 9098 14c0 26       		.uleb128 0x26
 9099 14c1 06040000 		.4byte	.LASF119
 9100 14c5 02       		.byte	0x2
 9101 14c6 5C02     		.2byte	0x25c
 9102 14c8 DE000000 		.4byte	0xde
 9103 14cc E00F0000 		.4byte	.LLST101
 9104 14d0 17       		.uleb128 0x17
 9105 14d1 16000000 		.4byte	.LASF125
 9106 14d5 02       		.byte	0x2
 9107 14d6 6002     		.2byte	0x260
 9108 14d8 DE000000 		.4byte	0xde
 9109 14dc FE0F0000 		.4byte	.LLST102
 9110 14e0 17       		.uleb128 0x17
 9111 14e1 0E060000 		.4byte	.LASF126
 9112 14e5 02       		.byte	0x2
 9113 14e6 6E02     		.2byte	0x26e
 9114 14e8 BA000000 		.4byte	0xba
 9115 14ec 3D100000 		.4byte	.LLST103
 9116 14f0 17       		.uleb128 0x17
 9117 14f1 44070000 		.4byte	.LASF127
 9118 14f5 02       		.byte	0x2
 9119 14f6 6F02     		.2byte	0x26f
 9120 14f8 BA000000 		.4byte	0xba
 9121 14fc 50100000 		.4byte	.LLST104
 9122 1500 17       		.uleb128 0x17
 9123 1501 AE050000 		.4byte	.LASF128
 9124 1505 02       		.byte	0x2
 9125 1506 7002     		.2byte	0x270
 9126 1508 BA000000 		.4byte	0xba
 9127 150c 63100000 		.4byte	.LLST105
 9128 1510 17       		.uleb128 0x17
 9129 1511 400D0000 		.4byte	.LASF129
 9130 1515 02       		.byte	0x2
 9131 1516 7102     		.2byte	0x271
 9132 1518 BA000000 		.4byte	0xba
 9133 151c 76100000 		.4byte	.LLST106
 9134 1520 17       		.uleb128 0x17
ARM GAS  C:\Users\FRANKL~1\AppData\Local\Temp\ccCAoJJX.s 			page 200


 9135 1521 500E0000 		.4byte	.LASF130
 9136 1525 02       		.byte	0x2
 9137 1526 7302     		.2byte	0x273
 9138 1528 BA000000 		.4byte	0xba
 9139 152c 89100000 		.4byte	.LLST107
 9140 1530 12       		.uleb128 0x12
 9141 1531 32000000 		.4byte	.LVL462
 9142 1535 94130000 		.4byte	0x1394
 9143 1539 1C       		.uleb128 0x1c
 9144 153a 38000000 		.4byte	.LVL463
 9145 153e EE110000 		.4byte	0x11ee
 9146 1542 4D150000 		.4byte	0x154d
 9147 1546 1B       		.uleb128 0x1b
 9148 1547 01       		.uleb128 0x1
 9149 1548 50       		.byte	0x50
 9150 1549 02       		.uleb128 0x2
 9151 154a 09       		.byte	0x9
 9152 154b FF       		.byte	0xff
 9153 154c 00       		.byte	0
 9154 154d 12       		.uleb128 0x12
 9155 154e 4A000000 		.4byte	.LVL467
 9156 1552 94130000 		.4byte	0x1394
 9157 1556 1C       		.uleb128 0x1c
 9158 1557 50000000 		.4byte	.LVL468
 9159 155b EE110000 		.4byte	0x11ee
 9160 155f 69150000 		.4byte	0x1569
 9161 1563 1B       		.uleb128 0x1b
 9162 1564 01       		.uleb128 0x1
 9163 1565 50       		.byte	0x50
 9164 1566 01       		.uleb128 0x1
 9165 1567 30       		.byte	0x30
 9166 1568 00       		.byte	0
 9167 1569 12       		.uleb128 0x12
 9168 156a 58000000 		.4byte	.LVL470
 9169 156e EE110000 		.4byte	0x11ee
 9170 1572 12       		.uleb128 0x12
 9171 1573 B8000000 		.4byte	.LVL481
 9172 1577 94130000 		.4byte	0x1394
 9173 157b 00       		.byte	0
 9174 157c 14       		.uleb128 0x14
 9175 157d FA030000 		.4byte	.LASF131
 9176 1581 02       		.byte	0x2
 9177 1582 7E02     		.2byte	0x27e
 9178 1584 00000000 		.4byte	.LFB101
 9179 1588 C8000000 		.4byte	.LFE101-.LFB101
 9180 158c 01       		.uleb128 0x1
 9181 158d 9C       		.byte	0x9c
 9182 158e 4E160000 		.4byte	0x164e
 9183 1592 26       		.uleb128 0x26
 9184 1593 06040000 		.4byte	.LASF119
 9185 1597 02       		.byte	0x2
 9186 1598 7E02     		.2byte	0x27e
 9187 159a DE000000 		.4byte	0xde
 9188 159e C8100000 		.4byte	.LLST108
 9189 15a2 17       		.uleb128 0x17
 9190 15a3 16000000 		.4byte	.LASF125
 9191 15a7 02       		.byte	0x2
ARM GAS  C:\Users\FRANKL~1\AppData\Local\Temp\ccCAoJJX.s 			page 201


 9192 15a8 8202     		.2byte	0x282
 9193 15aa DE000000 		.4byte	0xde
 9194 15ae E6100000 		.4byte	.LLST109
 9195 15b2 17       		.uleb128 0x17
 9196 15b3 0E060000 		.4byte	.LASF126
 9197 15b7 02       		.byte	0x2
 9198 15b8 9002     		.2byte	0x290
 9199 15ba BA000000 		.4byte	0xba
 9200 15be 25110000 		.4byte	.LLST110
 9201 15c2 17       		.uleb128 0x17
 9202 15c3 44070000 		.4byte	.LASF127
 9203 15c7 02       		.byte	0x2
 9204 15c8 9102     		.2byte	0x291
 9205 15ca BA000000 		.4byte	0xba
 9206 15ce 38110000 		.4byte	.LLST111
 9207 15d2 17       		.uleb128 0x17
 9208 15d3 AE050000 		.4byte	.LASF128
 9209 15d7 02       		.byte	0x2
 9210 15d8 9202     		.2byte	0x292
 9211 15da BA000000 		.4byte	0xba
 9212 15de 4B110000 		.4byte	.LLST112
 9213 15e2 17       		.uleb128 0x17
 9214 15e3 400D0000 		.4byte	.LASF129
 9215 15e7 02       		.byte	0x2
 9216 15e8 9302     		.2byte	0x293
 9217 15ea BA000000 		.4byte	0xba
 9218 15ee 5E110000 		.4byte	.LLST113
 9219 15f2 17       		.uleb128 0x17
 9220 15f3 500E0000 		.4byte	.LASF130
 9221 15f7 02       		.byte	0x2
 9222 15f8 9502     		.2byte	0x295
 9223 15fa BA000000 		.4byte	0xba
 9224 15fe 71110000 		.4byte	.LLST114
 9225 1602 12       		.uleb128 0x12
 9226 1603 32000000 		.4byte	.LVL489
 9227 1607 94130000 		.4byte	0x1394
 9228 160b 1C       		.uleb128 0x1c
 9229 160c 38000000 		.4byte	.LVL490
 9230 1610 C1120000 		.4byte	0x12c1
 9231 1614 1F160000 		.4byte	0x161f
 9232 1618 1B       		.uleb128 0x1b
 9233 1619 01       		.uleb128 0x1
 9234 161a 50       		.byte	0x50
 9235 161b 02       		.uleb128 0x2
 9236 161c 09       		.byte	0x9
 9237 161d FF       		.byte	0xff
 9238 161e 00       		.byte	0
 9239 161f 12       		.uleb128 0x12
 9240 1620 4A000000 		.4byte	.LVL494
 9241 1624 94130000 		.4byte	0x1394
 9242 1628 1C       		.uleb128 0x1c
 9243 1629 50000000 		.4byte	.LVL495
 9244 162d C1120000 		.4byte	0x12c1
 9245 1631 3B160000 		.4byte	0x163b
 9246 1635 1B       		.uleb128 0x1b
 9247 1636 01       		.uleb128 0x1
 9248 1637 50       		.byte	0x50
ARM GAS  C:\Users\FRANKL~1\AppData\Local\Temp\ccCAoJJX.s 			page 202


 9249 1638 01       		.uleb128 0x1
 9250 1639 30       		.byte	0x30
 9251 163a 00       		.byte	0
 9252 163b 12       		.uleb128 0x12
 9253 163c 58000000 		.4byte	.LVL497
 9254 1640 C1120000 		.4byte	0x12c1
 9255 1644 12       		.uleb128 0x12
 9256 1645 B8000000 		.4byte	.LVL508
 9257 1649 94130000 		.4byte	0x1394
 9258 164d 00       		.byte	0
 9259 164e 27       		.uleb128 0x27
 9260 164f A20D0000 		.4byte	.LASF132
 9261 1653 02       		.byte	0x2
 9262 1654 A102     		.2byte	0x2a1
 9263 1656 00000000 		.4byte	.LFB102
 9264 165a 38000000 		.4byte	.LFE102-.LFB102
 9265 165e 01       		.uleb128 0x1
 9266 165f 9C       		.byte	0x9c
 9267 1660 7E160000 		.4byte	0x167e
 9268 1664 26       		.uleb128 0x26
 9269 1665 BC050000 		.4byte	.LASF133
 9270 1669 02       		.byte	0x2
 9271 166a A102     		.2byte	0x2a1
 9272 166c 25000000 		.4byte	0x25
 9273 1670 B0110000 		.4byte	.LLST115
 9274 1674 12       		.uleb128 0x12
 9275 1675 24000000 		.4byte	.LVL515
 9276 1679 7C150000 		.4byte	0x157c
 9277 167d 00       		.byte	0
 9278 167e 27       		.uleb128 0x27
 9279 167f BF0B0000 		.4byte	.LASF134
 9280 1683 02       		.byte	0x2
 9281 1684 A602     		.2byte	0x2a6
 9282 1686 00000000 		.4byte	.LFB103
 9283 168a 38000000 		.4byte	.LFE103-.LFB103
 9284 168e 01       		.uleb128 0x1
 9285 168f 9C       		.byte	0x9c
 9286 1690 AE160000 		.4byte	0x16ae
 9287 1694 26       		.uleb128 0x26
 9288 1695 BC050000 		.4byte	.LASF133
 9289 1699 02       		.byte	0x2
 9290 169a A602     		.2byte	0x2a6
 9291 169c 25000000 		.4byte	0x25
 9292 16a0 D3110000 		.4byte	.LLST116
 9293 16a4 12       		.uleb128 0x12
 9294 16a5 24000000 		.4byte	.LVL521
 9295 16a9 AA140000 		.4byte	0x14aa
 9296 16ad 00       		.byte	0
 9297 16ae 27       		.uleb128 0x27
 9298 16af 260A0000 		.4byte	.LASF135
 9299 16b3 02       		.byte	0x2
 9300 16b4 AC02     		.2byte	0x2ac
 9301 16b6 00000000 		.4byte	.LFB104
 9302 16ba 14000000 		.4byte	.LFE104-.LFB104
 9303 16be 01       		.uleb128 0x1
 9304 16bf 9C       		.byte	0x9c
 9305 16c0 DD160000 		.4byte	0x16dd
ARM GAS  C:\Users\FRANKL~1\AppData\Local\Temp\ccCAoJJX.s 			page 203


 9306 16c4 2C       		.uleb128 0x2c
 9307 16c5 6D5600   		.ascii	"mV\000"
 9308 16c8 02       		.byte	0x2
 9309 16c9 AC02     		.2byte	0x2ac
 9310 16cb 25000000 		.4byte	0x25
 9311 16cf F6110000 		.4byte	.LLST117
 9312 16d3 12       		.uleb128 0x12
 9313 16d4 0C000000 		.4byte	.LVL524
 9314 16d8 4E160000 		.4byte	0x164e
 9315 16dc 00       		.byte	0
 9316 16dd 27       		.uleb128 0x27
 9317 16de F4010000 		.4byte	.LASF136
 9318 16e2 02       		.byte	0x2
 9319 16e3 B102     		.2byte	0x2b1
 9320 16e5 00000000 		.4byte	.LFB105
 9321 16e9 14000000 		.4byte	.LFE105-.LFB105
 9322 16ed 01       		.uleb128 0x1
 9323 16ee 9C       		.byte	0x9c
 9324 16ef 0C170000 		.4byte	0x170c
 9325 16f3 2C       		.uleb128 0x2c
 9326 16f4 6D5600   		.ascii	"mV\000"
 9327 16f7 02       		.byte	0x2
 9328 16f8 B102     		.2byte	0x2b1
 9329 16fa 25000000 		.4byte	0x25
 9330 16fe 19120000 		.4byte	.LLST118
 9331 1702 12       		.uleb128 0x12
 9332 1703 0C000000 		.4byte	.LVL527
 9333 1707 7E160000 		.4byte	0x167e
 9334 170b 00       		.byte	0
 9335 170c 2B       		.uleb128 0x2b
 9336 170d AA040000 		.4byte	.LASF137
 9337 1711 02       		.byte	0x2
 9338 1712 B702     		.2byte	0x2b7
 9339 1714 00000000 		.4byte	.LFB106
 9340 1718 1C000000 		.4byte	.LFE106-.LFB106
 9341 171c 01       		.uleb128 0x1
 9342 171d 9C       		.byte	0x9c
 9343 171e 6B170000 		.4byte	0x176b
 9344 1722 1C       		.uleb128 0x1c
 9345 1723 08000000 		.4byte	.LVL528
 9346 1727 EE110000 		.4byte	0x11ee
 9347 172b 35170000 		.4byte	0x1735
 9348 172f 1B       		.uleb128 0x1b
 9349 1730 01       		.uleb128 0x1
 9350 1731 50       		.byte	0x50
 9351 1732 01       		.uleb128 0x1
 9352 1733 30       		.byte	0x30
 9353 1734 00       		.byte	0
 9354 1735 1C       		.uleb128 0x1c
 9355 1736 0E000000 		.4byte	.LVL529
 9356 173a C1120000 		.4byte	0x12c1
 9357 173e 48170000 		.4byte	0x1748
 9358 1742 1B       		.uleb128 0x1b
 9359 1743 01       		.uleb128 0x1
 9360 1744 50       		.byte	0x50
 9361 1745 01       		.uleb128 0x1
 9362 1746 30       		.byte	0x30
ARM GAS  C:\Users\FRANKL~1\AppData\Local\Temp\ccCAoJJX.s 			page 204


 9363 1747 00       		.byte	0
 9364 1748 1C       		.uleb128 0x1c
 9365 1749 14000000 		.4byte	.LVL530
 9366 174d 1D340000 		.4byte	0x341d
 9367 1751 5B170000 		.4byte	0x175b
 9368 1755 1B       		.uleb128 0x1b
 9369 1756 01       		.uleb128 0x1
 9370 1757 50       		.byte	0x50
 9371 1758 01       		.uleb128 0x1
 9372 1759 30       		.byte	0x30
 9373 175a 00       		.byte	0
 9374 175b 1A       		.uleb128 0x1a
 9375 175c 1A000000 		.4byte	.LVL531
 9376 1760 28340000 		.4byte	0x3428
 9377 1764 1B       		.uleb128 0x1b
 9378 1765 01       		.uleb128 0x1
 9379 1766 50       		.byte	0x50
 9380 1767 01       		.uleb128 0x1
 9381 1768 30       		.byte	0x30
 9382 1769 00       		.byte	0
 9383 176a 00       		.byte	0
 9384 176b 27       		.uleb128 0x27
 9385 176c 3B0E0000 		.4byte	.LASF138
 9386 1770 02       		.byte	0x2
 9387 1771 BF02     		.2byte	0x2bf
 9388 1773 00000000 		.4byte	.LFB107
 9389 1777 A8000000 		.4byte	.LFE107-.LFB107
 9390 177b 01       		.uleb128 0x1
 9391 177c 9C       		.byte	0x9c
 9392 177d A6180000 		.4byte	0x18a6
 9393 1781 26       		.uleb128 0x26
 9394 1782 7C070000 		.4byte	.LASF81
 9395 1786 02       		.byte	0x2
 9396 1787 BF02     		.2byte	0x2bf
 9397 1789 C6000000 		.4byte	0xc6
 9398 178d 3C120000 		.4byte	.LLST119
 9399 1791 17       		.uleb128 0x17
 9400 1792 C5030000 		.4byte	.LASF139
 9401 1796 02       		.byte	0x2
 9402 1797 C002     		.2byte	0x2c0
 9403 1799 AE000000 		.4byte	0xae
 9404 179d 68120000 		.4byte	.LLST120
 9405 17a1 16       		.uleb128 0x16
 9406 17a2 BC050000 		.4byte	.LASF133
 9407 17a6 02       		.byte	0x2
 9408 17a7 C702     		.2byte	0x2c7
 9409 17a9 EA000000 		.4byte	0xea
 9410 17ad 02       		.uleb128 0x2
 9411 17ae 91       		.byte	0x91
 9412 17af 64       		.sleb128 -28
 9413 17b0 16       		.uleb128 0x16
 9414 17b1 DE050000 		.4byte	.LASF140
 9415 17b5 02       		.byte	0x2
 9416 17b6 C802     		.2byte	0x2c8
 9417 17b8 EA000000 		.4byte	0xea
 9418 17bc 02       		.uleb128 0x2
 9419 17bd 91       		.byte	0x91
ARM GAS  C:\Users\FRANKL~1\AppData\Local\Temp\ccCAoJJX.s 			page 205


 9420 17be 60       		.sleb128 -32
 9421 17bf 15       		.uleb128 0x15
 9422 17c0 1E000000 		.4byte	.LBB47
 9423 17c4 4C000000 		.4byte	.LBE47-.LBB47
 9424 17c8 5E180000 		.4byte	0x185e
 9425 17cc 18       		.uleb128 0x18
 9426 17cd 6900     		.ascii	"i\000"
 9427 17cf 02       		.byte	0x2
 9428 17d0 CB02     		.2byte	0x2cb
 9429 17d2 AE000000 		.4byte	0xae
 9430 17d6 7B120000 		.4byte	.LLST121
 9431 17da 1C       		.uleb128 0x1c
 9432 17db 26000000 		.4byte	.LVL539
 9433 17df 700A0000 		.4byte	0xa70
 9434 17e3 EE170000 		.4byte	0x17ee
 9435 17e7 1B       		.uleb128 0x1b
 9436 17e8 01       		.uleb128 0x1
 9437 17e9 50       		.byte	0x50
 9438 17ea 02       		.uleb128 0x2
 9439 17eb 74       		.byte	0x74
 9440 17ec 00       		.sleb128 0
 9441 17ed 00       		.byte	0
 9442 17ee 1C       		.uleb128 0x1c
 9443 17ef 30000000 		.4byte	.LVL540
 9444 17f3 B20B0000 		.4byte	0xbb2
 9445 17f7 0D180000 		.4byte	0x180d
 9446 17fb 1B       		.uleb128 0x1b
 9447 17fc 01       		.uleb128 0x1
 9448 17fd 50       		.byte	0x50
 9449 17fe 02       		.uleb128 0x2
 9450 17ff 91       		.byte	0x91
 9451 1800 64       		.sleb128 -28
 9452 1801 1B       		.uleb128 0x1b
 9453 1802 01       		.uleb128 0x1
 9454 1803 51       		.byte	0x51
 9455 1804 02       		.uleb128 0x2
 9456 1805 91       		.byte	0x91
 9457 1806 60       		.sleb128 -32
 9458 1807 1B       		.uleb128 0x1b
 9459 1808 01       		.uleb128 0x1
 9460 1809 52       		.byte	0x52
 9461 180a 01       		.uleb128 0x1
 9462 180b 33       		.byte	0x33
 9463 180c 00       		.byte	0
 9464 180d 1C       		.uleb128 0x1c
 9465 180e 3A000000 		.4byte	.LVL541
 9466 1812 B20B0000 		.4byte	0xbb2
 9467 1816 2D180000 		.4byte	0x182d
 9468 181a 1B       		.uleb128 0x1b
 9469 181b 01       		.uleb128 0x1
 9470 181c 50       		.byte	0x50
 9471 181d 02       		.uleb128 0x2
 9472 181e 91       		.byte	0x91
 9473 181f 64       		.sleb128 -28
 9474 1820 1B       		.uleb128 0x1b
 9475 1821 01       		.uleb128 0x1
 9476 1822 51       		.byte	0x51
ARM GAS  C:\Users\FRANKL~1\AppData\Local\Temp\ccCAoJJX.s 			page 206


 9477 1823 02       		.uleb128 0x2
 9478 1824 91       		.byte	0x91
 9479 1825 60       		.sleb128 -32
 9480 1826 1B       		.uleb128 0x1b
 9481 1827 01       		.uleb128 0x1
 9482 1828 52       		.byte	0x52
 9483 1829 02       		.uleb128 0x2
 9484 182a 75       		.byte	0x75
 9485 182b 00       		.sleb128 0
 9486 182c 00       		.byte	0
 9487 182d 1C       		.uleb128 0x1c
 9488 182e 5E000000 		.4byte	.LVL543
 9489 1832 6D330000 		.4byte	0x336d
 9490 1836 54180000 		.4byte	0x1854
 9491 183a 1B       		.uleb128 0x1b
 9492 183b 01       		.uleb128 0x1
 9493 183c 50       		.byte	0x50
 9494 183d 05       		.uleb128 0x5
 9495 183e 03       		.byte	0x3
 9496 183f 00000000 		.4byte	TransmitBuffer
 9497 1843 1B       		.uleb128 0x1b
 9498 1844 01       		.uleb128 0x1
 9499 1845 51       		.byte	0x51
 9500 1846 05       		.uleb128 0x5
 9501 1847 03       		.byte	0x3
 9502 1848 A8000000 		.4byte	.LC11
 9503 184c 1B       		.uleb128 0x1b
 9504 184d 02       		.uleb128 0x2
 9505 184e 7D       		.byte	0x7d
 9506 184f 00       		.sleb128 0
 9507 1850 02       		.uleb128 0x2
 9508 1851 77       		.byte	0x77
 9509 1852 00       		.sleb128 0
 9510 1853 00       		.byte	0
 9511 1854 12       		.uleb128 0x12
 9512 1855 62000000 		.4byte	.LVL544
 9513 1859 B5050000 		.4byte	0x5b5
 9514 185d 00       		.byte	0
 9515 185e 1C       		.uleb128 0x1c
 9516 185f 12000000 		.4byte	.LVL535
 9517 1863 7E160000 		.4byte	0x167e
 9518 1867 73180000 		.4byte	0x1873
 9519 186b 1B       		.uleb128 0x1b
 9520 186c 01       		.uleb128 0x1
 9521 186d 50       		.byte	0x50
 9522 186e 03       		.uleb128 0x3
 9523 186f F5       		.byte	0xf5
 9524 1870 04       		.uleb128 0x4
 9525 1871 25       		.uleb128 0x25
 9526 1872 00       		.byte	0
 9527 1873 1C       		.uleb128 0x1c
 9528 1874 18000000 		.4byte	.LVL536
 9529 1878 4E160000 		.4byte	0x164e
 9530 187c 88180000 		.4byte	0x1888
 9531 1880 1B       		.uleb128 0x1b
 9532 1881 01       		.uleb128 0x1
 9533 1882 50       		.byte	0x50
ARM GAS  C:\Users\FRANKL~1\AppData\Local\Temp\ccCAoJJX.s 			page 207


 9534 1883 03       		.uleb128 0x3
 9535 1884 F5       		.byte	0xf5
 9536 1885 04       		.uleb128 0x4
 9537 1886 25       		.uleb128 0x25
 9538 1887 00       		.byte	0
 9539 1888 1C       		.uleb128 0x1c
 9540 1889 70000000 		.4byte	.LVL547
 9541 188d 700A0000 		.4byte	0xa70
 9542 1891 9C180000 		.4byte	0x189c
 9543 1895 1B       		.uleb128 0x1b
 9544 1896 01       		.uleb128 0x1
 9545 1897 50       		.byte	0x50
 9546 1898 02       		.uleb128 0x2
 9547 1899 76       		.byte	0x76
 9548 189a 00       		.sleb128 0
 9549 189b 00       		.byte	0
 9550 189c 12       		.uleb128 0x12
 9551 189d 90000000 		.4byte	.LVL550
 9552 18a1 B5050000 		.4byte	0x5b5
 9553 18a5 00       		.byte	0
 9554 18a6 27       		.uleb128 0x27
 9555 18a7 060B0000 		.4byte	.LASF141
 9556 18ab 02       		.byte	0x2
 9557 18ac DD02     		.2byte	0x2dd
 9558 18ae 00000000 		.4byte	.LFB108
 9559 18b2 70000000 		.4byte	.LFE108-.LFB108
 9560 18b6 01       		.uleb128 0x1
 9561 18b7 9C       		.byte	0x9c
 9562 18b8 6C190000 		.4byte	0x196c
 9563 18bc 26       		.uleb128 0x26
 9564 18bd 9B0B0000 		.4byte	.LASF142
 9565 18c1 02       		.byte	0x2
 9566 18c2 DD02     		.2byte	0x2dd
 9567 18c4 C6000000 		.4byte	0xc6
 9568 18c8 A5120000 		.4byte	.LLST122
 9569 18cc 26       		.uleb128 0x26
 9570 18cd 2A0E0000 		.4byte	.LASF143
 9571 18d1 02       		.byte	0x2
 9572 18d2 DD02     		.2byte	0x2dd
 9573 18d4 C6000000 		.4byte	0xc6
 9574 18d8 D1120000 		.4byte	.LLST123
 9575 18dc 26       		.uleb128 0x26
 9576 18dd 3F040000 		.4byte	.LASF144
 9577 18e1 02       		.byte	0x2
 9578 18e2 DD02     		.2byte	0x2dd
 9579 18e4 C6000000 		.4byte	0xc6
 9580 18e8 F2120000 		.4byte	.LLST124
 9581 18ec 16       		.uleb128 0x16
 9582 18ed CB0E0000 		.4byte	.LASF145
 9583 18f1 02       		.byte	0x2
 9584 18f2 DE02     		.2byte	0x2de
 9585 18f4 25000000 		.4byte	0x25
 9586 18f8 02       		.uleb128 0x2
 9587 18f9 91       		.byte	0x91
 9588 18fa 6C       		.sleb128 -20
 9589 18fb 16       		.uleb128 0x16
 9590 18fc 8B0E0000 		.4byte	.LASF146
ARM GAS  C:\Users\FRANKL~1\AppData\Local\Temp\ccCAoJJX.s 			page 208


 9591 1900 02       		.byte	0x2
 9592 1901 DF02     		.2byte	0x2df
 9593 1903 25000000 		.4byte	0x25
 9594 1907 02       		.uleb128 0x2
 9595 1908 91       		.byte	0x91
 9596 1909 68       		.sleb128 -24
 9597 190a 1C       		.uleb128 0x1c
 9598 190b 18000000 		.4byte	.LVL556
 9599 190f F70E0000 		.4byte	0xef7
 9600 1913 30190000 		.4byte	0x1930
 9601 1917 1B       		.uleb128 0x1b
 9602 1918 01       		.uleb128 0x1
 9603 1919 50       		.byte	0x50
 9604 191a 02       		.uleb128 0x2
 9605 191b 91       		.byte	0x91
 9606 191c 6C       		.sleb128 -20
 9607 191d 1B       		.uleb128 0x1b
 9608 191e 01       		.uleb128 0x1
 9609 191f 51       		.byte	0x51
 9610 1920 02       		.uleb128 0x2
 9611 1921 91       		.byte	0x91
 9612 1922 68       		.sleb128 -24
 9613 1923 1B       		.uleb128 0x1b
 9614 1924 01       		.uleb128 0x1
 9615 1925 52       		.byte	0x52
 9616 1926 03       		.uleb128 0x3
 9617 1927 F3       		.byte	0xf3
 9618 1928 01       		.uleb128 0x1
 9619 1929 50       		.byte	0x50
 9620 192a 1B       		.uleb128 0x1b
 9621 192b 01       		.uleb128 0x1
 9622 192c 53       		.byte	0x53
 9623 192d 01       		.uleb128 0x1
 9624 192e 30       		.byte	0x30
 9625 192f 00       		.byte	0
 9626 1930 12       		.uleb128 0x12
 9627 1931 30000000 		.4byte	.LVL559
 9628 1935 8A110000 		.4byte	0x118a
 9629 1939 12       		.uleb128 0x12
 9630 193a 36000000 		.4byte	.LVL560
 9631 193e BC110000 		.4byte	0x11bc
 9632 1942 1C       		.uleb128 0x1c
 9633 1943 54000000 		.4byte	.LVL563
 9634 1947 6D330000 		.4byte	0x336d
 9635 194b 62190000 		.4byte	0x1962
 9636 194f 1B       		.uleb128 0x1b
 9637 1950 01       		.uleb128 0x1
 9638 1951 50       		.byte	0x50
 9639 1952 05       		.uleb128 0x5
 9640 1953 03       		.byte	0x3
 9641 1954 00000000 		.4byte	TransmitBuffer
 9642 1958 1B       		.uleb128 0x1b
 9643 1959 01       		.uleb128 0x1
 9644 195a 51       		.byte	0x51
 9645 195b 05       		.uleb128 0x5
 9646 195c 03       		.byte	0x3
 9647 195d E0000000 		.4byte	.LC13
ARM GAS  C:\Users\FRANKL~1\AppData\Local\Temp\ccCAoJJX.s 			page 209


 9648 1961 00       		.byte	0
 9649 1962 12       		.uleb128 0x12
 9650 1963 58000000 		.4byte	.LVL564
 9651 1967 B5050000 		.4byte	0x5b5
 9652 196b 00       		.byte	0
 9653 196c 14       		.uleb128 0x14
 9654 196d F80C0000 		.4byte	.LASF147
 9655 1971 02       		.byte	0x2
 9656 1972 F302     		.2byte	0x2f3
 9657 1974 00000000 		.4byte	.LFB109
 9658 1978 1A000000 		.4byte	.LFE109-.LFB109
 9659 197c 01       		.uleb128 0x1
 9660 197d 9C       		.byte	0x9c
 9661 197e C3190000 		.4byte	0x19c3
 9662 1982 2C       		.uleb128 0x2c
 9663 1983 6E00     		.ascii	"n\000"
 9664 1985 02       		.byte	0x2
 9665 1986 F302     		.2byte	0x2f3
 9666 1988 C6000000 		.4byte	0xc6
 9667 198c 13130000 		.4byte	.LLST125
 9668 1990 19       		.uleb128 0x19
 9669 1991 04000000 		.4byte	.LBB48
 9670 1995 14000000 		.4byte	.LBE48-.LBB48
 9671 1999 18       		.uleb128 0x18
 9672 199a 6900     		.ascii	"i\000"
 9673 199c 02       		.byte	0x2
 9674 199d F402     		.2byte	0x2f4
 9675 199f C6000000 		.4byte	0xc6
 9676 19a3 31130000 		.4byte	.LLST126
 9677 19a7 1A       		.uleb128 0x1a
 9678 19a8 12000000 		.4byte	.LVL568
 9679 19ac A6180000 		.4byte	0x18a6
 9680 19b0 1B       		.uleb128 0x1b
 9681 19b1 01       		.uleb128 0x1
 9682 19b2 50       		.byte	0x50
 9683 19b3 02       		.uleb128 0x2
 9684 19b4 08       		.byte	0x8
 9685 19b5 64       		.byte	0x64
 9686 19b6 1B       		.uleb128 0x1b
 9687 19b7 01       		.uleb128 0x1
 9688 19b8 51       		.byte	0x51
 9689 19b9 01       		.uleb128 0x1
 9690 19ba 31       		.byte	0x31
 9691 19bb 1B       		.uleb128 0x1b
 9692 19bc 01       		.uleb128 0x1
 9693 19bd 52       		.byte	0x52
 9694 19be 01       		.uleb128 0x1
 9695 19bf 3A       		.byte	0x3a
 9696 19c0 00       		.byte	0
 9697 19c1 00       		.byte	0
 9698 19c2 00       		.byte	0
 9699 19c3 2B       		.uleb128 0x2b
 9700 19c4 7F040000 		.4byte	.LASF148
 9701 19c8 02       		.byte	0x2
 9702 19c9 FA02     		.2byte	0x2fa
 9703 19cb 00000000 		.4byte	.LFB110
 9704 19cf 2C000000 		.4byte	.LFE110-.LFB110
ARM GAS  C:\Users\FRANKL~1\AppData\Local\Temp\ccCAoJJX.s 			page 210


 9705 19d3 01       		.uleb128 0x1
 9706 19d4 9C       		.byte	0x9c
 9707 19d5 4A1A0000 		.4byte	0x1a4a
 9708 19d9 15       		.uleb128 0x15
 9709 19da 0E000000 		.4byte	.LBB49
 9710 19de 1C000000 		.4byte	.LBE49-.LBB49
 9711 19e2 251A0000 		.4byte	0x1a25
 9712 19e6 17       		.uleb128 0x17
 9713 19e7 DD000000 		.4byte	.LASF149
 9714 19eb 02       		.byte	0x2
 9715 19ec FE02     		.2byte	0x2fe
 9716 19ee BA000000 		.4byte	0xba
 9717 19f2 50130000 		.4byte	.LLST127
 9718 19f6 1C       		.uleb128 0x1c
 9719 19f7 18000000 		.4byte	.LVL573
 9720 19fb 28340000 		.4byte	0x3428
 9721 19ff 0A1A0000 		.4byte	0x1a0a
 9722 1a03 1B       		.uleb128 0x1b
 9723 1a04 01       		.uleb128 0x1
 9724 1a05 50       		.byte	0x50
 9725 1a06 02       		.uleb128 0x2
 9726 1a07 74       		.byte	0x74
 9727 1a08 00       		.sleb128 0
 9728 1a09 00       		.byte	0
 9729 1a0a 1A       		.uleb128 0x1a
 9730 1a0b 22000000 		.4byte	.LVL574
 9731 1a0f A6180000 		.4byte	0x18a6
 9732 1a13 1B       		.uleb128 0x1b
 9733 1a14 01       		.uleb128 0x1
 9734 1a15 50       		.byte	0x50
 9735 1a16 02       		.uleb128 0x2
 9736 1a17 08       		.byte	0x8
 9737 1a18 64       		.byte	0x64
 9738 1a19 1B       		.uleb128 0x1b
 9739 1a1a 01       		.uleb128 0x1
 9740 1a1b 51       		.byte	0x51
 9741 1a1c 01       		.uleb128 0x1
 9742 1a1d 31       		.byte	0x31
 9743 1a1e 1B       		.uleb128 0x1b
 9744 1a1f 01       		.uleb128 0x1
 9745 1a20 52       		.byte	0x52
 9746 1a21 01       		.uleb128 0x1
 9747 1a22 31       		.byte	0x31
 9748 1a23 00       		.byte	0
 9749 1a24 00       		.byte	0
 9750 1a25 1C       		.uleb128 0x1c
 9751 1a26 08000000 		.4byte	.LVL570
 9752 1a2a 1D340000 		.4byte	0x341d
 9753 1a2e 391A0000 		.4byte	0x1a39
 9754 1a32 1B       		.uleb128 0x1b
 9755 1a33 01       		.uleb128 0x1
 9756 1a34 50       		.byte	0x50
 9757 1a35 02       		.uleb128 0x2
 9758 1a36 08       		.byte	0x8
 9759 1a37 5A       		.byte	0x5a
 9760 1a38 00       		.byte	0
 9761 1a39 1A       		.uleb128 0x1a
ARM GAS  C:\Users\FRANKL~1\AppData\Local\Temp\ccCAoJJX.s 			page 211


 9762 1a3a 0E000000 		.4byte	.LVL571
 9763 1a3e 28340000 		.4byte	0x3428
 9764 1a42 1B       		.uleb128 0x1b
 9765 1a43 01       		.uleb128 0x1
 9766 1a44 50       		.byte	0x50
 9767 1a45 02       		.uleb128 0x2
 9768 1a46 09       		.byte	0x9
 9769 1a47 FE       		.byte	0xfe
 9770 1a48 00       		.byte	0
 9771 1a49 00       		.byte	0
 9772 1a4a 14       		.uleb128 0x14
 9773 1a4b 51060000 		.4byte	.LASF150
 9774 1a4f 02       		.byte	0x2
 9775 1a50 0403     		.2byte	0x304
 9776 1a52 00000000 		.4byte	.LFB111
 9777 1a56 AC000000 		.4byte	.LFE111-.LFB111
 9778 1a5a 01       		.uleb128 0x1
 9779 1a5b 9C       		.byte	0x9c
 9780 1a5c 4F1B0000 		.4byte	0x1b4f
 9781 1a60 26       		.uleb128 0x26
 9782 1a61 780A0000 		.4byte	.LASF151
 9783 1a65 02       		.byte	0x2
 9784 1a66 0403     		.2byte	0x304
 9785 1a68 AE000000 		.4byte	0xae
 9786 1a6c 7A130000 		.4byte	.LLST128
 9787 1a70 2D       		.uleb128 0x2d
 9788 1a71 320F0000 		.4byte	.LASF154
 9789 1a75 02       		.byte	0x2
 9790 1a76 0C03     		.2byte	0x30c
 9791 1a78 D2000000 		.4byte	0xd2
 9792 1a7c 1F       		.uleb128 0x1f
 9793 1a7d F0000000 		.4byte	.Ldebug_ranges0+0xf0
 9794 1a81 351B0000 		.4byte	0x1b35
 9795 1a85 18       		.uleb128 0x18
 9796 1a86 6C00     		.ascii	"l\000"
 9797 1a88 02       		.byte	0x2
 9798 1a89 0E03     		.2byte	0x30e
 9799 1a8b AE000000 		.4byte	0xae
 9800 1a8f B4130000 		.4byte	.LLST129
 9801 1a93 28       		.uleb128 0x28
 9802 1a94 08010000 		.4byte	.Ldebug_ranges0+0x108
 9803 1a98 17       		.uleb128 0x17
 9804 1a99 C7000000 		.4byte	.LASF152
 9805 1a9d 02       		.byte	0x2
 9806 1a9e 0F03     		.2byte	0x30f
 9807 1aa0 D2000000 		.4byte	0xd2
 9808 1aa4 D2130000 		.4byte	.LLST130
 9809 1aa8 17       		.uleb128 0x17
 9810 1aa9 D0010000 		.4byte	.LASF111
 9811 1aad 02       		.byte	0x2
 9812 1aae 1003     		.2byte	0x310
 9813 1ab0 AE000000 		.4byte	0xae
 9814 1ab4 F1130000 		.4byte	.LLST131
 9815 1ab8 17       		.uleb128 0x17
 9816 1ab9 3C060000 		.4byte	.LASF112
 9817 1abd 02       		.byte	0x2
 9818 1abe 1503     		.2byte	0x315
ARM GAS  C:\Users\FRANKL~1\AppData\Local\Temp\ccCAoJJX.s 			page 212


 9819 1ac0 AE000000 		.4byte	0xae
 9820 1ac4 32140000 		.4byte	.LLST132
 9821 1ac8 28       		.uleb128 0x28
 9822 1ac9 20010000 		.4byte	.Ldebug_ranges0+0x120
 9823 1acd 18       		.uleb128 0x18
 9824 1ace 6900     		.ascii	"i\000"
 9825 1ad0 02       		.byte	0x2
 9826 1ad1 1D03     		.2byte	0x31d
 9827 1ad3 AE000000 		.4byte	0xae
 9828 1ad7 52140000 		.4byte	.LLST133
 9829 1adb 28       		.uleb128 0x28
 9830 1adc 38010000 		.4byte	.Ldebug_ranges0+0x138
 9831 1ae0 18       		.uleb128 0x18
 9832 1ae1 6A00     		.ascii	"j\000"
 9833 1ae3 02       		.byte	0x2
 9834 1ae4 1E03     		.2byte	0x31e
 9835 1ae6 AE000000 		.4byte	0xae
 9836 1aea 70140000 		.4byte	.LLST134
 9837 1aee 1C       		.uleb128 0x1c
 9838 1aef 5C000000 		.4byte	.LVL590
 9839 1af3 94130000 		.4byte	0x1394
 9840 1af7 031B0000 		.4byte	0x1b03
 9841 1afb 1B       		.uleb128 0x1b
 9842 1afc 01       		.uleb128 0x1
 9843 1afd 50       		.byte	0x50
 9844 1afe 03       		.uleb128 0x3
 9845 1aff 75       		.byte	0x75
 9846 1b00 00       		.sleb128 0
 9847 1b01 20       		.byte	0x20
 9848 1b02 00       		.byte	0
 9849 1b03 1C       		.uleb128 0x1c
 9850 1b04 62000000 		.4byte	.LVL591
 9851 1b08 C1120000 		.4byte	0x12c1
 9852 1b0c 171B0000 		.4byte	0x1b17
 9853 1b10 1B       		.uleb128 0x1b
 9854 1b11 01       		.uleb128 0x1
 9855 1b12 50       		.byte	0x50
 9856 1b13 02       		.uleb128 0x2
 9857 1b14 75       		.byte	0x75
 9858 1b15 00       		.sleb128 0
 9859 1b16 00       		.byte	0
 9860 1b17 1A       		.uleb128 0x1a
 9861 1b18 6C000000 		.4byte	.LVL592
 9862 1b1c A6180000 		.4byte	0x18a6
 9863 1b20 1B       		.uleb128 0x1b
 9864 1b21 01       		.uleb128 0x1
 9865 1b22 50       		.byte	0x50
 9866 1b23 02       		.uleb128 0x2
 9867 1b24 08       		.byte	0x8
 9868 1b25 21       		.byte	0x21
 9869 1b26 1B       		.uleb128 0x1b
 9870 1b27 01       		.uleb128 0x1
 9871 1b28 51       		.byte	0x51
 9872 1b29 01       		.uleb128 0x1
 9873 1b2a 31       		.byte	0x31
 9874 1b2b 1B       		.uleb128 0x1b
 9875 1b2c 01       		.uleb128 0x1
ARM GAS  C:\Users\FRANKL~1\AppData\Local\Temp\ccCAoJJX.s 			page 213


 9876 1b2d 52       		.byte	0x52
 9877 1b2e 01       		.uleb128 0x1
 9878 1b2f 31       		.byte	0x31
 9879 1b30 00       		.byte	0
 9880 1b31 00       		.byte	0
 9881 1b32 00       		.byte	0
 9882 1b33 00       		.byte	0
 9883 1b34 00       		.byte	0
 9884 1b35 12       		.uleb128 0x12
 9885 1b36 1A000000 		.4byte	.LVL579
 9886 1b3a 94130000 		.4byte	0x1394
 9887 1b3e 1A       		.uleb128 0x1a
 9888 1b3f 26000000 		.4byte	.LVL582
 9889 1b43 94130000 		.4byte	0x1394
 9890 1b47 1B       		.uleb128 0x1b
 9891 1b48 01       		.uleb128 0x1
 9892 1b49 50       		.byte	0x50
 9893 1b4a 02       		.uleb128 0x2
 9894 1b4b 09       		.byte	0x9
 9895 1b4c FE       		.byte	0xfe
 9896 1b4d 00       		.byte	0
 9897 1b4e 00       		.byte	0
 9898 1b4f 14       		.uleb128 0x14
 9899 1b50 2D0B0000 		.4byte	.LASF153
 9900 1b54 02       		.byte	0x2
 9901 1b55 2B03     		.2byte	0x32b
 9902 1b57 00000000 		.4byte	.LFB112
 9903 1b5b 84000000 		.4byte	.LFE112-.LFB112
 9904 1b5f 01       		.uleb128 0x1
 9905 1b60 9C       		.byte	0x9c
 9906 1b61 581C0000 		.4byte	0x1c58
 9907 1b65 26       		.uleb128 0x26
 9908 1b66 780A0000 		.4byte	.LASF151
 9909 1b6a 02       		.byte	0x2
 9910 1b6b 2B03     		.2byte	0x32b
 9911 1b6d AE000000 		.4byte	0xae
 9912 1b71 99140000 		.4byte	.LLST135
 9913 1b75 2E       		.uleb128 0x2e
 9914 1b76 320F0000 		.4byte	.LASF154
 9915 1b7a 02       		.byte	0x2
 9916 1b7b 2E03     		.2byte	0x32e
 9917 1b7d D2000000 		.4byte	0xd2
 9918 1b81 10       		.byte	0x10
 9919 1b82 15       		.uleb128 0x15
 9920 1b83 0C000000 		.4byte	.LBB58
 9921 1b87 6E000000 		.4byte	.LBE58-.LBB58
 9922 1b8b 471C0000 		.4byte	0x1c47
 9923 1b8f 18       		.uleb128 0x18
 9924 1b90 6C00     		.ascii	"l\000"
 9925 1b92 02       		.byte	0x2
 9926 1b93 3003     		.2byte	0x330
 9927 1b95 AE000000 		.4byte	0xae
 9928 1b99 BA140000 		.4byte	.LLST136
 9929 1b9d 19       		.uleb128 0x19
 9930 1b9e 12000000 		.4byte	.LBB59
 9931 1ba2 5C000000 		.4byte	.LBE59-.LBB59
 9932 1ba6 17       		.uleb128 0x17
ARM GAS  C:\Users\FRANKL~1\AppData\Local\Temp\ccCAoJJX.s 			page 214


 9933 1ba7 C7000000 		.4byte	.LASF152
 9934 1bab 02       		.byte	0x2
 9935 1bac 3103     		.2byte	0x331
 9936 1bae D2000000 		.4byte	0xd2
 9937 1bb2 E4140000 		.4byte	.LLST137
 9938 1bb6 17       		.uleb128 0x17
 9939 1bb7 D0010000 		.4byte	.LASF111
 9940 1bbb 02       		.byte	0x2
 9941 1bbc 3203     		.2byte	0x332
 9942 1bbe AE000000 		.4byte	0xae
 9943 1bc2 03150000 		.4byte	.LLST138
 9944 1bc6 17       		.uleb128 0x17
 9945 1bc7 3C060000 		.4byte	.LASF112
 9946 1bcb 02       		.byte	0x2
 9947 1bcc 3303     		.2byte	0x333
 9948 1bce AE000000 		.4byte	0xae
 9949 1bd2 22150000 		.4byte	.LLST139
 9950 1bd6 19       		.uleb128 0x19
 9951 1bd7 28000000 		.4byte	.LBB60
 9952 1bdb 46000000 		.4byte	.LBE60-.LBB60
 9953 1bdf 18       		.uleb128 0x18
 9954 1be0 6900     		.ascii	"i\000"
 9955 1be2 02       		.byte	0x2
 9956 1be3 3B03     		.2byte	0x33b
 9957 1be5 AE000000 		.4byte	0xae
 9958 1be9 42150000 		.4byte	.LLST140
 9959 1bed 28       		.uleb128 0x28
 9960 1bee 50010000 		.4byte	.Ldebug_ranges0+0x150
 9961 1bf2 18       		.uleb128 0x18
 9962 1bf3 6A00     		.ascii	"j\000"
 9963 1bf5 02       		.byte	0x2
 9964 1bf6 3C03     		.2byte	0x33c
 9965 1bf8 AE000000 		.4byte	0xae
 9966 1bfc 60150000 		.4byte	.LLST141
 9967 1c00 1C       		.uleb128 0x1c
 9968 1c01 36000000 		.4byte	.LVL608
 9969 1c05 94130000 		.4byte	0x1394
 9970 1c09 151C0000 		.4byte	0x1c15
 9971 1c0d 1B       		.uleb128 0x1b
 9972 1c0e 01       		.uleb128 0x1
 9973 1c0f 50       		.byte	0x50
 9974 1c10 03       		.uleb128 0x3
 9975 1c11 75       		.byte	0x75
 9976 1c12 00       		.sleb128 0
 9977 1c13 20       		.byte	0x20
 9978 1c14 00       		.byte	0
 9979 1c15 1C       		.uleb128 0x1c
 9980 1c16 3C000000 		.4byte	.LVL609
 9981 1c1a C1120000 		.4byte	0x12c1
 9982 1c1e 291C0000 		.4byte	0x1c29
 9983 1c22 1B       		.uleb128 0x1b
 9984 1c23 01       		.uleb128 0x1
 9985 1c24 50       		.byte	0x50
 9986 1c25 02       		.uleb128 0x2
 9987 1c26 75       		.byte	0x75
 9988 1c27 00       		.sleb128 0
 9989 1c28 00       		.byte	0
ARM GAS  C:\Users\FRANKL~1\AppData\Local\Temp\ccCAoJJX.s 			page 215


 9990 1c29 1A       		.uleb128 0x1a
 9991 1c2a 46000000 		.4byte	.LVL610
 9992 1c2e A6180000 		.4byte	0x18a6
 9993 1c32 1B       		.uleb128 0x1b
 9994 1c33 01       		.uleb128 0x1
 9995 1c34 50       		.byte	0x50
 9996 1c35 02       		.uleb128 0x2
 9997 1c36 08       		.byte	0x8
 9998 1c37 21       		.byte	0x21
 9999 1c38 1B       		.uleb128 0x1b
 10000 1c39 01       		.uleb128 0x1
 10001 1c3a 51       		.byte	0x51
 10002 1c3b 01       		.uleb128 0x1
 10003 1c3c 31       		.byte	0x31
 10004 1c3d 1B       		.uleb128 0x1b
 10005 1c3e 01       		.uleb128 0x1
 10006 1c3f 52       		.byte	0x52
 10007 1c40 01       		.uleb128 0x1
 10008 1c41 31       		.byte	0x31
 10009 1c42 00       		.byte	0
 10010 1c43 00       		.byte	0
 10011 1c44 00       		.byte	0
 10012 1c45 00       		.byte	0
 10013 1c46 00       		.byte	0
 10014 1c47 1A       		.uleb128 0x1a
 10015 1c48 0C000000 		.4byte	.LVL604
 10016 1c4c 94130000 		.4byte	0x1394
 10017 1c50 1B       		.uleb128 0x1b
 10018 1c51 01       		.uleb128 0x1
 10019 1c52 50       		.byte	0x50
 10020 1c53 02       		.uleb128 0x2
 10021 1c54 09       		.byte	0x9
 10022 1c55 FE       		.byte	0xfe
 10023 1c56 00       		.byte	0
 10024 1c57 00       		.byte	0
 10025 1c58 2B       		.uleb128 0x2b
 10026 1c59 D3070000 		.4byte	.LASF155
 10027 1c5d 02       		.byte	0x2
 10028 1c5e 4A03     		.2byte	0x34a
 10029 1c60 00000000 		.4byte	.LFB113
 10030 1c64 98000000 		.4byte	.LFE113-.LFB113
 10031 1c68 01       		.uleb128 0x1
 10032 1c69 9C       		.byte	0x9c
 10033 1c6a 4F1D0000 		.4byte	0x1d4f
 10034 1c6e 17       		.uleb128 0x17
 10035 1c6f 030E0000 		.4byte	.LASF156
 10036 1c73 02       		.byte	0x2
 10037 1c74 4B03     		.2byte	0x34b
 10038 1c76 AE000000 		.4byte	0xae
 10039 1c7a 89150000 		.4byte	.LLST142
 10040 1c7e 2E       		.uleb128 0x2e
 10041 1c7f AA0D0000 		.4byte	.LASF157
 10042 1c83 02       		.byte	0x2
 10043 1c84 4C03     		.2byte	0x34c
 10044 1c86 D2000000 		.4byte	0xd2
 10045 1c8a 01       		.byte	0x1
 10046 1c8b 2E       		.uleb128 0x2e
ARM GAS  C:\Users\FRANKL~1\AppData\Local\Temp\ccCAoJJX.s 			page 216


 10047 1c8c 980F0000 		.4byte	.LASF158
 10048 1c90 02       		.byte	0x2
 10049 1c91 4D03     		.2byte	0x34d
 10050 1c93 AE000000 		.4byte	0xae
 10051 1c97 00       		.byte	0
 10052 1c98 2E       		.uleb128 0x2e
 10053 1c99 10090000 		.4byte	.LASF159
 10054 1c9d 02       		.byte	0x2
 10055 1c9e 4E03     		.2byte	0x34e
 10056 1ca0 AE000000 		.4byte	0xae
 10057 1ca4 00       		.byte	0
 10058 1ca5 17       		.uleb128 0x17
 10059 1ca6 8D040000 		.4byte	.LASF160
 10060 1caa 02       		.byte	0x2
 10061 1cab 4F03     		.2byte	0x34f
 10062 1cad AE000000 		.4byte	0xae
 10063 1cb1 BE150000 		.4byte	.LLST143
 10064 1cb5 17       		.uleb128 0x17
 10065 1cb6 2E020000 		.4byte	.LASF161
 10066 1cba 02       		.byte	0x2
 10067 1cbb 5003     		.2byte	0x350
 10068 1cbd AE000000 		.4byte	0xae
 10069 1cc1 E8150000 		.4byte	.LLST144
 10070 1cc5 2E       		.uleb128 0x2e
 10071 1cc6 AF060000 		.4byte	.LASF162
 10072 1cca 02       		.byte	0x2
 10073 1ccb 5203     		.2byte	0x352
 10074 1ccd D2000000 		.4byte	0xd2
 10075 1cd1 01       		.byte	0x1
 10076 1cd2 2E       		.uleb128 0x2e
 10077 1cd3 AA090000 		.4byte	.LASF163
 10078 1cd7 02       		.byte	0x2
 10079 1cd8 5303     		.2byte	0x353
 10080 1cda AE000000 		.4byte	0xae
 10081 1cde 00       		.byte	0
 10082 1cdf 2E       		.uleb128 0x2e
 10083 1ce0 5A0E0000 		.4byte	.LASF164
 10084 1ce4 02       		.byte	0x2
 10085 1ce5 5403     		.2byte	0x354
 10086 1ce7 AE000000 		.4byte	0xae
 10087 1ceb 00       		.byte	0
 10088 1cec 17       		.uleb128 0x17
 10089 1ced 37010000 		.4byte	.LASF165
 10090 1cf1 02       		.byte	0x2
 10091 1cf2 5503     		.2byte	0x355
 10092 1cf4 AE000000 		.4byte	0xae
 10093 1cf8 12160000 		.4byte	.LLST145
 10094 1cfc 17       		.uleb128 0x17
 10095 1cfd C20C0000 		.4byte	.LASF166
 10096 1d01 02       		.byte	0x2
 10097 1d02 5603     		.2byte	0x356
 10098 1d04 AE000000 		.4byte	0xae
 10099 1d08 3C160000 		.4byte	.LLST146
 10100 1d0c 1C       		.uleb128 0x1c
 10101 1d0d 52000000 		.4byte	.LVL627
 10102 1d11 94130000 		.4byte	0x1394
 10103 1d15 201D0000 		.4byte	0x1d20
ARM GAS  C:\Users\FRANKL~1\AppData\Local\Temp\ccCAoJJX.s 			page 217


 10104 1d19 1B       		.uleb128 0x1b
 10105 1d1a 01       		.uleb128 0x1
 10106 1d1b 50       		.byte	0x50
 10107 1d1c 02       		.uleb128 0x2
 10108 1d1d 75       		.byte	0x75
 10109 1d1e 00       		.sleb128 0
 10110 1d1f 00       		.byte	0
 10111 1d20 1C       		.uleb128 0x1c
 10112 1d21 58000000 		.4byte	.LVL628
 10113 1d25 C1120000 		.4byte	0x12c1
 10114 1d29 341D0000 		.4byte	0x1d34
 10115 1d2d 1B       		.uleb128 0x1b
 10116 1d2e 01       		.uleb128 0x1
 10117 1d2f 50       		.byte	0x50
 10118 1d30 02       		.uleb128 0x2
 10119 1d31 76       		.byte	0x76
 10120 1d32 00       		.sleb128 0
 10121 1d33 00       		.byte	0
 10122 1d34 1A       		.uleb128 0x1a
 10123 1d35 62000000 		.4byte	.LVL629
 10124 1d39 A6180000 		.4byte	0x18a6
 10125 1d3d 1B       		.uleb128 0x1b
 10126 1d3e 01       		.uleb128 0x1
 10127 1d3f 50       		.byte	0x50
 10128 1d40 02       		.uleb128 0x2
 10129 1d41 08       		.byte	0x8
 10130 1d42 64       		.byte	0x64
 10131 1d43 1B       		.uleb128 0x1b
 10132 1d44 01       		.uleb128 0x1
 10133 1d45 51       		.byte	0x51
 10134 1d46 01       		.uleb128 0x1
 10135 1d47 31       		.byte	0x31
 10136 1d48 1B       		.uleb128 0x1b
 10137 1d49 01       		.uleb128 0x1
 10138 1d4a 52       		.byte	0x52
 10139 1d4b 01       		.uleb128 0x1
 10140 1d4c 31       		.byte	0x31
 10141 1d4d 00       		.byte	0
 10142 1d4e 00       		.byte	0
 10143 1d4f 14       		.uleb128 0x14
 10144 1d50 9C020000 		.4byte	.LASF167
 10145 1d54 02       		.byte	0x2
 10146 1d55 7203     		.2byte	0x372
 10147 1d57 00000000 		.4byte	.LFB114
 10148 1d5b 7C000000 		.4byte	.LFE114-.LFB114
 10149 1d5f 01       		.uleb128 0x1
 10150 1d60 9C       		.byte	0x9c
 10151 1d61 8A1E0000 		.4byte	0x1e8a
 10152 1d65 26       		.uleb128 0x26
 10153 1d66 7C0F0000 		.4byte	.LASF168
 10154 1d6a 02       		.byte	0x2
 10155 1d6b 7203     		.2byte	0x372
 10156 1d6d AE000000 		.4byte	0xae
 10157 1d71 66160000 		.4byte	.LLST147
 10158 1d75 26       		.uleb128 0x26
 10159 1d76 780A0000 		.4byte	.LASF151
 10160 1d7a 02       		.byte	0x2
ARM GAS  C:\Users\FRANKL~1\AppData\Local\Temp\ccCAoJJX.s 			page 218


 10161 1d7b 7203     		.2byte	0x372
 10162 1d7d AE000000 		.4byte	0xae
 10163 1d81 87160000 		.4byte	.LLST148
 10164 1d85 19       		.uleb128 0x19
 10165 1d86 06000000 		.4byte	.LBB63
 10166 1d8a 76000000 		.4byte	.LBE63-.LBB63
 10167 1d8e 17       		.uleb128 0x17
 10168 1d8f 7D0A0000 		.4byte	.LASF169
 10169 1d93 02       		.byte	0x2
 10170 1d94 7303     		.2byte	0x373
 10171 1d96 AE000000 		.4byte	0xae
 10172 1d9a A8160000 		.4byte	.LLST149
 10173 1d9e 19       		.uleb128 0x19
 10174 1d9f 0A000000 		.4byte	.LBB64
 10175 1da3 5C000000 		.4byte	.LBE64-.LBB64
 10176 1da7 17       		.uleb128 0x17
 10177 1da8 120E0000 		.4byte	.LASF170
 10178 1dac 02       		.byte	0x2
 10179 1dad 7403     		.2byte	0x374
 10180 1daf AE000000 		.4byte	0xae
 10181 1db3 C7160000 		.4byte	.LLST150
 10182 1db7 17       		.uleb128 0x17
 10183 1db8 1B0E0000 		.4byte	.LASF171
 10184 1dbc 02       		.byte	0x2
 10185 1dbd 7503     		.2byte	0x375
 10186 1dbf AE000000 		.4byte	0xae
 10187 1dc3 DA160000 		.4byte	.LLST151
 10188 1dc7 17       		.uleb128 0x17
 10189 1dc8 E00E0000 		.4byte	.LASF172
 10190 1dcc 02       		.byte	0x2
 10191 1dcd 7603     		.2byte	0x376
 10192 1dcf AE000000 		.4byte	0xae
 10193 1dd3 ED160000 		.4byte	.LLST152
 10194 1dd7 17       		.uleb128 0x17
 10195 1dd8 EE0E0000 		.4byte	.LASF173
 10196 1ddc 02       		.byte	0x2
 10197 1ddd 7703     		.2byte	0x377
 10198 1ddf AE000000 		.4byte	0xae
 10199 1de3 01170000 		.4byte	.LLST153
 10200 1de7 12       		.uleb128 0x12
 10201 1de8 12000000 		.4byte	.LVL641
 10202 1dec 0B090000 		.4byte	0x90b
 10203 1df0 12       		.uleb128 0x12
 10204 1df1 16000000 		.4byte	.LVL642
 10205 1df5 0C170000 		.4byte	0x170c
 10206 1df9 12       		.uleb128 0x12
 10207 1dfa 1A000000 		.4byte	.LVL643
 10208 1dfe 330A0000 		.4byte	0xa33
 10209 1e02 1C       		.uleb128 0x1c
 10210 1e03 22000000 		.4byte	.LVL644
 10211 1e07 0C080000 		.4byte	0x80c
 10212 1e0b 1B1E0000 		.4byte	0x1e1b
 10213 1e0f 1B       		.uleb128 0x1b
 10214 1e10 01       		.uleb128 0x1
 10215 1e11 50       		.byte	0x50
 10216 1e12 02       		.uleb128 0x2
 10217 1e13 74       		.byte	0x74
ARM GAS  C:\Users\FRANKL~1\AppData\Local\Temp\ccCAoJJX.s 			page 219


 10218 1e14 00       		.sleb128 0
 10219 1e15 1B       		.uleb128 0x1b
 10220 1e16 01       		.uleb128 0x1
 10221 1e17 51       		.byte	0x51
 10222 1e18 01       		.uleb128 0x1
 10223 1e19 31       		.byte	0x31
 10224 1e1a 00       		.byte	0
 10225 1e1b 1C       		.uleb128 0x1c
 10226 1e1c 2A000000 		.4byte	.LVL645
 10227 1e20 0C080000 		.4byte	0x80c
 10228 1e24 341E0000 		.4byte	0x1e34
 10229 1e28 1B       		.uleb128 0x1b
 10230 1e29 01       		.uleb128 0x1
 10231 1e2a 50       		.byte	0x50
 10232 1e2b 02       		.uleb128 0x2
 10233 1e2c 75       		.byte	0x75
 10234 1e2d 00       		.sleb128 0
 10235 1e2e 1B       		.uleb128 0x1b
 10236 1e2f 01       		.uleb128 0x1
 10237 1e30 51       		.byte	0x51
 10238 1e31 01       		.uleb128 0x1
 10239 1e32 32       		.byte	0x32
 10240 1e33 00       		.byte	0
 10241 1e34 1C       		.uleb128 0x1c
 10242 1e35 34000000 		.4byte	.LVL646
 10243 1e39 6D330000 		.4byte	0x336d
 10244 1e3d 5A1E0000 		.4byte	0x1e5a
 10245 1e41 1B       		.uleb128 0x1b
 10246 1e42 01       		.uleb128 0x1
 10247 1e43 50       		.byte	0x50
 10248 1e44 05       		.uleb128 0x5
 10249 1e45 03       		.byte	0x3
 10250 1e46 00000000 		.4byte	TransmitBuffer
 10251 1e4a 1B       		.uleb128 0x1b
 10252 1e4b 01       		.uleb128 0x1
 10253 1e4c 51       		.byte	0x51
 10254 1e4d 05       		.uleb128 0x5
 10255 1e4e 03       		.byte	0x3
 10256 1e4f EC000000 		.4byte	.LC14
 10257 1e53 1B       		.uleb128 0x1b
 10258 1e54 01       		.uleb128 0x1
 10259 1e55 52       		.byte	0x52
 10260 1e56 02       		.uleb128 0x2
 10261 1e57 74       		.byte	0x74
 10262 1e58 00       		.sleb128 0
 10263 1e59 00       		.byte	0
 10264 1e5a 12       		.uleb128 0x12
 10265 1e5b 38000000 		.4byte	.LVL647
 10266 1e5f B5050000 		.4byte	0x5b5
 10267 1e63 1C       		.uleb128 0x1c
 10268 1e64 40000000 		.4byte	.LVL648
 10269 1e68 4F1B0000 		.4byte	0x1b4f
 10270 1e6c 771E0000 		.4byte	0x1e77
 10271 1e70 1B       		.uleb128 0x1b
 10272 1e71 01       		.uleb128 0x1
 10273 1e72 50       		.byte	0x50
 10274 1e73 02       		.uleb128 0x2
ARM GAS  C:\Users\FRANKL~1\AppData\Local\Temp\ccCAoJJX.s 			page 220


 10275 1e74 77       		.byte	0x77
 10276 1e75 00       		.sleb128 0
 10277 1e76 00       		.byte	0
 10278 1e77 1A       		.uleb128 0x1a
 10279 1e78 48000000 		.4byte	.LVL649
 10280 1e7c 4A1A0000 		.4byte	0x1a4a
 10281 1e80 1B       		.uleb128 0x1b
 10282 1e81 01       		.uleb128 0x1
 10283 1e82 50       		.byte	0x50
 10284 1e83 02       		.uleb128 0x2
 10285 1e84 77       		.byte	0x77
 10286 1e85 00       		.sleb128 0
 10287 1e86 00       		.byte	0
 10288 1e87 00       		.byte	0
 10289 1e88 00       		.byte	0
 10290 1e89 00       		.byte	0
 10291 1e8a 14       		.uleb128 0x14
 10292 1e8b 900B0000 		.4byte	.LASF174
 10293 1e8f 02       		.byte	0x2
 10294 1e90 8D03     		.2byte	0x38d
 10295 1e92 00000000 		.4byte	.LFB115
 10296 1e96 8C000000 		.4byte	.LFE115-.LFB115
 10297 1e9a 01       		.uleb128 0x1
 10298 1e9b 9C       		.byte	0x9c
 10299 1e9c E51F0000 		.4byte	0x1fe5
 10300 1ea0 26       		.uleb128 0x26
 10301 1ea1 620B0000 		.4byte	.LASF175
 10302 1ea5 02       		.byte	0x2
 10303 1ea6 8D03     		.2byte	0x38d
 10304 1ea8 AE000000 		.4byte	0xae
 10305 1eac 15170000 		.4byte	.LLST154
 10306 1eb0 26       		.uleb128 0x26
 10307 1eb1 1D0B0000 		.4byte	.LASF176
 10308 1eb5 02       		.byte	0x2
 10309 1eb6 8D03     		.2byte	0x38d
 10310 1eb8 AE000000 		.4byte	0xae
 10311 1ebc 41170000 		.4byte	.LLST155
 10312 1ec0 26       		.uleb128 0x26
 10313 1ec1 7C0F0000 		.4byte	.LASF168
 10314 1ec5 02       		.byte	0x2
 10315 1ec6 8D03     		.2byte	0x38d
 10316 1ec8 AE000000 		.4byte	0xae
 10317 1ecc 6D170000 		.4byte	.LLST156
 10318 1ed0 26       		.uleb128 0x26
 10319 1ed1 780A0000 		.4byte	.LASF151
 10320 1ed5 02       		.byte	0x2
 10321 1ed6 8D03     		.2byte	0x38d
 10322 1ed8 AE000000 		.4byte	0xae
 10323 1edc 99170000 		.4byte	.LLST157
 10324 1ee0 19       		.uleb128 0x19
 10325 1ee1 18000000 		.4byte	.LBB65
 10326 1ee5 74000000 		.4byte	.LBE65-.LBB65
 10327 1ee9 17       		.uleb128 0x17
 10328 1eea 7D0A0000 		.4byte	.LASF169
 10329 1eee 02       		.byte	0x2
 10330 1eef 9103     		.2byte	0x391
 10331 1ef1 AE000000 		.4byte	0xae
ARM GAS  C:\Users\FRANKL~1\AppData\Local\Temp\ccCAoJJX.s 			page 221


 10332 1ef5 C5170000 		.4byte	.LLST158
 10333 1ef9 19       		.uleb128 0x19
 10334 1efa 18000000 		.4byte	.LBB66
 10335 1efe 5C000000 		.4byte	.LBE66-.LBB66
 10336 1f02 17       		.uleb128 0x17
 10337 1f03 120E0000 		.4byte	.LASF170
 10338 1f07 02       		.byte	0x2
 10339 1f08 9203     		.2byte	0x392
 10340 1f0a AE000000 		.4byte	0xae
 10341 1f0e D8170000 		.4byte	.LLST159
 10342 1f12 17       		.uleb128 0x17
 10343 1f13 1B0E0000 		.4byte	.LASF171
 10344 1f17 02       		.byte	0x2
 10345 1f18 9303     		.2byte	0x393
 10346 1f1a AE000000 		.4byte	0xae
 10347 1f1e EB170000 		.4byte	.LLST160
 10348 1f22 17       		.uleb128 0x17
 10349 1f23 E00E0000 		.4byte	.LASF172
 10350 1f27 02       		.byte	0x2
 10351 1f28 9403     		.2byte	0x394
 10352 1f2a AE000000 		.4byte	0xae
 10353 1f2e FE170000 		.4byte	.LLST161
 10354 1f32 17       		.uleb128 0x17
 10355 1f33 EE0E0000 		.4byte	.LASF173
 10356 1f37 02       		.byte	0x2
 10357 1f38 9503     		.2byte	0x395
 10358 1f3a AE000000 		.4byte	0xae
 10359 1f3e 12180000 		.4byte	.LLST162
 10360 1f42 12       		.uleb128 0x12
 10361 1f43 20000000 		.4byte	.LVL655
 10362 1f47 0B090000 		.4byte	0x90b
 10363 1f4b 12       		.uleb128 0x12
 10364 1f4c 24000000 		.4byte	.LVL656
 10365 1f50 0C170000 		.4byte	0x170c
 10366 1f54 12       		.uleb128 0x12
 10367 1f55 28000000 		.4byte	.LVL657
 10368 1f59 330A0000 		.4byte	0xa33
 10369 1f5d 1C       		.uleb128 0x1c
 10370 1f5e 30000000 		.4byte	.LVL658
 10371 1f62 0C080000 		.4byte	0x80c
 10372 1f66 761F0000 		.4byte	0x1f76
 10373 1f6a 1B       		.uleb128 0x1b
 10374 1f6b 01       		.uleb128 0x1
 10375 1f6c 50       		.byte	0x50
 10376 1f6d 02       		.uleb128 0x2
 10377 1f6e 74       		.byte	0x74
 10378 1f6f 00       		.sleb128 0
 10379 1f70 1B       		.uleb128 0x1b
 10380 1f71 01       		.uleb128 0x1
 10381 1f72 51       		.byte	0x51
 10382 1f73 01       		.uleb128 0x1
 10383 1f74 31       		.byte	0x31
 10384 1f75 00       		.byte	0
 10385 1f76 1C       		.uleb128 0x1c
 10386 1f77 38000000 		.4byte	.LVL659
 10387 1f7b 0C080000 		.4byte	0x80c
 10388 1f7f 8F1F0000 		.4byte	0x1f8f
ARM GAS  C:\Users\FRANKL~1\AppData\Local\Temp\ccCAoJJX.s 			page 222


 10389 1f83 1B       		.uleb128 0x1b
 10390 1f84 01       		.uleb128 0x1
 10391 1f85 50       		.byte	0x50
 10392 1f86 02       		.uleb128 0x2
 10393 1f87 75       		.byte	0x75
 10394 1f88 00       		.sleb128 0
 10395 1f89 1B       		.uleb128 0x1b
 10396 1f8a 01       		.uleb128 0x1
 10397 1f8b 51       		.byte	0x51
 10398 1f8c 01       		.uleb128 0x1
 10399 1f8d 32       		.byte	0x32
 10400 1f8e 00       		.byte	0
 10401 1f8f 1C       		.uleb128 0x1c
 10402 1f90 42000000 		.4byte	.LVL660
 10403 1f94 6D330000 		.4byte	0x336d
 10404 1f98 B51F0000 		.4byte	0x1fb5
 10405 1f9c 1B       		.uleb128 0x1b
 10406 1f9d 01       		.uleb128 0x1
 10407 1f9e 50       		.byte	0x50
 10408 1f9f 05       		.uleb128 0x5
 10409 1fa0 03       		.byte	0x3
 10410 1fa1 00000000 		.4byte	TransmitBuffer
 10411 1fa5 1B       		.uleb128 0x1b
 10412 1fa6 01       		.uleb128 0x1
 10413 1fa7 51       		.byte	0x51
 10414 1fa8 05       		.uleb128 0x5
 10415 1fa9 03       		.byte	0x3
 10416 1faa EC000000 		.4byte	.LC14
 10417 1fae 1B       		.uleb128 0x1b
 10418 1faf 01       		.uleb128 0x1
 10419 1fb0 52       		.byte	0x52
 10420 1fb1 02       		.uleb128 0x2
 10421 1fb2 74       		.byte	0x74
 10422 1fb3 00       		.sleb128 0
 10423 1fb4 00       		.byte	0
 10424 1fb5 12       		.uleb128 0x12
 10425 1fb6 46000000 		.4byte	.LVL661
 10426 1fba B5050000 		.4byte	0x5b5
 10427 1fbe 1C       		.uleb128 0x1c
 10428 1fbf 4E000000 		.4byte	.LVL662
 10429 1fc3 4F1B0000 		.4byte	0x1b4f
 10430 1fc7 D21F0000 		.4byte	0x1fd2
 10431 1fcb 1B       		.uleb128 0x1b
 10432 1fcc 01       		.uleb128 0x1
 10433 1fcd 50       		.byte	0x50
 10434 1fce 02       		.uleb128 0x2
 10435 1fcf 78       		.byte	0x78
 10436 1fd0 00       		.sleb128 0
 10437 1fd1 00       		.byte	0
 10438 1fd2 1A       		.uleb128 0x1a
 10439 1fd3 56000000 		.4byte	.LVL663
 10440 1fd7 4A1A0000 		.4byte	0x1a4a
 10441 1fdb 1B       		.uleb128 0x1b
 10442 1fdc 01       		.uleb128 0x1
 10443 1fdd 50       		.byte	0x50
 10444 1fde 02       		.uleb128 0x2
 10445 1fdf 78       		.byte	0x78
ARM GAS  C:\Users\FRANKL~1\AppData\Local\Temp\ccCAoJJX.s 			page 223


 10446 1fe0 00       		.sleb128 0
 10447 1fe1 00       		.byte	0
 10448 1fe2 00       		.byte	0
 10449 1fe3 00       		.byte	0
 10450 1fe4 00       		.byte	0
 10451 1fe5 2F       		.uleb128 0x2f
 10452 1fe6 66020000 		.4byte	.LASF263
 10453 1fea 02       		.byte	0x2
 10454 1feb F103     		.2byte	0x3f1
 10455 1fed 33000000 		.4byte	0x33
 10456 1ff1 00000000 		.4byte	.LFB117
 10457 1ff5 7C080000 		.4byte	.LFE117-.LFB117
 10458 1ff9 01       		.uleb128 0x1
 10459 1ffa 9C       		.byte	0x9c
 10460 1ffb EA300000 		.4byte	0x30ea
 10461 1fff 15       		.uleb128 0x15
 10462 2000 94000000 		.4byte	.LBB67
 10463 2004 E8070000 		.4byte	.LBE67-.LBB67
 10464 2008 E12F0000 		.4byte	0x2fe1
 10465 200c 17       		.uleb128 0x17
 10466 200d E2090000 		.4byte	.LASF41
 10467 2011 02       		.byte	0x2
 10468 2012 1E04     		.2byte	0x41e
 10469 2014 8B000000 		.4byte	0x8b
 10470 2018 26180000 		.4byte	.LLST163
 10471 201c 15       		.uleb128 0x15
 10472 201d CE000000 		.4byte	.LBB68
 10473 2021 18000000 		.4byte	.LBE68-.LBB68
 10474 2025 83200000 		.4byte	0x2083
 10475 2029 16       		.uleb128 0x16
 10476 202a 64060000 		.4byte	.LASF177
 10477 202e 02       		.byte	0x2
 10478 202f 2704     		.2byte	0x427
 10479 2031 8B000000 		.4byte	0x8b
 10480 2035 02       		.uleb128 0x2
 10481 2036 91       		.byte	0x91
 10482 2037 64       		.sleb128 -28
 10483 2038 18       		.uleb128 0x18
 10484 2039 6E00     		.ascii	"n\000"
 10485 203b 02       		.byte	0x2
 10486 203c 2804     		.2byte	0x428
 10487 203e C6000000 		.4byte	0xc6
 10488 2042 1A190000 		.4byte	.LLST164
 10489 2046 1C       		.uleb128 0x1c
 10490 2047 D6000000 		.4byte	.LVL692
 10491 204b 3E340000 		.4byte	0x343e
 10492 204f 60200000 		.4byte	0x2060
 10493 2053 1B       		.uleb128 0x1b
 10494 2054 01       		.uleb128 0x1
 10495 2055 50       		.byte	0x50
 10496 2056 02       		.uleb128 0x2
 10497 2057 74       		.byte	0x74
 10498 2058 00       		.sleb128 0
 10499 2059 1B       		.uleb128 0x1b
 10500 205a 01       		.uleb128 0x1
 10501 205b 51       		.byte	0x51
 10502 205c 02       		.uleb128 0x2
ARM GAS  C:\Users\FRANKL~1\AppData\Local\Temp\ccCAoJJX.s 			page 224


 10503 205d 08       		.byte	0x8
 10504 205e 20       		.byte	0x20
 10505 205f 00       		.byte	0
 10506 2060 1C       		.uleb128 0x1c
 10507 2061 E2000000 		.4byte	.LVL693
 10508 2065 4D340000 		.4byte	0x344d
 10509 2069 79200000 		.4byte	0x2079
 10510 206d 1B       		.uleb128 0x1b
 10511 206e 01       		.uleb128 0x1
 10512 206f 51       		.byte	0x51
 10513 2070 02       		.uleb128 0x2
 10514 2071 91       		.byte	0x91
 10515 2072 64       		.sleb128 -28
 10516 2073 1B       		.uleb128 0x1b
 10517 2074 01       		.uleb128 0x1
 10518 2075 52       		.byte	0x52
 10519 2076 01       		.uleb128 0x1
 10520 2077 3A       		.byte	0x3a
 10521 2078 00       		.byte	0
 10522 2079 12       		.uleb128 0x12
 10523 207a E6000000 		.4byte	.LVL694
 10524 207e 6C190000 		.4byte	0x196c
 10525 2082 00       		.byte	0
 10526 2083 15       		.uleb128 0x15
 10527 2084 44010000 		.4byte	.LBB69
 10528 2088 1A000000 		.4byte	.LBE69-.LBB69
 10529 208c EC200000 		.4byte	0x20ec
 10530 2090 16       		.uleb128 0x16
 10531 2091 64060000 		.4byte	.LASF177
 10532 2095 02       		.byte	0x2
 10533 2096 3904     		.2byte	0x439
 10534 2098 8B000000 		.4byte	0x8b
 10535 209c 02       		.uleb128 0x2
 10536 209d 91       		.byte	0x91
 10537 209e 64       		.sleb128 -28
 10538 209f 17       		.uleb128 0x17
 10539 20a0 53080000 		.4byte	.LASF178
 10540 20a4 02       		.byte	0x2
 10541 20a5 3A04     		.2byte	0x43a
 10542 20a7 AE000000 		.4byte	0xae
 10543 20ab 2D190000 		.4byte	.LLST165
 10544 20af 1C       		.uleb128 0x1c
 10545 20b0 4C010000 		.4byte	.LVL704
 10546 20b4 3E340000 		.4byte	0x343e
 10547 20b8 C9200000 		.4byte	0x20c9
 10548 20bc 1B       		.uleb128 0x1b
 10549 20bd 01       		.uleb128 0x1
 10550 20be 50       		.byte	0x50
 10551 20bf 02       		.uleb128 0x2
 10552 20c0 74       		.byte	0x74
 10553 20c1 00       		.sleb128 0
 10554 20c2 1B       		.uleb128 0x1b
 10555 20c3 01       		.uleb128 0x1
 10556 20c4 51       		.byte	0x51
 10557 20c5 02       		.uleb128 0x2
 10558 20c6 08       		.byte	0x8
 10559 20c7 20       		.byte	0x20
ARM GAS  C:\Users\FRANKL~1\AppData\Local\Temp\ccCAoJJX.s 			page 225


 10560 20c8 00       		.byte	0
 10561 20c9 1C       		.uleb128 0x1c
 10562 20ca 58010000 		.4byte	.LVL705
 10563 20ce 4D340000 		.4byte	0x344d
 10564 20d2 E2200000 		.4byte	0x20e2
 10565 20d6 1B       		.uleb128 0x1b
 10566 20d7 01       		.uleb128 0x1
 10567 20d8 51       		.byte	0x51
 10568 20d9 02       		.uleb128 0x2
 10569 20da 91       		.byte	0x91
 10570 20db 64       		.sleb128 -28
 10571 20dc 1B       		.uleb128 0x1b
 10572 20dd 01       		.uleb128 0x1
 10573 20de 52       		.byte	0x52
 10574 20df 01       		.uleb128 0x1
 10575 20e0 3A       		.byte	0x3a
 10576 20e1 00       		.byte	0
 10577 20e2 12       		.uleb128 0x12
 10578 20e3 5E010000 		.4byte	.LVL706
 10579 20e7 C1120000 		.4byte	0x12c1
 10580 20eb 00       		.byte	0
 10581 20ec 15       		.uleb128 0x15
 10582 20ed 6C010000 		.4byte	.LBB70
 10583 20f1 1A000000 		.4byte	.LBE70-.LBB70
 10584 20f5 55210000 		.4byte	0x2155
 10585 20f9 16       		.uleb128 0x16
 10586 20fa 64060000 		.4byte	.LASF177
 10587 20fe 02       		.byte	0x2
 10588 20ff 3F04     		.2byte	0x43f
 10589 2101 8B000000 		.4byte	0x8b
 10590 2105 02       		.uleb128 0x2
 10591 2106 91       		.byte	0x91
 10592 2107 64       		.sleb128 -28
 10593 2108 17       		.uleb128 0x17
 10594 2109 380F0000 		.4byte	.LASF179
 10595 210d 02       		.byte	0x2
 10596 210e 4004     		.2byte	0x440
 10597 2110 AE000000 		.4byte	0xae
 10598 2114 40190000 		.4byte	.LLST166
 10599 2118 1C       		.uleb128 0x1c
 10600 2119 74010000 		.4byte	.LVL708
 10601 211d 3E340000 		.4byte	0x343e
 10602 2121 32210000 		.4byte	0x2132
 10603 2125 1B       		.uleb128 0x1b
 10604 2126 01       		.uleb128 0x1
 10605 2127 50       		.byte	0x50
 10606 2128 02       		.uleb128 0x2
 10607 2129 74       		.byte	0x74
 10608 212a 00       		.sleb128 0
 10609 212b 1B       		.uleb128 0x1b
 10610 212c 01       		.uleb128 0x1
 10611 212d 51       		.byte	0x51
 10612 212e 02       		.uleb128 0x2
 10613 212f 08       		.byte	0x8
 10614 2130 20       		.byte	0x20
 10615 2131 00       		.byte	0
 10616 2132 1C       		.uleb128 0x1c
ARM GAS  C:\Users\FRANKL~1\AppData\Local\Temp\ccCAoJJX.s 			page 226


 10617 2133 80010000 		.4byte	.LVL709
 10618 2137 4D340000 		.4byte	0x344d
 10619 213b 4B210000 		.4byte	0x214b
 10620 213f 1B       		.uleb128 0x1b
 10621 2140 01       		.uleb128 0x1
 10622 2141 51       		.byte	0x51
 10623 2142 02       		.uleb128 0x2
 10624 2143 91       		.byte	0x91
 10625 2144 64       		.sleb128 -28
 10626 2145 1B       		.uleb128 0x1b
 10627 2146 01       		.uleb128 0x1
 10628 2147 52       		.byte	0x52
 10629 2148 01       		.uleb128 0x1
 10630 2149 3A       		.byte	0x3a
 10631 214a 00       		.byte	0
 10632 214b 12       		.uleb128 0x12
 10633 214c 86010000 		.4byte	.LVL710
 10634 2150 EE110000 		.4byte	0x11ee
 10635 2154 00       		.byte	0
 10636 2155 15       		.uleb128 0x15
 10637 2156 94010000 		.4byte	.LBB71
 10638 215a 1A000000 		.4byte	.LBE71-.LBB71
 10639 215e BE210000 		.4byte	0x21be
 10640 2162 16       		.uleb128 0x16
 10641 2163 64060000 		.4byte	.LASF177
 10642 2167 02       		.byte	0x2
 10643 2168 4504     		.2byte	0x445
 10644 216a 8B000000 		.4byte	0x8b
 10645 216e 02       		.uleb128 0x2
 10646 216f 91       		.byte	0x91
 10647 2170 64       		.sleb128 -28
 10648 2171 17       		.uleb128 0x17
 10649 2172 53080000 		.4byte	.LASF178
 10650 2176 02       		.byte	0x2
 10651 2177 4604     		.2byte	0x446
 10652 2179 D2000000 		.4byte	0xd2
 10653 217d 53190000 		.4byte	.LLST167
 10654 2181 1C       		.uleb128 0x1c
 10655 2182 9C010000 		.4byte	.LVL712
 10656 2186 3E340000 		.4byte	0x343e
 10657 218a 9B210000 		.4byte	0x219b
 10658 218e 1B       		.uleb128 0x1b
 10659 218f 01       		.uleb128 0x1
 10660 2190 50       		.byte	0x50
 10661 2191 02       		.uleb128 0x2
 10662 2192 74       		.byte	0x74
 10663 2193 00       		.sleb128 0
 10664 2194 1B       		.uleb128 0x1b
 10665 2195 01       		.uleb128 0x1
 10666 2196 51       		.byte	0x51
 10667 2197 02       		.uleb128 0x2
 10668 2198 08       		.byte	0x8
 10669 2199 20       		.byte	0x20
 10670 219a 00       		.byte	0
 10671 219b 1C       		.uleb128 0x1c
 10672 219c A8010000 		.4byte	.LVL713
 10673 21a0 4D340000 		.4byte	0x344d
ARM GAS  C:\Users\FRANKL~1\AppData\Local\Temp\ccCAoJJX.s 			page 227


 10674 21a4 B4210000 		.4byte	0x21b4
 10675 21a8 1B       		.uleb128 0x1b
 10676 21a9 01       		.uleb128 0x1
 10677 21aa 51       		.byte	0x51
 10678 21ab 02       		.uleb128 0x2
 10679 21ac 91       		.byte	0x91
 10680 21ad 64       		.sleb128 -28
 10681 21ae 1B       		.uleb128 0x1b
 10682 21af 01       		.uleb128 0x1
 10683 21b0 52       		.byte	0x52
 10684 21b1 01       		.uleb128 0x1
 10685 21b2 3A       		.byte	0x3a
 10686 21b3 00       		.byte	0
 10687 21b4 12       		.uleb128 0x12
 10688 21b5 AE010000 		.4byte	.LVL714
 10689 21b9 7C150000 		.4byte	0x157c
 10690 21bd 00       		.byte	0
 10691 21be 15       		.uleb128 0x15
 10692 21bf BC010000 		.4byte	.LBB72
 10693 21c3 1A000000 		.4byte	.LBE72-.LBB72
 10694 21c7 27220000 		.4byte	0x2227
 10695 21cb 16       		.uleb128 0x16
 10696 21cc 64060000 		.4byte	.LASF177
 10697 21d0 02       		.byte	0x2
 10698 21d1 4B04     		.2byte	0x44b
 10699 21d3 8B000000 		.4byte	0x8b
 10700 21d7 02       		.uleb128 0x2
 10701 21d8 91       		.byte	0x91
 10702 21d9 64       		.sleb128 -28
 10703 21da 17       		.uleb128 0x17
 10704 21db 380F0000 		.4byte	.LASF179
 10705 21df 02       		.byte	0x2
 10706 21e0 4C04     		.2byte	0x44c
 10707 21e2 D2000000 		.4byte	0xd2
 10708 21e6 66190000 		.4byte	.LLST168
 10709 21ea 1C       		.uleb128 0x1c
 10710 21eb C4010000 		.4byte	.LVL716
 10711 21ef 3E340000 		.4byte	0x343e
 10712 21f3 04220000 		.4byte	0x2204
 10713 21f7 1B       		.uleb128 0x1b
 10714 21f8 01       		.uleb128 0x1
 10715 21f9 50       		.byte	0x50
 10716 21fa 02       		.uleb128 0x2
 10717 21fb 74       		.byte	0x74
 10718 21fc 00       		.sleb128 0
 10719 21fd 1B       		.uleb128 0x1b
 10720 21fe 01       		.uleb128 0x1
 10721 21ff 51       		.byte	0x51
 10722 2200 02       		.uleb128 0x2
 10723 2201 08       		.byte	0x8
 10724 2202 20       		.byte	0x20
 10725 2203 00       		.byte	0
 10726 2204 1C       		.uleb128 0x1c
 10727 2205 D0010000 		.4byte	.LVL717
 10728 2209 4D340000 		.4byte	0x344d
 10729 220d 1D220000 		.4byte	0x221d
 10730 2211 1B       		.uleb128 0x1b
ARM GAS  C:\Users\FRANKL~1\AppData\Local\Temp\ccCAoJJX.s 			page 228


 10731 2212 01       		.uleb128 0x1
 10732 2213 51       		.byte	0x51
 10733 2214 02       		.uleb128 0x2
 10734 2215 91       		.byte	0x91
 10735 2216 64       		.sleb128 -28
 10736 2217 1B       		.uleb128 0x1b
 10737 2218 01       		.uleb128 0x1
 10738 2219 52       		.byte	0x52
 10739 221a 01       		.uleb128 0x1
 10740 221b 3A       		.byte	0x3a
 10741 221c 00       		.byte	0
 10742 221d 12       		.uleb128 0x12
 10743 221e D6010000 		.4byte	.LVL718
 10744 2222 AA140000 		.4byte	0x14aa
 10745 2226 00       		.byte	0
 10746 2227 15       		.uleb128 0x15
 10747 2228 E4010000 		.4byte	.LBB73
 10748 222c 1C000000 		.4byte	.LBE73-.LBB73
 10749 2230 A0220000 		.4byte	0x22a0
 10750 2234 17       		.uleb128 0x17
 10751 2235 64060000 		.4byte	.LASF177
 10752 2239 02       		.byte	0x2
 10753 223a 5104     		.2byte	0x451
 10754 223c 8B000000 		.4byte	0x8b
 10755 2240 79190000 		.4byte	.LLST169
 10756 2244 30       		.uleb128 0x30
 10757 2245 76677300 		.ascii	"vgs\000"
 10758 2249 02       		.byte	0x2
 10759 224a 5204     		.2byte	0x452
 10760 224c 25000000 		.4byte	0x25
 10761 2250 02       		.uleb128 0x2
 10762 2251 91       		.byte	0x91
 10763 2252 64       		.sleb128 -28
 10764 2253 2D       		.uleb128 0x2d
 10765 2254 A2090000 		.4byte	.LASF180
 10766 2258 02       		.byte	0x2
 10767 2259 5304     		.2byte	0x453
 10768 225b D2000000 		.4byte	0xd2
 10769 225f 1C       		.uleb128 0x1c
 10770 2260 EC010000 		.4byte	.LVL720
 10771 2264 3E340000 		.4byte	0x343e
 10772 2268 79220000 		.4byte	0x2279
 10773 226c 1B       		.uleb128 0x1b
 10774 226d 01       		.uleb128 0x1
 10775 226e 50       		.byte	0x50
 10776 226f 02       		.uleb128 0x2
 10777 2270 74       		.byte	0x74
 10778 2271 00       		.sleb128 0
 10779 2272 1B       		.uleb128 0x1b
 10780 2273 01       		.uleb128 0x1
 10781 2274 51       		.byte	0x51
 10782 2275 02       		.uleb128 0x2
 10783 2276 08       		.byte	0x8
 10784 2277 20       		.byte	0x20
 10785 2278 00       		.byte	0
 10786 2279 1C       		.uleb128 0x1c
 10787 227a FA010000 		.4byte	.LVL721
ARM GAS  C:\Users\FRANKL~1\AppData\Local\Temp\ccCAoJJX.s 			page 229


 10788 227e 58340000 		.4byte	0x3458
 10789 2282 96220000 		.4byte	0x2296
 10790 2286 1B       		.uleb128 0x1b
 10791 2287 01       		.uleb128 0x1
 10792 2288 51       		.byte	0x51
 10793 2289 05       		.uleb128 0x5
 10794 228a 03       		.byte	0x3
 10795 228b C4010000 		.4byte	.LC27
 10796 228f 1B       		.uleb128 0x1b
 10797 2290 01       		.uleb128 0x1
 10798 2291 52       		.byte	0x52
 10799 2292 02       		.uleb128 0x2
 10800 2293 91       		.byte	0x91
 10801 2294 64       		.sleb128 -28
 10802 2295 00       		.byte	0
 10803 2296 12       		.uleb128 0x12
 10804 2297 00020000 		.4byte	.LVL722
 10805 229b 4E160000 		.4byte	0x164e
 10806 229f 00       		.byte	0
 10807 22a0 15       		.uleb128 0x15
 10808 22a1 0E020000 		.4byte	.LBB74
 10809 22a5 1C000000 		.4byte	.LBE74-.LBB74
 10810 22a9 19230000 		.4byte	0x2319
 10811 22ad 17       		.uleb128 0x17
 10812 22ae 64060000 		.4byte	.LASF177
 10813 22b2 02       		.byte	0x2
 10814 22b3 5804     		.2byte	0x458
 10815 22b5 8B000000 		.4byte	0x8b
 10816 22b9 8C190000 		.4byte	.LLST170
 10817 22bd 30       		.uleb128 0x30
 10818 22be 76647300 		.ascii	"vds\000"
 10819 22c2 02       		.byte	0x2
 10820 22c3 5904     		.2byte	0x459
 10821 22c5 25000000 		.4byte	0x25
 10822 22c9 02       		.uleb128 0x2
 10823 22ca 91       		.byte	0x91
 10824 22cb 64       		.sleb128 -28
 10825 22cc 2D       		.uleb128 0x2d
 10826 22cd A2090000 		.4byte	.LASF180
 10827 22d1 02       		.byte	0x2
 10828 22d2 5A04     		.2byte	0x45a
 10829 22d4 D2000000 		.4byte	0xd2
 10830 22d8 1C       		.uleb128 0x1c
 10831 22d9 16020000 		.4byte	.LVL724
 10832 22dd 3E340000 		.4byte	0x343e
 10833 22e1 F2220000 		.4byte	0x22f2
 10834 22e5 1B       		.uleb128 0x1b
 10835 22e6 01       		.uleb128 0x1
 10836 22e7 50       		.byte	0x50
 10837 22e8 02       		.uleb128 0x2
 10838 22e9 74       		.byte	0x74
 10839 22ea 00       		.sleb128 0
 10840 22eb 1B       		.uleb128 0x1b
 10841 22ec 01       		.uleb128 0x1
 10842 22ed 51       		.byte	0x51
 10843 22ee 02       		.uleb128 0x2
 10844 22ef 08       		.byte	0x8
ARM GAS  C:\Users\FRANKL~1\AppData\Local\Temp\ccCAoJJX.s 			page 230


 10845 22f0 20       		.byte	0x20
 10846 22f1 00       		.byte	0
 10847 22f2 1C       		.uleb128 0x1c
 10848 22f3 24020000 		.4byte	.LVL725
 10849 22f7 58340000 		.4byte	0x3458
 10850 22fb 0F230000 		.4byte	0x230f
 10851 22ff 1B       		.uleb128 0x1b
 10852 2300 01       		.uleb128 0x1
 10853 2301 51       		.byte	0x51
 10854 2302 05       		.uleb128 0x5
 10855 2303 03       		.byte	0x3
 10856 2304 C4010000 		.4byte	.LC27
 10857 2308 1B       		.uleb128 0x1b
 10858 2309 01       		.uleb128 0x1
 10859 230a 52       		.byte	0x52
 10860 230b 02       		.uleb128 0x2
 10861 230c 91       		.byte	0x91
 10862 230d 64       		.sleb128 -28
 10863 230e 00       		.byte	0
 10864 230f 12       		.uleb128 0x12
 10865 2310 2A020000 		.4byte	.LVL726
 10866 2314 7E160000 		.4byte	0x167e
 10867 2318 00       		.byte	0
 10868 2319 15       		.uleb128 0x15
 10869 231a 38020000 		.4byte	.LBB75
 10870 231e 34000000 		.4byte	.LBE75-.LBB75
 10871 2322 B7230000 		.4byte	0x23b7
 10872 2326 16       		.uleb128 0x16
 10873 2327 64060000 		.4byte	.LASF177
 10874 232b 02       		.byte	0x2
 10875 232c 5F04     		.2byte	0x45f
 10876 232e 8B000000 		.4byte	0x8b
 10877 2332 02       		.uleb128 0x2
 10878 2333 91       		.byte	0x91
 10879 2334 64       		.sleb128 -28
 10880 2335 17       		.uleb128 0x17
 10881 2336 ED030000 		.4byte	.LASF181
 10882 233a 02       		.byte	0x2
 10883 233b 6004     		.2byte	0x460
 10884 233d 25000000 		.4byte	0x25
 10885 2341 9F190000 		.4byte	.LLST171
 10886 2345 1C       		.uleb128 0x1c
 10887 2346 40020000 		.4byte	.LVL728
 10888 234a 3E340000 		.4byte	0x343e
 10889 234e 5F230000 		.4byte	0x235f
 10890 2352 1B       		.uleb128 0x1b
 10891 2353 01       		.uleb128 0x1
 10892 2354 50       		.byte	0x50
 10893 2355 02       		.uleb128 0x2
 10894 2356 74       		.byte	0x74
 10895 2357 00       		.sleb128 0
 10896 2358 1B       		.uleb128 0x1b
 10897 2359 01       		.uleb128 0x1
 10898 235a 51       		.byte	0x51
 10899 235b 02       		.uleb128 0x2
 10900 235c 08       		.byte	0x8
 10901 235d 20       		.byte	0x20
ARM GAS  C:\Users\FRANKL~1\AppData\Local\Temp\ccCAoJJX.s 			page 231


 10902 235e 00       		.byte	0
 10903 235f 1C       		.uleb128 0x1c
 10904 2360 4C020000 		.4byte	.LVL729
 10905 2364 4D340000 		.4byte	0x344d
 10906 2368 78230000 		.4byte	0x2378
 10907 236c 1B       		.uleb128 0x1b
 10908 236d 01       		.uleb128 0x1
 10909 236e 51       		.byte	0x51
 10910 236f 02       		.uleb128 0x2
 10911 2370 91       		.byte	0x91
 10912 2371 64       		.sleb128 -28
 10913 2372 1B       		.uleb128 0x1b
 10914 2373 01       		.uleb128 0x1
 10915 2374 52       		.byte	0x52
 10916 2375 01       		.uleb128 0x1
 10917 2376 3A       		.byte	0x3a
 10918 2377 00       		.byte	0
 10919 2378 1C       		.uleb128 0x1c
 10920 2379 56020000 		.4byte	.LVL732
 10921 237d AE160000 		.4byte	0x16ae
 10922 2381 8D230000 		.4byte	0x238d
 10923 2385 1B       		.uleb128 0x1b
 10924 2386 01       		.uleb128 0x1
 10925 2387 50       		.byte	0x50
 10926 2388 03       		.uleb128 0x3
 10927 2389 F5       		.byte	0xf5
 10928 238a 04       		.uleb128 0x4
 10929 238b 25       		.uleb128 0x25
 10930 238c 00       		.byte	0
 10931 238d 1C       		.uleb128 0x1c
 10932 238e 68020000 		.4byte	.LVL734
 10933 2392 6D330000 		.4byte	0x336d
 10934 2396 AD230000 		.4byte	0x23ad
 10935 239a 1B       		.uleb128 0x1b
 10936 239b 01       		.uleb128 0x1
 10937 239c 50       		.byte	0x50
 10938 239d 05       		.uleb128 0x5
 10939 239e 03       		.byte	0x3
 10940 239f 00000000 		.4byte	TransmitBuffer
 10941 23a3 1B       		.uleb128 0x1b
 10942 23a4 01       		.uleb128 0x1
 10943 23a5 51       		.byte	0x51
 10944 23a6 05       		.uleb128 0x5
 10945 23a7 03       		.byte	0x3
 10946 23a8 E0010000 		.4byte	.LC30
 10947 23ac 00       		.byte	0
 10948 23ad 12       		.uleb128 0x12
 10949 23ae 6C020000 		.4byte	.LVL735
 10950 23b2 B5050000 		.4byte	0x5b5
 10951 23b6 00       		.byte	0
 10952 23b7 15       		.uleb128 0x15
 10953 23b8 7A020000 		.4byte	.LBB76
 10954 23bc 34000000 		.4byte	.LBE76-.LBB76
 10955 23c0 55240000 		.4byte	0x2455
 10956 23c4 16       		.uleb128 0x16
 10957 23c5 64060000 		.4byte	.LASF177
 10958 23c9 02       		.byte	0x2
ARM GAS  C:\Users\FRANKL~1\AppData\Local\Temp\ccCAoJJX.s 			page 232


 10959 23ca 6804     		.2byte	0x468
 10960 23cc 8B000000 		.4byte	0x8b
 10961 23d0 02       		.uleb128 0x2
 10962 23d1 91       		.byte	0x91
 10963 23d2 64       		.sleb128 -28
 10964 23d3 17       		.uleb128 0x17
 10965 23d4 0E0B0000 		.4byte	.LASF182
 10966 23d8 02       		.byte	0x2
 10967 23d9 6904     		.2byte	0x469
 10968 23db 25000000 		.4byte	0x25
 10969 23df BD190000 		.4byte	.LLST172
 10970 23e3 1C       		.uleb128 0x1c
 10971 23e4 82020000 		.4byte	.LVL738
 10972 23e8 3E340000 		.4byte	0x343e
 10973 23ec FD230000 		.4byte	0x23fd
 10974 23f0 1B       		.uleb128 0x1b
 10975 23f1 01       		.uleb128 0x1
 10976 23f2 50       		.byte	0x50
 10977 23f3 02       		.uleb128 0x2
 10978 23f4 74       		.byte	0x74
 10979 23f5 00       		.sleb128 0
 10980 23f6 1B       		.uleb128 0x1b
 10981 23f7 01       		.uleb128 0x1
 10982 23f8 51       		.byte	0x51
 10983 23f9 02       		.uleb128 0x2
 10984 23fa 08       		.byte	0x8
 10985 23fb 20       		.byte	0x20
 10986 23fc 00       		.byte	0
 10987 23fd 1C       		.uleb128 0x1c
 10988 23fe 8E020000 		.4byte	.LVL739
 10989 2402 4D340000 		.4byte	0x344d
 10990 2406 16240000 		.4byte	0x2416
 10991 240a 1B       		.uleb128 0x1b
 10992 240b 01       		.uleb128 0x1
 10993 240c 51       		.byte	0x51
 10994 240d 02       		.uleb128 0x2
 10995 240e 91       		.byte	0x91
 10996 240f 64       		.sleb128 -28
 10997 2410 1B       		.uleb128 0x1b
 10998 2411 01       		.uleb128 0x1
 10999 2412 52       		.byte	0x52
 11000 2413 01       		.uleb128 0x1
 11001 2414 3A       		.byte	0x3a
 11002 2415 00       		.byte	0
 11003 2416 1C       		.uleb128 0x1c
 11004 2417 98020000 		.4byte	.LVL742
 11005 241b DD160000 		.4byte	0x16dd
 11006 241f 2B240000 		.4byte	0x242b
 11007 2423 1B       		.uleb128 0x1b
 11008 2424 01       		.uleb128 0x1
 11009 2425 50       		.byte	0x50
 11010 2426 03       		.uleb128 0x3
 11011 2427 F5       		.byte	0xf5
 11012 2428 04       		.uleb128 0x4
 11013 2429 25       		.uleb128 0x25
 11014 242a 00       		.byte	0
 11015 242b 1C       		.uleb128 0x1c
ARM GAS  C:\Users\FRANKL~1\AppData\Local\Temp\ccCAoJJX.s 			page 233


 11016 242c AA020000 		.4byte	.LVL744
 11017 2430 6D330000 		.4byte	0x336d
 11018 2434 4B240000 		.4byte	0x244b
 11019 2438 1B       		.uleb128 0x1b
 11020 2439 01       		.uleb128 0x1
 11021 243a 50       		.byte	0x50
 11022 243b 05       		.uleb128 0x5
 11023 243c 03       		.byte	0x3
 11024 243d 00000000 		.4byte	TransmitBuffer
 11025 2441 1B       		.uleb128 0x1b
 11026 2442 01       		.uleb128 0x1
 11027 2443 51       		.byte	0x51
 11028 2444 05       		.uleb128 0x5
 11029 2445 03       		.byte	0x3
 11030 2446 04020000 		.4byte	.LC32
 11031 244a 00       		.byte	0
 11032 244b 12       		.uleb128 0x12
 11033 244c AE020000 		.4byte	.LVL745
 11034 2450 B5050000 		.4byte	0x5b5
 11035 2454 00       		.byte	0
 11036 2455 15       		.uleb128 0x15
 11037 2456 FC020000 		.4byte	.LBB77
 11038 245a 64000000 		.4byte	.LBE77-.LBB77
 11039 245e 0E250000 		.4byte	0x250e
 11040 2462 16       		.uleb128 0x16
 11041 2463 64060000 		.4byte	.LASF177
 11042 2467 02       		.byte	0x2
 11043 2468 7D04     		.2byte	0x47d
 11044 246a 8B000000 		.4byte	0x8b
 11045 246e 02       		.uleb128 0x2
 11046 246f 91       		.byte	0x91
 11047 2470 64       		.sleb128 -28
 11048 2471 17       		.uleb128 0x17
 11049 2472 620B0000 		.4byte	.LASF175
 11050 2476 02       		.byte	0x2
 11051 2477 7E04     		.2byte	0x47e
 11052 2479 AE000000 		.4byte	0xae
 11053 247d DB190000 		.4byte	.LLST173
 11054 2481 17       		.uleb128 0x17
 11055 2482 1D0B0000 		.4byte	.LASF176
 11056 2486 02       		.byte	0x2
 11057 2487 7F04     		.2byte	0x47f
 11058 2489 AE000000 		.4byte	0xae
 11059 248d EE190000 		.4byte	.LLST174
 11060 2491 12       		.uleb128 0x12
 11061 2492 18030000 		.4byte	.LVL754
 11062 2496 B5050000 		.4byte	0x5b5
 11063 249a 1C       		.uleb128 0x1c
 11064 249b 20030000 		.4byte	.LVL755
 11065 249f 3E340000 		.4byte	0x343e
 11066 24a3 B4240000 		.4byte	0x24b4
 11067 24a7 1B       		.uleb128 0x1b
 11068 24a8 01       		.uleb128 0x1
 11069 24a9 50       		.byte	0x50
 11070 24aa 02       		.uleb128 0x2
 11071 24ab 74       		.byte	0x74
 11072 24ac 00       		.sleb128 0
ARM GAS  C:\Users\FRANKL~1\AppData\Local\Temp\ccCAoJJX.s 			page 234


 11073 24ad 1B       		.uleb128 0x1b
 11074 24ae 01       		.uleb128 0x1
 11075 24af 51       		.byte	0x51
 11076 24b0 02       		.uleb128 0x2
 11077 24b1 08       		.byte	0x8
 11078 24b2 20       		.byte	0x20
 11079 24b3 00       		.byte	0
 11080 24b4 1C       		.uleb128 0x1c
 11081 24b5 2E030000 		.4byte	.LVL757
 11082 24b9 4D340000 		.4byte	0x344d
 11083 24bd CD240000 		.4byte	0x24cd
 11084 24c1 1B       		.uleb128 0x1b
 11085 24c2 01       		.uleb128 0x1
 11086 24c3 51       		.byte	0x51
 11087 24c4 02       		.uleb128 0x2
 11088 24c5 74       		.byte	0x74
 11089 24c6 00       		.sleb128 0
 11090 24c7 1B       		.uleb128 0x1b
 11091 24c8 01       		.uleb128 0x1
 11092 24c9 52       		.byte	0x52
 11093 24ca 01       		.uleb128 0x1
 11094 24cb 3A       		.byte	0x3a
 11095 24cc 00       		.byte	0
 11096 24cd 1C       		.uleb128 0x1c
 11097 24ce 3A030000 		.4byte	.LVL759
 11098 24d2 4D340000 		.4byte	0x344d
 11099 24d6 E6240000 		.4byte	0x24e6
 11100 24da 1B       		.uleb128 0x1b
 11101 24db 01       		.uleb128 0x1
 11102 24dc 51       		.byte	0x51
 11103 24dd 02       		.uleb128 0x2
 11104 24de 74       		.byte	0x74
 11105 24df 00       		.sleb128 0
 11106 24e0 1B       		.uleb128 0x1b
 11107 24e1 01       		.uleb128 0x1
 11108 24e2 52       		.byte	0x52
 11109 24e3 01       		.uleb128 0x1
 11110 24e4 3A       		.byte	0x3a
 11111 24e5 00       		.byte	0
 11112 24e6 1C       		.uleb128 0x1c
 11113 24e7 46030000 		.4byte	.LVL761
 11114 24eb 8A1E0000 		.4byte	0x1e8a
 11115 24ef 04250000 		.4byte	0x2504
 11116 24f3 1B       		.uleb128 0x1b
 11117 24f4 01       		.uleb128 0x1
 11118 24f5 50       		.byte	0x50
 11119 24f6 02       		.uleb128 0x2
 11120 24f7 76       		.byte	0x76
 11121 24f8 00       		.sleb128 0
 11122 24f9 1B       		.uleb128 0x1b
 11123 24fa 01       		.uleb128 0x1
 11124 24fb 52       		.byte	0x52
 11125 24fc 01       		.uleb128 0x1
 11126 24fd 30       		.byte	0x30
 11127 24fe 1B       		.uleb128 0x1b
 11128 24ff 01       		.uleb128 0x1
 11129 2500 53       		.byte	0x53
ARM GAS  C:\Users\FRANKL~1\AppData\Local\Temp\ccCAoJJX.s 			page 235


 11130 2501 01       		.uleb128 0x1
 11131 2502 30       		.byte	0x30
 11132 2503 00       		.byte	0
 11133 2504 12       		.uleb128 0x12
 11134 2505 60030000 		.4byte	.LVL762
 11135 2509 B5050000 		.4byte	0x5b5
 11136 250d 00       		.byte	0
 11137 250e 15       		.uleb128 0x15
 11138 250f F0030000 		.4byte	.LBB78
 11139 2513 70000000 		.4byte	.LBE78-.LBB78
 11140 2517 C7250000 		.4byte	0x25c7
 11141 251b 16       		.uleb128 0x16
 11142 251c 64060000 		.4byte	.LASF177
 11143 2520 02       		.byte	0x2
 11144 2521 8904     		.2byte	0x489
 11145 2523 8B000000 		.4byte	0x8b
 11146 2527 02       		.uleb128 0x2
 11147 2528 91       		.byte	0x91
 11148 2529 64       		.sleb128 -28
 11149 252a 17       		.uleb128 0x17
 11150 252b 620B0000 		.4byte	.LASF175
 11151 252f 02       		.byte	0x2
 11152 2530 8A04     		.2byte	0x48a
 11153 2532 AE000000 		.4byte	0xae
 11154 2536 0C1A0000 		.4byte	.LLST175
 11155 253a 17       		.uleb128 0x17
 11156 253b 1D0B0000 		.4byte	.LASF176
 11157 253f 02       		.byte	0x2
 11158 2540 8B04     		.2byte	0x48b
 11159 2542 AE000000 		.4byte	0xae
 11160 2546 1F1A0000 		.4byte	.LLST176
 11161 254a 12       		.uleb128 0x12
 11162 254b 12040000 		.4byte	.LVL765
 11163 254f B5050000 		.4byte	0x5b5
 11164 2553 1C       		.uleb128 0x1c
 11165 2554 1A040000 		.4byte	.LVL766
 11166 2558 3E340000 		.4byte	0x343e
 11167 255c 6D250000 		.4byte	0x256d
 11168 2560 1B       		.uleb128 0x1b
 11169 2561 01       		.uleb128 0x1
 11170 2562 50       		.byte	0x50
 11171 2563 02       		.uleb128 0x2
 11172 2564 74       		.byte	0x74
 11173 2565 00       		.sleb128 0
 11174 2566 1B       		.uleb128 0x1b
 11175 2567 01       		.uleb128 0x1
 11176 2568 51       		.byte	0x51
 11177 2569 02       		.uleb128 0x2
 11178 256a 08       		.byte	0x8
 11179 256b 20       		.byte	0x20
 11180 256c 00       		.byte	0
 11181 256d 1C       		.uleb128 0x1c
 11182 256e 28040000 		.4byte	.LVL768
 11183 2572 4D340000 		.4byte	0x344d
 11184 2576 86250000 		.4byte	0x2586
 11185 257a 1B       		.uleb128 0x1b
 11186 257b 01       		.uleb128 0x1
ARM GAS  C:\Users\FRANKL~1\AppData\Local\Temp\ccCAoJJX.s 			page 236


 11187 257c 51       		.byte	0x51
 11188 257d 02       		.uleb128 0x2
 11189 257e 74       		.byte	0x74
 11190 257f 00       		.sleb128 0
 11191 2580 1B       		.uleb128 0x1b
 11192 2581 01       		.uleb128 0x1
 11193 2582 52       		.byte	0x52
 11194 2583 01       		.uleb128 0x1
 11195 2584 3A       		.byte	0x3a
 11196 2585 00       		.byte	0
 11197 2586 1C       		.uleb128 0x1c
 11198 2587 34040000 		.4byte	.LVL770
 11199 258b 4D340000 		.4byte	0x344d
 11200 258f 9F250000 		.4byte	0x259f
 11201 2593 1B       		.uleb128 0x1b
 11202 2594 01       		.uleb128 0x1
 11203 2595 51       		.byte	0x51
 11204 2596 02       		.uleb128 0x2
 11205 2597 74       		.byte	0x74
 11206 2598 00       		.sleb128 0
 11207 2599 1B       		.uleb128 0x1b
 11208 259a 01       		.uleb128 0x1
 11209 259b 52       		.byte	0x52
 11210 259c 01       		.uleb128 0x1
 11211 259d 3A       		.byte	0x3a
 11212 259e 00       		.byte	0
 11213 259f 1C       		.uleb128 0x1c
 11214 25a0 40040000 		.4byte	.LVL772
 11215 25a4 8A1E0000 		.4byte	0x1e8a
 11216 25a8 BD250000 		.4byte	0x25bd
 11217 25ac 1B       		.uleb128 0x1b
 11218 25ad 01       		.uleb128 0x1
 11219 25ae 50       		.byte	0x50
 11220 25af 02       		.uleb128 0x2
 11221 25b0 76       		.byte	0x76
 11222 25b1 00       		.sleb128 0
 11223 25b2 1B       		.uleb128 0x1b
 11224 25b3 01       		.uleb128 0x1
 11225 25b4 52       		.byte	0x52
 11226 25b5 01       		.uleb128 0x1
 11227 25b6 30       		.byte	0x30
 11228 25b7 1B       		.uleb128 0x1b
 11229 25b8 01       		.uleb128 0x1
 11230 25b9 53       		.byte	0x53
 11231 25ba 01       		.uleb128 0x1
 11232 25bb 31       		.byte	0x31
 11233 25bc 00       		.byte	0
 11234 25bd 12       		.uleb128 0x12
 11235 25be 60040000 		.4byte	.LVL773
 11236 25c2 B5050000 		.4byte	0x5b5
 11237 25c6 00       		.byte	0
 11238 25c7 15       		.uleb128 0x15
 11239 25c8 6E040000 		.4byte	.LBB79
 11240 25cc 76000000 		.4byte	.LBE79-.LBB79
 11241 25d0 80260000 		.4byte	0x2680
 11242 25d4 16       		.uleb128 0x16
 11243 25d5 64060000 		.4byte	.LASF177
ARM GAS  C:\Users\FRANKL~1\AppData\Local\Temp\ccCAoJJX.s 			page 237


 11244 25d9 02       		.byte	0x2
 11245 25da 9504     		.2byte	0x495
 11246 25dc 8B000000 		.4byte	0x8b
 11247 25e0 02       		.uleb128 0x2
 11248 25e1 91       		.byte	0x91
 11249 25e2 64       		.sleb128 -28
 11250 25e3 17       		.uleb128 0x17
 11251 25e4 620B0000 		.4byte	.LASF175
 11252 25e8 02       		.byte	0x2
 11253 25e9 9604     		.2byte	0x496
 11254 25eb AE000000 		.4byte	0xae
 11255 25ef 3D1A0000 		.4byte	.LLST177
 11256 25f3 17       		.uleb128 0x17
 11257 25f4 1D0B0000 		.4byte	.LASF176
 11258 25f8 02       		.byte	0x2
 11259 25f9 9704     		.2byte	0x497
 11260 25fb AE000000 		.4byte	0xae
 11261 25ff 501A0000 		.4byte	.LLST178
 11262 2603 12       		.uleb128 0x12
 11263 2604 92040000 		.4byte	.LVL776
 11264 2608 B5050000 		.4byte	0x5b5
 11265 260c 1C       		.uleb128 0x1c
 11266 260d 9A040000 		.4byte	.LVL777
 11267 2611 3E340000 		.4byte	0x343e
 11268 2615 26260000 		.4byte	0x2626
 11269 2619 1B       		.uleb128 0x1b
 11270 261a 01       		.uleb128 0x1
 11271 261b 50       		.byte	0x50
 11272 261c 02       		.uleb128 0x2
 11273 261d 74       		.byte	0x74
 11274 261e 00       		.sleb128 0
 11275 261f 1B       		.uleb128 0x1b
 11276 2620 01       		.uleb128 0x1
 11277 2621 51       		.byte	0x51
 11278 2622 02       		.uleb128 0x2
 11279 2623 08       		.byte	0x8
 11280 2624 20       		.byte	0x20
 11281 2625 00       		.byte	0
 11282 2626 1C       		.uleb128 0x1c
 11283 2627 A8040000 		.4byte	.LVL779
 11284 262b 4D340000 		.4byte	0x344d
 11285 262f 3F260000 		.4byte	0x263f
 11286 2633 1B       		.uleb128 0x1b
 11287 2634 01       		.uleb128 0x1
 11288 2635 51       		.byte	0x51
 11289 2636 02       		.uleb128 0x2
 11290 2637 74       		.byte	0x74
 11291 2638 00       		.sleb128 0
 11292 2639 1B       		.uleb128 0x1b
 11293 263a 01       		.uleb128 0x1
 11294 263b 52       		.byte	0x52
 11295 263c 01       		.uleb128 0x1
 11296 263d 3A       		.byte	0x3a
 11297 263e 00       		.byte	0
 11298 263f 1C       		.uleb128 0x1c
 11299 2640 B4040000 		.4byte	.LVL781
 11300 2644 4D340000 		.4byte	0x344d
ARM GAS  C:\Users\FRANKL~1\AppData\Local\Temp\ccCAoJJX.s 			page 238


 11301 2648 58260000 		.4byte	0x2658
 11302 264c 1B       		.uleb128 0x1b
 11303 264d 01       		.uleb128 0x1
 11304 264e 51       		.byte	0x51
 11305 264f 02       		.uleb128 0x2
 11306 2650 74       		.byte	0x74
 11307 2651 00       		.sleb128 0
 11308 2652 1B       		.uleb128 0x1b
 11309 2653 01       		.uleb128 0x1
 11310 2654 52       		.byte	0x52
 11311 2655 01       		.uleb128 0x1
 11312 2656 3A       		.byte	0x3a
 11313 2657 00       		.byte	0
 11314 2658 1C       		.uleb128 0x1c
 11315 2659 C0040000 		.4byte	.LVL783
 11316 265d 8A1E0000 		.4byte	0x1e8a
 11317 2661 76260000 		.4byte	0x2676
 11318 2665 1B       		.uleb128 0x1b
 11319 2666 01       		.uleb128 0x1
 11320 2667 50       		.byte	0x50
 11321 2668 02       		.uleb128 0x2
 11322 2669 75       		.byte	0x75
 11323 266a 00       		.sleb128 0
 11324 266b 1B       		.uleb128 0x1b
 11325 266c 01       		.uleb128 0x1
 11326 266d 52       		.byte	0x52
 11327 266e 01       		.uleb128 0x1
 11328 266f 31       		.byte	0x31
 11329 2670 1B       		.uleb128 0x1b
 11330 2671 01       		.uleb128 0x1
 11331 2672 53       		.byte	0x53
 11332 2673 01       		.uleb128 0x1
 11333 2674 31       		.byte	0x31
 11334 2675 00       		.byte	0
 11335 2676 12       		.uleb128 0x12
 11336 2677 E4040000 		.4byte	.LVL785
 11337 267b B5050000 		.4byte	0x5b5
 11338 267f 00       		.byte	0
 11339 2680 15       		.uleb128 0x15
 11340 2681 F2040000 		.4byte	.LBB80
 11341 2685 3C000000 		.4byte	.LBE80-.LBB80
 11342 2689 58270000 		.4byte	0x2758
 11343 268d 16       		.uleb128 0x16
 11344 268e 64060000 		.4byte	.LASF177
 11345 2692 02       		.byte	0x2
 11346 2693 9E04     		.2byte	0x49e
 11347 2695 8B000000 		.4byte	0x8b
 11348 2699 02       		.uleb128 0x2
 11349 269a 91       		.byte	0x91
 11350 269b 64       		.sleb128 -28
 11351 269c 17       		.uleb128 0x17
 11352 269d 150B0000 		.4byte	.LASF61
 11353 26a1 02       		.byte	0x2
 11354 26a2 9F04     		.2byte	0x49f
 11355 26a4 AE000000 		.4byte	0xae
 11356 26a8 6E1A0000 		.4byte	.LLST179
 11357 26ac 17       		.uleb128 0x17
ARM GAS  C:\Users\FRANKL~1\AppData\Local\Temp\ccCAoJJX.s 			page 239


 11358 26ad 00000000 		.4byte	.LASF59
 11359 26b1 02       		.byte	0x2
 11360 26b2 A004     		.2byte	0x4a0
 11361 26b4 AE000000 		.4byte	0xae
 11362 26b8 811A0000 		.4byte	.LLST180
 11363 26bc 1C       		.uleb128 0x1c
 11364 26bd FA040000 		.4byte	.LVL788
 11365 26c1 3E340000 		.4byte	0x343e
 11366 26c5 D6260000 		.4byte	0x26d6
 11367 26c9 1B       		.uleb128 0x1b
 11368 26ca 01       		.uleb128 0x1
 11369 26cb 50       		.byte	0x50
 11370 26cc 02       		.uleb128 0x2
 11371 26cd 74       		.byte	0x74
 11372 26ce 00       		.sleb128 0
 11373 26cf 1B       		.uleb128 0x1b
 11374 26d0 01       		.uleb128 0x1
 11375 26d1 51       		.byte	0x51
 11376 26d2 02       		.uleb128 0x2
 11377 26d3 08       		.byte	0x8
 11378 26d4 20       		.byte	0x20
 11379 26d5 00       		.byte	0
 11380 26d6 1C       		.uleb128 0x1c
 11381 26d7 08050000 		.4byte	.LVL790
 11382 26db 4D340000 		.4byte	0x344d
 11383 26df EF260000 		.4byte	0x26ef
 11384 26e3 1B       		.uleb128 0x1b
 11385 26e4 01       		.uleb128 0x1
 11386 26e5 51       		.byte	0x51
 11387 26e6 02       		.uleb128 0x2
 11388 26e7 74       		.byte	0x74
 11389 26e8 00       		.sleb128 0
 11390 26e9 1B       		.uleb128 0x1b
 11391 26ea 01       		.uleb128 0x1
 11392 26eb 52       		.byte	0x52
 11393 26ec 01       		.uleb128 0x1
 11394 26ed 3A       		.byte	0x3a
 11395 26ee 00       		.byte	0
 11396 26ef 1C       		.uleb128 0x1c
 11397 26f0 14050000 		.4byte	.LVL792
 11398 26f4 4D340000 		.4byte	0x344d
 11399 26f8 08270000 		.4byte	0x2708
 11400 26fc 1B       		.uleb128 0x1b
 11401 26fd 01       		.uleb128 0x1
 11402 26fe 51       		.byte	0x51
 11403 26ff 02       		.uleb128 0x2
 11404 2700 74       		.byte	0x74
 11405 2701 00       		.sleb128 0
 11406 2702 1B       		.uleb128 0x1b
 11407 2703 01       		.uleb128 0x1
 11408 2704 52       		.byte	0x52
 11409 2705 01       		.uleb128 0x1
 11410 2706 3A       		.byte	0x3a
 11411 2707 00       		.byte	0
 11412 2708 1C       		.uleb128 0x1c
 11413 2709 1E050000 		.4byte	.LVL794
 11414 270d 0C080000 		.4byte	0x80c
ARM GAS  C:\Users\FRANKL~1\AppData\Local\Temp\ccCAoJJX.s 			page 240


 11415 2711 22270000 		.4byte	0x2722
 11416 2715 1B       		.uleb128 0x1b
 11417 2716 01       		.uleb128 0x1
 11418 2717 50       		.byte	0x50
 11419 2718 02       		.uleb128 0x2
 11420 2719 75       		.byte	0x75
 11421 271a 00       		.sleb128 0
 11422 271b 1B       		.uleb128 0x1b
 11423 271c 01       		.uleb128 0x1
 11424 271d 51       		.byte	0x51
 11425 271e 02       		.uleb128 0x2
 11426 271f 74       		.byte	0x74
 11427 2720 00       		.sleb128 0
 11428 2721 00       		.byte	0
 11429 2722 1C       		.uleb128 0x1c
 11430 2723 2A050000 		.4byte	.LVL795
 11431 2727 6D330000 		.4byte	0x336d
 11432 272b 4E270000 		.4byte	0x274e
 11433 272f 1B       		.uleb128 0x1b
 11434 2730 01       		.uleb128 0x1
 11435 2731 50       		.byte	0x50
 11436 2732 05       		.uleb128 0x5
 11437 2733 03       		.byte	0x3
 11438 2734 00000000 		.4byte	TransmitBuffer
 11439 2738 1B       		.uleb128 0x1b
 11440 2739 01       		.uleb128 0x1
 11441 273a 51       		.byte	0x51
 11442 273b 05       		.uleb128 0x5
 11443 273c 03       		.byte	0x3
 11444 273d 50030000 		.4byte	.LC46
 11445 2741 1B       		.uleb128 0x1b
 11446 2742 01       		.uleb128 0x1
 11447 2743 52       		.byte	0x52
 11448 2744 02       		.uleb128 0x2
 11449 2745 75       		.byte	0x75
 11450 2746 00       		.sleb128 0
 11451 2747 1B       		.uleb128 0x1b
 11452 2748 01       		.uleb128 0x1
 11453 2749 53       		.byte	0x53
 11454 274a 02       		.uleb128 0x2
 11455 274b 74       		.byte	0x74
 11456 274c 00       		.sleb128 0
 11457 274d 00       		.byte	0
 11458 274e 12       		.uleb128 0x12
 11459 274f 2E050000 		.4byte	.LVL796
 11460 2753 B5050000 		.4byte	0x5b5
 11461 2757 00       		.byte	0
 11462 2758 15       		.uleb128 0x15
 11463 2759 3C050000 		.4byte	.LBB81
 11464 275d 3C000000 		.4byte	.LBE81-.LBB81
 11465 2761 30280000 		.4byte	0x2830
 11466 2765 16       		.uleb128 0x16
 11467 2766 64060000 		.4byte	.LASF177
 11468 276a 02       		.byte	0x2
 11469 276b A704     		.2byte	0x4a7
 11470 276d 8B000000 		.4byte	0x8b
 11471 2771 02       		.uleb128 0x2
ARM GAS  C:\Users\FRANKL~1\AppData\Local\Temp\ccCAoJJX.s 			page 241


 11472 2772 91       		.byte	0x91
 11473 2773 64       		.sleb128 -28
 11474 2774 17       		.uleb128 0x17
 11475 2775 C4050000 		.4byte	.LASF58
 11476 2779 02       		.byte	0x2
 11477 277a A804     		.2byte	0x4a8
 11478 277c AE000000 		.4byte	0xae
 11479 2780 941A0000 		.4byte	.LLST181
 11480 2784 17       		.uleb128 0x17
 11481 2785 00000000 		.4byte	.LASF59
 11482 2789 02       		.byte	0x2
 11483 278a A904     		.2byte	0x4a9
 11484 278c AE000000 		.4byte	0xae
 11485 2790 A71A0000 		.4byte	.LLST182
 11486 2794 1C       		.uleb128 0x1c
 11487 2795 44050000 		.4byte	.LVL799
 11488 2799 3E340000 		.4byte	0x343e
 11489 279d AE270000 		.4byte	0x27ae
 11490 27a1 1B       		.uleb128 0x1b
 11491 27a2 01       		.uleb128 0x1
 11492 27a3 50       		.byte	0x50
 11493 27a4 02       		.uleb128 0x2
 11494 27a5 74       		.byte	0x74
 11495 27a6 00       		.sleb128 0
 11496 27a7 1B       		.uleb128 0x1b
 11497 27a8 01       		.uleb128 0x1
 11498 27a9 51       		.byte	0x51
 11499 27aa 02       		.uleb128 0x2
 11500 27ab 08       		.byte	0x8
 11501 27ac 20       		.byte	0x20
 11502 27ad 00       		.byte	0
 11503 27ae 1C       		.uleb128 0x1c
 11504 27af 52050000 		.4byte	.LVL801
 11505 27b3 4D340000 		.4byte	0x344d
 11506 27b7 C7270000 		.4byte	0x27c7
 11507 27bb 1B       		.uleb128 0x1b
 11508 27bc 01       		.uleb128 0x1
 11509 27bd 51       		.byte	0x51
 11510 27be 02       		.uleb128 0x2
 11511 27bf 74       		.byte	0x74
 11512 27c0 00       		.sleb128 0
 11513 27c1 1B       		.uleb128 0x1b
 11514 27c2 01       		.uleb128 0x1
 11515 27c3 52       		.byte	0x52
 11516 27c4 01       		.uleb128 0x1
 11517 27c5 3A       		.byte	0x3a
 11518 27c6 00       		.byte	0
 11519 27c7 1C       		.uleb128 0x1c
 11520 27c8 5E050000 		.4byte	.LVL803
 11521 27cc 4D340000 		.4byte	0x344d
 11522 27d0 E0270000 		.4byte	0x27e0
 11523 27d4 1B       		.uleb128 0x1b
 11524 27d5 01       		.uleb128 0x1
 11525 27d6 51       		.byte	0x51
 11526 27d7 02       		.uleb128 0x2
 11527 27d8 74       		.byte	0x74
 11528 27d9 00       		.sleb128 0
ARM GAS  C:\Users\FRANKL~1\AppData\Local\Temp\ccCAoJJX.s 			page 242


 11529 27da 1B       		.uleb128 0x1b
 11530 27db 01       		.uleb128 0x1
 11531 27dc 52       		.byte	0x52
 11532 27dd 01       		.uleb128 0x1
 11533 27de 3A       		.byte	0x3a
 11534 27df 00       		.byte	0
 11535 27e0 1C       		.uleb128 0x1c
 11536 27e1 68050000 		.4byte	.LVL805
 11537 27e5 CF070000 		.4byte	0x7cf
 11538 27e9 FA270000 		.4byte	0x27fa
 11539 27ed 1B       		.uleb128 0x1b
 11540 27ee 01       		.uleb128 0x1
 11541 27ef 50       		.byte	0x50
 11542 27f0 02       		.uleb128 0x2
 11543 27f1 75       		.byte	0x75
 11544 27f2 00       		.sleb128 0
 11545 27f3 1B       		.uleb128 0x1b
 11546 27f4 01       		.uleb128 0x1
 11547 27f5 51       		.byte	0x51
 11548 27f6 02       		.uleb128 0x2
 11549 27f7 74       		.byte	0x74
 11550 27f8 00       		.sleb128 0
 11551 27f9 00       		.byte	0
 11552 27fa 1C       		.uleb128 0x1c
 11553 27fb 74050000 		.4byte	.LVL806
 11554 27ff 6D330000 		.4byte	0x336d
 11555 2803 26280000 		.4byte	0x2826
 11556 2807 1B       		.uleb128 0x1b
 11557 2808 01       		.uleb128 0x1
 11558 2809 50       		.byte	0x50
 11559 280a 05       		.uleb128 0x5
 11560 280b 03       		.byte	0x3
 11561 280c 00000000 		.4byte	TransmitBuffer
 11562 2810 1B       		.uleb128 0x1b
 11563 2811 01       		.uleb128 0x1
 11564 2812 51       		.byte	0x51
 11565 2813 05       		.uleb128 0x5
 11566 2814 03       		.byte	0x3
 11567 2815 74030000 		.4byte	.LC48
 11568 2819 1B       		.uleb128 0x1b
 11569 281a 01       		.uleb128 0x1
 11570 281b 52       		.byte	0x52
 11571 281c 02       		.uleb128 0x2
 11572 281d 75       		.byte	0x75
 11573 281e 00       		.sleb128 0
 11574 281f 1B       		.uleb128 0x1b
 11575 2820 01       		.uleb128 0x1
 11576 2821 53       		.byte	0x53
 11577 2822 02       		.uleb128 0x2
 11578 2823 74       		.byte	0x74
 11579 2824 00       		.sleb128 0
 11580 2825 00       		.byte	0
 11581 2826 12       		.uleb128 0x12
 11582 2827 78050000 		.4byte	.LVL807
 11583 282b B5050000 		.4byte	0x5b5
 11584 282f 00       		.byte	0
 11585 2830 15       		.uleb128 0x15
ARM GAS  C:\Users\FRANKL~1\AppData\Local\Temp\ccCAoJJX.s 			page 243


 11586 2831 86050000 		.4byte	.LBB82
 11587 2835 3C000000 		.4byte	.LBE82-.LBB82
 11588 2839 08290000 		.4byte	0x2908
 11589 283d 16       		.uleb128 0x16
 11590 283e 64060000 		.4byte	.LASF177
 11591 2842 02       		.byte	0x2
 11592 2843 B004     		.2byte	0x4b0
 11593 2845 8B000000 		.4byte	0x8b
 11594 2849 02       		.uleb128 0x2
 11595 284a 91       		.byte	0x91
 11596 284b 64       		.sleb128 -28
 11597 284c 17       		.uleb128 0x17
 11598 284d 150B0000 		.4byte	.LASF61
 11599 2851 02       		.byte	0x2
 11600 2852 B104     		.2byte	0x4b1
 11601 2854 AE000000 		.4byte	0xae
 11602 2858 BA1A0000 		.4byte	.LLST183
 11603 285c 17       		.uleb128 0x17
 11604 285d 00000000 		.4byte	.LASF59
 11605 2861 02       		.byte	0x2
 11606 2862 B204     		.2byte	0x4b2
 11607 2864 AE000000 		.4byte	0xae
 11608 2868 CD1A0000 		.4byte	.LLST184
 11609 286c 1C       		.uleb128 0x1c
 11610 286d 8E050000 		.4byte	.LVL810
 11611 2871 3E340000 		.4byte	0x343e
 11612 2875 86280000 		.4byte	0x2886
 11613 2879 1B       		.uleb128 0x1b
 11614 287a 01       		.uleb128 0x1
 11615 287b 50       		.byte	0x50
 11616 287c 02       		.uleb128 0x2
 11617 287d 74       		.byte	0x74
 11618 287e 00       		.sleb128 0
 11619 287f 1B       		.uleb128 0x1b
 11620 2880 01       		.uleb128 0x1
 11621 2881 51       		.byte	0x51
 11622 2882 02       		.uleb128 0x2
 11623 2883 08       		.byte	0x8
 11624 2884 20       		.byte	0x20
 11625 2885 00       		.byte	0
 11626 2886 1C       		.uleb128 0x1c
 11627 2887 9C050000 		.4byte	.LVL812
 11628 288b 4D340000 		.4byte	0x344d
 11629 288f 9F280000 		.4byte	0x289f
 11630 2893 1B       		.uleb128 0x1b
 11631 2894 01       		.uleb128 0x1
 11632 2895 51       		.byte	0x51
 11633 2896 02       		.uleb128 0x2
 11634 2897 74       		.byte	0x74
 11635 2898 00       		.sleb128 0
 11636 2899 1B       		.uleb128 0x1b
 11637 289a 01       		.uleb128 0x1
 11638 289b 52       		.byte	0x52
 11639 289c 01       		.uleb128 0x1
 11640 289d 3A       		.byte	0x3a
 11641 289e 00       		.byte	0
 11642 289f 1C       		.uleb128 0x1c
ARM GAS  C:\Users\FRANKL~1\AppData\Local\Temp\ccCAoJJX.s 			page 244


 11643 28a0 A8050000 		.4byte	.LVL814
 11644 28a4 4D340000 		.4byte	0x344d
 11645 28a8 B8280000 		.4byte	0x28b8
 11646 28ac 1B       		.uleb128 0x1b
 11647 28ad 01       		.uleb128 0x1
 11648 28ae 51       		.byte	0x51
 11649 28af 02       		.uleb128 0x2
 11650 28b0 74       		.byte	0x74
 11651 28b1 00       		.sleb128 0
 11652 28b2 1B       		.uleb128 0x1b
 11653 28b3 01       		.uleb128 0x1
 11654 28b4 52       		.byte	0x52
 11655 28b5 01       		.uleb128 0x1
 11656 28b6 3A       		.byte	0x3a
 11657 28b7 00       		.byte	0
 11658 28b8 1C       		.uleb128 0x1c
 11659 28b9 B2050000 		.4byte	.LVL816
 11660 28bd 58080000 		.4byte	0x858
 11661 28c1 D2280000 		.4byte	0x28d2
 11662 28c5 1B       		.uleb128 0x1b
 11663 28c6 01       		.uleb128 0x1
 11664 28c7 50       		.byte	0x50
 11665 28c8 02       		.uleb128 0x2
 11666 28c9 75       		.byte	0x75
 11667 28ca 00       		.sleb128 0
 11668 28cb 1B       		.uleb128 0x1b
 11669 28cc 01       		.uleb128 0x1
 11670 28cd 51       		.byte	0x51
 11671 28ce 02       		.uleb128 0x2
 11672 28cf 74       		.byte	0x74
 11673 28d0 00       		.sleb128 0
 11674 28d1 00       		.byte	0
 11675 28d2 1C       		.uleb128 0x1c
 11676 28d3 BE050000 		.4byte	.LVL817
 11677 28d7 6D330000 		.4byte	0x336d
 11678 28db FE280000 		.4byte	0x28fe
 11679 28df 1B       		.uleb128 0x1b
 11680 28e0 01       		.uleb128 0x1
 11681 28e1 50       		.byte	0x50
 11682 28e2 05       		.uleb128 0x5
 11683 28e3 03       		.byte	0x3
 11684 28e4 00000000 		.4byte	TransmitBuffer
 11685 28e8 1B       		.uleb128 0x1b
 11686 28e9 01       		.uleb128 0x1
 11687 28ea 51       		.byte	0x51
 11688 28eb 05       		.uleb128 0x5
 11689 28ec 03       		.byte	0x3
 11690 28ed A0030000 		.4byte	.LC50
 11691 28f1 1B       		.uleb128 0x1b
 11692 28f2 01       		.uleb128 0x1
 11693 28f3 52       		.byte	0x52
 11694 28f4 02       		.uleb128 0x2
 11695 28f5 75       		.byte	0x75
 11696 28f6 00       		.sleb128 0
 11697 28f7 1B       		.uleb128 0x1b
 11698 28f8 01       		.uleb128 0x1
 11699 28f9 53       		.byte	0x53
ARM GAS  C:\Users\FRANKL~1\AppData\Local\Temp\ccCAoJJX.s 			page 245


 11700 28fa 02       		.uleb128 0x2
 11701 28fb 74       		.byte	0x74
 11702 28fc 00       		.sleb128 0
 11703 28fd 00       		.byte	0
 11704 28fe 12       		.uleb128 0x12
 11705 28ff C2050000 		.4byte	.LVL818
 11706 2903 B5050000 		.4byte	0x5b5
 11707 2907 00       		.byte	0
 11708 2908 15       		.uleb128 0x15
 11709 2909 D0050000 		.4byte	.LBB83
 11710 290d 2A000000 		.4byte	.LBE83-.LBB83
 11711 2911 AB290000 		.4byte	0x29ab
 11712 2915 16       		.uleb128 0x16
 11713 2916 64060000 		.4byte	.LASF177
 11714 291a 02       		.byte	0x2
 11715 291b B904     		.2byte	0x4b9
 11716 291d 8B000000 		.4byte	0x8b
 11717 2921 02       		.uleb128 0x2
 11718 2922 91       		.byte	0x91
 11719 2923 64       		.sleb128 -28
 11720 2924 17       		.uleb128 0x17
 11721 2925 00000000 		.4byte	.LASF59
 11722 2929 02       		.byte	0x2
 11723 292a BA04     		.2byte	0x4ba
 11724 292c AE000000 		.4byte	0xae
 11725 2930 E01A0000 		.4byte	.LLST185
 11726 2934 1C       		.uleb128 0x1c
 11727 2935 D8050000 		.4byte	.LVL821
 11728 2939 3E340000 		.4byte	0x343e
 11729 293d 4E290000 		.4byte	0x294e
 11730 2941 1B       		.uleb128 0x1b
 11731 2942 01       		.uleb128 0x1
 11732 2943 50       		.byte	0x50
 11733 2944 02       		.uleb128 0x2
 11734 2945 74       		.byte	0x74
 11735 2946 00       		.sleb128 0
 11736 2947 1B       		.uleb128 0x1b
 11737 2948 01       		.uleb128 0x1
 11738 2949 51       		.byte	0x51
 11739 294a 02       		.uleb128 0x2
 11740 294b 08       		.byte	0x8
 11741 294c 20       		.byte	0x20
 11742 294d 00       		.byte	0
 11743 294e 1C       		.uleb128 0x1c
 11744 294f E4050000 		.4byte	.LVL822
 11745 2953 4D340000 		.4byte	0x344d
 11746 2957 67290000 		.4byte	0x2967
 11747 295b 1B       		.uleb128 0x1b
 11748 295c 01       		.uleb128 0x1
 11749 295d 51       		.byte	0x51
 11750 295e 02       		.uleb128 0x2
 11751 295f 91       		.byte	0x91
 11752 2960 64       		.sleb128 -28
 11753 2961 1B       		.uleb128 0x1b
 11754 2962 01       		.uleb128 0x1
 11755 2963 52       		.byte	0x52
 11756 2964 01       		.uleb128 0x1
ARM GAS  C:\Users\FRANKL~1\AppData\Local\Temp\ccCAoJJX.s 			page 246


 11757 2965 3A       		.byte	0x3a
 11758 2966 00       		.byte	0
 11759 2967 1C       		.uleb128 0x1c
 11760 2968 EC050000 		.4byte	.LVL824
 11761 296c 63090000 		.4byte	0x963
 11762 2970 7B290000 		.4byte	0x297b
 11763 2974 1B       		.uleb128 0x1b
 11764 2975 01       		.uleb128 0x1
 11765 2976 50       		.byte	0x50
 11766 2977 02       		.uleb128 0x2
 11767 2978 74       		.byte	0x74
 11768 2979 00       		.sleb128 0
 11769 297a 00       		.byte	0
 11770 297b 1C       		.uleb128 0x1c
 11771 297c F6050000 		.4byte	.LVL825
 11772 2980 6D330000 		.4byte	0x336d
 11773 2984 A1290000 		.4byte	0x29a1
 11774 2988 1B       		.uleb128 0x1b
 11775 2989 01       		.uleb128 0x1
 11776 298a 50       		.byte	0x50
 11777 298b 05       		.uleb128 0x5
 11778 298c 03       		.byte	0x3
 11779 298d 00000000 		.4byte	TransmitBuffer
 11780 2991 1B       		.uleb128 0x1b
 11781 2992 01       		.uleb128 0x1
 11782 2993 51       		.byte	0x51
 11783 2994 05       		.uleb128 0x5
 11784 2995 03       		.byte	0x3
 11785 2996 D4030000 		.4byte	.LC52
 11786 299a 1B       		.uleb128 0x1b
 11787 299b 01       		.uleb128 0x1
 11788 299c 52       		.byte	0x52
 11789 299d 02       		.uleb128 0x2
 11790 299e 74       		.byte	0x74
 11791 299f 00       		.sleb128 0
 11792 29a0 00       		.byte	0
 11793 29a1 12       		.uleb128 0x12
 11794 29a2 FA050000 		.4byte	.LVL826
 11795 29a6 B5050000 		.4byte	0x5b5
 11796 29aa 00       		.byte	0
 11797 29ab 15       		.uleb128 0x15
 11798 29ac 38060000 		.4byte	.LBB84
 11799 29b0 2A000000 		.4byte	.LBE84-.LBB84
 11800 29b4 4E2A0000 		.4byte	0x2a4e
 11801 29b8 16       		.uleb128 0x16
 11802 29b9 64060000 		.4byte	.LASF177
 11803 29bd 02       		.byte	0x2
 11804 29be C704     		.2byte	0x4c7
 11805 29c0 8B000000 		.4byte	0x8b
 11806 29c4 02       		.uleb128 0x2
 11807 29c5 91       		.byte	0x91
 11808 29c6 64       		.sleb128 -28
 11809 29c7 17       		.uleb128 0x17
 11810 29c8 150B0000 		.4byte	.LASF61
 11811 29cc 02       		.byte	0x2
 11812 29cd C804     		.2byte	0x4c8
 11813 29cf AE000000 		.4byte	0xae
ARM GAS  C:\Users\FRANKL~1\AppData\Local\Temp\ccCAoJJX.s 			page 247


 11814 29d3 F31A0000 		.4byte	.LLST186
 11815 29d7 1C       		.uleb128 0x1c
 11816 29d8 40060000 		.4byte	.LVL834
 11817 29dc 3E340000 		.4byte	0x343e
 11818 29e0 F1290000 		.4byte	0x29f1
 11819 29e4 1B       		.uleb128 0x1b
 11820 29e5 01       		.uleb128 0x1
 11821 29e6 50       		.byte	0x50
 11822 29e7 02       		.uleb128 0x2
 11823 29e8 74       		.byte	0x74
 11824 29e9 00       		.sleb128 0
 11825 29ea 1B       		.uleb128 0x1b
 11826 29eb 01       		.uleb128 0x1
 11827 29ec 51       		.byte	0x51
 11828 29ed 02       		.uleb128 0x2
 11829 29ee 08       		.byte	0x8
 11830 29ef 20       		.byte	0x20
 11831 29f0 00       		.byte	0
 11832 29f1 1C       		.uleb128 0x1c
 11833 29f2 4C060000 		.4byte	.LVL835
 11834 29f6 4D340000 		.4byte	0x344d
 11835 29fa 0A2A0000 		.4byte	0x2a0a
 11836 29fe 1B       		.uleb128 0x1b
 11837 29ff 01       		.uleb128 0x1
 11838 2a00 51       		.byte	0x51
 11839 2a01 02       		.uleb128 0x2
 11840 2a02 91       		.byte	0x91
 11841 2a03 64       		.sleb128 -28
 11842 2a04 1B       		.uleb128 0x1b
 11843 2a05 01       		.uleb128 0x1
 11844 2a06 52       		.byte	0x52
 11845 2a07 01       		.uleb128 0x1
 11846 2a08 3A       		.byte	0x3a
 11847 2a09 00       		.byte	0
 11848 2a0a 1C       		.uleb128 0x1c
 11849 2a0b 54060000 		.4byte	.LVL837
 11850 2a0f A4080000 		.4byte	0x8a4
 11851 2a13 1E2A0000 		.4byte	0x2a1e
 11852 2a17 1B       		.uleb128 0x1b
 11853 2a18 01       		.uleb128 0x1
 11854 2a19 50       		.byte	0x50
 11855 2a1a 02       		.uleb128 0x2
 11856 2a1b 74       		.byte	0x74
 11857 2a1c 00       		.sleb128 0
 11858 2a1d 00       		.byte	0
 11859 2a1e 1C       		.uleb128 0x1c
 11860 2a1f 5E060000 		.4byte	.LVL838
 11861 2a23 6D330000 		.4byte	0x336d
 11862 2a27 442A0000 		.4byte	0x2a44
 11863 2a2b 1B       		.uleb128 0x1b
 11864 2a2c 01       		.uleb128 0x1
 11865 2a2d 50       		.byte	0x50
 11866 2a2e 05       		.uleb128 0x5
 11867 2a2f 03       		.byte	0x3
 11868 2a30 00000000 		.4byte	TransmitBuffer
 11869 2a34 1B       		.uleb128 0x1b
 11870 2a35 01       		.uleb128 0x1
ARM GAS  C:\Users\FRANKL~1\AppData\Local\Temp\ccCAoJJX.s 			page 248


 11871 2a36 51       		.byte	0x51
 11872 2a37 05       		.uleb128 0x5
 11873 2a38 03       		.byte	0x3
 11874 2a39 48040000 		.4byte	.LC56
 11875 2a3d 1B       		.uleb128 0x1b
 11876 2a3e 01       		.uleb128 0x1
 11877 2a3f 52       		.byte	0x52
 11878 2a40 02       		.uleb128 0x2
 11879 2a41 74       		.byte	0x74
 11880 2a42 00       		.sleb128 0
 11881 2a43 00       		.byte	0
 11882 2a44 12       		.uleb128 0x12
 11883 2a45 62060000 		.4byte	.LVL839
 11884 2a49 B5050000 		.4byte	0x5b5
 11885 2a4d 00       		.byte	0
 11886 2a4e 15       		.uleb128 0x15
 11887 2a4f 70060000 		.4byte	.LBB85
 11888 2a53 2A000000 		.4byte	.LBE85-.LBB85
 11889 2a57 F12A0000 		.4byte	0x2af1
 11890 2a5b 16       		.uleb128 0x16
 11891 2a5c 64060000 		.4byte	.LASF177
 11892 2a60 02       		.byte	0x2
 11893 2a61 CF04     		.2byte	0x4cf
 11894 2a63 8B000000 		.4byte	0x8b
 11895 2a67 02       		.uleb128 0x2
 11896 2a68 91       		.byte	0x91
 11897 2a69 64       		.sleb128 -28
 11898 2a6a 17       		.uleb128 0x17
 11899 2a6b 00000000 		.4byte	.LASF59
 11900 2a6f 02       		.byte	0x2
 11901 2a70 D004     		.2byte	0x4d0
 11902 2a72 AE000000 		.4byte	0xae
 11903 2a76 061B0000 		.4byte	.LLST187
 11904 2a7a 1C       		.uleb128 0x1c
 11905 2a7b 78060000 		.4byte	.LVL842
 11906 2a7f 3E340000 		.4byte	0x343e
 11907 2a83 942A0000 		.4byte	0x2a94
 11908 2a87 1B       		.uleb128 0x1b
 11909 2a88 01       		.uleb128 0x1
 11910 2a89 50       		.byte	0x50
 11911 2a8a 02       		.uleb128 0x2
 11912 2a8b 74       		.byte	0x74
 11913 2a8c 00       		.sleb128 0
 11914 2a8d 1B       		.uleb128 0x1b
 11915 2a8e 01       		.uleb128 0x1
 11916 2a8f 51       		.byte	0x51
 11917 2a90 02       		.uleb128 0x2
 11918 2a91 08       		.byte	0x8
 11919 2a92 20       		.byte	0x20
 11920 2a93 00       		.byte	0
 11921 2a94 1C       		.uleb128 0x1c
 11922 2a95 84060000 		.4byte	.LVL843
 11923 2a99 4D340000 		.4byte	0x344d
 11924 2a9d AD2A0000 		.4byte	0x2aad
 11925 2aa1 1B       		.uleb128 0x1b
 11926 2aa2 01       		.uleb128 0x1
 11927 2aa3 51       		.byte	0x51
ARM GAS  C:\Users\FRANKL~1\AppData\Local\Temp\ccCAoJJX.s 			page 249


 11928 2aa4 02       		.uleb128 0x2
 11929 2aa5 91       		.byte	0x91
 11930 2aa6 64       		.sleb128 -28
 11931 2aa7 1B       		.uleb128 0x1b
 11932 2aa8 01       		.uleb128 0x1
 11933 2aa9 52       		.byte	0x52
 11934 2aaa 01       		.uleb128 0x1
 11935 2aab 3A       		.byte	0x3a
 11936 2aac 00       		.byte	0
 11937 2aad 1C       		.uleb128 0x1c
 11938 2aae 8C060000 		.4byte	.LVL845
 11939 2ab2 AE090000 		.4byte	0x9ae
 11940 2ab6 C12A0000 		.4byte	0x2ac1
 11941 2aba 1B       		.uleb128 0x1b
 11942 2abb 01       		.uleb128 0x1
 11943 2abc 50       		.byte	0x50
 11944 2abd 02       		.uleb128 0x2
 11945 2abe 74       		.byte	0x74
 11946 2abf 00       		.sleb128 0
 11947 2ac0 00       		.byte	0
 11948 2ac1 1C       		.uleb128 0x1c
 11949 2ac2 96060000 		.4byte	.LVL846
 11950 2ac6 6D330000 		.4byte	0x336d
 11951 2aca E72A0000 		.4byte	0x2ae7
 11952 2ace 1B       		.uleb128 0x1b
 11953 2acf 01       		.uleb128 0x1
 11954 2ad0 50       		.byte	0x50
 11955 2ad1 05       		.uleb128 0x5
 11956 2ad2 03       		.byte	0x3
 11957 2ad3 00000000 		.4byte	TransmitBuffer
 11958 2ad7 1B       		.uleb128 0x1b
 11959 2ad8 01       		.uleb128 0x1
 11960 2ad9 51       		.byte	0x51
 11961 2ada 05       		.uleb128 0x5
 11962 2adb 03       		.byte	0x3
 11963 2adc 80040000 		.4byte	.LC58
 11964 2ae0 1B       		.uleb128 0x1b
 11965 2ae1 01       		.uleb128 0x1
 11966 2ae2 52       		.byte	0x52
 11967 2ae3 02       		.uleb128 0x2
 11968 2ae4 74       		.byte	0x74
 11969 2ae5 00       		.sleb128 0
 11970 2ae6 00       		.byte	0
 11971 2ae7 12       		.uleb128 0x12
 11972 2ae8 9A060000 		.4byte	.LVL847
 11973 2aec B5050000 		.4byte	0x5b5
 11974 2af0 00       		.byte	0
 11975 2af1 15       		.uleb128 0x15
 11976 2af2 30070000 		.4byte	.LBB86
 11977 2af6 42000000 		.4byte	.LBE86-.LBB86
 11978 2afa 5A2B0000 		.4byte	0x2b5a
 11979 2afe 16       		.uleb128 0x16
 11980 2aff 64060000 		.4byte	.LASF177
 11981 2b03 02       		.byte	0x2
 11982 2b04 DD04     		.2byte	0x4dd
 11983 2b06 8B000000 		.4byte	0x8b
 11984 2b0a 02       		.uleb128 0x2
ARM GAS  C:\Users\FRANKL~1\AppData\Local\Temp\ccCAoJJX.s 			page 250


 11985 2b0b 91       		.byte	0x91
 11986 2b0c 64       		.sleb128 -28
 11987 2b0d 17       		.uleb128 0x17
 11988 2b0e 7C070000 		.4byte	.LASF81
 11989 2b12 02       		.byte	0x2
 11990 2b13 DE04     		.2byte	0x4de
 11991 2b15 C6000000 		.4byte	0xc6
 11992 2b19 191B0000 		.4byte	.LLST188
 11993 2b1d 1C       		.uleb128 0x1c
 11994 2b1e 38070000 		.4byte	.LVL855
 11995 2b22 3E340000 		.4byte	0x343e
 11996 2b26 372B0000 		.4byte	0x2b37
 11997 2b2a 1B       		.uleb128 0x1b
 11998 2b2b 01       		.uleb128 0x1
 11999 2b2c 50       		.byte	0x50
 12000 2b2d 02       		.uleb128 0x2
 12001 2b2e 74       		.byte	0x74
 12002 2b2f 00       		.sleb128 0
 12003 2b30 1B       		.uleb128 0x1b
 12004 2b31 01       		.uleb128 0x1
 12005 2b32 51       		.byte	0x51
 12006 2b33 02       		.uleb128 0x2
 12007 2b34 08       		.byte	0x8
 12008 2b35 20       		.byte	0x20
 12009 2b36 00       		.byte	0
 12010 2b37 1C       		.uleb128 0x1c
 12011 2b38 44070000 		.4byte	.LVL856
 12012 2b3c 4D340000 		.4byte	0x344d
 12013 2b40 502B0000 		.4byte	0x2b50
 12014 2b44 1B       		.uleb128 0x1b
 12015 2b45 01       		.uleb128 0x1
 12016 2b46 51       		.byte	0x51
 12017 2b47 02       		.uleb128 0x2
 12018 2b48 91       		.byte	0x91
 12019 2b49 64       		.sleb128 -28
 12020 2b4a 1B       		.uleb128 0x1b
 12021 2b4b 01       		.uleb128 0x1
 12022 2b4c 52       		.byte	0x52
 12023 2b4d 01       		.uleb128 0x1
 12024 2b4e 3A       		.byte	0x3a
 12025 2b4f 00       		.byte	0
 12026 2b50 12       		.uleb128 0x12
 12027 2b51 72070000 		.4byte	.LVL859
 12028 2b55 B5050000 		.4byte	0x5b5
 12029 2b59 00       		.byte	0
 12030 2b5a 1C       		.uleb128 0x1c
 12031 2b5b B2000000 		.4byte	.LVL689
 12032 2b5f DE320000 		.4byte	0x32de
 12033 2b63 772B0000 		.4byte	0x2b77
 12034 2b67 1B       		.uleb128 0x1b
 12035 2b68 01       		.uleb128 0x1
 12036 2b69 50       		.byte	0x50
 12037 2b6a 02       		.uleb128 0x2
 12038 2b6b 74       		.byte	0x74
 12039 2b6c 00       		.sleb128 0
 12040 2b6d 1B       		.uleb128 0x1b
 12041 2b6e 01       		.uleb128 0x1
ARM GAS  C:\Users\FRANKL~1\AppData\Local\Temp\ccCAoJJX.s 			page 251


 12042 2b6f 51       		.byte	0x51
 12043 2b70 05       		.uleb128 0x5
 12044 2b71 03       		.byte	0x3
 12045 2b72 04010000 		.4byte	.LC16
 12046 2b76 00       		.byte	0
 12047 2b77 1C       		.uleb128 0x1c
 12048 2b78 C0000000 		.4byte	.LVL690
 12049 2b7c A6180000 		.4byte	0x18a6
 12050 2b80 952B0000 		.4byte	0x2b95
 12051 2b84 1B       		.uleb128 0x1b
 12052 2b85 01       		.uleb128 0x1
 12053 2b86 50       		.byte	0x50
 12054 2b87 02       		.uleb128 0x2
 12055 2b88 08       		.byte	0x8
 12056 2b89 64       		.byte	0x64
 12057 2b8a 1B       		.uleb128 0x1b
 12058 2b8b 01       		.uleb128 0x1
 12059 2b8c 51       		.byte	0x51
 12060 2b8d 01       		.uleb128 0x1
 12061 2b8e 31       		.byte	0x31
 12062 2b8f 1B       		.uleb128 0x1b
 12063 2b90 01       		.uleb128 0x1
 12064 2b91 52       		.byte	0x52
 12065 2b92 01       		.uleb128 0x1
 12066 2b93 3A       		.byte	0x3a
 12067 2b94 00       		.byte	0
 12068 2b95 1C       		.uleb128 0x1c
 12069 2b96 CA000000 		.4byte	.LVL691
 12070 2b9a DE320000 		.4byte	0x32de
 12071 2b9e B22B0000 		.4byte	0x2bb2
 12072 2ba2 1B       		.uleb128 0x1b
 12073 2ba3 01       		.uleb128 0x1
 12074 2ba4 50       		.byte	0x50
 12075 2ba5 02       		.uleb128 0x2
 12076 2ba6 74       		.byte	0x74
 12077 2ba7 00       		.sleb128 0
 12078 2ba8 1B       		.uleb128 0x1b
 12079 2ba9 01       		.uleb128 0x1
 12080 2baa 51       		.byte	0x51
 12081 2bab 05       		.uleb128 0x5
 12082 2bac 03       		.byte	0x3
 12083 2bad 10010000 		.4byte	.LC17
 12084 2bb1 00       		.byte	0
 12085 2bb2 1C       		.uleb128 0x1c
 12086 2bb3 F0000000 		.4byte	.LVL695
 12087 2bb7 DE320000 		.4byte	0x32de
 12088 2bbb CF2B0000 		.4byte	0x2bcf
 12089 2bbf 1B       		.uleb128 0x1b
 12090 2bc0 01       		.uleb128 0x1
 12091 2bc1 50       		.byte	0x50
 12092 2bc2 02       		.uleb128 0x2
 12093 2bc3 74       		.byte	0x74
 12094 2bc4 00       		.sleb128 0
 12095 2bc5 1B       		.uleb128 0x1b
 12096 2bc6 01       		.uleb128 0x1
 12097 2bc7 51       		.byte	0x51
 12098 2bc8 05       		.uleb128 0x5
ARM GAS  C:\Users\FRANKL~1\AppData\Local\Temp\ccCAoJJX.s 			page 252


 12099 2bc9 03       		.byte	0x3
 12100 2bca 24010000 		.4byte	.LC18
 12101 2bce 00       		.byte	0
 12102 2bcf 12       		.uleb128 0x12
 12103 2bd0 F8000000 		.4byte	.LVL696
 12104 2bd4 C3190000 		.4byte	0x19c3
 12105 2bd8 1C       		.uleb128 0x1c
 12106 2bd9 02010000 		.4byte	.LVL697
 12107 2bdd DE320000 		.4byte	0x32de
 12108 2be1 F52B0000 		.4byte	0x2bf5
 12109 2be5 1B       		.uleb128 0x1b
 12110 2be6 01       		.uleb128 0x1
 12111 2be7 50       		.byte	0x50
 12112 2be8 02       		.uleb128 0x2
 12113 2be9 74       		.byte	0x74
 12114 2bea 00       		.sleb128 0
 12115 2beb 1B       		.uleb128 0x1b
 12116 2bec 01       		.uleb128 0x1
 12117 2bed 51       		.byte	0x51
 12118 2bee 05       		.uleb128 0x5
 12119 2bef 03       		.byte	0x3
 12120 2bf0 34010000 		.4byte	.LC19
 12121 2bf4 00       		.byte	0
 12122 2bf5 1C       		.uleb128 0x1c
 12123 2bf6 0C010000 		.4byte	.LVL698
 12124 2bfa 4A1A0000 		.4byte	0x1a4a
 12125 2bfe 082C0000 		.4byte	0x2c08
 12126 2c02 1B       		.uleb128 0x1b
 12127 2c03 01       		.uleb128 0x1
 12128 2c04 50       		.byte	0x50
 12129 2c05 01       		.uleb128 0x1
 12130 2c06 30       		.byte	0x30
 12131 2c07 00       		.byte	0
 12132 2c08 1C       		.uleb128 0x1c
 12133 2c09 16010000 		.4byte	.LVL699
 12134 2c0d DE320000 		.4byte	0x32de
 12135 2c11 252C0000 		.4byte	0x2c25
 12136 2c15 1B       		.uleb128 0x1b
 12137 2c16 01       		.uleb128 0x1
 12138 2c17 50       		.byte	0x50
 12139 2c18 02       		.uleb128 0x2
 12140 2c19 74       		.byte	0x74
 12141 2c1a 00       		.sleb128 0
 12142 2c1b 1B       		.uleb128 0x1b
 12143 2c1c 01       		.uleb128 0x1
 12144 2c1d 51       		.byte	0x51
 12145 2c1e 05       		.uleb128 0x5
 12146 2c1f 03       		.byte	0x3
 12147 2c20 48010000 		.4byte	.LC20
 12148 2c24 00       		.byte	0
 12149 2c25 1C       		.uleb128 0x1c
 12150 2c26 20010000 		.4byte	.LVL700
 12151 2c2a 4A1A0000 		.4byte	0x1a4a
 12152 2c2e 382C0000 		.4byte	0x2c38
 12153 2c32 1B       		.uleb128 0x1b
 12154 2c33 01       		.uleb128 0x1
 12155 2c34 50       		.byte	0x50
ARM GAS  C:\Users\FRANKL~1\AppData\Local\Temp\ccCAoJJX.s 			page 253


 12156 2c35 01       		.uleb128 0x1
 12157 2c36 31       		.byte	0x31
 12158 2c37 00       		.byte	0
 12159 2c38 1C       		.uleb128 0x1c
 12160 2c39 2A010000 		.4byte	.LVL701
 12161 2c3d DE320000 		.4byte	0x32de
 12162 2c41 552C0000 		.4byte	0x2c55
 12163 2c45 1B       		.uleb128 0x1b
 12164 2c46 01       		.uleb128 0x1
 12165 2c47 50       		.byte	0x50
 12166 2c48 02       		.uleb128 0x2
 12167 2c49 74       		.byte	0x74
 12168 2c4a 00       		.sleb128 0
 12169 2c4b 1B       		.uleb128 0x1b
 12170 2c4c 01       		.uleb128 0x1
 12171 2c4d 51       		.byte	0x51
 12172 2c4e 05       		.uleb128 0x5
 12173 2c4f 03       		.byte	0x3
 12174 2c50 64010000 		.4byte	.LC21
 12175 2c54 00       		.byte	0
 12176 2c55 1C       		.uleb128 0x1c
 12177 2c56 36010000 		.4byte	.LVL702
 12178 2c5a 6B170000 		.4byte	0x176b
 12179 2c5e 6A2C0000 		.4byte	0x2c6a
 12180 2c62 1B       		.uleb128 0x1b
 12181 2c63 01       		.uleb128 0x1
 12182 2c64 50       		.byte	0x50
 12183 2c65 03       		.uleb128 0x3
 12184 2c66 0A       		.byte	0xa
 12185 2c67 2C01     		.2byte	0x12c
 12186 2c69 00       		.byte	0
 12187 2c6a 1C       		.uleb128 0x1c
 12188 2c6b 40010000 		.4byte	.LVL703
 12189 2c6f DE320000 		.4byte	0x32de
 12190 2c73 872C0000 		.4byte	0x2c87
 12191 2c77 1B       		.uleb128 0x1b
 12192 2c78 01       		.uleb128 0x1
 12193 2c79 50       		.byte	0x50
 12194 2c7a 02       		.uleb128 0x2
 12195 2c7b 74       		.byte	0x74
 12196 2c7c 00       		.sleb128 0
 12197 2c7d 1B       		.uleb128 0x1b
 12198 2c7e 01       		.uleb128 0x1
 12199 2c7f 51       		.byte	0x51
 12200 2c80 05       		.uleb128 0x5
 12201 2c81 03       		.byte	0x3
 12202 2c82 78010000 		.4byte	.LC22
 12203 2c86 00       		.byte	0
 12204 2c87 1C       		.uleb128 0x1c
 12205 2c88 68010000 		.4byte	.LVL707
 12206 2c8c DE320000 		.4byte	0x32de
 12207 2c90 A42C0000 		.4byte	0x2ca4
 12208 2c94 1B       		.uleb128 0x1b
 12209 2c95 01       		.uleb128 0x1
 12210 2c96 50       		.byte	0x50
 12211 2c97 02       		.uleb128 0x2
 12212 2c98 74       		.byte	0x74
ARM GAS  C:\Users\FRANKL~1\AppData\Local\Temp\ccCAoJJX.s 			page 254


 12213 2c99 00       		.sleb128 0
 12214 2c9a 1B       		.uleb128 0x1b
 12215 2c9b 01       		.uleb128 0x1
 12216 2c9c 51       		.byte	0x51
 12217 2c9d 05       		.uleb128 0x5
 12218 2c9e 03       		.byte	0x3
 12219 2c9f 88010000 		.4byte	.LC23
 12220 2ca3 00       		.byte	0
 12221 2ca4 1C       		.uleb128 0x1c
 12222 2ca5 90010000 		.4byte	.LVL711
 12223 2ca9 DE320000 		.4byte	0x32de
 12224 2cad C12C0000 		.4byte	0x2cc1
 12225 2cb1 1B       		.uleb128 0x1b
 12226 2cb2 01       		.uleb128 0x1
 12227 2cb3 50       		.byte	0x50
 12228 2cb4 02       		.uleb128 0x2
 12229 2cb5 74       		.byte	0x74
 12230 2cb6 00       		.sleb128 0
 12231 2cb7 1B       		.uleb128 0x1b
 12232 2cb8 01       		.uleb128 0x1
 12233 2cb9 51       		.byte	0x51
 12234 2cba 05       		.uleb128 0x5
 12235 2cbb 03       		.byte	0x3
 12236 2cbc 98010000 		.4byte	.LC24
 12237 2cc0 00       		.byte	0
 12238 2cc1 1C       		.uleb128 0x1c
 12239 2cc2 B8010000 		.4byte	.LVL715
 12240 2cc6 DE320000 		.4byte	0x32de
 12241 2cca DE2C0000 		.4byte	0x2cde
 12242 2cce 1B       		.uleb128 0x1b
 12243 2ccf 01       		.uleb128 0x1
 12244 2cd0 50       		.byte	0x50
 12245 2cd1 02       		.uleb128 0x2
 12246 2cd2 74       		.byte	0x74
 12247 2cd3 00       		.sleb128 0
 12248 2cd4 1B       		.uleb128 0x1b
 12249 2cd5 01       		.uleb128 0x1
 12250 2cd6 51       		.byte	0x51
 12251 2cd7 05       		.uleb128 0x5
 12252 2cd8 03       		.byte	0x3
 12253 2cd9 A8010000 		.4byte	.LC25
 12254 2cdd 00       		.byte	0
 12255 2cde 1C       		.uleb128 0x1c
 12256 2cdf E0010000 		.4byte	.LVL719
 12257 2ce3 DE320000 		.4byte	0x32de
 12258 2ce7 FB2C0000 		.4byte	0x2cfb
 12259 2ceb 1B       		.uleb128 0x1b
 12260 2cec 01       		.uleb128 0x1
 12261 2ced 50       		.byte	0x50
 12262 2cee 02       		.uleb128 0x2
 12263 2cef 74       		.byte	0x74
 12264 2cf0 00       		.sleb128 0
 12265 2cf1 1B       		.uleb128 0x1b
 12266 2cf2 01       		.uleb128 0x1
 12267 2cf3 51       		.byte	0x51
 12268 2cf4 05       		.uleb128 0x5
 12269 2cf5 03       		.byte	0x3
ARM GAS  C:\Users\FRANKL~1\AppData\Local\Temp\ccCAoJJX.s 			page 255


 12270 2cf6 B8010000 		.4byte	.LC26
 12271 2cfa 00       		.byte	0
 12272 2cfb 1C       		.uleb128 0x1c
 12273 2cfc 0A020000 		.4byte	.LVL723
 12274 2d00 DE320000 		.4byte	0x32de
 12275 2d04 182D0000 		.4byte	0x2d18
 12276 2d08 1B       		.uleb128 0x1b
 12277 2d09 01       		.uleb128 0x1
 12278 2d0a 50       		.byte	0x50
 12279 2d0b 02       		.uleb128 0x2
 12280 2d0c 74       		.byte	0x74
 12281 2d0d 00       		.sleb128 0
 12282 2d0e 1B       		.uleb128 0x1b
 12283 2d0f 01       		.uleb128 0x1
 12284 2d10 51       		.byte	0x51
 12285 2d11 05       		.uleb128 0x5
 12286 2d12 03       		.byte	0x3
 12287 2d13 C8010000 		.4byte	.LC28
 12288 2d17 00       		.byte	0
 12289 2d18 1C       		.uleb128 0x1c
 12290 2d19 34020000 		.4byte	.LVL727
 12291 2d1d DE320000 		.4byte	0x32de
 12292 2d21 352D0000 		.4byte	0x2d35
 12293 2d25 1B       		.uleb128 0x1b
 12294 2d26 01       		.uleb128 0x1
 12295 2d27 50       		.byte	0x50
 12296 2d28 02       		.uleb128 0x2
 12297 2d29 74       		.byte	0x74
 12298 2d2a 00       		.sleb128 0
 12299 2d2b 1B       		.uleb128 0x1b
 12300 2d2c 01       		.uleb128 0x1
 12301 2d2d 51       		.byte	0x51
 12302 2d2e 05       		.uleb128 0x5
 12303 2d2f 03       		.byte	0x3
 12304 2d30 D4010000 		.4byte	.LC29
 12305 2d34 00       		.byte	0
 12306 2d35 1C       		.uleb128 0x1c
 12307 2d36 76020000 		.4byte	.LVL737
 12308 2d3a DE320000 		.4byte	0x32de
 12309 2d3e 522D0000 		.4byte	0x2d52
 12310 2d42 1B       		.uleb128 0x1b
 12311 2d43 01       		.uleb128 0x1
 12312 2d44 50       		.byte	0x50
 12313 2d45 02       		.uleb128 0x2
 12314 2d46 74       		.byte	0x74
 12315 2d47 00       		.sleb128 0
 12316 2d48 1B       		.uleb128 0x1b
 12317 2d49 01       		.uleb128 0x1
 12318 2d4a 51       		.byte	0x51
 12319 2d4b 05       		.uleb128 0x5
 12320 2d4c 03       		.byte	0x3
 12321 2d4d F8010000 		.4byte	.LC31
 12322 2d51 00       		.byte	0
 12323 2d52 1C       		.uleb128 0x1c
 12324 2d53 B8020000 		.4byte	.LVL747
 12325 2d57 DE320000 		.4byte	0x32de
 12326 2d5b 6F2D0000 		.4byte	0x2d6f
ARM GAS  C:\Users\FRANKL~1\AppData\Local\Temp\ccCAoJJX.s 			page 256


 12327 2d5f 1B       		.uleb128 0x1b
 12328 2d60 01       		.uleb128 0x1
 12329 2d61 50       		.byte	0x50
 12330 2d62 02       		.uleb128 0x2
 12331 2d63 74       		.byte	0x74
 12332 2d64 00       		.sleb128 0
 12333 2d65 1B       		.uleb128 0x1b
 12334 2d66 01       		.uleb128 0x1
 12335 2d67 51       		.byte	0x51
 12336 2d68 05       		.uleb128 0x5
 12337 2d69 03       		.byte	0x3
 12338 2d6a 1C020000 		.4byte	.LC33
 12339 2d6e 00       		.byte	0
 12340 2d6f 12       		.uleb128 0x12
 12341 2d70 D2020000 		.4byte	.LVL749
 12342 2d74 B5050000 		.4byte	0x5b5
 12343 2d78 1C       		.uleb128 0x1c
 12344 2d79 DA020000 		.4byte	.LVL750
 12345 2d7d 4F1D0000 		.4byte	0x1d4f
 12346 2d81 902D0000 		.4byte	0x2d90
 12347 2d85 1B       		.uleb128 0x1b
 12348 2d86 01       		.uleb128 0x1
 12349 2d87 50       		.byte	0x50
 12350 2d88 01       		.uleb128 0x1
 12351 2d89 30       		.byte	0x30
 12352 2d8a 1B       		.uleb128 0x1b
 12353 2d8b 01       		.uleb128 0x1
 12354 2d8c 51       		.byte	0x51
 12355 2d8d 01       		.uleb128 0x1
 12356 2d8e 30       		.byte	0x30
 12357 2d8f 00       		.byte	0
 12358 2d90 12       		.uleb128 0x12
 12359 2d91 EE020000 		.4byte	.LVL751
 12360 2d95 B5050000 		.4byte	0x5b5
 12361 2d99 1C       		.uleb128 0x1c
 12362 2d9a F8020000 		.4byte	.LVL753
 12363 2d9e DE320000 		.4byte	0x32de
 12364 2da2 B62D0000 		.4byte	0x2db6
 12365 2da6 1B       		.uleb128 0x1b
 12366 2da7 01       		.uleb128 0x1
 12367 2da8 50       		.byte	0x50
 12368 2da9 02       		.uleb128 0x2
 12369 2daa 74       		.byte	0x74
 12370 2dab 00       		.sleb128 0
 12371 2dac 1B       		.uleb128 0x1b
 12372 2dad 01       		.uleb128 0x1
 12373 2dae 51       		.byte	0x51
 12374 2daf 05       		.uleb128 0x5
 12375 2db0 03       		.byte	0x3
 12376 2db1 4C020000 		.4byte	.LC36
 12377 2db5 00       		.byte	0
 12378 2db6 1C       		.uleb128 0x1c
 12379 2db7 EC030000 		.4byte	.LVL764
 12380 2dbb DE320000 		.4byte	0x32de
 12381 2dbf D32D0000 		.4byte	0x2dd3
 12382 2dc3 1B       		.uleb128 0x1b
 12383 2dc4 01       		.uleb128 0x1
ARM GAS  C:\Users\FRANKL~1\AppData\Local\Temp\ccCAoJJX.s 			page 257


 12384 2dc5 50       		.byte	0x50
 12385 2dc6 02       		.uleb128 0x2
 12386 2dc7 74       		.byte	0x74
 12387 2dc8 00       		.sleb128 0
 12388 2dc9 1B       		.uleb128 0x1b
 12389 2dca 01       		.uleb128 0x1
 12390 2dcb 51       		.byte	0x51
 12391 2dcc 05       		.uleb128 0x5
 12392 2dcd 03       		.byte	0x3
 12393 2dce 90020000 		.4byte	.LC39
 12394 2dd2 00       		.byte	0
 12395 2dd3 1C       		.uleb128 0x1c
 12396 2dd4 6A040000 		.4byte	.LVL775
 12397 2dd8 DE320000 		.4byte	0x32de
 12398 2ddc F02D0000 		.4byte	0x2df0
 12399 2de0 1B       		.uleb128 0x1b
 12400 2de1 01       		.uleb128 0x1
 12401 2de2 50       		.byte	0x50
 12402 2de3 02       		.uleb128 0x2
 12403 2de4 74       		.byte	0x74
 12404 2de5 00       		.sleb128 0
 12405 2de6 1B       		.uleb128 0x1b
 12406 2de7 01       		.uleb128 0x1
 12407 2de8 51       		.byte	0x51
 12408 2de9 05       		.uleb128 0x5
 12409 2dea 03       		.byte	0x3
 12410 2deb E4020000 		.4byte	.LC42
 12411 2def 00       		.byte	0
 12412 2df0 1C       		.uleb128 0x1c
 12413 2df1 EE040000 		.4byte	.LVL787
 12414 2df5 DE320000 		.4byte	0x32de
 12415 2df9 0D2E0000 		.4byte	0x2e0d
 12416 2dfd 1B       		.uleb128 0x1b
 12417 2dfe 01       		.uleb128 0x1
 12418 2dff 50       		.byte	0x50
 12419 2e00 02       		.uleb128 0x2
 12420 2e01 74       		.byte	0x74
 12421 2e02 00       		.sleb128 0
 12422 2e03 1B       		.uleb128 0x1b
 12423 2e04 01       		.uleb128 0x1
 12424 2e05 51       		.byte	0x51
 12425 2e06 05       		.uleb128 0x5
 12426 2e07 03       		.byte	0x3
 12427 2e08 44030000 		.4byte	.LC45
 12428 2e0c 00       		.byte	0
 12429 2e0d 1C       		.uleb128 0x1c
 12430 2e0e 38050000 		.4byte	.LVL798
 12431 2e12 DE320000 		.4byte	0x32de
 12432 2e16 2A2E0000 		.4byte	0x2e2a
 12433 2e1a 1B       		.uleb128 0x1b
 12434 2e1b 01       		.uleb128 0x1
 12435 2e1c 50       		.byte	0x50
 12436 2e1d 02       		.uleb128 0x2
 12437 2e1e 74       		.byte	0x74
 12438 2e1f 00       		.sleb128 0
 12439 2e20 1B       		.uleb128 0x1b
 12440 2e21 01       		.uleb128 0x1
ARM GAS  C:\Users\FRANKL~1\AppData\Local\Temp\ccCAoJJX.s 			page 258


 12441 2e22 51       		.byte	0x51
 12442 2e23 05       		.uleb128 0x5
 12443 2e24 03       		.byte	0x3
 12444 2e25 68030000 		.4byte	.LC47
 12445 2e29 00       		.byte	0
 12446 2e2a 1C       		.uleb128 0x1c
 12447 2e2b 82050000 		.4byte	.LVL809
 12448 2e2f DE320000 		.4byte	0x32de
 12449 2e33 472E0000 		.4byte	0x2e47
 12450 2e37 1B       		.uleb128 0x1b
 12451 2e38 01       		.uleb128 0x1
 12452 2e39 50       		.byte	0x50
 12453 2e3a 02       		.uleb128 0x2
 12454 2e3b 74       		.byte	0x74
 12455 2e3c 00       		.sleb128 0
 12456 2e3d 1B       		.uleb128 0x1b
 12457 2e3e 01       		.uleb128 0x1
 12458 2e3f 51       		.byte	0x51
 12459 2e40 05       		.uleb128 0x5
 12460 2e41 03       		.byte	0x3
 12461 2e42 94030000 		.4byte	.LC49
 12462 2e46 00       		.byte	0
 12463 2e47 1C       		.uleb128 0x1c
 12464 2e48 CC050000 		.4byte	.LVL820
 12465 2e4c DE320000 		.4byte	0x32de
 12466 2e50 642E0000 		.4byte	0x2e64
 12467 2e54 1B       		.uleb128 0x1b
 12468 2e55 01       		.uleb128 0x1
 12469 2e56 50       		.byte	0x50
 12470 2e57 02       		.uleb128 0x2
 12471 2e58 74       		.byte	0x74
 12472 2e59 00       		.sleb128 0
 12473 2e5a 1B       		.uleb128 0x1b
 12474 2e5b 01       		.uleb128 0x1
 12475 2e5c 51       		.byte	0x51
 12476 2e5d 05       		.uleb128 0x5
 12477 2e5e 03       		.byte	0x3
 12478 2e5f BC030000 		.4byte	.LC51
 12479 2e63 00       		.byte	0
 12480 2e64 1C       		.uleb128 0x1c
 12481 2e65 04060000 		.4byte	.LVL828
 12482 2e69 DE320000 		.4byte	0x32de
 12483 2e6d 812E0000 		.4byte	0x2e81
 12484 2e71 1B       		.uleb128 0x1b
 12485 2e72 01       		.uleb128 0x1
 12486 2e73 50       		.byte	0x50
 12487 2e74 02       		.uleb128 0x2
 12488 2e75 74       		.byte	0x74
 12489 2e76 00       		.sleb128 0
 12490 2e77 1B       		.uleb128 0x1b
 12491 2e78 01       		.uleb128 0x1
 12492 2e79 51       		.byte	0x51
 12493 2e7a 05       		.uleb128 0x5
 12494 2e7b 03       		.byte	0x3
 12495 2e7c F4030000 		.4byte	.LC53
 12496 2e80 00       		.byte	0
 12497 2e81 12       		.uleb128 0x12
ARM GAS  C:\Users\FRANKL~1\AppData\Local\Temp\ccCAoJJX.s 			page 259


 12498 2e82 0C060000 		.4byte	.LVL829
 12499 2e86 0B090000 		.4byte	0x90b
 12500 2e8a 12       		.uleb128 0x12
 12501 2e8b 2A060000 		.4byte	.LVL831
 12502 2e8f B5050000 		.4byte	0x5b5
 12503 2e93 1C       		.uleb128 0x1c
 12504 2e94 34060000 		.4byte	.LVL833
 12505 2e98 DE320000 		.4byte	0x32de
 12506 2e9c B02E0000 		.4byte	0x2eb0
 12507 2ea0 1B       		.uleb128 0x1b
 12508 2ea1 01       		.uleb128 0x1
 12509 2ea2 50       		.byte	0x50
 12510 2ea3 02       		.uleb128 0x2
 12511 2ea4 74       		.byte	0x74
 12512 2ea5 00       		.sleb128 0
 12513 2ea6 1B       		.uleb128 0x1b
 12514 2ea7 01       		.uleb128 0x1
 12515 2ea8 51       		.byte	0x51
 12516 2ea9 05       		.uleb128 0x5
 12517 2eaa 03       		.byte	0x3
 12518 2eab 30040000 		.4byte	.LC55
 12519 2eaf 00       		.byte	0
 12520 2eb0 1C       		.uleb128 0x1c
 12521 2eb1 6C060000 		.4byte	.LVL841
 12522 2eb5 DE320000 		.4byte	0x32de
 12523 2eb9 CD2E0000 		.4byte	0x2ecd
 12524 2ebd 1B       		.uleb128 0x1b
 12525 2ebe 01       		.uleb128 0x1
 12526 2ebf 50       		.byte	0x50
 12527 2ec0 02       		.uleb128 0x2
 12528 2ec1 74       		.byte	0x74
 12529 2ec2 00       		.sleb128 0
 12530 2ec3 1B       		.uleb128 0x1b
 12531 2ec4 01       		.uleb128 0x1
 12532 2ec5 51       		.byte	0x51
 12533 2ec6 05       		.uleb128 0x5
 12534 2ec7 03       		.byte	0x3
 12535 2ec8 68040000 		.4byte	.LC57
 12536 2ecc 00       		.byte	0
 12537 2ecd 1C       		.uleb128 0x1c
 12538 2ece A4060000 		.4byte	.LVL849
 12539 2ed2 DE320000 		.4byte	0x32de
 12540 2ed6 EA2E0000 		.4byte	0x2eea
 12541 2eda 1B       		.uleb128 0x1b
 12542 2edb 01       		.uleb128 0x1
 12543 2edc 50       		.byte	0x50
 12544 2edd 02       		.uleb128 0x2
 12545 2ede 74       		.byte	0x74
 12546 2edf 00       		.sleb128 0
 12547 2ee0 1B       		.uleb128 0x1b
 12548 2ee1 01       		.uleb128 0x1
 12549 2ee2 51       		.byte	0x51
 12550 2ee3 05       		.uleb128 0x5
 12551 2ee4 03       		.byte	0x3
 12552 2ee5 A0040000 		.4byte	.LC59
 12553 2ee9 00       		.byte	0
 12554 2eea 12       		.uleb128 0x12
ARM GAS  C:\Users\FRANKL~1\AppData\Local\Temp\ccCAoJJX.s 			page 260


 12555 2eeb AC060000 		.4byte	.LVL850
 12556 2eef 330A0000 		.4byte	0xa33
 12557 2ef3 12       		.uleb128 0x12
 12558 2ef4 C6060000 		.4byte	.LVL852
 12559 2ef8 B5050000 		.4byte	0x5b5
 12560 2efc 1C       		.uleb128 0x1c
 12561 2efd 2C070000 		.4byte	.LVL854
 12562 2f01 DE320000 		.4byte	0x32de
 12563 2f05 192F0000 		.4byte	0x2f19
 12564 2f09 1B       		.uleb128 0x1b
 12565 2f0a 01       		.uleb128 0x1
 12566 2f0b 50       		.byte	0x50
 12567 2f0c 02       		.uleb128 0x2
 12568 2f0d 74       		.byte	0x74
 12569 2f0e 00       		.sleb128 0
 12570 2f0f 1B       		.uleb128 0x1b
 12571 2f10 01       		.uleb128 0x1
 12572 2f11 51       		.byte	0x51
 12573 2f12 05       		.uleb128 0x5
 12574 2f13 03       		.byte	0x3
 12575 2f14 D4040000 		.4byte	.LC61
 12576 2f18 00       		.byte	0
 12577 2f19 1C       		.uleb128 0x1c
 12578 2f1a 7C070000 		.4byte	.LVL861
 12579 2f1e DE320000 		.4byte	0x32de
 12580 2f22 362F0000 		.4byte	0x2f36
 12581 2f26 1B       		.uleb128 0x1b
 12582 2f27 01       		.uleb128 0x1
 12583 2f28 50       		.byte	0x50
 12584 2f29 02       		.uleb128 0x2
 12585 2f2a 74       		.byte	0x74
 12586 2f2b 00       		.sleb128 0
 12587 2f2c 1B       		.uleb128 0x1b
 12588 2f2d 01       		.uleb128 0x1
 12589 2f2e 51       		.byte	0x51
 12590 2f2f 05       		.uleb128 0x5
 12591 2f30 03       		.byte	0x3
 12592 2f31 28050000 		.4byte	.LC63
 12593 2f35 00       		.byte	0
 12594 2f36 12       		.uleb128 0x12
 12595 2f37 9C070000 		.4byte	.LVL863
 12596 2f3b B5050000 		.4byte	0x5b5
 12597 2f3f 1C       		.uleb128 0x1c
 12598 2f40 AC070000 		.4byte	.LVL865
 12599 2f44 DE320000 		.4byte	0x32de
 12600 2f48 5C2F0000 		.4byte	0x2f5c
 12601 2f4c 1B       		.uleb128 0x1b
 12602 2f4d 01       		.uleb128 0x1
 12603 2f4e 50       		.byte	0x50
 12604 2f4f 02       		.uleb128 0x2
 12605 2f50 74       		.byte	0x74
 12606 2f51 00       		.sleb128 0
 12607 2f52 1B       		.uleb128 0x1b
 12608 2f53 01       		.uleb128 0x1
 12609 2f54 51       		.byte	0x51
 12610 2f55 05       		.uleb128 0x5
 12611 2f56 03       		.byte	0x3
ARM GAS  C:\Users\FRANKL~1\AppData\Local\Temp\ccCAoJJX.s 			page 261


 12612 2f57 5C050000 		.4byte	.LC65
 12613 2f5b 00       		.byte	0
 12614 2f5c 12       		.uleb128 0x12
 12615 2f5d CC070000 		.4byte	.LVL867
 12616 2f61 B5050000 		.4byte	0x5b5
 12617 2f65 1C       		.uleb128 0x1c
 12618 2f66 DC070000 		.4byte	.LVL869
 12619 2f6a DE320000 		.4byte	0x32de
 12620 2f6e 822F0000 		.4byte	0x2f82
 12621 2f72 1B       		.uleb128 0x1b
 12622 2f73 01       		.uleb128 0x1
 12623 2f74 50       		.byte	0x50
 12624 2f75 02       		.uleb128 0x2
 12625 2f76 74       		.byte	0x74
 12626 2f77 00       		.sleb128 0
 12627 2f78 1B       		.uleb128 0x1b
 12628 2f79 01       		.uleb128 0x1
 12629 2f7a 51       		.byte	0x51
 12630 2f7b 05       		.uleb128 0x5
 12631 2f7c 03       		.byte	0x3
 12632 2f7d 90050000 		.4byte	.LC67
 12633 2f81 00       		.byte	0
 12634 2f82 12       		.uleb128 0x12
 12635 2f83 FC070000 		.4byte	.LVL871
 12636 2f87 B5050000 		.4byte	0x5b5
 12637 2f8b 1C       		.uleb128 0x1c
 12638 2f8c 0C080000 		.4byte	.LVL873
 12639 2f90 DE320000 		.4byte	0x32de
 12640 2f94 A82F0000 		.4byte	0x2fa8
 12641 2f98 1B       		.uleb128 0x1b
 12642 2f99 01       		.uleb128 0x1
 12643 2f9a 50       		.byte	0x50
 12644 2f9b 02       		.uleb128 0x2
 12645 2f9c 74       		.byte	0x74
 12646 2f9d 00       		.sleb128 0
 12647 2f9e 1B       		.uleb128 0x1b
 12648 2f9f 01       		.uleb128 0x1
 12649 2fa0 51       		.byte	0x51
 12650 2fa1 05       		.uleb128 0x5
 12651 2fa2 03       		.byte	0x3
 12652 2fa3 C4050000 		.4byte	.LC69
 12653 2fa7 00       		.byte	0
 12654 2fa8 12       		.uleb128 0x12
 12655 2fa9 2C080000 		.4byte	.LVL875
 12656 2fad B5050000 		.4byte	0x5b5
 12657 2fb1 1C       		.uleb128 0x1c
 12658 2fb2 3E080000 		.4byte	.LVL877
 12659 2fb6 6D330000 		.4byte	0x336d
 12660 2fba D72F0000 		.4byte	0x2fd7
 12661 2fbe 1B       		.uleb128 0x1b
 12662 2fbf 01       		.uleb128 0x1
 12663 2fc0 50       		.byte	0x50
 12664 2fc1 05       		.uleb128 0x5
 12665 2fc2 03       		.byte	0x3
 12666 2fc3 00000000 		.4byte	TransmitBuffer
 12667 2fc7 1B       		.uleb128 0x1b
 12668 2fc8 01       		.uleb128 0x1
ARM GAS  C:\Users\FRANKL~1\AppData\Local\Temp\ccCAoJJX.s 			page 262


 12669 2fc9 51       		.byte	0x51
 12670 2fca 05       		.uleb128 0x5
 12671 2fcb 03       		.byte	0x3
 12672 2fcc F8050000 		.4byte	.LC71
 12673 2fd0 1B       		.uleb128 0x1b
 12674 2fd1 01       		.uleb128 0x1
 12675 2fd2 52       		.byte	0x52
 12676 2fd3 02       		.uleb128 0x2
 12677 2fd4 74       		.byte	0x74
 12678 2fd5 00       		.sleb128 0
 12679 2fd6 00       		.byte	0
 12680 2fd7 12       		.uleb128 0x12
 12681 2fd8 42080000 		.4byte	.LVL878
 12682 2fdc B5050000 		.4byte	0x5b5
 12683 2fe0 00       		.byte	0
 12684 2fe1 12       		.uleb128 0x12
 12685 2fe2 0A000000 		.4byte	.LVL666
 12686 2fe6 87070000 		.4byte	0x787
 12687 2fea 1C       		.uleb128 0x1c
 12688 2feb 12000000 		.4byte	.LVL667
 12689 2fef 63340000 		.4byte	0x3463
 12690 2ff3 02300000 		.4byte	0x3002
 12691 2ff7 1B       		.uleb128 0x1b
 12692 2ff8 01       		.uleb128 0x1
 12693 2ff9 50       		.byte	0x50
 12694 2ffa 01       		.uleb128 0x1
 12695 2ffb 30       		.byte	0x30
 12696 2ffc 1B       		.uleb128 0x1b
 12697 2ffd 01       		.uleb128 0x1
 12698 2ffe 51       		.byte	0x51
 12699 2fff 01       		.uleb128 0x1
 12700 3000 31       		.byte	0x31
 12701 3001 00       		.byte	0
 12702 3002 12       		.uleb128 0x12
 12703 3003 16000000 		.4byte	.LVL668
 12704 3007 6F340000 		.4byte	0x346f
 12705 300b 12       		.uleb128 0x12
 12706 300c 1A000000 		.4byte	.LVL669
 12707 3010 7A340000 		.4byte	0x347a
 12708 3014 12       		.uleb128 0x12
 12709 3015 1E000000 		.4byte	.LVL670
 12710 3019 85340000 		.4byte	0x3485
 12711 301d 12       		.uleb128 0x12
 12712 301e 22000000 		.4byte	.LVL671
 12713 3022 90340000 		.4byte	0x3490
 12714 3026 12       		.uleb128 0x12
 12715 3027 26000000 		.4byte	.LVL672
 12716 302b 9B340000 		.4byte	0x349b
 12717 302f 12       		.uleb128 0x12
 12718 3030 2A000000 		.4byte	.LVL673
 12719 3034 A6340000 		.4byte	0x34a6
 12720 3038 12       		.uleb128 0x12
 12721 3039 2E000000 		.4byte	.LVL674
 12722 303d 62330000 		.4byte	0x3362
 12723 3041 12       		.uleb128 0x12
 12724 3042 32000000 		.4byte	.LVL675
 12725 3046 B1340000 		.4byte	0x34b1
ARM GAS  C:\Users\FRANKL~1\AppData\Local\Temp\ccCAoJJX.s 			page 263


 12726 304a 12       		.uleb128 0x12
 12727 304b 36000000 		.4byte	.LVL676
 12728 304f BC340000 		.4byte	0x34bc
 12729 3053 12       		.uleb128 0x12
 12730 3054 3A000000 		.4byte	.LVL677
 12731 3058 C7340000 		.4byte	0x34c7
 12732 305c 12       		.uleb128 0x12
 12733 305d 3E000000 		.4byte	.LVL678
 12734 3061 D2340000 		.4byte	0x34d2
 12735 3065 1C       		.uleb128 0x1c
 12736 3066 46000000 		.4byte	.LVL679
 12737 306a DD340000 		.4byte	0x34dd
 12738 306e 7A300000 		.4byte	0x307a
 12739 3072 1B       		.uleb128 0x1b
 12740 3073 01       		.uleb128 0x1
 12741 3074 50       		.byte	0x50
 12742 3075 03       		.uleb128 0x3
 12743 3076 0A       		.byte	0xa
 12744 3077 E803     		.2byte	0x3e8
 12745 3079 00       		.byte	0
 12746 307a 1C       		.uleb128 0x1c
 12747 307b 4C000000 		.4byte	.LVL680
 12748 307f 41330000 		.4byte	0x3341
 12749 3083 91300000 		.4byte	0x3091
 12750 3087 1B       		.uleb128 0x1b
 12751 3088 01       		.uleb128 0x1
 12752 3089 50       		.byte	0x50
 12753 308a 05       		.uleb128 0x5
 12754 308b 03       		.byte	0x3
 12755 308c F4000000 		.4byte	.LC15
 12756 3090 00       		.byte	0
 12757 3091 12       		.uleb128 0x12
 12758 3092 50000000 		.4byte	.LVL681
 12759 3096 330A0000 		.4byte	0xa33
 12760 309a 12       		.uleb128 0x12
 12761 309b 62000000 		.4byte	.LVL682
 12762 309f E8340000 		.4byte	0x34e8
 12763 30a3 1C       		.uleb128 0x1c
 12764 30a4 68000000 		.4byte	.LVL683
 12765 30a8 F3340000 		.4byte	0x34f3
 12766 30ac BA300000 		.4byte	0x30ba
 12767 30b0 1B       		.uleb128 0x1b
 12768 30b1 01       		.uleb128 0x1
 12769 30b2 50       		.byte	0x50
 12770 30b3 05       		.uleb128 0x5
 12771 30b4 03       		.byte	0x3
 12772 30b5 00000000 		.4byte	CommunicationHandlerISR
 12773 30b9 00       		.byte	0
 12774 30ba 1C       		.uleb128 0x1c
 12775 30bb 76000000 		.4byte	.LVL684
 12776 30bf 6B170000 		.4byte	0x176b
 12777 30c3 CF300000 		.4byte	0x30cf
 12778 30c7 1B       		.uleb128 0x1b
 12779 30c8 01       		.uleb128 0x1
 12780 30c9 50       		.byte	0x50
 12781 30ca 03       		.uleb128 0x3
 12782 30cb 0A       		.byte	0xa
ARM GAS  C:\Users\FRANKL~1\AppData\Local\Temp\ccCAoJJX.s 			page 264


 12783 30cc 2C01     		.2byte	0x12c
 12784 30ce 00       		.byte	0
 12785 30cf 12       		.uleb128 0x12
 12786 30d0 7C000000 		.4byte	.LVL685
 12787 30d4 700A0000 		.4byte	0xa70
 12788 30d8 1A       		.uleb128 0x1a
 12789 30d9 84000000 		.4byte	.LVL686
 12790 30dd 6C190000 		.4byte	0x196c
 12791 30e1 1B       		.uleb128 0x1b
 12792 30e2 01       		.uleb128 0x1
 12793 30e3 50       		.byte	0x50
 12794 30e4 03       		.uleb128 0x3
 12795 30e5 0A       		.byte	0xa
 12796 30e6 E803     		.2byte	0x3e8
 12797 30e8 00       		.byte	0
 12798 30e9 00       		.byte	0
 12799 30ea 31       		.uleb128 0x31
 12800 30eb 52070000 		.4byte	.LASF183
 12801 30ef 06       		.byte	0x6
 12802 30f0 1207     		.2byte	0x712
 12803 30f2 F6300000 		.4byte	0x30f6
 12804 30f6 08       		.uleb128 0x8
 12805 30f7 A3000000 		.4byte	0xa3
 12806 30fb 09       		.uleb128 0x9
 12807 30fc 70010000 		.4byte	0x170
 12808 3100 0B310000 		.4byte	0x310b
 12809 3104 0A       		.uleb128 0xa
 12810 3105 84000000 		.4byte	0x84
 12811 3109 03       		.byte	0x3
 12812 310a 00       		.byte	0
 12813 310b 32       		.uleb128 0x32
 12814 310c 88070000 		.4byte	.LASF184
 12815 3110 02       		.byte	0x2
 12816 3111 1E       		.byte	0x1e
 12817 3112 FB300000 		.4byte	0x30fb
 12818 3116 05       		.uleb128 0x5
 12819 3117 03       		.byte	0x3
 12820 3118 00000000 		.4byte	selectors
 12821 311c 32       		.uleb128 0x32
 12822 311d 690A0000 		.4byte	.LASF185
 12823 3121 02       		.byte	0x2
 12824 3122 1F       		.byte	0x1f
 12825 3123 C1030000 		.4byte	0x3c1
 12826 3127 05       		.uleb128 0x5
 12827 3128 03       		.byte	0x3
 12828 3129 00000000 		.4byte	TransmitBuffer
 12829 312d 32       		.uleb128 0x32
 12830 312e 1F050000 		.4byte	.LASF186
 12831 3132 02       		.byte	0x2
 12832 3133 21       		.byte	0x21
 12833 3134 09010000 		.4byte	0x109
 12834 3138 05       		.uleb128 0x5
 12835 3139 03       		.byte	0x3
 12836 313a 00000000 		.4byte	newData
 12837 313e 32       		.uleb128 0x32
 12838 313f 240C0000 		.4byte	.LASF187
 12839 3143 02       		.byte	0x2
ARM GAS  C:\Users\FRANKL~1\AppData\Local\Temp\ccCAoJJX.s 			page 265


 12840 3144 22       		.byte	0x22
 12841 3145 09010000 		.4byte	0x109
 12842 3149 05       		.uleb128 0x5
 12843 314a 03       		.byte	0x3
 12844 314b 00000000 		.4byte	G_Stop
 12845 314f 32       		.uleb128 0x32
 12846 3150 2F010000 		.4byte	.LASF188
 12847 3154 02       		.byte	0x2
 12848 3155 23       		.byte	0x23
 12849 3156 09010000 		.4byte	0x109
 12850 315a 05       		.uleb128 0x5
 12851 315b 03       		.byte	0x3
 12852 315c 00000000 		.4byte	G_Break
 12853 3160 32       		.uleb128 0x32
 12854 3161 CE0C0000 		.4byte	.LASF189
 12855 3165 02       		.byte	0x2
 12856 3166 24       		.byte	0x24
 12857 3167 09010000 		.4byte	0x109
 12858 316b 05       		.uleb128 0x5
 12859 316c 03       		.byte	0x3
 12860 316d 00000000 		.4byte	G_Pause
 12861 3171 09       		.uleb128 0x9
 12862 3172 81310000 		.4byte	0x3181
 12863 3176 81310000 		.4byte	0x3181
 12864 317a 0A       		.uleb128 0xa
 12865 317b 84000000 		.4byte	0x84
 12866 317f 3F       		.byte	0x3f
 12867 3180 00       		.byte	0
 12868 3181 08       		.uleb128 0x8
 12869 3182 91000000 		.4byte	0x91
 12870 3186 32       		.uleb128 0x32
 12871 3187 C50A0000 		.4byte	.LASF190
 12872 318b 02       		.byte	0x2
 12873 318c 26       		.byte	0x26
 12874 318d 97310000 		.4byte	0x3197
 12875 3191 05       		.uleb128 0x5
 12876 3192 03       		.byte	0x3
 12877 3193 00000000 		.4byte	UART_Receive_Buffer
 12878 3197 08       		.uleb128 0x8
 12879 3198 71310000 		.4byte	0x3171
 12880 319c 32       		.uleb128 0x32
 12881 319d 310A0000 		.4byte	.LASF191
 12882 31a1 02       		.byte	0x2
 12883 31a2 27       		.byte	0x27
 12884 31a3 09010000 		.4byte	0x109
 12885 31a7 05       		.uleb128 0x5
 12886 31a8 03       		.byte	0x3
 12887 31a9 00000000 		.4byte	UART_Rx_Position
 12888 31ad 32       		.uleb128 0x32
 12889 31ae 18010000 		.4byte	.LASF192
 12890 31b2 02       		.byte	0x2
 12891 31b3 29       		.byte	0x29
 12892 31b4 BE310000 		.4byte	0x31be
 12893 31b8 05       		.uleb128 0x5
 12894 31b9 03       		.byte	0x3
 12895 31ba 00000000 		.4byte	USBUART_Receive_Buffer
 12896 31be 08       		.uleb128 0x8
ARM GAS  C:\Users\FRANKL~1\AppData\Local\Temp\ccCAoJJX.s 			page 266


 12897 31bf 71310000 		.4byte	0x3171
 12898 31c3 32       		.uleb128 0x32
 12899 31c4 010A0000 		.4byte	.LASF193
 12900 31c8 02       		.byte	0x2
 12901 31c9 2A       		.byte	0x2a
 12902 31ca 09010000 		.4byte	0x109
 12903 31ce 05       		.uleb128 0x5
 12904 31cf 03       		.byte	0x3
 12905 31d0 00000000 		.4byte	USBUART_Rx_Position
 12906 31d4 32       		.uleb128 0x32
 12907 31d5 86050000 		.4byte	.LASF194
 12908 31d9 02       		.byte	0x2
 12909 31da 2D       		.byte	0x2d
 12910 31db AE000000 		.4byte	0xae
 12911 31df 05       		.uleb128 0x5
 12912 31e0 03       		.byte	0x3
 12913 31e1 00000000 		.4byte	TIA_Selected_Resistor
 12914 31e5 32       		.uleb128 0x32
 12915 31e6 7F090000 		.4byte	.LASF195
 12916 31ea 02       		.byte	0x2
 12917 31eb 2F       		.byte	0x2f
 12918 31ec 0E010000 		.4byte	0x10e
 12919 31f0 05       		.uleb128 0x5
 12920 31f1 03       		.byte	0x3
 12921 31f2 00000000 		.4byte	TIA_Resistor_Codes
 12922 31f6 09       		.uleb128 0x9
 12923 31f7 25000000 		.4byte	0x25
 12924 31fb 06320000 		.4byte	0x3206
 12925 31ff 0A       		.uleb128 0xa
 12926 3200 84000000 		.4byte	0x84
 12927 3204 07       		.byte	0x7
 12928 3205 00       		.byte	0
 12929 3206 32       		.uleb128 0x32
 12930 3207 F8000000 		.4byte	.LASF196
 12931 320b 02       		.byte	0x2
 12932 320c 30       		.byte	0x30
 12933 320d F6310000 		.4byte	0x31f6
 12934 3211 05       		.uleb128 0x5
 12935 3212 03       		.byte	0x3
 12936 3213 00000000 		.4byte	TIA_Resistor_Values
 12937 3217 09       		.uleb128 0x9
 12938 3218 EA000000 		.4byte	0xea
 12939 321c 27320000 		.4byte	0x3227
 12940 3220 0A       		.uleb128 0xa
 12941 3221 84000000 		.4byte	0x84
 12942 3225 07       		.byte	0x7
 12943 3226 00       		.byte	0
 12944 3227 32       		.uleb128 0x32
 12945 3228 E30A0000 		.4byte	.LASF197
 12946 322c 02       		.byte	0x2
 12947 322d 31       		.byte	0x31
 12948 322e 17320000 		.4byte	0x3217
 12949 3232 05       		.uleb128 0x5
 12950 3233 03       		.byte	0x3
 12951 3234 00000000 		.4byte	TIA_Offsets_uV
 12952 3238 32       		.uleb128 0x32
 12953 3239 69070000 		.4byte	.LASF198
ARM GAS  C:\Users\FRANKL~1\AppData\Local\Temp\ccCAoJJX.s 			page 267


 12954 323d 02       		.byte	0x2
 12955 323e 33       		.byte	0x33
 12956 323f AE000000 		.4byte	0xae
 12957 3243 05       		.uleb128 0x5
 12958 3244 03       		.byte	0x3
 12959 3245 00000000 		.4byte	Compliance_Reached
 12960 3249 32       		.uleb128 0x32
 12961 324a 420A0000 		.4byte	.LASF199
 12962 324e 02       		.byte	0x2
 12963 324f 34       		.byte	0x34
 12964 3250 DE000000 		.4byte	0xde
 12965 3254 05       		.uleb128 0x5
 12966 3255 03       		.byte	0x3
 12967 3256 00000000 		.4byte	Vgs_Index_Goal_Relative
 12968 325a 32       		.uleb128 0x32
 12969 325b 1C060000 		.4byte	.LASF200
 12970 325f 02       		.byte	0x2
 12971 3260 35       		.byte	0x35
 12972 3261 DE000000 		.4byte	0xde
 12973 3265 05       		.uleb128 0x5
 12974 3266 03       		.byte	0x3
 12975 3267 00000000 		.4byte	Vds_Index_Goal_Relative
 12976 326b 32       		.uleb128 0x32
 12977 326c 61010000 		.4byte	.LASF201
 12978 3270 02       		.byte	0x2
 12979 3271 37       		.byte	0x37
 12980 3272 C6000000 		.4byte	0xc6
 12981 3276 05       		.uleb128 0x5
 12982 3277 03       		.byte	0x3
 12983 3278 00000000 		.4byte	Current_Measurement_Sample_Count
 12984 327c 32       		.uleb128 0x32
 12985 327d 750D0000 		.4byte	.LASF202
 12986 3281 02       		.byte	0x2
 12987 3282 39       		.byte	0x39
 12988 3283 8D320000 		.4byte	0x328d
 12989 3287 05       		.uleb128 0x5
 12990 3288 03       		.byte	0x3
 12991 3289 00000000 		.4byte	uartSendingEnabled
 12992 328d 02       		.uleb128 0x2
 12993 328e 01       		.byte	0x1
 12994 328f 02       		.byte	0x2
 12995 3290 F4030000 		.4byte	.LASF203
 12996 3294 32       		.uleb128 0x32
 12997 3295 B70D0000 		.4byte	.LASF204
 12998 3299 02       		.byte	0x2
 12999 329a 3A       		.byte	0x3a
 13000 329b 8D320000 		.4byte	0x328d
 13001 329f 05       		.uleb128 0x5
 13002 32a0 03       		.byte	0x3
 13003 32a1 00000000 		.4byte	usbuSendingEnabled
 13004 32a5 33       		.uleb128 0x33
 13005 32a6 560D0000 		.4byte	.LASF205
 13006 32aa 560D0000 		.4byte	.LASF205
 13007 32ae 07       		.byte	0x7
 13008 32af 2E01     		.2byte	0x12e
 13009 32b1 33       		.uleb128 0x33
 13010 32b2 6E0B0000 		.4byte	.LASF206
ARM GAS  C:\Users\FRANKL~1\AppData\Local\Temp\ccCAoJJX.s 			page 268


 13011 32b6 6E0B0000 		.4byte	.LASF206
 13012 32ba 07       		.byte	0x7
 13013 32bb 2D01     		.2byte	0x12d
 13014 32bd 34       		.uleb128 0x34
 13015 32be 150A0000 		.4byte	.LASF207
 13016 32c2 150A0000 		.4byte	.LASF207
 13017 32c6 08       		.byte	0x8
 13018 32c7 22       		.byte	0x22
 13019 32c8 34       		.uleb128 0x34
 13020 32c9 F20A0000 		.4byte	.LASF208
 13021 32cd F20A0000 		.4byte	.LASF208
 13022 32d1 08       		.byte	0x8
 13023 32d2 29       		.byte	0x29
 13024 32d3 34       		.uleb128 0x34
 13025 32d4 71050000 		.4byte	.LASF209
 13026 32d8 71050000 		.4byte	.LASF209
 13027 32dc 08       		.byte	0x8
 13028 32dd 2B       		.byte	0x2b
 13029 32de 34       		.uleb128 0x34
 13030 32df 0D0C0000 		.4byte	.LASF210
 13031 32e3 0D0C0000 		.4byte	.LASF210
 13032 32e7 09       		.byte	0x9
 13033 32e8 28       		.byte	0x28
 13034 32e9 34       		.uleb128 0x34
 13035 32ea 090D0000 		.4byte	.LASF211
 13036 32ee 090D0000 		.4byte	.LASF211
 13037 32f2 0A       		.byte	0xa
 13038 32f3 73       		.byte	0x73
 13039 32f4 34       		.uleb128 0x34
 13040 32f5 880D0000 		.4byte	.LASF212
 13041 32f9 880D0000 		.4byte	.LASF212
 13042 32fd 0A       		.byte	0xa
 13043 32fe 71       		.byte	0x71
 13044 32ff 34       		.uleb128 0x34
 13045 3300 670E0000 		.4byte	.LASF213
 13046 3304 670E0000 		.4byte	.LASF213
 13047 3308 0B       		.byte	0xb
 13048 3309 28       		.byte	0x28
 13049 330a 34       		.uleb128 0x34
 13050 330b AE080000 		.4byte	.LASF214
 13051 330f AE080000 		.4byte	.LASF214
 13052 3313 0C       		.byte	0xc
 13053 3314 5E       		.byte	0x5e
 13054 3315 34       		.uleb128 0x34
 13055 3316 B50F0000 		.4byte	.LASF215
 13056 331a B50F0000 		.4byte	.LASF215
 13057 331e 08       		.byte	0x8
 13058 331f 28       		.byte	0x28
 13059 3320 34       		.uleb128 0x34
 13060 3321 92090000 		.4byte	.LASF216
 13061 3325 92090000 		.4byte	.LASF216
 13062 3329 08       		.byte	0x8
 13063 332a 23       		.byte	0x23
 13064 332b 34       		.uleb128 0x34
 13065 332c CA0D0000 		.4byte	.LASF217
 13066 3330 CA0D0000 		.4byte	.LASF217
 13067 3334 08       		.byte	0x8
ARM GAS  C:\Users\FRANKL~1\AppData\Local\Temp\ccCAoJJX.s 			page 269


 13068 3335 2C       		.byte	0x2c
 13069 3336 34       		.uleb128 0x34
 13070 3337 0B0E0000 		.4byte	.LASF218
 13071 333b 0B0E0000 		.4byte	.LASF218
 13072 333f 09       		.byte	0x9
 13073 3340 21       		.byte	0x21
 13074 3341 34       		.uleb128 0x34
 13075 3342 F0090000 		.4byte	.LASF219
 13076 3346 F0090000 		.4byte	.LASF219
 13077 334a 0A       		.byte	0xa
 13078 334b 8B       		.byte	0x8b
 13079 334c 34       		.uleb128 0x34
 13080 334d 11040000 		.4byte	.LASF220
 13081 3351 11040000 		.4byte	.LASF220
 13082 3355 0D       		.byte	0xd
 13083 3356 A3       		.byte	0xa3
 13084 3357 34       		.uleb128 0x34
 13085 3358 82010000 		.4byte	.LASF221
 13086 335c 82010000 		.4byte	.LASF221
 13087 3360 0D       		.byte	0xd
 13088 3361 94       		.byte	0x94
 13089 3362 34       		.uleb128 0x34
 13090 3363 0C010000 		.4byte	.LASF222
 13091 3367 0C010000 		.4byte	.LASF222
 13092 336b 0D       		.byte	0xd
 13093 336c 93       		.byte	0x93
 13094 336d 34       		.uleb128 0x34
 13095 336e 34060000 		.4byte	.LASF223
 13096 3372 34060000 		.4byte	.LASF223
 13097 3376 0E       		.byte	0xe
 13098 3377 E7       		.byte	0xe7
 13099 3378 34       		.uleb128 0x34
 13100 3379 AA0C0000 		.4byte	.LASF224
 13101 337d AA0C0000 		.4byte	.LASF224
 13102 3381 0D       		.byte	0xd
 13103 3382 A4       		.byte	0xa4
 13104 3383 34       		.uleb128 0x34
 13105 3384 EE0D0000 		.4byte	.LASF225
 13106 3388 EE0D0000 		.4byte	.LASF225
 13107 338c 0D       		.byte	0xd
 13108 338d A7       		.byte	0xa7
 13109 338e 34       		.uleb128 0x34
 13110 338f 530F0000 		.4byte	.LASF226
 13111 3393 530F0000 		.4byte	.LASF226
 13112 3397 0F       		.byte	0xf
 13113 3398 40       		.byte	0x40
 13114 3399 34       		.uleb128 0x34
 13115 339a 41000000 		.4byte	.LASF227
 13116 339e 41000000 		.4byte	.LASF227
 13117 33a2 10       		.byte	0x10
 13118 33a3 3D       		.byte	0x3d
 13119 33a4 34       		.uleb128 0x34
 13120 33a5 78080000 		.4byte	.LASF228
 13121 33a9 78080000 		.4byte	.LASF228
 13122 33ad 10       		.byte	0x10
 13123 33ae 3F       		.byte	0x3f
 13124 33af 34       		.uleb128 0x34
ARM GAS  C:\Users\FRANKL~1\AppData\Local\Temp\ccCAoJJX.s 			page 270


 13125 33b0 80060000 		.4byte	.LASF229
 13126 33b4 80060000 		.4byte	.LASF229
 13127 33b8 10       		.byte	0x10
 13128 33b9 42       		.byte	0x42
 13129 33ba 34       		.uleb128 0x34
 13130 33bb FB040000 		.4byte	.LASF230
 13131 33bf FB040000 		.4byte	.LASF230
 13132 33c3 10       		.byte	0x10
 13133 33c4 48       		.byte	0x48
 13134 33c5 34       		.uleb128 0x34
 13135 33c6 96030000 		.4byte	.LASF231
 13136 33ca 96030000 		.4byte	.LASF231
 13137 33ce 11       		.byte	0x11
 13138 33cf D1       		.byte	0xd1
 13139 33d0 34       		.uleb128 0x34
 13140 33d1 EA070000 		.4byte	.LASF232
 13141 33d5 EA070000 		.4byte	.LASF232
 13142 33d9 11       		.byte	0x11
 13143 33da 39       		.byte	0x39
 13144 33db 34       		.uleb128 0x34
 13145 33dc 46030000 		.4byte	.LASF233
 13146 33e0 46030000 		.4byte	.LASF233
 13147 33e4 11       		.byte	0x11
 13148 33e5 3B       		.byte	0x3b
 13149 33e6 34       		.uleb128 0x34
 13150 33e7 B8040000 		.4byte	.LASF234
 13151 33eb B8040000 		.4byte	.LASF234
 13152 33ef 11       		.byte	0x11
 13153 33f0 40       		.byte	0x40
 13154 33f1 34       		.uleb128 0x34
 13155 33f2 810F0000 		.4byte	.LASF235
 13156 33f6 810F0000 		.4byte	.LASF235
 13157 33fa 12       		.byte	0x12
 13158 33fb D1       		.byte	0xd1
 13159 33fc 34       		.uleb128 0x34
 13160 33fd 2A070000 		.4byte	.LASF236
 13161 3401 2A070000 		.4byte	.LASF236
 13162 3405 12       		.byte	0x12
 13163 3406 39       		.byte	0x39
 13164 3407 34       		.uleb128 0x34
 13165 3408 69090000 		.4byte	.LASF237
 13166 340c 69090000 		.4byte	.LASF237
 13167 3410 12       		.byte	0x12
 13168 3411 3B       		.byte	0x3b
 13169 3412 34       		.uleb128 0x34
 13170 3413 65040000 		.4byte	.LASF238
 13171 3417 65040000 		.4byte	.LASF238
 13172 341b 12       		.byte	0x12
 13173 341c 40       		.byte	0x40
 13174 341d 34       		.uleb128 0x34
 13175 341e 77020000 		.4byte	.LASF239
 13176 3422 77020000 		.4byte	.LASF239
 13177 3426 13       		.byte	0x13
 13178 3427 37       		.byte	0x37
 13179 3428 34       		.uleb128 0x34
 13180 3429 CC050000 		.4byte	.LASF240
 13181 342d CC050000 		.4byte	.LASF240
ARM GAS  C:\Users\FRANKL~1\AppData\Local\Temp\ccCAoJJX.s 			page 271


 13182 3431 14       		.byte	0x14
 13183 3432 37       		.byte	0x37
 13184 3433 34       		.uleb128 0x34
 13185 3434 500B0000 		.4byte	.LASF241
 13186 3438 500B0000 		.4byte	.LASF241
 13187 343c 15       		.byte	0x15
 13188 343d 37       		.byte	0x37
 13189 343e 35       		.uleb128 0x35
 13190 343f 5A020000 		.4byte	.LASF264
 13191 3443 3D0F0000 		.4byte	.LASF265
 13192 3447 1A       		.byte	0x1a
 13193 3448 00       		.byte	0
 13194 3449 5A020000 		.4byte	.LASF264
 13195 344d 34       		.uleb128 0x34
 13196 344e D60C0000 		.4byte	.LASF242
 13197 3452 D60C0000 		.4byte	.LASF242
 13198 3456 16       		.byte	0x16
 13199 3457 A2       		.byte	0xa2
 13200 3458 34       		.uleb128 0x34
 13201 3459 F3060000 		.4byte	.LASF243
 13202 345d F3060000 		.4byte	.LASF243
 13203 3461 0E       		.byte	0xe
 13204 3462 BF       		.byte	0xbf
 13205 3463 33       		.uleb128 0x33
 13206 3464 34050000 		.4byte	.LASF244
 13207 3468 34050000 		.4byte	.LASF244
 13208 346c 07       		.byte	0x7
 13209 346d 2A01     		.2byte	0x12a
 13210 346f 34       		.uleb128 0x34
 13211 3470 39020000 		.4byte	.LASF245
 13212 3474 39020000 		.4byte	.LASF245
 13213 3478 0A       		.byte	0xa
 13214 3479 54       		.byte	0x54
 13215 347a 34       		.uleb128 0x34
 13216 347b A60F0000 		.4byte	.LASF246
 13217 347f A60F0000 		.4byte	.LASF246
 13218 3483 13       		.byte	0x13
 13219 3484 33       		.byte	0x33
 13220 3485 34       		.uleb128 0x34
 13221 3486 D3090000 		.4byte	.LASF247
 13222 348a D3090000 		.4byte	.LASF247
 13223 348e 14       		.byte	0x14
 13224 348f 33       		.byte	0x33
 13225 3490 34       		.uleb128 0x34
 13226 3491 FA060000 		.4byte	.LASF248
 13227 3495 FA060000 		.4byte	.LASF248
 13228 3499 15       		.byte	0x15
 13229 349a 33       		.byte	0x33
 13230 349b 34       		.uleb128 0x34
 13231 349c 620F0000 		.4byte	.LASF249
 13232 34a0 620F0000 		.4byte	.LASF249
 13233 34a4 10       		.byte	0x10
 13234 34a5 3A       		.byte	0x3a
 13235 34a6 34       		.uleb128 0x34
 13236 34a7 23090000 		.4byte	.LASF250
 13237 34ab 23090000 		.4byte	.LASF250
 13238 34af 0F       		.byte	0xf
ARM GAS  C:\Users\FRANKL~1\AppData\Local\Temp\ccCAoJJX.s 			page 272


 13239 34b0 3D       		.byte	0x3d
 13240 34b1 34       		.uleb128 0x34
 13241 34b2 B6070000 		.4byte	.LASF251
 13242 34b6 B6070000 		.4byte	.LASF251
 13243 34ba 11       		.byte	0x11
 13244 34bb 34       		.byte	0x34
 13245 34bc 34       		.uleb128 0x34
 13246 34bd 2F090000 		.4byte	.LASF252
 13247 34c1 2F090000 		.4byte	.LASF252
 13248 34c5 12       		.byte	0x12
 13249 34c6 34       		.byte	0x34
 13250 34c7 34       		.uleb128 0x34
 13251 34c8 69000000 		.4byte	.LASF253
 13252 34cc 69000000 		.4byte	.LASF253
 13253 34d0 17       		.byte	0x17
 13254 34d1 33       		.byte	0x33
 13255 34d2 34       		.uleb128 0x34
 13256 34d3 63050000 		.4byte	.LASF254
 13257 34d7 63050000 		.4byte	.LASF254
 13258 34db 18       		.byte	0x18
 13259 34dc 33       		.byte	0x33
 13260 34dd 34       		.uleb128 0x34
 13261 34de 950E0000 		.4byte	.LASF255
 13262 34e2 950E0000 		.4byte	.LASF255
 13263 34e6 19       		.byte	0x19
 13264 34e7 76       		.byte	0x76
 13265 34e8 34       		.uleb128 0x34
 13266 34e9 95080000 		.4byte	.LASF256
 13267 34ed 95080000 		.4byte	.LASF256
 13268 34f1 0C       		.byte	0xc
 13269 34f2 5A       		.byte	0x5a
 13270 34f3 34       		.uleb128 0x34
 13271 34f4 06020000 		.4byte	.LASF257
 13272 34f8 06020000 		.4byte	.LASF257
 13273 34fc 0B       		.byte	0xb
 13274 34fd 18       		.byte	0x18
 13275 34fe 00       		.byte	0
 13276              		.section	.debug_abbrev,"",%progbits
 13277              	.Ldebug_abbrev0:
 13278 0000 01       		.uleb128 0x1
 13279 0001 11       		.uleb128 0x11
 13280 0002 01       		.byte	0x1
 13281 0003 25       		.uleb128 0x25
 13282 0004 0E       		.uleb128 0xe
 13283 0005 13       		.uleb128 0x13
 13284 0006 0B       		.uleb128 0xb
 13285 0007 03       		.uleb128 0x3
 13286 0008 0E       		.uleb128 0xe
 13287 0009 1B       		.uleb128 0x1b
 13288 000a 0E       		.uleb128 0xe
 13289 000b 55       		.uleb128 0x55
 13290 000c 17       		.uleb128 0x17
 13291 000d 11       		.uleb128 0x11
 13292 000e 01       		.uleb128 0x1
 13293 000f 10       		.uleb128 0x10
 13294 0010 17       		.uleb128 0x17
 13295 0011 00       		.byte	0
ARM GAS  C:\Users\FRANKL~1\AppData\Local\Temp\ccCAoJJX.s 			page 273


 13296 0012 00       		.byte	0
 13297 0013 02       		.uleb128 0x2
 13298 0014 24       		.uleb128 0x24
 13299 0015 00       		.byte	0
 13300 0016 0B       		.uleb128 0xb
 13301 0017 0B       		.uleb128 0xb
 13302 0018 3E       		.uleb128 0x3e
 13303 0019 0B       		.uleb128 0xb
 13304 001a 03       		.uleb128 0x3
 13305 001b 0E       		.uleb128 0xe
 13306 001c 00       		.byte	0
 13307 001d 00       		.byte	0
 13308 001e 03       		.uleb128 0x3
 13309 001f 24       		.uleb128 0x24
 13310 0020 00       		.byte	0
 13311 0021 0B       		.uleb128 0xb
 13312 0022 0B       		.uleb128 0xb
 13313 0023 3E       		.uleb128 0x3e
 13314 0024 0B       		.uleb128 0xb
 13315 0025 03       		.uleb128 0x3
 13316 0026 08       		.uleb128 0x8
 13317 0027 00       		.byte	0
 13318 0028 00       		.byte	0
 13319 0029 04       		.uleb128 0x4
 13320 002a 16       		.uleb128 0x16
 13321 002b 00       		.byte	0
 13322 002c 03       		.uleb128 0x3
 13323 002d 0E       		.uleb128 0xe
 13324 002e 3A       		.uleb128 0x3a
 13325 002f 0B       		.uleb128 0xb
 13326 0030 3B       		.uleb128 0x3b
 13327 0031 0B       		.uleb128 0xb
 13328 0032 49       		.uleb128 0x49
 13329 0033 13       		.uleb128 0x13
 13330 0034 00       		.byte	0
 13331 0035 00       		.byte	0
 13332 0036 05       		.uleb128 0x5
 13333 0037 0F       		.uleb128 0xf
 13334 0038 00       		.byte	0
 13335 0039 0B       		.uleb128 0xb
 13336 003a 0B       		.uleb128 0xb
 13337 003b 49       		.uleb128 0x49
 13338 003c 13       		.uleb128 0x13
 13339 003d 00       		.byte	0
 13340 003e 00       		.byte	0
 13341 003f 06       		.uleb128 0x6
 13342 0040 26       		.uleb128 0x26
 13343 0041 00       		.byte	0
 13344 0042 49       		.uleb128 0x49
 13345 0043 13       		.uleb128 0x13
 13346 0044 00       		.byte	0
 13347 0045 00       		.byte	0
 13348 0046 07       		.uleb128 0x7
 13349 0047 16       		.uleb128 0x16
 13350 0048 00       		.byte	0
 13351 0049 03       		.uleb128 0x3
 13352 004a 0E       		.uleb128 0xe
ARM GAS  C:\Users\FRANKL~1\AppData\Local\Temp\ccCAoJJX.s 			page 274


 13353 004b 3A       		.uleb128 0x3a
 13354 004c 0B       		.uleb128 0xb
 13355 004d 3B       		.uleb128 0x3b
 13356 004e 05       		.uleb128 0x5
 13357 004f 49       		.uleb128 0x49
 13358 0050 13       		.uleb128 0x13
 13359 0051 00       		.byte	0
 13360 0052 00       		.byte	0
 13361 0053 08       		.uleb128 0x8
 13362 0054 35       		.uleb128 0x35
 13363 0055 00       		.byte	0
 13364 0056 49       		.uleb128 0x49
 13365 0057 13       		.uleb128 0x13
 13366 0058 00       		.byte	0
 13367 0059 00       		.byte	0
 13368 005a 09       		.uleb128 0x9
 13369 005b 01       		.uleb128 0x1
 13370 005c 01       		.byte	0x1
 13371 005d 49       		.uleb128 0x49
 13372 005e 13       		.uleb128 0x13
 13373 005f 01       		.uleb128 0x1
 13374 0060 13       		.uleb128 0x13
 13375 0061 00       		.byte	0
 13376 0062 00       		.byte	0
 13377 0063 0A       		.uleb128 0xa
 13378 0064 21       		.uleb128 0x21
 13379 0065 00       		.byte	0
 13380 0066 49       		.uleb128 0x49
 13381 0067 13       		.uleb128 0x13
 13382 0068 2F       		.uleb128 0x2f
 13383 0069 0B       		.uleb128 0xb
 13384 006a 00       		.byte	0
 13385 006b 00       		.byte	0
 13386 006c 0B       		.uleb128 0xb
 13387 006d 13       		.uleb128 0x13
 13388 006e 01       		.byte	0x1
 13389 006f 0B       		.uleb128 0xb
 13390 0070 0B       		.uleb128 0xb
 13391 0071 3A       		.uleb128 0x3a
 13392 0072 0B       		.uleb128 0xb
 13393 0073 3B       		.uleb128 0x3b
 13394 0074 0B       		.uleb128 0xb
 13395 0075 01       		.uleb128 0x1
 13396 0076 13       		.uleb128 0x13
 13397 0077 00       		.byte	0
 13398 0078 00       		.byte	0
 13399 0079 0C       		.uleb128 0xc
 13400 007a 0D       		.uleb128 0xd
 13401 007b 00       		.byte	0
 13402 007c 03       		.uleb128 0x3
 13403 007d 0E       		.uleb128 0xe
 13404 007e 3A       		.uleb128 0x3a
 13405 007f 0B       		.uleb128 0xb
 13406 0080 3B       		.uleb128 0x3b
 13407 0081 0B       		.uleb128 0xb
 13408 0082 49       		.uleb128 0x49
 13409 0083 13       		.uleb128 0x13
ARM GAS  C:\Users\FRANKL~1\AppData\Local\Temp\ccCAoJJX.s 			page 275


 13410 0084 38       		.uleb128 0x38
 13411 0085 0B       		.uleb128 0xb
 13412 0086 00       		.byte	0
 13413 0087 00       		.byte	0
 13414 0088 0D       		.uleb128 0xd
 13415 0089 13       		.uleb128 0x13
 13416 008a 01       		.byte	0x1
 13417 008b 03       		.uleb128 0x3
 13418 008c 0E       		.uleb128 0xe
 13419 008d 0B       		.uleb128 0xb
 13420 008e 0B       		.uleb128 0xb
 13421 008f 3A       		.uleb128 0x3a
 13422 0090 0B       		.uleb128 0xb
 13423 0091 3B       		.uleb128 0x3b
 13424 0092 0B       		.uleb128 0xb
 13425 0093 01       		.uleb128 0x1
 13426 0094 13       		.uleb128 0x13
 13427 0095 00       		.byte	0
 13428 0096 00       		.byte	0
 13429 0097 0E       		.uleb128 0xe
 13430 0098 04       		.uleb128 0x4
 13431 0099 01       		.byte	0x1
 13432 009a 03       		.uleb128 0x3
 13433 009b 0E       		.uleb128 0xe
 13434 009c 0B       		.uleb128 0xb
 13435 009d 0B       		.uleb128 0xb
 13436 009e 49       		.uleb128 0x49
 13437 009f 13       		.uleb128 0x13
 13438 00a0 3A       		.uleb128 0x3a
 13439 00a1 0B       		.uleb128 0xb
 13440 00a2 3B       		.uleb128 0x3b
 13441 00a3 0B       		.uleb128 0xb
 13442 00a4 01       		.uleb128 0x1
 13443 00a5 13       		.uleb128 0x13
 13444 00a6 00       		.byte	0
 13445 00a7 00       		.byte	0
 13446 00a8 0F       		.uleb128 0xf
 13447 00a9 28       		.uleb128 0x28
 13448 00aa 00       		.byte	0
 13449 00ab 03       		.uleb128 0x3
 13450 00ac 0E       		.uleb128 0xe
 13451 00ad 1C       		.uleb128 0x1c
 13452 00ae 0B       		.uleb128 0xb
 13453 00af 00       		.byte	0
 13454 00b0 00       		.byte	0
 13455 00b1 10       		.uleb128 0x10
 13456 00b2 2E       		.uleb128 0x2e
 13457 00b3 01       		.byte	0x1
 13458 00b4 3F       		.uleb128 0x3f
 13459 00b5 19       		.uleb128 0x19
 13460 00b6 03       		.uleb128 0x3
 13461 00b7 0E       		.uleb128 0xe
 13462 00b8 3A       		.uleb128 0x3a
 13463 00b9 0B       		.uleb128 0xb
 13464 00ba 3B       		.uleb128 0x3b
 13465 00bb 0B       		.uleb128 0xb
 13466 00bc 11       		.uleb128 0x11
ARM GAS  C:\Users\FRANKL~1\AppData\Local\Temp\ccCAoJJX.s 			page 276


 13467 00bd 01       		.uleb128 0x1
 13468 00be 12       		.uleb128 0x12
 13469 00bf 06       		.uleb128 0x6
 13470 00c0 40       		.uleb128 0x40
 13471 00c1 18       		.uleb128 0x18
 13472 00c2 9742     		.uleb128 0x2117
 13473 00c4 19       		.uleb128 0x19
 13474 00c5 01       		.uleb128 0x1
 13475 00c6 13       		.uleb128 0x13
 13476 00c7 00       		.byte	0
 13477 00c8 00       		.byte	0
 13478 00c9 11       		.uleb128 0x11
 13479 00ca 34       		.uleb128 0x34
 13480 00cb 00       		.byte	0
 13481 00cc 03       		.uleb128 0x3
 13482 00cd 0E       		.uleb128 0xe
 13483 00ce 3A       		.uleb128 0x3a
 13484 00cf 0B       		.uleb128 0xb
 13485 00d0 3B       		.uleb128 0x3b
 13486 00d1 0B       		.uleb128 0xb
 13487 00d2 49       		.uleb128 0x49
 13488 00d3 13       		.uleb128 0x13
 13489 00d4 02       		.uleb128 0x2
 13490 00d5 17       		.uleb128 0x17
 13491 00d6 00       		.byte	0
 13492 00d7 00       		.byte	0
 13493 00d8 12       		.uleb128 0x12
 13494 00d9 898201   		.uleb128 0x4109
 13495 00dc 00       		.byte	0
 13496 00dd 11       		.uleb128 0x11
 13497 00de 01       		.uleb128 0x1
 13498 00df 31       		.uleb128 0x31
 13499 00e0 13       		.uleb128 0x13
 13500 00e1 00       		.byte	0
 13501 00e2 00       		.byte	0
 13502 00e3 13       		.uleb128 0x13
 13503 00e4 2E       		.uleb128 0x2e
 13504 00e5 01       		.byte	0x1
 13505 00e6 3F       		.uleb128 0x3f
 13506 00e7 19       		.uleb128 0x19
 13507 00e8 03       		.uleb128 0x3
 13508 00e9 0E       		.uleb128 0xe
 13509 00ea 3A       		.uleb128 0x3a
 13510 00eb 0B       		.uleb128 0xb
 13511 00ec 3B       		.uleb128 0x3b
 13512 00ed 0B       		.uleb128 0xb
 13513 00ee 49       		.uleb128 0x49
 13514 00ef 13       		.uleb128 0x13
 13515 00f0 11       		.uleb128 0x11
 13516 00f1 01       		.uleb128 0x1
 13517 00f2 12       		.uleb128 0x12
 13518 00f3 06       		.uleb128 0x6
 13519 00f4 40       		.uleb128 0x40
 13520 00f5 18       		.uleb128 0x18
 13521 00f6 9742     		.uleb128 0x2117
 13522 00f8 19       		.uleb128 0x19
 13523 00f9 01       		.uleb128 0x1
ARM GAS  C:\Users\FRANKL~1\AppData\Local\Temp\ccCAoJJX.s 			page 277


 13524 00fa 13       		.uleb128 0x13
 13525 00fb 00       		.byte	0
 13526 00fc 00       		.byte	0
 13527 00fd 14       		.uleb128 0x14
 13528 00fe 2E       		.uleb128 0x2e
 13529 00ff 01       		.byte	0x1
 13530 0100 3F       		.uleb128 0x3f
 13531 0101 19       		.uleb128 0x19
 13532 0102 03       		.uleb128 0x3
 13533 0103 0E       		.uleb128 0xe
 13534 0104 3A       		.uleb128 0x3a
 13535 0105 0B       		.uleb128 0xb
 13536 0106 3B       		.uleb128 0x3b
 13537 0107 05       		.uleb128 0x5
 13538 0108 27       		.uleb128 0x27
 13539 0109 19       		.uleb128 0x19
 13540 010a 11       		.uleb128 0x11
 13541 010b 01       		.uleb128 0x1
 13542 010c 12       		.uleb128 0x12
 13543 010d 06       		.uleb128 0x6
 13544 010e 40       		.uleb128 0x40
 13545 010f 18       		.uleb128 0x18
 13546 0110 9742     		.uleb128 0x2117
 13547 0112 19       		.uleb128 0x19
 13548 0113 01       		.uleb128 0x1
 13549 0114 13       		.uleb128 0x13
 13550 0115 00       		.byte	0
 13551 0116 00       		.byte	0
 13552 0117 15       		.uleb128 0x15
 13553 0118 0B       		.uleb128 0xb
 13554 0119 01       		.byte	0x1
 13555 011a 11       		.uleb128 0x11
 13556 011b 01       		.uleb128 0x1
 13557 011c 12       		.uleb128 0x12
 13558 011d 06       		.uleb128 0x6
 13559 011e 01       		.uleb128 0x1
 13560 011f 13       		.uleb128 0x13
 13561 0120 00       		.byte	0
 13562 0121 00       		.byte	0
 13563 0122 16       		.uleb128 0x16
 13564 0123 34       		.uleb128 0x34
 13565 0124 00       		.byte	0
 13566 0125 03       		.uleb128 0x3
 13567 0126 0E       		.uleb128 0xe
 13568 0127 3A       		.uleb128 0x3a
 13569 0128 0B       		.uleb128 0xb
 13570 0129 3B       		.uleb128 0x3b
 13571 012a 05       		.uleb128 0x5
 13572 012b 49       		.uleb128 0x49
 13573 012c 13       		.uleb128 0x13
 13574 012d 02       		.uleb128 0x2
 13575 012e 18       		.uleb128 0x18
 13576 012f 00       		.byte	0
 13577 0130 00       		.byte	0
 13578 0131 17       		.uleb128 0x17
 13579 0132 34       		.uleb128 0x34
 13580 0133 00       		.byte	0
ARM GAS  C:\Users\FRANKL~1\AppData\Local\Temp\ccCAoJJX.s 			page 278


 13581 0134 03       		.uleb128 0x3
 13582 0135 0E       		.uleb128 0xe
 13583 0136 3A       		.uleb128 0x3a
 13584 0137 0B       		.uleb128 0xb
 13585 0138 3B       		.uleb128 0x3b
 13586 0139 05       		.uleb128 0x5
 13587 013a 49       		.uleb128 0x49
 13588 013b 13       		.uleb128 0x13
 13589 013c 02       		.uleb128 0x2
 13590 013d 17       		.uleb128 0x17
 13591 013e 00       		.byte	0
 13592 013f 00       		.byte	0
 13593 0140 18       		.uleb128 0x18
 13594 0141 34       		.uleb128 0x34
 13595 0142 00       		.byte	0
 13596 0143 03       		.uleb128 0x3
 13597 0144 08       		.uleb128 0x8
 13598 0145 3A       		.uleb128 0x3a
 13599 0146 0B       		.uleb128 0xb
 13600 0147 3B       		.uleb128 0x3b
 13601 0148 05       		.uleb128 0x5
 13602 0149 49       		.uleb128 0x49
 13603 014a 13       		.uleb128 0x13
 13604 014b 02       		.uleb128 0x2
 13605 014c 17       		.uleb128 0x17
 13606 014d 00       		.byte	0
 13607 014e 00       		.byte	0
 13608 014f 19       		.uleb128 0x19
 13609 0150 0B       		.uleb128 0xb
 13610 0151 01       		.byte	0x1
 13611 0152 11       		.uleb128 0x11
 13612 0153 01       		.uleb128 0x1
 13613 0154 12       		.uleb128 0x12
 13614 0155 06       		.uleb128 0x6
 13615 0156 00       		.byte	0
 13616 0157 00       		.byte	0
 13617 0158 1A       		.uleb128 0x1a
 13618 0159 898201   		.uleb128 0x4109
 13619 015c 01       		.byte	0x1
 13620 015d 11       		.uleb128 0x11
 13621 015e 01       		.uleb128 0x1
 13622 015f 31       		.uleb128 0x31
 13623 0160 13       		.uleb128 0x13
 13624 0161 00       		.byte	0
 13625 0162 00       		.byte	0
 13626 0163 1B       		.uleb128 0x1b
 13627 0164 8A8201   		.uleb128 0x410a
 13628 0167 00       		.byte	0
 13629 0168 02       		.uleb128 0x2
 13630 0169 18       		.uleb128 0x18
 13631 016a 9142     		.uleb128 0x2111
 13632 016c 18       		.uleb128 0x18
 13633 016d 00       		.byte	0
 13634 016e 00       		.byte	0
 13635 016f 1C       		.uleb128 0x1c
 13636 0170 898201   		.uleb128 0x4109
 13637 0173 01       		.byte	0x1
ARM GAS  C:\Users\FRANKL~1\AppData\Local\Temp\ccCAoJJX.s 			page 279


 13638 0174 11       		.uleb128 0x11
 13639 0175 01       		.uleb128 0x1
 13640 0176 31       		.uleb128 0x31
 13641 0177 13       		.uleb128 0x13
 13642 0178 01       		.uleb128 0x1
 13643 0179 13       		.uleb128 0x13
 13644 017a 00       		.byte	0
 13645 017b 00       		.byte	0
 13646 017c 1D       		.uleb128 0x1d
 13647 017d 2E       		.uleb128 0x2e
 13648 017e 01       		.byte	0x1
 13649 017f 3F       		.uleb128 0x3f
 13650 0180 19       		.uleb128 0x19
 13651 0181 03       		.uleb128 0x3
 13652 0182 0E       		.uleb128 0xe
 13653 0183 3A       		.uleb128 0x3a
 13654 0184 0B       		.uleb128 0xb
 13655 0185 3B       		.uleb128 0x3b
 13656 0186 0B       		.uleb128 0xb
 13657 0187 27       		.uleb128 0x27
 13658 0188 19       		.uleb128 0x19
 13659 0189 49       		.uleb128 0x49
 13660 018a 13       		.uleb128 0x13
 13661 018b 11       		.uleb128 0x11
 13662 018c 01       		.uleb128 0x1
 13663 018d 12       		.uleb128 0x12
 13664 018e 06       		.uleb128 0x6
 13665 018f 40       		.uleb128 0x40
 13666 0190 18       		.uleb128 0x18
 13667 0191 9742     		.uleb128 0x2117
 13668 0193 19       		.uleb128 0x19
 13669 0194 01       		.uleb128 0x1
 13670 0195 13       		.uleb128 0x13
 13671 0196 00       		.byte	0
 13672 0197 00       		.byte	0
 13673 0198 1E       		.uleb128 0x1e
 13674 0199 05       		.uleb128 0x5
 13675 019a 00       		.byte	0
 13676 019b 03       		.uleb128 0x3
 13677 019c 0E       		.uleb128 0xe
 13678 019d 3A       		.uleb128 0x3a
 13679 019e 0B       		.uleb128 0xb
 13680 019f 3B       		.uleb128 0x3b
 13681 01a0 0B       		.uleb128 0xb
 13682 01a1 49       		.uleb128 0x49
 13683 01a2 13       		.uleb128 0x13
 13684 01a3 02       		.uleb128 0x2
 13685 01a4 17       		.uleb128 0x17
 13686 01a5 00       		.byte	0
 13687 01a6 00       		.byte	0
 13688 01a7 1F       		.uleb128 0x1f
 13689 01a8 0B       		.uleb128 0xb
 13690 01a9 01       		.byte	0x1
 13691 01aa 55       		.uleb128 0x55
 13692 01ab 17       		.uleb128 0x17
 13693 01ac 01       		.uleb128 0x1
 13694 01ad 13       		.uleb128 0x13
ARM GAS  C:\Users\FRANKL~1\AppData\Local\Temp\ccCAoJJX.s 			page 280


 13695 01ae 00       		.byte	0
 13696 01af 00       		.byte	0
 13697 01b0 20       		.uleb128 0x20
 13698 01b1 34       		.uleb128 0x34
 13699 01b2 00       		.byte	0
 13700 01b3 03       		.uleb128 0x3
 13701 01b4 08       		.uleb128 0x8
 13702 01b5 3A       		.uleb128 0x3a
 13703 01b6 0B       		.uleb128 0xb
 13704 01b7 3B       		.uleb128 0x3b
 13705 01b8 0B       		.uleb128 0xb
 13706 01b9 49       		.uleb128 0x49
 13707 01ba 13       		.uleb128 0x13
 13708 01bb 02       		.uleb128 0x2
 13709 01bc 17       		.uleb128 0x17
 13710 01bd 00       		.byte	0
 13711 01be 00       		.byte	0
 13712 01bf 21       		.uleb128 0x21
 13713 01c0 2E       		.uleb128 0x2e
 13714 01c1 01       		.byte	0x1
 13715 01c2 3F       		.uleb128 0x3f
 13716 01c3 19       		.uleb128 0x19
 13717 01c4 03       		.uleb128 0x3
 13718 01c5 0E       		.uleb128 0xe
 13719 01c6 3A       		.uleb128 0x3a
 13720 01c7 0B       		.uleb128 0xb
 13721 01c8 3B       		.uleb128 0x3b
 13722 01c9 0B       		.uleb128 0xb
 13723 01ca 27       		.uleb128 0x27
 13724 01cb 19       		.uleb128 0x19
 13725 01cc 11       		.uleb128 0x11
 13726 01cd 01       		.uleb128 0x1
 13727 01ce 12       		.uleb128 0x12
 13728 01cf 06       		.uleb128 0x6
 13729 01d0 40       		.uleb128 0x40
 13730 01d1 18       		.uleb128 0x18
 13731 01d2 9742     		.uleb128 0x2117
 13732 01d4 19       		.uleb128 0x19
 13733 01d5 01       		.uleb128 0x1
 13734 01d6 13       		.uleb128 0x13
 13735 01d7 00       		.byte	0
 13736 01d8 00       		.byte	0
 13737 01d9 22       		.uleb128 0x22
 13738 01da 05       		.uleb128 0x5
 13739 01db 00       		.byte	0
 13740 01dc 03       		.uleb128 0x3
 13741 01dd 0E       		.uleb128 0xe
 13742 01de 3A       		.uleb128 0x3a
 13743 01df 0B       		.uleb128 0xb
 13744 01e0 3B       		.uleb128 0x3b
 13745 01e1 0B       		.uleb128 0xb
 13746 01e2 49       		.uleb128 0x49
 13747 01e3 13       		.uleb128 0x13
 13748 01e4 02       		.uleb128 0x2
 13749 01e5 18       		.uleb128 0x18
 13750 01e6 00       		.byte	0
 13751 01e7 00       		.byte	0
ARM GAS  C:\Users\FRANKL~1\AppData\Local\Temp\ccCAoJJX.s 			page 281


 13752 01e8 23       		.uleb128 0x23
 13753 01e9 2E       		.uleb128 0x2e
 13754 01ea 01       		.byte	0x1
 13755 01eb 3F       		.uleb128 0x3f
 13756 01ec 19       		.uleb128 0x19
 13757 01ed 03       		.uleb128 0x3
 13758 01ee 0E       		.uleb128 0xe
 13759 01ef 3A       		.uleb128 0x3a
 13760 01f0 0B       		.uleb128 0xb
 13761 01f1 3B       		.uleb128 0x3b
 13762 01f2 0B       		.uleb128 0xb
 13763 01f3 27       		.uleb128 0x27
 13764 01f4 19       		.uleb128 0x19
 13765 01f5 11       		.uleb128 0x11
 13766 01f6 01       		.uleb128 0x1
 13767 01f7 12       		.uleb128 0x12
 13768 01f8 06       		.uleb128 0x6
 13769 01f9 40       		.uleb128 0x40
 13770 01fa 18       		.uleb128 0x18
 13771 01fb 9642     		.uleb128 0x2116
 13772 01fd 19       		.uleb128 0x19
 13773 01fe 01       		.uleb128 0x1
 13774 01ff 13       		.uleb128 0x13
 13775 0200 00       		.byte	0
 13776 0201 00       		.byte	0
 13777 0202 24       		.uleb128 0x24
 13778 0203 05       		.uleb128 0x5
 13779 0204 00       		.byte	0
 13780 0205 03       		.uleb128 0x3
 13781 0206 0E       		.uleb128 0xe
 13782 0207 3A       		.uleb128 0x3a
 13783 0208 0B       		.uleb128 0xb
 13784 0209 3B       		.uleb128 0x3b
 13785 020a 05       		.uleb128 0x5
 13786 020b 49       		.uleb128 0x49
 13787 020c 13       		.uleb128 0x13
 13788 020d 02       		.uleb128 0x2
 13789 020e 18       		.uleb128 0x18
 13790 020f 00       		.byte	0
 13791 0210 00       		.byte	0
 13792 0211 25       		.uleb128 0x25
 13793 0212 2E       		.uleb128 0x2e
 13794 0213 01       		.byte	0x1
 13795 0214 3F       		.uleb128 0x3f
 13796 0215 19       		.uleb128 0x19
 13797 0216 03       		.uleb128 0x3
 13798 0217 0E       		.uleb128 0xe
 13799 0218 3A       		.uleb128 0x3a
 13800 0219 0B       		.uleb128 0xb
 13801 021a 3B       		.uleb128 0x3b
 13802 021b 05       		.uleb128 0x5
 13803 021c 27       		.uleb128 0x27
 13804 021d 19       		.uleb128 0x19
 13805 021e 49       		.uleb128 0x49
 13806 021f 13       		.uleb128 0x13
 13807 0220 11       		.uleb128 0x11
 13808 0221 01       		.uleb128 0x1
ARM GAS  C:\Users\FRANKL~1\AppData\Local\Temp\ccCAoJJX.s 			page 282


 13809 0222 12       		.uleb128 0x12
 13810 0223 06       		.uleb128 0x6
 13811 0224 40       		.uleb128 0x40
 13812 0225 18       		.uleb128 0x18
 13813 0226 9742     		.uleb128 0x2117
 13814 0228 19       		.uleb128 0x19
 13815 0229 01       		.uleb128 0x1
 13816 022a 13       		.uleb128 0x13
 13817 022b 00       		.byte	0
 13818 022c 00       		.byte	0
 13819 022d 26       		.uleb128 0x26
 13820 022e 05       		.uleb128 0x5
 13821 022f 00       		.byte	0
 13822 0230 03       		.uleb128 0x3
 13823 0231 0E       		.uleb128 0xe
 13824 0232 3A       		.uleb128 0x3a
 13825 0233 0B       		.uleb128 0xb
 13826 0234 3B       		.uleb128 0x3b
 13827 0235 05       		.uleb128 0x5
 13828 0236 49       		.uleb128 0x49
 13829 0237 13       		.uleb128 0x13
 13830 0238 02       		.uleb128 0x2
 13831 0239 17       		.uleb128 0x17
 13832 023a 00       		.byte	0
 13833 023b 00       		.byte	0
 13834 023c 27       		.uleb128 0x27
 13835 023d 2E       		.uleb128 0x2e
 13836 023e 01       		.byte	0x1
 13837 023f 3F       		.uleb128 0x3f
 13838 0240 19       		.uleb128 0x19
 13839 0241 03       		.uleb128 0x3
 13840 0242 0E       		.uleb128 0xe
 13841 0243 3A       		.uleb128 0x3a
 13842 0244 0B       		.uleb128 0xb
 13843 0245 3B       		.uleb128 0x3b
 13844 0246 05       		.uleb128 0x5
 13845 0247 27       		.uleb128 0x27
 13846 0248 19       		.uleb128 0x19
 13847 0249 11       		.uleb128 0x11
 13848 024a 01       		.uleb128 0x1
 13849 024b 12       		.uleb128 0x12
 13850 024c 06       		.uleb128 0x6
 13851 024d 40       		.uleb128 0x40
 13852 024e 18       		.uleb128 0x18
 13853 024f 9642     		.uleb128 0x2116
 13854 0251 19       		.uleb128 0x19
 13855 0252 01       		.uleb128 0x1
 13856 0253 13       		.uleb128 0x13
 13857 0254 00       		.byte	0
 13858 0255 00       		.byte	0
 13859 0256 28       		.uleb128 0x28
 13860 0257 0B       		.uleb128 0xb
 13861 0258 01       		.byte	0x1
 13862 0259 55       		.uleb128 0x55
 13863 025a 17       		.uleb128 0x17
 13864 025b 00       		.byte	0
 13865 025c 00       		.byte	0
ARM GAS  C:\Users\FRANKL~1\AppData\Local\Temp\ccCAoJJX.s 			page 283


 13866 025d 29       		.uleb128 0x29
 13867 025e 21       		.uleb128 0x21
 13868 025f 00       		.byte	0
 13869 0260 49       		.uleb128 0x49
 13870 0261 13       		.uleb128 0x13
 13871 0262 2F       		.uleb128 0x2f
 13872 0263 18       		.uleb128 0x18
 13873 0264 00       		.byte	0
 13874 0265 00       		.byte	0
 13875 0266 2A       		.uleb128 0x2a
 13876 0267 2E       		.uleb128 0x2e
 13877 0268 01       		.byte	0x1
 13878 0269 3F       		.uleb128 0x3f
 13879 026a 19       		.uleb128 0x19
 13880 026b 03       		.uleb128 0x3
 13881 026c 0E       		.uleb128 0xe
 13882 026d 3A       		.uleb128 0x3a
 13883 026e 0B       		.uleb128 0xb
 13884 026f 3B       		.uleb128 0x3b
 13885 0270 05       		.uleb128 0x5
 13886 0271 49       		.uleb128 0x49
 13887 0272 13       		.uleb128 0x13
 13888 0273 11       		.uleb128 0x11
 13889 0274 01       		.uleb128 0x1
 13890 0275 12       		.uleb128 0x12
 13891 0276 06       		.uleb128 0x6
 13892 0277 40       		.uleb128 0x40
 13893 0278 18       		.uleb128 0x18
 13894 0279 9642     		.uleb128 0x2116
 13895 027b 19       		.uleb128 0x19
 13896 027c 01       		.uleb128 0x1
 13897 027d 13       		.uleb128 0x13
 13898 027e 00       		.byte	0
 13899 027f 00       		.byte	0
 13900 0280 2B       		.uleb128 0x2b
 13901 0281 2E       		.uleb128 0x2e
 13902 0282 01       		.byte	0x1
 13903 0283 3F       		.uleb128 0x3f
 13904 0284 19       		.uleb128 0x19
 13905 0285 03       		.uleb128 0x3
 13906 0286 0E       		.uleb128 0xe
 13907 0287 3A       		.uleb128 0x3a
 13908 0288 0B       		.uleb128 0xb
 13909 0289 3B       		.uleb128 0x3b
 13910 028a 05       		.uleb128 0x5
 13911 028b 11       		.uleb128 0x11
 13912 028c 01       		.uleb128 0x1
 13913 028d 12       		.uleb128 0x12
 13914 028e 06       		.uleb128 0x6
 13915 028f 40       		.uleb128 0x40
 13916 0290 18       		.uleb128 0x18
 13917 0291 9742     		.uleb128 0x2117
 13918 0293 19       		.uleb128 0x19
 13919 0294 01       		.uleb128 0x1
 13920 0295 13       		.uleb128 0x13
 13921 0296 00       		.byte	0
 13922 0297 00       		.byte	0
ARM GAS  C:\Users\FRANKL~1\AppData\Local\Temp\ccCAoJJX.s 			page 284


 13923 0298 2C       		.uleb128 0x2c
 13924 0299 05       		.uleb128 0x5
 13925 029a 00       		.byte	0
 13926 029b 03       		.uleb128 0x3
 13927 029c 08       		.uleb128 0x8
 13928 029d 3A       		.uleb128 0x3a
 13929 029e 0B       		.uleb128 0xb
 13930 029f 3B       		.uleb128 0x3b
 13931 02a0 05       		.uleb128 0x5
 13932 02a1 49       		.uleb128 0x49
 13933 02a2 13       		.uleb128 0x13
 13934 02a3 02       		.uleb128 0x2
 13935 02a4 17       		.uleb128 0x17
 13936 02a5 00       		.byte	0
 13937 02a6 00       		.byte	0
 13938 02a7 2D       		.uleb128 0x2d
 13939 02a8 34       		.uleb128 0x34
 13940 02a9 00       		.byte	0
 13941 02aa 03       		.uleb128 0x3
 13942 02ab 0E       		.uleb128 0xe
 13943 02ac 3A       		.uleb128 0x3a
 13944 02ad 0B       		.uleb128 0xb
 13945 02ae 3B       		.uleb128 0x3b
 13946 02af 05       		.uleb128 0x5
 13947 02b0 49       		.uleb128 0x49
 13948 02b1 13       		.uleb128 0x13
 13949 02b2 00       		.byte	0
 13950 02b3 00       		.byte	0
 13951 02b4 2E       		.uleb128 0x2e
 13952 02b5 34       		.uleb128 0x34
 13953 02b6 00       		.byte	0
 13954 02b7 03       		.uleb128 0x3
 13955 02b8 0E       		.uleb128 0xe
 13956 02b9 3A       		.uleb128 0x3a
 13957 02ba 0B       		.uleb128 0xb
 13958 02bb 3B       		.uleb128 0x3b
 13959 02bc 05       		.uleb128 0x5
 13960 02bd 49       		.uleb128 0x49
 13961 02be 13       		.uleb128 0x13
 13962 02bf 1C       		.uleb128 0x1c
 13963 02c0 0B       		.uleb128 0xb
 13964 02c1 00       		.byte	0
 13965 02c2 00       		.byte	0
 13966 02c3 2F       		.uleb128 0x2f
 13967 02c4 2E       		.uleb128 0x2e
 13968 02c5 01       		.byte	0x1
 13969 02c6 3F       		.uleb128 0x3f
 13970 02c7 19       		.uleb128 0x19
 13971 02c8 03       		.uleb128 0x3
 13972 02c9 0E       		.uleb128 0xe
 13973 02ca 3A       		.uleb128 0x3a
 13974 02cb 0B       		.uleb128 0xb
 13975 02cc 3B       		.uleb128 0x3b
 13976 02cd 05       		.uleb128 0x5
 13977 02ce 27       		.uleb128 0x27
 13978 02cf 19       		.uleb128 0x19
 13979 02d0 49       		.uleb128 0x49
ARM GAS  C:\Users\FRANKL~1\AppData\Local\Temp\ccCAoJJX.s 			page 285


 13980 02d1 13       		.uleb128 0x13
 13981 02d2 8701     		.uleb128 0x87
 13982 02d4 19       		.uleb128 0x19
 13983 02d5 11       		.uleb128 0x11
 13984 02d6 01       		.uleb128 0x1
 13985 02d7 12       		.uleb128 0x12
 13986 02d8 06       		.uleb128 0x6
 13987 02d9 40       		.uleb128 0x40
 13988 02da 18       		.uleb128 0x18
 13989 02db 9642     		.uleb128 0x2116
 13990 02dd 19       		.uleb128 0x19
 13991 02de 01       		.uleb128 0x1
 13992 02df 13       		.uleb128 0x13
 13993 02e0 00       		.byte	0
 13994 02e1 00       		.byte	0
 13995 02e2 30       		.uleb128 0x30
 13996 02e3 34       		.uleb128 0x34
 13997 02e4 00       		.byte	0
 13998 02e5 03       		.uleb128 0x3
 13999 02e6 08       		.uleb128 0x8
 14000 02e7 3A       		.uleb128 0x3a
 14001 02e8 0B       		.uleb128 0xb
 14002 02e9 3B       		.uleb128 0x3b
 14003 02ea 05       		.uleb128 0x5
 14004 02eb 49       		.uleb128 0x49
 14005 02ec 13       		.uleb128 0x13
 14006 02ed 02       		.uleb128 0x2
 14007 02ee 18       		.uleb128 0x18
 14008 02ef 00       		.byte	0
 14009 02f0 00       		.byte	0
 14010 02f1 31       		.uleb128 0x31
 14011 02f2 34       		.uleb128 0x34
 14012 02f3 00       		.byte	0
 14013 02f4 03       		.uleb128 0x3
 14014 02f5 0E       		.uleb128 0xe
 14015 02f6 3A       		.uleb128 0x3a
 14016 02f7 0B       		.uleb128 0xb
 14017 02f8 3B       		.uleb128 0x3b
 14018 02f9 05       		.uleb128 0x5
 14019 02fa 49       		.uleb128 0x49
 14020 02fb 13       		.uleb128 0x13
 14021 02fc 3F       		.uleb128 0x3f
 14022 02fd 19       		.uleb128 0x19
 14023 02fe 3C       		.uleb128 0x3c
 14024 02ff 19       		.uleb128 0x19
 14025 0300 00       		.byte	0
 14026 0301 00       		.byte	0
 14027 0302 32       		.uleb128 0x32
 14028 0303 34       		.uleb128 0x34
 14029 0304 00       		.byte	0
 14030 0305 03       		.uleb128 0x3
 14031 0306 0E       		.uleb128 0xe
 14032 0307 3A       		.uleb128 0x3a
 14033 0308 0B       		.uleb128 0xb
 14034 0309 3B       		.uleb128 0x3b
 14035 030a 0B       		.uleb128 0xb
 14036 030b 49       		.uleb128 0x49
ARM GAS  C:\Users\FRANKL~1\AppData\Local\Temp\ccCAoJJX.s 			page 286


 14037 030c 13       		.uleb128 0x13
 14038 030d 3F       		.uleb128 0x3f
 14039 030e 19       		.uleb128 0x19
 14040 030f 02       		.uleb128 0x2
 14041 0310 18       		.uleb128 0x18
 14042 0311 00       		.byte	0
 14043 0312 00       		.byte	0
 14044 0313 33       		.uleb128 0x33
 14045 0314 2E       		.uleb128 0x2e
 14046 0315 00       		.byte	0
 14047 0316 3F       		.uleb128 0x3f
 14048 0317 19       		.uleb128 0x19
 14049 0318 3C       		.uleb128 0x3c
 14050 0319 19       		.uleb128 0x19
 14051 031a 6E       		.uleb128 0x6e
 14052 031b 0E       		.uleb128 0xe
 14053 031c 03       		.uleb128 0x3
 14054 031d 0E       		.uleb128 0xe
 14055 031e 3A       		.uleb128 0x3a
 14056 031f 0B       		.uleb128 0xb
 14057 0320 3B       		.uleb128 0x3b
 14058 0321 05       		.uleb128 0x5
 14059 0322 00       		.byte	0
 14060 0323 00       		.byte	0
 14061 0324 34       		.uleb128 0x34
 14062 0325 2E       		.uleb128 0x2e
 14063 0326 00       		.byte	0
 14064 0327 3F       		.uleb128 0x3f
 14065 0328 19       		.uleb128 0x19
 14066 0329 3C       		.uleb128 0x3c
 14067 032a 19       		.uleb128 0x19
 14068 032b 6E       		.uleb128 0x6e
 14069 032c 0E       		.uleb128 0xe
 14070 032d 03       		.uleb128 0x3
 14071 032e 0E       		.uleb128 0xe
 14072 032f 3A       		.uleb128 0x3a
 14073 0330 0B       		.uleb128 0xb
 14074 0331 3B       		.uleb128 0x3b
 14075 0332 0B       		.uleb128 0xb
 14076 0333 00       		.byte	0
 14077 0334 00       		.byte	0
 14078 0335 35       		.uleb128 0x35
 14079 0336 2E       		.uleb128 0x2e
 14080 0337 00       		.byte	0
 14081 0338 3F       		.uleb128 0x3f
 14082 0339 19       		.uleb128 0x19
 14083 033a 3C       		.uleb128 0x3c
 14084 033b 19       		.uleb128 0x19
 14085 033c 6E       		.uleb128 0x6e
 14086 033d 0E       		.uleb128 0xe
 14087 033e 03       		.uleb128 0x3
 14088 033f 0E       		.uleb128 0xe
 14089 0340 3A       		.uleb128 0x3a
 14090 0341 0B       		.uleb128 0xb
 14091 0342 3B       		.uleb128 0x3b
 14092 0343 0B       		.uleb128 0xb
 14093 0344 6E       		.uleb128 0x6e
ARM GAS  C:\Users\FRANKL~1\AppData\Local\Temp\ccCAoJJX.s 			page 287


 14094 0345 0E       		.uleb128 0xe
 14095 0346 00       		.byte	0
 14096 0347 00       		.byte	0
 14097 0348 00       		.byte	0
 14098              		.section	.debug_loc,"",%progbits
 14099              	.Ldebug_loc0:
 14100              	.LLST0:
 14101 0000 02000000 		.4byte	.LVL0
 14102 0004 12000000 		.4byte	.LVL3
 14103 0008 0200     		.2byte	0x2
 14104 000a 30       		.byte	0x30
 14105 000b 9F       		.byte	0x9f
 14106 000c 12000000 		.4byte	.LVL3
 14107 0010 18000000 		.4byte	.LFE64
 14108 0014 0200     		.2byte	0x2
 14109 0016 31       		.byte	0x31
 14110 0017 9F       		.byte	0x9f
 14111 0018 00000000 		.4byte	0
 14112 001c 00000000 		.4byte	0
 14113              	.LLST1:
 14114 0020 14000000 		.4byte	.LVL10
 14115 0024 7C000000 		.4byte	.LVL18
 14116 0028 0100     		.2byte	0x1
 14117 002a 50       		.byte	0x50
 14118 002b 00000000 		.4byte	0
 14119 002f 00000000 		.4byte	0
 14120              	.LLST2:
 14121 0033 14000000 		.4byte	.LVL10
 14122 0037 18000000 		.4byte	.LVL11
 14123 003b 0200     		.2byte	0x2
 14124 003d 30       		.byte	0x30
 14125 003e 9F       		.byte	0x9f
 14126 003f 18000000 		.4byte	.LVL11
 14127 0043 74000000 		.4byte	.LVL16
 14128 0047 0100     		.2byte	0x1
 14129 0049 53       		.byte	0x53
 14130 004a 76000000 		.4byte	.LVL17
 14131 004e 7C000000 		.4byte	.LVL18
 14132 0052 0100     		.2byte	0x1
 14133 0054 53       		.byte	0x53
 14134 0055 00000000 		.4byte	0
 14135 0059 00000000 		.4byte	0
 14136              	.LLST3:
 14137 005d 20000000 		.4byte	.LVL12
 14138 0061 3A000000 		.4byte	.LVL13
 14139 0065 0100     		.2byte	0x1
 14140 0067 52       		.byte	0x52
 14141 0068 3A000000 		.4byte	.LVL13
 14142 006c 58000000 		.4byte	.LVL14
 14143 0070 0800     		.2byte	0x8
 14144 0072 91       		.byte	0x91
 14145 0073 00       		.sleb128 0
 14146 0074 73       		.byte	0x73
 14147 0075 00       		.sleb128 0
 14148 0076 22       		.byte	0x22
 14149 0077 08       		.byte	0x8
 14150 0078 50       		.byte	0x50
ARM GAS  C:\Users\FRANKL~1\AppData\Local\Temp\ccCAoJJX.s 			page 288


 14151 0079 1C       		.byte	0x1c
 14152 007a 58000000 		.4byte	.LVL14
 14153 007e 5C000000 		.4byte	.LVL15
 14154 0082 0100     		.2byte	0x1
 14155 0084 52       		.byte	0x52
 14156 0085 5C000000 		.4byte	.LVL15
 14157 0089 74000000 		.4byte	.LVL16
 14158 008d 0800     		.2byte	0x8
 14159 008f 91       		.byte	0x91
 14160 0090 00       		.sleb128 0
 14161 0091 73       		.byte	0x73
 14162 0092 00       		.sleb128 0
 14163 0093 22       		.byte	0x22
 14164 0094 08       		.byte	0x8
 14165 0095 50       		.byte	0x50
 14166 0096 1C       		.byte	0x1c
 14167 0097 74000000 		.4byte	.LVL16
 14168 009b 76000000 		.4byte	.LVL17
 14169 009f 0800     		.2byte	0x8
 14170 00a1 91       		.byte	0x91
 14171 00a2 00       		.sleb128 0
 14172 00a3 73       		.byte	0x73
 14173 00a4 00       		.sleb128 0
 14174 00a5 22       		.byte	0x22
 14175 00a6 08       		.byte	0x8
 14176 00a7 51       		.byte	0x51
 14177 00a8 1C       		.byte	0x1c
 14178 00a9 00000000 		.4byte	0
 14179 00ad 00000000 		.4byte	0
 14180              	.LLST4:
 14181 00b1 FC000000 		.4byte	.LVL21
 14182 00b5 0C010000 		.4byte	.LVL22
 14183 00b9 0600     		.2byte	0x6
 14184 00bb 03       		.byte	0x3
 14185 00bc 00000000 		.4byte	USBUART_Receive_Buffer
 14186 00c0 9F       		.byte	0x9f
 14187 00c1 0C010000 		.4byte	.LVL22
 14188 00c5 7C010000 		.4byte	.LVL28
 14189 00c9 0100     		.2byte	0x1
 14190 00cb 54       		.byte	0x54
 14191 00cc 00000000 		.4byte	0
 14192 00d0 00000000 		.4byte	0
 14193              	.LLST5:
 14194 00d4 00000000 		.4byte	.LVL31
 14195 00d8 06000000 		.4byte	.LVL32
 14196 00dc 0100     		.2byte	0x1
 14197 00de 50       		.byte	0x50
 14198 00df 06000000 		.4byte	.LVL32
 14199 00e3 08000000 		.4byte	.LVL33
 14200 00e7 0400     		.2byte	0x4
 14201 00e9 F3       		.byte	0xf3
 14202 00ea 01       		.uleb128 0x1
 14203 00eb 50       		.byte	0x50
 14204 00ec 9F       		.byte	0x9f
 14205 00ed 08000000 		.4byte	.LVL33
 14206 00f1 16000000 		.4byte	.LVL37
 14207 00f5 0100     		.2byte	0x1
ARM GAS  C:\Users\FRANKL~1\AppData\Local\Temp\ccCAoJJX.s 			page 289


 14208 00f7 56       		.byte	0x56
 14209 00f8 16000000 		.4byte	.LVL37
 14210 00fc 1E000000 		.4byte	.LVL38
 14211 0100 0100     		.2byte	0x1
 14212 0102 50       		.byte	0x50
 14213 0103 1E000000 		.4byte	.LVL38
 14214 0107 50000000 		.4byte	.LFE66
 14215 010b 0100     		.2byte	0x1
 14216 010d 56       		.byte	0x56
 14217 010e 00000000 		.4byte	0
 14218 0112 00000000 		.4byte	0
 14219              	.LLST6:
 14220 0116 00000000 		.4byte	.LVL31
 14221 011a 08000000 		.4byte	.LVL33
 14222 011e 0100     		.2byte	0x1
 14223 0120 51       		.byte	0x51
 14224 0121 08000000 		.4byte	.LVL33
 14225 0125 16000000 		.4byte	.LVL37
 14226 0129 0400     		.2byte	0x4
 14227 012b F3       		.byte	0xf3
 14228 012c 01       		.uleb128 0x1
 14229 012d 51       		.byte	0x51
 14230 012e 9F       		.byte	0x9f
 14231 012f 16000000 		.4byte	.LVL37
 14232 0133 1E000000 		.4byte	.LVL38
 14233 0137 0100     		.2byte	0x1
 14234 0139 51       		.byte	0x51
 14235 013a 1E000000 		.4byte	.LVL38
 14236 013e 50000000 		.4byte	.LFE66
 14237 0142 0400     		.2byte	0x4
 14238 0144 F3       		.byte	0xf3
 14239 0145 01       		.uleb128 0x1
 14240 0146 51       		.byte	0x51
 14241 0147 9F       		.byte	0x9f
 14242 0148 00000000 		.4byte	0
 14243 014c 00000000 		.4byte	0
 14244              	.LLST7:
 14245 0150 08000000 		.4byte	.LVL33
 14246 0154 16000000 		.4byte	.LVL37
 14247 0158 0100     		.2byte	0x1
 14248 015a 54       		.byte	0x54
 14249 015b 1E000000 		.4byte	.LVL38
 14250 015f 50000000 		.4byte	.LFE66
 14251 0163 0100     		.2byte	0x1
 14252 0165 54       		.byte	0x54
 14253 0166 00000000 		.4byte	0
 14254 016a 00000000 		.4byte	0
 14255              	.LLST8:
 14256 016e 00000000 		.4byte	.LVL43
 14257 0172 08000000 		.4byte	.LVL44
 14258 0176 0100     		.2byte	0x1
 14259 0178 50       		.byte	0x50
 14260 0179 08000000 		.4byte	.LVL44
 14261 017d 24000000 		.4byte	.LFE67
 14262 0181 0100     		.2byte	0x1
 14263 0183 54       		.byte	0x54
 14264 0184 00000000 		.4byte	0
ARM GAS  C:\Users\FRANKL~1\AppData\Local\Temp\ccCAoJJX.s 			page 290


 14265 0188 00000000 		.4byte	0
 14266              	.LLST9:
 14267 018c 00000000 		.4byte	.LVL43
 14268 0190 08000000 		.4byte	.LVL44
 14269 0194 0100     		.2byte	0x1
 14270 0196 51       		.byte	0x51
 14271 0197 08000000 		.4byte	.LVL44
 14272 019b 24000000 		.4byte	.LFE67
 14273 019f 0100     		.2byte	0x1
 14274 01a1 55       		.byte	0x55
 14275 01a2 00000000 		.4byte	0
 14276 01a6 00000000 		.4byte	0
 14277              	.LLST10:
 14278 01aa 00000000 		.4byte	.LVL51
 14279 01ae 1E000000 		.4byte	.LVL56
 14280 01b2 0100     		.2byte	0x1
 14281 01b4 50       		.byte	0x50
 14282 01b5 1E000000 		.4byte	.LVL56
 14283 01b9 58000000 		.4byte	.LFE69
 14284 01bd 0100     		.2byte	0x1
 14285 01bf 55       		.byte	0x55
 14286 01c0 00000000 		.4byte	0
 14287 01c4 00000000 		.4byte	0
 14288              	.LLST11:
 14289 01c8 00000000 		.4byte	.LVL51
 14290 01cc 1E000000 		.4byte	.LVL56
 14291 01d0 0100     		.2byte	0x1
 14292 01d2 51       		.byte	0x51
 14293 01d3 1E000000 		.4byte	.LVL56
 14294 01d7 58000000 		.4byte	.LFE69
 14295 01db 0400     		.2byte	0x4
 14296 01dd F3       		.byte	0xf3
 14297 01de 01       		.uleb128 0x1
 14298 01df 51       		.byte	0x51
 14299 01e0 9F       		.byte	0x9f
 14300 01e1 00000000 		.4byte	0
 14301 01e5 00000000 		.4byte	0
 14302              	.LLST12:
 14303 01e9 00000000 		.4byte	.LVL51
 14304 01ed 0E000000 		.4byte	.LVL53
 14305 01f1 0100     		.2byte	0x1
 14306 01f3 52       		.byte	0x52
 14307 01f4 0E000000 		.4byte	.LVL53
 14308 01f8 58000000 		.4byte	.LFE69
 14309 01fc 0100     		.2byte	0x1
 14310 01fe 57       		.byte	0x57
 14311 01ff 00000000 		.4byte	0
 14312 0203 00000000 		.4byte	0
 14313              	.LLST13:
 14314 0207 0A000000 		.4byte	.LVL52
 14315 020b 0E000000 		.4byte	.LVL53
 14316 020f 0200     		.2byte	0x2
 14317 0211 30       		.byte	0x30
 14318 0212 9F       		.byte	0x9f
 14319 0213 0E000000 		.4byte	.LVL53
 14320 0217 14000000 		.4byte	.LVL54
 14321 021b 0100     		.2byte	0x1
ARM GAS  C:\Users\FRANKL~1\AppData\Local\Temp\ccCAoJJX.s 			page 291


 14322 021d 53       		.byte	0x53
 14323 021e 16000000 		.4byte	.LVL55
 14324 0222 1E000000 		.4byte	.LVL56
 14325 0226 0100     		.2byte	0x1
 14326 0228 53       		.byte	0x53
 14327 0229 00000000 		.4byte	0
 14328 022d 00000000 		.4byte	0
 14329              	.LLST14:
 14330 0231 1E000000 		.4byte	.LVL56
 14331 0235 4A000000 		.4byte	.LVL61
 14332 0239 0100     		.2byte	0x1
 14333 023b 54       		.byte	0x54
 14334 023c 4C000000 		.4byte	.LVL62
 14335 0240 58000000 		.4byte	.LFE69
 14336 0244 0100     		.2byte	0x1
 14337 0246 54       		.byte	0x54
 14338 0247 00000000 		.4byte	0
 14339 024b 00000000 		.4byte	0
 14340              	.LLST15:
 14341 024f 0A000000 		.4byte	.LVL67
 14342 0253 0E000000 		.4byte	.LVL68
 14343 0257 0200     		.2byte	0x2
 14344 0259 30       		.byte	0x30
 14345 025a 9F       		.byte	0x9f
 14346 025b 0E000000 		.4byte	.LVL68
 14347 025f 16000000 		.4byte	.LVL69
 14348 0263 0100     		.2byte	0x1
 14349 0265 53       		.byte	0x53
 14350 0266 18000000 		.4byte	.LVL70
 14351 026a 1E000000 		.4byte	.LVL71
 14352 026e 0100     		.2byte	0x1
 14353 0270 53       		.byte	0x53
 14354 0271 00000000 		.4byte	0
 14355 0275 00000000 		.4byte	0
 14356              	.LLST16:
 14357 0279 20000000 		.4byte	.LVL72
 14358 027d 2A000000 		.4byte	.LVL73
 14359 0281 0100     		.2byte	0x1
 14360 0283 53       		.byte	0x53
 14361 0284 2C000000 		.4byte	.LVL74
 14362 0288 32000000 		.4byte	.LFE71
 14363 028c 0100     		.2byte	0x1
 14364 028e 53       		.byte	0x53
 14365 028f 00000000 		.4byte	0
 14366 0293 00000000 		.4byte	0
 14367              	.LLST17:
 14368 0297 00000000 		.4byte	.LVL75
 14369 029b 10000000 		.4byte	.LVL76
 14370 029f 0100     		.2byte	0x1
 14371 02a1 50       		.byte	0x50
 14372 02a2 10000000 		.4byte	.LVL76
 14373 02a6 28010000 		.4byte	.LFE72
 14374 02aa 0400     		.2byte	0x4
 14375 02ac F3       		.byte	0xf3
 14376 02ad 01       		.uleb128 0x1
 14377 02ae 50       		.byte	0x50
 14378 02af 9F       		.byte	0x9f
ARM GAS  C:\Users\FRANKL~1\AppData\Local\Temp\ccCAoJJX.s 			page 292


 14379 02b0 00000000 		.4byte	0
 14380 02b4 00000000 		.4byte	0
 14381              	.LLST18:
 14382 02b8 18000000 		.4byte	.LVL78
 14383 02bc 20000000 		.4byte	.LVL80
 14384 02c0 0C00     		.2byte	0xc
 14385 02c2 74       		.byte	0x74
 14386 02c3 00       		.sleb128 0
 14387 02c4 08       		.byte	0x8
 14388 02c5 FF       		.byte	0xff
 14389 02c6 1E       		.byte	0x1e
 14390 02c7 03       		.byte	0x3
 14391 02c8 00000000 		.4byte	selectors
 14392 02cc 22       		.byte	0x22
 14393 02cd 9F       		.byte	0x9f
 14394 02ce 20000000 		.4byte	.LVL80
 14395 02d2 F6000000 		.4byte	.LVL99
 14396 02d6 0C00     		.2byte	0xc
 14397 02d8 78       		.byte	0x78
 14398 02d9 7F       		.sleb128 -1
 14399 02da 08       		.byte	0x8
 14400 02db FF       		.byte	0xff
 14401 02dc 1E       		.byte	0x1e
 14402 02dd 03       		.byte	0x3
 14403 02de 00000000 		.4byte	selectors
 14404 02e2 22       		.byte	0x22
 14405 02e3 9F       		.byte	0x9f
 14406 02e4 00000000 		.4byte	0
 14407 02e8 00000000 		.4byte	0
 14408              	.LLST19:
 14409 02ec 32000000 		.4byte	.LVL81
 14410 02f0 36000000 		.4byte	.LVL82
 14411 02f4 0200     		.2byte	0x2
 14412 02f6 30       		.byte	0x30
 14413 02f7 9F       		.byte	0x9f
 14414 02f8 36000000 		.4byte	.LVL82
 14415 02fc A4000000 		.4byte	.LVL92
 14416 0300 0100     		.2byte	0x1
 14417 0302 54       		.byte	0x54
 14418 0303 00000000 		.4byte	0
 14419 0307 00000000 		.4byte	0
 14420              	.LLST20:
 14421 030b 02000000 		.4byte	.LVL100
 14422 030f 06000000 		.4byte	.LVL101
 14423 0313 0200     		.2byte	0x2
 14424 0315 30       		.byte	0x30
 14425 0316 9F       		.byte	0x9f
 14426 0317 06000000 		.4byte	.LVL101
 14427 031b 14000000 		.4byte	.LVL103
 14428 031f 0100     		.2byte	0x1
 14429 0321 54       		.byte	0x54
 14430 0322 16000000 		.4byte	.LVL104
 14431 0326 36000000 		.4byte	.LVL105
 14432 032a 0100     		.2byte	0x1
 14433 032c 54       		.byte	0x54
 14434 032d 00000000 		.4byte	0
 14435 0331 00000000 		.4byte	0
ARM GAS  C:\Users\FRANKL~1\AppData\Local\Temp\ccCAoJJX.s 			page 293


 14436              	.LLST21:
 14437 0335 00000000 		.4byte	.LVL106
 14438 0339 04000000 		.4byte	.LVL107
 14439 033d 0100     		.2byte	0x1
 14440 033f 50       		.byte	0x50
 14441 0340 04000000 		.4byte	.LVL107
 14442 0344 06000000 		.4byte	.LVL108
 14443 0348 0400     		.2byte	0x4
 14444 034a F3       		.byte	0xf3
 14445 034b 01       		.uleb128 0x1
 14446 034c 50       		.byte	0x50
 14447 034d 9F       		.byte	0x9f
 14448 034e 06000000 		.4byte	.LVL108
 14449 0352 1C000000 		.4byte	.LVL110
 14450 0356 0100     		.2byte	0x1
 14451 0358 53       		.byte	0x53
 14452 0359 00000000 		.4byte	0
 14453 035d 00000000 		.4byte	0
 14454              	.LLST22:
 14455 0361 00000000 		.4byte	.LVL106
 14456 0365 06000000 		.4byte	.LVL108
 14457 0369 0100     		.2byte	0x1
 14458 036b 51       		.byte	0x51
 14459 036c 06000000 		.4byte	.LVL108
 14460 0370 0C000000 		.4byte	.LVL109
 14461 0374 0300     		.2byte	0x3
 14462 0376 71       		.byte	0x71
 14463 0377 7F       		.sleb128 -1
 14464 0378 9F       		.byte	0x9f
 14465 0379 0C000000 		.4byte	.LVL109
 14466 037d 2C000000 		.4byte	.LFE74
 14467 0381 0600     		.2byte	0x6
 14468 0383 F3       		.byte	0xf3
 14469 0384 01       		.uleb128 0x1
 14470 0385 51       		.byte	0x51
 14471 0386 31       		.byte	0x31
 14472 0387 1C       		.byte	0x1c
 14473 0388 9F       		.byte	0x9f
 14474 0389 00000000 		.4byte	0
 14475 038d 00000000 		.4byte	0
 14476              	.LLST23:
 14477 0391 00000000 		.4byte	.LVL112
 14478 0395 02000000 		.4byte	.LVL113
 14479 0399 0100     		.2byte	0x1
 14480 039b 50       		.byte	0x50
 14481 039c 02000000 		.4byte	.LVL113
 14482 03a0 04000000 		.4byte	.LVL114
 14483 03a4 0400     		.2byte	0x4
 14484 03a6 F3       		.byte	0xf3
 14485 03a7 01       		.uleb128 0x1
 14486 03a8 50       		.byte	0x50
 14487 03a9 9F       		.byte	0x9f
 14488 03aa 04000000 		.4byte	.LVL114
 14489 03ae 26000000 		.4byte	.LVL119
 14490 03b2 0100     		.2byte	0x1
 14491 03b4 50       		.byte	0x50
 14492 03b5 30000000 		.4byte	.LVL121
ARM GAS  C:\Users\FRANKL~1\AppData\Local\Temp\ccCAoJJX.s 			page 294


 14493 03b9 32000000 		.4byte	.LFE75
 14494 03bd 0100     		.2byte	0x1
 14495 03bf 50       		.byte	0x50
 14496 03c0 00000000 		.4byte	0
 14497 03c4 00000000 		.4byte	0
 14498              	.LLST24:
 14499 03c8 00000000 		.4byte	.LVL112
 14500 03cc 04000000 		.4byte	.LVL114
 14501 03d0 0100     		.2byte	0x1
 14502 03d2 51       		.byte	0x51
 14503 03d3 04000000 		.4byte	.LVL114
 14504 03d7 2D000000 		.4byte	.LVL120-1
 14505 03db 0300     		.2byte	0x3
 14506 03dd 71       		.byte	0x71
 14507 03de 7F       		.sleb128 -1
 14508 03df 9F       		.byte	0x9f
 14509 03e0 2D000000 		.4byte	.LVL120-1
 14510 03e4 30000000 		.4byte	.LVL121
 14511 03e8 0600     		.2byte	0x6
 14512 03ea F3       		.byte	0xf3
 14513 03eb 01       		.uleb128 0x1
 14514 03ec 51       		.byte	0x51
 14515 03ed 31       		.byte	0x31
 14516 03ee 1C       		.byte	0x1c
 14517 03ef 9F       		.byte	0x9f
 14518 03f0 30000000 		.4byte	.LVL121
 14519 03f4 32000000 		.4byte	.LFE75
 14520 03f8 0300     		.2byte	0x3
 14521 03fa 71       		.byte	0x71
 14522 03fb 7F       		.sleb128 -1
 14523 03fc 9F       		.byte	0x9f
 14524 03fd 00000000 		.4byte	0
 14525 0401 00000000 		.4byte	0
 14526              	.LLST25:
 14527 0405 12000000 		.4byte	.LVL115
 14528 0409 16000000 		.4byte	.LVL116
 14529 040d 0200     		.2byte	0x2
 14530 040f 30       		.byte	0x30
 14531 0410 9F       		.byte	0x9f
 14532 0411 16000000 		.4byte	.LVL116
 14533 0415 1E000000 		.4byte	.LVL117
 14534 0419 0300     		.2byte	0x3
 14535 041b 08       		.byte	0x8
 14536 041c 20       		.byte	0x20
 14537 041d 9F       		.byte	0x9f
 14538 041e 1E000000 		.4byte	.LVL117
 14539 0422 24000000 		.4byte	.LVL118
 14540 0426 0200     		.2byte	0x2
 14541 0428 30       		.byte	0x30
 14542 0429 9F       		.byte	0x9f
 14543 042a 24000000 		.4byte	.LVL118
 14544 042e 2D000000 		.4byte	.LVL120-1
 14545 0432 0100     		.2byte	0x1
 14546 0434 53       		.byte	0x53
 14547 0435 00000000 		.4byte	0
 14548 0439 00000000 		.4byte	0
 14549              	.LLST26:
ARM GAS  C:\Users\FRANKL~1\AppData\Local\Temp\ccCAoJJX.s 			page 295


 14550 043d 00000000 		.4byte	.LVL122
 14551 0441 04000000 		.4byte	.LVL123
 14552 0445 0100     		.2byte	0x1
 14553 0447 50       		.byte	0x50
 14554 0448 04000000 		.4byte	.LVL123
 14555 044c 06000000 		.4byte	.LVL124
 14556 0450 0400     		.2byte	0x4
 14557 0452 F3       		.byte	0xf3
 14558 0453 01       		.uleb128 0x1
 14559 0454 50       		.byte	0x50
 14560 0455 9F       		.byte	0x9f
 14561 0456 06000000 		.4byte	.LVL124
 14562 045a 26000000 		.4byte	.LVL130
 14563 045e 0100     		.2byte	0x1
 14564 0460 53       		.byte	0x53
 14565 0461 00000000 		.4byte	0
 14566 0465 00000000 		.4byte	0
 14567              	.LLST27:
 14568 0469 00000000 		.4byte	.LVL122
 14569 046d 06000000 		.4byte	.LVL124
 14570 0471 0100     		.2byte	0x1
 14571 0473 51       		.byte	0x51
 14572 0474 06000000 		.4byte	.LVL124
 14573 0478 0C000000 		.4byte	.LVL125
 14574 047c 0300     		.2byte	0x3
 14575 047e 71       		.byte	0x71
 14576 047f 7F       		.sleb128 -1
 14577 0480 9F       		.byte	0x9f
 14578 0481 0C000000 		.4byte	.LVL125
 14579 0485 40000000 		.4byte	.LFE76
 14580 0489 0600     		.2byte	0x6
 14581 048b F3       		.byte	0xf3
 14582 048c 01       		.uleb128 0x1
 14583 048d 51       		.byte	0x51
 14584 048e 31       		.byte	0x31
 14585 048f 1C       		.byte	0x1c
 14586 0490 9F       		.byte	0x9f
 14587 0491 00000000 		.4byte	0
 14588 0495 00000000 		.4byte	0
 14589              	.LLST28:
 14590 0499 12000000 		.4byte	.LVL126
 14591 049d 16000000 		.4byte	.LVL127
 14592 04a1 0200     		.2byte	0x2
 14593 04a3 30       		.byte	0x30
 14594 04a4 9F       		.byte	0x9f
 14595 04a5 16000000 		.4byte	.LVL127
 14596 04a9 1E000000 		.4byte	.LVL128
 14597 04ad 0300     		.2byte	0x3
 14598 04af 08       		.byte	0x8
 14599 04b0 20       		.byte	0x20
 14600 04b1 9F       		.byte	0x9f
 14601 04b2 1E000000 		.4byte	.LVL128
 14602 04b6 24000000 		.4byte	.LVL129
 14603 04ba 0200     		.2byte	0x2
 14604 04bc 30       		.byte	0x30
 14605 04bd 9F       		.byte	0x9f
 14606 04be 24000000 		.4byte	.LVL129
ARM GAS  C:\Users\FRANKL~1\AppData\Local\Temp\ccCAoJJX.s 			page 296


 14607 04c2 2A000000 		.4byte	.LVL131
 14608 04c6 0100     		.2byte	0x1
 14609 04c8 52       		.byte	0x52
 14610 04c9 00000000 		.4byte	0
 14611 04cd 00000000 		.4byte	0
 14612              	.LLST29:
 14613 04d1 00000000 		.4byte	.LVL133
 14614 04d5 04000000 		.4byte	.LVL134
 14615 04d9 0100     		.2byte	0x1
 14616 04db 50       		.byte	0x50
 14617 04dc 04000000 		.4byte	.LVL134
 14618 04e0 06000000 		.4byte	.LVL135
 14619 04e4 0400     		.2byte	0x4
 14620 04e6 F3       		.byte	0xf3
 14621 04e7 01       		.uleb128 0x1
 14622 04e8 50       		.byte	0x50
 14623 04e9 9F       		.byte	0x9f
 14624 04ea 06000000 		.4byte	.LVL135
 14625 04ee 3C000000 		.4byte	.LVL144
 14626 04f2 0100     		.2byte	0x1
 14627 04f4 55       		.byte	0x55
 14628 04f5 00000000 		.4byte	0
 14629 04f9 00000000 		.4byte	0
 14630              	.LLST30:
 14631 04fd 06000000 		.4byte	.LVL135
 14632 0501 0A000000 		.4byte	.LVL136
 14633 0505 0200     		.2byte	0x2
 14634 0507 30       		.byte	0x30
 14635 0508 9F       		.byte	0x9f
 14636 0509 0A000000 		.4byte	.LVL136
 14637 050d 34000000 		.4byte	.LVL142
 14638 0511 0100     		.2byte	0x1
 14639 0513 54       		.byte	0x54
 14640 0514 36000000 		.4byte	.LVL143
 14641 0518 3C000000 		.4byte	.LVL144
 14642 051c 0100     		.2byte	0x1
 14643 051e 54       		.byte	0x54
 14644 051f 00000000 		.4byte	0
 14645 0523 00000000 		.4byte	0
 14646              	.LLST31:
 14647 0527 0A000000 		.4byte	.LVL136
 14648 052b 0E000000 		.4byte	.LVL137
 14649 052f 0200     		.2byte	0x2
 14650 0531 30       		.byte	0x30
 14651 0532 9F       		.byte	0x9f
 14652 0533 0E000000 		.4byte	.LVL137
 14653 0537 16000000 		.4byte	.LVL138
 14654 053b 0300     		.2byte	0x3
 14655 053d 08       		.byte	0x8
 14656 053e 20       		.byte	0x20
 14657 053f 9F       		.byte	0x9f
 14658 0540 16000000 		.4byte	.LVL138
 14659 0544 1C000000 		.4byte	.LVL139
 14660 0548 0200     		.2byte	0x2
 14661 054a 30       		.byte	0x30
 14662 054b 9F       		.byte	0x9f
 14663 054c 1C000000 		.4byte	.LVL139
ARM GAS  C:\Users\FRANKL~1\AppData\Local\Temp\ccCAoJJX.s 			page 297


 14664 0550 22000000 		.4byte	.LVL140
 14665 0554 0100     		.2byte	0x1
 14666 0556 53       		.byte	0x53
 14667 0557 00000000 		.4byte	0
 14668 055b 00000000 		.4byte	0
 14669              	.LLST32:
 14670 055f 02000000 		.4byte	.LVL145
 14671 0563 06000000 		.4byte	.LVL146
 14672 0567 0200     		.2byte	0x2
 14673 0569 30       		.byte	0x30
 14674 056a 9F       		.byte	0x9f
 14675 056b 06000000 		.4byte	.LVL146
 14676 056f 28000000 		.4byte	.LVL152
 14677 0573 0100     		.2byte	0x1
 14678 0575 54       		.byte	0x54
 14679 0576 2A000000 		.4byte	.LVL153
 14680 057a 30000000 		.4byte	.LVL154
 14681 057e 0100     		.2byte	0x1
 14682 0580 54       		.byte	0x54
 14683 0581 00000000 		.4byte	0
 14684 0585 00000000 		.4byte	0
 14685              	.LLST33:
 14686 0589 06000000 		.4byte	.LVL146
 14687 058d 16000000 		.4byte	.LVL147
 14688 0591 0100     		.2byte	0x1
 14689 0593 53       		.byte	0x53
 14690 0594 18000000 		.4byte	.LVL148
 14691 0598 1A000000 		.4byte	.LVL149
 14692 059c 0100     		.2byte	0x1
 14693 059e 53       		.byte	0x53
 14694 059f 1C000000 		.4byte	.LVL150
 14695 05a3 25000000 		.4byte	.LVL151-1
 14696 05a7 0100     		.2byte	0x1
 14697 05a9 53       		.byte	0x53
 14698 05aa 00000000 		.4byte	0
 14699 05ae 00000000 		.4byte	0
 14700              	.LLST34:
 14701 05b2 00000000 		.4byte	.LVL155
 14702 05b6 04000000 		.4byte	.LVL156
 14703 05ba 0100     		.2byte	0x1
 14704 05bc 50       		.byte	0x50
 14705 05bd 04000000 		.4byte	.LVL156
 14706 05c1 06000000 		.4byte	.LVL157
 14707 05c5 0400     		.2byte	0x4
 14708 05c7 F3       		.byte	0xf3
 14709 05c8 01       		.uleb128 0x1
 14710 05c9 50       		.byte	0x50
 14711 05ca 9F       		.byte	0x9f
 14712 05cb 06000000 		.4byte	.LVL157
 14713 05cf 23000000 		.4byte	.LVL161-1
 14714 05d3 0100     		.2byte	0x1
 14715 05d5 50       		.byte	0x50
 14716 05d6 00000000 		.4byte	0
 14717 05da 00000000 		.4byte	0
 14718              	.LLST35:
 14719 05de 06000000 		.4byte	.LVL157
 14720 05e2 0A000000 		.4byte	.LVL158
ARM GAS  C:\Users\FRANKL~1\AppData\Local\Temp\ccCAoJJX.s 			page 298


 14721 05e6 0200     		.2byte	0x2
 14722 05e8 30       		.byte	0x30
 14723 05e9 9F       		.byte	0x9f
 14724 05ea 0A000000 		.4byte	.LVL158
 14725 05ee 1A000000 		.4byte	.LVL159
 14726 05f2 0100     		.2byte	0x1
 14727 05f4 53       		.byte	0x53
 14728 05f5 1C000000 		.4byte	.LVL160
 14729 05f9 23000000 		.4byte	.LVL161-1
 14730 05fd 0100     		.2byte	0x1
 14731 05ff 53       		.byte	0x53
 14732 0600 00000000 		.4byte	0
 14733 0604 00000000 		.4byte	0
 14734              	.LLST36:
 14735 0608 00000000 		.4byte	.LVL162
 14736 060c 04000000 		.4byte	.LVL163
 14737 0610 0100     		.2byte	0x1
 14738 0612 50       		.byte	0x50
 14739 0613 04000000 		.4byte	.LVL163
 14740 0617 38000000 		.4byte	.LFE80
 14741 061b 0400     		.2byte	0x4
 14742 061d F3       		.byte	0xf3
 14743 061e 01       		.uleb128 0x1
 14744 061f 50       		.byte	0x50
 14745 0620 9F       		.byte	0x9f
 14746 0621 00000000 		.4byte	0
 14747 0625 00000000 		.4byte	0
 14748              	.LLST37:
 14749 0629 02000000 		.4byte	.LVL168
 14750 062d 06000000 		.4byte	.LVL169
 14751 0631 0200     		.2byte	0x2
 14752 0633 31       		.byte	0x31
 14753 0634 9F       		.byte	0x9f
 14754 0635 06000000 		.4byte	.LVL169
 14755 0639 0E000000 		.4byte	.LVL171
 14756 063d 0100     		.2byte	0x1
 14757 063f 54       		.byte	0x54
 14758 0640 10000000 		.4byte	.LVL172
 14759 0644 16000000 		.4byte	.LFE81
 14760 0648 0100     		.2byte	0x1
 14761 064a 54       		.byte	0x54
 14762 064b 00000000 		.4byte	0
 14763 064f 00000000 		.4byte	0
 14764              	.LLST38:
 14765 0653 00000000 		.4byte	.LVL173
 14766 0657 0A000000 		.4byte	.LVL174
 14767 065b 0100     		.2byte	0x1
 14768 065d 50       		.byte	0x50
 14769 065e 0A000000 		.4byte	.LVL174
 14770 0662 0F000000 		.4byte	.LVL175-1
 14771 0666 0500     		.2byte	0x5
 14772 0668 03       		.byte	0x3
 14773 0669 00000000 		.4byte	TIA_Selected_Resistor
 14774 066d 0F000000 		.4byte	.LVL175-1
 14775 0671 1C000000 		.4byte	.LFE82
 14776 0675 0400     		.2byte	0x4
 14777 0677 F3       		.byte	0xf3
ARM GAS  C:\Users\FRANKL~1\AppData\Local\Temp\ccCAoJJX.s 			page 299


 14778 0678 01       		.uleb128 0x1
 14779 0679 50       		.byte	0x50
 14780 067a 9F       		.byte	0x9f
 14781 067b 00000000 		.4byte	0
 14782 067f 00000000 		.4byte	0
 14783              	.LLST39:
 14784 0683 18000000 		.4byte	.LVL183
 14785 0687 20000000 		.4byte	.LVL184
 14786 068b 0100     		.2byte	0x1
 14787 068d 52       		.byte	0x52
 14788 068e 00000000 		.4byte	0
 14789 0692 00000000 		.4byte	0
 14790              	.LLST40:
 14791 0696 02000000 		.4byte	.LVL179
 14792 069a 06000000 		.4byte	.LVL180
 14793 069e 0200     		.2byte	0x2
 14794 06a0 30       		.byte	0x30
 14795 06a1 9F       		.byte	0x9f
 14796 06a2 06000000 		.4byte	.LVL180
 14797 06a6 30000000 		.4byte	.LVL187
 14798 06aa 0100     		.2byte	0x1
 14799 06ac 55       		.byte	0x55
 14800 06ad 00000000 		.4byte	0
 14801 06b1 00000000 		.4byte	0
 14802              	.LLST41:
 14803 06b5 08000000 		.4byte	.LVL181
 14804 06b9 0C000000 		.4byte	.LVL182
 14805 06bd 0100     		.2byte	0x1
 14806 06bf 56       		.byte	0x56
 14807 06c0 0C000000 		.4byte	.LVL182
 14808 06c4 28000000 		.4byte	.LVL186
 14809 06c8 0100     		.2byte	0x1
 14810 06ca 53       		.byte	0x53
 14811 06cb 00000000 		.4byte	0
 14812 06cf 00000000 		.4byte	0
 14813              	.LLST42:
 14814 06d3 00000000 		.4byte	.LVL188
 14815 06d7 09000000 		.4byte	.LVL189-1
 14816 06db 0100     		.2byte	0x1
 14817 06dd 50       		.byte	0x50
 14818 06de 09000000 		.4byte	.LVL189-1
 14819 06e2 32000000 		.4byte	.LFE86
 14820 06e6 0100     		.2byte	0x1
 14821 06e8 55       		.byte	0x55
 14822 06e9 00000000 		.4byte	0
 14823 06ed 00000000 		.4byte	0
 14824              	.LLST43:
 14825 06f1 00000000 		.4byte	.LVL188
 14826 06f5 09000000 		.4byte	.LVL189-1
 14827 06f9 0100     		.2byte	0x1
 14828 06fb 51       		.byte	0x51
 14829 06fc 09000000 		.4byte	.LVL189-1
 14830 0700 12000000 		.4byte	.LVL190
 14831 0704 0100     		.2byte	0x1
 14832 0706 54       		.byte	0x54
 14833 0707 12000000 		.4byte	.LVL190
 14834 070b 2A000000 		.4byte	.LVL191
ARM GAS  C:\Users\FRANKL~1\AppData\Local\Temp\ccCAoJJX.s 			page 300


 14835 070f 0400     		.2byte	0x4
 14836 0711 F3       		.byte	0xf3
 14837 0712 01       		.uleb128 0x1
 14838 0713 51       		.byte	0x51
 14839 0714 9F       		.byte	0x9f
 14840 0715 2A000000 		.4byte	.LVL191
 14841 0719 2C000000 		.4byte	.LVL192
 14842 071d 0100     		.2byte	0x1
 14843 071f 54       		.byte	0x54
 14844 0720 2C000000 		.4byte	.LVL192
 14845 0724 32000000 		.4byte	.LFE86
 14846 0728 0400     		.2byte	0x4
 14847 072a F3       		.byte	0xf3
 14848 072b 01       		.uleb128 0x1
 14849 072c 51       		.byte	0x51
 14850 072d 9F       		.byte	0x9f
 14851 072e 00000000 		.4byte	0
 14852 0732 00000000 		.4byte	0
 14853              	.LLST44:
 14854 0736 00000000 		.4byte	.LVL193
 14855 073a 32000000 		.4byte	.LVL198
 14856 073e 0100     		.2byte	0x1
 14857 0740 50       		.byte	0x50
 14858 0741 32000000 		.4byte	.LVL198
 14859 0745 EE000000 		.4byte	.LVL229
 14860 0749 0300     		.2byte	0x3
 14861 074b 77       		.byte	0x77
 14862 074c C000     		.sleb128 64
 14863 074e EE000000 		.4byte	.LVL229
 14864 0752 F4000000 		.4byte	.LFE87
 14865 0756 0200     		.2byte	0x2
 14866 0758 91       		.byte	0x91
 14867 0759 00       		.sleb128 0
 14868 075a 00000000 		.4byte	0
 14869 075e 00000000 		.4byte	0
 14870              	.LLST45:
 14871 0762 00000000 		.4byte	.LVL193
 14872 0766 32000000 		.4byte	.LVL198
 14873 076a 0100     		.2byte	0x1
 14874 076c 51       		.byte	0x51
 14875 076d 32000000 		.4byte	.LVL198
 14876 0771 EE000000 		.4byte	.LVL229
 14877 0775 0200     		.2byte	0x2
 14878 0777 77       		.byte	0x77
 14879 0778 3C       		.sleb128 60
 14880 0779 EE000000 		.4byte	.LVL229
 14881 077d F4000000 		.4byte	.LFE87
 14882 0781 0200     		.2byte	0x2
 14883 0783 91       		.byte	0x91
 14884 0784 7C       		.sleb128 -4
 14885 0785 00000000 		.4byte	0
 14886 0789 00000000 		.4byte	0
 14887              	.LLST46:
 14888 078d 00000000 		.4byte	.LVL193
 14889 0791 32000000 		.4byte	.LVL198
 14890 0795 0100     		.2byte	0x1
 14891 0797 52       		.byte	0x52
ARM GAS  C:\Users\FRANKL~1\AppData\Local\Temp\ccCAoJJX.s 			page 301


 14892 0798 32000000 		.4byte	.LVL198
 14893 079c F4000000 		.4byte	.LFE87
 14894 07a0 0400     		.2byte	0x4
 14895 07a2 F3       		.byte	0xf3
 14896 07a3 01       		.uleb128 0x1
 14897 07a4 52       		.byte	0x52
 14898 07a5 9F       		.byte	0x9f
 14899 07a6 00000000 		.4byte	0
 14900 07aa 00000000 		.4byte	0
 14901              	.LLST47:
 14902 07ae 0C000000 		.4byte	.LVL194
 14903 07b2 32000000 		.4byte	.LVL198
 14904 07b6 0200     		.2byte	0x2
 14905 07b8 30       		.byte	0x30
 14906 07b9 9F       		.byte	0x9f
 14907 07ba 32000000 		.4byte	.LVL198
 14908 07be D8000000 		.4byte	.LVL227
 14909 07c2 0100     		.2byte	0x1
 14910 07c4 5B       		.byte	0x5b
 14911 07c5 D8000000 		.4byte	.LVL227
 14912 07c9 DA000000 		.4byte	.LVL228
 14913 07cd 0100     		.2byte	0x1
 14914 07cf 50       		.byte	0x50
 14915 07d0 DA000000 		.4byte	.LVL228
 14916 07d4 F4000000 		.4byte	.LFE87
 14917 07d8 0100     		.2byte	0x1
 14918 07da 5B       		.byte	0x5b
 14919 07db 00000000 		.4byte	0
 14920 07df 00000000 		.4byte	0
 14921              	.LLST48:
 14922 07e3 0C000000 		.4byte	.LVL194
 14923 07e7 32000000 		.4byte	.LVL198
 14924 07eb 0200     		.2byte	0x2
 14925 07ed 30       		.byte	0x30
 14926 07ee 9F       		.byte	0x9f
 14927 07ef 32000000 		.4byte	.LVL198
 14928 07f3 AC000000 		.4byte	.LVL218
 14929 07f7 0300     		.2byte	0x3
 14930 07f9 77       		.byte	0x77
 14931 07fa CC00     		.sleb128 76
 14932 07fc AC000000 		.4byte	.LVL218
 14933 0800 AE000000 		.4byte	.LVL219
 14934 0804 0100     		.2byte	0x1
 14935 0806 50       		.byte	0x50
 14936 0807 AE000000 		.4byte	.LVL219
 14937 080b EE000000 		.4byte	.LVL229
 14938 080f 0300     		.2byte	0x3
 14939 0811 77       		.byte	0x77
 14940 0812 CC00     		.sleb128 76
 14941 0814 EE000000 		.4byte	.LVL229
 14942 0818 F4000000 		.4byte	.LFE87
 14943 081c 0100     		.2byte	0x1
 14944 081e 53       		.byte	0x53
 14945 081f 00000000 		.4byte	0
 14946 0823 00000000 		.4byte	0
 14947              	.LLST49:
 14948 0827 0C000000 		.4byte	.LVL194
ARM GAS  C:\Users\FRANKL~1\AppData\Local\Temp\ccCAoJJX.s 			page 302


 14949 082b 16000000 		.4byte	.LVL195
 14950 082f 0200     		.2byte	0x2
 14951 0831 43       		.byte	0x43
 14952 0832 9F       		.byte	0x9f
 14953 0833 16000000 		.4byte	.LVL195
 14954 0837 F4000000 		.4byte	.LFE87
 14955 083b 0100     		.2byte	0x1
 14956 083d 54       		.byte	0x54
 14957 083e 00000000 		.4byte	0
 14958 0842 00000000 		.4byte	0
 14959              	.LLST50:
 14960 0846 28000000 		.4byte	.LVL197
 14961 084a 32000000 		.4byte	.LVL198
 14962 084e 0200     		.2byte	0x2
 14963 0850 31       		.byte	0x31
 14964 0851 9F       		.byte	0x9f
 14965 0852 32000000 		.4byte	.LVL198
 14966 0856 F4000000 		.4byte	.LFE87
 14967 085a 0100     		.2byte	0x1
 14968 085c 56       		.byte	0x56
 14969 085d 00000000 		.4byte	0
 14970 0861 00000000 		.4byte	0
 14971              	.LLST51:
 14972 0865 64000000 		.4byte	.LVL207
 14973 0869 66000000 		.4byte	.LVL208
 14974 086d 0100     		.2byte	0x1
 14975 086f 50       		.byte	0x50
 14976 0870 66000000 		.4byte	.LVL208
 14977 0874 B4000000 		.4byte	.LVL221
 14978 0878 0100     		.2byte	0x1
 14979 087a 58       		.byte	0x58
 14980 087b 00000000 		.4byte	0
 14981 087f 00000000 		.4byte	0
 14982              	.LLST52:
 14983 0883 32000000 		.4byte	.LVL198
 14984 0887 52000000 		.4byte	.LVL204
 14985 088b 0100     		.2byte	0x1
 14986 088d 58       		.byte	0x58
 14987 088e 56000000 		.4byte	.LVL205
 14988 0892 64000000 		.4byte	.LVL207
 14989 0896 0100     		.2byte	0x1
 14990 0898 58       		.byte	0x58
 14991 0899 00000000 		.4byte	0
 14992 089d 00000000 		.4byte	0
 14993              	.LLST53:
 14994 08a1 00000000 		.4byte	.LVL230
 14995 08a5 12000000 		.4byte	.LVL231
 14996 08a9 0100     		.2byte	0x1
 14997 08ab 50       		.byte	0x50
 14998 08ac 12000000 		.4byte	.LVL231
 14999 08b0 15000000 		.4byte	.LVL232-1
 15000 08b4 0100     		.2byte	0x1
 15001 08b6 52       		.byte	0x52
 15002 08b7 15000000 		.4byte	.LVL232-1
 15003 08bb 54000000 		.4byte	.LFE88
 15004 08bf 0400     		.2byte	0x4
 15005 08c1 F3       		.byte	0xf3
ARM GAS  C:\Users\FRANKL~1\AppData\Local\Temp\ccCAoJJX.s 			page 303


 15006 08c2 01       		.uleb128 0x1
 15007 08c3 50       		.byte	0x50
 15008 08c4 9F       		.byte	0x9f
 15009 08c5 00000000 		.4byte	0
 15010 08c9 00000000 		.4byte	0
 15011              	.LLST54:
 15012 08cd 00000000 		.4byte	.LVL236
 15013 08d1 16000000 		.4byte	.LVL238
 15014 08d5 0100     		.2byte	0x1
 15015 08d7 50       		.byte	0x50
 15016 08d8 16000000 		.4byte	.LVL238
 15017 08dc B2000000 		.4byte	.LVL266
 15018 08e0 0200     		.2byte	0x2
 15019 08e2 7D       		.byte	0x7d
 15020 08e3 00       		.sleb128 0
 15021 08e4 B2000000 		.4byte	.LVL266
 15022 08e8 B6000000 		.4byte	.LFE89
 15023 08ec 0200     		.2byte	0x2
 15024 08ee 91       		.byte	0x91
 15025 08ef 50       		.sleb128 -48
 15026 08f0 00000000 		.4byte	0
 15027 08f4 00000000 		.4byte	0
 15028              	.LLST55:
 15029 08f8 00000000 		.4byte	.LVL236
 15030 08fc 16000000 		.4byte	.LVL238
 15031 0900 0100     		.2byte	0x1
 15032 0902 51       		.byte	0x51
 15033 0903 16000000 		.4byte	.LVL238
 15034 0907 B6000000 		.4byte	.LFE89
 15035 090b 0200     		.2byte	0x2
 15036 090d 91       		.byte	0x91
 15037 090e 54       		.sleb128 -44
 15038 090f 00000000 		.4byte	0
 15039 0913 00000000 		.4byte	0
 15040              	.LLST56:
 15041 0917 00000000 		.4byte	.LVL236
 15042 091b 16000000 		.4byte	.LVL238
 15043 091f 0100     		.2byte	0x1
 15044 0921 52       		.byte	0x52
 15045 0922 16000000 		.4byte	.LVL238
 15046 0926 B6000000 		.4byte	.LFE89
 15047 092a 0100     		.2byte	0x1
 15048 092c 5B       		.byte	0x5b
 15049 092d 00000000 		.4byte	0
 15050 0931 00000000 		.4byte	0
 15051              	.LLST57:
 15052 0935 0C000000 		.4byte	.LVL237
 15053 0939 16000000 		.4byte	.LVL238
 15054 093d 0200     		.2byte	0x2
 15055 093f 30       		.byte	0x30
 15056 0940 9F       		.byte	0x9f
 15057 0941 16000000 		.4byte	.LVL238
 15058 0945 84000000 		.4byte	.LVL259
 15059 0949 0100     		.2byte	0x1
 15060 094b 55       		.byte	0x55
 15061 094c A0000000 		.4byte	.LVL264
 15062 0950 A2000000 		.4byte	.LVL265
ARM GAS  C:\Users\FRANKL~1\AppData\Local\Temp\ccCAoJJX.s 			page 304


 15063 0954 0100     		.2byte	0x1
 15064 0956 50       		.byte	0x50
 15065 0957 A2000000 		.4byte	.LVL265
 15066 095b B6000000 		.4byte	.LFE89
 15067 095f 0100     		.2byte	0x1
 15068 0961 55       		.byte	0x55
 15069 0962 00000000 		.4byte	0
 15070 0966 00000000 		.4byte	0
 15071              	.LLST58:
 15072 096a 0C000000 		.4byte	.LVL237
 15073 096e 16000000 		.4byte	.LVL238
 15074 0972 0200     		.2byte	0x2
 15075 0974 30       		.byte	0x30
 15076 0975 9F       		.byte	0x9f
 15077 0976 16000000 		.4byte	.LVL238
 15078 097a 74000000 		.4byte	.LVL254
 15079 097e 0100     		.2byte	0x1
 15080 0980 59       		.byte	0x59
 15081 0981 74000000 		.4byte	.LVL254
 15082 0985 76000000 		.4byte	.LVL255
 15083 0989 0100     		.2byte	0x1
 15084 098b 50       		.byte	0x50
 15085 098c 76000000 		.4byte	.LVL255
 15086 0990 B6000000 		.4byte	.LFE89
 15087 0994 0100     		.2byte	0x1
 15088 0996 59       		.byte	0x59
 15089 0997 00000000 		.4byte	0
 15090 099b 00000000 		.4byte	0
 15091              	.LLST59:
 15092 099f 0C000000 		.4byte	.LVL237
 15093 09a3 16000000 		.4byte	.LVL238
 15094 09a7 0200     		.2byte	0x2
 15095 09a9 31       		.byte	0x31
 15096 09aa 9F       		.byte	0x9f
 15097 09ab 16000000 		.4byte	.LVL238
 15098 09af B6000000 		.4byte	.LFE89
 15099 09b3 0100     		.2byte	0x1
 15100 09b5 54       		.byte	0x54
 15101 09b6 00000000 		.4byte	0
 15102 09ba 00000000 		.4byte	0
 15103              	.LLST60:
 15104 09be 2E000000 		.4byte	.LVL243
 15105 09c2 30000000 		.4byte	.LVL244
 15106 09c6 0100     		.2byte	0x1
 15107 09c8 50       		.byte	0x50
 15108 09c9 30000000 		.4byte	.LVL244
 15109 09cd 7C000000 		.4byte	.LVL257
 15110 09d1 0100     		.2byte	0x1
 15111 09d3 57       		.byte	0x57
 15112 09d4 00000000 		.4byte	0
 15113 09d8 00000000 		.4byte	0
 15114              	.LLST61:
 15115 09dc 00000000 		.4byte	.LVL267
 15116 09e0 16000000 		.4byte	.LVL269
 15117 09e4 0100     		.2byte	0x1
 15118 09e6 50       		.byte	0x50
 15119 09e7 16000000 		.4byte	.LVL269
ARM GAS  C:\Users\FRANKL~1\AppData\Local\Temp\ccCAoJJX.s 			page 305


 15120 09eb B2000000 		.4byte	.LVL297
 15121 09ef 0200     		.2byte	0x2
 15122 09f1 7D       		.byte	0x7d
 15123 09f2 00       		.sleb128 0
 15124 09f3 B2000000 		.4byte	.LVL297
 15125 09f7 B6000000 		.4byte	.LFE90
 15126 09fb 0200     		.2byte	0x2
 15127 09fd 91       		.byte	0x91
 15128 09fe 50       		.sleb128 -48
 15129 09ff 00000000 		.4byte	0
 15130 0a03 00000000 		.4byte	0
 15131              	.LLST62:
 15132 0a07 00000000 		.4byte	.LVL267
 15133 0a0b 16000000 		.4byte	.LVL269
 15134 0a0f 0100     		.2byte	0x1
 15135 0a11 51       		.byte	0x51
 15136 0a12 16000000 		.4byte	.LVL269
 15137 0a16 B6000000 		.4byte	.LFE90
 15138 0a1a 0200     		.2byte	0x2
 15139 0a1c 91       		.byte	0x91
 15140 0a1d 54       		.sleb128 -44
 15141 0a1e 00000000 		.4byte	0
 15142 0a22 00000000 		.4byte	0
 15143              	.LLST63:
 15144 0a26 00000000 		.4byte	.LVL267
 15145 0a2a 16000000 		.4byte	.LVL269
 15146 0a2e 0100     		.2byte	0x1
 15147 0a30 52       		.byte	0x52
 15148 0a31 16000000 		.4byte	.LVL269
 15149 0a35 B6000000 		.4byte	.LFE90
 15150 0a39 0100     		.2byte	0x1
 15151 0a3b 5B       		.byte	0x5b
 15152 0a3c 00000000 		.4byte	0
 15153 0a40 00000000 		.4byte	0
 15154              	.LLST64:
 15155 0a44 0C000000 		.4byte	.LVL268
 15156 0a48 16000000 		.4byte	.LVL269
 15157 0a4c 0200     		.2byte	0x2
 15158 0a4e 30       		.byte	0x30
 15159 0a4f 9F       		.byte	0x9f
 15160 0a50 16000000 		.4byte	.LVL269
 15161 0a54 84000000 		.4byte	.LVL290
 15162 0a58 0100     		.2byte	0x1
 15163 0a5a 55       		.byte	0x55
 15164 0a5b A0000000 		.4byte	.LVL295
 15165 0a5f A2000000 		.4byte	.LVL296
 15166 0a63 0100     		.2byte	0x1
 15167 0a65 50       		.byte	0x50
 15168 0a66 A2000000 		.4byte	.LVL296
 15169 0a6a B6000000 		.4byte	.LFE90
 15170 0a6e 0100     		.2byte	0x1
 15171 0a70 55       		.byte	0x55
 15172 0a71 00000000 		.4byte	0
 15173 0a75 00000000 		.4byte	0
 15174              	.LLST65:
 15175 0a79 0C000000 		.4byte	.LVL268
 15176 0a7d 16000000 		.4byte	.LVL269
ARM GAS  C:\Users\FRANKL~1\AppData\Local\Temp\ccCAoJJX.s 			page 306


 15177 0a81 0200     		.2byte	0x2
 15178 0a83 30       		.byte	0x30
 15179 0a84 9F       		.byte	0x9f
 15180 0a85 16000000 		.4byte	.LVL269
 15181 0a89 74000000 		.4byte	.LVL285
 15182 0a8d 0100     		.2byte	0x1
 15183 0a8f 59       		.byte	0x59
 15184 0a90 74000000 		.4byte	.LVL285
 15185 0a94 76000000 		.4byte	.LVL286
 15186 0a98 0100     		.2byte	0x1
 15187 0a9a 50       		.byte	0x50
 15188 0a9b 76000000 		.4byte	.LVL286
 15189 0a9f B6000000 		.4byte	.LFE90
 15190 0aa3 0100     		.2byte	0x1
 15191 0aa5 59       		.byte	0x59
 15192 0aa6 00000000 		.4byte	0
 15193 0aaa 00000000 		.4byte	0
 15194              	.LLST66:
 15195 0aae 0C000000 		.4byte	.LVL268
 15196 0ab2 16000000 		.4byte	.LVL269
 15197 0ab6 0200     		.2byte	0x2
 15198 0ab8 31       		.byte	0x31
 15199 0ab9 9F       		.byte	0x9f
 15200 0aba 16000000 		.4byte	.LVL269
 15201 0abe B6000000 		.4byte	.LFE90
 15202 0ac2 0100     		.2byte	0x1
 15203 0ac4 54       		.byte	0x54
 15204 0ac5 00000000 		.4byte	0
 15205 0ac9 00000000 		.4byte	0
 15206              	.LLST67:
 15207 0acd 2E000000 		.4byte	.LVL274
 15208 0ad1 30000000 		.4byte	.LVL275
 15209 0ad5 0100     		.2byte	0x1
 15210 0ad7 50       		.byte	0x50
 15211 0ad8 30000000 		.4byte	.LVL275
 15212 0adc 7C000000 		.4byte	.LVL288
 15213 0ae0 0100     		.2byte	0x1
 15214 0ae2 57       		.byte	0x57
 15215 0ae3 00000000 		.4byte	0
 15216 0ae7 00000000 		.4byte	0
 15217              	.LLST68:
 15218 0aeb 00000000 		.4byte	.LVL298
 15219 0aef 16000000 		.4byte	.LVL300
 15220 0af3 0100     		.2byte	0x1
 15221 0af5 50       		.byte	0x50
 15222 0af6 16000000 		.4byte	.LVL300
 15223 0afa 70010000 		.4byte	.LVL349
 15224 0afe 0200     		.2byte	0x2
 15225 0b00 91       		.byte	0x91
 15226 0b01 48       		.sleb128 -56
 15227 0b02 70010000 		.4byte	.LVL349
 15228 0b06 90010000 		.4byte	.LFE91
 15229 0b0a 0200     		.2byte	0x2
 15230 0b0c 7D       		.byte	0x7d
 15231 0b0d 48       		.sleb128 -56
 15232 0b0e 00000000 		.4byte	0
 15233 0b12 00000000 		.4byte	0
ARM GAS  C:\Users\FRANKL~1\AppData\Local\Temp\ccCAoJJX.s 			page 307


 15234              	.LLST69:
 15235 0b16 00000000 		.4byte	.LVL298
 15236 0b1a 19000000 		.4byte	.LVL301-1
 15237 0b1e 0100     		.2byte	0x1
 15238 0b20 51       		.byte	0x51
 15239 0b21 19000000 		.4byte	.LVL301-1
 15240 0b25 70010000 		.4byte	.LVL349
 15241 0b29 0200     		.2byte	0x2
 15242 0b2b 91       		.byte	0x91
 15243 0b2c 4C       		.sleb128 -52
 15244 0b2d 70010000 		.4byte	.LVL349
 15245 0b31 90010000 		.4byte	.LFE91
 15246 0b35 0200     		.2byte	0x2
 15247 0b37 7D       		.byte	0x7d
 15248 0b38 4C       		.sleb128 -52
 15249 0b39 00000000 		.4byte	0
 15250 0b3d 00000000 		.4byte	0
 15251              	.LLST70:
 15252 0b41 00000000 		.4byte	.LVL298
 15253 0b45 19000000 		.4byte	.LVL301-1
 15254 0b49 0100     		.2byte	0x1
 15255 0b4b 52       		.byte	0x52
 15256 0b4c 19000000 		.4byte	.LVL301-1
 15257 0b50 70010000 		.4byte	.LVL349
 15258 0b54 0100     		.2byte	0x1
 15259 0b56 5A       		.byte	0x5a
 15260 0b57 70010000 		.4byte	.LVL349
 15261 0b5b 90010000 		.4byte	.LFE91
 15262 0b5f 0400     		.2byte	0x4
 15263 0b61 F3       		.byte	0xf3
 15264 0b62 01       		.uleb128 0x1
 15265 0b63 52       		.byte	0x52
 15266 0b64 9F       		.byte	0x9f
 15267 0b65 00000000 		.4byte	0
 15268 0b69 00000000 		.4byte	0
 15269              	.LLST71:
 15270 0b6d 00000000 		.4byte	.LVL298
 15271 0b71 12000000 		.4byte	.LVL299
 15272 0b75 0100     		.2byte	0x1
 15273 0b77 53       		.byte	0x53
 15274 0b78 12000000 		.4byte	.LVL299
 15275 0b7c 90010000 		.4byte	.LFE91
 15276 0b80 0400     		.2byte	0x4
 15277 0b82 F3       		.byte	0xf3
 15278 0b83 01       		.uleb128 0x1
 15279 0b84 53       		.byte	0x53
 15280 0b85 9F       		.byte	0x9f
 15281 0b86 00000000 		.4byte	0
 15282 0b8a 00000000 		.4byte	0
 15283              	.LLST72:
 15284 0b8e 22000000 		.4byte	.LVL302
 15285 0b92 5C000000 		.4byte	.LVL311
 15286 0b96 0600     		.2byte	0x6
 15287 0b98 9E       		.byte	0x9e
 15288 0b99 04       		.uleb128 0x4
 15289 0b9a 00000000 		.4byte	0
 15290 0b9e 78000000 		.4byte	.LVL315
ARM GAS  C:\Users\FRANKL~1\AppData\Local\Temp\ccCAoJJX.s 			page 308


 15291 0ba2 7A000000 		.4byte	.LVL316
 15292 0ba6 0100     		.2byte	0x1
 15293 0ba8 50       		.byte	0x50
 15294 0ba9 7A000000 		.4byte	.LVL316
 15295 0bad 22010000 		.4byte	.LVL338
 15296 0bb1 0100     		.2byte	0x1
 15297 0bb3 54       		.byte	0x54
 15298 0bb4 22010000 		.4byte	.LVL338
 15299 0bb8 2A010000 		.4byte	.LVL339
 15300 0bbc 0600     		.2byte	0x6
 15301 0bbe 9E       		.byte	0x9e
 15302 0bbf 04       		.uleb128 0x4
 15303 0bc0 00000000 		.4byte	0
 15304 0bc4 30010000 		.4byte	.LVL340
 15305 0bc8 60010000 		.4byte	.LVL348
 15306 0bcc 0600     		.2byte	0x6
 15307 0bce 9E       		.byte	0x9e
 15308 0bcf 04       		.uleb128 0x4
 15309 0bd0 00000000 		.4byte	0
 15310 0bd4 00000000 		.4byte	0
 15311 0bd8 00000000 		.4byte	0
 15312              	.LLST73:
 15313 0bdc 22000000 		.4byte	.LVL302
 15314 0be0 5C000000 		.4byte	.LVL311
 15315 0be4 0600     		.2byte	0x6
 15316 0be6 9E       		.byte	0x9e
 15317 0be7 04       		.uleb128 0x4
 15318 0be8 00000000 		.4byte	0
 15319 0bec 5C000000 		.4byte	.LVL311
 15320 0bf0 F0000000 		.4byte	.LVL332
 15321 0bf4 0100     		.2byte	0x1
 15322 0bf6 58       		.byte	0x58
 15323 0bf7 F0000000 		.4byte	.LVL332
 15324 0bfb F2000000 		.4byte	.LVL333
 15325 0bff 0100     		.2byte	0x1
 15326 0c01 50       		.byte	0x50
 15327 0c02 F2000000 		.4byte	.LVL333
 15328 0c06 22010000 		.4byte	.LVL338
 15329 0c0a 0100     		.2byte	0x1
 15330 0c0c 58       		.byte	0x58
 15331 0c0d 22010000 		.4byte	.LVL338
 15332 0c11 2A010000 		.4byte	.LVL339
 15333 0c15 0600     		.2byte	0x6
 15334 0c17 9E       		.byte	0x9e
 15335 0c18 04       		.uleb128 0x4
 15336 0c19 00000000 		.4byte	0
 15337 0c1d 2A010000 		.4byte	.LVL339
 15338 0c21 30010000 		.4byte	.LVL340
 15339 0c25 0100     		.2byte	0x1
 15340 0c27 58       		.byte	0x58
 15341 0c28 30010000 		.4byte	.LVL340
 15342 0c2c 4E010000 		.4byte	.LVL344
 15343 0c30 0600     		.2byte	0x6
 15344 0c32 9E       		.byte	0x9e
 15345 0c33 04       		.uleb128 0x4
 15346 0c34 00000000 		.4byte	0
 15347 0c38 4E010000 		.4byte	.LVL344
ARM GAS  C:\Users\FRANKL~1\AppData\Local\Temp\ccCAoJJX.s 			page 309


 15348 0c3c 50010000 		.4byte	.LVL345
 15349 0c40 0100     		.2byte	0x1
 15350 0c42 50       		.byte	0x50
 15351 0c43 50010000 		.4byte	.LVL345
 15352 0c47 70010000 		.4byte	.LVL349
 15353 0c4b 0100     		.2byte	0x1
 15354 0c4d 58       		.byte	0x58
 15355 0c4e 00000000 		.4byte	0
 15356 0c52 00000000 		.4byte	0
 15357              	.LLST74:
 15358 0c56 22000000 		.4byte	.LVL302
 15359 0c5a 5C000000 		.4byte	.LVL311
 15360 0c5e 0600     		.2byte	0x6
 15361 0c60 9E       		.byte	0x9e
 15362 0c61 04       		.uleb128 0x4
 15363 0c62 00000000 		.4byte	0
 15364 0c66 5C000000 		.4byte	.LVL311
 15365 0c6a DE000000 		.4byte	.LVL328
 15366 0c6e 0100     		.2byte	0x1
 15367 0c70 55       		.byte	0x55
 15368 0c71 DE000000 		.4byte	.LVL328
 15369 0c75 E2000000 		.4byte	.LVL329
 15370 0c79 0100     		.2byte	0x1
 15371 0c7b 50       		.byte	0x50
 15372 0c7c E2000000 		.4byte	.LVL329
 15373 0c80 22010000 		.4byte	.LVL338
 15374 0c84 0100     		.2byte	0x1
 15375 0c86 55       		.byte	0x55
 15376 0c87 22010000 		.4byte	.LVL338
 15377 0c8b 2A010000 		.4byte	.LVL339
 15378 0c8f 0600     		.2byte	0x6
 15379 0c91 9E       		.byte	0x9e
 15380 0c92 04       		.uleb128 0x4
 15381 0c93 00000000 		.4byte	0
 15382 0c97 2A010000 		.4byte	.LVL339
 15383 0c9b 30010000 		.4byte	.LVL340
 15384 0c9f 0100     		.2byte	0x1
 15385 0ca1 55       		.byte	0x55
 15386 0ca2 30010000 		.4byte	.LVL340
 15387 0ca6 60010000 		.4byte	.LVL348
 15388 0caa 0600     		.2byte	0x6
 15389 0cac 9E       		.byte	0x9e
 15390 0cad 04       		.uleb128 0x4
 15391 0cae 00000000 		.4byte	0
 15392 0cb2 60010000 		.4byte	.LVL348
 15393 0cb6 70010000 		.4byte	.LVL349
 15394 0cba 0100     		.2byte	0x1
 15395 0cbc 55       		.byte	0x55
 15396 0cbd 70010000 		.4byte	.LVL349
 15397 0cc1 90010000 		.4byte	.LFE91
 15398 0cc5 0200     		.2byte	0x2
 15399 0cc7 73       		.byte	0x73
 15400 0cc8 00       		.sleb128 0
 15401 0cc9 00000000 		.4byte	0
 15402 0ccd 00000000 		.4byte	0
 15403              	.LLST75:
 15404 0cd1 2C000000 		.4byte	.LVL303
ARM GAS  C:\Users\FRANKL~1\AppData\Local\Temp\ccCAoJJX.s 			page 310


 15405 0cd5 37000000 		.4byte	.LVL305-1
 15406 0cd9 0200     		.2byte	0x2
 15407 0cdb 72       		.byte	0x72
 15408 0cdc 0C       		.sleb128 12
 15409 0cdd 00000000 		.4byte	0
 15410 0ce1 00000000 		.4byte	0
 15411              	.LLST76:
 15412 0ce5 32000000 		.4byte	.LVL304
 15413 0ce9 70010000 		.4byte	.LVL349
 15414 0ced 0100     		.2byte	0x1
 15415 0cef 59       		.byte	0x59
 15416 0cf0 00000000 		.4byte	0
 15417 0cf4 00000000 		.4byte	0
 15418              	.LLST77:
 15419 0cf8 4C000000 		.4byte	.LVL308
 15420 0cfc 52000000 		.4byte	.LVL309
 15421 0d00 0100     		.2byte	0x1
 15422 0d02 50       		.byte	0x50
 15423 0d03 52000000 		.4byte	.LVL309
 15424 0d07 70010000 		.4byte	.LVL349
 15425 0d0b 0200     		.2byte	0x2
 15426 0d0d 91       		.byte	0x91
 15427 0d0e 44       		.sleb128 -60
 15428 0d0f 70010000 		.4byte	.LVL349
 15429 0d13 90010000 		.4byte	.LFE91
 15430 0d17 0200     		.2byte	0x2
 15431 0d19 7D       		.byte	0x7d
 15432 0d1a 44       		.sleb128 -60
 15433 0d1b 00000000 		.4byte	0
 15434 0d1f 00000000 		.4byte	0
 15435              	.LLST78:
 15436 0d23 5C000000 		.4byte	.LVL311
 15437 0d27 22010000 		.4byte	.LVL338
 15438 0d2b 0100     		.2byte	0x1
 15439 0d2d 5B       		.byte	0x5b
 15440 0d2e 2A010000 		.4byte	.LVL339
 15441 0d32 30010000 		.4byte	.LVL340
 15442 0d36 0100     		.2byte	0x1
 15443 0d38 5B       		.byte	0x5b
 15444 0d39 00000000 		.4byte	0
 15445 0d3d 00000000 		.4byte	0
 15446              	.LLST79:
 15447 0d41 08000000 		.4byte	.LVL354
 15448 0d45 1C000000 		.4byte	.LVL357
 15449 0d49 0100     		.2byte	0x1
 15450 0d4b 54       		.byte	0x54
 15451 0d4c 36000000 		.4byte	.LVL363
 15452 0d50 4A000000 		.4byte	.LVL367
 15453 0d54 0100     		.2byte	0x1
 15454 0d56 54       		.byte	0x54
 15455 0d57 00000000 		.4byte	0
 15456 0d5b 00000000 		.4byte	0
 15457              	.LLST80:
 15458 0d5f 0E000000 		.4byte	.LVL355
 15459 0d63 3A000000 		.4byte	.LVL364
 15460 0d67 0100     		.2byte	0x1
 15461 0d69 55       		.byte	0x55
ARM GAS  C:\Users\FRANKL~1\AppData\Local\Temp\ccCAoJJX.s 			page 311


 15462 0d6a 3C000000 		.4byte	.LVL365
 15463 0d6e 60000000 		.4byte	.LVL373
 15464 0d72 0100     		.2byte	0x1
 15465 0d74 55       		.byte	0x55
 15466 0d75 00000000 		.4byte	0
 15467 0d79 00000000 		.4byte	0
 15468              	.LLST81:
 15469 0d7d 0E000000 		.4byte	.LVL355
 15470 0d81 1A000000 		.4byte	.LVL356
 15471 0d85 0200     		.2byte	0x2
 15472 0d87 31       		.byte	0x31
 15473 0d88 9F       		.byte	0x9f
 15474 0d89 1A000000 		.4byte	.LVL356
 15475 0d8d 1C000000 		.4byte	.LVL357
 15476 0d91 0100     		.2byte	0x1
 15477 0d93 56       		.byte	0x56
 15478 0d94 3C000000 		.4byte	.LVL365
 15479 0d98 48000000 		.4byte	.LVL366
 15480 0d9c 0200     		.2byte	0x2
 15481 0d9e 31       		.byte	0x31
 15482 0d9f 9F       		.byte	0x9f
 15483 0da0 48000000 		.4byte	.LVL366
 15484 0da4 4A000000 		.4byte	.LVL367
 15485 0da8 0100     		.2byte	0x1
 15486 0daa 56       		.byte	0x56
 15487 0dab 00000000 		.4byte	0
 15488 0daf 00000000 		.4byte	0
 15489              	.LLST82:
 15490 0db3 1A000000 		.4byte	.LVL356
 15491 0db7 2A000000 		.4byte	.LVL360
 15492 0dbb 0100     		.2byte	0x1
 15493 0dbd 54       		.byte	0x54
 15494 0dbe 2C000000 		.4byte	.LVL361
 15495 0dc2 34000000 		.4byte	.LVL362
 15496 0dc6 0100     		.2byte	0x1
 15497 0dc8 54       		.byte	0x54
 15498 0dc9 00000000 		.4byte	0
 15499 0dcd 00000000 		.4byte	0
 15500              	.LLST83:
 15501 0dd1 48000000 		.4byte	.LVL366
 15502 0dd5 58000000 		.4byte	.LVL370
 15503 0dd9 0100     		.2byte	0x1
 15504 0ddb 54       		.byte	0x54
 15505 0ddc 5A000000 		.4byte	.LVL371
 15506 0de0 5E000000 		.4byte	.LVL372
 15507 0de4 0100     		.2byte	0x1
 15508 0de6 54       		.byte	0x54
 15509 0de7 00000000 		.4byte	0
 15510 0deb 00000000 		.4byte	0
 15511              	.LLST84:
 15512 0def 00000000 		.4byte	.LVL389
 15513 0df3 26000000 		.4byte	.LVL392
 15514 0df7 0100     		.2byte	0x1
 15515 0df9 50       		.byte	0x50
 15516 0dfa 26000000 		.4byte	.LVL392
 15517 0dfe 78000000 		.4byte	.LFE97
 15518 0e02 0400     		.2byte	0x4
ARM GAS  C:\Users\FRANKL~1\AppData\Local\Temp\ccCAoJJX.s 			page 312


 15519 0e04 F3       		.byte	0xf3
 15520 0e05 01       		.uleb128 0x1
 15521 0e06 50       		.byte	0x50
 15522 0e07 9F       		.byte	0x9f
 15523 0e08 00000000 		.4byte	0
 15524 0e0c 00000000 		.4byte	0
 15525              	.LLST85:
 15526 0e10 16000000 		.4byte	.LVL390
 15527 0e14 6C000000 		.4byte	.LVL408
 15528 0e18 0100     		.2byte	0x1
 15529 0e1a 55       		.byte	0x55
 15530 0e1b 00000000 		.4byte	0
 15531 0e1f 00000000 		.4byte	0
 15532              	.LLST86:
 15533 0e23 16000000 		.4byte	.LVL390
 15534 0e27 22000000 		.4byte	.LVL391
 15535 0e2b 0200     		.2byte	0x2
 15536 0e2d 31       		.byte	0x31
 15537 0e2e 9F       		.byte	0x9f
 15538 0e2f 22000000 		.4byte	.LVL391
 15539 0e33 6C000000 		.4byte	.LVL408
 15540 0e37 0100     		.2byte	0x1
 15541 0e39 56       		.byte	0x56
 15542 0e3a 00000000 		.4byte	0
 15543 0e3e 00000000 		.4byte	0
 15544              	.LLST87:
 15545 0e42 22000000 		.4byte	.LVL391
 15546 0e46 26000000 		.4byte	.LVL392
 15547 0e4a 0100     		.2byte	0x1
 15548 0e4c 55       		.byte	0x55
 15549 0e4d 26000000 		.4byte	.LVL392
 15550 0e51 5C000000 		.4byte	.LVL405
 15551 0e55 0100     		.2byte	0x1
 15552 0e57 57       		.byte	0x57
 15553 0e58 5E000000 		.4byte	.LVL406
 15554 0e5c 6C000000 		.4byte	.LVL408
 15555 0e60 0100     		.2byte	0x1
 15556 0e62 57       		.byte	0x57
 15557 0e63 00000000 		.4byte	0
 15558 0e67 00000000 		.4byte	0
 15559              	.LLST88:
 15560 0e6b 2E000000 		.4byte	.LVL394
 15561 0e6f 3C000000 		.4byte	.LVL397
 15562 0e73 0100     		.2byte	0x1
 15563 0e75 54       		.byte	0x54
 15564 0e76 3E000000 		.4byte	.LVL398
 15565 0e7a 40000000 		.4byte	.LVL399
 15566 0e7e 0100     		.2byte	0x1
 15567 0e80 54       		.byte	0x54
 15568 0e81 42000000 		.4byte	.LVL400
 15569 0e85 54000000 		.4byte	.LVL403
 15570 0e89 0100     		.2byte	0x1
 15571 0e8b 54       		.byte	0x54
 15572 0e8c 00000000 		.4byte	0
 15573 0e90 00000000 		.4byte	0
 15574              	.LLST89:
 15575 0e94 00000000 		.4byte	.LVL409
ARM GAS  C:\Users\FRANKL~1\AppData\Local\Temp\ccCAoJJX.s 			page 313


 15576 0e98 26000000 		.4byte	.LVL413
 15577 0e9c 0100     		.2byte	0x1
 15578 0e9e 50       		.byte	0x50
 15579 0e9f 26000000 		.4byte	.LVL413
 15580 0ea3 78000000 		.4byte	.LFE98
 15581 0ea7 0400     		.2byte	0x4
 15582 0ea9 F3       		.byte	0xf3
 15583 0eaa 01       		.uleb128 0x1
 15584 0eab 50       		.byte	0x50
 15585 0eac 9F       		.byte	0x9f
 15586 0ead 00000000 		.4byte	0
 15587 0eb1 00000000 		.4byte	0
 15588              	.LLST90:
 15589 0eb5 10000000 		.4byte	.LVL410
 15590 0eb9 22000000 		.4byte	.LVL412
 15591 0ebd 0200     		.2byte	0x2
 15592 0ebf 31       		.byte	0x31
 15593 0ec0 9F       		.byte	0x9f
 15594 0ec1 22000000 		.4byte	.LVL412
 15595 0ec5 6C000000 		.4byte	.LVL429
 15596 0ec9 0100     		.2byte	0x1
 15597 0ecb 56       		.byte	0x56
 15598 0ecc 00000000 		.4byte	0
 15599 0ed0 00000000 		.4byte	0
 15600              	.LLST91:
 15601 0ed4 16000000 		.4byte	.LVL411
 15602 0ed8 6C000000 		.4byte	.LVL429
 15603 0edc 0100     		.2byte	0x1
 15604 0ede 55       		.byte	0x55
 15605 0edf 00000000 		.4byte	0
 15606 0ee3 00000000 		.4byte	0
 15607              	.LLST92:
 15608 0ee7 22000000 		.4byte	.LVL412
 15609 0eeb 26000000 		.4byte	.LVL413
 15610 0eef 0100     		.2byte	0x1
 15611 0ef1 55       		.byte	0x55
 15612 0ef2 26000000 		.4byte	.LVL413
 15613 0ef6 5C000000 		.4byte	.LVL426
 15614 0efa 0100     		.2byte	0x1
 15615 0efc 57       		.byte	0x57
 15616 0efd 5E000000 		.4byte	.LVL427
 15617 0f01 6C000000 		.4byte	.LVL429
 15618 0f05 0100     		.2byte	0x1
 15619 0f07 57       		.byte	0x57
 15620 0f08 00000000 		.4byte	0
 15621 0f0c 00000000 		.4byte	0
 15622              	.LLST93:
 15623 0f10 2E000000 		.4byte	.LVL415
 15624 0f14 3C000000 		.4byte	.LVL418
 15625 0f18 0100     		.2byte	0x1
 15626 0f1a 54       		.byte	0x54
 15627 0f1b 3E000000 		.4byte	.LVL419
 15628 0f1f 40000000 		.4byte	.LVL420
 15629 0f23 0100     		.2byte	0x1
 15630 0f25 54       		.byte	0x54
 15631 0f26 42000000 		.4byte	.LVL421
 15632 0f2a 54000000 		.4byte	.LVL424
ARM GAS  C:\Users\FRANKL~1\AppData\Local\Temp\ccCAoJJX.s 			page 314


 15633 0f2e 0100     		.2byte	0x1
 15634 0f30 54       		.byte	0x54
 15635 0f31 00000000 		.4byte	0
 15636 0f35 00000000 		.4byte	0
 15637              	.LLST94:
 15638 0f39 00000000 		.4byte	.LVL430
 15639 0f3d 0C000000 		.4byte	.LVL431
 15640 0f41 0100     		.2byte	0x1
 15641 0f43 50       		.byte	0x50
 15642 0f44 0C000000 		.4byte	.LVL431
 15643 0f48 B4000000 		.4byte	.LVL455
 15644 0f4c 0100     		.2byte	0x1
 15645 0f4e 57       		.byte	0x57
 15646 0f4f 00000000 		.4byte	0
 15647 0f53 00000000 		.4byte	0
 15648              	.LLST95:
 15649 0f57 0C000000 		.4byte	.LVL431
 15650 0f5b 20000000 		.4byte	.LVL432
 15651 0f5f 0200     		.2byte	0x2
 15652 0f61 31       		.byte	0x31
 15653 0f62 9F       		.byte	0x9f
 15654 0f63 20000000 		.4byte	.LVL432
 15655 0f67 B4000000 		.4byte	.LVL455
 15656 0f6b 0100     		.2byte	0x1
 15657 0f6d 58       		.byte	0x58
 15658 0f6e 00000000 		.4byte	0
 15659 0f72 00000000 		.4byte	0
 15660              	.LLST96:
 15661 0f76 7E000000 		.4byte	.LVL446
 15662 0f7a B0000000 		.4byte	.LVL454
 15663 0f7e 0100     		.2byte	0x1
 15664 0f80 55       		.byte	0x55
 15665 0f81 00000000 		.4byte	0
 15666 0f85 00000000 		.4byte	0
 15667              	.LLST97:
 15668 0f89 86000000 		.4byte	.LVL447
 15669 0f8d B0000000 		.4byte	.LVL454
 15670 0f91 0100     		.2byte	0x1
 15671 0f93 54       		.byte	0x54
 15672 0f94 00000000 		.4byte	0
 15673 0f98 00000000 		.4byte	0
 15674              	.LLST98:
 15675 0f9c 26000000 		.4byte	.LVL433
 15676 0fa0 6E000000 		.4byte	.LVL444
 15677 0fa4 0100     		.2byte	0x1
 15678 0fa6 56       		.byte	0x56
 15679 0fa7 70000000 		.4byte	.LVL445
 15680 0fab B4000000 		.4byte	.LVL455
 15681 0faf 0100     		.2byte	0x1
 15682 0fb1 56       		.byte	0x56
 15683 0fb2 00000000 		.4byte	0
 15684 0fb6 00000000 		.4byte	0
 15685              	.LLST99:
 15686 0fba 3A000000 		.4byte	.LVL435
 15687 0fbe 70000000 		.4byte	.LVL445
 15688 0fc2 0100     		.2byte	0x1
 15689 0fc4 55       		.byte	0x55
ARM GAS  C:\Users\FRANKL~1\AppData\Local\Temp\ccCAoJJX.s 			page 315


 15690 0fc5 00000000 		.4byte	0
 15691 0fc9 00000000 		.4byte	0
 15692              	.LLST100:
 15693 0fcd 42000000 		.4byte	.LVL436
 15694 0fd1 70000000 		.4byte	.LVL445
 15695 0fd5 0100     		.2byte	0x1
 15696 0fd7 54       		.byte	0x54
 15697 0fd8 00000000 		.4byte	0
 15698 0fdc 00000000 		.4byte	0
 15699              	.LLST101:
 15700 0fe0 00000000 		.4byte	.LVL456
 15701 0fe4 0A000000 		.4byte	.LVL457
 15702 0fe8 0100     		.2byte	0x1
 15703 0fea 50       		.byte	0x50
 15704 0feb 0A000000 		.4byte	.LVL457
 15705 0fef BA000000 		.4byte	.LVL482
 15706 0ff3 0100     		.2byte	0x1
 15707 0ff5 54       		.byte	0x54
 15708 0ff6 00000000 		.4byte	0
 15709 0ffa 00000000 		.4byte	0
 15710              	.LLST102:
 15711 0ffe 20000000 		.4byte	.LVL459
 15712 1002 26000000 		.4byte	.LVL460
 15713 1006 0100     		.2byte	0x1
 15714 1008 53       		.byte	0x53
 15715 1009 26000000 		.4byte	.LVL460
 15716 100d 2A000000 		.4byte	.LVL461
 15717 1011 0100     		.2byte	0x1
 15718 1013 50       		.byte	0x50
 15719 1014 3A000000 		.4byte	.LVL464
 15720 1018 40000000 		.4byte	.LVL465
 15721 101c 0100     		.2byte	0x1
 15722 101e 53       		.byte	0x53
 15723 101f 40000000 		.4byte	.LVL465
 15724 1023 44000000 		.4byte	.LVL466
 15725 1027 0100     		.2byte	0x1
 15726 1029 50       		.byte	0x50
 15727 102a 52000000 		.4byte	.LVL469
 15728 102e 57000000 		.4byte	.LVL470-1
 15729 1032 0100     		.2byte	0x1
 15730 1034 53       		.byte	0x53
 15731 1035 00000000 		.4byte	0
 15732 1039 00000000 		.4byte	0
 15733              	.LLST103:
 15734 103d 68000000 		.4byte	.LVL471
 15735 1041 AC000000 		.4byte	.LVL478
 15736 1045 0100     		.2byte	0x1
 15737 1047 56       		.byte	0x56
 15738 1048 00000000 		.4byte	0
 15739 104c 00000000 		.4byte	0
 15740              	.LLST104:
 15741 1050 76000000 		.4byte	.LVL472
 15742 1054 B2000000 		.4byte	.LVL479
 15743 1058 0100     		.2byte	0x1
 15744 105a 50       		.byte	0x50
 15745 105b 00000000 		.4byte	0
 15746 105f 00000000 		.4byte	0
ARM GAS  C:\Users\FRANKL~1\AppData\Local\Temp\ccCAoJJX.s 			page 316


 15747              	.LLST105:
 15748 1063 88000000 		.4byte	.LVL473
 15749 1067 A0000000 		.4byte	.LVL476
 15750 106b 0100     		.2byte	0x1
 15751 106d 52       		.byte	0x52
 15752 106e 00000000 		.4byte	0
 15753 1072 00000000 		.4byte	0
 15754              	.LLST106:
 15755 1076 96000000 		.4byte	.LVL474
 15756 107a A6000000 		.4byte	.LVL477
 15757 107e 0100     		.2byte	0x1
 15758 1080 53       		.byte	0x53
 15759 1081 00000000 		.4byte	0
 15760 1085 00000000 		.4byte	0
 15761              	.LLST107:
 15762 1089 9A000000 		.4byte	.LVL475
 15763 108d A0000000 		.4byte	.LVL476
 15764 1091 0100     		.2byte	0x1
 15765 1093 51       		.byte	0x51
 15766 1094 A0000000 		.4byte	.LVL476
 15767 1098 A6000000 		.4byte	.LVL477
 15768 109c 0100     		.2byte	0x1
 15769 109e 52       		.byte	0x52
 15770 109f A6000000 		.4byte	.LVL477
 15771 10a3 AC000000 		.4byte	.LVL478
 15772 10a7 0100     		.2byte	0x1
 15773 10a9 53       		.byte	0x53
 15774 10aa AC000000 		.4byte	.LVL478
 15775 10ae B2000000 		.4byte	.LVL479
 15776 10b2 0100     		.2byte	0x1
 15777 10b4 56       		.byte	0x56
 15778 10b5 B2000000 		.4byte	.LVL479
 15779 10b9 B4000000 		.4byte	.LVL480
 15780 10bd 0100     		.2byte	0x1
 15781 10bf 50       		.byte	0x50
 15782 10c0 00000000 		.4byte	0
 15783 10c4 00000000 		.4byte	0
 15784              	.LLST108:
 15785 10c8 00000000 		.4byte	.LVL483
 15786 10cc 0A000000 		.4byte	.LVL484
 15787 10d0 0100     		.2byte	0x1
 15788 10d2 50       		.byte	0x50
 15789 10d3 0A000000 		.4byte	.LVL484
 15790 10d7 BA000000 		.4byte	.LVL509
 15791 10db 0100     		.2byte	0x1
 15792 10dd 54       		.byte	0x54
 15793 10de 00000000 		.4byte	0
 15794 10e2 00000000 		.4byte	0
 15795              	.LLST109:
 15796 10e6 20000000 		.4byte	.LVL486
 15797 10ea 26000000 		.4byte	.LVL487
 15798 10ee 0100     		.2byte	0x1
 15799 10f0 53       		.byte	0x53
 15800 10f1 26000000 		.4byte	.LVL487
 15801 10f5 2A000000 		.4byte	.LVL488
 15802 10f9 0100     		.2byte	0x1
 15803 10fb 50       		.byte	0x50
ARM GAS  C:\Users\FRANKL~1\AppData\Local\Temp\ccCAoJJX.s 			page 317


 15804 10fc 3A000000 		.4byte	.LVL491
 15805 1100 40000000 		.4byte	.LVL492
 15806 1104 0100     		.2byte	0x1
 15807 1106 53       		.byte	0x53
 15808 1107 40000000 		.4byte	.LVL492
 15809 110b 44000000 		.4byte	.LVL493
 15810 110f 0100     		.2byte	0x1
 15811 1111 50       		.byte	0x50
 15812 1112 52000000 		.4byte	.LVL496
 15813 1116 57000000 		.4byte	.LVL497-1
 15814 111a 0100     		.2byte	0x1
 15815 111c 53       		.byte	0x53
 15816 111d 00000000 		.4byte	0
 15817 1121 00000000 		.4byte	0
 15818              	.LLST110:
 15819 1125 6E000000 		.4byte	.LVL498
 15820 1129 A0000000 		.4byte	.LVL503
 15821 112d 0100     		.2byte	0x1
 15822 112f 52       		.byte	0x52
 15823 1130 00000000 		.4byte	0
 15824 1134 00000000 		.4byte	0
 15825              	.LLST111:
 15826 1138 7C000000 		.4byte	.LVL499
 15827 113c A6000000 		.4byte	.LVL504
 15828 1140 0100     		.2byte	0x1
 15829 1142 53       		.byte	0x53
 15830 1143 00000000 		.4byte	0
 15831 1147 00000000 		.4byte	0
 15832              	.LLST112:
 15833 114b 88000000 		.4byte	.LVL500
 15834 114f AC000000 		.4byte	.LVL505
 15835 1153 0100     		.2byte	0x1
 15836 1155 56       		.byte	0x56
 15837 1156 00000000 		.4byte	0
 15838 115a 00000000 		.4byte	0
 15839              	.LLST113:
 15840 115e 96000000 		.4byte	.LVL501
 15841 1162 B2000000 		.4byte	.LVL506
 15842 1166 0100     		.2byte	0x1
 15843 1168 50       		.byte	0x50
 15844 1169 00000000 		.4byte	0
 15845 116d 00000000 		.4byte	0
 15846              	.LLST114:
 15847 1171 9A000000 		.4byte	.LVL502
 15848 1175 A0000000 		.4byte	.LVL503
 15849 1179 0100     		.2byte	0x1
 15850 117b 51       		.byte	0x51
 15851 117c A0000000 		.4byte	.LVL503
 15852 1180 A6000000 		.4byte	.LVL504
 15853 1184 0100     		.2byte	0x1
 15854 1186 52       		.byte	0x52
 15855 1187 A6000000 		.4byte	.LVL504
 15856 118b AC000000 		.4byte	.LVL505
 15857 118f 0100     		.2byte	0x1
 15858 1191 53       		.byte	0x53
 15859 1192 AC000000 		.4byte	.LVL505
 15860 1196 B2000000 		.4byte	.LVL506
ARM GAS  C:\Users\FRANKL~1\AppData\Local\Temp\ccCAoJJX.s 			page 318


 15861 119a 0100     		.2byte	0x1
 15862 119c 56       		.byte	0x56
 15863 119d B2000000 		.4byte	.LVL506
 15864 11a1 B4000000 		.4byte	.LVL507
 15865 11a5 0100     		.2byte	0x1
 15866 11a7 50       		.byte	0x50
 15867 11a8 00000000 		.4byte	0
 15868 11ac 00000000 		.4byte	0
 15869              	.LLST115:
 15870 11b0 00000000 		.4byte	.LVL510
 15871 11b4 05000000 		.4byte	.LVL511-1
 15872 11b8 0100     		.2byte	0x1
 15873 11ba 50       		.byte	0x50
 15874 11bb 05000000 		.4byte	.LVL511-1
 15875 11bf 38000000 		.4byte	.LFE102
 15876 11c3 0600     		.2byte	0x6
 15877 11c5 F3       		.byte	0xf3
 15878 11c6 03       		.uleb128 0x3
 15879 11c7 F5       		.byte	0xf5
 15880 11c8 00       		.uleb128 0
 15881 11c9 25       		.uleb128 0x25
 15882 11ca 9F       		.byte	0x9f
 15883 11cb 00000000 		.4byte	0
 15884 11cf 00000000 		.4byte	0
 15885              	.LLST116:
 15886 11d3 00000000 		.4byte	.LVL516
 15887 11d7 05000000 		.4byte	.LVL517-1
 15888 11db 0100     		.2byte	0x1
 15889 11dd 50       		.byte	0x50
 15890 11de 05000000 		.4byte	.LVL517-1
 15891 11e2 38000000 		.4byte	.LFE103
 15892 11e6 0600     		.2byte	0x6
 15893 11e8 F3       		.byte	0xf3
 15894 11e9 03       		.uleb128 0x3
 15895 11ea F5       		.byte	0xf5
 15896 11eb 00       		.uleb128 0
 15897 11ec 25       		.uleb128 0x25
 15898 11ed 9F       		.byte	0x9f
 15899 11ee 00000000 		.4byte	0
 15900 11f2 00000000 		.4byte	0
 15901              	.LLST117:
 15902 11f6 00000000 		.4byte	.LVL522
 15903 11fa 07000000 		.4byte	.LVL523-1
 15904 11fe 0100     		.2byte	0x1
 15905 1200 50       		.byte	0x50
 15906 1201 07000000 		.4byte	.LVL523-1
 15907 1205 14000000 		.4byte	.LFE104
 15908 1209 0600     		.2byte	0x6
 15909 120b F3       		.byte	0xf3
 15910 120c 03       		.uleb128 0x3
 15911 120d F5       		.byte	0xf5
 15912 120e 00       		.uleb128 0
 15913 120f 25       		.uleb128 0x25
 15914 1210 9F       		.byte	0x9f
 15915 1211 00000000 		.4byte	0
 15916 1215 00000000 		.4byte	0
 15917              	.LLST118:
ARM GAS  C:\Users\FRANKL~1\AppData\Local\Temp\ccCAoJJX.s 			page 319


 15918 1219 00000000 		.4byte	.LVL525
 15919 121d 07000000 		.4byte	.LVL526-1
 15920 1221 0100     		.2byte	0x1
 15921 1223 50       		.byte	0x50
 15922 1224 07000000 		.4byte	.LVL526-1
 15923 1228 14000000 		.4byte	.LFE105
 15924 122c 0600     		.2byte	0x6
 15925 122e F3       		.byte	0xf3
 15926 122f 03       		.uleb128 0x3
 15927 1230 F5       		.byte	0xf5
 15928 1231 00       		.uleb128 0
 15929 1232 25       		.uleb128 0x25
 15930 1233 9F       		.byte	0x9f
 15931 1234 00000000 		.4byte	0
 15932 1238 00000000 		.4byte	0
 15933              	.LLST119:
 15934 123c 00000000 		.4byte	.LVL532
 15935 1240 0E000000 		.4byte	.LVL534
 15936 1244 0100     		.2byte	0x1
 15937 1246 50       		.byte	0x50
 15938 1247 0E000000 		.4byte	.LVL534
 15939 124b 72000000 		.4byte	.LVL548
 15940 124f 0100     		.2byte	0x1
 15941 1251 55       		.byte	0x55
 15942 1252 72000000 		.4byte	.LVL548
 15943 1256 A8000000 		.4byte	.LFE107
 15944 125a 0400     		.2byte	0x4
 15945 125c F3       		.byte	0xf3
 15946 125d 01       		.uleb128 0x1
 15947 125e 50       		.byte	0x50
 15948 125f 9F       		.byte	0x9f
 15949 1260 00000000 		.4byte	0
 15950 1264 00000000 		.4byte	0
 15951              	.LLST120:
 15952 1268 0A000000 		.4byte	.LVL533
 15953 126c 94000000 		.4byte	.LVL551
 15954 1270 0100     		.2byte	0x1
 15955 1272 56       		.byte	0x56
 15956 1273 00000000 		.4byte	0
 15957 1277 00000000 		.4byte	0
 15958              	.LLST121:
 15959 127b 1E000000 		.4byte	.LVL537
 15960 127f 20000000 		.4byte	.LVL538
 15961 1283 0200     		.2byte	0x2
 15962 1285 30       		.byte	0x30
 15963 1286 9F       		.byte	0x9f
 15964 1287 20000000 		.4byte	.LVL538
 15965 128b 64000000 		.4byte	.LVL545
 15966 128f 0100     		.2byte	0x1
 15967 1291 54       		.byte	0x54
 15968 1292 66000000 		.4byte	.LVL546
 15969 1296 74000000 		.4byte	.LVL549
 15970 129a 0100     		.2byte	0x1
 15971 129c 54       		.byte	0x54
 15972 129d 00000000 		.4byte	0
 15973 12a1 00000000 		.4byte	0
 15974              	.LLST122:
ARM GAS  C:\Users\FRANKL~1\AppData\Local\Temp\ccCAoJJX.s 			page 320


 15975 12a5 00000000 		.4byte	.LVL552
 15976 12a9 14000000 		.4byte	.LVL555
 15977 12ad 0100     		.2byte	0x1
 15978 12af 50       		.byte	0x50
 15979 12b0 14000000 		.4byte	.LVL555
 15980 12b4 17000000 		.4byte	.LVL556-1
 15981 12b8 0100     		.2byte	0x1
 15982 12ba 52       		.byte	0x52
 15983 12bb 17000000 		.4byte	.LVL556-1
 15984 12bf 70000000 		.4byte	.LFE108
 15985 12c3 0400     		.2byte	0x4
 15986 12c5 F3       		.byte	0xf3
 15987 12c6 01       		.uleb128 0x1
 15988 12c7 50       		.byte	0x50
 15989 12c8 9F       		.byte	0x9f
 15990 12c9 00000000 		.4byte	0
 15991 12cd 00000000 		.4byte	0
 15992              	.LLST123:
 15993 12d1 00000000 		.4byte	.LVL552
 15994 12d5 0A000000 		.4byte	.LVL553
 15995 12d9 0100     		.2byte	0x1
 15996 12db 51       		.byte	0x51
 15997 12dc 0A000000 		.4byte	.LVL553
 15998 12e0 70000000 		.4byte	.LFE108
 15999 12e4 0400     		.2byte	0x4
 16000 12e6 F3       		.byte	0xf3
 16001 12e7 01       		.uleb128 0x1
 16002 12e8 51       		.byte	0x51
 16003 12e9 9F       		.byte	0x9f
 16004 12ea 00000000 		.4byte	0
 16005 12ee 00000000 		.4byte	0
 16006              	.LLST124:
 16007 12f2 00000000 		.4byte	.LVL552
 16008 12f6 12000000 		.4byte	.LVL554
 16009 12fa 0100     		.2byte	0x1
 16010 12fc 52       		.byte	0x52
 16011 12fd 12000000 		.4byte	.LVL554
 16012 1301 70000000 		.4byte	.LFE108
 16013 1305 0400     		.2byte	0x4
 16014 1307 F3       		.byte	0xf3
 16015 1308 01       		.uleb128 0x1
 16016 1309 52       		.byte	0x52
 16017 130a 9F       		.byte	0x9f
 16018 130b 00000000 		.4byte	0
 16019 130f 00000000 		.4byte	0
 16020              	.LLST125:
 16021 1313 00000000 		.4byte	.LVL565
 16022 1317 08000000 		.4byte	.LVL567
 16023 131b 0100     		.2byte	0x1
 16024 131d 50       		.byte	0x50
 16025 131e 08000000 		.4byte	.LVL567
 16026 1322 1A000000 		.4byte	.LFE109
 16027 1326 0100     		.2byte	0x1
 16028 1328 55       		.byte	0x55
 16029 1329 00000000 		.4byte	0
 16030 132d 00000000 		.4byte	0
 16031              	.LLST126:
ARM GAS  C:\Users\FRANKL~1\AppData\Local\Temp\ccCAoJJX.s 			page 321


 16032 1331 04000000 		.4byte	.LVL566
 16033 1335 08000000 		.4byte	.LVL567
 16034 1339 0200     		.2byte	0x2
 16035 133b 30       		.byte	0x30
 16036 133c 9F       		.byte	0x9f
 16037 133d 08000000 		.4byte	.LVL567
 16038 1341 1A000000 		.4byte	.LFE109
 16039 1345 0100     		.2byte	0x1
 16040 1347 54       		.byte	0x54
 16041 1348 00000000 		.4byte	0
 16042 134c 00000000 		.4byte	0
 16043              	.LLST127:
 16044 1350 0E000000 		.4byte	.LVL571
 16045 1354 12000000 		.4byte	.LVL572
 16046 1358 0200     		.2byte	0x2
 16047 135a 30       		.byte	0x30
 16048 135b 9F       		.byte	0x9f
 16049 135c 12000000 		.4byte	.LVL572
 16050 1360 24000000 		.4byte	.LVL575
 16051 1364 0100     		.2byte	0x1
 16052 1366 54       		.byte	0x54
 16053 1367 26000000 		.4byte	.LVL576
 16054 136b 2C000000 		.4byte	.LFE110
 16055 136f 0100     		.2byte	0x1
 16056 1371 54       		.byte	0x54
 16057 1372 00000000 		.4byte	0
 16058 1376 00000000 		.4byte	0
 16059              	.LLST128:
 16060 137a 00000000 		.4byte	.LVL577
 16061 137e 14000000 		.4byte	.LVL578
 16062 1382 0100     		.2byte	0x1
 16063 1384 50       		.byte	0x50
 16064 1385 14000000 		.4byte	.LVL578
 16065 1389 20000000 		.4byte	.LVL580
 16066 138d 0400     		.2byte	0x4
 16067 138f F3       		.byte	0xf3
 16068 1390 01       		.uleb128 0x1
 16069 1391 50       		.byte	0x50
 16070 1392 9F       		.byte	0x9f
 16071 1393 20000000 		.4byte	.LVL580
 16072 1397 22000000 		.4byte	.LVL581
 16073 139b 0100     		.2byte	0x1
 16074 139d 50       		.byte	0x50
 16075 139e 22000000 		.4byte	.LVL581
 16076 13a2 AC000000 		.4byte	.LFE111
 16077 13a6 0400     		.2byte	0x4
 16078 13a8 F3       		.byte	0xf3
 16079 13a9 01       		.uleb128 0x1
 16080 13aa 50       		.byte	0x50
 16081 13ab 9F       		.byte	0x9f
 16082 13ac 00000000 		.4byte	0
 16083 13b0 00000000 		.4byte	0
 16084              	.LLST129:
 16085 13b4 28000000 		.4byte	.LVL583
 16086 13b8 98000000 		.4byte	.LVL599
 16087 13bc 0100     		.2byte	0x1
 16088 13be 58       		.byte	0x58
ARM GAS  C:\Users\FRANKL~1\AppData\Local\Temp\ccCAoJJX.s 			page 322


 16089 13bf 9C000000 		.4byte	.LVL600
 16090 13c3 A4000000 		.4byte	.LVL601
 16091 13c7 0100     		.2byte	0x1
 16092 13c9 58       		.byte	0x58
 16093 13ca 00000000 		.4byte	0
 16094 13ce 00000000 		.4byte	0
 16095              	.LLST130:
 16096 13d2 28000000 		.4byte	.LVL583
 16097 13d6 4E000000 		.4byte	.LVL588
 16098 13da 0200     		.2byte	0x2
 16099 13dc 40       		.byte	0x40
 16100 13dd 9F       		.byte	0x9f
 16101 13de 4E000000 		.4byte	.LVL588
 16102 13e2 50000000 		.4byte	.LVL589
 16103 13e6 0100     		.2byte	0x1
 16104 13e8 57       		.byte	0x57
 16105 13e9 00000000 		.4byte	0
 16106 13ed 00000000 		.4byte	0
 16107              	.LLST131:
 16108 13f1 28000000 		.4byte	.LVL583
 16109 13f5 36000000 		.4byte	.LVL584
 16110 13f9 0200     		.2byte	0x2
 16111 13fb 30       		.byte	0x30
 16112 13fc 9F       		.byte	0x9f
 16113 13fd 36000000 		.4byte	.LVL584
 16114 1401 38000000 		.4byte	.LVL585
 16115 1405 0100     		.2byte	0x1
 16116 1407 55       		.byte	0x55
 16117 1408 38000000 		.4byte	.LVL585
 16118 140c 3A000000 		.4byte	.LVL586
 16119 1410 0200     		.2byte	0x2
 16120 1412 30       		.byte	0x30
 16121 1413 9F       		.byte	0x9f
 16122 1414 3A000000 		.4byte	.LVL586
 16123 1418 4A000000 		.4byte	.LVL587
 16124 141c 0100     		.2byte	0x1
 16125 141e 55       		.byte	0x55
 16126 141f 4E000000 		.4byte	.LVL588
 16127 1423 50000000 		.4byte	.LVL589
 16128 1427 0100     		.2byte	0x1
 16129 1429 55       		.byte	0x55
 16130 142a 00000000 		.4byte	0
 16131 142e 00000000 		.4byte	0
 16132              	.LLST132:
 16133 1432 3A000000 		.4byte	.LVL586
 16134 1436 4E000000 		.4byte	.LVL588
 16135 143a 0300     		.2byte	0x3
 16136 143c 09       		.byte	0x9
 16137 143d F0       		.byte	0xf0
 16138 143e 9F       		.byte	0x9f
 16139 143f 4E000000 		.4byte	.LVL588
 16140 1443 50000000 		.4byte	.LVL589
 16141 1447 0100     		.2byte	0x1
 16142 1449 56       		.byte	0x56
 16143 144a 00000000 		.4byte	0
 16144 144e 00000000 		.4byte	0
 16145              	.LLST133:
ARM GAS  C:\Users\FRANKL~1\AppData\Local\Temp\ccCAoJJX.s 			page 323


 16146 1452 4E000000 		.4byte	.LVL588
 16147 1456 8E000000 		.4byte	.LVL597
 16148 145a 0100     		.2byte	0x1
 16149 145c 55       		.byte	0x55
 16150 145d 90000000 		.4byte	.LVL598
 16151 1461 9C000000 		.4byte	.LVL600
 16152 1465 0100     		.2byte	0x1
 16153 1467 55       		.byte	0x55
 16154 1468 00000000 		.4byte	0
 16155 146c 00000000 		.4byte	0
 16156              	.LLST134:
 16157 1470 50000000 		.4byte	.LVL589
 16158 1474 82000000 		.4byte	.LVL593
 16159 1478 0100     		.2byte	0x1
 16160 147a 54       		.byte	0x54
 16161 147b 84000000 		.4byte	.LVL594
 16162 147f 86000000 		.4byte	.LVL595
 16163 1483 0100     		.2byte	0x1
 16164 1485 54       		.byte	0x54
 16165 1486 88000000 		.4byte	.LVL596
 16166 148a 90000000 		.4byte	.LVL598
 16167 148e 0100     		.2byte	0x1
 16168 1490 54       		.byte	0x54
 16169 1491 00000000 		.4byte	0
 16170 1495 00000000 		.4byte	0
 16171              	.LLST135:
 16172 1499 00000000 		.4byte	.LVL602
 16173 149d 08000000 		.4byte	.LVL603
 16174 14a1 0100     		.2byte	0x1
 16175 14a3 50       		.byte	0x50
 16176 14a4 08000000 		.4byte	.LVL603
 16177 14a8 84000000 		.4byte	.LFE112
 16178 14ac 0400     		.2byte	0x4
 16179 14ae F3       		.byte	0xf3
 16180 14af 01       		.uleb128 0x1
 16181 14b0 50       		.byte	0x50
 16182 14b1 9F       		.byte	0x9f
 16183 14b2 00000000 		.4byte	0
 16184 14b6 00000000 		.4byte	0
 16185              	.LLST136:
 16186 14ba 0C000000 		.4byte	.LVL604
 16187 14be 12000000 		.4byte	.LVL605
 16188 14c2 0200     		.2byte	0x2
 16189 14c4 30       		.byte	0x30
 16190 14c5 9F       		.byte	0x9f
 16191 14c6 12000000 		.4byte	.LVL605
 16192 14ca 72000000 		.4byte	.LVL617
 16193 14ce 0100     		.2byte	0x1
 16194 14d0 58       		.byte	0x58
 16195 14d1 76000000 		.4byte	.LVL618
 16196 14d5 7E000000 		.4byte	.LVL619
 16197 14d9 0100     		.2byte	0x1
 16198 14db 58       		.byte	0x58
 16199 14dc 00000000 		.4byte	0
 16200 14e0 00000000 		.4byte	0
 16201              	.LLST137:
 16202 14e4 12000000 		.4byte	.LVL605
ARM GAS  C:\Users\FRANKL~1\AppData\Local\Temp\ccCAoJJX.s 			page 324


 16203 14e8 28000000 		.4byte	.LVL606
 16204 14ec 0200     		.2byte	0x2
 16205 14ee 40       		.byte	0x40
 16206 14ef 9F       		.byte	0x9f
 16207 14f0 28000000 		.4byte	.LVL606
 16208 14f4 2A000000 		.4byte	.LVL607
 16209 14f8 0100     		.2byte	0x1
 16210 14fa 57       		.byte	0x57
 16211 14fb 00000000 		.4byte	0
 16212 14ff 00000000 		.4byte	0
 16213              	.LLST138:
 16214 1503 12000000 		.4byte	.LVL605
 16215 1507 28000000 		.4byte	.LVL606
 16216 150b 0200     		.2byte	0x2
 16217 150d 30       		.byte	0x30
 16218 150e 9F       		.byte	0x9f
 16219 150f 28000000 		.4byte	.LVL606
 16220 1513 2A000000 		.4byte	.LVL607
 16221 1517 0100     		.2byte	0x1
 16222 1519 55       		.byte	0x55
 16223 151a 00000000 		.4byte	0
 16224 151e 00000000 		.4byte	0
 16225              	.LLST139:
 16226 1522 12000000 		.4byte	.LVL605
 16227 1526 28000000 		.4byte	.LVL606
 16228 152a 0300     		.2byte	0x3
 16229 152c 09       		.byte	0x9
 16230 152d F0       		.byte	0xf0
 16231 152e 9F       		.byte	0x9f
 16232 152f 28000000 		.4byte	.LVL606
 16233 1533 2A000000 		.4byte	.LVL607
 16234 1537 0100     		.2byte	0x1
 16235 1539 56       		.byte	0x56
 16236 153a 00000000 		.4byte	0
 16237 153e 00000000 		.4byte	0
 16238              	.LLST140:
 16239 1542 28000000 		.4byte	.LVL606
 16240 1546 68000000 		.4byte	.LVL615
 16241 154a 0100     		.2byte	0x1
 16242 154c 55       		.byte	0x55
 16243 154d 6A000000 		.4byte	.LVL616
 16244 1551 76000000 		.4byte	.LVL618
 16245 1555 0100     		.2byte	0x1
 16246 1557 55       		.byte	0x55
 16247 1558 00000000 		.4byte	0
 16248 155c 00000000 		.4byte	0
 16249              	.LLST141:
 16250 1560 2A000000 		.4byte	.LVL607
 16251 1564 5C000000 		.4byte	.LVL611
 16252 1568 0100     		.2byte	0x1
 16253 156a 54       		.byte	0x54
 16254 156b 5E000000 		.4byte	.LVL612
 16255 156f 60000000 		.4byte	.LVL613
 16256 1573 0100     		.2byte	0x1
 16257 1575 54       		.byte	0x54
 16258 1576 62000000 		.4byte	.LVL614
 16259 157a 6A000000 		.4byte	.LVL616
ARM GAS  C:\Users\FRANKL~1\AppData\Local\Temp\ccCAoJJX.s 			page 325


 16260 157e 0100     		.2byte	0x1
 16261 1580 54       		.byte	0x54
 16262 1581 00000000 		.4byte	0
 16263 1585 00000000 		.4byte	0
 16264              	.LLST142:
 16265 1589 04000000 		.4byte	.LVL620
 16266 158d 10000000 		.4byte	.LVL621
 16267 1591 0200     		.2byte	0x2
 16268 1593 31       		.byte	0x31
 16269 1594 9F       		.byte	0x9f
 16270 1595 10000000 		.4byte	.LVL621
 16271 1599 40000000 		.4byte	.LVL626
 16272 159d 0100     		.2byte	0x1
 16273 159f 54       		.byte	0x54
 16274 15a0 40000000 		.4byte	.LVL626
 16275 15a4 84000000 		.4byte	.LVL634
 16276 15a8 0100     		.2byte	0x1
 16277 15aa 58       		.byte	0x58
 16278 15ab 84000000 		.4byte	.LVL634
 16279 15af 8E000000 		.4byte	.LVL635
 16280 15b3 0100     		.2byte	0x1
 16281 15b5 54       		.byte	0x54
 16282 15b6 00000000 		.4byte	0
 16283 15ba 00000000 		.4byte	0
 16284              	.LLST143:
 16285 15be 04000000 		.4byte	.LVL620
 16286 15c2 10000000 		.4byte	.LVL621
 16287 15c6 0200     		.2byte	0x2
 16288 15c8 30       		.byte	0x30
 16289 15c9 9F       		.byte	0x9f
 16290 15ca 10000000 		.4byte	.LVL621
 16291 15ce 66000000 		.4byte	.LVL630
 16292 15d2 0100     		.2byte	0x1
 16293 15d4 55       		.byte	0x55
 16294 15d5 68000000 		.4byte	.LVL631
 16295 15d9 92000000 		.4byte	.LVL636
 16296 15dd 0100     		.2byte	0x1
 16297 15df 55       		.byte	0x55
 16298 15e0 00000000 		.4byte	0
 16299 15e4 00000000 		.4byte	0
 16300              	.LLST144:
 16301 15e8 04000000 		.4byte	.LVL620
 16302 15ec 10000000 		.4byte	.LVL621
 16303 15f0 0200     		.2byte	0x2
 16304 15f2 30       		.byte	0x30
 16305 15f3 9F       		.byte	0x9f
 16306 15f4 10000000 		.4byte	.LVL621
 16307 15f8 30000000 		.4byte	.LVL624
 16308 15fc 0100     		.2byte	0x1
 16309 15fe 59       		.byte	0x59
 16310 15ff 34000000 		.4byte	.LVL625
 16311 1603 92000000 		.4byte	.LVL636
 16312 1607 0100     		.2byte	0x1
 16313 1609 59       		.byte	0x59
 16314 160a 00000000 		.4byte	0
 16315 160e 00000000 		.4byte	0
 16316              	.LLST145:
ARM GAS  C:\Users\FRANKL~1\AppData\Local\Temp\ccCAoJJX.s 			page 326


 16317 1612 04000000 		.4byte	.LVL620
 16318 1616 10000000 		.4byte	.LVL621
 16319 161a 0200     		.2byte	0x2
 16320 161c 30       		.byte	0x30
 16321 161d 9F       		.byte	0x9f
 16322 161e 10000000 		.4byte	.LVL621
 16323 1622 6C000000 		.4byte	.LVL632
 16324 1626 0100     		.2byte	0x1
 16325 1628 56       		.byte	0x56
 16326 1629 6E000000 		.4byte	.LVL633
 16327 162d 92000000 		.4byte	.LVL636
 16328 1631 0100     		.2byte	0x1
 16329 1633 56       		.byte	0x56
 16330 1634 00000000 		.4byte	0
 16331 1638 00000000 		.4byte	0
 16332              	.LLST146:
 16333 163c 04000000 		.4byte	.LVL620
 16334 1640 10000000 		.4byte	.LVL621
 16335 1644 0200     		.2byte	0x2
 16336 1646 30       		.byte	0x30
 16337 1647 9F       		.byte	0x9f
 16338 1648 10000000 		.4byte	.LVL621
 16339 164c 1E000000 		.4byte	.LVL622
 16340 1650 0100     		.2byte	0x1
 16341 1652 57       		.byte	0x57
 16342 1653 20000000 		.4byte	.LVL623
 16343 1657 92000000 		.4byte	.LVL636
 16344 165b 0100     		.2byte	0x1
 16345 165d 57       		.byte	0x57
 16346 165e 00000000 		.4byte	0
 16347 1662 00000000 		.4byte	0
 16348              	.LLST147:
 16349 1666 00000000 		.4byte	.LVL637
 16350 166a 0A000000 		.4byte	.LVL639
 16351 166e 0100     		.2byte	0x1
 16352 1670 50       		.byte	0x50
 16353 1671 0A000000 		.4byte	.LVL639
 16354 1675 7C000000 		.4byte	.LFE114
 16355 1679 0400     		.2byte	0x4
 16356 167b F3       		.byte	0xf3
 16357 167c 01       		.uleb128 0x1
 16358 167d 50       		.byte	0x50
 16359 167e 9F       		.byte	0x9f
 16360 167f 00000000 		.4byte	0
 16361 1683 00000000 		.4byte	0
 16362              	.LLST148:
 16363 1687 00000000 		.4byte	.LVL637
 16364 168b 0A000000 		.4byte	.LVL639
 16365 168f 0100     		.2byte	0x1
 16366 1691 51       		.byte	0x51
 16367 1692 0A000000 		.4byte	.LVL639
 16368 1696 7C000000 		.4byte	.LFE114
 16369 169a 0400     		.2byte	0x4
 16370 169c F3       		.byte	0xf3
 16371 169d 01       		.uleb128 0x1
 16372 169e 51       		.byte	0x51
 16373 169f 9F       		.byte	0x9f
ARM GAS  C:\Users\FRANKL~1\AppData\Local\Temp\ccCAoJJX.s 			page 327


 16374 16a0 00000000 		.4byte	0
 16375 16a4 00000000 		.4byte	0
 16376              	.LLST149:
 16377 16a8 06000000 		.4byte	.LVL638
 16378 16ac 0A000000 		.4byte	.LVL639
 16379 16b0 0200     		.2byte	0x2
 16380 16b2 31       		.byte	0x31
 16381 16b3 9F       		.byte	0x9f
 16382 16b4 0A000000 		.4byte	.LVL639
 16383 16b8 6E000000 		.4byte	.LVL651
 16384 16bc 0100     		.2byte	0x1
 16385 16be 54       		.byte	0x54
 16386 16bf 00000000 		.4byte	0
 16387 16c3 00000000 		.4byte	0
 16388              	.LLST150:
 16389 16c7 0A000000 		.4byte	.LVL639
 16390 16cb 68000000 		.4byte	.LVL650
 16391 16cf 0100     		.2byte	0x1
 16392 16d1 54       		.byte	0x54
 16393 16d2 00000000 		.4byte	0
 16394 16d6 00000000 		.4byte	0
 16395              	.LLST151:
 16396 16da 0E000000 		.4byte	.LVL640
 16397 16de 68000000 		.4byte	.LVL650
 16398 16e2 0100     		.2byte	0x1
 16399 16e4 55       		.byte	0x55
 16400 16e5 00000000 		.4byte	0
 16401 16e9 00000000 		.4byte	0
 16402              	.LLST152:
 16403 16ed 0E000000 		.4byte	.LVL640
 16404 16f1 68000000 		.4byte	.LVL650
 16405 16f5 0200     		.2byte	0x2
 16406 16f7 31       		.byte	0x31
 16407 16f8 9F       		.byte	0x9f
 16408 16f9 00000000 		.4byte	0
 16409 16fd 00000000 		.4byte	0
 16410              	.LLST153:
 16411 1701 0E000000 		.4byte	.LVL640
 16412 1705 68000000 		.4byte	.LVL650
 16413 1709 0200     		.2byte	0x2
 16414 170b 32       		.byte	0x32
 16415 170c 9F       		.byte	0x9f
 16416 170d 00000000 		.4byte	0
 16417 1711 00000000 		.4byte	0
 16418              	.LLST154:
 16419 1715 00000000 		.4byte	.LVL652
 16420 1719 18000000 		.4byte	.LVL653
 16421 171d 0100     		.2byte	0x1
 16422 171f 50       		.byte	0x50
 16423 1720 18000000 		.4byte	.LVL653
 16424 1724 7E000000 		.4byte	.LVL665
 16425 1728 0400     		.2byte	0x4
 16426 172a F3       		.byte	0xf3
 16427 172b 01       		.uleb128 0x1
 16428 172c 50       		.byte	0x50
 16429 172d 9F       		.byte	0x9f
 16430 172e 7E000000 		.4byte	.LVL665
ARM GAS  C:\Users\FRANKL~1\AppData\Local\Temp\ccCAoJJX.s 			page 328


 16431 1732 8C000000 		.4byte	.LFE115
 16432 1736 0100     		.2byte	0x1
 16433 1738 50       		.byte	0x50
 16434 1739 00000000 		.4byte	0
 16435 173d 00000000 		.4byte	0
 16436              	.LLST155:
 16437 1741 00000000 		.4byte	.LVL652
 16438 1745 18000000 		.4byte	.LVL653
 16439 1749 0100     		.2byte	0x1
 16440 174b 51       		.byte	0x51
 16441 174c 18000000 		.4byte	.LVL653
 16442 1750 7E000000 		.4byte	.LVL665
 16443 1754 0400     		.2byte	0x4
 16444 1756 F3       		.byte	0xf3
 16445 1757 01       		.uleb128 0x1
 16446 1758 51       		.byte	0x51
 16447 1759 9F       		.byte	0x9f
 16448 175a 7E000000 		.4byte	.LVL665
 16449 175e 8C000000 		.4byte	.LFE115
 16450 1762 0100     		.2byte	0x1
 16451 1764 51       		.byte	0x51
 16452 1765 00000000 		.4byte	0
 16453 1769 00000000 		.4byte	0
 16454              	.LLST156:
 16455 176d 00000000 		.4byte	.LVL652
 16456 1771 18000000 		.4byte	.LVL653
 16457 1775 0100     		.2byte	0x1
 16458 1777 52       		.byte	0x52
 16459 1778 18000000 		.4byte	.LVL653
 16460 177c 7E000000 		.4byte	.LVL665
 16461 1780 0400     		.2byte	0x4
 16462 1782 F3       		.byte	0xf3
 16463 1783 01       		.uleb128 0x1
 16464 1784 52       		.byte	0x52
 16465 1785 9F       		.byte	0x9f
 16466 1786 7E000000 		.4byte	.LVL665
 16467 178a 8C000000 		.4byte	.LFE115
 16468 178e 0100     		.2byte	0x1
 16469 1790 52       		.byte	0x52
 16470 1791 00000000 		.4byte	0
 16471 1795 00000000 		.4byte	0
 16472              	.LLST157:
 16473 1799 00000000 		.4byte	.LVL652
 16474 179d 18000000 		.4byte	.LVL653
 16475 17a1 0100     		.2byte	0x1
 16476 17a3 53       		.byte	0x53
 16477 17a4 18000000 		.4byte	.LVL653
 16478 17a8 7E000000 		.4byte	.LVL665
 16479 17ac 0400     		.2byte	0x4
 16480 17ae F3       		.byte	0xf3
 16481 17af 01       		.uleb128 0x1
 16482 17b0 53       		.byte	0x53
 16483 17b1 9F       		.byte	0x9f
 16484 17b2 7E000000 		.4byte	.LVL665
 16485 17b6 8C000000 		.4byte	.LFE115
 16486 17ba 0100     		.2byte	0x1
 16487 17bc 53       		.byte	0x53
ARM GAS  C:\Users\FRANKL~1\AppData\Local\Temp\ccCAoJJX.s 			page 329


 16488 17bd 00000000 		.4byte	0
 16489 17c1 00000000 		.4byte	0
 16490              	.LLST158:
 16491 17c5 18000000 		.4byte	.LVL653
 16492 17c9 7E000000 		.4byte	.LVL665
 16493 17cd 0100     		.2byte	0x1
 16494 17cf 54       		.byte	0x54
 16495 17d0 00000000 		.4byte	0
 16496 17d4 00000000 		.4byte	0
 16497              	.LLST159:
 16498 17d8 18000000 		.4byte	.LVL653
 16499 17dc 76000000 		.4byte	.LVL664
 16500 17e0 0100     		.2byte	0x1
 16501 17e2 54       		.byte	0x54
 16502 17e3 00000000 		.4byte	0
 16503 17e7 00000000 		.4byte	0
 16504              	.LLST160:
 16505 17eb 1C000000 		.4byte	.LVL654
 16506 17ef 76000000 		.4byte	.LVL664
 16507 17f3 0100     		.2byte	0x1
 16508 17f5 55       		.byte	0x55
 16509 17f6 00000000 		.4byte	0
 16510 17fa 00000000 		.4byte	0
 16511              	.LLST161:
 16512 17fe 1C000000 		.4byte	.LVL654
 16513 1802 76000000 		.4byte	.LVL664
 16514 1806 0200     		.2byte	0x2
 16515 1808 31       		.byte	0x31
 16516 1809 9F       		.byte	0x9f
 16517 180a 00000000 		.4byte	0
 16518 180e 00000000 		.4byte	0
 16519              	.LLST162:
 16520 1812 1C000000 		.4byte	.LVL654
 16521 1816 76000000 		.4byte	.LVL664
 16522 181a 0200     		.2byte	0x2
 16523 181c 32       		.byte	0x32
 16524 181d 9F       		.byte	0x9f
 16525 181e 00000000 		.4byte	0
 16526 1822 00000000 		.4byte	0
 16527              	.LLST163:
 16528 1826 94000000 		.4byte	.LVL687
 16529 182a A4000000 		.4byte	.LVL688
 16530 182e 0600     		.2byte	0x6
 16531 1830 03       		.byte	0x3
 16532 1831 00000000 		.4byte	USBUART_Receive_Buffer
 16533 1835 9F       		.byte	0x9f
 16534 1836 A4000000 		.4byte	.LVL688
 16535 183a 52020000 		.4byte	.LVL731
 16536 183e 0100     		.2byte	0x1
 16537 1840 54       		.byte	0x54
 16538 1841 6E020000 		.4byte	.LVL736
 16539 1845 94020000 		.4byte	.LVL741
 16540 1849 0100     		.2byte	0x1
 16541 184b 54       		.byte	0x54
 16542 184c B0020000 		.4byte	.LVL746
 16543 1850 BE020000 		.4byte	.LVL748
 16544 1854 0100     		.2byte	0x1
ARM GAS  C:\Users\FRANKL~1\AppData\Local\Temp\ccCAoJJX.s 			page 330


 16545 1856 54       		.byte	0x54
 16546 1857 F0020000 		.4byte	.LVL752
 16547 185b 22030000 		.4byte	.LVL756
 16548 185f 0100     		.2byte	0x1
 16549 1861 54       		.byte	0x54
 16550 1862 E4030000 		.4byte	.LVL763
 16551 1866 1C040000 		.4byte	.LVL767
 16552 186a 0100     		.2byte	0x1
 16553 186c 54       		.byte	0x54
 16554 186d 62040000 		.4byte	.LVL774
 16555 1871 9C040000 		.4byte	.LVL778
 16556 1875 0100     		.2byte	0x1
 16557 1877 54       		.byte	0x54
 16558 1878 E6040000 		.4byte	.LVL786
 16559 187c FC040000 		.4byte	.LVL789
 16560 1880 0100     		.2byte	0x1
 16561 1882 54       		.byte	0x54
 16562 1883 30050000 		.4byte	.LVL797
 16563 1887 46050000 		.4byte	.LVL800
 16564 188b 0100     		.2byte	0x1
 16565 188d 54       		.byte	0x54
 16566 188e 7A050000 		.4byte	.LVL808
 16567 1892 90050000 		.4byte	.LVL811
 16568 1896 0100     		.2byte	0x1
 16569 1898 54       		.byte	0x54
 16570 1899 C4050000 		.4byte	.LVL819
 16571 189d E6050000 		.4byte	.LVL823
 16572 18a1 0100     		.2byte	0x1
 16573 18a3 54       		.byte	0x54
 16574 18a4 FC050000 		.4byte	.LVL827
 16575 18a8 10060000 		.4byte	.LVL830
 16576 18ac 0100     		.2byte	0x1
 16577 18ae 54       		.byte	0x54
 16578 18af 2C060000 		.4byte	.LVL832
 16579 18b3 4E060000 		.4byte	.LVL836
 16580 18b7 0100     		.2byte	0x1
 16581 18b9 54       		.byte	0x54
 16582 18ba 64060000 		.4byte	.LVL840
 16583 18be 86060000 		.4byte	.LVL844
 16584 18c2 0100     		.2byte	0x1
 16585 18c4 54       		.byte	0x54
 16586 18c5 9C060000 		.4byte	.LVL848
 16587 18c9 B0060000 		.4byte	.LVL851
 16588 18cd 0100     		.2byte	0x1
 16589 18cf 54       		.byte	0x54
 16590 18d0 24070000 		.4byte	.LVL853
 16591 18d4 4A070000 		.4byte	.LVL857
 16592 18d8 0100     		.2byte	0x1
 16593 18da 54       		.byte	0x54
 16594 18db 74070000 		.4byte	.LVL860
 16595 18df 84070000 		.4byte	.LVL862
 16596 18e3 0100     		.2byte	0x1
 16597 18e5 54       		.byte	0x54
 16598 18e6 A4070000 		.4byte	.LVL864
 16599 18ea B4070000 		.4byte	.LVL866
 16600 18ee 0100     		.2byte	0x1
 16601 18f0 54       		.byte	0x54
ARM GAS  C:\Users\FRANKL~1\AppData\Local\Temp\ccCAoJJX.s 			page 331


 16602 18f1 D4070000 		.4byte	.LVL868
 16603 18f5 E4070000 		.4byte	.LVL870
 16604 18f9 0100     		.2byte	0x1
 16605 18fb 54       		.byte	0x54
 16606 18fc 04080000 		.4byte	.LVL872
 16607 1900 14080000 		.4byte	.LVL874
 16608 1904 0100     		.2byte	0x1
 16609 1906 54       		.byte	0x54
 16610 1907 34080000 		.4byte	.LVL876
 16611 190b 7C080000 		.4byte	.LFE117
 16612 190f 0100     		.2byte	0x1
 16613 1911 54       		.byte	0x54
 16614 1912 00000000 		.4byte	0
 16615 1916 00000000 		.4byte	0
 16616              	.LLST164:
 16617 191a E2000000 		.4byte	.LVL693
 16618 191e E5000000 		.4byte	.LVL694-1
 16619 1922 0100     		.2byte	0x1
 16620 1924 50       		.byte	0x50
 16621 1925 00000000 		.4byte	0
 16622 1929 00000000 		.4byte	0
 16623              	.LLST165:
 16624 192d 58010000 		.4byte	.LVL705
 16625 1931 5D010000 		.4byte	.LVL706-1
 16626 1935 0100     		.2byte	0x1
 16627 1937 50       		.byte	0x50
 16628 1938 00000000 		.4byte	0
 16629 193c 00000000 		.4byte	0
 16630              	.LLST166:
 16631 1940 80010000 		.4byte	.LVL709
 16632 1944 85010000 		.4byte	.LVL710-1
 16633 1948 0100     		.2byte	0x1
 16634 194a 50       		.byte	0x50
 16635 194b 00000000 		.4byte	0
 16636 194f 00000000 		.4byte	0
 16637              	.LLST167:
 16638 1953 A8010000 		.4byte	.LVL713
 16639 1957 AD010000 		.4byte	.LVL714-1
 16640 195b 0100     		.2byte	0x1
 16641 195d 50       		.byte	0x50
 16642 195e 00000000 		.4byte	0
 16643 1962 00000000 		.4byte	0
 16644              	.LLST168:
 16645 1966 D0010000 		.4byte	.LVL717
 16646 196a D5010000 		.4byte	.LVL718-1
 16647 196e 0100     		.2byte	0x1
 16648 1970 50       		.byte	0x50
 16649 1971 00000000 		.4byte	0
 16650 1975 00000000 		.4byte	0
 16651              	.LLST169:
 16652 1979 EC010000 		.4byte	.LVL720
 16653 197d F9010000 		.4byte	.LVL721-1
 16654 1981 0100     		.2byte	0x1
 16655 1983 50       		.byte	0x50
 16656 1984 00000000 		.4byte	0
 16657 1988 00000000 		.4byte	0
 16658              	.LLST170:
ARM GAS  C:\Users\FRANKL~1\AppData\Local\Temp\ccCAoJJX.s 			page 332


 16659 198c 16020000 		.4byte	.LVL724
 16660 1990 23020000 		.4byte	.LVL725-1
 16661 1994 0100     		.2byte	0x1
 16662 1996 50       		.byte	0x50
 16663 1997 00000000 		.4byte	0
 16664 199b 00000000 		.4byte	0
 16665              	.LLST171:
 16666 199f 52020000 		.4byte	.LVL731
 16667 19a3 55020000 		.4byte	.LVL732-1
 16668 19a7 0100     		.2byte	0x1
 16669 19a9 50       		.byte	0x50
 16670 19aa 55020000 		.4byte	.LVL732-1
 16671 19ae 6E020000 		.4byte	.LVL736
 16672 19b2 0100     		.2byte	0x1
 16673 19b4 54       		.byte	0x54
 16674 19b5 00000000 		.4byte	0
 16675 19b9 00000000 		.4byte	0
 16676              	.LLST172:
 16677 19bd 94020000 		.4byte	.LVL741
 16678 19c1 97020000 		.4byte	.LVL742-1
 16679 19c5 0100     		.2byte	0x1
 16680 19c7 50       		.byte	0x50
 16681 19c8 97020000 		.4byte	.LVL742-1
 16682 19cc B0020000 		.4byte	.LVL746
 16683 19d0 0100     		.2byte	0x1
 16684 19d2 54       		.byte	0x54
 16685 19d3 00000000 		.4byte	0
 16686 19d7 00000000 		.4byte	0
 16687              	.LLST173:
 16688 19db 30030000 		.4byte	.LVL758
 16689 19df E4030000 		.4byte	.LVL763
 16690 19e3 0100     		.2byte	0x1
 16691 19e5 56       		.byte	0x56
 16692 19e6 00000000 		.4byte	0
 16693 19ea 00000000 		.4byte	0
 16694              	.LLST174:
 16695 19ee 3A030000 		.4byte	.LVL759
 16696 19f2 42030000 		.4byte	.LVL760
 16697 19f6 0100     		.2byte	0x1
 16698 19f8 50       		.byte	0x50
 16699 19f9 42030000 		.4byte	.LVL760
 16700 19fd 45030000 		.4byte	.LVL761-1
 16701 1a01 0100     		.2byte	0x1
 16702 1a03 51       		.byte	0x51
 16703 1a04 00000000 		.4byte	0
 16704 1a08 00000000 		.4byte	0
 16705              	.LLST175:
 16706 1a0c 2A040000 		.4byte	.LVL769
 16707 1a10 62040000 		.4byte	.LVL774
 16708 1a14 0100     		.2byte	0x1
 16709 1a16 56       		.byte	0x56
 16710 1a17 00000000 		.4byte	0
 16711 1a1b 00000000 		.4byte	0
 16712              	.LLST176:
 16713 1a1f 34040000 		.4byte	.LVL770
 16714 1a23 3C040000 		.4byte	.LVL771
 16715 1a27 0100     		.2byte	0x1
ARM GAS  C:\Users\FRANKL~1\AppData\Local\Temp\ccCAoJJX.s 			page 333


 16716 1a29 50       		.byte	0x50
 16717 1a2a 3C040000 		.4byte	.LVL771
 16718 1a2e 3F040000 		.4byte	.LVL772-1
 16719 1a32 0100     		.2byte	0x1
 16720 1a34 51       		.byte	0x51
 16721 1a35 00000000 		.4byte	0
 16722 1a39 00000000 		.4byte	0
 16723              	.LLST177:
 16724 1a3d AA040000 		.4byte	.LVL780
 16725 1a41 C2040000 		.4byte	.LVL784
 16726 1a45 0100     		.2byte	0x1
 16727 1a47 55       		.byte	0x55
 16728 1a48 00000000 		.4byte	0
 16729 1a4c 00000000 		.4byte	0
 16730              	.LLST178:
 16731 1a50 B4040000 		.4byte	.LVL781
 16732 1a54 BC040000 		.4byte	.LVL782
 16733 1a58 0100     		.2byte	0x1
 16734 1a5a 50       		.byte	0x50
 16735 1a5b BC040000 		.4byte	.LVL782
 16736 1a5f BF040000 		.4byte	.LVL783-1
 16737 1a63 0100     		.2byte	0x1
 16738 1a65 51       		.byte	0x51
 16739 1a66 00000000 		.4byte	0
 16740 1a6a 00000000 		.4byte	0
 16741              	.LLST179:
 16742 1a6e 0A050000 		.4byte	.LVL791
 16743 1a72 30050000 		.4byte	.LVL797
 16744 1a76 0100     		.2byte	0x1
 16745 1a78 55       		.byte	0x55
 16746 1a79 00000000 		.4byte	0
 16747 1a7d 00000000 		.4byte	0
 16748              	.LLST180:
 16749 1a81 16050000 		.4byte	.LVL793
 16750 1a85 30050000 		.4byte	.LVL797
 16751 1a89 0100     		.2byte	0x1
 16752 1a8b 54       		.byte	0x54
 16753 1a8c 00000000 		.4byte	0
 16754 1a90 00000000 		.4byte	0
 16755              	.LLST181:
 16756 1a94 54050000 		.4byte	.LVL802
 16757 1a98 7A050000 		.4byte	.LVL808
 16758 1a9c 0100     		.2byte	0x1
 16759 1a9e 55       		.byte	0x55
 16760 1a9f 00000000 		.4byte	0
 16761 1aa3 00000000 		.4byte	0
 16762              	.LLST182:
 16763 1aa7 60050000 		.4byte	.LVL804
 16764 1aab 7A050000 		.4byte	.LVL808
 16765 1aaf 0100     		.2byte	0x1
 16766 1ab1 54       		.byte	0x54
 16767 1ab2 00000000 		.4byte	0
 16768 1ab6 00000000 		.4byte	0
 16769              	.LLST183:
 16770 1aba 9E050000 		.4byte	.LVL813
 16771 1abe C4050000 		.4byte	.LVL819
 16772 1ac2 0100     		.2byte	0x1
ARM GAS  C:\Users\FRANKL~1\AppData\Local\Temp\ccCAoJJX.s 			page 334


 16773 1ac4 55       		.byte	0x55
 16774 1ac5 00000000 		.4byte	0
 16775 1ac9 00000000 		.4byte	0
 16776              	.LLST184:
 16777 1acd AA050000 		.4byte	.LVL815
 16778 1ad1 C4050000 		.4byte	.LVL819
 16779 1ad5 0100     		.2byte	0x1
 16780 1ad7 54       		.byte	0x54
 16781 1ad8 00000000 		.4byte	0
 16782 1adc 00000000 		.4byte	0
 16783              	.LLST185:
 16784 1ae0 E6050000 		.4byte	.LVL823
 16785 1ae4 FC050000 		.4byte	.LVL827
 16786 1ae8 0100     		.2byte	0x1
 16787 1aea 54       		.byte	0x54
 16788 1aeb 00000000 		.4byte	0
 16789 1aef 00000000 		.4byte	0
 16790              	.LLST186:
 16791 1af3 4E060000 		.4byte	.LVL836
 16792 1af7 64060000 		.4byte	.LVL840
 16793 1afb 0100     		.2byte	0x1
 16794 1afd 54       		.byte	0x54
 16795 1afe 00000000 		.4byte	0
 16796 1b02 00000000 		.4byte	0
 16797              	.LLST187:
 16798 1b06 86060000 		.4byte	.LVL844
 16799 1b0a 9C060000 		.4byte	.LVL848
 16800 1b0e 0100     		.2byte	0x1
 16801 1b10 54       		.byte	0x54
 16802 1b11 00000000 		.4byte	0
 16803 1b15 00000000 		.4byte	0
 16804              	.LLST188:
 16805 1b19 44070000 		.4byte	.LVL856
 16806 1b1d 50070000 		.4byte	.LVL858
 16807 1b21 0100     		.2byte	0x1
 16808 1b23 50       		.byte	0x50
 16809 1b24 00000000 		.4byte	0
 16810 1b28 00000000 		.4byte	0
 16811              		.section	.debug_aranges,"",%progbits
 16812 0000 C4010000 		.4byte	0x1c4
 16813 0004 0200     		.2byte	0x2
 16814 0006 00000000 		.4byte	.Ldebug_info0
 16815 000a 04       		.byte	0x4
 16816 000b 00       		.byte	0
 16817 000c 0000     		.2byte	0
 16818 000e 0000     		.2byte	0
 16819 0010 00000000 		.4byte	.LFB64
 16820 0014 18000000 		.4byte	.LFE64-.LFB64
 16821 0018 00000000 		.4byte	.LFB65
 16822 001c 1E000000 		.4byte	.LFE65-.LFB65
 16823 0020 00000000 		.4byte	.LFB116
 16824 0024 B0010000 		.4byte	.LFE116-.LFB116
 16825 0028 00000000 		.4byte	.LFB66
 16826 002c 50000000 		.4byte	.LFE66-.LFB66
 16827 0030 00000000 		.4byte	.LFB67
 16828 0034 24000000 		.4byte	.LFE67-.LFB67
 16829 0038 00000000 		.4byte	.LFB68
ARM GAS  C:\Users\FRANKL~1\AppData\Local\Temp\ccCAoJJX.s 			page 335


 16830 003c 16000000 		.4byte	.LFE68-.LFB68
 16831 0040 00000000 		.4byte	.LFB69
 16832 0044 58000000 		.4byte	.LFE69-.LFB69
 16833 0048 00000000 		.4byte	.LFB70
 16834 004c 30000000 		.4byte	.LFE70-.LFB70
 16835 0050 00000000 		.4byte	.LFB71
 16836 0054 32000000 		.4byte	.LFE71-.LFB71
 16837 0058 00000000 		.4byte	.LFB72
 16838 005c 28010000 		.4byte	.LFE72-.LFB72
 16839 0060 00000000 		.4byte	.LFB73
 16840 0064 3C000000 		.4byte	.LFE73-.LFB73
 16841 0068 00000000 		.4byte	.LFB74
 16842 006c 2C000000 		.4byte	.LFE74-.LFB74
 16843 0070 00000000 		.4byte	.LFB75
 16844 0074 32000000 		.4byte	.LFE75-.LFB75
 16845 0078 00000000 		.4byte	.LFB76
 16846 007c 40000000 		.4byte	.LFE76-.LFB76
 16847 0080 00000000 		.4byte	.LFB77
 16848 0084 40000000 		.4byte	.LFE77-.LFB77
 16849 0088 00000000 		.4byte	.LFB78
 16850 008c 34000000 		.4byte	.LFE78-.LFB78
 16851 0090 00000000 		.4byte	.LFB79
 16852 0094 2C000000 		.4byte	.LFE79-.LFB79
 16853 0098 00000000 		.4byte	.LFB80
 16854 009c 38000000 		.4byte	.LFE80-.LFB80
 16855 00a0 00000000 		.4byte	.LFB81
 16856 00a4 16000000 		.4byte	.LFE81-.LFB81
 16857 00a8 00000000 		.4byte	.LFB82
 16858 00ac 1C000000 		.4byte	.LFE82-.LFB82
 16859 00b0 00000000 		.4byte	.LFB83
 16860 00b4 18000000 		.4byte	.LFE83-.LFB83
 16861 00b8 00000000 		.4byte	.LFB84
 16862 00bc 14000000 		.4byte	.LFE84-.LFB84
 16863 00c0 00000000 		.4byte	.LFB85
 16864 00c4 32000000 		.4byte	.LFE85-.LFB85
 16865 00c8 00000000 		.4byte	.LFB86
 16866 00cc 32000000 		.4byte	.LFE86-.LFB86
 16867 00d0 00000000 		.4byte	.LFB87
 16868 00d4 F4000000 		.4byte	.LFE87-.LFB87
 16869 00d8 00000000 		.4byte	.LFB88
 16870 00dc 54000000 		.4byte	.LFE88-.LFB88
 16871 00e0 00000000 		.4byte	.LFB89
 16872 00e4 B6000000 		.4byte	.LFE89-.LFB89
 16873 00e8 00000000 		.4byte	.LFB90
 16874 00ec B6000000 		.4byte	.LFE90-.LFB90
 16875 00f0 00000000 		.4byte	.LFB91
 16876 00f4 90010000 		.4byte	.LFE91-.LFB91
 16877 00f8 00000000 		.4byte	.LFB92
 16878 00fc 5C000000 		.4byte	.LFE92-.LFB92
 16879 0100 00000000 		.4byte	.LFB93
 16880 0104 68000000 		.4byte	.LFE93-.LFB93
 16881 0108 00000000 		.4byte	.LFB94
 16882 010c 30000000 		.4byte	.LFE94-.LFB94
 16883 0110 00000000 		.4byte	.LFB95
 16884 0114 48000000 		.4byte	.LFE95-.LFB95
 16885 0118 00000000 		.4byte	.LFB96
 16886 011c 48000000 		.4byte	.LFE96-.LFB96
ARM GAS  C:\Users\FRANKL~1\AppData\Local\Temp\ccCAoJJX.s 			page 336


 16887 0120 00000000 		.4byte	.LFB97
 16888 0124 78000000 		.4byte	.LFE97-.LFB97
 16889 0128 00000000 		.4byte	.LFB98
 16890 012c 78000000 		.4byte	.LFE98-.LFB98
 16891 0130 00000000 		.4byte	.LFB99
 16892 0134 C0000000 		.4byte	.LFE99-.LFB99
 16893 0138 00000000 		.4byte	.LFB100
 16894 013c C8000000 		.4byte	.LFE100-.LFB100
 16895 0140 00000000 		.4byte	.LFB101
 16896 0144 C8000000 		.4byte	.LFE101-.LFB101
 16897 0148 00000000 		.4byte	.LFB102
 16898 014c 38000000 		.4byte	.LFE102-.LFB102
 16899 0150 00000000 		.4byte	.LFB103
 16900 0154 38000000 		.4byte	.LFE103-.LFB103
 16901 0158 00000000 		.4byte	.LFB104
 16902 015c 14000000 		.4byte	.LFE104-.LFB104
 16903 0160 00000000 		.4byte	.LFB105
 16904 0164 14000000 		.4byte	.LFE105-.LFB105
 16905 0168 00000000 		.4byte	.LFB106
 16906 016c 1C000000 		.4byte	.LFE106-.LFB106
 16907 0170 00000000 		.4byte	.LFB107
 16908 0174 A8000000 		.4byte	.LFE107-.LFB107
 16909 0178 00000000 		.4byte	.LFB108
 16910 017c 70000000 		.4byte	.LFE108-.LFB108
 16911 0180 00000000 		.4byte	.LFB109
 16912 0184 1A000000 		.4byte	.LFE109-.LFB109
 16913 0188 00000000 		.4byte	.LFB110
 16914 018c 2C000000 		.4byte	.LFE110-.LFB110
 16915 0190 00000000 		.4byte	.LFB111
 16916 0194 AC000000 		.4byte	.LFE111-.LFB111
 16917 0198 00000000 		.4byte	.LFB112
 16918 019c 84000000 		.4byte	.LFE112-.LFB112
 16919 01a0 00000000 		.4byte	.LFB113
 16920 01a4 98000000 		.4byte	.LFE113-.LFB113
 16921 01a8 00000000 		.4byte	.LFB114
 16922 01ac 7C000000 		.4byte	.LFE114-.LFB114
 16923 01b0 00000000 		.4byte	.LFB115
 16924 01b4 8C000000 		.4byte	.LFE115-.LFB115
 16925 01b8 00000000 		.4byte	.LFB117
 16926 01bc 7C080000 		.4byte	.LFE117-.LFB117
 16927 01c0 00000000 		.4byte	0
 16928 01c4 00000000 		.4byte	0
 16929              		.section	.debug_ranges,"",%progbits
 16930              	.Ldebug_ranges0:
 16931 0000 08000000 		.4byte	.LBB6
 16932 0004 16000000 		.4byte	.LBE6
 16933 0008 1E000000 		.4byte	.LBB7
 16934 000c 22000000 		.4byte	.LBE7
 16935 0010 00000000 		.4byte	0
 16936 0014 00000000 		.4byte	0
 16937 0018 06000000 		.4byte	.LBB17
 16938 001c 1A000000 		.4byte	.LBE17
 16939 0020 1C000000 		.4byte	.LBB18
 16940 0024 20000000 		.4byte	.LBE18
 16941 0028 00000000 		.4byte	0
 16942 002c 00000000 		.4byte	0
 16943 0030 28000000 		.4byte	.LBB23
ARM GAS  C:\Users\FRANKL~1\AppData\Local\Temp\ccCAoJJX.s 			page 337


 16944 0034 2A000000 		.4byte	.LBE23
 16945 0038 30000000 		.4byte	.LBB28
 16946 003c DE000000 		.4byte	.LBE28
 16947 0040 00000000 		.4byte	0
 16948 0044 00000000 		.4byte	0
 16949 0048 32000000 		.4byte	.LBB24
 16950 004c 52000000 		.4byte	.LBE24
 16951 0050 56000000 		.4byte	.LBB27
 16952 0054 D8000000 		.4byte	.LBE27
 16953 0058 00000000 		.4byte	0
 16954 005c 00000000 		.4byte	0
 16955 0060 32000000 		.4byte	.LBB25
 16956 0064 52000000 		.4byte	.LBE25
 16957 0068 56000000 		.4byte	.LBB26
 16958 006c 5A000000 		.4byte	.LBE26
 16959 0070 00000000 		.4byte	0
 16960 0074 00000000 		.4byte	0
 16961 0078 0C000000 		.4byte	.LBB29
 16962 007c 0E000000 		.4byte	.LBE29
 16963 0080 14000000 		.4byte	.LBB31
 16964 0084 A6000000 		.4byte	.LBE31
 16965 0088 00000000 		.4byte	0
 16966 008c 00000000 		.4byte	0
 16967 0090 0C000000 		.4byte	.LBB32
 16968 0094 0E000000 		.4byte	.LBE32
 16969 0098 14000000 		.4byte	.LBB34
 16970 009c A6000000 		.4byte	.LBE34
 16971 00a0 00000000 		.4byte	0
 16972 00a4 00000000 		.4byte	0
 16973 00a8 5C000000 		.4byte	.LBB35
 16974 00ac 22010000 		.4byte	.LBE35
 16975 00b0 2A010000 		.4byte	.LBB36
 16976 00b4 30010000 		.4byte	.LBE36
 16977 00b8 00000000 		.4byte	0
 16978 00bc 00000000 		.4byte	0
 16979 00c0 2E000000 		.4byte	.LBB40
 16980 00c4 40000000 		.4byte	.LBE40
 16981 00c8 42000000 		.4byte	.LBB41
 16982 00cc 46000000 		.4byte	.LBE41
 16983 00d0 00000000 		.4byte	0
 16984 00d4 00000000 		.4byte	0
 16985 00d8 2E000000 		.4byte	.LBB43
 16986 00dc 40000000 		.4byte	.LBE43
 16987 00e0 42000000 		.4byte	.LBB44
 16988 00e4 46000000 		.4byte	.LBE44
 16989 00e8 00000000 		.4byte	0
 16990 00ec 00000000 		.4byte	0
 16991 00f0 1A000000 		.4byte	.LBB50
 16992 00f4 20000000 		.4byte	.LBE50
 16993 00f8 28000000 		.4byte	.LBB57
 16994 00fc A0000000 		.4byte	.LBE57
 16995 0100 00000000 		.4byte	0
 16996 0104 00000000 		.4byte	0
 16997 0108 1A000000 		.4byte	.LBB51
 16998 010c 20000000 		.4byte	.LBE51
 16999 0110 28000000 		.4byte	.LBB56
 17000 0114 94000000 		.4byte	.LBE56
ARM GAS  C:\Users\FRANKL~1\AppData\Local\Temp\ccCAoJJX.s 			page 338


 17001 0118 00000000 		.4byte	0
 17002 011c 00000000 		.4byte	0
 17003 0120 1A000000 		.4byte	.LBB52
 17004 0124 20000000 		.4byte	.LBE52
 17005 0128 4E000000 		.4byte	.LBB55
 17006 012c 94000000 		.4byte	.LBE55
 17007 0130 00000000 		.4byte	0
 17008 0134 00000000 		.4byte	0
 17009 0138 50000000 		.4byte	.LBB53
 17010 013c 86000000 		.4byte	.LBE53
 17011 0140 88000000 		.4byte	.LBB54
 17012 0144 8C000000 		.4byte	.LBE54
 17013 0148 00000000 		.4byte	0
 17014 014c 00000000 		.4byte	0
 17015 0150 2A000000 		.4byte	.LBB61
 17016 0154 60000000 		.4byte	.LBE61
 17017 0158 62000000 		.4byte	.LBB62
 17018 015c 66000000 		.4byte	.LBE62
 17019 0160 00000000 		.4byte	0
 17020 0164 00000000 		.4byte	0
 17021 0168 00000000 		.4byte	.LFB64
 17022 016c 18000000 		.4byte	.LFE64
 17023 0170 00000000 		.4byte	.LFB65
 17024 0174 1E000000 		.4byte	.LFE65
 17025 0178 00000000 		.4byte	.LFB116
 17026 017c B0010000 		.4byte	.LFE116
 17027 0180 00000000 		.4byte	.LFB66
 17028 0184 50000000 		.4byte	.LFE66
 17029 0188 00000000 		.4byte	.LFB67
 17030 018c 24000000 		.4byte	.LFE67
 17031 0190 00000000 		.4byte	.LFB68
 17032 0194 16000000 		.4byte	.LFE68
 17033 0198 00000000 		.4byte	.LFB69
 17034 019c 58000000 		.4byte	.LFE69
 17035 01a0 00000000 		.4byte	.LFB70
 17036 01a4 30000000 		.4byte	.LFE70
 17037 01a8 00000000 		.4byte	.LFB71
 17038 01ac 32000000 		.4byte	.LFE71
 17039 01b0 00000000 		.4byte	.LFB72
 17040 01b4 28010000 		.4byte	.LFE72
 17041 01b8 00000000 		.4byte	.LFB73
 17042 01bc 3C000000 		.4byte	.LFE73
 17043 01c0 00000000 		.4byte	.LFB74
 17044 01c4 2C000000 		.4byte	.LFE74
 17045 01c8 00000000 		.4byte	.LFB75
 17046 01cc 32000000 		.4byte	.LFE75
 17047 01d0 00000000 		.4byte	.LFB76
 17048 01d4 40000000 		.4byte	.LFE76
 17049 01d8 00000000 		.4byte	.LFB77
 17050 01dc 40000000 		.4byte	.LFE77
 17051 01e0 00000000 		.4byte	.LFB78
 17052 01e4 34000000 		.4byte	.LFE78
 17053 01e8 00000000 		.4byte	.LFB79
 17054 01ec 2C000000 		.4byte	.LFE79
 17055 01f0 00000000 		.4byte	.LFB80
 17056 01f4 38000000 		.4byte	.LFE80
 17057 01f8 00000000 		.4byte	.LFB81
ARM GAS  C:\Users\FRANKL~1\AppData\Local\Temp\ccCAoJJX.s 			page 339


 17058 01fc 16000000 		.4byte	.LFE81
 17059 0200 00000000 		.4byte	.LFB82
 17060 0204 1C000000 		.4byte	.LFE82
 17061 0208 00000000 		.4byte	.LFB83
 17062 020c 18000000 		.4byte	.LFE83
 17063 0210 00000000 		.4byte	.LFB84
 17064 0214 14000000 		.4byte	.LFE84
 17065 0218 00000000 		.4byte	.LFB85
 17066 021c 32000000 		.4byte	.LFE85
 17067 0220 00000000 		.4byte	.LFB86
 17068 0224 32000000 		.4byte	.LFE86
 17069 0228 00000000 		.4byte	.LFB87
 17070 022c F4000000 		.4byte	.LFE87
 17071 0230 00000000 		.4byte	.LFB88
 17072 0234 54000000 		.4byte	.LFE88
 17073 0238 00000000 		.4byte	.LFB89
 17074 023c B6000000 		.4byte	.LFE89
 17075 0240 00000000 		.4byte	.LFB90
 17076 0244 B6000000 		.4byte	.LFE90
 17077 0248 00000000 		.4byte	.LFB91
 17078 024c 90010000 		.4byte	.LFE91
 17079 0250 00000000 		.4byte	.LFB92
 17080 0254 5C000000 		.4byte	.LFE92
 17081 0258 00000000 		.4byte	.LFB93
 17082 025c 68000000 		.4byte	.LFE93
 17083 0260 00000000 		.4byte	.LFB94
 17084 0264 30000000 		.4byte	.LFE94
 17085 0268 00000000 		.4byte	.LFB95
 17086 026c 48000000 		.4byte	.LFE95
 17087 0270 00000000 		.4byte	.LFB96
 17088 0274 48000000 		.4byte	.LFE96
 17089 0278 00000000 		.4byte	.LFB97
 17090 027c 78000000 		.4byte	.LFE97
 17091 0280 00000000 		.4byte	.LFB98
 17092 0284 78000000 		.4byte	.LFE98
 17093 0288 00000000 		.4byte	.LFB99
 17094 028c C0000000 		.4byte	.LFE99
 17095 0290 00000000 		.4byte	.LFB100
 17096 0294 C8000000 		.4byte	.LFE100
 17097 0298 00000000 		.4byte	.LFB101
 17098 029c C8000000 		.4byte	.LFE101
 17099 02a0 00000000 		.4byte	.LFB102
 17100 02a4 38000000 		.4byte	.LFE102
 17101 02a8 00000000 		.4byte	.LFB103
 17102 02ac 38000000 		.4byte	.LFE103
 17103 02b0 00000000 		.4byte	.LFB104
 17104 02b4 14000000 		.4byte	.LFE104
 17105 02b8 00000000 		.4byte	.LFB105
 17106 02bc 14000000 		.4byte	.LFE105
 17107 02c0 00000000 		.4byte	.LFB106
 17108 02c4 1C000000 		.4byte	.LFE106
 17109 02c8 00000000 		.4byte	.LFB107
 17110 02cc A8000000 		.4byte	.LFE107
 17111 02d0 00000000 		.4byte	.LFB108
 17112 02d4 70000000 		.4byte	.LFE108
 17113 02d8 00000000 		.4byte	.LFB109
 17114 02dc 1A000000 		.4byte	.LFE109
ARM GAS  C:\Users\FRANKL~1\AppData\Local\Temp\ccCAoJJX.s 			page 340


 17115 02e0 00000000 		.4byte	.LFB110
 17116 02e4 2C000000 		.4byte	.LFE110
 17117 02e8 00000000 		.4byte	.LFB111
 17118 02ec AC000000 		.4byte	.LFE111
 17119 02f0 00000000 		.4byte	.LFB112
 17120 02f4 84000000 		.4byte	.LFE112
 17121 02f8 00000000 		.4byte	.LFB113
 17122 02fc 98000000 		.4byte	.LFE113
 17123 0300 00000000 		.4byte	.LFB114
 17124 0304 7C000000 		.4byte	.LFE114
 17125 0308 00000000 		.4byte	.LFB115
 17126 030c 8C000000 		.4byte	.LFE115
 17127 0310 00000000 		.4byte	.LFB117
 17128 0314 7C080000 		.4byte	.LFE117
 17129 0318 00000000 		.4byte	0
 17130 031c 00000000 		.4byte	0
 17131              		.section	.debug_line,"",%progbits
 17132              	.Ldebug_line0:
 17133 0000 960E0000 		.section	.debug_str,"MS",%progbits,1
 17133      0200ED02 
 17133      00000201 
 17133      FB0E0D00 
 17133      01010101 
 17134              	.LASF59:
 17135 0000 696E7465 		.ascii	"intermediate\000"
 17135      726D6564 
 17135      69617465 
 17135      00
 17136              	.LASF11:
 17137 000d 73697A65 		.ascii	"sizetype\000"
 17137      74797065 
 17137      00
 17138              	.LASF125:
 17139 0016 6162736F 		.ascii	"absolute\000"
 17139      6C757465 
 17139      00
 17140              	.LASF69:
 17141 001f 5449415F 		.ascii	"TIA_Set_Resistor\000"
 17141      5365745F 
 17141      52657369 
 17141      73746F72 
 17141      00
 17142              	.LASF88:
 17143 0030 4144435F 		.ascii	"ADC_Adjust_Range\000"
 17143      41646A75 
 17143      73745F52 
 17143      616E6765 
 17143      00
 17144              	.LASF227:
 17145 0041 4144435F 		.ascii	"ADC_DelSig_1_StartConvert\000"
 17145      44656C53 
 17145      69675F31 
 17145      5F537461 
 17145      7274436F 
 17146              	.LASF38:
 17147 005b 74726965 		.ascii	"tries\000"
 17147      7300
ARM GAS  C:\Users\FRANKL~1\AppData\Local\Temp\ccCAoJJX.s 			page 341


 17148              	.LASF14:
 17149 0061 696E7433 		.ascii	"int32_t\000"
 17149      325F7400 
 17150              	.LASF253:
 17151 0069 4F70616D 		.ascii	"Opamp_1_Start\000"
 17151      705F315F 
 17151      53746172 
 17151      7400
 17152              	.LASF262:
 17153 0077 5449415F 		.ascii	"TIA_resistor\000"
 17153      72657369 
 17153      73746F72 
 17153      00
 17154              	.LASF114:
 17155 0084 4765745F 		.ascii	"Get_Ref\000"
 17155      52656600 
 17156              	.LASF17:
 17157 008c 75696E74 		.ascii	"uint32\000"
 17157      333200
 17158              	.LASF25:
 17159 0093 77726974 		.ascii	"write\000"
 17159      6500
 17160              	.LASF109:
 17161 0099 63757272 		.ascii	"currentSD\000"
 17161      656E7453 
 17161      4400
 17162              	.LASF67:
 17163 00a3 436F6E6E 		.ascii	"Connect_Intermediate\000"
 17163      6563745F 
 17163      496E7465 
 17163      726D6564 
 17163      69617465 
 17164              	.LASF90:
 17165 00b8 4144435F 		.ascii	"ADC_Voltage_SD\000"
 17165      566F6C74 
 17165      6167655F 
 17165      534400
 17166              	.LASF152:
 17167 00c7 64697265 		.ascii	"direction\000"
 17167      6374696F 
 17167      6E00
 17168              	.LASF124:
 17169 00d1 5365745F 		.ascii	"Set_Vds_Rel\000"
 17169      5664735F 
 17169      52656C00 
 17170              	.LASF149:
 17171 00dd 56677369 		.ascii	"Vgsi\000"
 17171      00
 17172              	.LASF79:
 17173 00e2 61766572 		.ascii	"average\000"
 17173      61676500 
 17174              	.LASF44:
 17175 00ea 55534255 		.ascii	"USBUARTH_Send\000"
 17175      41525448 
 17175      5F53656E 
 17175      6400
 17176              	.LASF196:
ARM GAS  C:\Users\FRANKL~1\AppData\Local\Temp\ccCAoJJX.s 			page 342


 17177 00f8 5449415F 		.ascii	"TIA_Resistor_Values\000"
 17177      52657369 
 17177      73746F72 
 17177      5F56616C 
 17177      75657300 
 17178              	.LASF222:
 17179 010c 4932435F 		.ascii	"I2C_1_Start\000"
 17179      315F5374 
 17179      61727400 
 17180              	.LASF192:
 17181 0118 55534255 		.ascii	"USBUART_Receive_Buffer\000"
 17181      4152545F 
 17181      52656365 
 17181      6976655F 
 17181      42756666 
 17182              	.LASF188:
 17183 012f 475F4272 		.ascii	"G_Break\000"
 17183      65616B00 
 17184              	.LASF165:
 17185 0137 67617465 		.ascii	"gateIndex\000"
 17185      496E6465 
 17185      7800
 17186              	.LASF120:
 17187 0141 5365745F 		.ascii	"Set_Vgs_Raw\000"
 17187      5667735F 
 17187      52617700 
 17188              	.LASF104:
 17189 014d 5449415F 		.ascii	"TIA_Feedback_R\000"
 17189      46656564 
 17189      6261636B 
 17189      5F5200
 17190              	.LASF18:
 17191 015c 696E7438 		.ascii	"int8\000"
 17191      00
 17192              	.LASF201:
 17193 0161 43757272 		.ascii	"Current_Measurement_Sample_Count\000"
 17193      656E745F 
 17193      4D656173 
 17193      7572656D 
 17193      656E745F 
 17194              	.LASF221:
 17195 0182 4932435F 		.ascii	"I2C_1_Stop\000"
 17195      315F5374 
 17195      6F7000
 17196              	.LASF94:
 17197 018d 53415231 		.ascii	"SAR1_Result_Current\000"
 17197      5F526573 
 17197      756C745F 
 17197      43757272 
 17197      656E7400 
 17198              	.LASF65:
 17199 01a1 44697363 		.ascii	"Disconnect_All_Contacts_From_All_Intermediates\000"
 17199      6F6E6E65 
 17199      63745F41 
 17199      6C6C5F43 
 17199      6F6E7461 
 17200              	.LASF111:
ARM GAS  C:\Users\FRANKL~1\AppData\Local\Temp\ccCAoJJX.s 			page 343


 17201 01d0 69737461 		.ascii	"istart\000"
 17201      727400
 17202              	.LASF78:
 17203 01d7 4144435F 		.ascii	"ADC_Measure_uV\000"
 17203      4D656173 
 17203      7572655F 
 17203      755600
 17204              	.LASF103:
 17205 01e6 63757272 		.ascii	"currentStdDev\000"
 17205      656E7453 
 17205      74644465 
 17205      7600
 17206              	.LASF136:
 17207 01f4 5365745F 		.ascii	"Set_Vds_mV\000"
 17207      5664735F 
 17207      6D5600
 17208              	.LASF115:
 17209 01ff 72657375 		.ascii	"result\000"
 17209      6C7400
 17210              	.LASF257:
 17211 0206 436F6D6D 		.ascii	"CommunicationInterrupt_StartEx\000"
 17211      756E6963 
 17211      6174696F 
 17211      6E496E74 
 17211      65727275 
 17212              	.LASF8:
 17213 0225 6C6F6E67 		.ascii	"long int\000"
 17213      20696E74 
 17213      00
 17214              	.LASF161:
 17215 022e 72656641 		.ascii	"refArrived\000"
 17215      72726976 
 17215      656400
 17216              	.LASF245:
 17217 0239 55415254 		.ascii	"UART_1_Start\000"
 17217      5F315F53 
 17217      74617274 
 17217      00
 17218              	.LASF97:
 17219 0246 4D656173 		.ascii	"Measure_Current_Vss\000"
 17219      7572655F 
 17219      43757272 
 17219      656E745F 
 17219      56737300 
 17220              	.LASF264:
 17221 025a 73747263 		.ascii	"strchr\000"
 17221      687200
 17222              	.LASF28:
 17223 0261 5232304B 		.ascii	"R20K\000"
 17223      00
 17224              	.LASF263:
 17225 0266 6D61696E 		.ascii	"main\000"
 17225      00
 17226              	.LASF85:
 17227 026b 6D656469 		.ascii	"medianCount\000"
 17227      616E436F 
 17227      756E7400 
ARM GAS  C:\Users\FRANKL~1\AppData\Local\Temp\ccCAoJJX.s 			page 344


 17228              	.LASF239:
 17229 0277 56444143 		.ascii	"VDAC_Vds_SetValue\000"
 17229      5F566473 
 17229      5F536574 
 17229      56616C75 
 17229      6500
 17230              	.LASF7:
 17231 0289 73686F72 		.ascii	"short unsigned int\000"
 17231      7420756E 
 17231      7369676E 
 17231      65642069 
 17231      6E7400
 17232              	.LASF167:
 17233 029c 5363616E 		.ascii	"Scan\000"
 17233      00
 17234              	.LASF258:
 17235 02a1 474E5520 		.ascii	"GNU C11 5.4.1 20160609 (release) [ARM/embedded-5-br"
 17235      43313120 
 17235      352E342E 
 17235      31203230 
 17235      31363036 
 17236 02d4 616E6368 		.ascii	"anch revision 237715] -mcpu=cortex-m3 -mthumb -g -O"
 17236      20726576 
 17236      6973696F 
 17236      6E203233 
 17236      37373135 
 17237 0307 67202D66 		.ascii	"g -ffunction-sections -ffat-lto-objects\000"
 17237      66756E63 
 17237      74696F6E 
 17237      2D736563 
 17237      74696F6E 
 17238              	.LASF56:
 17239 032f 53657475 		.ascii	"Setup_Selectors\000"
 17239      705F5365 
 17239      6C656374 
 17239      6F727300 
 17240              	.LASF35:
 17241 033f 52313030 		.ascii	"R1000K\000"
 17241      304B00
 17242              	.LASF233:
 17243 0346 4144435F 		.ascii	"ADC_SAR_1_GetResult16\000"
 17243      5341525F 
 17243      315F4765 
 17243      74526573 
 17243      756C7431 
 17244              	.LASF52:
 17245 035c 53657475 		.ascii	"Setup_Selector_I2C_Struct\000"
 17245      705F5365 
 17245      6C656374 
 17245      6F725F49 
 17245      32435F53 
 17246              	.LASF4:
 17247 0376 7369676E 		.ascii	"signed char\000"
 17247      65642063 
 17247      68617200 
 17248              	.LASF261:
 17249 0382 53656C65 		.ascii	"Selector_I2C_Struct\000"
ARM GAS  C:\Users\FRANKL~1\AppData\Local\Temp\ccCAoJJX.s 			page 345


 17249      63746F72 
 17249      5F493243 
 17249      5F537472 
 17249      75637400 
 17250              	.LASF231:
 17251 0396 4144435F 		.ascii	"ADC_SAR_1_StartConvert\000"
 17251      5341525F 
 17251      315F5374 
 17251      61727443 
 17251      6F6E7665 
 17252              	.LASF5:
 17253 03ad 756E7369 		.ascii	"unsigned char\000"
 17253      676E6564 
 17253      20636861 
 17253      7200
 17254              	.LASF113:
 17255 03bb 696E6372 		.ascii	"increment\000"
 17255      656D656E 
 17255      7400
 17256              	.LASF139:
 17257 03c5 63757272 		.ascii	"current_range_resistor\000"
 17257      656E745F 
 17257      72616E67 
 17257      655F7265 
 17257      73697374 
 17258              	.LASF46:
 17259 03dc 55534255 		.ascii	"USBUARTH_GetChar\000"
 17259      41525448 
 17259      5F476574 
 17259      43686172 
 17259      00
 17260              	.LASF181:
 17261 03ed 5667735F 		.ascii	"Vgs_mV\000"
 17261      6D5600
 17262              	.LASF203:
 17263 03f4 5F426F6F 		.ascii	"_Bool\000"
 17263      6C00
 17264              	.LASF131:
 17265 03fa 5365745F 		.ascii	"Set_Vgs_Rel\000"
 17265      5667735F 
 17265      52656C00 
 17266              	.LASF119:
 17267 0406 76616C75 		.ascii	"value\000"
 17267      6500
 17268              	.LASF12:
 17269 040c 63686172 		.ascii	"char\000"
 17269      00
 17270              	.LASF220:
 17271 0411 4932435F 		.ascii	"I2C_1_MasterStatus\000"
 17271      315F4D61 
 17271      73746572 
 17271      53746174 
 17271      757300
 17272              	.LASF123:
 17273 0424 6E65775F 		.ascii	"new_Vds\000"
 17273      56647300 
 17274              	.LASF87:
ARM GAS  C:\Users\FRANKL~1\AppData\Local\Temp\ccCAoJJX.s 			page 346


 17275 042c 4144435F 		.ascii	"ADC_Result_Current\000"
 17275      52657375 
 17275      6C745F43 
 17275      75727265 
 17275      6E7400
 17276              	.LASF144:
 17277 043f 53415232 		.ascii	"SAR2_SampleCount\000"
 17277      5F53616D 
 17277      706C6543 
 17277      6F756E74 
 17277      00
 17278              	.LASF106:
 17279 0450 756E6974 		.ascii	"unitConversion\000"
 17279      436F6E76 
 17279      65727369 
 17279      6F6E00
 17280              	.LASF32:
 17281 045f 52313230 		.ascii	"R120K\000"
 17281      4B00
 17282              	.LASF238:
 17283 0465 4144435F 		.ascii	"ADC_SAR_2_CountsTo_uVolts\000"
 17283      5341525F 
 17283      325F436F 
 17283      756E7473 
 17283      546F5F75 
 17284              	.LASF148:
 17285 047f 4D656173 		.ascii	"Measure_Sweep\000"
 17285      7572655F 
 17285      53776565 
 17285      7000
 17286              	.LASF160:
 17287 048d 72656649 		.ascii	"refIndex\000"
 17287      6E646578 
 17287      00
 17288              	.LASF74:
 17289 0496 61727261 		.ascii	"array\000"
 17289      7900
 17290              	.LASF105:
 17291 049c 5449415F 		.ascii	"TIA_Offset_uV\000"
 17291      4F666673 
 17291      65745F75 
 17291      5600
 17292              	.LASF137:
 17293 04aa 5A65726F 		.ascii	"Zero_All_DACs\000"
 17293      5F416C6C 
 17293      5F444143 
 17293      7300
 17294              	.LASF234:
 17295 04b8 4144435F 		.ascii	"ADC_SAR_1_CountsTo_uVolts\000"
 17295      5341525F 
 17295      315F436F 
 17295      756E7473 
 17295      546F5F75 
 17296              	.LASF42:
 17297 04d2 62756666 		.ascii	"buffer\000"
 17297      657200
 17298              	.LASF98:
ARM GAS  C:\Users\FRANKL~1\AppData\Local\Temp\ccCAoJJX.s 			page 347


 17299 04d9 63757272 		.ascii	"currentAverageIn\000"
 17299      656E7441 
 17299      76657261 
 17299      6765496E 
 17299      00
 17300              	.LASF39:
 17301 04ea 74656D70 		.ascii	"temp_buffer\000"
 17301      5F627566 
 17301      66657200 
 17302              	.LASF29:
 17303 04f6 5233304B 		.ascii	"R30K\000"
 17303      00
 17304              	.LASF230:
 17305 04fb 4144435F 		.ascii	"ADC_DelSig_1_CountsTo_uVolts\000"
 17305      44656C53 
 17305      69675F31 
 17305      5F436F75 
 17305      6E747354 
 17306              	.LASF83:
 17307 0518 4144435F 		.ascii	"ADC_SD\000"
 17307      534400
 17308              	.LASF186:
 17309 051f 6E657744 		.ascii	"newData\000"
 17309      61746100 
 17310              	.LASF122:
 17311 0527 6E65775F 		.ascii	"new_Vgs\000"
 17311      56677300 
 17312              	.LASF31:
 17313 052f 5238304B 		.ascii	"R80K\000"
 17313      00
 17314              	.LASF244:
 17315 0534 55534255 		.ascii	"USBUART_Start\000"
 17315      4152545F 
 17315      53746172 
 17315      7400
 17316              	.LASF92:
 17317 0542 5341525F 		.ascii	"SAR_Result\000"
 17317      52657375 
 17317      6C7400
 17318              	.LASF121:
 17319 054d 5365745F 		.ascii	"Set_Ref_Raw\000"
 17319      5265665F 
 17319      52617700 
 17320              	.LASF48:
 17321 0559 6D61784C 		.ascii	"maxLength\000"
 17321      656E6774 
 17321      6800
 17322              	.LASF254:
 17323 0563 4F70616D 		.ascii	"Opamp_2_Start\000"
 17323      705F325F 
 17323      53746172 
 17323      7400
 17324              	.LASF209:
 17325 0571 55534255 		.ascii	"USBUART_GetAll\000"
 17325      4152545F 
 17325      47657441 
 17325      6C6C00
ARM GAS  C:\Users\FRANKL~1\AppData\Local\Temp\ccCAoJJX.s 			page 348


 17326              	.LASF33:
 17327 0580 52323530 		.ascii	"R250K\000"
 17327      4B00
 17328              	.LASF194:
 17329 0586 5449415F 		.ascii	"TIA_Selected_Resistor\000"
 17329      53656C65 
 17329      63746564 
 17329      5F526573 
 17329      6973746F 
 17330              	.LASF9:
 17331 059c 6C6F6E67 		.ascii	"long unsigned int\000"
 17331      20756E73 
 17331      69676E65 
 17331      6420696E 
 17331      7400
 17332              	.LASF128:
 17333 05ae 5667735F 		.ascii	"Vgs_minRefRaw\000"
 17333      6D696E52 
 17333      65665261 
 17333      7700
 17334              	.LASF133:
 17335 05bc 766F6C74 		.ascii	"voltage\000"
 17335      61676500 
 17336              	.LASF58:
 17337 05c4 6368616E 		.ascii	"channel\000"
 17337      6E656C00 
 17338              	.LASF240:
 17339 05cc 56444143 		.ascii	"VDAC_Vgs_SetValue\000"
 17339      5F566773 
 17339      5F536574 
 17339      56616C75 
 17339      6500
 17340              	.LASF140:
 17341 05de 766F6C74 		.ascii	"voltageSD\000"
 17341      61676553 
 17341      4400
 17342              	.LASF51:
 17343 05e8 73656E64 		.ascii	"sendTransmitBuffer\000"
 17343      5472616E 
 17343      736D6974 
 17343      42756666 
 17343      657200
 17344              	.LASF93:
 17345 05fb 5341525F 		.ascii	"SAR_SD\000"
 17345      534400
 17346              	.LASF89:
 17347 0602 4144435F 		.ascii	"ADC_Voltage\000"
 17347      566F6C74 
 17347      61676500 
 17348              	.LASF126:
 17349 060e 5664735F 		.ascii	"Vds_minRefRaw\000"
 17349      6D696E52 
 17349      65665261 
 17349      7700
 17350              	.LASF200:
 17351 061c 5664735F 		.ascii	"Vds_Index_Goal_Relative\000"
 17351      496E6465 
ARM GAS  C:\Users\FRANKL~1\AppData\Local\Temp\ccCAoJJX.s 			page 349


 17351      785F476F 
 17351      616C5F52 
 17351      656C6174 
 17352              	.LASF223:
 17353 0634 73707269 		.ascii	"sprintf\000"
 17353      6E746600 
 17354              	.LASF112:
 17355 063c 6973746F 		.ascii	"istop\000"
 17355      7000
 17356              	.LASF102:
 17357 0642 63757272 		.ascii	"currentAverage\000"
 17357      656E7441 
 17357      76657261 
 17357      676500
 17358              	.LASF150:
 17359 0651 4D656173 		.ascii	"Measure_Gate_Sweep\000"
 17359      7572655F 
 17359      47617465 
 17359      5F537765 
 17359      657000
 17360              	.LASF177:
 17361 0664 6C6F6361 		.ascii	"location\000"
 17361      74696F6E 
 17361      00
 17362              	.LASF72:
 17363 066d 4144435F 		.ascii	"ADC_Decrease_Range\000"
 17363      44656372 
 17363      65617365 
 17363      5F52616E 
 17363      676500
 17364              	.LASF229:
 17365 0680 4144435F 		.ascii	"ADC_DelSig_1_GetResult32\000"
 17365      44656C53 
 17365      69675F31 
 17365      5F476574 
 17365      52657375 
 17366              	.LASF68:
 17367 0699 436F6E6E 		.ascii	"Connect_Intermediates\000"
 17367      6563745F 
 17367      496E7465 
 17367      726D6564 
 17367      69617465 
 17368              	.LASF162:
 17369 06af 67617465 		.ascii	"gateIncrement\000"
 17369      496E6372 
 17369      656D656E 
 17369      7400
 17370              	.LASF2:
 17371 06bd 6C6F6E67 		.ascii	"long long int\000"
 17371      206C6F6E 
 17371      6720696E 
 17371      7400
 17372              	.LASF23:
 17373 06cb 73756241 		.ascii	"subAddress\000"
 17373      64647265 
 17373      737300
 17374              	.LASF21:
ARM GAS  C:\Users\FRANKL~1\AppData\Local\Temp\ccCAoJJX.s 			page 350


 17375 06d6 646F7562 		.ascii	"double\000"
 17375      6C6500
 17376              	.LASF259:
 17377 06dd 6D61696E 		.ascii	"main.c\000"
 17377      2E6300
 17378              	.LASF95:
 17379 06e4 53415232 		.ascii	"SAR2_Measure_V\000"
 17379      5F4D6561 
 17379      73757265 
 17379      5F5600
 17380              	.LASF243:
 17381 06f3 73736361 		.ascii	"sscanf\000"
 17381      6E6600
 17382              	.LASF248:
 17383 06fa 56444143 		.ascii	"VDAC_Ref_Start\000"
 17383      5F526566 
 17383      5F537461 
 17383      727400
 17384              	.LASF36:
 17385 0709 55534255 		.ascii	"USBUARTH_DataIsReady\000"
 17385      41525448 
 17385      5F446174 
 17385      61497352 
 17385      65616479 
 17386              	.LASF49:
 17387 071e 7465726D 		.ascii	"termination\000"
 17387      696E6174 
 17387      696F6E00 
 17388              	.LASF236:
 17389 072a 4144435F 		.ascii	"ADC_SAR_2_IsEndConversion\000"
 17389      5341525F 
 17389      325F4973 
 17389      456E6443 
 17389      6F6E7665 
 17390              	.LASF127:
 17391 0744 5664735F 		.ascii	"Vds_maxRefRaw\000"
 17391      6D617852 
 17391      65665261 
 17391      7700
 17392              	.LASF183:
 17393 0752 49544D5F 		.ascii	"ITM_RxBuffer\000"
 17393      52784275 
 17393      66666572 
 17393      00
 17394              	.LASF55:
 17395 075f 73656C65 		.ascii	"selectori\000"
 17395      63746F72 
 17395      6900
 17396              	.LASF198:
 17397 0769 436F6D70 		.ascii	"Compliance_Reached\000"
 17397      6C69616E 
 17397      63655F52 
 17397      65616368 
 17397      656400
 17398              	.LASF81:
 17399 077c 73616D70 		.ascii	"sampleCount\000"
 17399      6C65436F 
ARM GAS  C:\Users\FRANKL~1\AppData\Local\Temp\ccCAoJJX.s 			page 351


 17399      756E7400 
 17400              	.LASF184:
 17401 0788 73656C65 		.ascii	"selectors\000"
 17401      63746F72 
 17401      7300
 17402              	.LASF43:
 17403 0792 636F756E 		.ascii	"count\000"
 17403      7400
 17404              	.LASF26:
 17405 0798 72656164 		.ascii	"read\000"
 17405      00
 17406              	.LASF110:
 17407 079d 48616E64 		.ascii	"Handle_Compliance_Breach\000"
 17407      6C655F43 
 17407      6F6D706C 
 17407      69616E63 
 17407      655F4272 
 17408              	.LASF251:
 17409 07b6 4144435F 		.ascii	"ADC_SAR_1_Start\000"
 17409      5341525F 
 17409      315F5374 
 17409      61727400 
 17410              	.LASF1:
 17411 07c6 756E7369 		.ascii	"unsigned int\000"
 17411      676E6564 
 17411      20696E74 
 17411      00
 17412              	.LASF155:
 17413 07d3 4D656173 		.ascii	"Measure_Gate_Sweep_New\000"
 17413      7572655F 
 17413      47617465 
 17413      5F537765 
 17413      65705F4E 
 17414              	.LASF232:
 17415 07ea 4144435F 		.ascii	"ADC_SAR_1_IsEndConversion\000"
 17415      5341525F 
 17415      315F4973 
 17415      456E6443 
 17415      6F6E7665 
 17416              	.LASF50:
 17417 0804 55534255 		.ascii	"USBUARTH_Maintain_Configuration\000"
 17417      41525448 
 17417      5F4D6169 
 17417      6E746169 
 17417      6E5F436F 
 17418              	.LASF30:
 17419 0824 5234304B 		.ascii	"R40K\000"
 17419      00
 17420              	.LASF64:
 17421 0829 44697363 		.ascii	"Disconnect_Contact_From_All_Intermediates\000"
 17421      6F6E6E65 
 17421      63745F43 
 17421      6F6E7461 
 17421      63745F46 
 17422              	.LASF178:
 17423 0853 76677369 		.ascii	"vgsi\000"
 17423      00
ARM GAS  C:\Users\FRANKL~1\AppData\Local\Temp\ccCAoJJX.s 			page 352


 17424              	.LASF99:
 17425 0858 63757272 		.ascii	"currentStdDevIn\000"
 17425      656E7453 
 17425      74644465 
 17425      76496E00 
 17426              	.LASF84:
 17427 0868 6D656469 		.ascii	"medianArraySize\000"
 17427      616E4172 
 17427      72617953 
 17427      697A6500 
 17428              	.LASF228:
 17429 0878 4144435F 		.ascii	"ADC_DelSig_1_IsEndConversion\000"
 17429      44656C53 
 17429      69675F31 
 17429      5F497345 
 17429      6E64436F 
 17430              	.LASF256:
 17431 0895 436F6D6D 		.ascii	"CommunicationTimer_Start\000"
 17431      756E6963 
 17431      6174696F 
 17431      6E54696D 
 17431      65725F53 
 17432              	.LASF214:
 17433 08ae 436F6D6D 		.ascii	"CommunicationTimer_ReadStatusRegister\000"
 17433      756E6963 
 17433      6174696F 
 17433      6E54696D 
 17433      65725F52 
 17434              	.LASF101:
 17435 08d4 63757272 		.ascii	"currentNow\000"
 17435      656E744E 
 17435      6F7700
 17436              	.LASF108:
 17437 08df 63757272 		.ascii	"current\000"
 17437      656E7400 
 17438              	.LASF80:
 17439 08e7 7374616E 		.ascii	"standardDeviation\000"
 17439      64617264 
 17439      44657669 
 17439      6174696F 
 17439      6E00
 17440              	.LASF47:
 17441 08f9 55534255 		.ascii	"USBUARTH_Receive_Until\000"
 17441      41525448 
 17441      5F526563 
 17441      65697665 
 17441      5F556E74 
 17442              	.LASF159:
 17443 0910 656E6452 		.ascii	"endRefIndex\000"
 17443      6566496E 
 17443      64657800 
 17444              	.LASF62:
 17445 091c 6F666673 		.ascii	"offset\000"
 17445      657400
 17446              	.LASF250:
 17447 0923 5449415F 		.ascii	"TIA_1_Start\000"
 17447      315F5374 
ARM GAS  C:\Users\FRANKL~1\AppData\Local\Temp\ccCAoJJX.s 			page 353


 17447      61727400 
 17448              	.LASF252:
 17449 092f 4144435F 		.ascii	"ADC_SAR_2_Start\000"
 17449      5341525F 
 17449      325F5374 
 17449      61727400 
 17450              	.LASF66:
 17451 093f 44697363 		.ascii	"Disconnect_All_Contacts_From_Intermediate\000"
 17451      6F6E6E65 
 17451      63745F41 
 17451      6C6C5F43 
 17451      6F6E7461 
 17452              	.LASF237:
 17453 0969 4144435F 		.ascii	"ADC_SAR_2_GetResult16\000"
 17453      5341525F 
 17453      325F4765 
 17453      74526573 
 17453      756C7431 
 17454              	.LASF195:
 17455 097f 5449415F 		.ascii	"TIA_Resistor_Codes\000"
 17455      52657369 
 17455      73746F72 
 17455      5F436F64 
 17455      657300
 17456              	.LASF216:
 17457 0992 55534255 		.ascii	"USBUART_PutData\000"
 17457      4152545F 
 17457      50757444 
 17457      61746100 
 17458              	.LASF180:
 17459 09a2 73756363 		.ascii	"success\000"
 17459      65737300 
 17460              	.LASF163:
 17461 09aa 73746172 		.ascii	"startGateIndex\000"
 17461      74476174 
 17461      65496E64 
 17461      657800
 17462              	.LASF3:
 17463 09b9 6C6F6E67 		.ascii	"long double\000"
 17463      20646F75 
 17463      626C6500 
 17464              	.LASF77:
 17465 09c5 6D656469 		.ascii	"medianOfArray\000"
 17465      616E4F66 
 17465      41727261 
 17465      7900
 17466              	.LASF247:
 17467 09d3 56444143 		.ascii	"VDAC_Vgs_Start\000"
 17467      5F566773 
 17467      5F537461 
 17467      727400
 17468              	.LASF41:
 17469 09e2 52656365 		.ascii	"ReceiveBuffer\000"
 17469      69766542 
 17469      75666665 
 17469      7200
 17470              	.LASF219:
ARM GAS  C:\Users\FRANKL~1\AppData\Local\Temp\ccCAoJJX.s 			page 354


 17471 09f0 55415254 		.ascii	"UART_1_PutString\000"
 17471      5F315F50 
 17471      75745374 
 17471      72696E67 
 17471      00
 17472              	.LASF193:
 17473 0a01 55534255 		.ascii	"USBUART_Rx_Position\000"
 17473      4152545F 
 17473      52785F50 
 17473      6F736974 
 17473      696F6E00 
 17474              	.LASF207:
 17475 0a15 55534255 		.ascii	"USBUART_CDC_Init\000"
 17475      4152545F 
 17475      4344435F 
 17475      496E6974 
 17475      00
 17476              	.LASF135:
 17477 0a26 5365745F 		.ascii	"Set_Vgs_mV\000"
 17477      5667735F 
 17477      6D5600
 17478              	.LASF191:
 17479 0a31 55415254 		.ascii	"UART_Rx_Position\000"
 17479      5F52785F 
 17479      506F7369 
 17479      74696F6E 
 17479      00
 17480              	.LASF199:
 17481 0a42 5667735F 		.ascii	"Vgs_Index_Goal_Relative\000"
 17481      496E6465 
 17481      785F476F 
 17481      616C5F52 
 17481      656C6174 
 17482              	.LASF91:
 17483 0a5a 53415231 		.ascii	"SAR1_Measure_V\000"
 17483      5F4D6561 
 17483      73757265 
 17483      5F5600
 17484              	.LASF185:
 17485 0a69 5472616E 		.ascii	"TransmitBuffer\000"
 17485      736D6974 
 17485      42756666 
 17485      657200
 17486              	.LASF151:
 17487 0a78 6C6F6F70 		.ascii	"loop\000"
 17487      00
 17488              	.LASF169:
 17489 0a7d 64657669 		.ascii	"device\000"
 17489      636500
 17490              	.LASF75:
 17491 0a84 73697A65 		.ascii	"size\000"
 17491      00
 17492              	.LASF63:
 17493 0a89 44697363 		.ascii	"Disconnect_Contact_From_Intermediate\000"
 17493      6F6E6E65 
 17493      63745F43 
 17493      6F6E7461 
ARM GAS  C:\Users\FRANKL~1\AppData\Local\Temp\ccCAoJJX.s 			page 355


 17493      63745F46 
 17494              	.LASF10:
 17495 0aae 6C6F6E67 		.ascii	"long long unsigned int\000"
 17495      206C6F6E 
 17495      6720756E 
 17495      7369676E 
 17495      65642069 
 17496              	.LASF190:
 17497 0ac5 55415254 		.ascii	"UART_Receive_Buffer\000"
 17497      5F526563 
 17497      65697665 
 17497      5F427566 
 17497      66657200 
 17498              	.LASF73:
 17499 0ad9 736F7274 		.ascii	"sortArray\000"
 17499      41727261 
 17499      7900
 17500              	.LASF197:
 17501 0ae3 5449415F 		.ascii	"TIA_Offsets_uV\000"
 17501      4F666673 
 17501      6574735F 
 17501      755600
 17502              	.LASF208:
 17503 0af2 55534255 		.ascii	"USBUART_DataIsReady\000"
 17503      4152545F 
 17503      44617461 
 17503      49735265 
 17503      61647900 
 17504              	.LASF141:
 17505 0b06 4D656173 		.ascii	"Measure\000"
 17505      75726500 
 17506              	.LASF182:
 17507 0b0e 5664735F 		.ascii	"Vds_mV\000"
 17507      6D5600
 17508              	.LASF61:
 17509 0b15 636F6E74 		.ascii	"contact\000"
 17509      61637400 
 17510              	.LASF176:
 17511 0b1d 73746F70 		.ascii	"stopDevice\000"
 17511      44657669 
 17511      636500
 17512              	.LASF22:
 17513 0b28 72656738 		.ascii	"reg8\000"
 17513      00
 17514              	.LASF153:
 17515 0b2d 4D656173 		.ascii	"Measure_Wide_Gate_Sweep\000"
 17515      7572655F 
 17515      57696465 
 17515      5F476174 
 17515      655F5377 
 17516              	.LASF40:
 17517 0b45 74656D70 		.ascii	"temp_count\000"
 17517      5F636F75 
 17517      6E7400
 17518              	.LASF241:
 17519 0b50 56444143 		.ascii	"VDAC_Ref_SetValue\000"
 17519      5F526566 
ARM GAS  C:\Users\FRANKL~1\AppData\Local\Temp\ccCAoJJX.s 			page 356


 17519      5F536574 
 17519      56616C75 
 17519      6500
 17520              	.LASF175:
 17521 0b62 73746172 		.ascii	"startDevice\000"
 17521      74446576 
 17521      69636500 
 17522              	.LASF206:
 17523 0b6e 55534255 		.ascii	"USBUART_GetConfiguration\000"
 17523      4152545F 
 17523      47657443 
 17523      6F6E6669 
 17523      67757261 
 17524              	.LASF70:
 17525 0b87 72657369 		.ascii	"resistor\000"
 17525      73746F72 
 17525      00
 17526              	.LASF174:
 17527 0b90 5363616E 		.ascii	"Scan_Range\000"
 17527      5F52616E 
 17527      676500
 17528              	.LASF142:
 17529 0b9b 64656C74 		.ascii	"deltaSigmaSampleCount\000"
 17529      61536967 
 17529      6D615361 
 17529      6D706C65 
 17529      436F756E 
 17530              	.LASF107:
 17531 0bb1 41745F43 		.ascii	"At_Compliance\000"
 17531      6F6D706C 
 17531      69616E63 
 17531      6500
 17532              	.LASF134:
 17533 0bbf 5365745F 		.ascii	"Set_Vds\000"
 17533      56647300 
 17534              	.LASF82:
 17535 0bc7 4144435F 		.ascii	"ADC_Result\000"
 17535      52657375 
 17535      6C7400
 17536              	.LASF37:
 17537 0bd2 436F6D6D 		.ascii	"CommunicationHandlerISR\000"
 17537      756E6963 
 17537      6174696F 
 17537      6E48616E 
 17537      646C6572 
 17538              	.LASF71:
 17539 0bea 4144435F 		.ascii	"ADC_Increase_Range\000"
 17539      496E6372 
 17539      65617365 
 17539      5F52616E 
 17539      676500
 17540              	.LASF54:
 17541 0bfd 55706461 		.ascii	"Update_Selector\000"
 17541      74655F53 
 17541      656C6563 
 17541      746F7200 
 17542              	.LASF210:
ARM GAS  C:\Users\FRANKL~1\AppData\Local\Temp\ccCAoJJX.s 			page 357


 17543 0c0d 73747273 		.ascii	"strstr\000"
 17543      747200
 17544              	.LASF100:
 17545 0c14 63686563 		.ascii	"checkCompliance\000"
 17545      6B436F6D 
 17545      706C6961 
 17545      6E636500 
 17546              	.LASF187:
 17547 0c24 475F5374 		.ascii	"G_Stop\000"
 17547      6F7000
 17548              	.LASF260:
 17549 0c2b 433A5C55 		.ascii	"C:\\Users\\FranklinLab_PC_1\\Documents\\Python Scri"
 17549      73657273 
 17549      5C467261 
 17549      6E6B6C69 
 17549      6E4C6162 
 17550 0c5a 7074735C 		.ascii	"pts\\CNT_IV\\PSoC\\Layout 2_14\\Version 4_Full\\Mas"
 17550      434E545F 
 17550      49565C50 
 17550      536F435C 
 17550      4C61796F 
 17551 0c88 7465725C 		.ascii	"ter\\Master 1\\Design01.cydsn\000"
 17551      4D617374 
 17551      65722031 
 17551      5C446573 
 17551      69676E30 
 17552              	.LASF15:
 17553 0ca4 75696E74 		.ascii	"uint8\000"
 17553      3800
 17554              	.LASF224:
 17555 0caa 4932435F 		.ascii	"I2C_1_MasterClearStatus\000"
 17555      315F4D61 
 17555      73746572 
 17555      436C6561 
 17555      72537461 
 17556              	.LASF166:
 17557 0cc2 67617465 		.ascii	"gateArrived\000"
 17557      41727269 
 17557      76656400 
 17558              	.LASF189:
 17559 0cce 475F5061 		.ascii	"G_Pause\000"
 17559      75736500 
 17560              	.LASF242:
 17561 0cd6 73747274 		.ascii	"strtol\000"
 17561      6F6C00
 17562              	.LASF45:
 17563 0cdd 55534255 		.ascii	"USBUARTH_Receive\000"
 17563      41525448 
 17563      5F526563 
 17563      65697665 
 17563      00
 17564              	.LASF6:
 17565 0cee 73686F72 		.ascii	"short int\000"
 17565      7420696E 
 17565      7400
 17566              	.LASF147:
 17567 0cf8 4D656173 		.ascii	"Measure_Multiple\000"
ARM GAS  C:\Users\FRANKL~1\AppData\Local\Temp\ccCAoJJX.s 			page 358


 17567      7572655F 
 17567      4D756C74 
 17567      69706C65 
 17567      00
 17568              	.LASF211:
 17569 0d09 55415254 		.ascii	"UART_1_GetRxBufferSize\000"
 17569      5F315F47 
 17569      65745278 
 17569      42756666 
 17569      65725369 
 17570              	.LASF60:
 17571 0d20 436F6E6E 		.ascii	"Connect_Contact_To_Intermediate\000"
 17571      6563745F 
 17571      436F6E74 
 17571      6163745F 
 17571      546F5F49 
 17572              	.LASF129:
 17573 0d40 5667735F 		.ascii	"Vgs_maxRefRaw\000"
 17573      6D617852 
 17573      65665261 
 17573      7700
 17574              	.LASF117:
 17575 0d4e 4765745F 		.ascii	"Get_Vds\000"
 17575      56647300 
 17576              	.LASF205:
 17577 0d56 55534255 		.ascii	"USBUART_IsConfigurationChanged\000"
 17577      4152545F 
 17577      4973436F 
 17577      6E666967 
 17577      75726174 
 17578              	.LASF202:
 17579 0d75 75617274 		.ascii	"uartSendingEnabled\000"
 17579      53656E64 
 17579      696E6745 
 17579      6E61626C 
 17579      656400
 17580              	.LASF212:
 17581 0d88 55415254 		.ascii	"UART_1_GetChar\000"
 17581      5F315F47 
 17581      65744368 
 17581      617200
 17582              	.LASF27:
 17583 0d97 62757341 		.ascii	"busAddress\000"
 17583      64647265 
 17583      737300
 17584              	.LASF132:
 17585 0da2 5365745F 		.ascii	"Set_Vgs\000"
 17585      56677300 
 17586              	.LASF157:
 17587 0daa 72656649 		.ascii	"refIncrement\000"
 17587      6E637265 
 17587      6D656E74 
 17587      00
 17588              	.LASF204:
 17589 0db7 75736275 		.ascii	"usbuSendingEnabled\000"
 17589      53656E64 
 17589      696E6745 
ARM GAS  C:\Users\FRANKL~1\AppData\Local\Temp\ccCAoJJX.s 			page 359


 17589      6E61626C 
 17589      656400
 17590              	.LASF217:
 17591 0dca 55534255 		.ascii	"USBUART_GetChar\000"
 17591      4152545F 
 17591      47657443 
 17591      68617200 
 17592              	.LASF96:
 17593 0dda 53415232 		.ascii	"SAR2_Result_Current\000"
 17593      5F526573 
 17593      756C745F 
 17593      43757272 
 17593      656E7400 
 17594              	.LASF225:
 17595 0dee 4932435F 		.ascii	"I2C_1_MasterWriteBuf\000"
 17595      315F4D61 
 17595      73746572 
 17595      57726974 
 17595      65427566 
 17596              	.LASF156:
 17597 0e03 72656654 		.ascii	"refTurn\000"
 17597      75726E00 
 17598              	.LASF218:
 17599 0e0b 7374726C 		.ascii	"strlen\000"
 17599      656E00
 17600              	.LASF170:
 17601 0e12 636F6E74 		.ascii	"contact1\000"
 17601      61637431 
 17601      00
 17602              	.LASF171:
 17603 0e1b 636F6E74 		.ascii	"contact2\000"
 17603      61637432 
 17603      00
 17604              	.LASF19:
 17605 0e24 696E7431 		.ascii	"int16\000"
 17605      3600
 17606              	.LASF143:
 17607 0e2a 53415231 		.ascii	"SAR1_SampleCount\000"
 17607      5F53616D 
 17607      706C6543 
 17607      6F756E74 
 17607      00
 17608              	.LASF138:
 17609 0e3b 43616C69 		.ascii	"Calibrate_ADC_Offset\000"
 17609      62726174 
 17609      655F4144 
 17609      435F4F66 
 17609      66736574 
 17610              	.LASF130:
 17611 0e50 6E657752 		.ascii	"newRefRaw\000"
 17611      65665261 
 17611      7700
 17612              	.LASF164:
 17613 0e5a 656E6447 		.ascii	"endGateIndex\000"
 17613      61746549 
 17613      6E646578 
 17613      00
ARM GAS  C:\Users\FRANKL~1\AppData\Local\Temp\ccCAoJJX.s 			page 360


 17614              	.LASF213:
 17615 0e67 436F6D6D 		.ascii	"CommunicationInterrupt_ClearPending\000"
 17615      756E6963 
 17615      6174696F 
 17615      6E496E74 
 17615      65727275 
 17616              	.LASF146:
 17617 0e8b 49647353 		.ascii	"IdsSDAmps\000"
 17617      44416D70 
 17617      7300
 17618              	.LASF255:
 17619 0e95 43794465 		.ascii	"CyDelay\000"
 17619      6C617900 
 17620              	.LASF57:
 17621 0e9d 436F6E6E 		.ascii	"Connect_Channel_On_Intermediate\000"
 17621      6563745F 
 17621      4368616E 
 17621      6E656C5F 
 17621      4F6E5F49 
 17622              	.LASF34:
 17623 0ebd 52353030 		.ascii	"R500K\000"
 17623      4B00
 17624              	.LASF116:
 17625 0ec3 4765745F 		.ascii	"Get_Vgs\000"
 17625      56677300 
 17626              	.LASF145:
 17627 0ecb 49647341 		.ascii	"IdsAverageAmps\000"
 17627      76657261 
 17627      6765416D 
 17627      707300
 17628              	.LASF0:
 17629 0eda 666C6F61 		.ascii	"float\000"
 17629      7400
 17630              	.LASF172:
 17631 0ee0 696E7465 		.ascii	"intermediate1\000"
 17631      726D6564 
 17631      69617465 
 17631      3100
 17632              	.LASF173:
 17633 0eee 696E7465 		.ascii	"intermediate2\000"
 17633      726D6564 
 17633      69617465 
 17633      3200
 17634              	.LASF20:
 17635 0efc 696E7433 		.ascii	"int32\000"
 17635      3200
 17636              	.LASF13:
 17637 0f02 5F5F696E 		.ascii	"__int32_t\000"
 17637      7433325F 
 17637      7400
 17638              	.LASF53:
 17639 0f0c 73656C65 		.ascii	"selector\000"
 17639      63746F72 
 17639      00
 17640              	.LASF118:
 17641 0f15 5365745F 		.ascii	"Set_Vds_Raw\000"
 17641      5664735F 
ARM GAS  C:\Users\FRANKL~1\AppData\Local\Temp\ccCAoJJX.s 			page 361


 17641      52617700 
 17642              	.LASF76:
 17643 0f21 74656D70 		.ascii	"temp\000"
 17643      00
 17644              	.LASF86:
 17645 0f26 6D656469 		.ascii	"medianArray\000"
 17645      616E4172 
 17645      72617900 
 17646              	.LASF154:
 17647 0f32 73706565 		.ascii	"speed\000"
 17647      6400
 17648              	.LASF179:
 17649 0f38 76647369 		.ascii	"vdsi\000"
 17649      00
 17650              	.LASF265:
 17651 0f3d 5F5F6275 		.ascii	"__builtin_strchr\000"
 17651      696C7469 
 17651      6E5F7374 
 17651      72636872 
 17651      00
 17652              	.LASF24:
 17653 0f4e 64617461 		.ascii	"data\000"
 17653      00
 17654              	.LASF226:
 17655 0f53 5449415F 		.ascii	"TIA_1_SetResFB\000"
 17655      315F5365 
 17655      74526573 
 17655      464200
 17656              	.LASF249:
 17657 0f62 4144435F 		.ascii	"ADC_DelSig_1_Start\000"
 17657      44656C53 
 17657      69675F31 
 17657      5F537461 
 17657      727400
 17658              	.LASF16:
 17659 0f75 75696E74 		.ascii	"uint16\000"
 17659      313600
 17660              	.LASF168:
 17661 0f7c 77696465 		.ascii	"wide\000"
 17661      00
 17662              	.LASF235:
 17663 0f81 4144435F 		.ascii	"ADC_SAR_2_StartConvert\000"
 17663      5341525F 
 17663      325F5374 
 17663      61727443 
 17663      6F6E7665 
 17664              	.LASF158:
 17665 0f98 73746172 		.ascii	"startRefIndex\000"
 17665      74526566 
 17665      496E6465 
 17665      7800
 17666              	.LASF246:
 17667 0fa6 56444143 		.ascii	"VDAC_Vds_Start\000"
 17667      5F566473 
 17667      5F537461 
 17667      727400
 17668              	.LASF215:
ARM GAS  C:\Users\FRANKL~1\AppData\Local\Temp\ccCAoJJX.s 			page 362


 17669 0fb5 55534255 		.ascii	"USBUART_CDCIsReady\000"
 17669      4152545F 
 17669      43444349 
 17669      73526561 
 17669      647900
 17670              		.ident	"GCC: (GNU Tools for ARM Embedded Processors) 5.4.1 20160609 (release) [ARM/embedded-5-bran
