ARM GAS  C:\Users\FRANKL~1\AppData\Local\Temp\ccggyhWi.s 			page 1


   1              		.syntax unified
   2              		.cpu cortex-m3
   3              		.fpu softvfp
   4              		.eabi_attribute 20, 1
   5              		.eabi_attribute 21, 1
   6              		.eabi_attribute 23, 3
   7              		.eabi_attribute 24, 1
   8              		.eabi_attribute 25, 1
   9              		.eabi_attribute 26, 1
  10              		.eabi_attribute 30, 1
  11              		.eabi_attribute 34, 1
  12              		.eabi_attribute 18, 4
  13              		.thumb
  14              		.syntax unified
  15              		.file	"main.c"
  16              		.text
  17              	.Ltext0:
  18              		.cfi_sections	.debug_frame
  19              		.syntax unified
  20              		.global _printf_float
  21              		.thumb
  22              		.syntax unified
  23              		.section	.text.USBUARTH_Maintain_Configuration,"ax",%progbits
  24              		.align	2
  25              		.global	USBUARTH_Maintain_Configuration
  26              		.thumb
  27              		.thumb_func
  28              		.type	USBUARTH_Maintain_Configuration, %function
  29              	USBUARTH_Maintain_Configuration:
  30              	.LFB64:
  31              		.file 1 "USBUART_Helpers.h"
   1:USBUART_Helpers.h **** #include "project.h"
   2:USBUART_Helpers.h **** #include "stdio.h"
   3:USBUART_Helpers.h **** 
   4:USBUART_Helpers.h **** #if defined (__GNUC__)
   5:USBUART_Helpers.h **** 	/* Add an explicit reference to the floating point printf library */
   6:USBUART_Helpers.h **** 	/* to allow usage of the floating point conversion specifiers. */
   7:USBUART_Helpers.h **** 	/* This is not linked in by default with the newlib-nano library. */
   8:USBUART_Helpers.h **** 	asm (".global _printf_float");
   9:USBUART_Helpers.h **** #endif
  10:USBUART_Helpers.h **** 
  11:USBUART_Helpers.h **** // The buffer size is equal to the maximum packet size of the IN and OUT bulk endpoints.
  12:USBUART_Helpers.h **** #define USBUART_BUFFER_SIZE	(64u)
  13:USBUART_Helpers.h **** #define LINE_STR_LENGTH		(20u)
  14:USBUART_Helpers.h **** 
  15:USBUART_Helpers.h **** 
  16:USBUART_Helpers.h **** void USBUARTH_Maintain_Configuration() {
  32              		.loc 1 16 0
  33              		.cfi_startproc
  34              		@ args = 0, pretend = 0, frame = 0
  35              		@ frame_needed = 0, uses_anonymous_args = 0
  36 0000 08B5     		push	{r3, lr}
  37              		.cfi_def_cfa_offset 8
  38              		.cfi_offset 3, -8
  39              		.cfi_offset 14, -4
  40              	.LVL0:
  17:USBUART_Helpers.h **** 	unsigned long tries = 0;
ARM GAS  C:\Users\FRANKL~1\AppData\Local\Temp\ccggyhWi.s 			page 2


  18:USBUART_Helpers.h **** 	
  19:USBUART_Helpers.h **** 	do {
  20:USBUART_Helpers.h **** 		// Host can send double SET_INTERFACE request.
  21:USBUART_Helpers.h **** 		if (USBUART_IsConfigurationChanged()) {
  41              		.loc 1 21 0
  42 0002 FFF7FEFF 		bl	USBUART_IsConfigurationChanged
  43              	.LVL1:
  44 0006 20B1     		cbz	r0, .L2
  22:USBUART_Helpers.h **** 			// Initialize IN endpoints when device is configured.
  23:USBUART_Helpers.h **** 			if (USBUART_GetConfiguration()) {
  45              		.loc 1 23 0
  46 0008 FFF7FEFF 		bl	USBUART_GetConfiguration
  47              	.LVL2:
  48 000c 08B1     		cbz	r0, .L2
  24:USBUART_Helpers.h **** 				// Enumeration is done, enable OUT endpoint to receive data from host.
  25:USBUART_Helpers.h **** 				USBUART_CDC_Init();
  49              		.loc 1 25 0
  50 000e FFF7FEFF 		bl	USBUART_CDC_Init
  51              	.LVL3:
  52              	.L2:
  26:USBUART_Helpers.h **** 			}
  27:USBUART_Helpers.h **** 		}
  28:USBUART_Helpers.h **** 		
  29:USBUART_Helpers.h **** 		tries++;
  30:USBUART_Helpers.h **** 	// Keep trying until USB CDC device is configured
  31:USBUART_Helpers.h **** 	} while (!USBUART_GetConfiguration() && tries < 1);
  53              		.loc 1 31 0
  54 0012 FFF7FEFF 		bl	USBUART_GetConfiguration
  55              	.LVL4:
  56 0016 08BD     		pop	{r3, pc}
  57              		.cfi_endproc
  58              	.LFE64:
  59              		.size	USBUARTH_Maintain_Configuration, .-USBUARTH_Maintain_Configuration
  60              		.section	.text.USBUARTH_DataIsReady,"ax",%progbits
  61              		.align	2
  62              		.global	USBUARTH_DataIsReady
  63              		.thumb
  64              		.thumb_func
  65              		.type	USBUARTH_DataIsReady, %function
  66              	USBUARTH_DataIsReady:
  67              	.LFB65:
  32:USBUART_Helpers.h **** }
  33:USBUART_Helpers.h **** 
  34:USBUART_Helpers.h **** uint8 USBUARTH_DataIsReady() {
  68              		.loc 1 34 0
  69              		.cfi_startproc
  70              		@ args = 0, pretend = 0, frame = 0
  71              		@ frame_needed = 0, uses_anonymous_args = 0
  72 0000 08B5     		push	{r3, lr}
  73              		.cfi_def_cfa_offset 8
  74              		.cfi_offset 3, -8
  75              		.cfi_offset 14, -4
  35:USBUART_Helpers.h **** 	USBUARTH_Maintain_Configuration();
  76              		.loc 1 35 0
  77 0002 FFF7FEFF 		bl	USBUARTH_Maintain_Configuration
  78              	.LVL5:
  36:USBUART_Helpers.h **** 	
ARM GAS  C:\Users\FRANKL~1\AppData\Local\Temp\ccggyhWi.s 			page 3


  37:USBUART_Helpers.h **** 	return USBUART_GetConfiguration() && USBUART_DataIsReady();
  79              		.loc 1 37 0
  80 0006 FFF7FEFF 		bl	USBUART_GetConfiguration
  81              	.LVL6:
  82 000a 20B1     		cbz	r0, .L6
  83              		.loc 1 37 0 is_stmt 0 discriminator 1
  84 000c FFF7FEFF 		bl	USBUART_DataIsReady
  85              	.LVL7:
  86 0010 18B1     		cbz	r0, .L7
  87              		.loc 1 37 0
  88 0012 0120     		movs	r0, #1
  89 0014 08BD     		pop	{r3, pc}
  90              	.L6:
  91 0016 0020     		movs	r0, #0
  92 0018 08BD     		pop	{r3, pc}
  93              	.L7:
  94 001a 0020     		movs	r0, #0
  38:USBUART_Helpers.h **** }
  95              		.loc 1 38 0 is_stmt 1
  96 001c 08BD     		pop	{r3, pc}
  97              		.cfi_endproc
  98              	.LFE65:
  99              		.size	USBUARTH_DataIsReady, .-USBUARTH_DataIsReady
 100 001e 00BF     		.section	.text.CommunicationHandlerISR,"ax",%progbits
 101              		.align	2
 102              		.global	CommunicationHandlerISR
 103              		.thumb
 104              		.thumb_func
 105              		.type	CommunicationHandlerISR, %function
 106              	CommunicationHandlerISR:
 107              	.LFB108:
 108              		.file 2 "main.c"
   1:main.c        **** #include <stdlib.h>
   2:main.c        **** #include <stdio.h>
   3:main.c        **** #include "project.h"
   4:main.c        **** #include "USBUART_Helpers.h"
   5:main.c        **** 
   6:main.c        **** 
   7:main.c        **** struct Selector_I2C_Struct {
   8:main.c        **** 	struct {
   9:main.c        **** 		uint8 subAddress;
  10:main.c        **** 		uint8 data[126];
  11:main.c        **** 	} write;
  12:main.c        **** 	struct {
  13:main.c        **** 		uint8 subAddress;
  14:main.c        **** 		uint8 data[126];
  15:main.c        **** 	} read;
  16:main.c        **** 	uint8 busAddress;
  17:main.c        **** };
  18:main.c        **** 
  19:main.c        **** 
  20:main.c        **** // Globals ----------------------------------------------
  21:main.c        **** #define SELECTOR_COUNT (4u)
  22:main.c        **** #define INTERMEDIATE_COUNT (4u)
  23:main.c        **** #define CONTACT_COUNT (64u)
  24:main.c        **** #define CHANNEL_COUNT (34u)
  25:main.c        **** #define CONTACT_CONNECT_CODE (0xC0u)
ARM GAS  C:\Users\FRANKL~1\AppData\Local\Temp\ccggyhWi.s 			page 4


  26:main.c        **** #define CONTACT_DISCONNECT_CODE (0xD1u)
  27:main.c        **** #define COMPLIANCE_CURRENT_LIMIT (10e-6)
  28:main.c        **** 
  29:main.c        **** struct Selector_I2C_Struct selectors[SELECTOR_COUNT];
  30:main.c        **** char TransmitBuffer[USBUART_BUFFER_SIZE];
  31:main.c        **** 
  32:main.c        **** volatile uint8 newData = 0;
  33:main.c        **** volatile uint8 G_Stop = 0;
  34:main.c        **** volatile uint8 G_Break = 0;
  35:main.c        **** volatile uint8 G_Pause = 0;
  36:main.c        **** 
  37:main.c        **** volatile char UART_Receive_Buffer[USBUART_BUFFER_SIZE];
  38:main.c        **** volatile uint8 UART_Rx_Position;
  39:main.c        **** 
  40:main.c        **** volatile char USBUART_Receive_Buffer[USBUART_BUFFER_SIZE];
  41:main.c        **** volatile uint8 USBUART_Rx_Position;
  42:main.c        **** 
  43:main.c        **** uint8 Compliance_Reached;
  44:main.c        **** int16 Vgs_Index_Goal_Relative;
  45:main.c        **** int16 Vds_Index_Goal_Relative;
  46:main.c        **** 
  47:main.c        **** uint32 Current_Measurement_Sample_Count;
  48:main.c        **** 
  49:main.c        **** void Setup_Selector_I2C_Struct(struct Selector_I2C_Struct *selector) {
  50:main.c        **** 	selector->write.subAddress = 1;
  51:main.c        **** 	selector->read.subAddress = sizeof(selector->write) + 1;
  52:main.c        **** 	
  53:main.c        **** 	for (uint16 i = 0; i < sizeof(selector->write.data); i++) {
  54:main.c        **** 		selector->write.data[i] = i + 6;
  55:main.c        **** 	}
  56:main.c        **** 	for (uint16 i = 0; i < sizeof(selector->read.data); i++) {
  57:main.c        **** 		selector->read.data[i] = 0xbe;
  58:main.c        **** 	}
  59:main.c        **** }
  60:main.c        **** 
  61:main.c        **** void Update_Selector(uint8 selectori) {
  62:main.c        **** 	sprintf(TransmitBuffer, "Updating Selector %u\r\n", selectori + 1);
  63:main.c        **** 	USBUARTH_Send(TransmitBuffer, strlen(TransmitBuffer));
  64:main.c        **** 	UART_1_PutString(TransmitBuffer);
  65:main.c        **** 	
  66:main.c        **** 	struct Selector_I2C_Struct* selector = &selectors[selectori];
  67:main.c        **** 	
  68:main.c        **** 	I2C_1_MasterClearStatus();
  69:main.c        **** 	I2C_1_MasterWriteBuf(selector->busAddress, (uint8 *) &selector->write, sizeof(selector->write), I2
  70:main.c        **** 	for (uint32 i = 0; i < 4e5; i++) {
  71:main.c        **** 		if ((I2C_1_MasterStatus() & I2C_1_MSTAT_WR_CMPLT)) break;
  72:main.c        **** 		if (i >= 4e5 - 1) {
  73:main.c        **** 			sprintf(TransmitBuffer, "I2C Transfer Error! Type: Timeout\r\n");
  74:main.c        **** 			USBUARTH_Send(TransmitBuffer, strlen(TransmitBuffer));
  75:main.c        **** 			UART_1_PutString(TransmitBuffer);
  76:main.c        **** 			I2C_1_Stop();
  77:main.c        **** 			I2C_1_Start();
  78:main.c        **** 		}
  79:main.c        **** 	}
  80:main.c        **** 	
  81:main.c        **** 	// I2C_1_MasterClearStatus();
  82:main.c        **** 	// I2C_1_MasterWriteBuf(selector->busAddress, (uint8 *) &selector->read.subAddress, 1, I2C_1_MODE_
ARM GAS  C:\Users\FRANKL~1\AppData\Local\Temp\ccggyhWi.s 			page 5


  83:main.c        **** 	// for (uint32 i - 0; i < 4e5; i++) {
  84:main.c        **** 	// 	if ((I2C_1_MasterStatus() & I2C_1_MSTAT_WR_CMPLT)) break;
  85:main.c        **** 	// }
  86:main.c        **** 	
  87:main.c        **** 	// I2C_1_MasterReadBuf(selector->busAddress, (uint8 *) &selector->read.data, sizeof(selector->read
  88:main.c        **** 	// for (uint32 i - 0; i < 4e5; i++) {
  89:main.c        **** 	// 	if ((I2C_1_MasterStatus() & I2C_1_MSTAT_RD_CMPLT)) break;
  90:main.c        **** 	// }
  91:main.c        **** 	
  92:main.c        **** 	if (I2C_1_MasterStatus() & I2C_1_MSTAT_ERR_XFER) {
  93:main.c        **** 		sprintf(TransmitBuffer, "I2C Transfer Error! ");
  94:main.c        **** 		USBUARTH_Send(TransmitBuffer, strlen(TransmitBuffer));
  95:main.c        **** 		UART_1_PutString(TransmitBuffer);
  96:main.c        **** 		
  97:main.c        **** 		if (I2C_1_MasterStatus() & I2C_1_MSTAT_ERR_ADDR_NAK) {
  98:main.c        **** 			sprintf(TransmitBuffer, "Type: NAK");
  99:main.c        **** 			USBUARTH_Send(TransmitBuffer, strlen(TransmitBuffer));
 100:main.c        **** 			UART_1_PutString(TransmitBuffer);
 101:main.c        **** 		}
 102:main.c        **** 		
 103:main.c        **** 		sprintf(TransmitBuffer, "\r\n");
 104:main.c        **** 		USBUARTH_Send(TransmitBuffer, strlen(TransmitBuffer));
 105:main.c        **** 		UART_1_PutString(TransmitBuffer);
 106:main.c        **** 	}
 107:main.c        **** 	
 108:main.c        **** 	sprintf(TransmitBuffer, "Updated Selector %u\r\n", selectori + 1);
 109:main.c        **** 	USBUARTH_Send(TransmitBuffer, strlen(TransmitBuffer));
 110:main.c        **** 	UART_1_PutString(TransmitBuffer);
 111:main.c        **** }
 112:main.c        **** 
 113:main.c        **** void Setup_Selectors() {
 114:main.c        **** 	for (uint8 i = 0; i < SELECTOR_COUNT; i++) Setup_Selector_I2C_Struct(&selectors[i]);
 115:main.c        **** 	
 116:main.c        **** 	selectors[0].busAddress = 0x66;
 117:main.c        **** 	selectors[1].busAddress = 0x11;
 118:main.c        **** 	selectors[2].busAddress = 0x44;
 119:main.c        **** 	selectors[3].busAddress = 0x22;
 120:main.c        **** }
 121:main.c        **** 
 122:main.c        **** void Connect_Channel_On_Intermediate(uint8 channel, uint8 intermediate) {
 123:main.c        **** 	channel--;
 124:main.c        **** 	intermediate--;
 125:main.c        **** 	
 126:main.c        **** 	if (channel >= CHANNEL_COUNT) return;
 127:main.c        **** 	if (intermediate >= INTERMEDIATE_COUNT) return;
 128:main.c        **** 	
 129:main.c        **** 	selectors[intermediate].write.data[channel] = CONTACT_CONNECT_CODE;
 130:main.c        **** 	Update_Selector(intermediate);
 131:main.c        **** }
 132:main.c        **** 
 133:main.c        **** void Connect_Contact_To_Intermediate(uint8 contact, uint8 intermediate) {
 134:main.c        **** 	contact--;
 135:main.c        **** 	intermediate--;
 136:main.c        **** 	
 137:main.c        **** 	if (contact >= CONTACT_COUNT) return;
 138:main.c        **** 	if (intermediate >= INTERMEDIATE_COUNT) return;
 139:main.c        **** 	
ARM GAS  C:\Users\FRANKL~1\AppData\Local\Temp\ccggyhWi.s 			page 6


 140:main.c        **** 	uint8 offset = 0;
 141:main.c        **** 	if (intermediate >= INTERMEDIATE_COUNT/2) {
 142:main.c        **** 		offset = CONTACT_COUNT/2;
 143:main.c        **** 		if (contact < CONTACT_COUNT/2) return;
 144:main.c        **** 	} else {
 145:main.c        **** 		if (contact >= CONTACT_COUNT/2) return;
 146:main.c        **** 	}
 147:main.c        **** 	
 148:main.c        **** 	Connect_Channel_On_Intermediate(contact - offset + 1, intermediate + 1);
 149:main.c        **** }
 150:main.c        **** 
 151:main.c        **** void Disconnect_Contact_From_Intermediate(uint8 contact, uint8 intermediate) {
 152:main.c        **** 	contact--;
 153:main.c        **** 	intermediate--;
 154:main.c        **** 	
 155:main.c        **** 	if (contact >= CONTACT_COUNT) return;
 156:main.c        **** 	if (intermediate >= INTERMEDIATE_COUNT) return;
 157:main.c        **** 	
 158:main.c        **** 	uint8 offset = 0;
 159:main.c        **** 	if (intermediate >= INTERMEDIATE_COUNT/2) {
 160:main.c        **** 		offset = CONTACT_COUNT/2;
 161:main.c        **** 		if (contact < CONTACT_COUNT/2) return;
 162:main.c        **** 	} else {
 163:main.c        **** 		if (contact >= CONTACT_COUNT/2) return;
 164:main.c        **** 	}
 165:main.c        **** 	
 166:main.c        **** 	selectors[intermediate].write.data[contact - offset] = CONTACT_DISCONNECT_CODE;
 167:main.c        **** 	
 168:main.c        **** 	Update_Selector(intermediate);
 169:main.c        **** }
 170:main.c        **** 
 171:main.c        **** void Disconnect_Contact_From_All_Intermediates(uint8 contact) {
 172:main.c        **** 	contact--;
 173:main.c        **** 	
 174:main.c        **** 	for (uint8 intermediate = 0; intermediate < INTERMEDIATE_COUNT; intermediate++) {
 175:main.c        **** 		
 176:main.c        **** 		uint8 offset = 0;
 177:main.c        **** 		if (intermediate >= INTERMEDIATE_COUNT/2) {
 178:main.c        **** 			offset = CONTACT_COUNT/2;
 179:main.c        **** 			if (contact < CONTACT_COUNT/2) continue;
 180:main.c        **** 		} else {
 181:main.c        **** 			if (contact >= CONTACT_COUNT/2) continue;
 182:main.c        **** 		}
 183:main.c        **** 		
 184:main.c        **** 		selectors[intermediate].write.data[contact - offset] = CONTACT_DISCONNECT_CODE;
 185:main.c        **** 		
 186:main.c        **** 		Update_Selector(intermediate);
 187:main.c        **** 	}
 188:main.c        **** }
 189:main.c        **** 
 190:main.c        **** void Disconnect_All_Contacts_From_All_Intermediates() {
 191:main.c        **** 	for (uint8 intermediate = 0; intermediate < INTERMEDIATE_COUNT/**//2; intermediate++) {
 192:main.c        **** 		for (uint8 contact = 0; contact < CONTACT_COUNT/2; contact++) {
 193:main.c        **** 			selectors[intermediate].write.data[contact] = CONTACT_DISCONNECT_CODE;
 194:main.c        **** 		}
 195:main.c        **** 		
 196:main.c        **** 		Update_Selector(intermediate);
ARM GAS  C:\Users\FRANKL~1\AppData\Local\Temp\ccggyhWi.s 			page 7


 197:main.c        **** 	}
 198:main.c        **** }
 199:main.c        **** 
 200:main.c        **** void Disconnect_All_Contacts_From_Intermediate(uint8 intermediate) {
 201:main.c        **** 	intermediate--;
 202:main.c        **** 	
 203:main.c        **** 	for (uint8 contact = 0; contact < CONTACT_COUNT/2; contact++) {
 204:main.c        **** 		selectors[intermediate].write.data[contact] = CONTACT_DISCONNECT_CODE;
 205:main.c        **** 	}
 206:main.c        **** 	
 207:main.c        **** 	Update_Selector(intermediate);
 208:main.c        **** }
 209:main.c        **** 
 210:main.c        **** void Connect_Intermediate(uint8 intermediate) {
 211:main.c        **** 	switch (intermediate) {
 212:main.c        **** 		case 1: Connect_Channel_On_Intermediate(33, 1); break;
 213:main.c        **** 		case 2: Connect_Channel_On_Intermediate(33, 2); break;
 214:main.c        **** 		case 3: Connect_Channel_On_Intermediate(33, 3); break;
 215:main.c        **** 		case 4: Connect_Channel_On_Intermediate(33, 4); break;
 216:main.c        **** 		default: return;
 217:main.c        **** 	}
 218:main.c        **** }
 219:main.c        **** 
 220:main.c        **** void Connect_Intermediates() {
 221:main.c        **** 	for (uint8 i = 1; i <= INTERMEDIATE_COUNT/**//2; i++) {
 222:main.c        **** 		Connect_Intermediate(i);
 223:main.c        **** 	}
 224:main.c        **** }
 225:main.c        **** 
 226:main.c        **** // Measure Delta-Sigma ADC
 227:main.c        **** void ADC_Measure_uV(int32* average, int32* standardDeviation, uint32 sampleCount) {
 228:main.c        **** 	int32 ADC_Result = 0;
 229:main.c        **** 	int32 ADC_SD = 0;
 230:main.c        **** 	
 231:main.c        **** 	for (uint32 i = 1; i <= sampleCount; i++) {
 232:main.c        **** 		ADC_DelSig_1_StartConvert();
 233:main.c        **** 		while (!ADC_DelSig_1_IsEndConversion(ADC_DelSig_1_RETURN_STATUS));
 234:main.c        **** 		//int16 ADC_Result = ADC_DelSig_1_CountsTo_mVolts(ADC_DelSig_1_GetResult16());
 235:main.c        **** 		int32 ADC_Result_Current = ADC_DelSig_1_CountsTo_uVolts(ADC_DelSig_1_GetResult32());
 236:main.c        **** 		
 237:main.c        **** 		ADC_SD += (float)(i-1)/(float)(i)*(ADC_Result_Current - ADC_Result)*(ADC_Result_Current - ADC_Res
 238:main.c        **** 		ADC_Result += ((float)ADC_Result_Current - (float)ADC_Result)/(float)i;
 239:main.c        **** 	}
 240:main.c        **** 	
 241:main.c        **** 	*average = ADC_Result;
 242:main.c        **** 	*standardDeviation = ADC_SD;
 243:main.c        **** }
 244:main.c        **** 
 245:main.c        **** // Measure SAR1 ADC
 246:main.c        **** void SAR1_Measure_V(int32* average, int32* standardDeviation, uint32 sampleCount) {
 247:main.c        **** 	int32 SAR_Result = 0;
 248:main.c        **** 	int32 SAR_SD = 0;
 249:main.c        **** 	
 250:main.c        **** 	for (uint32 i = 1; i <= sampleCount; i++) {
 251:main.c        **** 		ADC_SAR_1_StartConvert();
 252:main.c        **** 		while (!ADC_SAR_1_IsEndConversion(ADC_SAR_1_RETURN_STATUS));
 253:main.c        **** 		
ARM GAS  C:\Users\FRANKL~1\AppData\Local\Temp\ccggyhWi.s 			page 8


 254:main.c        **** 		int32 SAR1_Result_Current = ADC_SAR_1_CountsTo_uVolts(ADC_SAR_1_GetResult16());
 255:main.c        **** 		
 256:main.c        **** 		SAR_SD += (float)(i-1)/(float)(i)*(SAR1_Result_Current - SAR_Result)*(SAR1_Result_Current - SAR_R
 257:main.c        **** 		SAR_Result += ((float)SAR1_Result_Current - (float)SAR_Result)/(float)i;
 258:main.c        **** 	}
 259:main.c        **** 	
 260:main.c        **** 	*average = SAR_Result;
 261:main.c        **** 	*standardDeviation = SAR_SD;
 262:main.c        **** }
 263:main.c        **** 
 264:main.c        **** // Measure SAR2 ADC
 265:main.c        **** void SAR2_Measure_V(int32* average, int32* standardDeviation, uint32 sampleCount) {
 266:main.c        **** 	int32 SAR_Result = 0;
 267:main.c        **** 	int32 SAR_SD = 0;
 268:main.c        **** 	
 269:main.c        **** 	for (uint32 i = 1; i <= sampleCount; i++) {
 270:main.c        **** 		ADC_SAR_2_StartConvert();
 271:main.c        **** 		while (!ADC_SAR_2_IsEndConversion(ADC_SAR_2_RETURN_STATUS));
 272:main.c        **** 		
 273:main.c        **** 		int32 SAR2_Result_Current = ADC_SAR_2_CountsTo_uVolts(ADC_SAR_2_GetResult16());
 274:main.c        **** 		
 275:main.c        **** 		SAR_SD += (float)(i-1)/(float)(i)*(SAR2_Result_Current - SAR_Result)*(SAR2_Result_Current - SAR_R
 276:main.c        **** 		SAR_Result += ((float)SAR2_Result_Current - (float)SAR_Result)/(float)i;
 277:main.c        **** 	}
 278:main.c        **** 	
 279:main.c        **** 	*average = SAR_Result;
 280:main.c        **** 	*standardDeviation = SAR_SD;
 281:main.c        **** }
 282:main.c        **** 
 283:main.c        **** // Measure current and compare it to some compliance value
 284:main.c        **** void Measure_Current_Vss(float* currentAverageIn, float* currentStdDevIn, uint32 sampleCount) {
 285:main.c        **** 	Compliance_Reached = 0;
 286:main.c        **** 	
 287:main.c        **** 	// Voltage and its standard deviation (in uV)
 288:main.c        **** 	int32 voltage = 0;
 289:main.c        **** 	int32 voltageSD = 0;
 290:main.c        **** 	
 291:main.c        **** 	// Current and its standard deviation (in A)
 292:main.c        **** 	float currentNow = 0;
 293:main.c        **** 	
 294:main.c        **** 	float currentAverage = 0;
 295:main.c        **** 	float currentStdDev = 0;
 296:main.c        **** 	
 297:main.c        **** 	float TIA_Feedback_R = 20e3;
 298:main.c        **** 	float unitConversion = -1.0e-6/TIA_Feedback_R;
 299:main.c        **** 	
 300:main.c        **** 	// Allow for the first measurement (normally not correct) to take place
 301:main.c        **** 	ADC_Measure_uV(&voltage, &voltageSD, 3);
 302:main.c        **** 	
 303:main.c        **** 	// Now take the real measurement
 304:main.c        **** 	for (uint32 i = 1; i <= sampleCount; i++) {
 305:main.c        **** 		ADC_Measure_uV(&voltage, &voltageSD, 1);
 306:main.c        **** 		
 307:main.c        **** 		currentNow = unitConversion*voltage;
 308:main.c        **** 		
 309:main.c        **** 		if (abs(currentNow) > COMPLIANCE_CURRENT_LIMIT) {
 310:main.c        **** 			Compliance_Reached += 1;
ARM GAS  C:\Users\FRANKL~1\AppData\Local\Temp\ccggyhWi.s 			page 9


 311:main.c        **** 			break;
 312:main.c        **** 		} else {
 313:main.c        **** 			Compliance_Reached = 0;
 314:main.c        **** 		}
 315:main.c        **** 		
 316:main.c        **** 		currentStdDev += ((float)i-1.0)/(float)(i)*(currentNow - currentAverage)*(currentNow - currentAve
 317:main.c        **** 		currentAverage += (currentNow - currentAverage)/(float)i;
 318:main.c        **** 	}
 319:main.c        **** 	
 320:main.c        **** 	*currentAverageIn = currentAverage;
 321:main.c        **** 	*currentStdDevIn = currentStdDev;
 322:main.c        **** }
 323:main.c        **** 
 324:main.c        **** uint8 At_Compliance() {
 325:main.c        **** 	Compliance_Reached = 0;
 326:main.c        **** 	
 327:main.c        **** 	float current = 0;
 328:main.c        **** 	float currentSD = 0;
 329:main.c        **** 	
 330:main.c        **** 	Measure_Current_Vss(&current, &currentSD, 3);
 331:main.c        **** 	
 332:main.c        **** 	if (abs(current) > COMPLIANCE_CURRENT_LIMIT) {
 333:main.c        **** 		Compliance_Reached = 1;
 334:main.c        **** 		return 1;
 335:main.c        **** 	}
 336:main.c        **** 	
 337:main.c        **** 	return 0;
 338:main.c        **** }
 339:main.c        **** 
 340:main.c        **** void Handle_Compliance_Breach() {
 341:main.c        **** 	uint8 istart = VDAC_Vds_Data;
 342:main.c        **** 	uint8 istop = VDAC_Ref_Data;
 343:main.c        **** 	int8 increment = 1;
 344:main.c        **** 	if (istart < istop) increment = -1;
 345:main.c        **** 	
 346:main.c        **** 	for (uint8 i = istart; i != istop; i += increment) {
 347:main.c        **** 		VDAC_Vds_SetValue(i);
 348:main.c        **** 		
 349:main.c        **** 		if (!At_Compliance()) return;
 350:main.c        **** 	}
 351:main.c        **** 	
 352:main.c        **** 	istart = VDAC_Vgs_Data;
 353:main.c        **** 	istop = VDAC_Ref_Data;
 354:main.c        **** 	increment = 1;
 355:main.c        **** 	if (istart < istop) increment = -1;
 356:main.c        **** 	
 357:main.c        **** 	for (uint8 i = istart; i != istop; i += increment) {
 358:main.c        **** 		VDAC_Vgs_SetValue(i);
 359:main.c        **** 		
 360:main.c        **** 		if (!At_Compliance()) return;
 361:main.c        **** 	}
 362:main.c        **** 	
 363:main.c        **** 	// To do: Should disconnect something or take some other action at this point since still at compl
 364:main.c        **** }
 365:main.c        **** 
 366:main.c        **** // Get the reference voltage in volts
 367:main.c        **** float Get_Ref() {
ARM GAS  C:\Users\FRANKL~1\AppData\Local\Temp\ccggyhWi.s 			page 10


 368:main.c        **** 	float result = 4.080/255.0*VDAC_Ref_Data;
 369:main.c        **** 	if (VDAC_Ref_CR0 & (VDAC_Ref_RANGE_1V & VDAC_Ref_RANGE_MASK)) {
 370:main.c        **** 		result = 1.020/255.0*VDAC_Ref_Data;
 371:main.c        **** 	}
 372:main.c        **** 	return result;
 373:main.c        **** }
 374:main.c        **** 
 375:main.c        **** // Get Vgs in volts
 376:main.c        **** float Get_Vgs() {
 377:main.c        **** 	float result = 4.080/255.0*VDAC_Vgs_Data - Get_Ref();
 378:main.c        **** 	if (VDAC_Vgs_CR0 & (VDAC_Vgs_RANGE_1V & VDAC_Vgs_RANGE_MASK)) {
 379:main.c        **** 		result = 1.020/255.0*VDAC_Vgs_Data - Get_Ref();
 380:main.c        **** 	}
 381:main.c        **** 	return result;
 382:main.c        **** }
 383:main.c        **** 
 384:main.c        **** // Get Vds in volts
 385:main.c        **** float Get_Vds() {
 386:main.c        **** 	float result = 4.080/255.0*VDAC_Vds_Data - Get_Ref();
 387:main.c        **** 	if (VDAC_Vds_CR0 & (VDAC_Vds_RANGE_1V & VDAC_Vds_RANGE_MASK)) {
 388:main.c        **** 		result = 1.020/255.0*VDAC_Vds_Data - Get_Ref();
 389:main.c        **** 	}
 390:main.c        **** 	return result;
 391:main.c        **** }
 392:main.c        **** 
 393:main.c        **** 
 394:main.c        **** // ****************************
 395:main.c        **** // Set the raw value of Vds
 396:main.c        **** void Set_Vds_Raw(uint8 value) {
 397:main.c        **** 	Vds_Index_Goal_Relative = (int16)value - (int16)VDAC_Ref_Data;
 398:main.c        **** 	
 399:main.c        **** 	uint8 istart = VDAC_Vds_Data;
 400:main.c        **** 	int8 increment = 1;
 401:main.c        **** 	if (istart > value) increment = -1;
 402:main.c        **** 	
 403:main.c        **** 	for (uint8 i = 0; i != value; i += increment) {
 404:main.c        **** 		if (At_Compliance()) {
 405:main.c        **** 			for (uint8 j = i; j != istart; j -= increment) {
 406:main.c        **** 				VDAC_Vds_SetValue(j);
 407:main.c        **** 				
 408:main.c        **** 				if (!At_Compliance()) return;
 409:main.c        **** 			}
 410:main.c        **** 			if (At_Compliance()) {
 411:main.c        **** 				Handle_Compliance_Breach();
 412:main.c        **** 				return;
 413:main.c        **** 			}
 414:main.c        **** 		}
 415:main.c        **** 		
 416:main.c        **** 		VDAC_Vds_SetValue(i);
 417:main.c        **** 	}
 418:main.c        **** }
 419:main.c        **** 
 420:main.c        **** // Set the raw value of Vgs
 421:main.c        **** void Set_Vgs_Raw(uint8 value) {
 422:main.c        **** 	Vgs_Index_Goal_Relative = (int16)value - (int16)VDAC_Ref_Data;
 423:main.c        **** 	
 424:main.c        **** 	int8 increment = 1;
ARM GAS  C:\Users\FRANKL~1\AppData\Local\Temp\ccggyhWi.s 			page 11


 425:main.c        **** 	uint8 istart = VDAC_Vgs_Data;
 426:main.c        **** 	if (value < istart) increment = -1;
 427:main.c        **** 	
 428:main.c        **** 	for (uint8 i = istart; i != value; i += increment) {
 429:main.c        **** 		if (At_Compliance()) {
 430:main.c        **** 			for (uint8 j = i; j != istart; j -= increment) {
 431:main.c        **** 				VDAC_Vgs_SetValue(j);
 432:main.c        **** 				
 433:main.c        **** 				if (!At_Compliance()) return;
 434:main.c        **** 			}
 435:main.c        **** 			if (At_Compliance()) {
 436:main.c        **** 				Handle_Compliance_Breach();
 437:main.c        **** 				return;
 438:main.c        **** 			}
 439:main.c        **** 		}
 440:main.c        **** 		
 441:main.c        **** 		VDAC_Vgs_SetValue(i);
 442:main.c        **** 	}
 443:main.c        **** }
 444:main.c        **** 
 445:main.c        **** // Set the raw value of the reference voltage
 446:main.c        **** void Set_Ref_Raw(uint8 value) {
 447:main.c        **** 	int8 increment = 1;
 448:main.c        **** 	if (value < VDAC_Ref_Data) increment = -1;
 449:main.c        **** 	
 450:main.c        **** 	for (uint8 i = VDAC_Ref_Data; i != value; i += increment) {
 451:main.c        **** 		
 452:main.c        **** 		if (At_Compliance()) return;
 453:main.c        **** 		
 454:main.c        **** 		int16 new_Vgs = (int16)i + Vgs_Index_Goal_Relative;
 455:main.c        **** 		int16 new_Vds = (int16)i + Vds_Index_Goal_Relative;
 456:main.c        **** 		
 457:main.c        **** 		if (new_Vgs > 255) new_Vgs = 255;
 458:main.c        **** 		if (new_Vds > 255) new_Vds = 255;
 459:main.c        **** 		
 460:main.c        **** 		if (new_Vgs < 0) new_Vgs = 0;
 461:main.c        **** 		if (new_Vds < 0) new_Vds = 0;
 462:main.c        **** 		
 463:main.c        **** 		VDAC_Ref_SetValue(i);
 464:main.c        **** 		VDAC_Vgs_SetValue(new_Vgs);
 465:main.c        **** 		VDAC_Vds_SetValue(new_Vds);
 466:main.c        **** 	}
 467:main.c        **** }
 468:main.c        **** // ****************************
 469:main.c        **** 
 470:main.c        **** // Set Vds and move the reference voltage if necessary
 471:main.c        **** void Set_Vds_Rel(int16 value) {
 472:main.c        **** 	if (value > 255) value = 255;
 473:main.c        **** 	if (value < -255) value = -255;
 474:main.c        **** 	
 475:main.c        **** 	int16 absolute = (int16)value + (int16)VDAC_Ref_Data;
 476:main.c        **** 	
 477:main.c        **** 	if (absolute > 255) {
 478:main.c        **** 		Set_Ref_Raw(VDAC_Ref_Data - (absolute - 255));
 479:main.c        **** 		Set_Vds_Raw(255);
 480:main.c        **** 	} else if (absolute < 0) {
 481:main.c        **** 		Set_Ref_Raw(VDAC_Ref_Data - absolute);
ARM GAS  C:\Users\FRANKL~1\AppData\Local\Temp\ccggyhWi.s 			page 12


 482:main.c        **** 		Set_Vds_Raw(0);
 483:main.c        **** 	} else {
 484:main.c        **** 		Set_Vds_Raw(absolute);
 485:main.c        **** 	}
 486:main.c        **** 	
 487:main.c        **** 	Vds_Index_Goal_Relative = (int16)value;
 488:main.c        **** }
 489:main.c        **** 
 490:main.c        **** // Set Vgs and move the reference voltage if necessary
 491:main.c        **** void Set_Vgs_Rel(int16 value) {
 492:main.c        **** 	if (value > 255) value = 255;
 493:main.c        **** 	if (value < -255) value = -255;
 494:main.c        **** 	
 495:main.c        **** 	int16 absolute = (int16)value + (int16)VDAC_Ref_Data;
 496:main.c        **** 	
 497:main.c        **** 	if (absolute > 255) {
 498:main.c        **** 		Set_Ref_Raw(VDAC_Ref_Data - (absolute - 255));
 499:main.c        **** 		Set_Vgs_Raw(255);
 500:main.c        **** 	} else if (absolute < 0) {
 501:main.c        **** 		Set_Ref_Raw(VDAC_Ref_Data - absolute);
 502:main.c        **** 		Set_Vgs_Raw(0);
 503:main.c        **** 	} else {
 504:main.c        **** 		Set_Vgs_Raw(absolute);
 505:main.c        **** 	}
 506:main.c        **** 	
 507:main.c        **** 	Vgs_Index_Goal_Relative = (int16)value;
 508:main.c        **** }
 509:main.c        **** // ****************************
 510:main.c        **** 
 511:main.c        **** // Set Vgs by volts (good for readability, but requires passing floats)
 512:main.c        **** void Set_Vgs(float voltage) {
 513:main.c        **** 	Set_Vgs_Rel((voltage/4.080)*255.0);
 514:main.c        **** }
 515:main.c        **** 
 516:main.c        **** // Set Vds by volts (good for readability, but requires passing floats)
 517:main.c        **** void Set_Vds(float voltage) {
 518:main.c        **** 	Set_Vds_Rel((voltage/4.080)*255.0);
 519:main.c        **** }
 520:main.c        **** // ****************************
 521:main.c        **** 
 522:main.c        **** // Set Vgs by mV (good for passing in integers instead of floats)
 523:main.c        **** void Set_Vgs_mV(float mV) {
 524:main.c        **** 	Set_Vgs(mV/1000.0);
 525:main.c        **** }
 526:main.c        **** 
 527:main.c        **** // Set Vds by mV (good for passing in integers instead of floats)
 528:main.c        **** void Set_Vds_mV(float mV) {
 529:main.c        **** 	Set_Vds(mV/1000.0);
 530:main.c        **** }
 531:main.c        **** // ****************************
 532:main.c        **** 
 533:main.c        **** // Set Vgs and Vds to 0
 534:main.c        **** void Zero_All_DACs() {
 535:main.c        **** 	Set_Vds_Raw(0);
 536:main.c        **** 	Set_Vgs_Raw(0);
 537:main.c        **** 	
 538:main.c        **** 	VDAC_Vds_SetValue(0);
ARM GAS  C:\Users\FRANKL~1\AppData\Local\Temp\ccggyhWi.s 			page 13


 539:main.c        **** 	VDAC_Vgs_SetValue(0);
 540:main.c        **** }
 541:main.c        **** 
 542:main.c        **** // Take a measurement of the system (Id - from delta-sigma ADC, Vgs, Vds, SAR1 ADC, SAR2 ADC)
 543:main.c        **** void Measure(uint32 deltaSigmaSampleCount, uint32 SAR1_SampleCount, uint32 SAR2_SampleCount) {
 544:main.c        **** 	int32 IdsAverage = 0;
 545:main.c        **** 	int32 IdsStandardDeviation = 0;
 546:main.c        **** 	
 547:main.c        **** 	ADC_Measure_uV(&IdsAverage, &IdsStandardDeviation, deltaSigmaSampleCount);
 548:main.c        **** 	
 549:main.c        **** 	float IdsAverageAmps = -1e-6/20e3*IdsAverage;
 550:main.c        **** 	
 551:main.c        **** 	//ADC_SAR_1_StartConvert();
 552:main.c        **** 	//ADC_SAR_2_StartConvert();
 553:main.c        **** 	//while (!ADC_SAR_1_IsEndConversion(ADC_SAR_1_RETURN_STATUS));
 554:main.c        **** 	//while (!ADC_SAR_2_IsEndConversion(ADC_SAR_2_RETURN_STATUS));
 555:main.c        **** 	//float SAR1 = ADC_SAR_1_CountsTo_Volts(ADC_SAR_1_GetResult16());
 556:main.c        **** 	//float SAR2 = ADC_SAR_2_CountsTo_Volts(ADC_SAR_2_GetResult16());
 557:main.c        **** 	
 558:main.c        **** 	int32 SAR1_Average = 0;
 559:main.c        **** 	int32 SAR1_SD = 0;
 560:main.c        **** 	int32 SAR2_Average = 0;
 561:main.c        **** 	int32 SAR2_SD = 0;
 562:main.c        **** 
 563:main.c        **** 	SAR1_Measure_V(&SAR1_Average, &SAR1_SD, SAR1_SampleCount);
 564:main.c        **** 	SAR2_Measure_V(&SAR2_Average, &SAR2_SD, SAR2_SampleCount);
 565:main.c        **** 
 566:main.c        **** 	float SAR1 = 1e-6*SAR1_Average;
 567:main.c        **** 	float SAR2 = 1e-6*SAR2_Average;
 568:main.c        **** 
 569:main.c        **** 	sprintf(TransmitBuffer, "[%e,%f,%f,%f,%f]\r\n", IdsAverageAmps, Get_Vgs(), Get_Vds(), SAR1, SAR2);
 570:main.c        **** 	USBUARTH_Send(TransmitBuffer, strlen(TransmitBuffer));
 571:main.c        **** 	UART_1_PutString(TransmitBuffer);
 572:main.c        **** }
 573:main.c        **** 
 574:main.c        **** // Repeatedly take measurements of the system
 575:main.c        **** void Measure_Multiple(uint32 n) {
 576:main.c        **** 	for (uint32 i = 0; i < n; i++) {
 577:main.c        **** 		Measure(100, 1, 10);
 578:main.c        **** 	}
 579:main.c        **** }
 580:main.c        **** 
 581:main.c        **** // Take a basic gate sweep (hardcoded voltages, hardcoded number of data points)
 582:main.c        **** void Measure_Sweep() {
 583:main.c        **** 	VDAC_Vds_SetValue(90);
 584:main.c        **** 	VDAC_Vgs_SetValue(254);
 585:main.c        **** 	
 586:main.c        **** 	for (uint16 Vgsi = 0; Vgsi < 256; Vgsi++) {
 587:main.c        **** 		VDAC_Vgs_SetValue(Vgsi);
 588:main.c        **** 		Measure(100, 1, 1);
 589:main.c        **** 	}
 590:main.c        **** }
 591:main.c        **** 
 592:main.c        **** void Measure_Gate_Sweep(uint8 loop) {
 593:main.c        **** 	
 594:main.c        **** 	if (Vds_Index_Goal_Relative > 0) {
 595:main.c        **** 		Set_Ref_Raw(254 - Vds_Index_Goal_Relative);
ARM GAS  C:\Users\FRANKL~1\AppData\Local\Temp\ccggyhWi.s 			page 14


 596:main.c        **** 	} else {
 597:main.c        **** 		Set_Ref_Raw(254);
 598:main.c        **** 	}
 599:main.c        **** 	
 600:main.c        **** 	int8 speed = 16;
 601:main.c        **** 	
 602:main.c        **** 	for (uint8 l = 0; l <= loop; l++) {
 603:main.c        **** 		int8 direction = 1*speed;
 604:main.c        **** 		uint8 istart = 0;
 605:main.c        **** 		if (Vds_Index_Goal_Relative < 0) {
 606:main.c        **** 			istart = -Vds_Index_Goal_Relative;
 607:main.c        **** 		}
 608:main.c        **** 		
 609:main.c        **** 		uint8 istop = 256-speed;
 610:main.c        **** 		
 611:main.c        **** 		if (l%2 == 1) {
 612:main.c        **** 			direction = -1*speed;
 613:main.c        **** 			istart = 256-speed;
 614:main.c        **** 			istop = 0;
 615:main.c        **** 		}
 616:main.c        **** 		
 617:main.c        **** 		for (uint8 i = istart; i != istop; i += direction) {
 618:main.c        **** 			for (uint8 j = 0; j <= 1; j++) {
 619:main.c        **** 				if (j == 1) Set_Ref_Raw(254 - i + 1);
 620:main.c        **** 				Set_Vgs_Raw(i);
 621:main.c        **** 				
 622:main.c        **** 				Measure(33, 1, 1);
 623:main.c        **** 				
 624:main.c        **** 				if (G_Stop) break;
 625:main.c        **** 				while (G_Pause);
 626:main.c        **** 			}
 627:main.c        **** 		}
 628:main.c        **** 	}
 629:main.c        **** }
 630:main.c        **** 
 631:main.c        **** void Measure_Wide_Gate_Sweep(uint8 loop) {
 632:main.c        **** 	Set_Ref_Raw(254);
 633:main.c        **** 	
 634:main.c        **** 	int8 speed = 16;
 635:main.c        **** 	
 636:main.c        **** 	for (uint8 l = 0; l <= loop; l++) {
 637:main.c        **** 		int8 direction = 1*speed;
 638:main.c        **** 		uint8 istart = 0;
 639:main.c        **** 		uint8 istop = 256-speed;
 640:main.c        **** 		
 641:main.c        **** 		if (l%2 == 1) {
 642:main.c        **** 			direction = -1*speed;
 643:main.c        **** 			istart = 256-speed;
 644:main.c        **** 			istop = 0;
 645:main.c        **** 		}
 646:main.c        **** 		
 647:main.c        **** 		for (uint8 i = istart; i != istop; i += direction) {
 648:main.c        **** 			for (uint8 j = 0; j <= 1; j++) {
 649:main.c        **** 				
 650:main.c        **** 				if (j == 1) Set_Ref_Raw(254 - i + 1);
 651:main.c        **** 				Set_Vgs_Raw(i);
 652:main.c        **** 				
ARM GAS  C:\Users\FRANKL~1\AppData\Local\Temp\ccggyhWi.s 			page 15


 653:main.c        **** 				Measure(33, 1, 1);
 654:main.c        **** 				
 655:main.c        **** 				if (G_Stop) break;
 656:main.c        **** 				while (G_Pause);
 657:main.c        **** 			}
 658:main.c        **** 		}
 659:main.c        **** 	}
 660:main.c        **** }
 661:main.c        **** 
 662:main.c        **** void Measure_Gate_Sweep_New() {
 663:main.c        **** 	uint8 refTurn = 1;
 664:main.c        **** 	int8 refIncrement = 1;
 665:main.c        **** 	uint8 startRefIndex = 0;
 666:main.c        **** 	uint8 endRefIndex = 0;
 667:main.c        **** 	uint8 refIndex = startRefIndex;
 668:main.c        **** 	uint8 refArrived = 0;
 669:main.c        **** 	
 670:main.c        **** 	int8 gateIncrement = 1;
 671:main.c        **** 	uint8 startGateIndex = 0;
 672:main.c        **** 	uint8 endGateIndex = 0;
 673:main.c        **** 	uint8 gateIndex = startGateIndex;
 674:main.c        **** 	uint8 gateArrived = 0;
 675:main.c        **** 	
 676:main.c        **** 	
 677:main.c        **** 	while (!gateArrived || !refArrived) {
 678:main.c        **** 		gateArrived = abs(gateIndex-endGateIndex) < abs(gateIncrement);
 679:main.c        **** 		refArrived = abs(refIndex-endRefIndex) < abs(refIncrement);
 680:main.c        **** 		
 681:main.c        **** 		refTurn = !refTurn;
 682:main.c        **** 		
 683:main.c        **** 		if (refTurn && refArrived) continue;
 684:main.c        **** 		if (!refTurn && gateArrived) continue;
 685:main.c        **** 		
 686:main.c        **** 		Set_Ref_Raw(refIndex);
 687:main.c        **** 		Set_Vgs_Raw(gateIndex);
 688:main.c        **** 		
 689:main.c        **** 		Measure(100, 1, 1);
 690:main.c        **** 		
 691:main.c        **** 		if (refTurn) {
 692:main.c        **** 			refIndex += refIncrement;
 693:main.c        **** 		} else {
 694:main.c        **** 			gateIndex += gateIncrement;
 695:main.c        **** 		}
 696:main.c        **** 		
 697:main.c        **** 		if (G_Stop) break;
 698:main.c        **** 		while (G_Pause);
 699:main.c        **** 	}
 700:main.c        **** }
 701:main.c        **** 
 702:main.c        **** void Scan(uint8 wide, uint8 loop) {
 703:main.c        **** 	for (uint8 device = 1; device <= CONTACT_COUNT/**//2; device++) {
 704:main.c        **** 		uint8 contact1 = device;
 705:main.c        **** 		uint8 contact2 = device + 1;
 706:main.c        **** 		uint8 intermediate1 = 1;
 707:main.c        **** 		uint8 intermediate2 = 2;
 708:main.c        **** 		
 709:main.c        **** 		Disconnect_All_Contacts_From_All_Intermediates();
ARM GAS  C:\Users\FRANKL~1\AppData\Local\Temp\ccggyhWi.s 			page 16


 710:main.c        **** 		Zero_All_DACs();
 711:main.c        **** 		Connect_Intermediates();
 712:main.c        **** 		Connect_Contact_To_Intermediate(contact1, intermediate1);
 713:main.c        **** 		Connect_Contact_To_Intermediate(contact2, intermediate2);
 714:main.c        **** 		
 715:main.c        **** 		sprintf(TransmitBuffer, "\r\n%u\r\n", device);
 716:main.c        **** 		USBUARTH_Send(TransmitBuffer, strlen(TransmitBuffer));
 717:main.c        **** 		UART_1_PutString(TransmitBuffer);
 718:main.c        **** 		
 719:main.c        **** 		if (wide) {
 720:main.c        **** 			Measure_Wide_Gate_Sweep(loop);
 721:main.c        **** 		} else {
 722:main.c        **** 			Measure_Gate_Sweep(loop);
 723:main.c        **** 		}
 724:main.c        **** 		
 725:main.c        **** 		if (G_Break || G_Stop) break;
 726:main.c        **** 		while (G_Pause);
 727:main.c        **** 	}
 728:main.c        **** }
 729:main.c        **** 
 730:main.c        **** void Scan_Range(uint8 startDevice, uint8 stopDevice, uint8 wide, uint8 loop) {
 731:main.c        **** 	if (startDevice >= CONTACT_COUNT) return;
 732:main.c        **** 	if (stopDevice >= CONTACT_COUNT) return;
 733:main.c        **** 	
 734:main.c        **** 	for (uint8 device = startDevice; device <= stopDevice; device++) {
 735:main.c        **** 		uint8 contact1 = device;
 736:main.c        **** 		uint8 contact2 = device + 1;
 737:main.c        **** 		uint8 intermediate1 = 1;
 738:main.c        **** 		uint8 intermediate2 = 2;
 739:main.c        **** 		
 740:main.c        **** 		Disconnect_All_Contacts_From_All_Intermediates();
 741:main.c        **** 		Zero_All_DACs();
 742:main.c        **** 		Connect_Intermediates();
 743:main.c        **** 		Connect_Contact_To_Intermediate(contact1, intermediate1);
 744:main.c        **** 		Connect_Contact_To_Intermediate(contact2, intermediate2);
 745:main.c        **** 		
 746:main.c        **** 		sprintf(TransmitBuffer, "\r\n%u\r\n", device);
 747:main.c        **** 		USBUARTH_Send(TransmitBuffer, strlen(TransmitBuffer));
 748:main.c        **** 		UART_1_PutString(TransmitBuffer);
 749:main.c        **** 		
 750:main.c        **** 		if (wide) {
 751:main.c        **** 			Measure_Wide_Gate_Sweep(loop);
 752:main.c        **** 		} else {
 753:main.c        **** 			Measure_Gate_Sweep(loop);
 754:main.c        **** 		}
 755:main.c        **** 		
 756:main.c        **** 		if (G_Break || G_Stop) break;
 757:main.c        **** 		while (G_Pause);
 758:main.c        **** 	}
 759:main.c        **** }
 760:main.c        **** 
 761:main.c        **** CY_ISR (CommunicationHandlerISR) {
 109              		.loc 2 761 0
 110              		.cfi_startproc
 111              		@ args = 0, pretend = 0, frame = 64
 112              		@ frame_needed = 0, uses_anonymous_args = 0
 113 0000 30B5     		push	{r4, r5, lr}
ARM GAS  C:\Users\FRANKL~1\AppData\Local\Temp\ccggyhWi.s 			page 17


 114              		.cfi_def_cfa_offset 12
 115              		.cfi_offset 4, -12
 116              		.cfi_offset 5, -8
 117              		.cfi_offset 14, -4
 118 0002 91B0     		sub	sp, sp, #68
 119              		.cfi_def_cfa_offset 80
 762:main.c        **** 	if (USBUARTH_DataIsReady()) {
 120              		.loc 2 762 0
 121 0004 FFF7FEFF 		bl	USBUARTH_DataIsReady
 122              	.LVL8:
 123 0008 0028     		cmp	r0, #0
 124 000a 37D0     		beq	.L10
 125              	.LBB2:
 763:main.c        **** 		// USBUARTH_Receive_Until(UART_Receive_Buffer, USBUART_BUFFER_SIZE, "\r");
 764:main.c        **** 		
 765:main.c        **** 		char temp_buffer[USBUART_BUFFER_SIZE];
 766:main.c        **** 		uint8 temp_count = USBUART_GetAll((uint8*) temp_buffer);
 126              		.loc 2 766 0
 127 000c 6846     		mov	r0, sp
 128 000e FFF7FEFF 		bl	USBUART_GetAll
 129              	.LVL9:
 130 0012 C0B2     		uxtb	r0, r0
 131              	.LVL10:
 132              	.LBB3:
 767:main.c        **** 		
 768:main.c        **** 		for (uint8 i = 0; i < temp_count; i++) {
 133              		.loc 2 768 0
 134 0014 0023     		movs	r3, #0
 135 0016 2EE0     		b	.L11
 136              	.LVL11:
 137              	.L17:
 138              	.LBB4:
 769:main.c        **** 			char c = temp_buffer[i];
 139              		.loc 2 769 0
 140 0018 10AA     		add	r2, sp, #64
 141 001a 1A44     		add	r2, r2, r3
 142 001c 12F8402C 		ldrb	r2, [r2, #-64]	@ zero_extendqisi2
 143              	.LVL12:
 770:main.c        **** 			
 771:main.c        **** 			USBUART_Receive_Buffer[USBUART_Rx_Position] = c;
 144              		.loc 2 771 0
 145 0020 5949     		ldr	r1, .L31
 146 0022 0978     		ldrb	r1, [r1]	@ zero_extendqisi2
 147 0024 C9B2     		uxtb	r1, r1
 148 0026 594C     		ldr	r4, .L31+4
 149 0028 6254     		strb	r2, [r4, r1]
 772:main.c        **** 			
 773:main.c        **** 			// sprintf(TransmitBuffer, "USB: %c\r\n", USBUART_Receive_Buffer[USBUART_Rx_Position]);
 774:main.c        **** 			// UART_1_PutString(TransmitBuffer);
 775:main.c        **** 			
 776:main.c        **** 			if (c == '\r' || c == '\n' || c == '!') {
 150              		.loc 2 776 0
 151 002a 0D2A     		cmp	r2, #13
 152 002c 03D0     		beq	.L12
 153              		.loc 2 776 0 is_stmt 0 discriminator 1
 154 002e 0A2A     		cmp	r2, #10
 155 0030 01D0     		beq	.L12
ARM GAS  C:\Users\FRANKL~1\AppData\Local\Temp\ccggyhWi.s 			page 18


 156              		.loc 2 776 0 discriminator 2
 157 0032 212A     		cmp	r2, #33
 158 0034 10D1     		bne	.L13
 159              	.L12:
 777:main.c        **** 				USBUART_Receive_Buffer[USBUART_Rx_Position] = 0;
 160              		.loc 2 777 0 is_stmt 1
 161 0036 5449     		ldr	r1, .L31
 162 0038 0A78     		ldrb	r2, [r1]	@ zero_extendqisi2
 163              	.LVL13:
 164 003a D2B2     		uxtb	r2, r2
 165 003c 0025     		movs	r5, #0
 166 003e 534C     		ldr	r4, .L31+4
 167 0040 A554     		strb	r5, [r4, r2]
 778:main.c        **** 				if (USBUART_Rx_Position) newData = 1;
 168              		.loc 2 778 0
 169 0042 0A78     		ldrb	r2, [r1]	@ zero_extendqisi2
 170 0044 12F0FF0F 		tst	r2, #255
 171 0048 02D0     		beq	.L14
 172              		.loc 2 778 0 is_stmt 0 discriminator 1
 173 004a 0121     		movs	r1, #1
 174 004c 504A     		ldr	r2, .L31+8
 175 004e 1170     		strb	r1, [r2]
 176              	.L14:
 779:main.c        **** 				USBUART_Rx_Position = 0;
 177              		.loc 2 779 0 is_stmt 1
 178 0050 0021     		movs	r1, #0
 179 0052 4D4A     		ldr	r2, .L31
 180 0054 1170     		strb	r1, [r2]
 181 0056 04E0     		b	.L15
 182              	.LVL14:
 183              	.L13:
 780:main.c        **** 			} else {
 781:main.c        **** 				USBUART_Rx_Position++;
 184              		.loc 2 781 0
 185 0058 4B49     		ldr	r1, .L31
 186 005a 0A78     		ldrb	r2, [r1]	@ zero_extendqisi2
 187              	.LVL15:
 188 005c 0132     		adds	r2, r2, #1
 189 005e D2B2     		uxtb	r2, r2
 190 0060 0A70     		strb	r2, [r1]
 191              	.L15:
 782:main.c        **** 			}
 783:main.c        **** 			
 784:main.c        **** 			if (USBUART_Rx_Position >= USBUART_BUFFER_SIZE) USBUART_Rx_Position = 0;
 192              		.loc 2 784 0
 193 0062 494A     		ldr	r2, .L31
 194 0064 1278     		ldrb	r2, [r2]	@ zero_extendqisi2
 195 0066 D2B2     		uxtb	r2, r2
 196 0068 3F2A     		cmp	r2, #63
 197 006a 02D9     		bls	.L16
 198              		.loc 2 784 0 is_stmt 0 discriminator 1
 199 006c 0021     		movs	r1, #0
 200 006e 464A     		ldr	r2, .L31
 201 0070 1170     		strb	r1, [r2]
 202              	.L16:
 203              	.LBE4:
 768:main.c        **** 			char c = temp_buffer[i];
ARM GAS  C:\Users\FRANKL~1\AppData\Local\Temp\ccggyhWi.s 			page 19


 204              		.loc 2 768 0 is_stmt 1 discriminator 2
 205 0072 0133     		adds	r3, r3, #1
 206              	.LVL16:
 207 0074 DBB2     		uxtb	r3, r3
 208              	.LVL17:
 209              	.L11:
 768:main.c        **** 			char c = temp_buffer[i];
 210              		.loc 2 768 0 is_stmt 0 discriminator 1
 211 0076 8342     		cmp	r3, r0
 212 0078 CED3     		bcc	.L17
 213 007a 3AE0     		b	.L18
 214              	.LVL18:
 215              	.L10:
 216              	.LBE3:
 217              	.LBE2:
 785:main.c        **** 		}
 786:main.c        **** 	} else
 787:main.c        **** 	if (UART_1_GetRxBufferSize()) {
 218              		.loc 2 787 0 is_stmt 1
 219 007c FFF7FEFF 		bl	UART_1_GetRxBufferSize
 220              	.LVL19:
 221 0080 0028     		cmp	r0, #0
 222 0082 36D0     		beq	.L18
 788:main.c        **** 		UART_Receive_Buffer[UART_Rx_Position] = UART_1_GetChar();
 223              		.loc 2 788 0
 224 0084 434D     		ldr	r5, .L31+12
 225 0086 2C78     		ldrb	r4, [r5]	@ zero_extendqisi2
 226 0088 E4B2     		uxtb	r4, r4
 227 008a FFF7FEFF 		bl	UART_1_GetChar
 228              	.LVL20:
 229 008e 424A     		ldr	r2, .L31+16
 230 0090 1055     		strb	r0, [r2, r4]
 789:main.c        **** 		
 790:main.c        **** 		if (UART_Receive_Buffer[UART_Rx_Position] == '\r' || UART_Receive_Buffer[UART_Rx_Position] == '\n
 231              		.loc 2 790 0
 232 0092 2B78     		ldrb	r3, [r5]	@ zero_extendqisi2
 233 0094 DBB2     		uxtb	r3, r3
 234 0096 D35C     		ldrb	r3, [r2, r3]	@ zero_extendqisi2
 235 0098 DBB2     		uxtb	r3, r3
 236 009a 0D2B     		cmp	r3, #13
 237 009c 0BD0     		beq	.L19
 238              		.loc 2 790 0 is_stmt 0 discriminator 1
 239 009e 2B78     		ldrb	r3, [r5]	@ zero_extendqisi2
 240 00a0 DBB2     		uxtb	r3, r3
 241 00a2 D35C     		ldrb	r3, [r2, r3]	@ zero_extendqisi2
 242 00a4 DBB2     		uxtb	r3, r3
 243 00a6 0A2B     		cmp	r3, #10
 244 00a8 05D0     		beq	.L19
 245              		.loc 2 790 0 discriminator 2
 246 00aa 2B78     		ldrb	r3, [r5]	@ zero_extendqisi2
 247 00ac DBB2     		uxtb	r3, r3
 248 00ae D35C     		ldrb	r3, [r2, r3]	@ zero_extendqisi2
 249 00b0 DBB2     		uxtb	r3, r3
 250 00b2 212B     		cmp	r3, #33
 251 00b4 10D1     		bne	.L20
 252              	.L19:
 791:main.c        **** 			UART_Receive_Buffer[UART_Rx_Position] = 0;
ARM GAS  C:\Users\FRANKL~1\AppData\Local\Temp\ccggyhWi.s 			page 20


 253              		.loc 2 791 0 is_stmt 1
 254 00b6 374A     		ldr	r2, .L31+12
 255 00b8 1378     		ldrb	r3, [r2]	@ zero_extendqisi2
 256 00ba DBB2     		uxtb	r3, r3
 257 00bc 0020     		movs	r0, #0
 258 00be 3649     		ldr	r1, .L31+16
 259 00c0 C854     		strb	r0, [r1, r3]
 792:main.c        **** 			if (UART_Rx_Position) newData = 2;
 260              		.loc 2 792 0
 261 00c2 1378     		ldrb	r3, [r2]	@ zero_extendqisi2
 262 00c4 13F0FF0F 		tst	r3, #255
 263 00c8 02D0     		beq	.L21
 264              		.loc 2 792 0 is_stmt 0 discriminator 1
 265 00ca 0222     		movs	r2, #2
 266 00cc 304B     		ldr	r3, .L31+8
 267 00ce 1A70     		strb	r2, [r3]
 268              	.L21:
 793:main.c        **** 			UART_Rx_Position = 0;
 269              		.loc 2 793 0 is_stmt 1
 270 00d0 0022     		movs	r2, #0
 271 00d2 304B     		ldr	r3, .L31+12
 272 00d4 1A70     		strb	r2, [r3]
 273 00d6 04E0     		b	.L22
 274              	.L20:
 794:main.c        **** 		} else {
 795:main.c        **** 			UART_Rx_Position++;
 275              		.loc 2 795 0
 276 00d8 2E4A     		ldr	r2, .L31+12
 277 00da 1378     		ldrb	r3, [r2]	@ zero_extendqisi2
 278 00dc 0133     		adds	r3, r3, #1
 279 00de DBB2     		uxtb	r3, r3
 280 00e0 1370     		strb	r3, [r2]
 281              	.L22:
 796:main.c        **** 		}
 797:main.c        **** 		
 798:main.c        **** 		if (UART_Rx_Position >= USBUART_BUFFER_SIZE) UART_Rx_Position = 0;
 282              		.loc 2 798 0
 283 00e2 2C4B     		ldr	r3, .L31+12
 284 00e4 1B78     		ldrb	r3, [r3]	@ zero_extendqisi2
 285 00e6 DBB2     		uxtb	r3, r3
 286 00e8 3F2B     		cmp	r3, #63
 287 00ea 02D9     		bls	.L18
 288              		.loc 2 798 0 is_stmt 0 discriminator 1
 289 00ec 0022     		movs	r2, #0
 290 00ee 294B     		ldr	r3, .L31+12
 291 00f0 1A70     		strb	r2, [r3]
 292              	.L18:
 799:main.c        **** 	}
 800:main.c        **** 	
 801:main.c        **** 	if (newData) {
 293              		.loc 2 801 0 is_stmt 1
 294 00f2 274B     		ldr	r3, .L31+8
 295 00f4 1B78     		ldrb	r3, [r3]	@ zero_extendqisi2
 296 00f6 13F0FF0F 		tst	r3, #255
 297 00fa 3FD0     		beq	.L23
 298              	.LVL21:
 299              	.LBB5:
ARM GAS  C:\Users\FRANKL~1\AppData\Local\Temp\ccggyhWi.s 			page 21


 802:main.c        **** 		char* ReceiveBuffer = &USBUART_Receive_Buffer[0];
 803:main.c        **** 		if (newData == 2) ReceiveBuffer = &UART_Receive_Buffer[0];
 300              		.loc 2 803 0
 301 00fc 244B     		ldr	r3, .L31+8
 302 00fe 1B78     		ldrb	r3, [r3]	@ zero_extendqisi2
 303 0100 DBB2     		uxtb	r3, r3
 304 0102 022B     		cmp	r3, #2
 305 0104 01D0     		beq	.L29
 802:main.c        **** 		char* ReceiveBuffer = &USBUART_Receive_Buffer[0];
 306              		.loc 2 802 0
 307 0106 214C     		ldr	r4, .L31+4
 308 0108 00E0     		b	.L24
 309              	.L29:
 310              		.loc 2 803 0
 311 010a 234C     		ldr	r4, .L31+16
 312              	.L24:
 313              	.LVL22:
 804:main.c        **** 		
 805:main.c        **** 		if (strstr(ReceiveBuffer, "stop ") == &ReceiveBuffer[0]) {
 314              		.loc 2 805 0
 315 010c 2349     		ldr	r1, .L31+20
 316 010e 2046     		mov	r0, r4
 317 0110 FFF7FEFF 		bl	strstr
 318              	.LVL23:
 319 0114 8442     		cmp	r4, r0
 320 0116 05D1     		bne	.L25
 806:main.c        **** 			G_Stop = 1;
 321              		.loc 2 806 0
 322 0118 1D4B     		ldr	r3, .L31+8
 323 011a 0122     		movs	r2, #1
 324 011c 5A70     		strb	r2, [r3, #1]
 807:main.c        **** 			newData = 0;
 325              		.loc 2 807 0
 326 011e 0022     		movs	r2, #0
 327 0120 1A70     		strb	r2, [r3]
 328 0122 2BE0     		b	.L23
 329              	.L25:
 808:main.c        **** 		} else 
 809:main.c        **** 		if (strstr(ReceiveBuffer, "break ") == &ReceiveBuffer[0]) {
 330              		.loc 2 809 0
 331 0124 1E49     		ldr	r1, .L31+24
 332 0126 2046     		mov	r0, r4
 333 0128 FFF7FEFF 		bl	strstr
 334              	.LVL24:
 335 012c 8442     		cmp	r4, r0
 336 012e 05D1     		bne	.L26
 810:main.c        **** 			G_Break = 1;
 337              		.loc 2 810 0
 338 0130 174B     		ldr	r3, .L31+8
 339 0132 0122     		movs	r2, #1
 340 0134 9A70     		strb	r2, [r3, #2]
 811:main.c        **** 			newData = 0;
 341              		.loc 2 811 0
 342 0136 0022     		movs	r2, #0
 343 0138 1A70     		strb	r2, [r3]
 344 013a 1FE0     		b	.L23
 345              	.L26:
ARM GAS  C:\Users\FRANKL~1\AppData\Local\Temp\ccggyhWi.s 			page 22


 812:main.c        **** 		} else 
 813:main.c        **** 		if (strstr(ReceiveBuffer, "pause ") == &ReceiveBuffer[0]) {
 346              		.loc 2 813 0
 347 013c 1949     		ldr	r1, .L31+28
 348 013e 2046     		mov	r0, r4
 349 0140 FFF7FEFF 		bl	strstr
 350              	.LVL25:
 351 0144 8442     		cmp	r4, r0
 352 0146 05D1     		bne	.L27
 814:main.c        **** 			G_Pause = 1;
 353              		.loc 2 814 0
 354 0148 114B     		ldr	r3, .L31+8
 355 014a 0122     		movs	r2, #1
 356 014c DA70     		strb	r2, [r3, #3]
 815:main.c        **** 			newData = 0;
 357              		.loc 2 815 0
 358 014e 0022     		movs	r2, #0
 359 0150 1A70     		strb	r2, [r3]
 360 0152 13E0     		b	.L23
 361              	.L27:
 816:main.c        **** 		} else 
 817:main.c        **** 		if (strstr(ReceiveBuffer, "resume ") == &ReceiveBuffer[0]) {
 362              		.loc 2 817 0
 363 0154 1449     		ldr	r1, .L31+32
 364 0156 2046     		mov	r0, r4
 365 0158 FFF7FEFF 		bl	strstr
 366              	.LVL26:
 367 015c 8442     		cmp	r4, r0
 368 015e 04D1     		bne	.L28
 818:main.c        **** 			G_Pause = 0;
 369              		.loc 2 818 0
 370 0160 0B4B     		ldr	r3, .L31+8
 371 0162 0022     		movs	r2, #0
 372 0164 DA70     		strb	r2, [r3, #3]
 819:main.c        **** 			newData = 0;
 373              		.loc 2 819 0
 374 0166 1A70     		strb	r2, [r3]
 375 0168 08E0     		b	.L23
 376              	.L28:
 820:main.c        **** 		} else 
 821:main.c        **** 		if (strstr(ReceiveBuffer, "tristate ") == &ReceiveBuffer[0]) {
 377              		.loc 2 821 0
 378 016a 1049     		ldr	r1, .L31+36
 379 016c 2046     		mov	r0, r4
 380 016e FFF7FEFF 		bl	strstr
 381              	.LVL27:
 382 0172 8442     		cmp	r4, r0
 383 0174 02D1     		bne	.L23
 822:main.c        **** 			// To do
 823:main.c        **** 			newData = 0;
 384              		.loc 2 823 0
 385 0176 0022     		movs	r2, #0
 386 0178 054B     		ldr	r3, .L31+8
 387 017a 1A70     		strb	r2, [r3]
 388              	.LVL28:
 389              	.L23:
 390              	.LBE5:
ARM GAS  C:\Users\FRANKL~1\AppData\Local\Temp\ccggyhWi.s 			page 23


 824:main.c        **** 		}
 825:main.c        **** 	}
 826:main.c        **** 	
 827:main.c        **** 	CommunicationInterrupt_ClearPending();
 391              		.loc 2 827 0
 392 017c FFF7FEFF 		bl	CommunicationInterrupt_ClearPending
 393              	.LVL29:
 828:main.c        **** 	CommunicationTimer_ReadStatusRegister();
 394              		.loc 2 828 0
 395 0180 FFF7FEFF 		bl	CommunicationTimer_ReadStatusRegister
 396              	.LVL30:
 829:main.c        **** }
 397              		.loc 2 829 0
 398 0184 11B0     		add	sp, sp, #68
 399              		.cfi_def_cfa_offset 12
 400              		@ sp needed
 401 0186 30BD     		pop	{r4, r5, pc}
 402              	.L32:
 403              		.align	2
 404              	.L31:
 405 0188 00000000 		.word	USBUART_Rx_Position
 406 018c 00000000 		.word	USBUART_Receive_Buffer
 407 0190 00000000 		.word	.LANCHOR0
 408 0194 00000000 		.word	UART_Rx_Position
 409 0198 00000000 		.word	UART_Receive_Buffer
 410 019c 00000000 		.word	.LC0
 411 01a0 08000000 		.word	.LC1
 412 01a4 10000000 		.word	.LC2
 413 01a8 18000000 		.word	.LC3
 414 01ac 20000000 		.word	.LC4
 415              		.cfi_endproc
 416              	.LFE108:
 417              		.size	CommunicationHandlerISR, .-CommunicationHandlerISR
 418              		.section	.text.USBUARTH_Send,"ax",%progbits
 419              		.align	2
 420              		.global	USBUARTH_Send
 421              		.thumb
 422              		.thumb_func
 423              		.type	USBUARTH_Send, %function
 424              	USBUARTH_Send:
 425              	.LFB66:
  39:USBUART_Helpers.h **** 
  40:USBUART_Helpers.h **** 
  41:USBUART_Helpers.h **** uint8 USBUARTH_Send(char* buffer, uint16 count) {
 426              		.loc 1 41 0
 427              		.cfi_startproc
 428              		@ args = 0, pretend = 0, frame = 0
 429              		@ frame_needed = 0, uses_anonymous_args = 0
 430              	.LVL31:
  42:USBUART_Helpers.h **** 	if (count > 0) {
 431              		.loc 1 42 0
 432 0000 49B9     		cbnz	r1, .L39
  43:USBUART_Helpers.h **** 		// Wait until component is ready to send data to host.
  44:USBUART_Helpers.h **** 		for (uint32 tries = 0; tries < 10; tries++) {
  45:USBUART_Helpers.h **** 			USBUARTH_Maintain_Configuration();
  46:USBUART_Helpers.h **** 			if (USBUART_CDCIsReady()) break;
  47:USBUART_Helpers.h **** 		}
ARM GAS  C:\Users\FRANKL~1\AppData\Local\Temp\ccggyhWi.s 			page 24


  48:USBUART_Helpers.h ****         
  49:USBUART_Helpers.h **** 		if (!USBUART_CDCIsReady()) return 0;
  50:USBUART_Helpers.h **** 		
  51:USBUART_Helpers.h **** 		// Send data to host
  52:USBUART_Helpers.h **** 		USBUART_PutData((uint8*) buffer, count);
  53:USBUART_Helpers.h **** 		
  54:USBUART_Helpers.h **** 		/* If the last sent packet is exactly the maximum packet 
  55:USBUART_Helpers.h **** 		*  size, it is followed by a zero-length packet to assure
  56:USBUART_Helpers.h **** 		*  that the end of the segment is properly identified by 
  57:USBUART_Helpers.h **** 		*  the terminal.
  58:USBUART_Helpers.h **** 		*/
  59:USBUART_Helpers.h **** 		if (USBUART_BUFFER_SIZE == count) {
  60:USBUART_Helpers.h **** 			// Wait until component is ready to send data to PC.
  61:USBUART_Helpers.h **** 			while (!USBUART_CDCIsReady());
  62:USBUART_Helpers.h ****             
  63:USBUART_Helpers.h **** 			// Send zero-length packet to PC.
  64:USBUART_Helpers.h **** 			USBUART_PutData(NULL, 0);
  65:USBUART_Helpers.h **** 		}
  66:USBUART_Helpers.h **** 	}
  67:USBUART_Helpers.h **** 	
  68:USBUART_Helpers.h **** 	return 1;
 433              		.loc 1 68 0
 434 0002 0123     		movs	r3, #1
  69:USBUART_Helpers.h **** }
 435              		.loc 1 69 0
 436 0004 1846     		mov	r0, r3
 437              	.LVL32:
 438 0006 7047     		bx	lr
 439              	.LVL33:
 440              	.L37:
 441              		.cfi_def_cfa_offset 16
 442              		.cfi_offset 4, -16
 443              		.cfi_offset 5, -12
 444              		.cfi_offset 6, -8
 445              		.cfi_offset 14, -4
 446              	.LBB6:
  45:USBUART_Helpers.h **** 			if (USBUART_CDCIsReady()) break;
 447              		.loc 1 45 0
 448 0008 FFF7FEFF 		bl	USBUARTH_Maintain_Configuration
 449              	.LVL34:
  46:USBUART_Helpers.h **** 		}
 450              		.loc 1 46 0
 451 000c FFF7FEFF 		bl	USBUART_CDCIsReady
 452              	.LVL35:
 453 0010 38B9     		cbnz	r0, .L36
  44:USBUART_Helpers.h **** 			USBUARTH_Maintain_Configuration();
 454              		.loc 1 44 0 discriminator 2
 455 0012 0134     		adds	r4, r4, #1
 456              	.LVL36:
 457 0014 03E0     		b	.L34
 458              	.LVL37:
 459              	.L39:
 460              		.cfi_def_cfa_offset 0
 461              		.cfi_restore 4
 462              		.cfi_restore 5
 463              		.cfi_restore 6
 464              		.cfi_restore 14
ARM GAS  C:\Users\FRANKL~1\AppData\Local\Temp\ccggyhWi.s 			page 25


 465              	.LBE6:
  41:USBUART_Helpers.h **** 	if (count > 0) {
 466              		.loc 1 41 0
 467 0016 70B5     		push	{r4, r5, r6, lr}
 468              		.cfi_def_cfa_offset 16
 469              		.cfi_offset 4, -16
 470              		.cfi_offset 5, -12
 471              		.cfi_offset 6, -8
 472              		.cfi_offset 14, -4
 473 0018 0D46     		mov	r5, r1
 474 001a 0646     		mov	r6, r0
 475 001c 0024     		movs	r4, #0
 476              	.LVL38:
 477              	.L34:
 478              	.LBB7:
  44:USBUART_Helpers.h **** 			USBUARTH_Maintain_Configuration();
 479              		.loc 1 44 0 discriminator 1
 480 001e 092C     		cmp	r4, #9
 481 0020 F2D9     		bls	.L37
 482              	.L36:
 483              	.LBE7:
  49:USBUART_Helpers.h **** 		
 484              		.loc 1 49 0
 485 0022 FFF7FEFF 		bl	USBUART_CDCIsReady
 486              	.LVL39:
 487 0026 0346     		mov	r3, r0
 488 0028 80B1     		cbz	r0, .L35
  52:USBUART_Helpers.h **** 		
 489              		.loc 1 52 0
 490 002a 2946     		mov	r1, r5
 491 002c 3046     		mov	r0, r6
 492 002e FFF7FEFF 		bl	USBUART_PutData
 493              	.LVL40:
  59:USBUART_Helpers.h **** 			// Wait until component is ready to send data to PC.
 494              		.loc 1 59 0
 495 0032 402D     		cmp	r5, #64
 496 0034 09D1     		bne	.L40
 497              	.L38:
  61:USBUART_Helpers.h ****             
 498              		.loc 1 61 0 discriminator 1
 499 0036 FFF7FEFF 		bl	USBUART_CDCIsReady
 500              	.LVL41:
 501 003a 0028     		cmp	r0, #0
 502 003c FBD0     		beq	.L38
  64:USBUART_Helpers.h **** 		}
 503              		.loc 1 64 0
 504 003e 0021     		movs	r1, #0
 505 0040 0846     		mov	r0, r1
 506 0042 FFF7FEFF 		bl	USBUART_PutData
 507              	.LVL42:
  68:USBUART_Helpers.h **** }
 508              		.loc 1 68 0
 509 0046 0123     		movs	r3, #1
 510 0048 00E0     		b	.L35
 511              	.L40:
 512 004a 0123     		movs	r3, #1
 513              	.L35:
ARM GAS  C:\Users\FRANKL~1\AppData\Local\Temp\ccggyhWi.s 			page 26


 514              		.loc 1 69 0
 515 004c 1846     		mov	r0, r3
 516 004e 70BD     		pop	{r4, r5, r6, pc}
 517              		.cfi_endproc
 518              	.LFE66:
 519              		.size	USBUARTH_Send, .-USBUARTH_Send
 520              		.section	.text.USBUARTH_Receive,"ax",%progbits
 521              		.align	2
 522              		.global	USBUARTH_Receive
 523              		.thumb
 524              		.thumb_func
 525              		.type	USBUARTH_Receive, %function
 526              	USBUARTH_Receive:
 527              	.LFB67:
  70:USBUART_Helpers.h **** 
  71:USBUART_Helpers.h **** uint8 USBUARTH_Receive(char* buffer, uint16* count) {
 528              		.loc 1 71 0
 529              		.cfi_startproc
 530              		@ args = 0, pretend = 0, frame = 0
 531              		@ frame_needed = 0, uses_anonymous_args = 0
 532              	.LVL43:
 533 0000 38B5     		push	{r3, r4, r5, lr}
 534              		.cfi_def_cfa_offset 16
 535              		.cfi_offset 3, -16
 536              		.cfi_offset 4, -12
 537              		.cfi_offset 5, -8
 538              		.cfi_offset 14, -4
 539 0002 0446     		mov	r4, r0
 540 0004 0D46     		mov	r5, r1
  72:USBUART_Helpers.h **** 	// Wait for input data from host
  73:USBUART_Helpers.h **** 	while (!USBUART_DataIsReady()) USBUARTH_Maintain_Configuration();
 541              		.loc 1 73 0
 542 0006 01E0     		b	.L43
 543              	.LVL44:
 544              	.L44:
 545              		.loc 1 73 0 is_stmt 0 discriminator 2
 546 0008 FFF7FEFF 		bl	USBUARTH_Maintain_Configuration
 547              	.LVL45:
 548              	.L43:
 549              		.loc 1 73 0 discriminator 1
 550 000c FFF7FEFF 		bl	USBUART_DataIsReady
 551              	.LVL46:
 552 0010 0028     		cmp	r0, #0
 553 0012 F9D0     		beq	.L44
  74:USBUART_Helpers.h **** 	
  75:USBUART_Helpers.h **** 	// Read received data and re-enable OUT endpoint.
  76:USBUART_Helpers.h **** 	*count = USBUART_GetAll((uint8*) buffer);
 554              		.loc 1 76 0 is_stmt 1
 555 0014 2046     		mov	r0, r4
 556 0016 FFF7FEFF 		bl	USBUART_GetAll
 557              	.LVL47:
 558 001a 2880     		strh	r0, [r5]	@ movhi
  77:USBUART_Helpers.h **** 	
  78:USBUART_Helpers.h **** 	buffer[*count] = 0;
 559              		.loc 1 78 0
 560 001c 0023     		movs	r3, #0
 561 001e 2354     		strb	r3, [r4, r0]
ARM GAS  C:\Users\FRANKL~1\AppData\Local\Temp\ccggyhWi.s 			page 27


  79:USBUART_Helpers.h **** 	
  80:USBUART_Helpers.h **** 	return 1u;
  81:USBUART_Helpers.h **** }
 562              		.loc 1 81 0
 563 0020 0120     		movs	r0, #1
 564 0022 38BD     		pop	{r3, r4, r5, pc}
 565              		.cfi_endproc
 566              	.LFE67:
 567              		.size	USBUARTH_Receive, .-USBUARTH_Receive
 568              		.section	.text.USBUARTH_GetChar,"ax",%progbits
 569              		.align	2
 570              		.global	USBUARTH_GetChar
 571              		.thumb
 572              		.thumb_func
 573              		.type	USBUARTH_GetChar, %function
 574              	USBUARTH_GetChar:
 575              	.LFB68:
  82:USBUART_Helpers.h **** 
  83:USBUART_Helpers.h **** char USBUARTH_GetChar() {
 576              		.loc 1 83 0
 577              		.cfi_startproc
 578              		@ args = 0, pretend = 0, frame = 0
 579              		@ frame_needed = 0, uses_anonymous_args = 0
 580 0000 08B5     		push	{r3, lr}
 581              		.cfi_def_cfa_offset 8
 582              		.cfi_offset 3, -8
 583              		.cfi_offset 14, -4
  84:USBUART_Helpers.h **** 	while (!USBUART_DataIsReady()) USBUARTH_Maintain_Configuration();
 584              		.loc 1 84 0
 585 0002 01E0     		b	.L47
 586              	.L48:
 587              		.loc 1 84 0 is_stmt 0 discriminator 2
 588 0004 FFF7FEFF 		bl	USBUARTH_Maintain_Configuration
 589              	.LVL48:
 590              	.L47:
 591              		.loc 1 84 0 discriminator 1
 592 0008 FFF7FEFF 		bl	USBUART_DataIsReady
 593              	.LVL49:
 594 000c 0028     		cmp	r0, #0
 595 000e F9D0     		beq	.L48
  85:USBUART_Helpers.h **** 	
  86:USBUART_Helpers.h **** 	return USBUART_GetChar();
 596              		.loc 1 86 0 is_stmt 1
 597 0010 FFF7FEFF 		bl	USBUART_GetChar
 598              	.LVL50:
  87:USBUART_Helpers.h **** }
 599              		.loc 1 87 0
 600 0014 08BD     		pop	{r3, pc}
 601              		.cfi_endproc
 602              	.LFE68:
 603              		.size	USBUARTH_GetChar, .-USBUARTH_GetChar
 604 0016 00BF     		.section	.text.USBUARTH_Receive_Until,"ax",%progbits
 605              		.align	2
 606              		.global	USBUARTH_Receive_Until
 607              		.thumb
 608              		.thumb_func
 609              		.type	USBUARTH_Receive_Until, %function
ARM GAS  C:\Users\FRANKL~1\AppData\Local\Temp\ccggyhWi.s 			page 28


 610              	USBUARTH_Receive_Until:
 611              	.LFB69:
  88:USBUART_Helpers.h **** 
  89:USBUART_Helpers.h **** uint8 USBUARTH_Receive_Until(char* buffer, uint16 maxLength, const char* termination) {
 612              		.loc 1 89 0
 613              		.cfi_startproc
 614              		@ args = 0, pretend = 0, frame = 0
 615              		@ frame_needed = 0, uses_anonymous_args = 0
 616              	.LVL51:
 617 0000 2DE9F041 		push	{r4, r5, r6, r7, r8, lr}
 618              		.cfi_def_cfa_offset 24
 619              		.cfi_offset 4, -24
 620              		.cfi_offset 5, -20
 621              		.cfi_offset 6, -16
 622              		.cfi_offset 7, -12
 623              		.cfi_offset 8, -8
 624              		.cfi_offset 14, -4
 625 0004 0546     		mov	r5, r0
 626 0006 0E46     		mov	r6, r1
 627 0008 1746     		mov	r7, r2
 628              	.LVL52:
 629              	.LBB8:
  90:USBUART_Helpers.h **** 	for (uint16 i = 0; i < maxLength; i++) {
 630              		.loc 1 90 0
 631 000a 0023     		movs	r3, #0
 632 000c 03E0     		b	.L51
 633              	.LVL53:
 634              	.L52:
  91:USBUART_Helpers.h **** 		buffer[i] = 0;
 635              		.loc 1 91 0 discriminator 3
 636 000e 0022     		movs	r2, #0
 637 0010 EA54     		strb	r2, [r5, r3]
  90:USBUART_Helpers.h **** 	for (uint16 i = 0; i < maxLength; i++) {
 638              		.loc 1 90 0 discriminator 3
 639 0012 0133     		adds	r3, r3, #1
 640              	.LVL54:
 641 0014 9BB2     		uxth	r3, r3
 642              	.LVL55:
 643              	.L51:
  90:USBUART_Helpers.h **** 	for (uint16 i = 0; i < maxLength; i++) {
 644              		.loc 1 90 0 is_stmt 0 discriminator 1
 645 0016 B342     		cmp	r3, r6
 646 0018 F9D3     		bcc	.L52
 647 001a 0024     		movs	r4, #0
 648 001c 16E0     		b	.L53
 649              	.LVL56:
 650              	.L56:
 651              	.LBE8:
 652              	.LBB9:
  92:USBUART_Helpers.h **** 	}
  93:USBUART_Helpers.h **** 	
  94:USBUART_Helpers.h **** 	for (uint16 i = 0; i < maxLength - 1; i++) {
  95:USBUART_Helpers.h **** 		buffer[i] = USBUARTH_GetChar();
 653              		.loc 1 95 0 is_stmt 1
 654 001e FFF7FEFF 		bl	USBUARTH_GetChar
 655              	.LVL57:
 656 0022 2855     		strb	r0, [r5, r4]
ARM GAS  C:\Users\FRANKL~1\AppData\Local\Temp\ccggyhWi.s 			page 29


  96:USBUART_Helpers.h **** 		buffer[i+1] = 0;
 657              		.loc 1 96 0
 658 0024 631C     		adds	r3, r4, #1
 659 0026 0022     		movs	r2, #0
 660 0028 EA54     		strb	r2, [r5, r3]
  97:USBUART_Helpers.h **** 		
  98:USBUART_Helpers.h **** 		if (strstr(buffer, termination)) {
 661              		.loc 1 98 0
 662 002a 3946     		mov	r1, r7
 663 002c 2846     		mov	r0, r5
 664 002e FFF7FEFF 		bl	strstr
 665              	.LVL58:
 666 0032 48B1     		cbz	r0, .L54
  99:USBUART_Helpers.h **** 			buffer[i + 1 - strlen(termination)] = 0;
 667              		.loc 1 99 0
 668 0034 3846     		mov	r0, r7
 669 0036 FFF7FEFF 		bl	strlen
 670              	.LVL59:
 671 003a 201A     		subs	r0, r4, r0
 672 003c 0130     		adds	r0, r0, #1
 673 003e 0023     		movs	r3, #0
 674 0040 2B54     		strb	r3, [r5, r0]
 100:USBUART_Helpers.h **** 			return 1;
 675              		.loc 1 100 0
 676 0042 0120     		movs	r0, #1
 677 0044 BDE8F081 		pop	{r4, r5, r6, r7, r8, pc}
 678              	.LVL60:
 679              	.L54:
  94:USBUART_Helpers.h **** 		buffer[i] = USBUARTH_GetChar();
 680              		.loc 1 94 0 discriminator 2
 681 0048 0134     		adds	r4, r4, #1
 682              	.LVL61:
 683 004a A4B2     		uxth	r4, r4
 684              	.LVL62:
 685              	.L53:
  94:USBUART_Helpers.h **** 		buffer[i] = USBUARTH_GetChar();
 686              		.loc 1 94 0 is_stmt 0 discriminator 1
 687 004c 731E     		subs	r3, r6, #1
 688 004e 9C42     		cmp	r4, r3
 689 0050 E5DB     		blt	.L56
 690              	.LBE9:
 101:USBUART_Helpers.h **** 		}
 102:USBUART_Helpers.h **** 	}
 103:USBUART_Helpers.h **** 	
 104:USBUART_Helpers.h **** 	return 0;
 691              		.loc 1 104 0 is_stmt 1
 692 0052 0020     		movs	r0, #0
 105:USBUART_Helpers.h **** }
 693              		.loc 1 105 0
 694 0054 BDE8F081 		pop	{r4, r5, r6, r7, r8, pc}
 695              		.cfi_endproc
 696              	.LFE69:
 697              		.size	USBUARTH_Receive_Until, .-USBUARTH_Receive_Until
 698              		.section	.text.Setup_Selector_I2C_Struct,"ax",%progbits
 699              		.align	2
 700              		.global	Setup_Selector_I2C_Struct
 701              		.thumb
ARM GAS  C:\Users\FRANKL~1\AppData\Local\Temp\ccggyhWi.s 			page 30


 702              		.thumb_func
 703              		.type	Setup_Selector_I2C_Struct, %function
 704              	Setup_Selector_I2C_Struct:
 705              	.LFB70:
  49:main.c        **** 	selector->write.subAddress = 1;
 706              		.loc 2 49 0
 707              		.cfi_startproc
 708              		@ args = 0, pretend = 0, frame = 0
 709              		@ frame_needed = 0, uses_anonymous_args = 0
 710              		@ link register save eliminated.
 711              	.LVL63:
  50:main.c        **** 	selector->read.subAddress = sizeof(selector->write) + 1;
 712              		.loc 2 50 0
 713 0000 0123     		movs	r3, #1
 714 0002 0370     		strb	r3, [r0]
  51:main.c        **** 	
 715              		.loc 2 51 0
 716 0004 8023     		movs	r3, #128
 717 0006 80F87F30 		strb	r3, [r0, #127]
 718              	.LVL64:
 719              	.LBB10:
  53:main.c        **** 		selector->write.data[i] = i + 6;
 720              		.loc 2 53 0
 721 000a 0023     		movs	r3, #0
 722 000c 04E0     		b	.L59
 723              	.LVL65:
 724              	.L60:
  54:main.c        **** 	}
 725              		.loc 2 54 0 discriminator 3
 726 000e C218     		adds	r2, r0, r3
 727 0010 991D     		adds	r1, r3, #6
 728 0012 5170     		strb	r1, [r2, #1]
  53:main.c        **** 		selector->write.data[i] = i + 6;
 729              		.loc 2 53 0 discriminator 3
 730 0014 0133     		adds	r3, r3, #1
 731              	.LVL66:
 732 0016 9BB2     		uxth	r3, r3
 733              	.LVL67:
 734              	.L59:
  53:main.c        **** 		selector->write.data[i] = i + 6;
 735              		.loc 2 53 0 is_stmt 0 discriminator 1
 736 0018 7D2B     		cmp	r3, #125
 737 001a F8D9     		bls	.L60
 738 001c 0023     		movs	r3, #0
 739              	.LVL68:
 740 001e 05E0     		b	.L61
 741              	.LVL69:
 742              	.L62:
 743              	.LBE10:
 744              	.LBB11:
  57:main.c        **** 	}
 745              		.loc 2 57 0 is_stmt 1 discriminator 3
 746 0020 C218     		adds	r2, r0, r3
 747 0022 BE21     		movs	r1, #190
 748 0024 82F88010 		strb	r1, [r2, #128]
  56:main.c        **** 		selector->read.data[i] = 0xbe;
 749              		.loc 2 56 0 discriminator 3
ARM GAS  C:\Users\FRANKL~1\AppData\Local\Temp\ccggyhWi.s 			page 31


 750 0028 0133     		adds	r3, r3, #1
 751              	.LVL70:
 752 002a 9BB2     		uxth	r3, r3
 753              	.LVL71:
 754              	.L61:
  56:main.c        **** 		selector->read.data[i] = 0xbe;
 755              		.loc 2 56 0 is_stmt 0 discriminator 1
 756 002c 7D2B     		cmp	r3, #125
 757 002e F7D9     		bls	.L62
 758              	.LBE11:
  59:main.c        **** 
 759              		.loc 2 59 0 is_stmt 1
 760 0030 7047     		bx	lr
 761              		.cfi_endproc
 762              	.LFE70:
 763              		.size	Setup_Selector_I2C_Struct, .-Setup_Selector_I2C_Struct
 764              		.global	__aeabi_dcmpge
 765              		.global	__aeabi_ui2d
 766              		.global	__aeabi_dcmplt
 767 0032 00BF     		.section	.text.Update_Selector,"ax",%progbits
 768              		.align	2
 769              		.global	Update_Selector
 770              		.thumb
 771              		.thumb_func
 772              		.type	Update_Selector, %function
 773              	Update_Selector:
 774              	.LFB71:
  61:main.c        **** 	sprintf(TransmitBuffer, "Updating Selector %u\r\n", selectori + 1);
 775              		.loc 2 61 0
 776              		.cfi_startproc
 777              		@ args = 0, pretend = 0, frame = 0
 778              		@ frame_needed = 0, uses_anonymous_args = 0
 779              	.LVL72:
 780 0000 2DE9F041 		push	{r4, r5, r6, r7, r8, lr}
 781              		.cfi_def_cfa_offset 24
 782              		.cfi_offset 4, -24
 783              		.cfi_offset 5, -20
 784              		.cfi_offset 6, -16
 785              		.cfi_offset 7, -12
 786              		.cfi_offset 8, -8
 787              		.cfi_offset 14, -4
 788 0004 0446     		mov	r4, r0
  62:main.c        **** 	USBUARTH_Send(TransmitBuffer, strlen(TransmitBuffer));
 789              		.loc 2 62 0
 790 0006 00F10108 		add	r8, r0, #1
 791 000a 594D     		ldr	r5, .L74+16
 792 000c 4246     		mov	r2, r8
 793 000e 5949     		ldr	r1, .L74+20
 794 0010 2846     		mov	r0, r5
 795              	.LVL73:
 796 0012 FFF7FEFF 		bl	sprintf
 797              	.LVL74:
  63:main.c        **** 	UART_1_PutString(TransmitBuffer);
 798              		.loc 2 63 0
 799 0016 2846     		mov	r0, r5
 800 0018 FFF7FEFF 		bl	strlen
 801              	.LVL75:
ARM GAS  C:\Users\FRANKL~1\AppData\Local\Temp\ccggyhWi.s 			page 32


 802 001c 81B2     		uxth	r1, r0
 803 001e 2846     		mov	r0, r5
 804 0020 FFF7FEFF 		bl	USBUARTH_Send
 805              	.LVL76:
  64:main.c        **** 	
 806              		.loc 2 64 0
 807 0024 2846     		mov	r0, r5
 808 0026 FFF7FEFF 		bl	UART_1_PutString
 809              	.LVL77:
  68:main.c        **** 	I2C_1_MasterWriteBuf(selector->busAddress, (uint8 *) &selector->write, sizeof(selector->write), I2
 810              		.loc 2 68 0
 811 002a FFF7FEFF 		bl	I2C_1_MasterClearStatus
 812              	.LVL78:
  69:main.c        **** 	for (uint32 i = 0; i < 4e5; i++) {
 813              		.loc 2 69 0
 814 002e C4EB0424 		rsb	r4, r4, r4, lsl #8
 815              	.LVL79:
 816 0032 514B     		ldr	r3, .L74+24
 817 0034 1C44     		add	r4, r4, r3
 818 0036 0023     		movs	r3, #0
 819 0038 7F22     		movs	r2, #127
 820 003a 2146     		mov	r1, r4
 821 003c 94F8FE00 		ldrb	r0, [r4, #254]	@ zero_extendqisi2
 822 0040 FFF7FEFF 		bl	I2C_1_MasterWriteBuf
 823              	.LVL80:
 824              	.LBB12:
  70:main.c        **** 		if ((I2C_1_MasterStatus() & I2C_1_MSTAT_WR_CMPLT)) break;
 825              		.loc 2 70 0
 826 0044 0024     		movs	r4, #0
 827 0046 2CE0     		b	.L64
 828              	.LVL81:
 829              	.L69:
  71:main.c        **** 		if (i >= 4e5 - 1) {
 830              		.loc 2 71 0
 831 0048 FFF7FEFF 		bl	I2C_1_MasterStatus
 832              	.LVL82:
 833 004c 10F0020F 		tst	r0, #2
 834 0050 33D1     		bne	.L65
  72:main.c        **** 			sprintf(TransmitBuffer, "I2C Transfer Error! Type: Timeout\r\n");
 835              		.loc 2 72 0
 836 0052 43A3     		adr	r3, .L74
 837 0054 D3E90023 		ldrd	r2, [r3]
 838 0058 3046     		mov	r0, r6
 839 005a 3946     		mov	r1, r7
 840 005c FFF7FEFF 		bl	__aeabi_dcmpge
 841              	.LVL83:
 842 0060 F0B1     		cbz	r0, .L66
  73:main.c        **** 			USBUARTH_Send(TransmitBuffer, strlen(TransmitBuffer));
 843              		.loc 2 73 0
 844 0062 464F     		ldr	r7, .L74+28
 845 0064 424D     		ldr	r5, .L74+16
 846 0066 07F1200E 		add	lr, r7, #32
 847              	.L68:
 848 006a 3E46     		mov	r6, r7
 849 006c 0FCE     		ldmia	r6!, {r0, r1, r2, r3}
 850 006e 2860     		str	r0, [r5]	@ unaligned
 851 0070 6960     		str	r1, [r5, #4]	@ unaligned
ARM GAS  C:\Users\FRANKL~1\AppData\Local\Temp\ccggyhWi.s 			page 33


 852 0072 AA60     		str	r2, [r5, #8]	@ unaligned
 853 0074 EB60     		str	r3, [r5, #12]	@ unaligned
 854 0076 3746     		mov	r7, r6
 855 0078 1035     		adds	r5, r5, #16
 856 007a 7645     		cmp	r6, lr
 857 007c F5D1     		bne	.L68
 858 007e 3068     		ldr	r0, [r6]	@ unaligned
 859 0080 2860     		str	r0, [r5]	@ unaligned
  74:main.c        **** 			UART_1_PutString(TransmitBuffer);
 860              		.loc 2 74 0
 861 0082 3B4D     		ldr	r5, .L74+16
 862 0084 2846     		mov	r0, r5
 863 0086 FFF7FEFF 		bl	strlen
 864              	.LVL84:
 865 008a 81B2     		uxth	r1, r0
 866 008c 2846     		mov	r0, r5
 867 008e FFF7FEFF 		bl	USBUARTH_Send
 868              	.LVL85:
  75:main.c        **** 			I2C_1_Stop();
 869              		.loc 2 75 0
 870 0092 2846     		mov	r0, r5
 871 0094 FFF7FEFF 		bl	UART_1_PutString
 872              	.LVL86:
  76:main.c        **** 			I2C_1_Start();
 873              		.loc 2 76 0
 874 0098 FFF7FEFF 		bl	I2C_1_Stop
 875              	.LVL87:
  77:main.c        **** 		}
 876              		.loc 2 77 0
 877 009c FFF7FEFF 		bl	I2C_1_Start
 878              	.LVL88:
 879              	.L66:
  70:main.c        **** 		if ((I2C_1_MasterStatus() & I2C_1_MSTAT_WR_CMPLT)) break;
 880              		.loc 2 70 0 discriminator 2
 881 00a0 0134     		adds	r4, r4, #1
 882              	.LVL89:
 883              	.L64:
  70:main.c        **** 		if ((I2C_1_MasterStatus() & I2C_1_MSTAT_WR_CMPLT)) break;
 884              		.loc 2 70 0 is_stmt 0 discriminator 1
 885 00a2 2046     		mov	r0, r4
 886 00a4 FFF7FEFF 		bl	__aeabi_ui2d
 887              	.LVL90:
 888 00a8 0646     		mov	r6, r0
 889 00aa 0F46     		mov	r7, r1
 890 00ac 2EA3     		adr	r3, .L74+8
 891 00ae D3E90023 		ldrd	r2, [r3]
 892 00b2 FFF7FEFF 		bl	__aeabi_dcmplt
 893              	.LVL91:
 894 00b6 0028     		cmp	r0, #0
 895 00b8 C6D1     		bne	.L69
 896              	.L65:
 897              	.LBE12:
  92:main.c        **** 		sprintf(TransmitBuffer, "I2C Transfer Error! ");
 898              		.loc 2 92 0 is_stmt 1
 899 00ba FFF7FEFF 		bl	I2C_1_MasterStatus
 900              	.LVL92:
 901 00be 10F0800F 		tst	r0, #128
ARM GAS  C:\Users\FRANKL~1\AppData\Local\Temp\ccggyhWi.s 			page 34


 902 00c2 39D0     		beq	.L70
  93:main.c        **** 		USBUARTH_Send(TransmitBuffer, strlen(TransmitBuffer));
 903              		.loc 2 93 0
 904 00c4 2A4C     		ldr	r4, .L74+16
 905              	.LVL93:
 906 00c6 2E4D     		ldr	r5, .L74+32
 907 00c8 0FCD     		ldmia	r5!, {r0, r1, r2, r3}
 908 00ca 2060     		str	r0, [r4]	@ unaligned
 909 00cc 6160     		str	r1, [r4, #4]	@ unaligned
 910 00ce A260     		str	r2, [r4, #8]	@ unaligned
 911 00d0 E360     		str	r3, [r4, #12]	@ unaligned
 912 00d2 2868     		ldr	r0, [r5]	@ unaligned
 913 00d4 2061     		str	r0, [r4, #16]	@ unaligned
 914 00d6 2B79     		ldrb	r3, [r5, #4]	@ zero_extendqisi2
 915 00d8 2375     		strb	r3, [r4, #20]
  94:main.c        **** 		UART_1_PutString(TransmitBuffer);
 916              		.loc 2 94 0
 917 00da 2046     		mov	r0, r4
 918 00dc FFF7FEFF 		bl	strlen
 919              	.LVL94:
 920 00e0 81B2     		uxth	r1, r0
 921 00e2 2046     		mov	r0, r4
 922 00e4 FFF7FEFF 		bl	USBUARTH_Send
 923              	.LVL95:
  95:main.c        **** 		
 924              		.loc 2 95 0
 925 00e8 2046     		mov	r0, r4
 926 00ea FFF7FEFF 		bl	UART_1_PutString
 927              	.LVL96:
  97:main.c        **** 			sprintf(TransmitBuffer, "Type: NAK");
 928              		.loc 2 97 0
 929 00ee FFF7FEFF 		bl	I2C_1_MasterStatus
 930              	.LVL97:
 931 00f2 10F0200F 		tst	r0, #32
 932 00f6 0FD0     		beq	.L71
  98:main.c        **** 			USBUARTH_Send(TransmitBuffer, strlen(TransmitBuffer));
 933              		.loc 2 98 0
 934 00f8 224B     		ldr	r3, .L74+36
 935 00fa 03CB     		ldmia	r3!, {r0, r1}
 936 00fc 2060     		str	r0, [r4]	@ unaligned
 937 00fe 6160     		str	r1, [r4, #4]	@ unaligned
 938 0100 1B88     		ldrh	r3, [r3]	@ unaligned
 939 0102 2381     		strh	r3, [r4, #8]	@ unaligned
  99:main.c        **** 			UART_1_PutString(TransmitBuffer);
 940              		.loc 2 99 0
 941 0104 2046     		mov	r0, r4
 942 0106 FFF7FEFF 		bl	strlen
 943              	.LVL98:
 944 010a 81B2     		uxth	r1, r0
 945 010c 2046     		mov	r0, r4
 946 010e FFF7FEFF 		bl	USBUARTH_Send
 947              	.LVL99:
 100:main.c        **** 		}
 948              		.loc 2 100 0
 949 0112 2046     		mov	r0, r4
 950 0114 FFF7FEFF 		bl	UART_1_PutString
 951              	.LVL100:
ARM GAS  C:\Users\FRANKL~1\AppData\Local\Temp\ccggyhWi.s 			page 35


 952              	.L71:
 103:main.c        **** 		USBUARTH_Send(TransmitBuffer, strlen(TransmitBuffer));
 953              		.loc 2 103 0
 954 0118 154C     		ldr	r4, .L74+16
 955 011a 1B4B     		ldr	r3, .L74+40
 956 011c 1A88     		ldrh	r2, [r3]	@ unaligned
 957 011e 9B78     		ldrb	r3, [r3, #2]	@ zero_extendqisi2
 958 0120 2280     		strh	r2, [r4]	@ unaligned
 959 0122 A370     		strb	r3, [r4, #2]
 104:main.c        **** 		UART_1_PutString(TransmitBuffer);
 960              		.loc 2 104 0
 961 0124 2046     		mov	r0, r4
 962 0126 FFF7FEFF 		bl	strlen
 963              	.LVL101:
 964 012a 81B2     		uxth	r1, r0
 965 012c 2046     		mov	r0, r4
 966 012e FFF7FEFF 		bl	USBUARTH_Send
 967              	.LVL102:
 105:main.c        **** 	}
 968              		.loc 2 105 0
 969 0132 2046     		mov	r0, r4
 970 0134 FFF7FEFF 		bl	UART_1_PutString
 971              	.LVL103:
 972              	.L70:
 108:main.c        **** 	USBUARTH_Send(TransmitBuffer, strlen(TransmitBuffer));
 973              		.loc 2 108 0
 974 0138 0D4C     		ldr	r4, .L74+16
 975 013a 4246     		mov	r2, r8
 976 013c 1349     		ldr	r1, .L74+44
 977 013e 2046     		mov	r0, r4
 978 0140 FFF7FEFF 		bl	sprintf
 979              	.LVL104:
 109:main.c        **** 	UART_1_PutString(TransmitBuffer);
 980              		.loc 2 109 0
 981 0144 2046     		mov	r0, r4
 982 0146 FFF7FEFF 		bl	strlen
 983              	.LVL105:
 984 014a 81B2     		uxth	r1, r0
 985 014c 2046     		mov	r0, r4
 986 014e FFF7FEFF 		bl	USBUARTH_Send
 987              	.LVL106:
 110:main.c        **** }
 988              		.loc 2 110 0
 989 0152 2046     		mov	r0, r4
 990 0154 FFF7FEFF 		bl	UART_1_PutString
 991              	.LVL107:
 992 0158 BDE8F081 		pop	{r4, r5, r6, r7, r8, pc}
 993              	.LVL108:
 994              	.L75:
 995 015c AFF30080 		.align	3
 996              	.L74:
 997 0160 00000000 		.word	0
 998 0164 FC691841 		.word	1092119036
 999 0168 00000000 		.word	0
 1000 016c 006A1841 		.word	1092119040
 1001 0170 00000000 		.word	TransmitBuffer
 1002 0174 2C000000 		.word	.LC5
ARM GAS  C:\Users\FRANKL~1\AppData\Local\Temp\ccggyhWi.s 			page 36


 1003 0178 00000000 		.word	selectors
 1004 017c 44000000 		.word	.LC6
 1005 0180 68000000 		.word	.LC7
 1006 0184 80000000 		.word	.LC8
 1007 0188 8C000000 		.word	.LC9
 1008 018c 90000000 		.word	.LC10
 1009              		.cfi_endproc
 1010              	.LFE71:
 1011              		.size	Update_Selector, .-Update_Selector
 1012              		.section	.text.Setup_Selectors,"ax",%progbits
 1013              		.align	2
 1014              		.global	Setup_Selectors
 1015              		.thumb
 1016              		.thumb_func
 1017              		.type	Setup_Selectors, %function
 1018              	Setup_Selectors:
 1019              	.LFB72:
 113:main.c        **** 	for (uint8 i = 0; i < SELECTOR_COUNT; i++) Setup_Selector_I2C_Struct(&selectors[i]);
 1020              		.loc 2 113 0
 1021              		.cfi_startproc
 1022              		@ args = 0, pretend = 0, frame = 0
 1023              		@ frame_needed = 0, uses_anonymous_args = 0
 1024 0000 10B5     		push	{r4, lr}
 1025              		.cfi_def_cfa_offset 8
 1026              		.cfi_offset 4, -8
 1027              		.cfi_offset 14, -4
 1028              	.LVL109:
 1029              	.LBB13:
 114:main.c        **** 	
 1030              		.loc 2 114 0
 1031 0002 0024     		movs	r4, #0
 1032 0004 07E0     		b	.L77
 1033              	.LVL110:
 1034              	.L78:
 114:main.c        **** 	
 1035              		.loc 2 114 0 is_stmt 0 discriminator 3
 1036 0006 C4EB0423 		rsb	r3, r4, r4, lsl #8
 1037 000a 0B48     		ldr	r0, .L80
 1038 000c 1844     		add	r0, r0, r3
 1039 000e FFF7FEFF 		bl	Setup_Selector_I2C_Struct
 1040              	.LVL111:
 1041 0012 0134     		adds	r4, r4, #1
 1042              	.LVL112:
 1043 0014 E4B2     		uxtb	r4, r4
 1044              	.LVL113:
 1045              	.L77:
 114:main.c        **** 	
 1046              		.loc 2 114 0 discriminator 1
 1047 0016 032C     		cmp	r4, #3
 1048 0018 F5D9     		bls	.L78
 1049              	.LBE13:
 116:main.c        **** 	selectors[1].busAddress = 0x11;
 1050              		.loc 2 116 0 is_stmt 1
 1051 001a 074B     		ldr	r3, .L80
 1052 001c 6622     		movs	r2, #102
 1053 001e 83F8FE20 		strb	r2, [r3, #254]
 117:main.c        **** 	selectors[2].busAddress = 0x44;
ARM GAS  C:\Users\FRANKL~1\AppData\Local\Temp\ccggyhWi.s 			page 37


 1054              		.loc 2 117 0
 1055 0022 1122     		movs	r2, #17
 1056 0024 83F8FD21 		strb	r2, [r3, #509]
 118:main.c        **** 	selectors[3].busAddress = 0x22;
 1057              		.loc 2 118 0
 1058 0028 4422     		movs	r2, #68
 1059 002a 83F8FC22 		strb	r2, [r3, #764]
 119:main.c        **** }
 1060              		.loc 2 119 0
 1061 002e 2222     		movs	r2, #34
 1062 0030 83F8FB23 		strb	r2, [r3, #1019]
 1063 0034 10BD     		pop	{r4, pc}
 1064              	.LVL114:
 1065              	.L81:
 1066 0036 00BF     		.align	2
 1067              	.L80:
 1068 0038 00000000 		.word	selectors
 1069              		.cfi_endproc
 1070              	.LFE72:
 1071              		.size	Setup_Selectors, .-Setup_Selectors
 1072              		.section	.text.Connect_Channel_On_Intermediate,"ax",%progbits
 1073              		.align	2
 1074              		.global	Connect_Channel_On_Intermediate
 1075              		.thumb
 1076              		.thumb_func
 1077              		.type	Connect_Channel_On_Intermediate, %function
 1078              	Connect_Channel_On_Intermediate:
 1079              	.LFB73:
 122:main.c        **** 	channel--;
 1080              		.loc 2 122 0
 1081              		.cfi_startproc
 1082              		@ args = 0, pretend = 0, frame = 0
 1083              		@ frame_needed = 0, uses_anonymous_args = 0
 1084              	.LVL115:
 1085 0000 08B5     		push	{r3, lr}
 1086              		.cfi_def_cfa_offset 8
 1087              		.cfi_offset 3, -8
 1088              		.cfi_offset 14, -4
 123:main.c        **** 	intermediate--;
 1089              		.loc 2 123 0
 1090 0002 0138     		subs	r0, r0, #1
 1091              	.LVL116:
 1092 0004 C3B2     		uxtb	r3, r0
 1093              	.LVL117:
 126:main.c        **** 	if (intermediate >= INTERMEDIATE_COUNT) return;
 1094              		.loc 2 126 0
 1095 0006 212B     		cmp	r3, #33
 1096 0008 0CD8     		bhi	.L82
 1097 000a 0139     		subs	r1, r1, #1
 1098              	.LVL118:
 1099 000c C8B2     		uxtb	r0, r1
 127:main.c        **** 	
 1100              		.loc 2 127 0
 1101 000e 0328     		cmp	r0, #3
 1102 0010 08D8     		bhi	.L82
 129:main.c        **** 	Update_Selector(intermediate);
 1103              		.loc 2 129 0
ARM GAS  C:\Users\FRANKL~1\AppData\Local\Temp\ccggyhWi.s 			page 38


 1104 0012 C0EB0022 		rsb	r2, r0, r0, lsl #8
 1105 0016 0449     		ldr	r1, .L85
 1106 0018 0A44     		add	r2, r2, r1
 1107 001a 1344     		add	r3, r3, r2
 1108              	.LVL119:
 1109 001c C022     		movs	r2, #192
 1110 001e 5A70     		strb	r2, [r3, #1]
 130:main.c        **** }
 1111              		.loc 2 130 0
 1112 0020 FFF7FEFF 		bl	Update_Selector
 1113              	.LVL120:
 1114              	.L82:
 1115 0024 08BD     		pop	{r3, pc}
 1116              	.L86:
 1117 0026 00BF     		.align	2
 1118              	.L85:
 1119 0028 00000000 		.word	selectors
 1120              		.cfi_endproc
 1121              	.LFE73:
 1122              		.size	Connect_Channel_On_Intermediate, .-Connect_Channel_On_Intermediate
 1123              		.section	.text.Connect_Contact_To_Intermediate,"ax",%progbits
 1124              		.align	2
 1125              		.global	Connect_Contact_To_Intermediate
 1126              		.thumb
 1127              		.thumb_func
 1128              		.type	Connect_Contact_To_Intermediate, %function
 1129              	Connect_Contact_To_Intermediate:
 1130              	.LFB74:
 133:main.c        **** 	contact--;
 1131              		.loc 2 133 0
 1132              		.cfi_startproc
 1133              		@ args = 0, pretend = 0, frame = 0
 1134              		@ frame_needed = 0, uses_anonymous_args = 0
 1135              	.LVL121:
 134:main.c        **** 	intermediate--;
 1136              		.loc 2 134 0
 1137 0000 0138     		subs	r0, r0, #1
 1138              	.LVL122:
 1139 0002 C0B2     		uxtb	r0, r0
 1140              	.LVL123:
 137:main.c        **** 	if (intermediate >= INTERMEDIATE_COUNT) return;
 1141              		.loc 2 137 0
 1142 0004 3F28     		cmp	r0, #63
 1143 0006 13D8     		bhi	.L92
 133:main.c        **** 	contact--;
 1144              		.loc 2 133 0
 1145 0008 08B5     		push	{r3, lr}
 1146              		.cfi_def_cfa_offset 8
 1147              		.cfi_offset 3, -8
 1148              		.cfi_offset 14, -4
 1149 000a 4B1E     		subs	r3, r1, #1
 1150 000c DBB2     		uxtb	r3, r3
 138:main.c        **** 	
 1151              		.loc 2 138 0
 1152 000e 032B     		cmp	r3, #3
 1153 0010 0DD8     		bhi	.L87
 1154              	.LVL124:
ARM GAS  C:\Users\FRANKL~1\AppData\Local\Temp\ccggyhWi.s 			page 39


 141:main.c        **** 		offset = CONTACT_COUNT/2;
 1155              		.loc 2 141 0
 1156 0012 012B     		cmp	r3, #1
 1157 0014 03D9     		bls	.L89
 1158              	.LVL125:
 143:main.c        **** 	} else {
 1159              		.loc 2 143 0
 1160 0016 1F28     		cmp	r0, #31
 1161 0018 09D9     		bls	.L87
 142:main.c        **** 		if (contact < CONTACT_COUNT/2) return;
 1162              		.loc 2 142 0
 1163 001a 2023     		movs	r3, #32
 1164 001c 02E0     		b	.L90
 1165              	.LVL126:
 1166              	.L89:
 145:main.c        **** 	}
 1167              		.loc 2 145 0
 1168 001e 1F28     		cmp	r0, #31
 1169 0020 05D8     		bhi	.L87
 140:main.c        **** 	if (intermediate >= INTERMEDIATE_COUNT/2) {
 1170              		.loc 2 140 0
 1171 0022 0023     		movs	r3, #0
 1172              	.LVL127:
 1173              	.L90:
 148:main.c        **** }
 1174              		.loc 2 148 0
 1175 0024 C01A     		subs	r0, r0, r3
 1176              	.LVL128:
 1177 0026 0130     		adds	r0, r0, #1
 1178 0028 C0B2     		uxtb	r0, r0
 1179 002a FFF7FEFF 		bl	Connect_Channel_On_Intermediate
 1180              	.LVL129:
 1181              	.L87:
 1182 002e 08BD     		pop	{r3, pc}
 1183              	.LVL130:
 1184              	.L92:
 1185              		.cfi_def_cfa_offset 0
 1186              		.cfi_restore 3
 1187              		.cfi_restore 14
 1188 0030 7047     		bx	lr
 1189              		.cfi_endproc
 1190              	.LFE74:
 1191              		.size	Connect_Contact_To_Intermediate, .-Connect_Contact_To_Intermediate
 1192 0032 00BF     		.section	.text.Disconnect_Contact_From_Intermediate,"ax",%progbits
 1193              		.align	2
 1194              		.global	Disconnect_Contact_From_Intermediate
 1195              		.thumb
 1196              		.thumb_func
 1197              		.type	Disconnect_Contact_From_Intermediate, %function
 1198              	Disconnect_Contact_From_Intermediate:
 1199              	.LFB75:
 151:main.c        **** 	contact--;
 1200              		.loc 2 151 0
 1201              		.cfi_startproc
 1202              		@ args = 0, pretend = 0, frame = 0
 1203              		@ frame_needed = 0, uses_anonymous_args = 0
 1204              	.LVL131:
ARM GAS  C:\Users\FRANKL~1\AppData\Local\Temp\ccggyhWi.s 			page 40


 1205 0000 08B5     		push	{r3, lr}
 1206              		.cfi_def_cfa_offset 8
 1207              		.cfi_offset 3, -8
 1208              		.cfi_offset 14, -4
 152:main.c        **** 	intermediate--;
 1209              		.loc 2 152 0
 1210 0002 0138     		subs	r0, r0, #1
 1211              	.LVL132:
 1212 0004 C3B2     		uxtb	r3, r0
 1213              	.LVL133:
 155:main.c        **** 	if (intermediate >= INTERMEDIATE_COUNT) return;
 1214              		.loc 2 155 0
 1215 0006 3F2B     		cmp	r3, #63
 1216 0008 16D8     		bhi	.L93
 1217 000a 0139     		subs	r1, r1, #1
 1218              	.LVL134:
 1219 000c C8B2     		uxtb	r0, r1
 156:main.c        **** 	
 1220              		.loc 2 156 0
 1221 000e 0328     		cmp	r0, #3
 1222 0010 12D8     		bhi	.L93
 1223              	.LVL135:
 159:main.c        **** 		offset = CONTACT_COUNT/2;
 1224              		.loc 2 159 0
 1225 0012 0128     		cmp	r0, #1
 1226 0014 03D9     		bls	.L95
 1227              	.LVL136:
 161:main.c        **** 	} else {
 1228              		.loc 2 161 0
 1229 0016 1F2B     		cmp	r3, #31
 1230 0018 0ED9     		bls	.L93
 160:main.c        **** 		if (contact < CONTACT_COUNT/2) return;
 1231              		.loc 2 160 0
 1232 001a 2022     		movs	r2, #32
 1233 001c 02E0     		b	.L96
 1234              	.LVL137:
 1235              	.L95:
 163:main.c        **** 	}
 1236              		.loc 2 163 0
 1237 001e 1F2B     		cmp	r3, #31
 1238 0020 0AD8     		bhi	.L93
 158:main.c        **** 	if (intermediate >= INTERMEDIATE_COUNT/2) {
 1239              		.loc 2 158 0
 1240 0022 0022     		movs	r2, #0
 1241              	.LVL138:
 1242              	.L96:
 166:main.c        **** 	
 1243              		.loc 2 166 0
 1244 0024 9B1A     		subs	r3, r3, r2
 1245              	.LVL139:
 1246 0026 C0EB0022 		rsb	r2, r0, r0, lsl #8
 1247              	.LVL140:
 1248 002a 0449     		ldr	r1, .L98
 1249 002c 0A44     		add	r2, r2, r1
 1250 002e 1344     		add	r3, r3, r2
 1251 0030 D122     		movs	r2, #209
 1252 0032 5A70     		strb	r2, [r3, #1]
ARM GAS  C:\Users\FRANKL~1\AppData\Local\Temp\ccggyhWi.s 			page 41


 168:main.c        **** }
 1253              		.loc 2 168 0
 1254 0034 FFF7FEFF 		bl	Update_Selector
 1255              	.LVL141:
 1256              	.L93:
 1257 0038 08BD     		pop	{r3, pc}
 1258              	.L99:
 1259 003a 00BF     		.align	2
 1260              	.L98:
 1261 003c 00000000 		.word	selectors
 1262              		.cfi_endproc
 1263              	.LFE75:
 1264              		.size	Disconnect_Contact_From_Intermediate, .-Disconnect_Contact_From_Intermediate
 1265              		.section	.text.Disconnect_Contact_From_All_Intermediates,"ax",%progbits
 1266              		.align	2
 1267              		.global	Disconnect_Contact_From_All_Intermediates
 1268              		.thumb
 1269              		.thumb_func
 1270              		.type	Disconnect_Contact_From_All_Intermediates, %function
 1271              	Disconnect_Contact_From_All_Intermediates:
 1272              	.LFB76:
 171:main.c        **** 	contact--;
 1273              		.loc 2 171 0
 1274              		.cfi_startproc
 1275              		@ args = 0, pretend = 0, frame = 0
 1276              		@ frame_needed = 0, uses_anonymous_args = 0
 1277              	.LVL142:
 1278 0000 38B5     		push	{r3, r4, r5, lr}
 1279              		.cfi_def_cfa_offset 16
 1280              		.cfi_offset 3, -16
 1281              		.cfi_offset 4, -12
 1282              		.cfi_offset 5, -8
 1283              		.cfi_offset 14, -4
 172:main.c        **** 	
 1284              		.loc 2 172 0
 1285 0002 0138     		subs	r0, r0, #1
 1286              	.LVL143:
 1287 0004 C5B2     		uxtb	r5, r0
 1288              	.LVL144:
 1289              	.LBB14:
 174:main.c        **** 		
 1290              		.loc 2 174 0
 1291 0006 0024     		movs	r4, #0
 1292 0008 15E0     		b	.L101
 1293              	.LVL145:
 1294              	.L105:
 1295              	.LBB15:
 177:main.c        **** 			offset = CONTACT_COUNT/2;
 1296              		.loc 2 177 0
 1297 000a 012C     		cmp	r4, #1
 1298 000c 03D9     		bls	.L102
 1299              	.LVL146:
 179:main.c        **** 		} else {
 1300              		.loc 2 179 0
 1301 000e 1F2D     		cmp	r5, #31
 1302 0010 0FD9     		bls	.L103
 178:main.c        **** 			if (contact < CONTACT_COUNT/2) continue;
ARM GAS  C:\Users\FRANKL~1\AppData\Local\Temp\ccggyhWi.s 			page 42


 1303              		.loc 2 178 0
 1304 0012 2023     		movs	r3, #32
 1305 0014 02E0     		b	.L104
 1306              	.LVL147:
 1307              	.L102:
 181:main.c        **** 		}
 1308              		.loc 2 181 0
 1309 0016 1F2D     		cmp	r5, #31
 1310 0018 0BD8     		bhi	.L103
 176:main.c        **** 		if (intermediate >= INTERMEDIATE_COUNT/2) {
 1311              		.loc 2 176 0
 1312 001a 0023     		movs	r3, #0
 1313              	.LVL148:
 1314              	.L104:
 184:main.c        **** 		
 1315              		.loc 2 184 0
 1316 001c EA1A     		subs	r2, r5, r3
 1317 001e C4EB0423 		rsb	r3, r4, r4, lsl #8
 1318              	.LVL149:
 1319 0022 0649     		ldr	r1, .L107
 1320 0024 0B44     		add	r3, r3, r1
 1321 0026 1344     		add	r3, r3, r2
 1322 0028 D122     		movs	r2, #209
 1323 002a 5A70     		strb	r2, [r3, #1]
 186:main.c        **** 	}
 1324              		.loc 2 186 0
 1325 002c 2046     		mov	r0, r4
 1326 002e FFF7FEFF 		bl	Update_Selector
 1327              	.LVL150:
 1328              	.L103:
 1329              	.LBE15:
 174:main.c        **** 		
 1330              		.loc 2 174 0 discriminator 2
 1331 0032 0134     		adds	r4, r4, #1
 1332              	.LVL151:
 1333 0034 E4B2     		uxtb	r4, r4
 1334              	.LVL152:
 1335              	.L101:
 174:main.c        **** 		
 1336              		.loc 2 174 0 is_stmt 0 discriminator 1
 1337 0036 032C     		cmp	r4, #3
 1338 0038 E7D9     		bls	.L105
 1339              	.LBE14:
 188:main.c        **** 
 1340              		.loc 2 188 0 is_stmt 1
 1341 003a 38BD     		pop	{r3, r4, r5, pc}
 1342              	.LVL153:
 1343              	.L108:
 1344              		.align	2
 1345              	.L107:
 1346 003c 00000000 		.word	selectors
 1347              		.cfi_endproc
 1348              	.LFE76:
 1349              		.size	Disconnect_Contact_From_All_Intermediates, .-Disconnect_Contact_From_All_Intermediates
 1350              		.section	.text.Disconnect_All_Contacts_From_All_Intermediates,"ax",%progbits
 1351              		.align	2
 1352              		.global	Disconnect_All_Contacts_From_All_Intermediates
ARM GAS  C:\Users\FRANKL~1\AppData\Local\Temp\ccggyhWi.s 			page 43


 1353              		.thumb
 1354              		.thumb_func
 1355              		.type	Disconnect_All_Contacts_From_All_Intermediates, %function
 1356              	Disconnect_All_Contacts_From_All_Intermediates:
 1357              	.LFB77:
 190:main.c        **** 	for (uint8 intermediate = 0; intermediate < INTERMEDIATE_COUNT/**//2; intermediate++) {
 1358              		.loc 2 190 0
 1359              		.cfi_startproc
 1360              		@ args = 0, pretend = 0, frame = 0
 1361              		@ frame_needed = 0, uses_anonymous_args = 0
 1362 0000 10B5     		push	{r4, lr}
 1363              		.cfi_def_cfa_offset 8
 1364              		.cfi_offset 4, -8
 1365              		.cfi_offset 14, -4
 1366              	.LVL154:
 1367              	.LBB16:
 191:main.c        **** 		for (uint8 contact = 0; contact < CONTACT_COUNT/2; contact++) {
 1368              		.loc 2 191 0
 1369 0002 0024     		movs	r4, #0
 1370 0004 11E0     		b	.L110
 1371              	.LVL155:
 1372              	.L111:
 1373              	.LBB17:
 193:main.c        **** 		}
 1374              		.loc 2 193 0 discriminator 3
 1375 0006 C4EB0422 		rsb	r2, r4, r4, lsl #8
 1376 000a 0949     		ldr	r1, .L115
 1377 000c 0A44     		add	r2, r2, r1
 1378 000e 1A44     		add	r2, r2, r3
 1379 0010 D121     		movs	r1, #209
 1380 0012 5170     		strb	r1, [r2, #1]
 192:main.c        **** 			selectors[intermediate].write.data[contact] = CONTACT_DISCONNECT_CODE;
 1381              		.loc 2 192 0 discriminator 3
 1382 0014 0133     		adds	r3, r3, #1
 1383              	.LVL156:
 1384 0016 DBB2     		uxtb	r3, r3
 1385              	.LVL157:
 1386 0018 00E0     		b	.L112
 1387              	.LVL158:
 1388              	.L113:
 1389              	.LBE17:
 1390 001a 0023     		movs	r3, #0
 1391              	.L112:
 1392              	.LVL159:
 1393              	.LBB18:
 192:main.c        **** 			selectors[intermediate].write.data[contact] = CONTACT_DISCONNECT_CODE;
 1394              		.loc 2 192 0 is_stmt 0 discriminator 1
 1395 001c 1F2B     		cmp	r3, #31
 1396 001e F2D9     		bls	.L111
 1397              	.LBE18:
 196:main.c        **** 	}
 1398              		.loc 2 196 0 is_stmt 1 discriminator 2
 1399 0020 2046     		mov	r0, r4
 1400 0022 FFF7FEFF 		bl	Update_Selector
 1401              	.LVL160:
 191:main.c        **** 		for (uint8 contact = 0; contact < CONTACT_COUNT/2; contact++) {
 1402              		.loc 2 191 0 discriminator 2
ARM GAS  C:\Users\FRANKL~1\AppData\Local\Temp\ccggyhWi.s 			page 44


 1403 0026 0134     		adds	r4, r4, #1
 1404              	.LVL161:
 1405 0028 E4B2     		uxtb	r4, r4
 1406              	.LVL162:
 1407              	.L110:
 191:main.c        **** 		for (uint8 contact = 0; contact < CONTACT_COUNT/2; contact++) {
 1408              		.loc 2 191 0 is_stmt 0 discriminator 1
 1409 002a 012C     		cmp	r4, #1
 1410 002c F5D9     		bls	.L113
 1411              	.LBE16:
 198:main.c        **** 
 1412              		.loc 2 198 0 is_stmt 1
 1413 002e 10BD     		pop	{r4, pc}
 1414              	.LVL163:
 1415              	.L116:
 1416              		.align	2
 1417              	.L115:
 1418 0030 00000000 		.word	selectors
 1419              		.cfi_endproc
 1420              	.LFE77:
 1421              		.size	Disconnect_All_Contacts_From_All_Intermediates, .-Disconnect_All_Contacts_From_All_Intermedi
 1422              		.section	.text.Disconnect_All_Contacts_From_Intermediate,"ax",%progbits
 1423              		.align	2
 1424              		.global	Disconnect_All_Contacts_From_Intermediate
 1425              		.thumb
 1426              		.thumb_func
 1427              		.type	Disconnect_All_Contacts_From_Intermediate, %function
 1428              	Disconnect_All_Contacts_From_Intermediate:
 1429              	.LFB78:
 200:main.c        **** 	intermediate--;
 1430              		.loc 2 200 0
 1431              		.cfi_startproc
 1432              		@ args = 0, pretend = 0, frame = 0
 1433              		@ frame_needed = 0, uses_anonymous_args = 0
 1434              	.LVL164:
 1435 0000 08B5     		push	{r3, lr}
 1436              		.cfi_def_cfa_offset 8
 1437              		.cfi_offset 3, -8
 1438              		.cfi_offset 14, -4
 201:main.c        **** 	
 1439              		.loc 2 201 0
 1440 0002 0138     		subs	r0, r0, #1
 1441              	.LVL165:
 1442 0004 C0B2     		uxtb	r0, r0
 1443              	.LVL166:
 1444              	.LBB19:
 203:main.c        **** 		selectors[intermediate].write.data[contact] = CONTACT_DISCONNECT_CODE;
 1445              		.loc 2 203 0
 1446 0006 0023     		movs	r3, #0
 1447 0008 08E0     		b	.L118
 1448              	.LVL167:
 1449              	.L119:
 204:main.c        **** 	}
 1450              		.loc 2 204 0 discriminator 3
 1451 000a C0EB0022 		rsb	r2, r0, r0, lsl #8
 1452 000e 0649     		ldr	r1, .L121
 1453 0010 0A44     		add	r2, r2, r1
ARM GAS  C:\Users\FRANKL~1\AppData\Local\Temp\ccggyhWi.s 			page 45


 1454 0012 1A44     		add	r2, r2, r3
 1455 0014 D121     		movs	r1, #209
 1456 0016 5170     		strb	r1, [r2, #1]
 203:main.c        **** 		selectors[intermediate].write.data[contact] = CONTACT_DISCONNECT_CODE;
 1457              		.loc 2 203 0 discriminator 3
 1458 0018 0133     		adds	r3, r3, #1
 1459              	.LVL168:
 1460 001a DBB2     		uxtb	r3, r3
 1461              	.LVL169:
 1462              	.L118:
 203:main.c        **** 		selectors[intermediate].write.data[contact] = CONTACT_DISCONNECT_CODE;
 1463              		.loc 2 203 0 is_stmt 0 discriminator 1
 1464 001c 1F2B     		cmp	r3, #31
 1465 001e F4D9     		bls	.L119
 1466              	.LBE19:
 207:main.c        **** }
 1467              		.loc 2 207 0 is_stmt 1
 1468 0020 FFF7FEFF 		bl	Update_Selector
 1469              	.LVL170:
 1470 0024 08BD     		pop	{r3, pc}
 1471              	.L122:
 1472 0026 00BF     		.align	2
 1473              	.L121:
 1474 0028 00000000 		.word	selectors
 1475              		.cfi_endproc
 1476              	.LFE78:
 1477              		.size	Disconnect_All_Contacts_From_Intermediate, .-Disconnect_All_Contacts_From_Intermediate
 1478              		.section	.text.Connect_Intermediate,"ax",%progbits
 1479              		.align	2
 1480              		.global	Connect_Intermediate
 1481              		.thumb
 1482              		.thumb_func
 1483              		.type	Connect_Intermediate, %function
 1484              	Connect_Intermediate:
 1485              	.LFB79:
 210:main.c        **** 	switch (intermediate) {
 1486              		.loc 2 210 0
 1487              		.cfi_startproc
 1488              		@ args = 0, pretend = 0, frame = 0
 1489              		@ frame_needed = 0, uses_anonymous_args = 0
 1490              	.LVL171:
 1491 0000 08B5     		push	{r3, lr}
 1492              		.cfi_def_cfa_offset 8
 1493              		.cfi_offset 3, -8
 1494              		.cfi_offset 14, -4
 211:main.c        **** 		case 1: Connect_Channel_On_Intermediate(33, 1); break;
 1495              		.loc 2 211 0
 1496 0002 0138     		subs	r0, r0, #1
 1497              	.LVL172:
 1498 0004 0328     		cmp	r0, #3
 1499 0006 16D8     		bhi	.L123
 1500 0008 DFE800F0 		tbb	[pc, r0]
 1501              	.L126:
 1502 000c 02       		.byte	(.L125-.L126)/2
 1503 000d 07       		.byte	(.L127-.L126)/2
 1504 000e 0C       		.byte	(.L128-.L126)/2
 1505 000f 11       		.byte	(.L129-.L126)/2
ARM GAS  C:\Users\FRANKL~1\AppData\Local\Temp\ccggyhWi.s 			page 46


 1506              		.p2align 1
 1507              	.L125:
 212:main.c        **** 		case 2: Connect_Channel_On_Intermediate(33, 2); break;
 1508              		.loc 2 212 0
 1509 0010 0121     		movs	r1, #1
 1510 0012 2120     		movs	r0, #33
 1511 0014 FFF7FEFF 		bl	Connect_Channel_On_Intermediate
 1512              	.LVL173:
 1513 0018 08BD     		pop	{r3, pc}
 1514              	.L127:
 213:main.c        **** 		case 3: Connect_Channel_On_Intermediate(33, 3); break;
 1515              		.loc 2 213 0
 1516 001a 0221     		movs	r1, #2
 1517 001c 2120     		movs	r0, #33
 1518 001e FFF7FEFF 		bl	Connect_Channel_On_Intermediate
 1519              	.LVL174:
 1520 0022 08BD     		pop	{r3, pc}
 1521              	.L128:
 214:main.c        **** 		case 4: Connect_Channel_On_Intermediate(33, 4); break;
 1522              		.loc 2 214 0
 1523 0024 0321     		movs	r1, #3
 1524 0026 2120     		movs	r0, #33
 1525 0028 FFF7FEFF 		bl	Connect_Channel_On_Intermediate
 1526              	.LVL175:
 1527 002c 08BD     		pop	{r3, pc}
 1528              	.L129:
 215:main.c        **** 		default: return;
 1529              		.loc 2 215 0
 1530 002e 0421     		movs	r1, #4
 1531 0030 2120     		movs	r0, #33
 1532 0032 FFF7FEFF 		bl	Connect_Channel_On_Intermediate
 1533              	.LVL176:
 1534              	.L123:
 1535 0036 08BD     		pop	{r3, pc}
 1536              		.cfi_endproc
 1537              	.LFE79:
 1538              		.size	Connect_Intermediate, .-Connect_Intermediate
 1539              		.section	.text.Connect_Intermediates,"ax",%progbits
 1540              		.align	2
 1541              		.global	Connect_Intermediates
 1542              		.thumb
 1543              		.thumb_func
 1544              		.type	Connect_Intermediates, %function
 1545              	Connect_Intermediates:
 1546              	.LFB80:
 220:main.c        **** 	for (uint8 i = 1; i <= INTERMEDIATE_COUNT/**//2; i++) {
 1547              		.loc 2 220 0
 1548              		.cfi_startproc
 1549              		@ args = 0, pretend = 0, frame = 0
 1550              		@ frame_needed = 0, uses_anonymous_args = 0
 1551 0000 10B5     		push	{r4, lr}
 1552              		.cfi_def_cfa_offset 8
 1553              		.cfi_offset 4, -8
 1554              		.cfi_offset 14, -4
 1555              	.LVL177:
 1556              	.LBB20:
 221:main.c        **** 		Connect_Intermediate(i);
ARM GAS  C:\Users\FRANKL~1\AppData\Local\Temp\ccggyhWi.s 			page 47


 1557              		.loc 2 221 0
 1558 0002 0124     		movs	r4, #1
 1559 0004 04E0     		b	.L132
 1560              	.LVL178:
 1561              	.L133:
 222:main.c        **** 	}
 1562              		.loc 2 222 0 discriminator 3
 1563 0006 2046     		mov	r0, r4
 1564 0008 FFF7FEFF 		bl	Connect_Intermediate
 1565              	.LVL179:
 221:main.c        **** 		Connect_Intermediate(i);
 1566              		.loc 2 221 0 discriminator 3
 1567 000c 0134     		adds	r4, r4, #1
 1568              	.LVL180:
 1569 000e E4B2     		uxtb	r4, r4
 1570              	.LVL181:
 1571              	.L132:
 221:main.c        **** 		Connect_Intermediate(i);
 1572              		.loc 2 221 0 is_stmt 0 discriminator 1
 1573 0010 022C     		cmp	r4, #2
 1574 0012 F8D9     		bls	.L133
 1575              	.LBE20:
 224:main.c        **** 
 1576              		.loc 2 224 0 is_stmt 1
 1577 0014 10BD     		pop	{r4, pc}
 1578              		.cfi_endproc
 1579              	.LFE80:
 1580              		.size	Connect_Intermediates, .-Connect_Intermediates
 1581              		.global	__aeabi_ui2f
 1582              		.global	__aeabi_fdiv
 1583              		.global	__aeabi_i2f
 1584              		.global	__aeabi_fmul
 1585              		.global	__aeabi_fadd
 1586              		.global	__aeabi_f2iz
 1587              		.global	__aeabi_fsub
 1588              		.section	.text.ADC_Measure_uV,"ax",%progbits
 1589              		.align	2
 1590              		.global	ADC_Measure_uV
 1591              		.thumb
 1592              		.thumb_func
 1593              		.type	ADC_Measure_uV, %function
 1594              	ADC_Measure_uV:
 1595              	.LFB81:
 227:main.c        **** 	int32 ADC_Result = 0;
 1596              		.loc 2 227 0
 1597              		.cfi_startproc
 1598              		@ args = 0, pretend = 0, frame = 8
 1599              		@ frame_needed = 0, uses_anonymous_args = 0
 1600              	.LVL182:
 1601 0000 2DE9F04F 		push	{r4, r5, r6, r7, r8, r9, r10, fp, lr}
 1602              		.cfi_def_cfa_offset 36
 1603              		.cfi_offset 4, -36
 1604              		.cfi_offset 5, -32
 1605              		.cfi_offset 6, -28
 1606              		.cfi_offset 7, -24
 1607              		.cfi_offset 8, -20
 1608              		.cfi_offset 9, -16
ARM GAS  C:\Users\FRANKL~1\AppData\Local\Temp\ccggyhWi.s 			page 48


 1609              		.cfi_offset 10, -12
 1610              		.cfi_offset 11, -8
 1611              		.cfi_offset 14, -4
 1612 0004 83B0     		sub	sp, sp, #12
 1613              		.cfi_def_cfa_offset 48
 1614 0006 0090     		str	r0, [sp]
 1615 0008 0191     		str	r1, [sp, #4]
 1616 000a 9346     		mov	fp, r2
 1617              	.LVL183:
 1618              	.LBB21:
 231:main.c        **** 		ADC_DelSig_1_StartConvert();
 1619              		.loc 2 231 0
 1620 000c 0124     		movs	r4, #1
 1621              	.LBE21:
 229:main.c        **** 	
 1622              		.loc 2 229 0
 1623 000e 4FF00009 		mov	r9, #0
 228:main.c        **** 	int32 ADC_SD = 0;
 1624              		.loc 2 228 0
 1625 0012 4D46     		mov	r5, r9
 1626              	.LBB23:
 231:main.c        **** 		ADC_DelSig_1_StartConvert();
 1627              		.loc 2 231 0
 1628 0014 45E0     		b	.L136
 1629              	.LVL184:
 1630              	.L138:
 1631              	.LBB22:
 232:main.c        **** 		while (!ADC_DelSig_1_IsEndConversion(ADC_DelSig_1_RETURN_STATUS));
 1632              		.loc 2 232 0
 1633 0016 FFF7FEFF 		bl	ADC_DelSig_1_StartConvert
 1634              	.LVL185:
 1635              	.L137:
 233:main.c        **** 		//int16 ADC_Result = ADC_DelSig_1_CountsTo_mVolts(ADC_DelSig_1_GetResult16());
 1636              		.loc 2 233 0 discriminator 1
 1637 001a 0120     		movs	r0, #1
 1638 001c FFF7FEFF 		bl	ADC_DelSig_1_IsEndConversion
 1639              	.LVL186:
 1640 0020 0028     		cmp	r0, #0
 1641 0022 FAD0     		beq	.L137
 235:main.c        **** 		
 1642              		.loc 2 235 0 discriminator 2
 1643 0024 FFF7FEFF 		bl	ADC_DelSig_1_GetResult32
 1644              	.LVL187:
 1645 0028 FFF7FEFF 		bl	ADC_DelSig_1_CountsTo_uVolts
 1646              	.LVL188:
 1647 002c 0746     		mov	r7, r0
 1648              	.LVL189:
 237:main.c        **** 		ADC_Result += ((float)ADC_Result_Current - (float)ADC_Result)/(float)i;
 1649              		.loc 2 237 0 discriminator 2
 1650 002e 601E     		subs	r0, r4, #1
 1651              	.LVL190:
 1652 0030 FFF7FEFF 		bl	__aeabi_ui2f
 1653              	.LVL191:
 1654 0034 8046     		mov	r8, r0
 1655 0036 2046     		mov	r0, r4
 1656 0038 FFF7FEFF 		bl	__aeabi_ui2f
 1657              	.LVL192:
ARM GAS  C:\Users\FRANKL~1\AppData\Local\Temp\ccggyhWi.s 			page 49


 1658 003c 0646     		mov	r6, r0
 1659 003e 0146     		mov	r1, r0
 1660 0040 4046     		mov	r0, r8
 1661 0042 FFF7FEFF 		bl	__aeabi_fdiv
 1662              	.LVL193:
 1663 0046 8246     		mov	r10, r0
 1664 0048 781B     		subs	r0, r7, r5
 1665 004a FFF7FEFF 		bl	__aeabi_i2f
 1666              	.LVL194:
 1667 004e 8046     		mov	r8, r0
 1668 0050 0146     		mov	r1, r0
 1669 0052 5046     		mov	r0, r10
 1670 0054 FFF7FEFF 		bl	__aeabi_fmul
 1671              	.LVL195:
 1672 0058 0146     		mov	r1, r0
 1673 005a 4046     		mov	r0, r8
 1674 005c FFF7FEFF 		bl	__aeabi_fmul
 1675              	.LVL196:
 1676 0060 8046     		mov	r8, r0
 1677 0062 4846     		mov	r0, r9
 1678 0064 FFF7FEFF 		bl	__aeabi_i2f
 1679              	.LVL197:
 1680 0068 4146     		mov	r1, r8
 1681 006a FFF7FEFF 		bl	__aeabi_fadd
 1682              	.LVL198:
 1683 006e FFF7FEFF 		bl	__aeabi_f2iz
 1684              	.LVL199:
 1685 0072 8146     		mov	r9, r0
 1686              	.LVL200:
 238:main.c        **** 	}
 1687              		.loc 2 238 0 discriminator 2
 1688 0074 3846     		mov	r0, r7
 1689              	.LVL201:
 1690 0076 FFF7FEFF 		bl	__aeabi_i2f
 1691              	.LVL202:
 1692 007a 0746     		mov	r7, r0
 1693              	.LVL203:
 1694 007c 2846     		mov	r0, r5
 1695 007e FFF7FEFF 		bl	__aeabi_i2f
 1696              	.LVL204:
 1697 0082 0546     		mov	r5, r0
 1698              	.LVL205:
 1699 0084 0146     		mov	r1, r0
 1700 0086 3846     		mov	r0, r7
 1701 0088 FFF7FEFF 		bl	__aeabi_fsub
 1702              	.LVL206:
 1703 008c 3146     		mov	r1, r6
 1704 008e FFF7FEFF 		bl	__aeabi_fdiv
 1705              	.LVL207:
 1706 0092 0146     		mov	r1, r0
 1707 0094 2846     		mov	r0, r5
 1708 0096 FFF7FEFF 		bl	__aeabi_fadd
 1709              	.LVL208:
 1710 009a FFF7FEFF 		bl	__aeabi_f2iz
 1711              	.LVL209:
 1712 009e 0546     		mov	r5, r0
 1713              	.LVL210:
ARM GAS  C:\Users\FRANKL~1\AppData\Local\Temp\ccggyhWi.s 			page 50


 1714              	.LBE22:
 231:main.c        **** 		ADC_DelSig_1_StartConvert();
 1715              		.loc 2 231 0 discriminator 2
 1716 00a0 0134     		adds	r4, r4, #1
 1717              	.LVL211:
 1718              	.L136:
 231:main.c        **** 		ADC_DelSig_1_StartConvert();
 1719              		.loc 2 231 0 is_stmt 0 discriminator 1
 1720 00a2 5C45     		cmp	r4, fp
 1721 00a4 B7D9     		bls	.L138
 1722              	.LBE23:
 241:main.c        **** 	*standardDeviation = ADC_SD;
 1723              		.loc 2 241 0 is_stmt 1
 1724 00a6 009B     		ldr	r3, [sp]
 1725 00a8 1D60     		str	r5, [r3]
 242:main.c        **** }
 1726              		.loc 2 242 0
 1727 00aa 019B     		ldr	r3, [sp, #4]
 1728 00ac C3F80090 		str	r9, [r3]
 243:main.c        **** 
 1729              		.loc 2 243 0
 1730 00b0 03B0     		add	sp, sp, #12
 1731              		.cfi_def_cfa_offset 36
 1732              	.LVL212:
 1733              		@ sp needed
 1734 00b2 BDE8F08F 		pop	{r4, r5, r6, r7, r8, r9, r10, fp, pc}
 1735              		.cfi_endproc
 1736              	.LFE81:
 1737              		.size	ADC_Measure_uV, .-ADC_Measure_uV
 1738 00b6 00BF     		.section	.text.SAR1_Measure_V,"ax",%progbits
 1739              		.align	2
 1740              		.global	SAR1_Measure_V
 1741              		.thumb
 1742              		.thumb_func
 1743              		.type	SAR1_Measure_V, %function
 1744              	SAR1_Measure_V:
 1745              	.LFB82:
 246:main.c        **** 	int32 SAR_Result = 0;
 1746              		.loc 2 246 0
 1747              		.cfi_startproc
 1748              		@ args = 0, pretend = 0, frame = 8
 1749              		@ frame_needed = 0, uses_anonymous_args = 0
 1750              	.LVL213:
 1751 0000 2DE9F04F 		push	{r4, r5, r6, r7, r8, r9, r10, fp, lr}
 1752              		.cfi_def_cfa_offset 36
 1753              		.cfi_offset 4, -36
 1754              		.cfi_offset 5, -32
 1755              		.cfi_offset 6, -28
 1756              		.cfi_offset 7, -24
 1757              		.cfi_offset 8, -20
 1758              		.cfi_offset 9, -16
 1759              		.cfi_offset 10, -12
 1760              		.cfi_offset 11, -8
 1761              		.cfi_offset 14, -4
 1762 0004 83B0     		sub	sp, sp, #12
 1763              		.cfi_def_cfa_offset 48
 1764 0006 0090     		str	r0, [sp]
ARM GAS  C:\Users\FRANKL~1\AppData\Local\Temp\ccggyhWi.s 			page 51


 1765 0008 0191     		str	r1, [sp, #4]
 1766 000a 9346     		mov	fp, r2
 1767              	.LVL214:
 1768              	.LBB24:
 250:main.c        **** 		ADC_SAR_1_StartConvert();
 1769              		.loc 2 250 0
 1770 000c 0124     		movs	r4, #1
 1771              	.LBE24:
 248:main.c        **** 	
 1772              		.loc 2 248 0
 1773 000e 4FF00009 		mov	r9, #0
 247:main.c        **** 	int32 SAR_SD = 0;
 1774              		.loc 2 247 0
 1775 0012 4D46     		mov	r5, r9
 1776              	.LBB26:
 250:main.c        **** 		ADC_SAR_1_StartConvert();
 1777              		.loc 2 250 0
 1778 0014 45E0     		b	.L141
 1779              	.LVL215:
 1780              	.L143:
 1781              	.LBB25:
 251:main.c        **** 		while (!ADC_SAR_1_IsEndConversion(ADC_SAR_1_RETURN_STATUS));
 1782              		.loc 2 251 0
 1783 0016 FFF7FEFF 		bl	ADC_SAR_1_StartConvert
 1784              	.LVL216:
 1785              	.L142:
 252:main.c        **** 		
 1786              		.loc 2 252 0 discriminator 1
 1787 001a 0120     		movs	r0, #1
 1788 001c FFF7FEFF 		bl	ADC_SAR_1_IsEndConversion
 1789              	.LVL217:
 1790 0020 0028     		cmp	r0, #0
 1791 0022 FAD0     		beq	.L142
 254:main.c        **** 		
 1792              		.loc 2 254 0 discriminator 2
 1793 0024 FFF7FEFF 		bl	ADC_SAR_1_GetResult16
 1794              	.LVL218:
 1795 0028 FFF7FEFF 		bl	ADC_SAR_1_CountsTo_uVolts
 1796              	.LVL219:
 1797 002c 0746     		mov	r7, r0
 1798              	.LVL220:
 256:main.c        **** 		SAR_Result += ((float)SAR1_Result_Current - (float)SAR_Result)/(float)i;
 1799              		.loc 2 256 0 discriminator 2
 1800 002e 601E     		subs	r0, r4, #1
 1801              	.LVL221:
 1802 0030 FFF7FEFF 		bl	__aeabi_ui2f
 1803              	.LVL222:
 1804 0034 8046     		mov	r8, r0
 1805 0036 2046     		mov	r0, r4
 1806 0038 FFF7FEFF 		bl	__aeabi_ui2f
 1807              	.LVL223:
 1808 003c 0646     		mov	r6, r0
 1809 003e 0146     		mov	r1, r0
 1810 0040 4046     		mov	r0, r8
 1811 0042 FFF7FEFF 		bl	__aeabi_fdiv
 1812              	.LVL224:
 1813 0046 8246     		mov	r10, r0
ARM GAS  C:\Users\FRANKL~1\AppData\Local\Temp\ccggyhWi.s 			page 52


 1814 0048 781B     		subs	r0, r7, r5
 1815 004a FFF7FEFF 		bl	__aeabi_i2f
 1816              	.LVL225:
 1817 004e 8046     		mov	r8, r0
 1818 0050 0146     		mov	r1, r0
 1819 0052 5046     		mov	r0, r10
 1820 0054 FFF7FEFF 		bl	__aeabi_fmul
 1821              	.LVL226:
 1822 0058 0146     		mov	r1, r0
 1823 005a 4046     		mov	r0, r8
 1824 005c FFF7FEFF 		bl	__aeabi_fmul
 1825              	.LVL227:
 1826 0060 8046     		mov	r8, r0
 1827 0062 4846     		mov	r0, r9
 1828 0064 FFF7FEFF 		bl	__aeabi_i2f
 1829              	.LVL228:
 1830 0068 4146     		mov	r1, r8
 1831 006a FFF7FEFF 		bl	__aeabi_fadd
 1832              	.LVL229:
 1833 006e FFF7FEFF 		bl	__aeabi_f2iz
 1834              	.LVL230:
 1835 0072 8146     		mov	r9, r0
 1836              	.LVL231:
 257:main.c        **** 	}
 1837              		.loc 2 257 0 discriminator 2
 1838 0074 3846     		mov	r0, r7
 1839              	.LVL232:
 1840 0076 FFF7FEFF 		bl	__aeabi_i2f
 1841              	.LVL233:
 1842 007a 0746     		mov	r7, r0
 1843              	.LVL234:
 1844 007c 2846     		mov	r0, r5
 1845 007e FFF7FEFF 		bl	__aeabi_i2f
 1846              	.LVL235:
 1847 0082 0546     		mov	r5, r0
 1848              	.LVL236:
 1849 0084 0146     		mov	r1, r0
 1850 0086 3846     		mov	r0, r7
 1851 0088 FFF7FEFF 		bl	__aeabi_fsub
 1852              	.LVL237:
 1853 008c 3146     		mov	r1, r6
 1854 008e FFF7FEFF 		bl	__aeabi_fdiv
 1855              	.LVL238:
 1856 0092 0146     		mov	r1, r0
 1857 0094 2846     		mov	r0, r5
 1858 0096 FFF7FEFF 		bl	__aeabi_fadd
 1859              	.LVL239:
 1860 009a FFF7FEFF 		bl	__aeabi_f2iz
 1861              	.LVL240:
 1862 009e 0546     		mov	r5, r0
 1863              	.LVL241:
 1864              	.LBE25:
 250:main.c        **** 		ADC_SAR_1_StartConvert();
 1865              		.loc 2 250 0 discriminator 2
 1866 00a0 0134     		adds	r4, r4, #1
 1867              	.LVL242:
 1868              	.L141:
ARM GAS  C:\Users\FRANKL~1\AppData\Local\Temp\ccggyhWi.s 			page 53


 250:main.c        **** 		ADC_SAR_1_StartConvert();
 1869              		.loc 2 250 0 is_stmt 0 discriminator 1
 1870 00a2 5C45     		cmp	r4, fp
 1871 00a4 B7D9     		bls	.L143
 1872              	.LBE26:
 260:main.c        **** 	*standardDeviation = SAR_SD;
 1873              		.loc 2 260 0 is_stmt 1
 1874 00a6 009B     		ldr	r3, [sp]
 1875 00a8 1D60     		str	r5, [r3]
 261:main.c        **** }
 1876              		.loc 2 261 0
 1877 00aa 019B     		ldr	r3, [sp, #4]
 1878 00ac C3F80090 		str	r9, [r3]
 262:main.c        **** 
 1879              		.loc 2 262 0
 1880 00b0 03B0     		add	sp, sp, #12
 1881              		.cfi_def_cfa_offset 36
 1882              	.LVL243:
 1883              		@ sp needed
 1884 00b2 BDE8F08F 		pop	{r4, r5, r6, r7, r8, r9, r10, fp, pc}
 1885              		.cfi_endproc
 1886              	.LFE82:
 1887              		.size	SAR1_Measure_V, .-SAR1_Measure_V
 1888 00b6 00BF     		.section	.text.SAR2_Measure_V,"ax",%progbits
 1889              		.align	2
 1890              		.global	SAR2_Measure_V
 1891              		.thumb
 1892              		.thumb_func
 1893              		.type	SAR2_Measure_V, %function
 1894              	SAR2_Measure_V:
 1895              	.LFB83:
 265:main.c        **** 	int32 SAR_Result = 0;
 1896              		.loc 2 265 0
 1897              		.cfi_startproc
 1898              		@ args = 0, pretend = 0, frame = 8
 1899              		@ frame_needed = 0, uses_anonymous_args = 0
 1900              	.LVL244:
 1901 0000 2DE9F04F 		push	{r4, r5, r6, r7, r8, r9, r10, fp, lr}
 1902              		.cfi_def_cfa_offset 36
 1903              		.cfi_offset 4, -36
 1904              		.cfi_offset 5, -32
 1905              		.cfi_offset 6, -28
 1906              		.cfi_offset 7, -24
 1907              		.cfi_offset 8, -20
 1908              		.cfi_offset 9, -16
 1909              		.cfi_offset 10, -12
 1910              		.cfi_offset 11, -8
 1911              		.cfi_offset 14, -4
 1912 0004 83B0     		sub	sp, sp, #12
 1913              		.cfi_def_cfa_offset 48
 1914 0006 0090     		str	r0, [sp]
 1915 0008 0191     		str	r1, [sp, #4]
 1916 000a 9346     		mov	fp, r2
 1917              	.LVL245:
 1918              	.LBB27:
 269:main.c        **** 		ADC_SAR_2_StartConvert();
 1919              		.loc 2 269 0
ARM GAS  C:\Users\FRANKL~1\AppData\Local\Temp\ccggyhWi.s 			page 54


 1920 000c 0124     		movs	r4, #1
 1921              	.LBE27:
 267:main.c        **** 	
 1922              		.loc 2 267 0
 1923 000e 4FF00009 		mov	r9, #0
 266:main.c        **** 	int32 SAR_SD = 0;
 1924              		.loc 2 266 0
 1925 0012 4D46     		mov	r5, r9
 1926              	.LBB29:
 269:main.c        **** 		ADC_SAR_2_StartConvert();
 1927              		.loc 2 269 0
 1928 0014 45E0     		b	.L146
 1929              	.LVL246:
 1930              	.L148:
 1931              	.LBB28:
 270:main.c        **** 		while (!ADC_SAR_2_IsEndConversion(ADC_SAR_2_RETURN_STATUS));
 1932              		.loc 2 270 0
 1933 0016 FFF7FEFF 		bl	ADC_SAR_2_StartConvert
 1934              	.LVL247:
 1935              	.L147:
 271:main.c        **** 		
 1936              		.loc 2 271 0 discriminator 1
 1937 001a 0120     		movs	r0, #1
 1938 001c FFF7FEFF 		bl	ADC_SAR_2_IsEndConversion
 1939              	.LVL248:
 1940 0020 0028     		cmp	r0, #0
 1941 0022 FAD0     		beq	.L147
 273:main.c        **** 		
 1942              		.loc 2 273 0 discriminator 2
 1943 0024 FFF7FEFF 		bl	ADC_SAR_2_GetResult16
 1944              	.LVL249:
 1945 0028 FFF7FEFF 		bl	ADC_SAR_2_CountsTo_uVolts
 1946              	.LVL250:
 1947 002c 0746     		mov	r7, r0
 1948              	.LVL251:
 275:main.c        **** 		SAR_Result += ((float)SAR2_Result_Current - (float)SAR_Result)/(float)i;
 1949              		.loc 2 275 0 discriminator 2
 1950 002e 601E     		subs	r0, r4, #1
 1951              	.LVL252:
 1952 0030 FFF7FEFF 		bl	__aeabi_ui2f
 1953              	.LVL253:
 1954 0034 8046     		mov	r8, r0
 1955 0036 2046     		mov	r0, r4
 1956 0038 FFF7FEFF 		bl	__aeabi_ui2f
 1957              	.LVL254:
 1958 003c 0646     		mov	r6, r0
 1959 003e 0146     		mov	r1, r0
 1960 0040 4046     		mov	r0, r8
 1961 0042 FFF7FEFF 		bl	__aeabi_fdiv
 1962              	.LVL255:
 1963 0046 8246     		mov	r10, r0
 1964 0048 781B     		subs	r0, r7, r5
 1965 004a FFF7FEFF 		bl	__aeabi_i2f
 1966              	.LVL256:
 1967 004e 8046     		mov	r8, r0
 1968 0050 0146     		mov	r1, r0
 1969 0052 5046     		mov	r0, r10
ARM GAS  C:\Users\FRANKL~1\AppData\Local\Temp\ccggyhWi.s 			page 55


 1970 0054 FFF7FEFF 		bl	__aeabi_fmul
 1971              	.LVL257:
 1972 0058 0146     		mov	r1, r0
 1973 005a 4046     		mov	r0, r8
 1974 005c FFF7FEFF 		bl	__aeabi_fmul
 1975              	.LVL258:
 1976 0060 8046     		mov	r8, r0
 1977 0062 4846     		mov	r0, r9
 1978 0064 FFF7FEFF 		bl	__aeabi_i2f
 1979              	.LVL259:
 1980 0068 4146     		mov	r1, r8
 1981 006a FFF7FEFF 		bl	__aeabi_fadd
 1982              	.LVL260:
 1983 006e FFF7FEFF 		bl	__aeabi_f2iz
 1984              	.LVL261:
 1985 0072 8146     		mov	r9, r0
 1986              	.LVL262:
 276:main.c        **** 	}
 1987              		.loc 2 276 0 discriminator 2
 1988 0074 3846     		mov	r0, r7
 1989              	.LVL263:
 1990 0076 FFF7FEFF 		bl	__aeabi_i2f
 1991              	.LVL264:
 1992 007a 0746     		mov	r7, r0
 1993              	.LVL265:
 1994 007c 2846     		mov	r0, r5
 1995 007e FFF7FEFF 		bl	__aeabi_i2f
 1996              	.LVL266:
 1997 0082 0546     		mov	r5, r0
 1998              	.LVL267:
 1999 0084 0146     		mov	r1, r0
 2000 0086 3846     		mov	r0, r7
 2001 0088 FFF7FEFF 		bl	__aeabi_fsub
 2002              	.LVL268:
 2003 008c 3146     		mov	r1, r6
 2004 008e FFF7FEFF 		bl	__aeabi_fdiv
 2005              	.LVL269:
 2006 0092 0146     		mov	r1, r0
 2007 0094 2846     		mov	r0, r5
 2008 0096 FFF7FEFF 		bl	__aeabi_fadd
 2009              	.LVL270:
 2010 009a FFF7FEFF 		bl	__aeabi_f2iz
 2011              	.LVL271:
 2012 009e 0546     		mov	r5, r0
 2013              	.LVL272:
 2014              	.LBE28:
 269:main.c        **** 		ADC_SAR_2_StartConvert();
 2015              		.loc 2 269 0 discriminator 2
 2016 00a0 0134     		adds	r4, r4, #1
 2017              	.LVL273:
 2018              	.L146:
 269:main.c        **** 		ADC_SAR_2_StartConvert();
 2019              		.loc 2 269 0 is_stmt 0 discriminator 1
 2020 00a2 5C45     		cmp	r4, fp
 2021 00a4 B7D9     		bls	.L148
 2022              	.LBE29:
 279:main.c        **** 	*standardDeviation = SAR_SD;
ARM GAS  C:\Users\FRANKL~1\AppData\Local\Temp\ccggyhWi.s 			page 56


 2023              		.loc 2 279 0 is_stmt 1
 2024 00a6 009B     		ldr	r3, [sp]
 2025 00a8 1D60     		str	r5, [r3]
 280:main.c        **** }
 2026              		.loc 2 280 0
 2027 00aa 019B     		ldr	r3, [sp, #4]
 2028 00ac C3F80090 		str	r9, [r3]
 281:main.c        **** 
 2029              		.loc 2 281 0
 2030 00b0 03B0     		add	sp, sp, #12
 2031              		.cfi_def_cfa_offset 36
 2032              	.LVL274:
 2033              		@ sp needed
 2034 00b2 BDE8F08F 		pop	{r4, r5, r6, r7, r8, r9, r10, fp, pc}
 2035              		.cfi_endproc
 2036              	.LFE83:
 2037              		.size	SAR2_Measure_V, .-SAR2_Measure_V
 2038              		.global	__aeabi_i2d
 2039              		.global	__aeabi_dcmpgt
 2040              		.global	__aeabi_f2d
 2041              		.global	__aeabi_dsub
 2042              		.global	__aeabi_ddiv
 2043              		.global	__aeabi_dmul
 2044              		.global	__aeabi_dadd
 2045              		.global	__aeabi_d2f
 2046 00b6 00BF     		.section	.text.Measure_Current_Vss,"ax",%progbits
 2047              		.align	2
 2048              		.global	Measure_Current_Vss
 2049              		.thumb
 2050              		.thumb_func
 2051              		.type	Measure_Current_Vss, %function
 2052              	Measure_Current_Vss:
 2053              	.LFB84:
 284:main.c        **** 	Compliance_Reached = 0;
 2054              		.loc 2 284 0
 2055              		.cfi_startproc
 2056              		@ args = 0, pretend = 0, frame = 24
 2057              		@ frame_needed = 0, uses_anonymous_args = 0
 2058              	.LVL275:
 2059 0000 2DE9F04F 		push	{r4, r5, r6, r7, r8, r9, r10, fp, lr}
 2060              		.cfi_def_cfa_offset 36
 2061              		.cfi_offset 4, -36
 2062              		.cfi_offset 5, -32
 2063              		.cfi_offset 6, -28
 2064              		.cfi_offset 7, -24
 2065              		.cfi_offset 8, -20
 2066              		.cfi_offset 9, -16
 2067              		.cfi_offset 10, -12
 2068              		.cfi_offset 11, -8
 2069              		.cfi_offset 14, -4
 2070 0004 87B0     		sub	sp, sp, #28
 2071              		.cfi_def_cfa_offset 64
 2072 0006 0290     		str	r0, [sp, #8]
 2073 0008 0391     		str	r1, [sp, #12]
 2074 000a 9346     		mov	fp, r2
 285:main.c        **** 	
 2075              		.loc 2 285 0
ARM GAS  C:\Users\FRANKL~1\AppData\Local\Temp\ccggyhWi.s 			page 57


 2076 000c 0023     		movs	r3, #0
 2077 000e 3E4A     		ldr	r2, .L159+8
 2078              	.LVL276:
 2079 0010 1370     		strb	r3, [r2]
 288:main.c        **** 	int32 voltageSD = 0;
 2080              		.loc 2 288 0
 2081 0012 0593     		str	r3, [sp, #20]
 289:main.c        **** 	
 2082              		.loc 2 289 0
 2083 0014 06A9     		add	r1, sp, #24
 2084              	.LVL277:
 2085 0016 41F8083D 		str	r3, [r1, #-8]!
 2086              	.LVL278:
 301:main.c        **** 	
 2087              		.loc 2 301 0
 2088 001a 0322     		movs	r2, #3
 2089 001c 05A8     		add	r0, sp, #20
 2090              	.LVL279:
 2091 001e FFF7FEFF 		bl	ADC_Measure_uV
 2092              	.LVL280:
 2093              	.LBB30:
 304:main.c        **** 		ADC_Measure_uV(&voltage, &voltageSD, 1);
 2094              		.loc 2 304 0
 2095 0022 0124     		movs	r4, #1
 2096              	.LBE30:
 295:main.c        **** 	
 2097              		.loc 2 295 0
 2098 0024 4FF00008 		mov	r8, #0
 294:main.c        **** 	float currentStdDev = 0;
 2099              		.loc 2 294 0
 2100 0028 C146     		mov	r9, r8
 2101              	.LBB31:
 304:main.c        **** 		ADC_Measure_uV(&voltage, &voltageSD, 1);
 2102              		.loc 2 304 0
 2103 002a 5DE0     		b	.L151
 2104              	.LVL281:
 2105              	.L155:
 305:main.c        **** 		
 2106              		.loc 2 305 0
 2107 002c 0122     		movs	r2, #1
 2108 002e 04A9     		add	r1, sp, #16
 2109 0030 05A8     		add	r0, sp, #20
 2110 0032 FFF7FEFF 		bl	ADC_Measure_uV
 2111              	.LVL282:
 307:main.c        **** 		
 2112              		.loc 2 307 0
 2113 0036 0598     		ldr	r0, [sp, #20]
 2114 0038 FFF7FEFF 		bl	__aeabi_i2f
 2115              	.LVL283:
 2116 003c 3349     		ldr	r1, .L159+12
 2117 003e FFF7FEFF 		bl	__aeabi_fmul
 2118              	.LVL284:
 2119 0042 0546     		mov	r5, r0
 2120              	.LVL285:
 309:main.c        **** 			Compliance_Reached += 1;
 2121              		.loc 2 309 0
 2122 0044 FFF7FEFF 		bl	__aeabi_f2iz
ARM GAS  C:\Users\FRANKL~1\AppData\Local\Temp\ccggyhWi.s 			page 58


 2123              	.LVL286:
 2124 0048 0028     		cmp	r0, #0
 2125 004a B8BF     		it	lt
 2126 004c 4042     		rsblt	r0, r0, #0
 2127 004e FFF7FEFF 		bl	__aeabi_i2d
 2128              	.LVL287:
 2129 0052 2BA3     		adr	r3, .L159
 2130 0054 D3E90023 		ldrd	r2, [r3]
 2131 0058 FFF7FEFF 		bl	__aeabi_dcmpgt
 2132              	.LVL288:
 2133 005c 20B1     		cbz	r0, .L157
 310:main.c        **** 			break;
 2134              		.loc 2 310 0
 2135 005e 2A4A     		ldr	r2, .L159+8
 2136 0060 1378     		ldrb	r3, [r2]	@ zero_extendqisi2
 2137 0062 0133     		adds	r3, r3, #1
 2138 0064 1370     		strb	r3, [r2]
 311:main.c        **** 		} else {
 2139              		.loc 2 311 0
 2140 0066 41E0     		b	.L154
 2141              	.L157:
 313:main.c        **** 		}
 2142              		.loc 2 313 0 discriminator 2
 2143 0068 0022     		movs	r2, #0
 2144 006a 274B     		ldr	r3, .L159+8
 2145 006c 1A70     		strb	r2, [r3]
 316:main.c        **** 		currentAverage += (currentNow - currentAverage)/(float)i;
 2146              		.loc 2 316 0 discriminator 2
 2147 006e 2046     		mov	r0, r4
 2148 0070 FFF7FEFF 		bl	__aeabi_ui2f
 2149              	.LVL289:
 2150 0074 8246     		mov	r10, r0
 2151 0076 FFF7FEFF 		bl	__aeabi_f2d
 2152              	.LVL290:
 2153 007a 0646     		mov	r6, r0
 2154 007c 0F46     		mov	r7, r1
 2155 007e 0022     		movs	r2, #0
 2156 0080 234B     		ldr	r3, .L159+16
 2157 0082 FFF7FEFF 		bl	__aeabi_dsub
 2158              	.LVL291:
 2159 0086 3246     		mov	r2, r6
 2160 0088 3B46     		mov	r3, r7
 2161 008a FFF7FEFF 		bl	__aeabi_ddiv
 2162              	.LVL292:
 2163 008e CDE90001 		strd	r0, [sp]
 2164 0092 4946     		mov	r1, r9
 2165 0094 2846     		mov	r0, r5
 2166 0096 FFF7FEFF 		bl	__aeabi_fsub
 2167              	.LVL293:
 2168 009a 0546     		mov	r5, r0
 2169              	.LVL294:
 2170 009c FFF7FEFF 		bl	__aeabi_f2d
 2171              	.LVL295:
 2172 00a0 0646     		mov	r6, r0
 2173 00a2 0F46     		mov	r7, r1
 2174 00a4 0246     		mov	r2, r0
 2175 00a6 0B46     		mov	r3, r1
ARM GAS  C:\Users\FRANKL~1\AppData\Local\Temp\ccggyhWi.s 			page 59


 2176 00a8 DDE90001 		ldrd	r0, [sp]
 2177 00ac FFF7FEFF 		bl	__aeabi_dmul
 2178              	.LVL296:
 2179 00b0 0246     		mov	r2, r0
 2180 00b2 0B46     		mov	r3, r1
 2181 00b4 3046     		mov	r0, r6
 2182 00b6 3946     		mov	r1, r7
 2183 00b8 FFF7FEFF 		bl	__aeabi_dmul
 2184              	.LVL297:
 2185 00bc 0646     		mov	r6, r0
 2186 00be 0F46     		mov	r7, r1
 2187 00c0 4046     		mov	r0, r8
 2188 00c2 FFF7FEFF 		bl	__aeabi_f2d
 2189              	.LVL298:
 2190 00c6 3246     		mov	r2, r6
 2191 00c8 3B46     		mov	r3, r7
 2192 00ca FFF7FEFF 		bl	__aeabi_dadd
 2193              	.LVL299:
 2194 00ce FFF7FEFF 		bl	__aeabi_d2f
 2195              	.LVL300:
 2196 00d2 8046     		mov	r8, r0
 2197              	.LVL301:
 317:main.c        **** 	}
 2198              		.loc 2 317 0 discriminator 2
 2199 00d4 5146     		mov	r1, r10
 2200 00d6 2846     		mov	r0, r5
 2201              	.LVL302:
 2202 00d8 FFF7FEFF 		bl	__aeabi_fdiv
 2203              	.LVL303:
 2204 00dc 0146     		mov	r1, r0
 2205 00de 4846     		mov	r0, r9
 2206 00e0 FFF7FEFF 		bl	__aeabi_fadd
 2207              	.LVL304:
 2208 00e4 8146     		mov	r9, r0
 2209              	.LVL305:
 304:main.c        **** 		ADC_Measure_uV(&voltage, &voltageSD, 1);
 2210              		.loc 2 304 0 discriminator 2
 2211 00e6 0134     		adds	r4, r4, #1
 2212              	.LVL306:
 2213              	.L151:
 304:main.c        **** 		ADC_Measure_uV(&voltage, &voltageSD, 1);
 2214              		.loc 2 304 0 is_stmt 0 discriminator 1
 2215 00e8 5C45     		cmp	r4, fp
 2216 00ea 9FD9     		bls	.L155
 2217              	.L154:
 2218              	.LBE31:
 320:main.c        **** 	*currentStdDevIn = currentStdDev;
 2219              		.loc 2 320 0 is_stmt 1
 2220 00ec 029B     		ldr	r3, [sp, #8]
 2221 00ee C3F80090 		str	r9, [r3]	@ float
 321:main.c        **** }
 2222              		.loc 2 321 0
 2223 00f2 039B     		ldr	r3, [sp, #12]
 2224 00f4 C3F80080 		str	r8, [r3]	@ float
 322:main.c        **** 
 2225              		.loc 2 322 0
 2226 00f8 07B0     		add	sp, sp, #28
ARM GAS  C:\Users\FRANKL~1\AppData\Local\Temp\ccggyhWi.s 			page 60


 2227              		.cfi_def_cfa_offset 36
 2228              		@ sp needed
 2229 00fa BDE8F08F 		pop	{r4, r5, r6, r7, r8, r9, r10, fp, pc}
 2230              	.LVL307:
 2231              	.L160:
 2232 00fe 00BF     		.align	3
 2233              	.L159:
 2234 0100 F168E388 		.word	-1998362383
 2235 0104 B5F8E43E 		.word	1055193269
 2236 0108 00000000 		.word	Compliance_Reached
 2237 010c FFE65BAE 		.word	-1369708801
 2238 0110 0000F03F 		.word	1072693248
 2239              		.cfi_endproc
 2240              	.LFE84:
 2241              		.size	Measure_Current_Vss, .-Measure_Current_Vss
 2242              		.section	.text.At_Compliance,"ax",%progbits
 2243              		.align	2
 2244              		.global	At_Compliance
 2245              		.thumb
 2246              		.thumb_func
 2247              		.type	At_Compliance, %function
 2248              	At_Compliance:
 2249              	.LFB85:
 324:main.c        **** 	Compliance_Reached = 0;
 2250              		.loc 2 324 0
 2251              		.cfi_startproc
 2252              		@ args = 0, pretend = 0, frame = 8
 2253              		@ frame_needed = 0, uses_anonymous_args = 0
 2254 0000 00B5     		push	{lr}
 2255              		.cfi_def_cfa_offset 4
 2256              		.cfi_offset 14, -4
 2257 0002 83B0     		sub	sp, sp, #12
 2258              		.cfi_def_cfa_offset 16
 325:main.c        **** 	
 2259              		.loc 2 325 0
 2260 0004 0022     		movs	r2, #0
 2261 0006 124B     		ldr	r3, .L168+8
 2262 0008 1A70     		strb	r2, [r3]
 327:main.c        **** 	float currentSD = 0;
 2263              		.loc 2 327 0
 2264 000a 0023     		movs	r3, #0
 2265 000c 0193     		str	r3, [sp, #4]	@ float
 328:main.c        **** 	
 2266              		.loc 2 328 0
 2267 000e 02A9     		add	r1, sp, #8
 2268 0010 41F8083D 		str	r3, [r1, #-8]!	@ float
 330:main.c        **** 	
 2269              		.loc 2 330 0
 2270 0014 0322     		movs	r2, #3
 2271 0016 01A8     		add	r0, sp, #4
 2272 0018 FFF7FEFF 		bl	Measure_Current_Vss
 2273              	.LVL308:
 332:main.c        **** 		Compliance_Reached = 1;
 2274              		.loc 2 332 0
 2275 001c 0198     		ldr	r0, [sp, #4]	@ float
 2276 001e FFF7FEFF 		bl	__aeabi_f2iz
 2277              	.LVL309:
ARM GAS  C:\Users\FRANKL~1\AppData\Local\Temp\ccggyhWi.s 			page 61


 2278 0022 0028     		cmp	r0, #0
 2279 0024 B8BF     		it	lt
 2280 0026 4042     		rsblt	r0, r0, #0
 2281 0028 FFF7FEFF 		bl	__aeabi_i2d
 2282              	.LVL310:
 2283 002c 06A3     		adr	r3, .L168
 2284 002e D3E90023 		ldrd	r2, [r3]
 2285 0032 FFF7FEFF 		bl	__aeabi_dcmpgt
 2286              	.LVL311:
 2287 0036 18B1     		cbz	r0, .L166
 333:main.c        **** 		return 1;
 2288              		.loc 2 333 0
 2289 0038 0120     		movs	r0, #1
 2290 003a 054B     		ldr	r3, .L168+8
 2291 003c 1870     		strb	r0, [r3]
 334:main.c        **** 	}
 2292              		.loc 2 334 0
 2293 003e 00E0     		b	.L162
 2294              	.L166:
 337:main.c        **** }
 2295              		.loc 2 337 0
 2296 0040 0020     		movs	r0, #0
 2297              	.L162:
 338:main.c        **** 
 2298              		.loc 2 338 0
 2299 0042 03B0     		add	sp, sp, #12
 2300              		.cfi_def_cfa_offset 4
 2301              		@ sp needed
 2302 0044 5DF804FB 		ldr	pc, [sp], #4
 2303              	.L169:
 2304              		.align	3
 2305              	.L168:
 2306 0048 F168E388 		.word	-1998362383
 2307 004c B5F8E43E 		.word	1055193269
 2308 0050 00000000 		.word	Compliance_Reached
 2309              		.cfi_endproc
 2310              	.LFE85:
 2311              		.size	At_Compliance, .-At_Compliance
 2312              		.section	.text.Handle_Compliance_Breach,"ax",%progbits
 2313              		.align	2
 2314              		.global	Handle_Compliance_Breach
 2315              		.thumb
 2316              		.thumb_func
 2317              		.type	Handle_Compliance_Breach, %function
 2318              	Handle_Compliance_Breach:
 2319              	.LFB86:
 340:main.c        **** 	uint8 istart = VDAC_Vds_Data;
 2320              		.loc 2 340 0
 2321              		.cfi_startproc
 2322              		@ args = 0, pretend = 0, frame = 0
 2323              		@ frame_needed = 0, uses_anonymous_args = 0
 2324 0000 70B5     		push	{r4, r5, r6, lr}
 2325              		.cfi_def_cfa_offset 16
 2326              		.cfi_offset 4, -16
 2327              		.cfi_offset 5, -12
 2328              		.cfi_offset 6, -8
 2329              		.cfi_offset 14, -4
ARM GAS  C:\Users\FRANKL~1\AppData\Local\Temp\ccggyhWi.s 			page 62


 341:main.c        **** 	uint8 istop = VDAC_Ref_Data;
 2330              		.loc 2 341 0
 2331 0002 174B     		ldr	r3, .L181
 2332 0004 1C78     		ldrb	r4, [r3]	@ zero_extendqisi2
 2333 0006 E4B2     		uxtb	r4, r4
 2334              	.LVL312:
 342:main.c        **** 	int8 increment = 1;
 2335              		.loc 2 342 0
 2336 0008 0233     		adds	r3, r3, #2
 2337 000a 1D78     		ldrb	r5, [r3]	@ zero_extendqisi2
 2338 000c EDB2     		uxtb	r5, r5
 2339              	.LVL313:
 344:main.c        **** 	
 2340              		.loc 2 344 0
 2341 000e AC42     		cmp	r4, r5
 2342 0010 01D3     		bcc	.L178
 343:main.c        **** 	if (istart < istop) increment = -1;
 2343              		.loc 2 343 0
 2344 0012 0126     		movs	r6, #1
 2345 0014 0AE0     		b	.L172
 2346              	.L178:
 344:main.c        **** 	
 2347              		.loc 2 344 0
 2348 0016 4FF0FF36 		mov	r6, #-1
 2349              	.LVL314:
 2350              	.LBB32:
 346:main.c        **** 		VDAC_Vds_SetValue(i);
 2351              		.loc 2 346 0
 2352 001a 07E0     		b	.L172
 2353              	.LVL315:
 2354              	.L174:
 347:main.c        **** 		
 2355              		.loc 2 347 0
 2356 001c 2046     		mov	r0, r4
 2357 001e FFF7FEFF 		bl	VDAC_Vds_SetValue
 2358              	.LVL316:
 349:main.c        **** 	}
 2359              		.loc 2 349 0
 2360 0022 FFF7FEFF 		bl	At_Compliance
 2361              	.LVL317:
 2362 0026 D0B1     		cbz	r0, .L170
 346:main.c        **** 		VDAC_Vds_SetValue(i);
 2363              		.loc 2 346 0 discriminator 2
 2364 0028 3444     		add	r4, r4, r6
 2365              	.LVL318:
 2366 002a E4B2     		uxtb	r4, r4
 2367              	.LVL319:
 2368              	.L172:
 346:main.c        **** 		VDAC_Vds_SetValue(i);
 2369              		.loc 2 346 0 is_stmt 0 discriminator 1
 2370 002c AC42     		cmp	r4, r5
 2371 002e F5D1     		bne	.L174
 2372              	.LBE32:
 352:main.c        **** 	istop = VDAC_Ref_Data;
 2373              		.loc 2 352 0 is_stmt 1
 2374 0030 0C4B     		ldr	r3, .L181+4
 2375 0032 1C78     		ldrb	r4, [r3]	@ zero_extendqisi2
ARM GAS  C:\Users\FRANKL~1\AppData\Local\Temp\ccggyhWi.s 			page 63


 2376              	.LVL320:
 2377 0034 E4B2     		uxtb	r4, r4
 2378              	.LVL321:
 353:main.c        **** 	increment = 1;
 2379              		.loc 2 353 0
 2380 0036 0133     		adds	r3, r3, #1
 2381 0038 1D78     		ldrb	r5, [r3]	@ zero_extendqisi2
 2382              	.LVL322:
 2383 003a EDB2     		uxtb	r5, r5
 2384              	.LVL323:
 355:main.c        **** 	
 2385              		.loc 2 355 0
 2386 003c AC42     		cmp	r4, r5
 2387 003e 01D3     		bcc	.L179
 354:main.c        **** 	if (istart < istop) increment = -1;
 2388              		.loc 2 354 0
 2389 0040 0126     		movs	r6, #1
 2390 0042 0AE0     		b	.L176
 2391              	.L179:
 355:main.c        **** 	
 2392              		.loc 2 355 0
 2393 0044 4FF0FF36 		mov	r6, #-1
 2394              	.LVL324:
 2395              	.LBB33:
 357:main.c        **** 		VDAC_Vgs_SetValue(i);
 2396              		.loc 2 357 0
 2397 0048 07E0     		b	.L176
 2398              	.LVL325:
 2399              	.L177:
 358:main.c        **** 		
 2400              		.loc 2 358 0
 2401 004a 2046     		mov	r0, r4
 2402 004c FFF7FEFF 		bl	VDAC_Vgs_SetValue
 2403              	.LVL326:
 360:main.c        **** 	}
 2404              		.loc 2 360 0
 2405 0050 FFF7FEFF 		bl	At_Compliance
 2406              	.LVL327:
 2407 0054 18B1     		cbz	r0, .L170
 357:main.c        **** 		VDAC_Vgs_SetValue(i);
 2408              		.loc 2 357 0 discriminator 2
 2409 0056 3444     		add	r4, r4, r6
 2410              	.LVL328:
 2411 0058 E4B2     		uxtb	r4, r4
 2412              	.LVL329:
 2413              	.L176:
 357:main.c        **** 		VDAC_Vgs_SetValue(i);
 2414              		.loc 2 357 0 is_stmt 0 discriminator 1
 2415 005a AC42     		cmp	r4, r5
 2416 005c F5D1     		bne	.L177
 2417              	.LVL330:
 2418              	.L170:
 2419 005e 70BD     		pop	{r4, r5, r6, pc}
 2420              	.LVL331:
 2421              	.L182:
 2422              		.align	2
 2423              	.L181:
ARM GAS  C:\Users\FRANKL~1\AppData\Local\Temp\ccggyhWi.s 			page 64


 2424 0060 805B0040 		.word	1073765248
 2425 0064 815B0040 		.word	1073765249
 2426              	.LBE33:
 2427              		.cfi_endproc
 2428              	.LFE86:
 2429              		.size	Handle_Compliance_Breach, .-Handle_Compliance_Breach
 2430              		.section	.text.Get_Ref,"ax",%progbits
 2431              		.align	2
 2432              		.global	Get_Ref
 2433              		.thumb
 2434              		.thumb_func
 2435              		.type	Get_Ref, %function
 2436              	Get_Ref:
 2437              	.LFB87:
 367:main.c        **** 	float result = 4.080/255.0*VDAC_Ref_Data;
 2438              		.loc 2 367 0 is_stmt 1
 2439              		.cfi_startproc
 2440              		@ args = 0, pretend = 0, frame = 0
 2441              		@ frame_needed = 0, uses_anonymous_args = 0
 2442 0000 08B5     		push	{r3, lr}
 2443              		.cfi_def_cfa_offset 8
 2444              		.cfi_offset 3, -8
 2445              		.cfi_offset 14, -4
 368:main.c        **** 	if (VDAC_Ref_CR0 & (VDAC_Ref_RANGE_1V & VDAC_Ref_RANGE_MASK)) {
 2446              		.loc 2 368 0
 2447 0002 094B     		ldr	r3, .L185+8
 2448 0004 1878     		ldrb	r0, [r3]	@ zero_extendqisi2
 2449 0006 FFF7FEFF 		bl	__aeabi_i2d
 2450              	.LVL332:
 2451 000a 05A3     		adr	r3, .L185
 2452 000c D3E90023 		ldrd	r2, [r3]
 2453 0010 FFF7FEFF 		bl	__aeabi_dmul
 2454              	.LVL333:
 2455 0014 FFF7FEFF 		bl	__aeabi_d2f
 2456              	.LVL334:
 369:main.c        **** 		result = 1.020/255.0*VDAC_Ref_Data;
 2457              		.loc 2 369 0
 2458 0018 044B     		ldr	r3, .L185+12
 2459 001a 1B78     		ldrb	r3, [r3]	@ zero_extendqisi2
 373:main.c        **** 
 2460              		.loc 2 373 0
 2461 001c 08BD     		pop	{r3, pc}
 2462              	.L186:
 2463 001e 00BF     		.align	3
 2464              	.L185:
 2465 0020 FCA9F1D2 		.word	-755914244
 2466 0024 4D62903F 		.word	1066426957
 2467 0028 825B0040 		.word	1073765250
 2468 002c 28580040 		.word	1073764392
 2469              		.cfi_endproc
 2470              	.LFE87:
 2471              		.size	Get_Ref, .-Get_Ref
 2472              		.section	.text.Get_Vgs,"ax",%progbits
 2473              		.align	2
 2474              		.global	Get_Vgs
 2475              		.thumb
 2476              		.thumb_func
ARM GAS  C:\Users\FRANKL~1\AppData\Local\Temp\ccggyhWi.s 			page 65


 2477              		.type	Get_Vgs, %function
 2478              	Get_Vgs:
 2479              	.LFB88:
 376:main.c        **** 	float result = 4.080/255.0*VDAC_Vgs_Data - Get_Ref();
 2480              		.loc 2 376 0
 2481              		.cfi_startproc
 2482              		@ args = 0, pretend = 0, frame = 0
 2483              		@ frame_needed = 0, uses_anonymous_args = 0
 2484 0000 38B5     		push	{r3, r4, r5, lr}
 2485              		.cfi_def_cfa_offset 16
 2486              		.cfi_offset 3, -16
 2487              		.cfi_offset 4, -12
 2488              		.cfi_offset 5, -8
 2489              		.cfi_offset 14, -4
 377:main.c        **** 	if (VDAC_Vgs_CR0 & (VDAC_Vgs_RANGE_1V & VDAC_Vgs_RANGE_MASK)) {
 2490              		.loc 2 377 0
 2491 0002 0F4B     		ldr	r3, .L189+8
 2492 0004 1878     		ldrb	r0, [r3]	@ zero_extendqisi2
 2493 0006 FFF7FEFF 		bl	__aeabi_i2d
 2494              	.LVL335:
 2495 000a 0BA3     		adr	r3, .L189
 2496 000c D3E90023 		ldrd	r2, [r3]
 2497 0010 FFF7FEFF 		bl	__aeabi_dmul
 2498              	.LVL336:
 2499 0014 0446     		mov	r4, r0
 2500 0016 0D46     		mov	r5, r1
 2501 0018 FFF7FEFF 		bl	Get_Ref
 2502              	.LVL337:
 2503 001c FFF7FEFF 		bl	__aeabi_f2d
 2504              	.LVL338:
 2505 0020 0246     		mov	r2, r0
 2506 0022 0B46     		mov	r3, r1
 2507 0024 2046     		mov	r0, r4
 2508 0026 2946     		mov	r1, r5
 2509 0028 FFF7FEFF 		bl	__aeabi_dsub
 2510              	.LVL339:
 2511 002c FFF7FEFF 		bl	__aeabi_d2f
 2512              	.LVL340:
 378:main.c        **** 		result = 1.020/255.0*VDAC_Vgs_Data - Get_Ref();
 2513              		.loc 2 378 0
 2514 0030 044B     		ldr	r3, .L189+12
 2515 0032 1B78     		ldrb	r3, [r3]	@ zero_extendqisi2
 382:main.c        **** 
 2516              		.loc 2 382 0
 2517 0034 38BD     		pop	{r3, r4, r5, pc}
 2518              	.L190:
 2519 0036 00BF     		.align	3
 2520              	.L189:
 2521 0038 FCA9F1D2 		.word	-755914244
 2522 003c 4D62903F 		.word	1066426957
 2523 0040 815B0040 		.word	1073765249
 2524 0044 24580040 		.word	1073764388
 2525              		.cfi_endproc
 2526              	.LFE88:
 2527              		.size	Get_Vgs, .-Get_Vgs
 2528              		.section	.text.Get_Vds,"ax",%progbits
 2529              		.align	2
ARM GAS  C:\Users\FRANKL~1\AppData\Local\Temp\ccggyhWi.s 			page 66


 2530              		.global	Get_Vds
 2531              		.thumb
 2532              		.thumb_func
 2533              		.type	Get_Vds, %function
 2534              	Get_Vds:
 2535              	.LFB89:
 385:main.c        **** 	float result = 4.080/255.0*VDAC_Vds_Data - Get_Ref();
 2536              		.loc 2 385 0
 2537              		.cfi_startproc
 2538              		@ args = 0, pretend = 0, frame = 0
 2539              		@ frame_needed = 0, uses_anonymous_args = 0
 2540 0000 38B5     		push	{r3, r4, r5, lr}
 2541              		.cfi_def_cfa_offset 16
 2542              		.cfi_offset 3, -16
 2543              		.cfi_offset 4, -12
 2544              		.cfi_offset 5, -8
 2545              		.cfi_offset 14, -4
 386:main.c        **** 	if (VDAC_Vds_CR0 & (VDAC_Vds_RANGE_1V & VDAC_Vds_RANGE_MASK)) {
 2546              		.loc 2 386 0
 2547 0002 0F4B     		ldr	r3, .L193+8
 2548 0004 1878     		ldrb	r0, [r3]	@ zero_extendqisi2
 2549 0006 FFF7FEFF 		bl	__aeabi_i2d
 2550              	.LVL341:
 2551 000a 0BA3     		adr	r3, .L193
 2552 000c D3E90023 		ldrd	r2, [r3]
 2553 0010 FFF7FEFF 		bl	__aeabi_dmul
 2554              	.LVL342:
 2555 0014 0446     		mov	r4, r0
 2556 0016 0D46     		mov	r5, r1
 2557 0018 FFF7FEFF 		bl	Get_Ref
 2558              	.LVL343:
 2559 001c FFF7FEFF 		bl	__aeabi_f2d
 2560              	.LVL344:
 2561 0020 0246     		mov	r2, r0
 2562 0022 0B46     		mov	r3, r1
 2563 0024 2046     		mov	r0, r4
 2564 0026 2946     		mov	r1, r5
 2565 0028 FFF7FEFF 		bl	__aeabi_dsub
 2566              	.LVL345:
 2567 002c FFF7FEFF 		bl	__aeabi_d2f
 2568              	.LVL346:
 387:main.c        **** 		result = 1.020/255.0*VDAC_Vds_Data - Get_Ref();
 2569              		.loc 2 387 0
 2570 0030 044B     		ldr	r3, .L193+12
 2571 0032 1B78     		ldrb	r3, [r3]	@ zero_extendqisi2
 391:main.c        **** 
 2572              		.loc 2 391 0
 2573 0034 38BD     		pop	{r3, r4, r5, pc}
 2574              	.L194:
 2575 0036 00BF     		.align	3
 2576              	.L193:
 2577 0038 FCA9F1D2 		.word	-755914244
 2578 003c 4D62903F 		.word	1066426957
 2579 0040 805B0040 		.word	1073765248
 2580 0044 20580040 		.word	1073764384
 2581              		.cfi_endproc
 2582              	.LFE89:
ARM GAS  C:\Users\FRANKL~1\AppData\Local\Temp\ccggyhWi.s 			page 67


 2583              		.size	Get_Vds, .-Get_Vds
 2584              		.section	.text.Set_Vds_Raw,"ax",%progbits
 2585              		.align	2
 2586              		.global	Set_Vds_Raw
 2587              		.thumb
 2588              		.thumb_func
 2589              		.type	Set_Vds_Raw, %function
 2590              	Set_Vds_Raw:
 2591              	.LFB90:
 396:main.c        **** 	Vds_Index_Goal_Relative = (int16)value - (int16)VDAC_Ref_Data;
 2592              		.loc 2 396 0
 2593              		.cfi_startproc
 2594              		@ args = 0, pretend = 0, frame = 0
 2595              		@ frame_needed = 0, uses_anonymous_args = 0
 2596              	.LVL347:
 2597 0000 2DE9F041 		push	{r4, r5, r6, r7, r8, lr}
 2598              		.cfi_def_cfa_offset 24
 2599              		.cfi_offset 4, -24
 2600              		.cfi_offset 5, -20
 2601              		.cfi_offset 6, -16
 2602              		.cfi_offset 7, -12
 2603              		.cfi_offset 8, -8
 2604              		.cfi_offset 14, -4
 2605 0004 8046     		mov	r8, r0
 397:main.c        **** 	
 2606              		.loc 2 397 0
 2607 0006 184B     		ldr	r3, .L206
 2608 0008 1B78     		ldrb	r3, [r3]	@ zero_extendqisi2
 2609 000a C31A     		subs	r3, r0, r3
 2610 000c 174A     		ldr	r2, .L206+4
 2611 000e 1380     		strh	r3, [r2]	@ movhi
 399:main.c        **** 	int8 increment = 1;
 2612              		.loc 2 399 0
 2613 0010 174B     		ldr	r3, .L206+8
 2614 0012 1D78     		ldrb	r5, [r3]	@ zero_extendqisi2
 2615 0014 EDB2     		uxtb	r5, r5
 2616              	.LVL348:
 401:main.c        **** 	
 2617              		.loc 2 401 0
 2618 0016 A842     		cmp	r0, r5
 2619 0018 01D3     		bcc	.L203
 400:main.c        **** 	if (istart > value) increment = -1;
 2620              		.loc 2 400 0
 2621 001a 0126     		movs	r6, #1
 2622 001c 01E0     		b	.L196
 2623              	.L203:
 401:main.c        **** 	
 2624              		.loc 2 401 0
 2625 001e 4FF0FF36 		mov	r6, #-1
 2626              	.L196:
 2627              	.LVL349:
 2628              	.LBB34:
 403:main.c        **** 		if (At_Compliance()) {
 2629              		.loc 2 403 0
 2630 0022 0027     		movs	r7, #0
 2631 0024 1BE0     		b	.L197
 2632              	.LVL350:
ARM GAS  C:\Users\FRANKL~1\AppData\Local\Temp\ccggyhWi.s 			page 68


 2633              	.L202:
 404:main.c        **** 			for (uint8 j = i; j != istart; j -= increment) {
 2634              		.loc 2 404 0
 2635 0026 FFF7FEFF 		bl	At_Compliance
 2636              	.LVL351:
 2637 002a 48B9     		cbnz	r0, .L204
 2638 002c 12E0     		b	.L199
 2639              	.LVL352:
 2640              	.L201:
 2641              	.LBB35:
 406:main.c        **** 				
 2642              		.loc 2 406 0
 2643 002e 2046     		mov	r0, r4
 2644 0030 FFF7FEFF 		bl	VDAC_Vds_SetValue
 2645              	.LVL353:
 408:main.c        **** 			}
 2646              		.loc 2 408 0
 2647 0034 FFF7FEFF 		bl	At_Compliance
 2648              	.LVL354:
 2649 0038 98B1     		cbz	r0, .L195
 405:main.c        **** 				VDAC_Vds_SetValue(j);
 2650              		.loc 2 405 0 discriminator 2
 2651 003a A41B     		subs	r4, r4, r6
 2652              	.LVL355:
 2653 003c E4B2     		uxtb	r4, r4
 2654              	.LVL356:
 2655 003e 00E0     		b	.L198
 2656              	.LVL357:
 2657              	.L204:
 2658              	.LBE35:
 2659 0040 3C46     		mov	r4, r7
 2660              	.L198:
 2661              	.LVL358:
 2662              	.LBB36:
 405:main.c        **** 				VDAC_Vds_SetValue(j);
 2663              		.loc 2 405 0 is_stmt 0 discriminator 1
 2664 0042 AC42     		cmp	r4, r5
 2665 0044 F3D1     		bne	.L201
 2666              	.LBE36:
 410:main.c        **** 				Handle_Compliance_Breach();
 2667              		.loc 2 410 0 is_stmt 1
 2668 0046 FFF7FEFF 		bl	At_Compliance
 2669              	.LVL359:
 2670 004a 18B1     		cbz	r0, .L199
 411:main.c        **** 				return;
 2671              		.loc 2 411 0
 2672 004c FFF7FEFF 		bl	Handle_Compliance_Breach
 2673              	.LVL360:
 412:main.c        **** 			}
 2674              		.loc 2 412 0
 2675 0050 BDE8F081 		pop	{r4, r5, r6, r7, r8, pc}
 2676              	.LVL361:
 2677              	.L199:
 416:main.c        **** 	}
 2678              		.loc 2 416 0 discriminator 2
 2679 0054 3846     		mov	r0, r7
 2680 0056 FFF7FEFF 		bl	VDAC_Vds_SetValue
ARM GAS  C:\Users\FRANKL~1\AppData\Local\Temp\ccggyhWi.s 			page 69


 2681              	.LVL362:
 403:main.c        **** 		if (At_Compliance()) {
 2682              		.loc 2 403 0 discriminator 2
 2683 005a 3744     		add	r7, r7, r6
 2684              	.LVL363:
 2685 005c FFB2     		uxtb	r7, r7
 2686              	.LVL364:
 2687              	.L197:
 403:main.c        **** 		if (At_Compliance()) {
 2688              		.loc 2 403 0 is_stmt 0 discriminator 1
 2689 005e 4745     		cmp	r7, r8
 2690 0060 E1D1     		bne	.L202
 2691              	.L195:
 2692 0062 BDE8F081 		pop	{r4, r5, r6, r7, r8, pc}
 2693              	.LVL365:
 2694              	.L207:
 2695 0066 00BF     		.align	2
 2696              	.L206:
 2697 0068 825B0040 		.word	1073765250
 2698 006c 00000000 		.word	Vds_Index_Goal_Relative
 2699 0070 805B0040 		.word	1073765248
 2700              	.LBE34:
 2701              		.cfi_endproc
 2702              	.LFE90:
 2703              		.size	Set_Vds_Raw, .-Set_Vds_Raw
 2704              		.section	.text.Set_Vgs_Raw,"ax",%progbits
 2705              		.align	2
 2706              		.global	Set_Vgs_Raw
 2707              		.thumb
 2708              		.thumb_func
 2709              		.type	Set_Vgs_Raw, %function
 2710              	Set_Vgs_Raw:
 2711              	.LFB91:
 421:main.c        **** 	Vgs_Index_Goal_Relative = (int16)value - (int16)VDAC_Ref_Data;
 2712              		.loc 2 421 0 is_stmt 1
 2713              		.cfi_startproc
 2714              		@ args = 0, pretend = 0, frame = 0
 2715              		@ frame_needed = 0, uses_anonymous_args = 0
 2716              	.LVL366:
 2717 0000 2DE9F041 		push	{r4, r5, r6, r7, r8, lr}
 2718              		.cfi_def_cfa_offset 24
 2719              		.cfi_offset 4, -24
 2720              		.cfi_offset 5, -20
 2721              		.cfi_offset 6, -16
 2722              		.cfi_offset 7, -12
 2723              		.cfi_offset 8, -8
 2724              		.cfi_offset 14, -4
 2725 0004 8046     		mov	r8, r0
 422:main.c        **** 	
 2726              		.loc 2 422 0
 2727 0006 184B     		ldr	r3, .L219
 2728 0008 1B78     		ldrb	r3, [r3]	@ zero_extendqisi2
 2729 000a C31A     		subs	r3, r0, r3
 2730 000c 174A     		ldr	r2, .L219+4
 2731 000e 1380     		strh	r3, [r2]	@ movhi
 2732              	.LVL367:
 425:main.c        **** 	if (value < istart) increment = -1;
ARM GAS  C:\Users\FRANKL~1\AppData\Local\Temp\ccggyhWi.s 			page 70


 2733              		.loc 2 425 0
 2734 0010 174B     		ldr	r3, .L219+8
 2735 0012 1D78     		ldrb	r5, [r3]	@ zero_extendqisi2
 2736 0014 EDB2     		uxtb	r5, r5
 2737              	.LVL368:
 426:main.c        **** 	
 2738              		.loc 2 426 0
 2739 0016 A842     		cmp	r0, r5
 2740 0018 01D3     		bcc	.L216
 424:main.c        **** 	uint8 istart = VDAC_Vgs_Data;
 2741              		.loc 2 424 0
 2742 001a 0126     		movs	r6, #1
 2743 001c 01E0     		b	.L209
 2744              	.L216:
 426:main.c        **** 	
 2745              		.loc 2 426 0
 2746 001e 4FF0FF36 		mov	r6, #-1
 2747              	.L209:
 2748              	.LVL369:
 2749              	.LBB37:
 428:main.c        **** 		if (At_Compliance()) {
 2750              		.loc 2 428 0
 2751 0022 2F46     		mov	r7, r5
 2752 0024 1BE0     		b	.L210
 2753              	.LVL370:
 2754              	.L215:
 429:main.c        **** 			for (uint8 j = i; j != istart; j -= increment) {
 2755              		.loc 2 429 0
 2756 0026 FFF7FEFF 		bl	At_Compliance
 2757              	.LVL371:
 2758 002a 48B9     		cbnz	r0, .L217
 2759 002c 12E0     		b	.L212
 2760              	.LVL372:
 2761              	.L214:
 2762              	.LBB38:
 431:main.c        **** 				
 2763              		.loc 2 431 0
 2764 002e 2046     		mov	r0, r4
 2765 0030 FFF7FEFF 		bl	VDAC_Vgs_SetValue
 2766              	.LVL373:
 433:main.c        **** 			}
 2767              		.loc 2 433 0
 2768 0034 FFF7FEFF 		bl	At_Compliance
 2769              	.LVL374:
 2770 0038 98B1     		cbz	r0, .L208
 430:main.c        **** 				VDAC_Vgs_SetValue(j);
 2771              		.loc 2 430 0 discriminator 2
 2772 003a A41B     		subs	r4, r4, r6
 2773              	.LVL375:
 2774 003c E4B2     		uxtb	r4, r4
 2775              	.LVL376:
 2776 003e 00E0     		b	.L211
 2777              	.LVL377:
 2778              	.L217:
 2779              	.LBE38:
 2780 0040 3C46     		mov	r4, r7
 2781              	.L211:
ARM GAS  C:\Users\FRANKL~1\AppData\Local\Temp\ccggyhWi.s 			page 71


 2782              	.LVL378:
 2783              	.LBB39:
 430:main.c        **** 				VDAC_Vgs_SetValue(j);
 2784              		.loc 2 430 0 is_stmt 0 discriminator 1
 2785 0042 AC42     		cmp	r4, r5
 2786 0044 F3D1     		bne	.L214
 2787              	.LBE39:
 435:main.c        **** 				Handle_Compliance_Breach();
 2788              		.loc 2 435 0 is_stmt 1
 2789 0046 FFF7FEFF 		bl	At_Compliance
 2790              	.LVL379:
 2791 004a 18B1     		cbz	r0, .L212
 436:main.c        **** 				return;
 2792              		.loc 2 436 0
 2793 004c FFF7FEFF 		bl	Handle_Compliance_Breach
 2794              	.LVL380:
 437:main.c        **** 			}
 2795              		.loc 2 437 0
 2796 0050 BDE8F081 		pop	{r4, r5, r6, r7, r8, pc}
 2797              	.LVL381:
 2798              	.L212:
 441:main.c        **** 	}
 2799              		.loc 2 441 0 discriminator 2
 2800 0054 3846     		mov	r0, r7
 2801 0056 FFF7FEFF 		bl	VDAC_Vgs_SetValue
 2802              	.LVL382:
 428:main.c        **** 		if (At_Compliance()) {
 2803              		.loc 2 428 0 discriminator 2
 2804 005a 3744     		add	r7, r7, r6
 2805              	.LVL383:
 2806 005c FFB2     		uxtb	r7, r7
 2807              	.LVL384:
 2808              	.L210:
 428:main.c        **** 		if (At_Compliance()) {
 2809              		.loc 2 428 0 is_stmt 0 discriminator 1
 2810 005e 4745     		cmp	r7, r8
 2811 0060 E1D1     		bne	.L215
 2812              	.L208:
 2813 0062 BDE8F081 		pop	{r4, r5, r6, r7, r8, pc}
 2814              	.LVL385:
 2815              	.L220:
 2816 0066 00BF     		.align	2
 2817              	.L219:
 2818 0068 825B0040 		.word	1073765250
 2819 006c 00000000 		.word	Vgs_Index_Goal_Relative
 2820 0070 815B0040 		.word	1073765249
 2821              	.LBE37:
 2822              		.cfi_endproc
 2823              	.LFE91:
 2824              		.size	Set_Vgs_Raw, .-Set_Vgs_Raw
 2825              		.section	.text.Set_Ref_Raw,"ax",%progbits
 2826              		.align	2
 2827              		.global	Set_Ref_Raw
 2828              		.thumb
 2829              		.thumb_func
 2830              		.type	Set_Ref_Raw, %function
 2831              	Set_Ref_Raw:
ARM GAS  C:\Users\FRANKL~1\AppData\Local\Temp\ccggyhWi.s 			page 72


 2832              	.LFB92:
 446:main.c        **** 	int8 increment = 1;
 2833              		.loc 2 446 0 is_stmt 1
 2834              		.cfi_startproc
 2835              		@ args = 0, pretend = 0, frame = 0
 2836              		@ frame_needed = 0, uses_anonymous_args = 0
 2837              	.LVL386:
 2838 0000 2DE9F041 		push	{r4, r5, r6, r7, r8, lr}
 2839              		.cfi_def_cfa_offset 24
 2840              		.cfi_offset 4, -24
 2841              		.cfi_offset 5, -20
 2842              		.cfi_offset 6, -16
 2843              		.cfi_offset 7, -12
 2844              		.cfi_offset 8, -8
 2845              		.cfi_offset 14, -4
 2846 0004 0746     		mov	r7, r0
 2847              	.LVL387:
 448:main.c        **** 	
 2848              		.loc 2 448 0
 2849 0006 1A4B     		ldr	r3, .L236
 2850 0008 1B78     		ldrb	r3, [r3]	@ zero_extendqisi2
 2851 000a DBB2     		uxtb	r3, r3
 2852 000c 8342     		cmp	r3, r0
 2853 000e 02D8     		bhi	.L230
 447:main.c        **** 	if (value < VDAC_Ref_Data) increment = -1;
 2854              		.loc 2 447 0
 2855 0010 4FF00108 		mov	r8, #1
 2856 0014 01E0     		b	.L222
 2857              	.L230:
 448:main.c        **** 	
 2858              		.loc 2 448 0
 2859 0016 4FF0FF38 		mov	r8, #-1
 2860              	.L222:
 2861              	.LVL388:
 2862              	.LBB40:
 450:main.c        **** 		
 2863              		.loc 2 450 0
 2864 001a 154B     		ldr	r3, .L236
 2865 001c 1E78     		ldrb	r6, [r3]	@ zero_extendqisi2
 2866 001e F6B2     		uxtb	r6, r6
 2867              	.LVL389:
 2868 0020 22E0     		b	.L223
 2869              	.LVL390:
 2870              	.L229:
 2871              	.LBB41:
 452:main.c        **** 		
 2872              		.loc 2 452 0
 2873 0022 FFF7FEFF 		bl	At_Compliance
 2874              	.LVL391:
 2875 0026 08BB     		cbnz	r0, .L221
 454:main.c        **** 		int16 new_Vds = (int16)i + Vds_Index_Goal_Relative;
 2876              		.loc 2 454 0
 2877 0028 B4B2     		uxth	r4, r6
 2878 002a 124B     		ldr	r3, .L236+4
 2879 002c 1D88     		ldrh	r5, [r3]
 2880 002e 2544     		add	r5, r5, r4
 2881 0030 2DB2     		sxth	r5, r5
ARM GAS  C:\Users\FRANKL~1\AppData\Local\Temp\ccggyhWi.s 			page 73


 2882              	.LVL392:
 455:main.c        **** 		
 2883              		.loc 2 455 0
 2884 0032 114B     		ldr	r3, .L236+8
 2885 0034 1B88     		ldrh	r3, [r3]
 2886 0036 1C44     		add	r4, r4, r3
 2887 0038 24B2     		sxth	r4, r4
 2888              	.LVL393:
 457:main.c        **** 		if (new_Vds > 255) new_Vds = 255;
 2889              		.loc 2 457 0
 2890 003a FF2D     		cmp	r5, #255
 2891 003c 00DD     		ble	.L225
 2892 003e FF25     		movs	r5, #255
 2893              	.LVL394:
 2894              	.L225:
 458:main.c        **** 		
 2895              		.loc 2 458 0
 2896 0040 FF2C     		cmp	r4, #255
 2897 0042 00DD     		ble	.L226
 2898 0044 FF24     		movs	r4, #255
 2899              	.LVL395:
 2900              	.L226:
 460:main.c        **** 		if (new_Vds < 0) new_Vds = 0;
 2901              		.loc 2 460 0
 2902 0046 002D     		cmp	r5, #0
 2903 0048 00DA     		bge	.L227
 2904 004a 0025     		movs	r5, #0
 2905              	.LVL396:
 2906              	.L227:
 461:main.c        **** 		
 2907              		.loc 2 461 0
 2908 004c 002C     		cmp	r4, #0
 2909 004e 00DA     		bge	.L228
 2910 0050 0024     		movs	r4, #0
 2911              	.LVL397:
 2912              	.L228:
 463:main.c        **** 		VDAC_Vgs_SetValue(new_Vgs);
 2913              		.loc 2 463 0 discriminator 2
 2914 0052 3046     		mov	r0, r6
 2915 0054 FFF7FEFF 		bl	VDAC_Ref_SetValue
 2916              	.LVL398:
 464:main.c        **** 		VDAC_Vds_SetValue(new_Vds);
 2917              		.loc 2 464 0 discriminator 2
 2918 0058 E8B2     		uxtb	r0, r5
 2919 005a FFF7FEFF 		bl	VDAC_Vgs_SetValue
 2920              	.LVL399:
 465:main.c        **** 	}
 2921              		.loc 2 465 0 discriminator 2
 2922 005e E0B2     		uxtb	r0, r4
 2923 0060 FFF7FEFF 		bl	VDAC_Vds_SetValue
 2924              	.LVL400:
 2925              	.LBE41:
 450:main.c        **** 		
 2926              		.loc 2 450 0 discriminator 2
 2927 0064 4644     		add	r6, r6, r8
 2928              	.LVL401:
 2929 0066 F6B2     		uxtb	r6, r6
ARM GAS  C:\Users\FRANKL~1\AppData\Local\Temp\ccggyhWi.s 			page 74


 2930              	.LVL402:
 2931              	.L223:
 450:main.c        **** 		
 2932              		.loc 2 450 0 is_stmt 0 discriminator 1
 2933 0068 BE42     		cmp	r6, r7
 2934 006a DAD1     		bne	.L229
 2935              	.L221:
 2936 006c BDE8F081 		pop	{r4, r5, r6, r7, r8, pc}
 2937              	.LVL403:
 2938              	.L237:
 2939              		.align	2
 2940              	.L236:
 2941 0070 825B0040 		.word	1073765250
 2942 0074 00000000 		.word	Vgs_Index_Goal_Relative
 2943 0078 00000000 		.word	Vds_Index_Goal_Relative
 2944              	.LBE40:
 2945              		.cfi_endproc
 2946              	.LFE92:
 2947              		.size	Set_Ref_Raw, .-Set_Ref_Raw
 2948              		.section	.text.Set_Vds_Rel,"ax",%progbits
 2949              		.align	2
 2950              		.global	Set_Vds_Rel
 2951              		.thumb
 2952              		.thumb_func
 2953              		.type	Set_Vds_Rel, %function
 2954              	Set_Vds_Rel:
 2955              	.LFB93:
 471:main.c        **** 	if (value > 255) value = 255;
 2956              		.loc 2 471 0 is_stmt 1
 2957              		.cfi_startproc
 2958              		@ args = 0, pretend = 0, frame = 0
 2959              		@ frame_needed = 0, uses_anonymous_args = 0
 2960              	.LVL404:
 2961 0000 10B5     		push	{r4, lr}
 2962              		.cfi_def_cfa_offset 8
 2963              		.cfi_offset 4, -8
 2964              		.cfi_offset 14, -4
 2965 0002 0446     		mov	r4, r0
 472:main.c        **** 	if (value < -255) value = -255;
 2966              		.loc 2 472 0
 2967 0004 FF28     		cmp	r0, #255
 2968 0006 00DD     		ble	.L239
 2969 0008 FF24     		movs	r4, #255
 2970              	.L239:
 2971              	.LVL405:
 473:main.c        **** 	
 2972              		.loc 2 473 0
 2973 000a 14F1FF0F 		cmn	r4, #255
 2974 000e 01DA     		bge	.L240
 2975 0010 6FF0FE04 		mvn	r4, #254
 2976              	.LVL406:
 2977              	.L240:
 475:main.c        **** 	
 2978              		.loc 2 475 0
 2979 0014 114B     		ldr	r3, .L247
 2980 0016 1878     		ldrb	r0, [r3]	@ zero_extendqisi2
 2981 0018 2044     		add	r0, r0, r4
ARM GAS  C:\Users\FRANKL~1\AppData\Local\Temp\ccggyhWi.s 			page 75


 2982 001a 80B2     		uxth	r0, r0
 2983 001c 03B2     		sxth	r3, r0
 2984              	.LVL407:
 477:main.c        **** 		Set_Ref_Raw(VDAC_Ref_Data - (absolute - 255));
 2985              		.loc 2 477 0
 2986 001e FF2B     		cmp	r3, #255
 2987 0020 0ADD     		ble	.L241
 478:main.c        **** 		Set_Vds_Raw(255);
 2988              		.loc 2 478 0
 2989 0022 0E4B     		ldr	r3, .L247
 2990              	.LVL408:
 2991 0024 1B78     		ldrb	r3, [r3]	@ zero_extendqisi2
 2992 0026 181A     		subs	r0, r3, r0
 2993              	.LVL409:
 2994 0028 0138     		subs	r0, r0, #1
 2995 002a C0B2     		uxtb	r0, r0
 2996 002c FFF7FEFF 		bl	Set_Ref_Raw
 2997              	.LVL410:
 479:main.c        **** 	} else if (absolute < 0) {
 2998              		.loc 2 479 0
 2999 0030 FF20     		movs	r0, #255
 3000 0032 FFF7FEFF 		bl	Set_Vds_Raw
 3001              	.LVL411:
 3002 0036 0EE0     		b	.L242
 3003              	.LVL412:
 3004              	.L241:
 480:main.c        **** 		Set_Ref_Raw(VDAC_Ref_Data - absolute);
 3005              		.loc 2 480 0
 3006 0038 002B     		cmp	r3, #0
 3007 003a 09DA     		bge	.L243
 481:main.c        **** 		Set_Vds_Raw(0);
 3008              		.loc 2 481 0
 3009 003c 074B     		ldr	r3, .L247
 3010              	.LVL413:
 3011 003e 1B78     		ldrb	r3, [r3]	@ zero_extendqisi2
 3012 0040 181A     		subs	r0, r3, r0
 3013              	.LVL414:
 3014 0042 C0B2     		uxtb	r0, r0
 3015 0044 FFF7FEFF 		bl	Set_Ref_Raw
 3016              	.LVL415:
 482:main.c        **** 	} else {
 3017              		.loc 2 482 0
 3018 0048 0020     		movs	r0, #0
 3019 004a FFF7FEFF 		bl	Set_Vds_Raw
 3020              	.LVL416:
 3021 004e 02E0     		b	.L242
 3022              	.LVL417:
 3023              	.L243:
 484:main.c        **** 	}
 3024              		.loc 2 484 0
 3025 0050 C0B2     		uxtb	r0, r0
 3026 0052 FFF7FEFF 		bl	Set_Vds_Raw
 3027              	.LVL418:
 3028              	.L242:
 487:main.c        **** }
 3029              		.loc 2 487 0
 3030 0056 024B     		ldr	r3, .L247+4
ARM GAS  C:\Users\FRANKL~1\AppData\Local\Temp\ccggyhWi.s 			page 76


 3031 0058 1C80     		strh	r4, [r3]	@ movhi
 3032 005a 10BD     		pop	{r4, pc}
 3033              	.LVL419:
 3034              	.L248:
 3035              		.align	2
 3036              	.L247:
 3037 005c 825B0040 		.word	1073765250
 3038 0060 00000000 		.word	Vds_Index_Goal_Relative
 3039              		.cfi_endproc
 3040              	.LFE93:
 3041              		.size	Set_Vds_Rel, .-Set_Vds_Rel
 3042              		.section	.text.Set_Vgs_Rel,"ax",%progbits
 3043              		.align	2
 3044              		.global	Set_Vgs_Rel
 3045              		.thumb
 3046              		.thumb_func
 3047              		.type	Set_Vgs_Rel, %function
 3048              	Set_Vgs_Rel:
 3049              	.LFB94:
 491:main.c        **** 	if (value > 255) value = 255;
 3050              		.loc 2 491 0
 3051              		.cfi_startproc
 3052              		@ args = 0, pretend = 0, frame = 0
 3053              		@ frame_needed = 0, uses_anonymous_args = 0
 3054              	.LVL420:
 3055 0000 10B5     		push	{r4, lr}
 3056              		.cfi_def_cfa_offset 8
 3057              		.cfi_offset 4, -8
 3058              		.cfi_offset 14, -4
 3059 0002 0446     		mov	r4, r0
 492:main.c        **** 	if (value < -255) value = -255;
 3060              		.loc 2 492 0
 3061 0004 FF28     		cmp	r0, #255
 3062 0006 00DD     		ble	.L250
 3063 0008 FF24     		movs	r4, #255
 3064              	.L250:
 3065              	.LVL421:
 493:main.c        **** 	
 3066              		.loc 2 493 0
 3067 000a 14F1FF0F 		cmn	r4, #255
 3068 000e 01DA     		bge	.L251
 3069 0010 6FF0FE04 		mvn	r4, #254
 3070              	.LVL422:
 3071              	.L251:
 495:main.c        **** 	
 3072              		.loc 2 495 0
 3073 0014 114B     		ldr	r3, .L258
 3074 0016 1878     		ldrb	r0, [r3]	@ zero_extendqisi2
 3075 0018 2044     		add	r0, r0, r4
 3076 001a 80B2     		uxth	r0, r0
 3077 001c 03B2     		sxth	r3, r0
 3078              	.LVL423:
 497:main.c        **** 		Set_Ref_Raw(VDAC_Ref_Data - (absolute - 255));
 3079              		.loc 2 497 0
 3080 001e FF2B     		cmp	r3, #255
 3081 0020 0ADD     		ble	.L252
 498:main.c        **** 		Set_Vgs_Raw(255);
ARM GAS  C:\Users\FRANKL~1\AppData\Local\Temp\ccggyhWi.s 			page 77


 3082              		.loc 2 498 0
 3083 0022 0E4B     		ldr	r3, .L258
 3084              	.LVL424:
 3085 0024 1B78     		ldrb	r3, [r3]	@ zero_extendqisi2
 3086 0026 181A     		subs	r0, r3, r0
 3087              	.LVL425:
 3088 0028 0138     		subs	r0, r0, #1
 3089 002a C0B2     		uxtb	r0, r0
 3090 002c FFF7FEFF 		bl	Set_Ref_Raw
 3091              	.LVL426:
 499:main.c        **** 	} else if (absolute < 0) {
 3092              		.loc 2 499 0
 3093 0030 FF20     		movs	r0, #255
 3094 0032 FFF7FEFF 		bl	Set_Vgs_Raw
 3095              	.LVL427:
 3096 0036 0EE0     		b	.L253
 3097              	.LVL428:
 3098              	.L252:
 500:main.c        **** 		Set_Ref_Raw(VDAC_Ref_Data - absolute);
 3099              		.loc 2 500 0
 3100 0038 002B     		cmp	r3, #0
 3101 003a 09DA     		bge	.L254
 501:main.c        **** 		Set_Vgs_Raw(0);
 3102              		.loc 2 501 0
 3103 003c 074B     		ldr	r3, .L258
 3104              	.LVL429:
 3105 003e 1B78     		ldrb	r3, [r3]	@ zero_extendqisi2
 3106 0040 181A     		subs	r0, r3, r0
 3107              	.LVL430:
 3108 0042 C0B2     		uxtb	r0, r0
 3109 0044 FFF7FEFF 		bl	Set_Ref_Raw
 3110              	.LVL431:
 502:main.c        **** 	} else {
 3111              		.loc 2 502 0
 3112 0048 0020     		movs	r0, #0
 3113 004a FFF7FEFF 		bl	Set_Vgs_Raw
 3114              	.LVL432:
 3115 004e 02E0     		b	.L253
 3116              	.LVL433:
 3117              	.L254:
 504:main.c        **** 	}
 3118              		.loc 2 504 0
 3119 0050 C0B2     		uxtb	r0, r0
 3120 0052 FFF7FEFF 		bl	Set_Vgs_Raw
 3121              	.LVL434:
 3122              	.L253:
 507:main.c        **** }
 3123              		.loc 2 507 0
 3124 0056 024B     		ldr	r3, .L258+4
 3125 0058 1C80     		strh	r4, [r3]	@ movhi
 3126 005a 10BD     		pop	{r4, pc}
 3127              	.LVL435:
 3128              	.L259:
 3129              		.align	2
 3130              	.L258:
 3131 005c 825B0040 		.word	1073765250
 3132 0060 00000000 		.word	Vgs_Index_Goal_Relative
ARM GAS  C:\Users\FRANKL~1\AppData\Local\Temp\ccggyhWi.s 			page 78


 3133              		.cfi_endproc
 3134              	.LFE94:
 3135              		.size	Set_Vgs_Rel, .-Set_Vgs_Rel
 3136              		.global	__aeabi_d2iz
 3137              		.section	.text.Set_Vgs,"ax",%progbits
 3138              		.align	2
 3139              		.global	Set_Vgs
 3140              		.thumb
 3141              		.thumb_func
 3142              		.type	Set_Vgs, %function
 3143              	Set_Vgs:
 3144              	.LFB95:
 512:main.c        **** 	Set_Vgs_Rel((voltage/4.080)*255.0);
 3145              		.loc 2 512 0
 3146              		.cfi_startproc
 3147              		@ args = 0, pretend = 0, frame = 0
 3148              		@ frame_needed = 0, uses_anonymous_args = 0
 3149              	.LVL436:
 3150 0000 08B5     		push	{r3, lr}
 3151              		.cfi_def_cfa_offset 8
 3152              		.cfi_offset 3, -8
 3153              		.cfi_offset 14, -4
 513:main.c        **** }
 3154              		.loc 2 513 0
 3155 0002 FFF7FEFF 		bl	__aeabi_f2d
 3156              	.LVL437:
 3157 0006 08A3     		adr	r3, .L262
 3158 0008 D3E90023 		ldrd	r2, [r3]
 3159 000c FFF7FEFF 		bl	__aeabi_ddiv
 3160              	.LVL438:
 3161 0010 07A3     		adr	r3, .L262+8
 3162 0012 D3E90023 		ldrd	r2, [r3]
 3163 0016 FFF7FEFF 		bl	__aeabi_dmul
 3164              	.LVL439:
 3165 001a FFF7FEFF 		bl	__aeabi_d2iz
 3166              	.LVL440:
 3167 001e 00B2     		sxth	r0, r0
 3168 0020 FFF7FEFF 		bl	Set_Vgs_Rel
 3169              	.LVL441:
 3170 0024 08BD     		pop	{r3, pc}
 3171              	.L263:
 3172 0026 00BF     		.align	3
 3173              	.L262:
 3174 0028 52B81E85 		.word	-2061584302
 3175 002c EB511040 		.word	1074811371
 3176 0030 00000000 		.word	0
 3177 0034 00E06F40 		.word	1081073664
 3178              		.cfi_endproc
 3179              	.LFE95:
 3180              		.size	Set_Vgs, .-Set_Vgs
 3181              		.section	.text.Set_Vds,"ax",%progbits
 3182              		.align	2
 3183              		.global	Set_Vds
 3184              		.thumb
 3185              		.thumb_func
 3186              		.type	Set_Vds, %function
 3187              	Set_Vds:
ARM GAS  C:\Users\FRANKL~1\AppData\Local\Temp\ccggyhWi.s 			page 79


 3188              	.LFB96:
 517:main.c        **** 	Set_Vds_Rel((voltage/4.080)*255.0);
 3189              		.loc 2 517 0
 3190              		.cfi_startproc
 3191              		@ args = 0, pretend = 0, frame = 0
 3192              		@ frame_needed = 0, uses_anonymous_args = 0
 3193              	.LVL442:
 3194 0000 08B5     		push	{r3, lr}
 3195              		.cfi_def_cfa_offset 8
 3196              		.cfi_offset 3, -8
 3197              		.cfi_offset 14, -4
 518:main.c        **** }
 3198              		.loc 2 518 0
 3199 0002 FFF7FEFF 		bl	__aeabi_f2d
 3200              	.LVL443:
 3201 0006 08A3     		adr	r3, .L266
 3202 0008 D3E90023 		ldrd	r2, [r3]
 3203 000c FFF7FEFF 		bl	__aeabi_ddiv
 3204              	.LVL444:
 3205 0010 07A3     		adr	r3, .L266+8
 3206 0012 D3E90023 		ldrd	r2, [r3]
 3207 0016 FFF7FEFF 		bl	__aeabi_dmul
 3208              	.LVL445:
 3209 001a FFF7FEFF 		bl	__aeabi_d2iz
 3210              	.LVL446:
 3211 001e 00B2     		sxth	r0, r0
 3212 0020 FFF7FEFF 		bl	Set_Vds_Rel
 3213              	.LVL447:
 3214 0024 08BD     		pop	{r3, pc}
 3215              	.L267:
 3216 0026 00BF     		.align	3
 3217              	.L266:
 3218 0028 52B81E85 		.word	-2061584302
 3219 002c EB511040 		.word	1074811371
 3220 0030 00000000 		.word	0
 3221 0034 00E06F40 		.word	1081073664
 3222              		.cfi_endproc
 3223              	.LFE96:
 3224              		.size	Set_Vds, .-Set_Vds
 3225              		.section	.text.Set_Vgs_mV,"ax",%progbits
 3226              		.align	2
 3227              		.global	Set_Vgs_mV
 3228              		.thumb
 3229              		.thumb_func
 3230              		.type	Set_Vgs_mV, %function
 3231              	Set_Vgs_mV:
 3232              	.LFB97:
 523:main.c        **** 	Set_Vgs(mV/1000.0);
 3233              		.loc 2 523 0
 3234              		.cfi_startproc
 3235              		@ args = 0, pretend = 0, frame = 0
 3236              		@ frame_needed = 0, uses_anonymous_args = 0
 3237              	.LVL448:
 3238 0000 08B5     		push	{r3, lr}
 3239              		.cfi_def_cfa_offset 8
 3240              		.cfi_offset 3, -8
 3241              		.cfi_offset 14, -4
ARM GAS  C:\Users\FRANKL~1\AppData\Local\Temp\ccggyhWi.s 			page 80


 524:main.c        **** }
 3242              		.loc 2 524 0
 3243 0002 0349     		ldr	r1, .L270
 3244 0004 FFF7FEFF 		bl	__aeabi_fdiv
 3245              	.LVL449:
 3246 0008 FFF7FEFF 		bl	Set_Vgs
 3247              	.LVL450:
 3248 000c 08BD     		pop	{r3, pc}
 3249              	.L271:
 3250 000e 00BF     		.align	2
 3251              	.L270:
 3252 0010 00007A44 		.word	1148846080
 3253              		.cfi_endproc
 3254              	.LFE97:
 3255              		.size	Set_Vgs_mV, .-Set_Vgs_mV
 3256              		.section	.text.Set_Vds_mV,"ax",%progbits
 3257              		.align	2
 3258              		.global	Set_Vds_mV
 3259              		.thumb
 3260              		.thumb_func
 3261              		.type	Set_Vds_mV, %function
 3262              	Set_Vds_mV:
 3263              	.LFB98:
 528:main.c        **** 	Set_Vds(mV/1000.0);
 3264              		.loc 2 528 0
 3265              		.cfi_startproc
 3266              		@ args = 0, pretend = 0, frame = 0
 3267              		@ frame_needed = 0, uses_anonymous_args = 0
 3268              	.LVL451:
 3269 0000 08B5     		push	{r3, lr}
 3270              		.cfi_def_cfa_offset 8
 3271              		.cfi_offset 3, -8
 3272              		.cfi_offset 14, -4
 529:main.c        **** }
 3273              		.loc 2 529 0
 3274 0002 0349     		ldr	r1, .L274
 3275 0004 FFF7FEFF 		bl	__aeabi_fdiv
 3276              	.LVL452:
 3277 0008 FFF7FEFF 		bl	Set_Vds
 3278              	.LVL453:
 3279 000c 08BD     		pop	{r3, pc}
 3280              	.L275:
 3281 000e 00BF     		.align	2
 3282              	.L274:
 3283 0010 00007A44 		.word	1148846080
 3284              		.cfi_endproc
 3285              	.LFE98:
 3286              		.size	Set_Vds_mV, .-Set_Vds_mV
 3287              		.section	.text.Zero_All_DACs,"ax",%progbits
 3288              		.align	2
 3289              		.global	Zero_All_DACs
 3290              		.thumb
 3291              		.thumb_func
 3292              		.type	Zero_All_DACs, %function
 3293              	Zero_All_DACs:
 3294              	.LFB99:
 534:main.c        **** 	Set_Vds_Raw(0);
ARM GAS  C:\Users\FRANKL~1\AppData\Local\Temp\ccggyhWi.s 			page 81


 3295              		.loc 2 534 0
 3296              		.cfi_startproc
 3297              		@ args = 0, pretend = 0, frame = 0
 3298              		@ frame_needed = 0, uses_anonymous_args = 0
 3299 0000 08B5     		push	{r3, lr}
 3300              		.cfi_def_cfa_offset 8
 3301              		.cfi_offset 3, -8
 3302              		.cfi_offset 14, -4
 535:main.c        **** 	Set_Vgs_Raw(0);
 3303              		.loc 2 535 0
 3304 0002 0020     		movs	r0, #0
 3305 0004 FFF7FEFF 		bl	Set_Vds_Raw
 3306              	.LVL454:
 536:main.c        **** 	
 3307              		.loc 2 536 0
 3308 0008 0020     		movs	r0, #0
 3309 000a FFF7FEFF 		bl	Set_Vgs_Raw
 3310              	.LVL455:
 538:main.c        **** 	VDAC_Vgs_SetValue(0);
 3311              		.loc 2 538 0
 3312 000e 0020     		movs	r0, #0
 3313 0010 FFF7FEFF 		bl	VDAC_Vds_SetValue
 3314              	.LVL456:
 539:main.c        **** }
 3315              		.loc 2 539 0
 3316 0014 0020     		movs	r0, #0
 3317 0016 FFF7FEFF 		bl	VDAC_Vgs_SetValue
 3318              	.LVL457:
 3319 001a 08BD     		pop	{r3, pc}
 3320              		.cfi_endproc
 3321              	.LFE99:
 3322              		.size	Zero_All_DACs, .-Zero_All_DACs
 3323              		.section	.text.Measure,"ax",%progbits
 3324              		.align	2
 3325              		.global	Measure
 3326              		.thumb
 3327              		.thumb_func
 3328              		.type	Measure, %function
 3329              	Measure:
 3330              	.LFB100:
 543:main.c        **** 	int32 IdsAverage = 0;
 3331              		.loc 2 543 0
 3332              		.cfi_startproc
 3333              		@ args = 0, pretend = 0, frame = 24
 3334              		@ frame_needed = 0, uses_anonymous_args = 0
 3335              	.LVL458:
 3336 0000 2DE9F047 		push	{r4, r5, r6, r7, r8, r9, r10, lr}
 3337              		.cfi_def_cfa_offset 32
 3338              		.cfi_offset 4, -32
 3339              		.cfi_offset 5, -28
 3340              		.cfi_offset 6, -24
 3341              		.cfi_offset 7, -20
 3342              		.cfi_offset 8, -16
 3343              		.cfi_offset 9, -12
 3344              		.cfi_offset 10, -8
 3345              		.cfi_offset 14, -4
 3346 0004 8EB0     		sub	sp, sp, #56
ARM GAS  C:\Users\FRANKL~1\AppData\Local\Temp\ccggyhWi.s 			page 82


 3347              		.cfi_def_cfa_offset 88
 3348 0006 0F46     		mov	r7, r1
 3349 0008 1546     		mov	r5, r2
 544:main.c        **** 	int32 IdsStandardDeviation = 0;
 3350              		.loc 2 544 0
 3351 000a 0024     		movs	r4, #0
 3352 000c 0D94     		str	r4, [sp, #52]
 545:main.c        **** 	
 3353              		.loc 2 545 0
 3354 000e 0EA9     		add	r1, sp, #56
 3355              	.LVL459:
 3356 0010 41F8084D 		str	r4, [r1, #-8]!
 547:main.c        **** 	
 3357              		.loc 2 547 0
 3358 0014 0246     		mov	r2, r0
 3359              	.LVL460:
 3360 0016 0DA8     		add	r0, sp, #52
 3361              	.LVL461:
 3362 0018 FFF7FEFF 		bl	ADC_Measure_uV
 3363              	.LVL462:
 549:main.c        **** 	
 3364              		.loc 2 549 0
 3365 001c 0D98     		ldr	r0, [sp, #52]
 3366 001e FFF7FEFF 		bl	__aeabi_i2d
 3367              	.LVL463:
 3368 0022 2FA3     		adr	r3, .L280
 3369 0024 D3E90023 		ldrd	r2, [r3]
 3370 0028 FFF7FEFF 		bl	__aeabi_dmul
 3371              	.LVL464:
 3372 002c FFF7FEFF 		bl	__aeabi_d2f
 3373              	.LVL465:
 3374 0030 0646     		mov	r6, r0
 3375              	.LVL466:
 558:main.c        **** 	int32 SAR1_SD = 0;
 3376              		.loc 2 558 0
 3377 0032 0B94     		str	r4, [sp, #44]
 559:main.c        **** 	int32 SAR2_Average = 0;
 3378              		.loc 2 559 0
 3379 0034 0A94     		str	r4, [sp, #40]
 560:main.c        **** 	int32 SAR2_SD = 0;
 3380              		.loc 2 560 0
 3381 0036 0994     		str	r4, [sp, #36]
 561:main.c        **** 
 3382              		.loc 2 561 0
 3383 0038 0894     		str	r4, [sp, #32]
 563:main.c        **** 	SAR2_Measure_V(&SAR2_Average, &SAR2_SD, SAR2_SampleCount);
 3384              		.loc 2 563 0
 3385 003a 3A46     		mov	r2, r7
 3386 003c 0AA9     		add	r1, sp, #40
 3387 003e 0BA8     		add	r0, sp, #44
 3388              	.LVL467:
 3389 0040 FFF7FEFF 		bl	SAR1_Measure_V
 3390              	.LVL468:
 564:main.c        **** 
 3391              		.loc 2 564 0
 3392 0044 2A46     		mov	r2, r5
 3393 0046 08A9     		add	r1, sp, #32
ARM GAS  C:\Users\FRANKL~1\AppData\Local\Temp\ccggyhWi.s 			page 83


 3394 0048 09A8     		add	r0, sp, #36
 3395 004a FFF7FEFF 		bl	SAR2_Measure_V
 3396              	.LVL469:
 566:main.c        **** 	float SAR2 = 1e-6*SAR2_Average;
 3397              		.loc 2 566 0
 3398 004e 0B98     		ldr	r0, [sp, #44]
 3399 0050 FFF7FEFF 		bl	__aeabi_i2d
 3400              	.LVL470:
 3401 0054 24A3     		adr	r3, .L280+8
 3402 0056 D3E90023 		ldrd	r2, [r3]
 3403 005a FFF7FEFF 		bl	__aeabi_dmul
 3404              	.LVL471:
 3405 005e FFF7FEFF 		bl	__aeabi_d2f
 3406              	.LVL472:
 3407 0062 8146     		mov	r9, r0
 3408              	.LVL473:
 567:main.c        **** 
 3409              		.loc 2 567 0
 3410 0064 0998     		ldr	r0, [sp, #36]
 3411              	.LVL474:
 3412 0066 FFF7FEFF 		bl	__aeabi_i2d
 3413              	.LVL475:
 3414 006a 1FA3     		adr	r3, .L280+8
 3415 006c D3E90023 		ldrd	r2, [r3]
 3416 0070 FFF7FEFF 		bl	__aeabi_dmul
 3417              	.LVL476:
 3418 0074 FFF7FEFF 		bl	__aeabi_d2f
 3419              	.LVL477:
 3420 0078 8246     		mov	r10, r0
 3421              	.LVL478:
 569:main.c        **** 	USBUARTH_Send(TransmitBuffer, strlen(TransmitBuffer));
 3422              		.loc 2 569 0
 3423 007a FFF7FEFF 		bl	Get_Vgs
 3424              	.LVL479:
 3425 007e 0546     		mov	r5, r0
 3426              	.LVL480:
 3427 0080 FFF7FEFF 		bl	Get_Vds
 3428              	.LVL481:
 3429 0084 8046     		mov	r8, r0
 3430 0086 3046     		mov	r0, r6
 3431 0088 FFF7FEFF 		bl	__aeabi_f2d
 3432              	.LVL482:
 3433 008c 0646     		mov	r6, r0
 3434              	.LVL483:
 3435 008e 0F46     		mov	r7, r1
 3436              	.LVL484:
 3437 0090 174C     		ldr	r4, .L280+16
 3438 0092 5046     		mov	r0, r10
 3439 0094 FFF7FEFF 		bl	__aeabi_f2d
 3440              	.LVL485:
 3441 0098 CDE90601 		strd	r0, [sp, #24]
 3442 009c 4846     		mov	r0, r9
 3443 009e FFF7FEFF 		bl	__aeabi_f2d
 3444              	.LVL486:
 3445 00a2 CDE90401 		strd	r0, [sp, #16]
 3446 00a6 4046     		mov	r0, r8
 3447 00a8 FFF7FEFF 		bl	__aeabi_f2d
ARM GAS  C:\Users\FRANKL~1\AppData\Local\Temp\ccggyhWi.s 			page 84


 3448              	.LVL487:
 3449 00ac CDE90201 		strd	r0, [sp, #8]
 3450 00b0 2846     		mov	r0, r5
 3451 00b2 FFF7FEFF 		bl	__aeabi_f2d
 3452              	.LVL488:
 3453 00b6 CDE90001 		strd	r0, [sp]
 3454 00ba 3246     		mov	r2, r6
 3455 00bc 3B46     		mov	r3, r7
 3456 00be 0D49     		ldr	r1, .L280+20
 3457 00c0 2046     		mov	r0, r4
 3458 00c2 FFF7FEFF 		bl	sprintf
 3459              	.LVL489:
 570:main.c        **** 	UART_1_PutString(TransmitBuffer);
 3460              		.loc 2 570 0
 3461 00c6 2046     		mov	r0, r4
 3462 00c8 FFF7FEFF 		bl	strlen
 3463              	.LVL490:
 3464 00cc 81B2     		uxth	r1, r0
 3465 00ce 2046     		mov	r0, r4
 3466 00d0 FFF7FEFF 		bl	USBUARTH_Send
 3467              	.LVL491:
 571:main.c        **** }
 3468              		.loc 2 571 0
 3469 00d4 2046     		mov	r0, r4
 3470 00d6 FFF7FEFF 		bl	UART_1_PutString
 3471              	.LVL492:
 572:main.c        **** 
 3472              		.loc 2 572 0
 3473 00da 0EB0     		add	sp, sp, #56
 3474              		.cfi_def_cfa_offset 32
 3475              		@ sp needed
 3476 00dc BDE8F087 		pop	{r4, r5, r6, r7, r8, r9, r10, pc}
 3477              	.LVL493:
 3478              	.L281:
 3479              		.align	3
 3480              	.L280:
 3481 00e0 BABDD7D9 		.word	-640172614
 3482 00e4 DF7CCBBD 		.word	-1110737697
 3483 00e8 8DEDB5A0 		.word	-1598689907
 3484 00ec F7C6B03E 		.word	1051772663
 3485 00f0 00000000 		.word	TransmitBuffer
 3486 00f4 A8000000 		.word	.LC11
 3487              		.cfi_endproc
 3488              	.LFE100:
 3489              		.size	Measure, .-Measure
 3490              		.section	.text.Measure_Multiple,"ax",%progbits
 3491              		.align	2
 3492              		.global	Measure_Multiple
 3493              		.thumb
 3494              		.thumb_func
 3495              		.type	Measure_Multiple, %function
 3496              	Measure_Multiple:
 3497              	.LFB101:
 575:main.c        **** 	for (uint32 i = 0; i < n; i++) {
 3498              		.loc 2 575 0
 3499              		.cfi_startproc
 3500              		@ args = 0, pretend = 0, frame = 0
ARM GAS  C:\Users\FRANKL~1\AppData\Local\Temp\ccggyhWi.s 			page 85


 3501              		@ frame_needed = 0, uses_anonymous_args = 0
 3502              	.LVL494:
 3503 0000 38B5     		push	{r3, r4, r5, lr}
 3504              		.cfi_def_cfa_offset 16
 3505              		.cfi_offset 3, -16
 3506              		.cfi_offset 4, -12
 3507              		.cfi_offset 5, -8
 3508              		.cfi_offset 14, -4
 3509 0002 0546     		mov	r5, r0
 3510              	.LVL495:
 3511              	.LBB42:
 576:main.c        **** 		Measure(100, 1, 10);
 3512              		.loc 2 576 0
 3513 0004 0024     		movs	r4, #0
 3514 0006 05E0     		b	.L283
 3515              	.LVL496:
 3516              	.L284:
 577:main.c        **** 	}
 3517              		.loc 2 577 0 discriminator 3
 3518 0008 0A22     		movs	r2, #10
 3519 000a 0121     		movs	r1, #1
 3520 000c 6420     		movs	r0, #100
 3521 000e FFF7FEFF 		bl	Measure
 3522              	.LVL497:
 576:main.c        **** 		Measure(100, 1, 10);
 3523              		.loc 2 576 0 discriminator 3
 3524 0012 0134     		adds	r4, r4, #1
 3525              	.LVL498:
 3526              	.L283:
 576:main.c        **** 		Measure(100, 1, 10);
 3527              		.loc 2 576 0 is_stmt 0 discriminator 1
 3528 0014 AC42     		cmp	r4, r5
 3529 0016 F7D3     		bcc	.L284
 3530              	.LBE42:
 579:main.c        **** 
 3531              		.loc 2 579 0 is_stmt 1
 3532 0018 38BD     		pop	{r3, r4, r5, pc}
 3533              		.cfi_endproc
 3534              	.LFE101:
 3535              		.size	Measure_Multiple, .-Measure_Multiple
 3536 001a 00BF     		.section	.text.Measure_Sweep,"ax",%progbits
 3537              		.align	2
 3538              		.global	Measure_Sweep
 3539              		.thumb
 3540              		.thumb_func
 3541              		.type	Measure_Sweep, %function
 3542              	Measure_Sweep:
 3543              	.LFB102:
 582:main.c        **** 	VDAC_Vds_SetValue(90);
 3544              		.loc 2 582 0
 3545              		.cfi_startproc
 3546              		@ args = 0, pretend = 0, frame = 0
 3547              		@ frame_needed = 0, uses_anonymous_args = 0
 3548 0000 10B5     		push	{r4, lr}
 3549              		.cfi_def_cfa_offset 8
 3550              		.cfi_offset 4, -8
 3551              		.cfi_offset 14, -4
ARM GAS  C:\Users\FRANKL~1\AppData\Local\Temp\ccggyhWi.s 			page 86


 583:main.c        **** 	VDAC_Vgs_SetValue(254);
 3552              		.loc 2 583 0
 3553 0002 5A20     		movs	r0, #90
 3554 0004 FFF7FEFF 		bl	VDAC_Vds_SetValue
 3555              	.LVL499:
 584:main.c        **** 	
 3556              		.loc 2 584 0
 3557 0008 FE20     		movs	r0, #254
 3558 000a FFF7FEFF 		bl	VDAC_Vgs_SetValue
 3559              	.LVL500:
 3560              	.LBB43:
 586:main.c        **** 		VDAC_Vgs_SetValue(Vgsi);
 3561              		.loc 2 586 0
 3562 000e 0024     		movs	r4, #0
 3563 0010 09E0     		b	.L287
 3564              	.LVL501:
 3565              	.L288:
 587:main.c        **** 		Measure(100, 1, 1);
 3566              		.loc 2 587 0 discriminator 3
 3567 0012 E0B2     		uxtb	r0, r4
 3568 0014 FFF7FEFF 		bl	VDAC_Vgs_SetValue
 3569              	.LVL502:
 588:main.c        **** 	}
 3570              		.loc 2 588 0 discriminator 3
 3571 0018 0122     		movs	r2, #1
 3572 001a 1146     		mov	r1, r2
 3573 001c 6420     		movs	r0, #100
 3574 001e FFF7FEFF 		bl	Measure
 3575              	.LVL503:
 586:main.c        **** 		VDAC_Vgs_SetValue(Vgsi);
 3576              		.loc 2 586 0 discriminator 3
 3577 0022 0134     		adds	r4, r4, #1
 3578              	.LVL504:
 3579 0024 A4B2     		uxth	r4, r4
 3580              	.LVL505:
 3581              	.L287:
 586:main.c        **** 		VDAC_Vgs_SetValue(Vgsi);
 3582              		.loc 2 586 0 is_stmt 0 discriminator 1
 3583 0026 FF2C     		cmp	r4, #255
 3584 0028 F3D9     		bls	.L288
 3585              	.LBE43:
 590:main.c        **** 
 3586              		.loc 2 590 0 is_stmt 1
 3587 002a 10BD     		pop	{r4, pc}
 3588              		.cfi_endproc
 3589              	.LFE102:
 3590              		.size	Measure_Sweep, .-Measure_Sweep
 3591              		.section	.text.Measure_Gate_Sweep,"ax",%progbits
 3592              		.align	2
 3593              		.global	Measure_Gate_Sweep
 3594              		.thumb
 3595              		.thumb_func
 3596              		.type	Measure_Gate_Sweep, %function
 3597              	Measure_Gate_Sweep:
 3598              	.LFB103:
 592:main.c        **** 	
 3599              		.loc 2 592 0
ARM GAS  C:\Users\FRANKL~1\AppData\Local\Temp\ccggyhWi.s 			page 87


 3600              		.cfi_startproc
 3601              		@ args = 0, pretend = 0, frame = 0
 3602              		@ frame_needed = 0, uses_anonymous_args = 0
 3603              	.LVL506:
 3604 0000 2DE9F843 		push	{r3, r4, r5, r6, r7, r8, r9, lr}
 3605              		.cfi_def_cfa_offset 32
 3606              		.cfi_offset 3, -32
 3607              		.cfi_offset 4, -28
 3608              		.cfi_offset 5, -24
 3609              		.cfi_offset 6, -20
 3610              		.cfi_offset 7, -16
 3611              		.cfi_offset 8, -12
 3612              		.cfi_offset 9, -8
 3613              		.cfi_offset 14, -4
 3614 0004 8146     		mov	r9, r0
 594:main.c        **** 		Set_Ref_Raw(254 - Vds_Index_Goal_Relative);
 3615              		.loc 2 594 0
 3616 0006 274B     		ldr	r3, .L307
 3617 0008 B3F90030 		ldrsh	r3, [r3]
 3618 000c 002B     		cmp	r3, #0
 3619 000e 07DD     		ble	.L291
 595:main.c        **** 	} else {
 3620              		.loc 2 595 0
 3621 0010 C3F1FE00 		rsb	r0, r3, #254
 3622              	.LVL507:
 3623 0014 C0B2     		uxtb	r0, r0
 3624 0016 FFF7FEFF 		bl	Set_Ref_Raw
 3625              	.LVL508:
 3626              	.L293:
 3627              	.LBB44:
 3628              	.LBB45:
 3629              	.LBB46:
 3630 001a 4FF00008 		mov	r8, #0
 3631 001e 3DE0     		b	.L292
 3632              	.LVL509:
 3633              	.L291:
 3634              	.LBE46:
 3635              	.LBE45:
 3636              	.LBE44:
 597:main.c        **** 	}
 3637              		.loc 2 597 0
 3638 0020 FE20     		movs	r0, #254
 3639              	.LVL510:
 3640 0022 FFF7FEFF 		bl	Set_Ref_Raw
 3641              	.LVL511:
 3642 0026 F8E7     		b	.L293
 3643              	.LVL512:
 3644              	.L302:
 3645              	.LBB51:
 3646              	.LBB50:
 605:main.c        **** 			istart = -Vds_Index_Goal_Relative;
 3647              		.loc 2 605 0
 3648 0028 1E4B     		ldr	r3, .L307
 3649 002a B3F90030 		ldrsh	r3, [r3]
 3650 002e 002B     		cmp	r3, #0
 3651 0030 02DA     		bge	.L303
 606:main.c        **** 		}
ARM GAS  C:\Users\FRANKL~1\AppData\Local\Temp\ccggyhWi.s 			page 88


 3652              		.loc 2 606 0
 3653 0032 5B42     		negs	r3, r3
 3654 0034 DDB2     		uxtb	r5, r3
 3655              	.LVL513:
 3656 0036 00E0     		b	.L294
 3657              	.LVL514:
 3658              	.L303:
 604:main.c        **** 		if (Vds_Index_Goal_Relative < 0) {
 3659              		.loc 2 604 0
 3660 0038 0025     		movs	r5, #0
 3661              	.LVL515:
 3662              	.L294:
 611:main.c        **** 			direction = -1*speed;
 3663              		.loc 2 611 0
 3664 003a 18F0010F 		tst	r8, #1
 3665 003e 02D1     		bne	.L304
 609:main.c        **** 		
 3666              		.loc 2 609 0
 3667 0040 F026     		movs	r6, #240
 603:main.c        **** 		uint8 istart = 0;
 3668              		.loc 2 603 0
 3669 0042 1027     		movs	r7, #16
 3670 0044 24E0     		b	.L296
 3671              	.L304:
 614:main.c        **** 		}
 3672              		.loc 2 614 0
 3673 0046 0026     		movs	r6, #0
 613:main.c        **** 			istop = 0;
 3674              		.loc 2 613 0
 3675 0048 F025     		movs	r5, #240
 3676              	.LVL516:
 612:main.c        **** 			istart = 256-speed;
 3677              		.loc 2 612 0
 3678 004a 6FF00F07 		mvn	r7, #15
 3679              	.LVL517:
 3680              	.LBB49:
 617:main.c        **** 			for (uint8 j = 0; j <= 1; j++) {
 3681              		.loc 2 617 0
 3682 004e 1FE0     		b	.L296
 3683              	.LVL518:
 3684              	.L300:
 3685              	.LBB47:
 619:main.c        **** 				Set_Vgs_Raw(i);
 3686              		.loc 2 619 0
 3687 0050 012C     		cmp	r4, #1
 3688 0052 03D1     		bne	.L297
 619:main.c        **** 				Set_Vgs_Raw(i);
 3689              		.loc 2 619 0 is_stmt 0 discriminator 1
 3690 0054 E843     		mvns	r0, r5
 3691 0056 C0B2     		uxtb	r0, r0
 3692 0058 FFF7FEFF 		bl	Set_Ref_Raw
 3693              	.LVL519:
 3694              	.L297:
 620:main.c        **** 				
 3695              		.loc 2 620 0 is_stmt 1
 3696 005c 2846     		mov	r0, r5
 3697 005e FFF7FEFF 		bl	Set_Vgs_Raw
ARM GAS  C:\Users\FRANKL~1\AppData\Local\Temp\ccggyhWi.s 			page 89


 3698              	.LVL520:
 622:main.c        **** 				
 3699              		.loc 2 622 0
 3700 0062 0122     		movs	r2, #1
 3701 0064 1146     		mov	r1, r2
 3702 0066 2120     		movs	r0, #33
 3703 0068 FFF7FEFF 		bl	Measure
 3704              	.LVL521:
 624:main.c        **** 				while (G_Pause);
 3705              		.loc 2 624 0
 3706 006c 0E4B     		ldr	r3, .L307+4
 3707 006e 5B78     		ldrb	r3, [r3, #1]	@ zero_extendqisi2
 3708 0070 13F0FF0F 		tst	r3, #255
 3709 0074 0AD1     		bne	.L298
 3710              	.L299:
 625:main.c        **** 			}
 3711              		.loc 2 625 0 discriminator 1
 3712 0076 0C4B     		ldr	r3, .L307+4
 3713 0078 DB78     		ldrb	r3, [r3, #3]	@ zero_extendqisi2
 3714 007a 13F0FF0F 		tst	r3, #255
 3715 007e FAD1     		bne	.L299
 618:main.c        **** 				if (j == 1) Set_Ref_Raw(254 - i + 1);
 3716              		.loc 2 618 0 discriminator 2
 3717 0080 0134     		adds	r4, r4, #1
 3718              	.LVL522:
 3719 0082 E4B2     		uxtb	r4, r4
 3720              	.LVL523:
 3721 0084 00E0     		b	.L301
 3722              	.LVL524:
 3723              	.L305:
 3724              	.LBE47:
 3725 0086 0024     		movs	r4, #0
 3726              	.L301:
 3727              	.LVL525:
 3728              	.LBB48:
 618:main.c        **** 				if (j == 1) Set_Ref_Raw(254 - i + 1);
 3729              		.loc 2 618 0 is_stmt 0 discriminator 1
 3730 0088 012C     		cmp	r4, #1
 3731 008a E1D9     		bls	.L300
 3732              	.L298:
 3733              	.LBE48:
 617:main.c        **** 			for (uint8 j = 0; j <= 1; j++) {
 3734              		.loc 2 617 0 is_stmt 1 discriminator 2
 3735 008c 3D44     		add	r5, r5, r7
 3736              	.LVL526:
 3737 008e EDB2     		uxtb	r5, r5
 3738              	.LVL527:
 3739              	.L296:
 617:main.c        **** 			for (uint8 j = 0; j <= 1; j++) {
 3740              		.loc 2 617 0 is_stmt 0 discriminator 1
 3741 0090 AE42     		cmp	r6, r5
 3742 0092 F8D1     		bne	.L305
 3743              	.LBE49:
 3744              	.LBE50:
 602:main.c        **** 		int8 direction = 1*speed;
 3745              		.loc 2 602 0 is_stmt 1 discriminator 2
 3746 0094 08F10108 		add	r8, r8, #1
ARM GAS  C:\Users\FRANKL~1\AppData\Local\Temp\ccggyhWi.s 			page 90


 3747              	.LVL528:
 3748 0098 5FFA88F8 		uxtb	r8, r8
 3749              	.LVL529:
 3750              	.L292:
 602:main.c        **** 		int8 direction = 1*speed;
 3751              		.loc 2 602 0 is_stmt 0 discriminator 1
 3752 009c C845     		cmp	r8, r9
 3753 009e C3D9     		bls	.L302
 3754              	.LBE51:
 629:main.c        **** 
 3755              		.loc 2 629 0 is_stmt 1
 3756 00a0 BDE8F883 		pop	{r3, r4, r5, r6, r7, r8, r9, pc}
 3757              	.LVL530:
 3758              	.L308:
 3759              		.align	2
 3760              	.L307:
 3761 00a4 00000000 		.word	Vds_Index_Goal_Relative
 3762 00a8 00000000 		.word	.LANCHOR0
 3763              		.cfi_endproc
 3764              	.LFE103:
 3765              		.size	Measure_Gate_Sweep, .-Measure_Gate_Sweep
 3766              		.section	.text.Measure_Wide_Gate_Sweep,"ax",%progbits
 3767              		.align	2
 3768              		.global	Measure_Wide_Gate_Sweep
 3769              		.thumb
 3770              		.thumb_func
 3771              		.type	Measure_Wide_Gate_Sweep, %function
 3772              	Measure_Wide_Gate_Sweep:
 3773              	.LFB104:
 631:main.c        **** 	Set_Ref_Raw(254);
 3774              		.loc 2 631 0
 3775              		.cfi_startproc
 3776              		@ args = 0, pretend = 0, frame = 0
 3777              		@ frame_needed = 0, uses_anonymous_args = 0
 3778              	.LVL531:
 3779 0000 2DE9F843 		push	{r3, r4, r5, r6, r7, r8, r9, lr}
 3780              		.cfi_def_cfa_offset 32
 3781              		.cfi_offset 3, -32
 3782              		.cfi_offset 4, -28
 3783              		.cfi_offset 5, -24
 3784              		.cfi_offset 6, -20
 3785              		.cfi_offset 7, -16
 3786              		.cfi_offset 8, -12
 3787              		.cfi_offset 9, -8
 3788              		.cfi_offset 14, -4
 3789 0004 8146     		mov	r9, r0
 632:main.c        **** 	
 3790              		.loc 2 632 0
 3791 0006 FE20     		movs	r0, #254
 3792              	.LVL532:
 3793 0008 FFF7FEFF 		bl	Set_Ref_Raw
 3794              	.LVL533:
 3795              	.LBB52:
 636:main.c        **** 		int8 direction = 1*speed;
 3796              		.loc 2 636 0
 3797 000c 4FF00008 		mov	r8, #0
 3798 0010 31E0     		b	.L310
ARM GAS  C:\Users\FRANKL~1\AppData\Local\Temp\ccggyhWi.s 			page 91


 3799              	.LVL534:
 3800              	.L318:
 3801              	.LBB53:
 641:main.c        **** 			direction = -1*speed;
 3802              		.loc 2 641 0
 3803 0012 18F0010F 		tst	r8, #1
 3804 0016 03D1     		bne	.L319
 639:main.c        **** 		
 3805              		.loc 2 639 0
 3806 0018 F026     		movs	r6, #240
 638:main.c        **** 		uint8 istop = 256-speed;
 3807              		.loc 2 638 0
 3808 001a 0025     		movs	r5, #0
 637:main.c        **** 		uint8 istart = 0;
 3809              		.loc 2 637 0
 3810 001c 1027     		movs	r7, #16
 3811 001e 24E0     		b	.L312
 3812              	.L319:
 644:main.c        **** 		}
 3813              		.loc 2 644 0
 3814 0020 0026     		movs	r6, #0
 643:main.c        **** 			istop = 0;
 3815              		.loc 2 643 0
 3816 0022 F025     		movs	r5, #240
 642:main.c        **** 			istart = 256-speed;
 3817              		.loc 2 642 0
 3818 0024 6FF00F07 		mvn	r7, #15
 3819              	.LVL535:
 3820              	.LBB54:
 647:main.c        **** 			for (uint8 j = 0; j <= 1; j++) {
 3821              		.loc 2 647 0
 3822 0028 1FE0     		b	.L312
 3823              	.LVL536:
 3824              	.L316:
 3825              	.LBB55:
 650:main.c        **** 				Set_Vgs_Raw(i);
 3826              		.loc 2 650 0
 3827 002a 012C     		cmp	r4, #1
 3828 002c 03D1     		bne	.L313
 650:main.c        **** 				Set_Vgs_Raw(i);
 3829              		.loc 2 650 0 is_stmt 0 discriminator 1
 3830 002e E843     		mvns	r0, r5
 3831 0030 C0B2     		uxtb	r0, r0
 3832 0032 FFF7FEFF 		bl	Set_Ref_Raw
 3833              	.LVL537:
 3834              	.L313:
 651:main.c        **** 				
 3835              		.loc 2 651 0 is_stmt 1
 3836 0036 2846     		mov	r0, r5
 3837 0038 FFF7FEFF 		bl	Set_Vgs_Raw
 3838              	.LVL538:
 653:main.c        **** 				
 3839              		.loc 2 653 0
 3840 003c 0122     		movs	r2, #1
 3841 003e 1146     		mov	r1, r2
 3842 0040 2120     		movs	r0, #33
 3843 0042 FFF7FEFF 		bl	Measure
ARM GAS  C:\Users\FRANKL~1\AppData\Local\Temp\ccggyhWi.s 			page 92


 3844              	.LVL539:
 655:main.c        **** 				while (G_Pause);
 3845              		.loc 2 655 0
 3846 0046 0E4B     		ldr	r3, .L322
 3847 0048 5B78     		ldrb	r3, [r3, #1]	@ zero_extendqisi2
 3848 004a 13F0FF0F 		tst	r3, #255
 3849 004e 0AD1     		bne	.L314
 3850              	.L315:
 656:main.c        **** 			}
 3851              		.loc 2 656 0 discriminator 1
 3852 0050 0B4B     		ldr	r3, .L322
 3853 0052 DB78     		ldrb	r3, [r3, #3]	@ zero_extendqisi2
 3854 0054 13F0FF0F 		tst	r3, #255
 3855 0058 FAD1     		bne	.L315
 648:main.c        **** 				
 3856              		.loc 2 648 0 discriminator 2
 3857 005a 0134     		adds	r4, r4, #1
 3858              	.LVL540:
 3859 005c E4B2     		uxtb	r4, r4
 3860              	.LVL541:
 3861 005e 00E0     		b	.L317
 3862              	.LVL542:
 3863              	.L320:
 3864              	.LBE55:
 3865 0060 0024     		movs	r4, #0
 3866              	.L317:
 3867              	.LVL543:
 3868              	.LBB56:
 648:main.c        **** 				
 3869              		.loc 2 648 0 is_stmt 0 discriminator 1
 3870 0062 012C     		cmp	r4, #1
 3871 0064 E1D9     		bls	.L316
 3872              	.L314:
 3873              	.LBE56:
 647:main.c        **** 			for (uint8 j = 0; j <= 1; j++) {
 3874              		.loc 2 647 0 is_stmt 1 discriminator 2
 3875 0066 3D44     		add	r5, r5, r7
 3876              	.LVL544:
 3877 0068 EDB2     		uxtb	r5, r5
 3878              	.LVL545:
 3879              	.L312:
 647:main.c        **** 			for (uint8 j = 0; j <= 1; j++) {
 3880              		.loc 2 647 0 is_stmt 0 discriminator 1
 3881 006a AE42     		cmp	r6, r5
 3882 006c F8D1     		bne	.L320
 3883              	.LBE54:
 3884              	.LBE53:
 636:main.c        **** 		int8 direction = 1*speed;
 3885              		.loc 2 636 0 is_stmt 1 discriminator 2
 3886 006e 08F10108 		add	r8, r8, #1
 3887              	.LVL546:
 3888 0072 5FFA88F8 		uxtb	r8, r8
 3889              	.LVL547:
 3890              	.L310:
 636:main.c        **** 		int8 direction = 1*speed;
 3891              		.loc 2 636 0 is_stmt 0 discriminator 1
 3892 0076 C845     		cmp	r8, r9
ARM GAS  C:\Users\FRANKL~1\AppData\Local\Temp\ccggyhWi.s 			page 93


 3893 0078 CBD9     		bls	.L318
 3894              	.LBE52:
 660:main.c        **** 
 3895              		.loc 2 660 0 is_stmt 1
 3896 007a BDE8F883 		pop	{r3, r4, r5, r6, r7, r8, r9, pc}
 3897              	.LVL548:
 3898              	.L323:
 3899 007e 00BF     		.align	2
 3900              	.L322:
 3901 0080 00000000 		.word	.LANCHOR0
 3902              		.cfi_endproc
 3903              	.LFE104:
 3904              		.size	Measure_Wide_Gate_Sweep, .-Measure_Wide_Gate_Sweep
 3905              		.section	.text.Measure_Gate_Sweep_New,"ax",%progbits
 3906              		.align	2
 3907              		.global	Measure_Gate_Sweep_New
 3908              		.thumb
 3909              		.thumb_func
 3910              		.type	Measure_Gate_Sweep_New, %function
 3911              	Measure_Gate_Sweep_New:
 3912              	.LFB105:
 662:main.c        **** 	uint8 refTurn = 1;
 3913              		.loc 2 662 0
 3914              		.cfi_startproc
 3915              		@ args = 0, pretend = 0, frame = 0
 3916              		@ frame_needed = 0, uses_anonymous_args = 0
 3917 0000 2DE9F843 		push	{r3, r4, r5, r6, r7, r8, r9, lr}
 3918              		.cfi_def_cfa_offset 32
 3919              		.cfi_offset 3, -32
 3920              		.cfi_offset 4, -28
 3921              		.cfi_offset 5, -24
 3922              		.cfi_offset 6, -20
 3923              		.cfi_offset 7, -16
 3924              		.cfi_offset 8, -12
 3925              		.cfi_offset 9, -8
 3926              		.cfi_offset 14, -4
 3927              	.LVL549:
 674:main.c        **** 	
 3928              		.loc 2 674 0
 3929 0004 0027     		movs	r7, #0
 673:main.c        **** 	uint8 gateArrived = 0;
 3930              		.loc 2 673 0
 3931 0006 3E46     		mov	r6, r7
 668:main.c        **** 	
 3932              		.loc 2 668 0
 3933 0008 B946     		mov	r9, r7
 667:main.c        **** 	uint8 refArrived = 0;
 3934              		.loc 2 667 0
 3935 000a 3D46     		mov	r5, r7
 663:main.c        **** 	int8 refIncrement = 1;
 3936              		.loc 2 663 0
 3937 000c 0124     		movs	r4, #1
 677:main.c        **** 		gateArrived = abs(gateIndex-endGateIndex) < abs(gateIncrement);
 3938              		.loc 2 677 0
 3939 000e 39E0     		b	.L325
 3940              	.LVL550:
 3941              	.L333:
ARM GAS  C:\Users\FRANKL~1\AppData\Local\Temp\ccggyhWi.s 			page 94


 678:main.c        **** 		refArrived = abs(refIndex-endRefIndex) < abs(refIncrement);
 3942              		.loc 2 678 0
 3943 0010 86EAE673 		eor	r3, r6, r6, asr #31
 3944 0014 A3EBE673 		sub	r3, r3, r6, asr #31
 3945 0018 002B     		cmp	r3, #0
 3946 001a CCBF     		ite	gt
 3947 001c 0027     		movgt	r7, #0
 3948              	.LVL551:
 3949 001e 0127     		movle	r7, #1
 3950              	.LVL552:
 679:main.c        **** 		
 3951              		.loc 2 679 0
 3952 0020 85EAE572 		eor	r2, r5, r5, asr #31
 3953 0024 A2EBE572 		sub	r2, r2, r5, asr #31
 3954 0028 002A     		cmp	r2, #0
 3955 002a CCBF     		ite	gt
 3956 002c 4FF00009 		movgt	r9, #0
 3957              	.LVL553:
 3958 0030 4FF00109 		movle	r9, #1
 3959              	.LVL554:
 681:main.c        **** 		
 3960              		.loc 2 681 0
 3961 0034 002C     		cmp	r4, #0
 3962 0036 0CBF     		ite	eq
 3963 0038 4FF00108 		moveq	r8, #1
 3964 003c 4FF00008 		movne	r8, #0
 3965              	.LVL555:
 683:main.c        **** 		if (!refTurn && gateArrived) continue;
 3966              		.loc 2 683 0
 3967 0040 01D1     		bne	.L326
 683:main.c        **** 		if (!refTurn && gateArrived) continue;
 3968              		.loc 2 683 0 is_stmt 0 discriminator 1
 3969 0042 002A     		cmp	r2, #0
 3970 0044 1DDD     		ble	.L327
 3971              	.L326:
 684:main.c        **** 		
 3972              		.loc 2 684 0 is_stmt 1
 3973 0046 0CB1     		cbz	r4, .L328
 684:main.c        **** 		
 3974              		.loc 2 684 0 is_stmt 0 discriminator 1
 3975 0048 002B     		cmp	r3, #0
 3976 004a 1ADD     		ble	.L327
 3977              	.L328:
 686:main.c        **** 		Set_Vgs_Raw(gateIndex);
 3978              		.loc 2 686 0 is_stmt 1
 3979 004c 2846     		mov	r0, r5
 3980 004e FFF7FEFF 		bl	Set_Ref_Raw
 3981              	.LVL556:
 687:main.c        **** 		
 3982              		.loc 2 687 0
 3983 0052 3046     		mov	r0, r6
 3984 0054 FFF7FEFF 		bl	Set_Vgs_Raw
 3985              	.LVL557:
 689:main.c        **** 		
 3986              		.loc 2 689 0
 3987 0058 0122     		movs	r2, #1
 3988 005a 1146     		mov	r1, r2
ARM GAS  C:\Users\FRANKL~1\AppData\Local\Temp\ccggyhWi.s 			page 95


 3989 005c 6420     		movs	r0, #100
 3990 005e FFF7FEFF 		bl	Measure
 3991              	.LVL558:
 691:main.c        **** 			refIndex += refIncrement;
 3992              		.loc 2 691 0
 3993 0062 14B9     		cbnz	r4, .L329
 692:main.c        **** 		} else {
 3994              		.loc 2 692 0
 3995 0064 0135     		adds	r5, r5, #1
 3996              	.LVL559:
 3997 0066 EDB2     		uxtb	r5, r5
 3998              	.LVL560:
 3999 0068 01E0     		b	.L330
 4000              	.L329:
 694:main.c        **** 		}
 4001              		.loc 2 694 0
 4002 006a 0136     		adds	r6, r6, #1
 4003              	.LVL561:
 4004 006c F6B2     		uxtb	r6, r6
 4005              	.LVL562:
 4006              	.L330:
 697:main.c        **** 		while (G_Pause);
 4007              		.loc 2 697 0
 4008 006e 094B     		ldr	r3, .L335
 4009 0070 5B78     		ldrb	r3, [r3, #1]	@ zero_extendqisi2
 4010 0072 13F0FF0F 		tst	r3, #255
 4011 0076 0AD1     		bne	.L324
 4012              	.L332:
 698:main.c        **** 	}
 4013              		.loc 2 698 0 discriminator 1
 4014 0078 064B     		ldr	r3, .L335
 4015 007a DB78     		ldrb	r3, [r3, #3]	@ zero_extendqisi2
 4016 007c 13F0FF0F 		tst	r3, #255
 4017 0080 FAD1     		bne	.L332
 4018              	.L327:
 662:main.c        **** 	uint8 refTurn = 1;
 4019              		.loc 2 662 0
 4020 0082 4446     		mov	r4, r8
 4021              	.LVL563:
 4022              	.L325:
 677:main.c        **** 		gateArrived = abs(gateIndex-endGateIndex) < abs(gateIncrement);
 4023              		.loc 2 677 0
 4024 0084 002F     		cmp	r7, #0
 4025 0086 C3D0     		beq	.L333
 677:main.c        **** 		gateArrived = abs(gateIndex-endGateIndex) < abs(gateIncrement);
 4026              		.loc 2 677 0 is_stmt 0 discriminator 1
 4027 0088 B9F1000F 		cmp	r9, #0
 4028 008c C0D0     		beq	.L333
 4029              	.LVL564:
 4030              	.L324:
 4031 008e BDE8F883 		pop	{r3, r4, r5, r6, r7, r8, r9, pc}
 4032              	.LVL565:
 4033              	.L336:
 4034 0092 00BF     		.align	2
 4035              	.L335:
 4036 0094 00000000 		.word	.LANCHOR0
 4037              		.cfi_endproc
ARM GAS  C:\Users\FRANKL~1\AppData\Local\Temp\ccggyhWi.s 			page 96


 4038              	.LFE105:
 4039              		.size	Measure_Gate_Sweep_New, .-Measure_Gate_Sweep_New
 4040              		.section	.text.Scan,"ax",%progbits
 4041              		.align	2
 4042              		.global	Scan
 4043              		.thumb
 4044              		.thumb_func
 4045              		.type	Scan, %function
 4046              	Scan:
 4047              	.LFB106:
 702:main.c        **** 	for (uint8 device = 1; device <= CONTACT_COUNT/**//2; device++) {
 4048              		.loc 2 702 0 is_stmt 1
 4049              		.cfi_startproc
 4050              		@ args = 0, pretend = 0, frame = 0
 4051              		@ frame_needed = 0, uses_anonymous_args = 0
 4052              	.LVL566:
 4053 0000 2DE9F041 		push	{r4, r5, r6, r7, r8, lr}
 4054              		.cfi_def_cfa_offset 24
 4055              		.cfi_offset 4, -24
 4056              		.cfi_offset 5, -20
 4057              		.cfi_offset 6, -16
 4058              		.cfi_offset 7, -12
 4059              		.cfi_offset 8, -8
 4060              		.cfi_offset 14, -4
 4061 0004 0746     		mov	r7, r0
 4062 0006 8846     		mov	r8, r1
 4063              	.LVL567:
 4064              	.LBB57:
 703:main.c        **** 		uint8 contact1 = device;
 4065              		.loc 2 703 0
 4066 0008 0124     		movs	r4, #1
 4067 000a 37E0     		b	.L338
 4068              	.LVL568:
 4069              	.L343:
 4070              	.LBB58:
 705:main.c        **** 		uint8 intermediate1 = 1;
 4071              		.loc 2 705 0
 4072 000c 661C     		adds	r6, r4, #1
 4073 000e F6B2     		uxtb	r6, r6
 4074              	.LVL569:
 709:main.c        **** 		Zero_All_DACs();
 4075              		.loc 2 709 0
 4076 0010 FFF7FEFF 		bl	Disconnect_All_Contacts_From_All_Intermediates
 4077              	.LVL570:
 710:main.c        **** 		Connect_Intermediates();
 4078              		.loc 2 710 0
 4079 0014 FFF7FEFF 		bl	Zero_All_DACs
 4080              	.LVL571:
 711:main.c        **** 		Connect_Contact_To_Intermediate(contact1, intermediate1);
 4081              		.loc 2 711 0
 4082 0018 FFF7FEFF 		bl	Connect_Intermediates
 4083              	.LVL572:
 712:main.c        **** 		Connect_Contact_To_Intermediate(contact2, intermediate2);
 4084              		.loc 2 712 0
 4085 001c 0121     		movs	r1, #1
 4086 001e 2046     		mov	r0, r4
 4087 0020 FFF7FEFF 		bl	Connect_Contact_To_Intermediate
ARM GAS  C:\Users\FRANKL~1\AppData\Local\Temp\ccggyhWi.s 			page 97


 4088              	.LVL573:
 713:main.c        **** 		
 4089              		.loc 2 713 0
 4090 0024 0221     		movs	r1, #2
 4091 0026 3046     		mov	r0, r6
 4092 0028 FFF7FEFF 		bl	Connect_Contact_To_Intermediate
 4093              	.LVL574:
 715:main.c        **** 		USBUARTH_Send(TransmitBuffer, strlen(TransmitBuffer));
 4094              		.loc 2 715 0
 4095 002c 154D     		ldr	r5, .L345
 4096 002e 2246     		mov	r2, r4
 4097 0030 1549     		ldr	r1, .L345+4
 4098 0032 2846     		mov	r0, r5
 4099 0034 FFF7FEFF 		bl	sprintf
 4100              	.LVL575:
 716:main.c        **** 		UART_1_PutString(TransmitBuffer);
 4101              		.loc 2 716 0
 4102 0038 2846     		mov	r0, r5
 4103 003a FFF7FEFF 		bl	strlen
 4104              	.LVL576:
 4105 003e 81B2     		uxth	r1, r0
 4106 0040 2846     		mov	r0, r5
 4107 0042 FFF7FEFF 		bl	USBUARTH_Send
 4108              	.LVL577:
 717:main.c        **** 		
 4109              		.loc 2 717 0
 4110 0046 2846     		mov	r0, r5
 4111 0048 FFF7FEFF 		bl	UART_1_PutString
 4112              	.LVL578:
 719:main.c        **** 			Measure_Wide_Gate_Sweep(loop);
 4113              		.loc 2 719 0
 4114 004c 1FB1     		cbz	r7, .L339
 720:main.c        **** 		} else {
 4115              		.loc 2 720 0
 4116 004e 4046     		mov	r0, r8
 4117 0050 FFF7FEFF 		bl	Measure_Wide_Gate_Sweep
 4118              	.LVL579:
 4119 0054 02E0     		b	.L340
 4120              	.L339:
 722:main.c        **** 		}
 4121              		.loc 2 722 0
 4122 0056 4046     		mov	r0, r8
 4123 0058 FFF7FEFF 		bl	Measure_Gate_Sweep
 4124              	.LVL580:
 4125              	.L340:
 725:main.c        **** 		while (G_Pause);
 4126              		.loc 2 725 0
 4127 005c 0B4B     		ldr	r3, .L345+8
 4128 005e 9B78     		ldrb	r3, [r3, #2]	@ zero_extendqisi2
 4129 0060 13F0FF0F 		tst	r3, #255
 4130 0064 0CD1     		bne	.L337
 725:main.c        **** 		while (G_Pause);
 4131              		.loc 2 725 0 is_stmt 0 discriminator 1
 4132 0066 094B     		ldr	r3, .L345+8
 4133 0068 5B78     		ldrb	r3, [r3, #1]	@ zero_extendqisi2
 4134 006a 13F0FF0F 		tst	r3, #255
 4135 006e 07D1     		bne	.L337
ARM GAS  C:\Users\FRANKL~1\AppData\Local\Temp\ccggyhWi.s 			page 98


 4136              	.L342:
 726:main.c        **** 	}
 4137              		.loc 2 726 0 is_stmt 1 discriminator 1
 4138 0070 064B     		ldr	r3, .L345+8
 4139 0072 DB78     		ldrb	r3, [r3, #3]	@ zero_extendqisi2
 4140 0074 13F0FF0F 		tst	r3, #255
 4141 0078 FAD1     		bne	.L342
 4142              	.LBE58:
 703:main.c        **** 		uint8 contact1 = device;
 4143              		.loc 2 703 0
 4144 007a 3446     		mov	r4, r6
 4145              	.LVL581:
 4146              	.L338:
 703:main.c        **** 		uint8 contact1 = device;
 4147              		.loc 2 703 0 is_stmt 0 discriminator 1
 4148 007c 202C     		cmp	r4, #32
 4149 007e C5D9     		bls	.L343
 4150              	.L337:
 4151 0080 BDE8F081 		pop	{r4, r5, r6, r7, r8, pc}
 4152              	.LVL582:
 4153              	.L346:
 4154              		.align	2
 4155              	.L345:
 4156 0084 00000000 		.word	TransmitBuffer
 4157 0088 BC000000 		.word	.LC12
 4158 008c 00000000 		.word	.LANCHOR0
 4159              	.LBE57:
 4160              		.cfi_endproc
 4161              	.LFE106:
 4162              		.size	Scan, .-Scan
 4163              		.section	.text.Scan_Range,"ax",%progbits
 4164              		.align	2
 4165              		.global	Scan_Range
 4166              		.thumb
 4167              		.thumb_func
 4168              		.type	Scan_Range, %function
 4169              	Scan_Range:
 4170              	.LFB107:
 730:main.c        **** 	if (startDevice >= CONTACT_COUNT) return;
 4171              		.loc 2 730 0 is_stmt 1
 4172              		.cfi_startproc
 4173              		@ args = 0, pretend = 0, frame = 0
 4174              		@ frame_needed = 0, uses_anonymous_args = 0
 4175              	.LVL583:
 731:main.c        **** 	if (stopDevice >= CONTACT_COUNT) return;
 4176              		.loc 2 731 0
 4177 0000 3F28     		cmp	r0, #63
 4178 0002 47D8     		bhi	.L355
 730:main.c        **** 	if (startDevice >= CONTACT_COUNT) return;
 4179              		.loc 2 730 0
 4180 0004 2DE9F843 		push	{r3, r4, r5, r6, r7, r8, r9, lr}
 4181              		.cfi_def_cfa_offset 32
 4182              		.cfi_offset 3, -32
 4183              		.cfi_offset 4, -28
 4184              		.cfi_offset 5, -24
 4185              		.cfi_offset 6, -20
 4186              		.cfi_offset 7, -16
ARM GAS  C:\Users\FRANKL~1\AppData\Local\Temp\ccggyhWi.s 			page 99


 4187              		.cfi_offset 8, -12
 4188              		.cfi_offset 9, -8
 4189              		.cfi_offset 14, -4
 4190 0008 0446     		mov	r4, r0
 4191 000a 0F46     		mov	r7, r1
 4192 000c 9046     		mov	r8, r2
 4193 000e 9946     		mov	r9, r3
 732:main.c        **** 	
 4194              		.loc 2 732 0
 4195 0010 3F29     		cmp	r1, #63
 4196 0012 3BD9     		bls	.L349
 4197 0014 BDE8F883 		pop	{r3, r4, r5, r6, r7, r8, r9, pc}
 4198              	.LVL584:
 4199              	.L353:
 4200              	.LBB59:
 4201              	.LBB60:
 736:main.c        **** 		uint8 intermediate1 = 1;
 4202              		.loc 2 736 0
 4203 0018 661C     		adds	r6, r4, #1
 4204 001a F6B2     		uxtb	r6, r6
 4205              	.LVL585:
 740:main.c        **** 		Zero_All_DACs();
 4206              		.loc 2 740 0
 4207 001c FFF7FEFF 		bl	Disconnect_All_Contacts_From_All_Intermediates
 4208              	.LVL586:
 741:main.c        **** 		Connect_Intermediates();
 4209              		.loc 2 741 0
 4210 0020 FFF7FEFF 		bl	Zero_All_DACs
 4211              	.LVL587:
 742:main.c        **** 		Connect_Contact_To_Intermediate(contact1, intermediate1);
 4212              		.loc 2 742 0
 4213 0024 FFF7FEFF 		bl	Connect_Intermediates
 4214              	.LVL588:
 743:main.c        **** 		Connect_Contact_To_Intermediate(contact2, intermediate2);
 4215              		.loc 2 743 0
 4216 0028 0121     		movs	r1, #1
 4217 002a 2046     		mov	r0, r4
 4218 002c FFF7FEFF 		bl	Connect_Contact_To_Intermediate
 4219              	.LVL589:
 744:main.c        **** 		
 4220              		.loc 2 744 0
 4221 0030 0221     		movs	r1, #2
 4222 0032 3046     		mov	r0, r6
 4223 0034 FFF7FEFF 		bl	Connect_Contact_To_Intermediate
 4224              	.LVL590:
 746:main.c        **** 		USBUARTH_Send(TransmitBuffer, strlen(TransmitBuffer));
 4225              		.loc 2 746 0
 4226 0038 174D     		ldr	r5, .L356
 4227 003a 2246     		mov	r2, r4
 4228 003c 1749     		ldr	r1, .L356+4
 4229 003e 2846     		mov	r0, r5
 4230 0040 FFF7FEFF 		bl	sprintf
 4231              	.LVL591:
 747:main.c        **** 		UART_1_PutString(TransmitBuffer);
 4232              		.loc 2 747 0
 4233 0044 2846     		mov	r0, r5
 4234 0046 FFF7FEFF 		bl	strlen
ARM GAS  C:\Users\FRANKL~1\AppData\Local\Temp\ccggyhWi.s 			page 100


 4235              	.LVL592:
 4236 004a 81B2     		uxth	r1, r0
 4237 004c 2846     		mov	r0, r5
 4238 004e FFF7FEFF 		bl	USBUARTH_Send
 4239              	.LVL593:
 748:main.c        **** 		
 4240              		.loc 2 748 0
 4241 0052 2846     		mov	r0, r5
 4242 0054 FFF7FEFF 		bl	UART_1_PutString
 4243              	.LVL594:
 750:main.c        **** 			Measure_Wide_Gate_Sweep(loop);
 4244              		.loc 2 750 0
 4245 0058 B8F1000F 		cmp	r8, #0
 4246 005c 03D0     		beq	.L350
 751:main.c        **** 		} else {
 4247              		.loc 2 751 0
 4248 005e 4846     		mov	r0, r9
 4249 0060 FFF7FEFF 		bl	Measure_Wide_Gate_Sweep
 4250              	.LVL595:
 4251 0064 02E0     		b	.L351
 4252              	.L350:
 753:main.c        **** 		}
 4253              		.loc 2 753 0
 4254 0066 4846     		mov	r0, r9
 4255 0068 FFF7FEFF 		bl	Measure_Gate_Sweep
 4256              	.LVL596:
 4257              	.L351:
 756:main.c        **** 		while (G_Pause);
 4258              		.loc 2 756 0
 4259 006c 0C4B     		ldr	r3, .L356+8
 4260 006e 9B78     		ldrb	r3, [r3, #2]	@ zero_extendqisi2
 4261 0070 13F0FF0F 		tst	r3, #255
 4262 0074 0CD1     		bne	.L347
 756:main.c        **** 		while (G_Pause);
 4263              		.loc 2 756 0 is_stmt 0 discriminator 1
 4264 0076 0A4B     		ldr	r3, .L356+8
 4265 0078 5B78     		ldrb	r3, [r3, #1]	@ zero_extendqisi2
 4266 007a 13F0FF0F 		tst	r3, #255
 4267 007e 07D1     		bne	.L347
 4268              	.L352:
 757:main.c        **** 	}
 4269              		.loc 2 757 0 is_stmt 1 discriminator 1
 4270 0080 074B     		ldr	r3, .L356+8
 4271 0082 DB78     		ldrb	r3, [r3, #3]	@ zero_extendqisi2
 4272 0084 13F0FF0F 		tst	r3, #255
 4273 0088 FAD1     		bne	.L352
 4274              	.LBE60:
 734:main.c        **** 		uint8 contact1 = device;
 4275              		.loc 2 734 0
 4276 008a 3446     		mov	r4, r6
 4277              	.LVL597:
 4278              	.L349:
 734:main.c        **** 		uint8 contact1 = device;
 4279              		.loc 2 734 0 is_stmt 0 discriminator 1
 4280 008c BC42     		cmp	r4, r7
 4281 008e C3D9     		bls	.L353
 4282              	.L347:
ARM GAS  C:\Users\FRANKL~1\AppData\Local\Temp\ccggyhWi.s 			page 101


 4283 0090 BDE8F883 		pop	{r3, r4, r5, r6, r7, r8, r9, pc}
 4284              	.LVL598:
 4285              	.L355:
 4286              		.cfi_def_cfa_offset 0
 4287              		.cfi_restore 3
 4288              		.cfi_restore 4
 4289              		.cfi_restore 5
 4290              		.cfi_restore 6
 4291              		.cfi_restore 7
 4292              		.cfi_restore 8
 4293              		.cfi_restore 9
 4294              		.cfi_restore 14
 4295 0094 7047     		bx	lr
 4296              	.L357:
 4297 0096 00BF     		.align	2
 4298              	.L356:
 4299 0098 00000000 		.word	TransmitBuffer
 4300 009c BC000000 		.word	.LC12
 4301 00a0 00000000 		.word	.LANCHOR0
 4302              	.LBE59:
 4303              		.cfi_endproc
 4304              	.LFE107:
 4305              		.size	Scan_Range, .-Scan_Range
 4306              		.section	.text.main,"ax",%progbits
 4307              		.align	2
 4308              		.global	main
 4309              		.thumb
 4310              		.thumb_func
 4311              		.type	main, %function
 4312              	main:
 4313              	.LFB109:
 830:main.c        **** 
 831:main.c        **** int main(void) {
 4314              		.loc 2 831 0 is_stmt 1
 4315              		.cfi_startproc
 4316              		@ args = 0, pretend = 0, frame = 8
 4317              		@ frame_needed = 0, uses_anonymous_args = 0
 4318 0000 F0B5     		push	{r4, r5, r6, r7, lr}
 4319              		.cfi_def_cfa_offset 20
 4320              		.cfi_offset 4, -20
 4321              		.cfi_offset 5, -16
 4322              		.cfi_offset 6, -12
 4323              		.cfi_offset 7, -8
 4324              		.cfi_offset 14, -4
 4325 0002 83B0     		sub	sp, sp, #12
 4326              		.cfi_def_cfa_offset 32
 832:main.c        **** 	CyGlobalIntEnable;
 4327              		.loc 2 832 0
 4328              		.syntax unified
 4329              	@ 832 "main.c" 1
 4330 0004 62B6     		CPSIE   i
 4331              	@ 0 "" 2
 833:main.c        **** 	
 834:main.c        **** 	// Setup_Selectors();
 835:main.c        **** 	
 836:main.c        **** 	USBUART_Start(0u, USBUART_5V_OPERATION);
 4332              		.loc 2 836 0
ARM GAS  C:\Users\FRANKL~1\AppData\Local\Temp\ccggyhWi.s 			page 102


 4333              		.thumb
 4334              		.syntax unified
 4335 0006 0121     		movs	r1, #1
 4336 0008 0020     		movs	r0, #0
 4337 000a FFF7FEFF 		bl	USBUART_Start
 4338              	.LVL599:
 837:main.c        **** 	UART_1_Start();
 4339              		.loc 2 837 0
 4340 000e FFF7FEFF 		bl	UART_1_Start
 4341              	.LVL600:
 838:main.c        **** 	VDAC_Vds_Start();
 4342              		.loc 2 838 0
 4343 0012 FFF7FEFF 		bl	VDAC_Vds_Start
 4344              	.LVL601:
 839:main.c        **** 	VDAC_Vgs_Start();
 4345              		.loc 2 839 0
 4346 0016 FFF7FEFF 		bl	VDAC_Vgs_Start
 4347              	.LVL602:
 840:main.c        **** 	VDAC_Ref_Start();
 4348              		.loc 2 840 0
 4349 001a FFF7FEFF 		bl	VDAC_Ref_Start
 4350              	.LVL603:
 841:main.c        **** 	ADC_DelSig_1_Start();
 4351              		.loc 2 841 0
 4352 001e FFF7FEFF 		bl	ADC_DelSig_1_Start
 4353              	.LVL604:
 842:main.c        **** 	TIA_1_Start();
 4354              		.loc 2 842 0
 4355 0022 FFF7FEFF 		bl	TIA_1_Start
 4356              	.LVL605:
 843:main.c        **** 	I2C_1_Start();
 4357              		.loc 2 843 0
 4358 0026 FFF7FEFF 		bl	I2C_1_Start
 4359              	.LVL606:
 844:main.c        **** 	ADC_SAR_1_Start();
 4360              		.loc 2 844 0
 4361 002a FFF7FEFF 		bl	ADC_SAR_1_Start
 4362              	.LVL607:
 845:main.c        **** 	ADC_SAR_2_Start();
 4363              		.loc 2 845 0
 4364 002e FFF7FEFF 		bl	ADC_SAR_2_Start
 4365              	.LVL608:
 846:main.c        **** 	
 847:main.c        **** 	CyDelay(1000);
 4366              		.loc 2 847 0
 4367 0032 4FF47A70 		mov	r0, #1000
 4368 0036 FFF7FEFF 		bl	CyDelay
 4369              	.LVL609:
 848:main.c        **** 	
 849:main.c        **** 	// UART_1_PutString("\r\n# Starting\r\n");
 850:main.c        **** 	
 851:main.c        **** 	sprintf(TransmitBuffer, "\r\n# Entering Main\r\n");
 4370              		.loc 2 851 0
 4371 003a B74C     		ldr	r4, .L394
 4372 003c B74D     		ldr	r5, .L394+4
 4373 003e 0FCD     		ldmia	r5!, {r0, r1, r2, r3}
 4374 0040 2060     		str	r0, [r4]	@ unaligned
ARM GAS  C:\Users\FRANKL~1\AppData\Local\Temp\ccggyhWi.s 			page 103


 4375 0042 6160     		str	r1, [r4, #4]	@ unaligned
 4376 0044 A260     		str	r2, [r4, #8]	@ unaligned
 4377 0046 E360     		str	r3, [r4, #12]	@ unaligned
 4378 0048 2868     		ldr	r0, [r5]	@ unaligned
 4379 004a 2061     		str	r0, [r4, #16]	@ unaligned
 852:main.c        **** 	USBUARTH_Send(TransmitBuffer, strlen(TransmitBuffer));
 4380              		.loc 2 852 0
 4381 004c 2046     		mov	r0, r4
 4382 004e FFF7FEFF 		bl	strlen
 4383              	.LVL610:
 4384 0052 81B2     		uxth	r1, r0
 4385 0054 2046     		mov	r0, r4
 4386 0056 FFF7FEFF 		bl	USBUARTH_Send
 4387              	.LVL611:
 853:main.c        **** 	UART_1_PutString(TransmitBuffer);
 4388              		.loc 2 853 0
 4389 005a 2046     		mov	r0, r4
 4390 005c FFF7FEFF 		bl	UART_1_PutString
 4391              	.LVL612:
 854:main.c        **** 	
 855:main.c        **** 	// Connect_Intermediates();
 856:main.c        **** 	
 857:main.c        **** 	newData = 0;
 4392              		.loc 2 857 0
 4393 0060 0023     		movs	r3, #0
 4394 0062 AF4A     		ldr	r2, .L394+8
 4395 0064 1370     		strb	r3, [r2]
 858:main.c        **** 	UART_Rx_Position = 0;
 4396              		.loc 2 858 0
 4397 0066 AF4A     		ldr	r2, .L394+12
 4398 0068 1370     		strb	r3, [r2]
 859:main.c        **** 	USBUART_Rx_Position = 0;
 4399              		.loc 2 859 0
 4400 006a AF4A     		ldr	r2, .L394+16
 4401 006c 1370     		strb	r3, [r2]
 860:main.c        **** 	
 861:main.c        **** 	CommunicationTimer_Start();
 4402              		.loc 2 861 0
 4403 006e FFF7FEFF 		bl	CommunicationTimer_Start
 4404              	.LVL613:
 862:main.c        **** 	CommunicationInterrupt_StartEx(CommunicationHandlerISR);
 4405              		.loc 2 862 0
 4406 0072 AE48     		ldr	r0, .L394+20
 4407 0074 FFF7FEFF 		bl	CommunicationInterrupt_StartEx
 4408              	.LVL614:
 863:main.c        **** 	
 864:main.c        **** 	Current_Measurement_Sample_Count = 100;
 4409              		.loc 2 864 0
 4410 0078 6422     		movs	r2, #100
 4411 007a AD4B     		ldr	r3, .L394+24
 4412 007c 1A60     		str	r2, [r3]
 4413              	.L360:
 865:main.c        **** 	
 866:main.c        **** 	while (1) {
 867:main.c        **** 		G_Stop = 0;
 4414              		.loc 2 867 0
 4415 007e A84B     		ldr	r3, .L394+8
ARM GAS  C:\Users\FRANKL~1\AppData\Local\Temp\ccggyhWi.s 			page 104


 4416 0080 0022     		movs	r2, #0
 4417 0082 5A70     		strb	r2, [r3, #1]
 868:main.c        **** 		G_Break = 0;
 4418              		.loc 2 868 0
 4419 0084 9A70     		strb	r2, [r3, #2]
 869:main.c        **** 		
 870:main.c        **** 		if (newData) {
 4420              		.loc 2 870 0
 4421 0086 1B78     		ldrb	r3, [r3]	@ zero_extendqisi2
 4422 0088 13F0FF0F 		tst	r3, #255
 4423 008c F7D0     		beq	.L360
 4424              	.LVL615:
 4425              	.LBB61:
 871:main.c        **** 			char* ReceiveBuffer = &USBUART_Receive_Buffer[0];
 872:main.c        **** 			if (newData == 2) ReceiveBuffer = &UART_Receive_Buffer[0];
 4426              		.loc 2 872 0
 4427 008e A44B     		ldr	r3, .L394+8
 4428 0090 1B78     		ldrb	r3, [r3]	@ zero_extendqisi2
 4429 0092 DBB2     		uxtb	r3, r3
 4430 0094 022B     		cmp	r3, #2
 4431 0096 01D0     		beq	.L392
 871:main.c        **** 			char* ReceiveBuffer = &USBUART_Receive_Buffer[0];
 4432              		.loc 2 871 0
 4433 0098 A64C     		ldr	r4, .L394+28
 4434 009a 00E0     		b	.L361
 4435              	.L392:
 4436              		.loc 2 872 0
 4437 009c A64C     		ldr	r4, .L394+32
 4438              	.L361:
 4439              	.LVL616:
 873:main.c        **** 			
 874:main.c        **** 			newData = 0;
 4440              		.loc 2 874 0
 4441 009e 0022     		movs	r2, #0
 4442 00a0 9F4B     		ldr	r3, .L394+8
 4443 00a2 1A70     		strb	r2, [r3]
 875:main.c        **** 			
 876:main.c        **** 			if (strstr(ReceiveBuffer, "measure ") == &ReceiveBuffer[0]) {
 4444              		.loc 2 876 0
 4445 00a4 A549     		ldr	r1, .L394+36
 4446 00a6 2046     		mov	r0, r4
 4447 00a8 FFF7FEFF 		bl	strstr
 4448              	.LVL617:
 4449 00ac 8442     		cmp	r4, r0
 4450 00ae 05D1     		bne	.L362
 877:main.c        **** 				Measure(100, 1, 10);
 4451              		.loc 2 877 0
 4452 00b0 0A22     		movs	r2, #10
 4453 00b2 0121     		movs	r1, #1
 4454 00b4 6420     		movs	r0, #100
 4455 00b6 FFF7FEFF 		bl	Measure
 4456              	.LVL618:
 4457 00ba E0E7     		b	.L360
 4458              	.L362:
 878:main.c        **** 			} else 
 879:main.c        **** 			if (strstr(ReceiveBuffer, "measure-multiple ") == &ReceiveBuffer[0]) {
 4459              		.loc 2 879 0
ARM GAS  C:\Users\FRANKL~1\AppData\Local\Temp\ccggyhWi.s 			page 105


 4460 00bc A049     		ldr	r1, .L394+40
 4461 00be 2046     		mov	r0, r4
 4462 00c0 FFF7FEFF 		bl	strstr
 4463              	.LVL619:
 4464 00c4 8442     		cmp	r4, r0
 4465 00c6 0CD1     		bne	.L364
 4466              	.LBB62:
 880:main.c        **** 				char* location = strstr(ReceiveBuffer, " ");
 4467              		.loc 2 880 0
 4468 00c8 2021     		movs	r1, #32
 4469 00ca 2046     		mov	r0, r4
 4470 00cc FFF7FEFF 		bl	strchr
 4471              	.LVL620:
 4472 00d0 02A9     		add	r1, sp, #8
 4473 00d2 41F8040D 		str	r0, [r1, #-4]!
 881:main.c        **** 				uint32 n = strtol(location, &location, 10);
 4474              		.loc 2 881 0
 4475 00d6 0A22     		movs	r2, #10
 4476 00d8 FFF7FEFF 		bl	strtol
 4477              	.LVL621:
 882:main.c        **** 				
 883:main.c        **** 				Measure_Multiple(n);
 4478              		.loc 2 883 0
 4479 00dc FFF7FEFF 		bl	Measure_Multiple
 4480              	.LVL622:
 4481              	.LBE62:
 4482 00e0 CDE7     		b	.L360
 4483              	.L364:
 884:main.c        **** 			} else 
 885:main.c        **** 			if (strstr(ReceiveBuffer, "measure-sweep ") == &ReceiveBuffer[0]) {
 4484              		.loc 2 885 0
 4485 00e2 9849     		ldr	r1, .L394+44
 4486 00e4 2046     		mov	r0, r4
 4487 00e6 FFF7FEFF 		bl	strstr
 4488              	.LVL623:
 4489 00ea 8442     		cmp	r4, r0
 4490 00ec 02D1     		bne	.L365
 886:main.c        **** 				Measure_Sweep();
 4491              		.loc 2 886 0
 4492 00ee FFF7FEFF 		bl	Measure_Sweep
 4493              	.LVL624:
 4494 00f2 C4E7     		b	.L360
 4495              	.L365:
 887:main.c        **** 			} else 
 888:main.c        **** 			if (strstr(ReceiveBuffer, "measure-gate-sweep ") == &ReceiveBuffer[0]) {
 4496              		.loc 2 888 0
 4497 00f4 9449     		ldr	r1, .L394+48
 4498 00f6 2046     		mov	r0, r4
 4499 00f8 FFF7FEFF 		bl	strstr
 4500              	.LVL625:
 4501 00fc 8442     		cmp	r4, r0
 4502 00fe 03D1     		bne	.L366
 889:main.c        **** 				Measure_Gate_Sweep(0);
 4503              		.loc 2 889 0
 4504 0100 0020     		movs	r0, #0
 4505 0102 FFF7FEFF 		bl	Measure_Gate_Sweep
 4506              	.LVL626:
ARM GAS  C:\Users\FRANKL~1\AppData\Local\Temp\ccggyhWi.s 			page 106


 4507 0106 BAE7     		b	.L360
 4508              	.L366:
 890:main.c        **** 			} else 
 891:main.c        **** 			if (strstr(ReceiveBuffer, "measure-gate-sweep-loop ") == &ReceiveBuffer[0]) {
 4509              		.loc 2 891 0
 4510 0108 9049     		ldr	r1, .L394+52
 4511 010a 2046     		mov	r0, r4
 4512 010c FFF7FEFF 		bl	strstr
 4513              	.LVL627:
 4514 0110 8442     		cmp	r4, r0
 4515 0112 03D1     		bne	.L367
 892:main.c        **** 				Measure_Gate_Sweep(1);
 4516              		.loc 2 892 0
 4517 0114 0120     		movs	r0, #1
 4518 0116 FFF7FEFF 		bl	Measure_Gate_Sweep
 4519              	.LVL628:
 4520 011a B0E7     		b	.L360
 4521              	.L367:
 893:main.c        **** 			} else 
 894:main.c        **** 			if (strstr(ReceiveBuffer, "set-vgs-raw ") == &ReceiveBuffer[0]) {
 4522              		.loc 2 894 0
 4523 011c 8C49     		ldr	r1, .L394+56
 4524 011e 2046     		mov	r0, r4
 4525 0120 FFF7FEFF 		bl	strstr
 4526              	.LVL629:
 4527 0124 8442     		cmp	r4, r0
 4528 0126 0DD1     		bne	.L368
 4529              	.LBB63:
 895:main.c        **** 				char* location = strstr(ReceiveBuffer, " ");
 4530              		.loc 2 895 0 discriminator 2
 4531 0128 2021     		movs	r1, #32
 4532 012a 2046     		mov	r0, r4
 4533 012c FFF7FEFF 		bl	strchr
 4534              	.LVL630:
 4535 0130 02A9     		add	r1, sp, #8
 4536 0132 41F8040D 		str	r0, [r1, #-4]!
 896:main.c        **** 				uint8 vgsi = strtol(location, &location, 10);
 4537              		.loc 2 896 0 discriminator 2
 4538 0136 0A22     		movs	r2, #10
 4539 0138 FFF7FEFF 		bl	strtol
 4540              	.LVL631:
 897:main.c        **** 				
 898:main.c        **** 				Set_Vgs_Raw(vgsi);
 4541              		.loc 2 898 0 discriminator 2
 4542 013c C0B2     		uxtb	r0, r0
 4543 013e FFF7FEFF 		bl	Set_Vgs_Raw
 4544              	.LVL632:
 4545              	.LBE63:
 4546 0142 9CE7     		b	.L360
 4547              	.L368:
 899:main.c        **** 			} else 
 900:main.c        **** 			if (strstr(ReceiveBuffer, "set-vds-raw ") == &ReceiveBuffer[0]) {
 4548              		.loc 2 900 0
 4549 0144 8349     		ldr	r1, .L394+60
 4550 0146 2046     		mov	r0, r4
 4551 0148 FFF7FEFF 		bl	strstr
 4552              	.LVL633:
ARM GAS  C:\Users\FRANKL~1\AppData\Local\Temp\ccggyhWi.s 			page 107


 4553 014c 8442     		cmp	r4, r0
 4554 014e 0DD1     		bne	.L369
 4555              	.LBB64:
 901:main.c        **** 				char* location = strstr(ReceiveBuffer, " ");
 4556              		.loc 2 901 0 discriminator 3
 4557 0150 2021     		movs	r1, #32
 4558 0152 2046     		mov	r0, r4
 4559 0154 FFF7FEFF 		bl	strchr
 4560              	.LVL634:
 4561 0158 02A9     		add	r1, sp, #8
 4562 015a 41F8040D 		str	r0, [r1, #-4]!
 902:main.c        **** 				uint8 vdsi = strtol(location, &location, 10);
 4563              		.loc 2 902 0 discriminator 3
 4564 015e 0A22     		movs	r2, #10
 4565 0160 FFF7FEFF 		bl	strtol
 4566              	.LVL635:
 903:main.c        **** 				
 904:main.c        **** 				Set_Vds_Raw(vdsi);
 4567              		.loc 2 904 0 discriminator 3
 4568 0164 C0B2     		uxtb	r0, r0
 4569 0166 FFF7FEFF 		bl	Set_Vds_Raw
 4570              	.LVL636:
 4571              	.LBE64:
 4572 016a 88E7     		b	.L360
 4573              	.L369:
 905:main.c        **** 			} else 
 906:main.c        **** 			if (strstr(ReceiveBuffer, "set-vgs-rel ") == &ReceiveBuffer[0]) {
 4574              		.loc 2 906 0
 4575 016c 7A49     		ldr	r1, .L394+64
 4576 016e 2046     		mov	r0, r4
 4577 0170 FFF7FEFF 		bl	strstr
 4578              	.LVL637:
 4579 0174 8442     		cmp	r4, r0
 4580 0176 0DD1     		bne	.L370
 4581              	.LBB65:
 907:main.c        **** 				char* location = strstr(ReceiveBuffer, " ");
 4582              		.loc 2 907 0 discriminator 4
 4583 0178 2021     		movs	r1, #32
 4584 017a 2046     		mov	r0, r4
 4585 017c FFF7FEFF 		bl	strchr
 4586              	.LVL638:
 4587 0180 02A9     		add	r1, sp, #8
 4588 0182 41F8040D 		str	r0, [r1, #-4]!
 908:main.c        **** 				int8 vgsi = strtol(location, &location, 10);
 4589              		.loc 2 908 0 discriminator 4
 4590 0186 0A22     		movs	r2, #10
 4591 0188 FFF7FEFF 		bl	strtol
 4592              	.LVL639:
 909:main.c        **** 				
 910:main.c        **** 				Set_Vgs_Rel(vgsi);
 4593              		.loc 2 910 0 discriminator 4
 4594 018c 40B2     		sxtb	r0, r0
 4595 018e FFF7FEFF 		bl	Set_Vgs_Rel
 4596              	.LVL640:
 4597              	.LBE65:
 4598 0192 74E7     		b	.L360
 4599              	.L370:
ARM GAS  C:\Users\FRANKL~1\AppData\Local\Temp\ccggyhWi.s 			page 108


 911:main.c        **** 			} else 
 912:main.c        **** 			if (strstr(ReceiveBuffer, "set-vds-rel ") == &ReceiveBuffer[0]) {
 4600              		.loc 2 912 0
 4601 0194 7149     		ldr	r1, .L394+68
 4602 0196 2046     		mov	r0, r4
 4603 0198 FFF7FEFF 		bl	strstr
 4604              	.LVL641:
 4605 019c 8442     		cmp	r4, r0
 4606 019e 0DD1     		bne	.L371
 4607              	.LBB66:
 913:main.c        **** 				char* location = strstr(ReceiveBuffer, " ");
 4608              		.loc 2 913 0 discriminator 5
 4609 01a0 2021     		movs	r1, #32
 4610 01a2 2046     		mov	r0, r4
 4611 01a4 FFF7FEFF 		bl	strchr
 4612              	.LVL642:
 4613 01a8 02A9     		add	r1, sp, #8
 4614 01aa 41F8040D 		str	r0, [r1, #-4]!
 914:main.c        **** 				int8 vdsi = strtol(location, &location, 10);
 4615              		.loc 2 914 0 discriminator 5
 4616 01ae 0A22     		movs	r2, #10
 4617 01b0 FFF7FEFF 		bl	strtol
 4618              	.LVL643:
 915:main.c        **** 				
 916:main.c        **** 				Set_Vds_Rel(vdsi);
 4619              		.loc 2 916 0 discriminator 5
 4620 01b4 40B2     		sxtb	r0, r0
 4621 01b6 FFF7FEFF 		bl	Set_Vds_Rel
 4622              	.LVL644:
 4623              	.LBE66:
 4624 01ba 60E7     		b	.L360
