ARM GAS  C:\Users\IEUser\AppData\Local\Temp\ccHKX4yg.s 			page 1


   1              		.syntax unified
   2              		.cpu cortex-m0
   3              		.fpu softvfp
   4              		.eabi_attribute 20, 1
   5              		.eabi_attribute 21, 1
   6              		.eabi_attribute 23, 3
   7              		.eabi_attribute 24, 1
   8              		.eabi_attribute 25, 1
   9              		.eabi_attribute 26, 1
  10              		.eabi_attribute 30, 1
  11              		.eabi_attribute 34, 0
  12              		.eabi_attribute 18, 4
  13              		.thumb
  14              		.syntax unified
  15              		.file	"main.c"
  16              		.text
  17              	.Ltext0:
  18              		.cfi_sections	.debug_frame
  19              		.section	.text.main,"ax",%progbits
  20              		.align	2
  21              		.global	main
  22              		.code	16
  23              		.thumb_func
  24              		.type	main, %function
  25              	main:
  26              	.LFB34:
  27              		.file 1 "main.c"
   1:main.c        **** #include "project.h"
   2:main.c        **** 
   3:main.c        **** #define SELECTOR_ID (0)
   4:main.c        **** 
   5:main.c        **** #define SELECTOR_COUNT (4u)
   6:main.c        **** #define INTERMEDIATE_COUNT (4u)
   7:main.c        **** #define CONTACT_COUNT (64u)
   8:main.c        **** #define CONTACT_CONNECT_CODE (0xC0u)
   9:main.c        **** #define CONTACT_DISCONNECT_CODE (0xD1u)
  10:main.c        **** 
  11:main.c        **** struct Selector_I2C_Struct {
  12:main.c        **** 	struct {
  13:main.c        **** 		uint8 subAddress;
  14:main.c        **** 		uint8 data[126];
  15:main.c        **** 	} write;
  16:main.c        **** 	struct {
  17:main.c        **** 		uint8 subAddress;
  18:main.c        **** 		uint8 data[126];
  19:main.c        **** 	} read;
  20:main.c        **** 	uint8 busAddress;
  21:main.c        **** };
  22:main.c        **** 
  23:main.c        **** int main(void) {
  28              		.loc 1 23 0
  29              		.cfi_startproc
  30              		@ args = 0, pretend = 0, frame = 256
  31              		@ frame_needed = 0, uses_anonymous_args = 0
  32 0000 30B5     		push	{r4, r5, lr}
  33              		.cfi_def_cfa_offset 12
  34              		.cfi_offset 4, -12
ARM GAS  C:\Users\IEUser\AppData\Local\Temp\ccHKX4yg.s 			page 2


  35              		.cfi_offset 5, -8
  36              		.cfi_offset 14, -4
  37 0002 C1B0     		sub	sp, sp, #260
  38              		.cfi_def_cfa_offset 272
  24:main.c        **** 	CyGlobalIntEnable;
  39              		.loc 1 24 0
  40              		.syntax divided
  41              	@ 24 "main.c" 1
  42 0004 62B6     		CPSIE   i
  43              	@ 0 "" 2
  25:main.c        **** 	
  26:main.c        **** 	struct Selector_I2C_Struct selector;
  27:main.c        **** 	uint8 I2C_Bus_Addresses[SELECTOR_COUNT] = {0x66, 0x11, 0x44, 0x22};
  28:main.c        **** 	
  29:main.c        **** 	EZI2C_1_Start();
  44              		.loc 1 29 0
  45              		.thumb
  46              		.syntax unified
  47 0006 FFF7FEFF 		bl	EZI2C_1_Start
  48              	.LVL0:
  30:main.c        **** 	EZI2C_1_EzI2CSetAddress1(I2C_Bus_Addresses[SELECTOR_ID]);
  49              		.loc 1 30 0
  50 000a 6620     		movs	r0, #102
  51 000c FFF7FEFF 		bl	EZI2C_1_EzI2CSetAddress1
  52              	.LVL1:
  31:main.c        **** 	EZI2C_1_EzI2CSetBuffer1(sizeof(selector), sizeof(selector), (uint8*) &selector);
  53              		.loc 1 31 0
  54 0010 6A46     		mov	r2, sp
  55 0012 FF21     		movs	r1, #255
  56 0014 FF20     		movs	r0, #255
  57 0016 FFF7FEFF 		bl	EZI2C_1_EzI2CSetBuffer1
  58              	.LVL2:
  59              	.L6:
  60              	.LBB2:
  32:main.c        **** 	
  33:main.c        **** 	while(1) {
  34:main.c        **** 		for (uint8 i = 0; i < sizeof(selector.write.data); i++) {
  61              		.loc 1 34 0
  62 001a 0024     		movs	r4, #0
  63 001c 13E0     		b	.L2
  64              	.LVL3:
  65              	.L5:
  35:main.c        **** 			if (i < AMux_1_CHANNELS) {
  66              		.loc 1 35 0
  67 001e 212C     		cmp	r4, #33
  68 0020 0FD8     		bhi	.L3
  36:main.c        **** 				if (selector.write.data[i] == CONTACT_CONNECT_CODE) {
  69              		.loc 1 36 0
  70 0022 2500     		movs	r5, r4
  71 0024 2300     		movs	r3, r4
  72 0026 6B44     		add	r3, r3, sp
  73 0028 5B78     		ldrb	r3, [r3, #1]
  74 002a C02B     		cmp	r3, #192
  75 002c 02D1     		bne	.L4
  37:main.c        **** 					AMux_1_Connect(i);
  76              		.loc 1 37 0
  77 002e 2000     		movs	r0, r4
ARM GAS  C:\Users\IEUser\AppData\Local\Temp\ccHKX4yg.s 			page 3


  78 0030 FFF7FEFF 		bl	AMux_1_Set
  79              	.LVL4:
  80              	.L4:
  38:main.c        **** 				}
  39:main.c        **** 				
  40:main.c        **** 				if (selector.write.data[i] == CONTACT_DISCONNECT_CODE) {
  81              		.loc 1 40 0
  82 0034 6D44     		add	r5, r5, sp
  83 0036 6B78     		ldrb	r3, [r5, #1]
  84 0038 D12B     		cmp	r3, #209
  85 003a 02D1     		bne	.L3
  41:main.c        **** 					AMux_1_Disconnect(i);
  86              		.loc 1 41 0
  87 003c 2000     		movs	r0, r4
  88 003e FFF7FEFF 		bl	AMux_1_Unset
  89              	.LVL5:
  90              	.L3:
  34:main.c        **** 			if (i < AMux_1_CHANNELS) {
  91              		.loc 1 34 0 discriminator 2
  92 0042 0134     		adds	r4, r4, #1
  93              	.LVL6:
  94 0044 E4B2     		uxtb	r4, r4
  95              	.LVL7:
  96              	.L2:
  34:main.c        **** 			if (i < AMux_1_CHANNELS) {
  97              		.loc 1 34 0 is_stmt 0 discriminator 1
  98 0046 7D2C     		cmp	r4, #125
  99 0048 E9D9     		bls	.L5
 100 004a E6E7     		b	.L6
 101              	.LBE2:
 102              		.cfi_endproc
 103              	.LFE34:
 104              		.size	main, .-main
 105              		.text
 106              	.Letext0:
 107              		.file 2 "Generated_Source\\PSoC4/cyfitter_cfg.h"
 108              		.file 3 "Generated_Source\\PSoC4/EZI2C_1.h"
 109              		.file 4 "Generated_Source\\PSoC4/EZI2C_1_EZI2C.h"
 110              		.file 5 "Generated_Source\\PSoC4/cytypes.h"