ARM GAS  C:\Users\FRANKL~1\AppData\Local\Temp\ccrxa7r6.s 			page 1


   1              		.syntax unified
   2              		.cpu cortex-m3
   3              		.fpu softvfp
   4              		.eabi_attribute 20, 1
   5              		.eabi_attribute 21, 1
   6              		.eabi_attribute 23, 3
   7              		.eabi_attribute 24, 1
   8              		.eabi_attribute 25, 1
   9              		.eabi_attribute 26, 1
  10              		.eabi_attribute 30, 1
  11              		.eabi_attribute 34, 1
  12              		.eabi_attribute 18, 4
  13              		.thumb
  14              		.syntax unified
  15              		.file	"ADC_SAR_2.c"
  16              		.text
  17              	.Ltext0:
  18              		.cfi_sections	.debug_frame
  19              		.section	.text.ADC_SAR_2_CalcGain,"ax",%progbits
  20              		.align	2
  21              		.thumb
  22              		.thumb_func
  23              		.type	ADC_SAR_2_CalcGain, %function
  24              	ADC_SAR_2_CalcGain:
  25              	.LFB12:
  26              		.file 1 "Generated_Source\\PSoC5\\ADC_SAR_2.c"
   1:Generated_Source\PSoC5/ADC_SAR_2.c **** /*******************************************************************************
   2:Generated_Source\PSoC5/ADC_SAR_2.c **** * File Name: ADC_SAR_2.c
   3:Generated_Source\PSoC5/ADC_SAR_2.c **** * Version 3.10
   4:Generated_Source\PSoC5/ADC_SAR_2.c **** *
   5:Generated_Source\PSoC5/ADC_SAR_2.c **** * Description:
   6:Generated_Source\PSoC5/ADC_SAR_2.c **** *  This file provides the source code to the API for the Successive
   7:Generated_Source\PSoC5/ADC_SAR_2.c **** *  approximation ADC Component.
   8:Generated_Source\PSoC5/ADC_SAR_2.c **** *
   9:Generated_Source\PSoC5/ADC_SAR_2.c **** * Note:
  10:Generated_Source\PSoC5/ADC_SAR_2.c **** *
  11:Generated_Source\PSoC5/ADC_SAR_2.c **** ********************************************************************************
  12:Generated_Source\PSoC5/ADC_SAR_2.c **** * Copyright 2008-2015, Cypress Semiconductor Corporation.  All rights reserved.
  13:Generated_Source\PSoC5/ADC_SAR_2.c **** * You may use this file only in accordance with the license, terms, conditions,
  14:Generated_Source\PSoC5/ADC_SAR_2.c **** * disclaimers, and limitations in the end user license agreement accompanying
  15:Generated_Source\PSoC5/ADC_SAR_2.c **** * the software package with which this file was provided.
  16:Generated_Source\PSoC5/ADC_SAR_2.c **** *******************************************************************************/
  17:Generated_Source\PSoC5/ADC_SAR_2.c **** 
  18:Generated_Source\PSoC5/ADC_SAR_2.c **** #include "CyLib.h"
  19:Generated_Source\PSoC5/ADC_SAR_2.c **** #include "ADC_SAR_2.h"
  20:Generated_Source\PSoC5/ADC_SAR_2.c **** 
  21:Generated_Source\PSoC5/ADC_SAR_2.c **** #if(ADC_SAR_2_DEFAULT_INTERNAL_CLK)
  22:Generated_Source\PSoC5/ADC_SAR_2.c ****     #include "ADC_SAR_2_theACLK.h"
  23:Generated_Source\PSoC5/ADC_SAR_2.c **** #endif /* End ADC_SAR_2_DEFAULT_INTERNAL_CLK */
  24:Generated_Source\PSoC5/ADC_SAR_2.c **** 
  25:Generated_Source\PSoC5/ADC_SAR_2.c **** 
  26:Generated_Source\PSoC5/ADC_SAR_2.c **** /***************************************
  27:Generated_Source\PSoC5/ADC_SAR_2.c **** * Forward function references
  28:Generated_Source\PSoC5/ADC_SAR_2.c **** ***************************************/
  29:Generated_Source\PSoC5/ADC_SAR_2.c **** static void ADC_SAR_2_CalcGain(uint8 resolution);
  30:Generated_Source\PSoC5/ADC_SAR_2.c **** 
  31:Generated_Source\PSoC5/ADC_SAR_2.c **** 
ARM GAS  C:\Users\FRANKL~1\AppData\Local\Temp\ccrxa7r6.s 			page 2


  32:Generated_Source\PSoC5/ADC_SAR_2.c **** /***************************************
  33:Generated_Source\PSoC5/ADC_SAR_2.c **** * Global data allocation
  34:Generated_Source\PSoC5/ADC_SAR_2.c **** ***************************************/
  35:Generated_Source\PSoC5/ADC_SAR_2.c **** uint8 ADC_SAR_2_initVar = 0u;
  36:Generated_Source\PSoC5/ADC_SAR_2.c **** volatile int16 ADC_SAR_2_offset;
  37:Generated_Source\PSoC5/ADC_SAR_2.c **** volatile int16 ADC_SAR_2_countsPerVolt;     /* Obsolete Gain compensation */
  38:Generated_Source\PSoC5/ADC_SAR_2.c **** volatile int32 ADC_SAR_2_countsPer10Volt;   /* Gain compensation */
  39:Generated_Source\PSoC5/ADC_SAR_2.c **** volatile int16 ADC_SAR_2_shift;
  40:Generated_Source\PSoC5/ADC_SAR_2.c **** 
  41:Generated_Source\PSoC5/ADC_SAR_2.c **** 
  42:Generated_Source\PSoC5/ADC_SAR_2.c **** /*******************************************************************************
  43:Generated_Source\PSoC5/ADC_SAR_2.c **** * Function Name: ADC_SAR_2_Start
  44:Generated_Source\PSoC5/ADC_SAR_2.c **** ********************************************************************************
  45:Generated_Source\PSoC5/ADC_SAR_2.c **** *
  46:Generated_Source\PSoC5/ADC_SAR_2.c **** * Summary:
  47:Generated_Source\PSoC5/ADC_SAR_2.c **** *  This is the preferred method to begin component operation.
  48:Generated_Source\PSoC5/ADC_SAR_2.c **** *  ADC_SAR_2_Start() sets the initVar variable, calls the
  49:Generated_Source\PSoC5/ADC_SAR_2.c **** *  ADC_SAR_2_Init() function, and then calls the
  50:Generated_Source\PSoC5/ADC_SAR_2.c **** *  ADC_SAR_2_Enable() function.
  51:Generated_Source\PSoC5/ADC_SAR_2.c **** *
  52:Generated_Source\PSoC5/ADC_SAR_2.c **** * Parameters:
  53:Generated_Source\PSoC5/ADC_SAR_2.c **** *  None.
  54:Generated_Source\PSoC5/ADC_SAR_2.c **** *
  55:Generated_Source\PSoC5/ADC_SAR_2.c **** * Return:
  56:Generated_Source\PSoC5/ADC_SAR_2.c **** *  None.
  57:Generated_Source\PSoC5/ADC_SAR_2.c **** *
  58:Generated_Source\PSoC5/ADC_SAR_2.c **** * Global variables:
  59:Generated_Source\PSoC5/ADC_SAR_2.c **** *  The ADC_SAR_2_initVar variable is used to indicate when/if initial
  60:Generated_Source\PSoC5/ADC_SAR_2.c **** *  configuration of this component has happened. The variable is initialized to
  61:Generated_Source\PSoC5/ADC_SAR_2.c **** *  zero and set to 1 the first time ADC_Start() is called. This allows for
  62:Generated_Source\PSoC5/ADC_SAR_2.c **** *  component Re-Start without re-initialization in all subsequent calls to the
  63:Generated_Source\PSoC5/ADC_SAR_2.c **** *  ADC_SAR_2_Start() routine.
  64:Generated_Source\PSoC5/ADC_SAR_2.c **** *  If re-initialization of the component is required the variable should be set
  65:Generated_Source\PSoC5/ADC_SAR_2.c **** *  to zero before call of ADC_SAR_2_Start() routine, or the user may call
  66:Generated_Source\PSoC5/ADC_SAR_2.c **** *  ADC_SAR_2_Init() and ADC_SAR_2_Enable() as done in the
  67:Generated_Source\PSoC5/ADC_SAR_2.c **** *  ADC_SAR_2_Start() routine.
  68:Generated_Source\PSoC5/ADC_SAR_2.c **** *
  69:Generated_Source\PSoC5/ADC_SAR_2.c **** * Side Effect:
  70:Generated_Source\PSoC5/ADC_SAR_2.c **** *  If the initVar variable is already set, this function only calls the
  71:Generated_Source\PSoC5/ADC_SAR_2.c **** *  ADC_SAR_2_Enable() function.
  72:Generated_Source\PSoC5/ADC_SAR_2.c **** *
  73:Generated_Source\PSoC5/ADC_SAR_2.c **** *******************************************************************************/
  74:Generated_Source\PSoC5/ADC_SAR_2.c **** void ADC_SAR_2_Start(void)
  75:Generated_Source\PSoC5/ADC_SAR_2.c **** {
  76:Generated_Source\PSoC5/ADC_SAR_2.c **** 
  77:Generated_Source\PSoC5/ADC_SAR_2.c ****     /* If not Initialized then initialize all required hardware and software */
  78:Generated_Source\PSoC5/ADC_SAR_2.c ****     if(ADC_SAR_2_initVar == 0u)
  79:Generated_Source\PSoC5/ADC_SAR_2.c ****     {
  80:Generated_Source\PSoC5/ADC_SAR_2.c ****         ADC_SAR_2_Init();
  81:Generated_Source\PSoC5/ADC_SAR_2.c ****         ADC_SAR_2_initVar = 1u;
  82:Generated_Source\PSoC5/ADC_SAR_2.c ****     }
  83:Generated_Source\PSoC5/ADC_SAR_2.c ****     ADC_SAR_2_Enable();
  84:Generated_Source\PSoC5/ADC_SAR_2.c **** }
  85:Generated_Source\PSoC5/ADC_SAR_2.c **** 
  86:Generated_Source\PSoC5/ADC_SAR_2.c **** 
  87:Generated_Source\PSoC5/ADC_SAR_2.c **** /*******************************************************************************
  88:Generated_Source\PSoC5/ADC_SAR_2.c **** * Function Name: ADC_SAR_2_Init
ARM GAS  C:\Users\FRANKL~1\AppData\Local\Temp\ccrxa7r6.s 			page 3


  89:Generated_Source\PSoC5/ADC_SAR_2.c **** ********************************************************************************
  90:Generated_Source\PSoC5/ADC_SAR_2.c **** *
  91:Generated_Source\PSoC5/ADC_SAR_2.c **** * Summary:
  92:Generated_Source\PSoC5/ADC_SAR_2.c **** *  Initialize component's parameters to the parameters set by user in the
  93:Generated_Source\PSoC5/ADC_SAR_2.c **** *  customizer of the component placed onto schematic. Usually called in
  94:Generated_Source\PSoC5/ADC_SAR_2.c **** *  ADC_SAR_2_Start().
  95:Generated_Source\PSoC5/ADC_SAR_2.c **** *
  96:Generated_Source\PSoC5/ADC_SAR_2.c **** * Parameters:
  97:Generated_Source\PSoC5/ADC_SAR_2.c **** *  None.
  98:Generated_Source\PSoC5/ADC_SAR_2.c **** *
  99:Generated_Source\PSoC5/ADC_SAR_2.c **** * Return:
 100:Generated_Source\PSoC5/ADC_SAR_2.c **** *  None.
 101:Generated_Source\PSoC5/ADC_SAR_2.c **** *
 102:Generated_Source\PSoC5/ADC_SAR_2.c **** * Global variables:
 103:Generated_Source\PSoC5/ADC_SAR_2.c **** *  The ADC_SAR_2_offset variable is initialized to 0.
 104:Generated_Source\PSoC5/ADC_SAR_2.c **** *
 105:Generated_Source\PSoC5/ADC_SAR_2.c **** *******************************************************************************/
 106:Generated_Source\PSoC5/ADC_SAR_2.c **** void ADC_SAR_2_Init(void)
 107:Generated_Source\PSoC5/ADC_SAR_2.c **** {
 108:Generated_Source\PSoC5/ADC_SAR_2.c **** 
 109:Generated_Source\PSoC5/ADC_SAR_2.c ****     /* This is only valid if there is an internal clock */
 110:Generated_Source\PSoC5/ADC_SAR_2.c ****     #if(ADC_SAR_2_DEFAULT_INTERNAL_CLK)
 111:Generated_Source\PSoC5/ADC_SAR_2.c ****         ADC_SAR_2_theACLK_SetMode(CYCLK_DUTY);
 112:Generated_Source\PSoC5/ADC_SAR_2.c ****     #endif /* End ADC_SAR_2_DEFAULT_INTERNAL_CLK */
 113:Generated_Source\PSoC5/ADC_SAR_2.c **** 
 114:Generated_Source\PSoC5/ADC_SAR_2.c ****     #if(ADC_SAR_2_IRQ_REMOVE == 0u)
 115:Generated_Source\PSoC5/ADC_SAR_2.c ****         /* Start and set interrupt vector */
 116:Generated_Source\PSoC5/ADC_SAR_2.c ****         CyIntSetPriority(ADC_SAR_2_INTC_NUMBER, ADC_SAR_2_INTC_PRIOR_NUMBER);
 117:Generated_Source\PSoC5/ADC_SAR_2.c ****         (void)CyIntSetVector(ADC_SAR_2_INTC_NUMBER, &ADC_SAR_2_ISR);
 118:Generated_Source\PSoC5/ADC_SAR_2.c ****     #endif   /* End ADC_SAR_2_IRQ_REMOVE */
 119:Generated_Source\PSoC5/ADC_SAR_2.c **** 
 120:Generated_Source\PSoC5/ADC_SAR_2.c ****     /* Enable IRQ mode*/
 121:Generated_Source\PSoC5/ADC_SAR_2.c ****     ADC_SAR_2_SAR_CSR1_REG |= ADC_SAR_2_SAR_IRQ_MASK_EN | ADC_SAR_2_SAR_IRQ_MODE_EDGE;
 122:Generated_Source\PSoC5/ADC_SAR_2.c **** 
 123:Generated_Source\PSoC5/ADC_SAR_2.c ****     /*Set SAR ADC resolution ADC */
 124:Generated_Source\PSoC5/ADC_SAR_2.c ****     ADC_SAR_2_SetResolution(ADC_SAR_2_DEFAULT_RESOLUTION);
 125:Generated_Source\PSoC5/ADC_SAR_2.c ****     ADC_SAR_2_offset = 0;
 126:Generated_Source\PSoC5/ADC_SAR_2.c **** }
 127:Generated_Source\PSoC5/ADC_SAR_2.c **** 
 128:Generated_Source\PSoC5/ADC_SAR_2.c **** 
 129:Generated_Source\PSoC5/ADC_SAR_2.c **** /*******************************************************************************
 130:Generated_Source\PSoC5/ADC_SAR_2.c **** * Function Name: ADC_SAR_2_Enable
 131:Generated_Source\PSoC5/ADC_SAR_2.c **** ********************************************************************************
 132:Generated_Source\PSoC5/ADC_SAR_2.c **** *
 133:Generated_Source\PSoC5/ADC_SAR_2.c **** * Summary:
 134:Generated_Source\PSoC5/ADC_SAR_2.c **** *  Enables the reference, clock and power for SAR ADC.
 135:Generated_Source\PSoC5/ADC_SAR_2.c **** *
 136:Generated_Source\PSoC5/ADC_SAR_2.c **** * Parameters:
 137:Generated_Source\PSoC5/ADC_SAR_2.c **** *  None.
 138:Generated_Source\PSoC5/ADC_SAR_2.c **** *
 139:Generated_Source\PSoC5/ADC_SAR_2.c **** * Return:
 140:Generated_Source\PSoC5/ADC_SAR_2.c **** *  None.
 141:Generated_Source\PSoC5/ADC_SAR_2.c **** *
 142:Generated_Source\PSoC5/ADC_SAR_2.c **** *******************************************************************************/
 143:Generated_Source\PSoC5/ADC_SAR_2.c **** void ADC_SAR_2_Enable(void)
 144:Generated_Source\PSoC5/ADC_SAR_2.c **** {
 145:Generated_Source\PSoC5/ADC_SAR_2.c ****     uint8 tmpReg;
ARM GAS  C:\Users\FRANKL~1\AppData\Local\Temp\ccrxa7r6.s 			page 4


 146:Generated_Source\PSoC5/ADC_SAR_2.c ****     uint8 enableInterrupts;
 147:Generated_Source\PSoC5/ADC_SAR_2.c ****     enableInterrupts = CyEnterCriticalSection();
 148:Generated_Source\PSoC5/ADC_SAR_2.c **** 
 149:Generated_Source\PSoC5/ADC_SAR_2.c ****     /* Enable the SAR ADC block in Active Power Mode */
 150:Generated_Source\PSoC5/ADC_SAR_2.c ****     ADC_SAR_2_PWRMGR_SAR_REG |= ADC_SAR_2_ACT_PWR_SAR_EN;
 151:Generated_Source\PSoC5/ADC_SAR_2.c **** 
 152:Generated_Source\PSoC5/ADC_SAR_2.c ****      /* Enable the SAR ADC in Standby Power Mode*/
 153:Generated_Source\PSoC5/ADC_SAR_2.c ****     ADC_SAR_2_STBY_PWRMGR_SAR_REG |= ADC_SAR_2_STBY_PWR_SAR_EN;
 154:Generated_Source\PSoC5/ADC_SAR_2.c **** 
 155:Generated_Source\PSoC5/ADC_SAR_2.c ****     /* This is only valid if there is an internal clock */
 156:Generated_Source\PSoC5/ADC_SAR_2.c ****     #if(ADC_SAR_2_DEFAULT_INTERNAL_CLK)
 157:Generated_Source\PSoC5/ADC_SAR_2.c ****         ADC_SAR_2_PWRMGR_CLK_REG |= ADC_SAR_2_ACT_PWR_CLK_EN;
 158:Generated_Source\PSoC5/ADC_SAR_2.c ****         ADC_SAR_2_STBY_PWRMGR_CLK_REG |= ADC_SAR_2_STBY_PWR_CLK_EN;
 159:Generated_Source\PSoC5/ADC_SAR_2.c ****     #endif /* End ADC_SAR_2_DEFAULT_INTERNAL_CLK */
 160:Generated_Source\PSoC5/ADC_SAR_2.c **** 
 161:Generated_Source\PSoC5/ADC_SAR_2.c ****     /* Enable VCM buffer and Enable Int Ref Amp */
 162:Generated_Source\PSoC5/ADC_SAR_2.c ****     tmpReg = ADC_SAR_2_SAR_CSR3_REG;
 163:Generated_Source\PSoC5/ADC_SAR_2.c ****     tmpReg |= ADC_SAR_2_SAR_EN_BUF_VCM_EN;
 164:Generated_Source\PSoC5/ADC_SAR_2.c ****     /* PD_BUF_VREF is OFF in External reference or Vdda reference mode */
 165:Generated_Source\PSoC5/ADC_SAR_2.c ****     #if((ADC_SAR_2_DEFAULT_REFERENCE == ADC_SAR_2__EXT_REF) || \
 166:Generated_Source\PSoC5/ADC_SAR_2.c ****         (ADC_SAR_2_DEFAULT_RANGE == ADC_SAR_2__VNEG_VDDA_DIFF))
 167:Generated_Source\PSoC5/ADC_SAR_2.c ****         tmpReg &= (uint8)~ADC_SAR_2_SAR_EN_BUF_VREF_EN;
 168:Generated_Source\PSoC5/ADC_SAR_2.c ****     #else /* In INTREF or INTREF Bypassed this buffer is ON */
 169:Generated_Source\PSoC5/ADC_SAR_2.c ****         tmpReg |= ADC_SAR_2_SAR_EN_BUF_VREF_EN;
 170:Generated_Source\PSoC5/ADC_SAR_2.c ****     #endif /* ADC_SAR_2_DEFAULT_REFERENCE == ADC_SAR_2__EXT_REF */
 171:Generated_Source\PSoC5/ADC_SAR_2.c ****     ADC_SAR_2_SAR_CSR3_REG = tmpReg;
 172:Generated_Source\PSoC5/ADC_SAR_2.c **** 
 173:Generated_Source\PSoC5/ADC_SAR_2.c ****     /* Set reference for ADC */
 174:Generated_Source\PSoC5/ADC_SAR_2.c ****     #if(ADC_SAR_2_DEFAULT_RANGE == ADC_SAR_2__VNEG_VDDA_DIFF)
 175:Generated_Source\PSoC5/ADC_SAR_2.c ****         #if(ADC_SAR_2_DEFAULT_REFERENCE == ADC_SAR_2__EXT_REF)
 176:Generated_Source\PSoC5/ADC_SAR_2.c ****             ADC_SAR_2_SAR_CSR6_REG = ADC_SAR_2_INT_BYPASS_EXT_VREF; /* S2 */
 177:Generated_Source\PSoC5/ADC_SAR_2.c ****         #else /* Internal Vdda reference or obsolete bypass mode */
 178:Generated_Source\PSoC5/ADC_SAR_2.c ****             ADC_SAR_2_SAR_CSR6_REG = ADC_SAR_2_VDDA_VREF;           /* S7 */
 179:Generated_Source\PSoC5/ADC_SAR_2.c ****         #endif /* ADC_SAR_2_DEFAULT_REFERENCE == ADC_SAR_2__EXT_REF */
 180:Generated_Source\PSoC5/ADC_SAR_2.c ****     #else  /* Reference goes through internal buffer */
 181:Generated_Source\PSoC5/ADC_SAR_2.c ****         #if(ADC_SAR_2_DEFAULT_REFERENCE == ADC_SAR_2__INT_REF_NOT_BYPASSED)
 182:Generated_Source\PSoC5/ADC_SAR_2.c ****             ADC_SAR_2_SAR_CSR6_REG = ADC_SAR_2_INT_VREF;            /* S3 + S4 */
 183:Generated_Source\PSoC5/ADC_SAR_2.c ****         #else /* INTREF Bypassed of External */
 184:Generated_Source\PSoC5/ADC_SAR_2.c ****             ADC_SAR_2_SAR_CSR6_REG = ADC_SAR_2_INT_BYPASS_EXT_VREF; /* S2 */
 185:Generated_Source\PSoC5/ADC_SAR_2.c ****         #endif /* ADC_SAR_2_DEFAULT_REFERENCE == ADC_SAR_2__INT_REF_NOT_BYPASSED */
 186:Generated_Source\PSoC5/ADC_SAR_2.c ****     #endif /* VNEG_VDDA_DIFF */
 187:Generated_Source\PSoC5/ADC_SAR_2.c **** 
 188:Generated_Source\PSoC5/ADC_SAR_2.c ****     /* Low non-overlap delay for sampling clock signals (for 1MSPS) */
 189:Generated_Source\PSoC5/ADC_SAR_2.c ****     #if(ADC_SAR_2_HIGH_POWER_PULSE == 0u) /* MinPulseWidth <= 50 ns */
 190:Generated_Source\PSoC5/ADC_SAR_2.c ****         ADC_SAR_2_SAR_CSR5_REG &= (uint8)~ADC_SAR_2_SAR_DLY_INC;
 191:Generated_Source\PSoC5/ADC_SAR_2.c ****     #else /* Set High non-overlap delay for sampling clock signals (for <500KSPS)*/
 192:Generated_Source\PSoC5/ADC_SAR_2.c ****         ADC_SAR_2_SAR_CSR5_REG |= ADC_SAR_2_SAR_DLY_INC;
 193:Generated_Source\PSoC5/ADC_SAR_2.c ****     #endif /* ADC_SAR_2_HIGH_POWER_PULSE == 0u */
 194:Generated_Source\PSoC5/ADC_SAR_2.c **** 
 195:Generated_Source\PSoC5/ADC_SAR_2.c ****     /* Increase comparator latch enable delay by 20%, 
 196:Generated_Source\PSoC5/ADC_SAR_2.c ****     *  Increase comparator bias current by 30% without impacting delaysDelay 
 197:Generated_Source\PSoC5/ADC_SAR_2.c ****     *  Default for 1MSPS) 
 198:Generated_Source\PSoC5/ADC_SAR_2.c ****     */
 199:Generated_Source\PSoC5/ADC_SAR_2.c ****     #if(ADC_SAR_2_HIGH_POWER_PULSE == 0u)    /* MinPulseWidth <= 50 ns */
 200:Generated_Source\PSoC5/ADC_SAR_2.c ****         ADC_SAR_2_SAR_CSR5_REG |= ADC_SAR_2_SAR_SEL_CSEL_DFT_CHAR;
 201:Generated_Source\PSoC5/ADC_SAR_2.c ****     #else /* for <500ksps */
 202:Generated_Source\PSoC5/ADC_SAR_2.c ****         ADC_SAR_2_SAR_CSR5_REG &= (uint8)~ADC_SAR_2_SAR_SEL_CSEL_DFT_CHAR;
ARM GAS  C:\Users\FRANKL~1\AppData\Local\Temp\ccrxa7r6.s 			page 5


 203:Generated_Source\PSoC5/ADC_SAR_2.c ****     #endif /* ADC_SAR_2_HIGH_POWER_PULSE == 0u */
 204:Generated_Source\PSoC5/ADC_SAR_2.c **** 
 205:Generated_Source\PSoC5/ADC_SAR_2.c ****     /* Set default power and other configurations for control register 0 in multiple lines */
 206:Generated_Source\PSoC5/ADC_SAR_2.c ****     ADC_SAR_2_SAR_CSR0_REG = (uint8)((uint8)ADC_SAR_2_DEFAULT_POWER << ADC_SAR_2_SAR_POWER_SHIFT)
 207:Generated_Source\PSoC5/ADC_SAR_2.c ****     /* SAR_HIZ_CLEAR:   Should not be used for LP */
 208:Generated_Source\PSoC5/ADC_SAR_2.c ****     #if ((CY_PSOC5LP) || (ADC_SAR_2_DEFAULT_REFERENCE != ADC_SAR_2__EXT_REF))
 209:Generated_Source\PSoC5/ADC_SAR_2.c ****         | ADC_SAR_2_SAR_HIZ_CLEAR
 210:Generated_Source\PSoC5/ADC_SAR_2.c ****     #endif /* SAR_HIZ_CLEAR */
 211:Generated_Source\PSoC5/ADC_SAR_2.c ****     /*Set Convertion mode */
 212:Generated_Source\PSoC5/ADC_SAR_2.c ****     #if(ADC_SAR_2_DEFAULT_CONV_MODE != ADC_SAR_2__FREE_RUNNING)      /* If triggered mode */
 213:Generated_Source\PSoC5/ADC_SAR_2.c ****         | ADC_SAR_2_SAR_MX_SOF_UDB           /* source: UDB */
 214:Generated_Source\PSoC5/ADC_SAR_2.c ****         | ADC_SAR_2_SAR_SOF_MODE_EDGE        /* Set edge-sensitive sof source */
 215:Generated_Source\PSoC5/ADC_SAR_2.c ****     #endif /* ADC_SAR_2_DEFAULT_CONV_MODE */
 216:Generated_Source\PSoC5/ADC_SAR_2.c ****     ; /* end of multiple line initialization */
 217:Generated_Source\PSoC5/ADC_SAR_2.c **** 
 218:Generated_Source\PSoC5/ADC_SAR_2.c ****     ADC_SAR_2_SAR_TR0_REG = ADC_SAR_2_SAR_CAP_TRIM_2;
 219:Generated_Source\PSoC5/ADC_SAR_2.c **** 
 220:Generated_Source\PSoC5/ADC_SAR_2.c ****     /* Enable clock for SAR ADC*/
 221:Generated_Source\PSoC5/ADC_SAR_2.c ****     ADC_SAR_2_SAR_CLK_REG |= ADC_SAR_2_SAR_MX_CLK_EN;
 222:Generated_Source\PSoC5/ADC_SAR_2.c **** 
 223:Generated_Source\PSoC5/ADC_SAR_2.c ****     CyDelayUs(10u); /* The block is ready to use 10 us after the enable signal is set high. */
 224:Generated_Source\PSoC5/ADC_SAR_2.c **** 
 225:Generated_Source\PSoC5/ADC_SAR_2.c ****     #if(ADC_SAR_2_IRQ_REMOVE == 0u)
 226:Generated_Source\PSoC5/ADC_SAR_2.c ****         /* Clear a pending interrupt */
 227:Generated_Source\PSoC5/ADC_SAR_2.c ****         CyIntClearPending(ADC_SAR_2_INTC_NUMBER);
 228:Generated_Source\PSoC5/ADC_SAR_2.c ****     #endif   /* End ADC_SAR_2_IRQ_REMOVE */
 229:Generated_Source\PSoC5/ADC_SAR_2.c **** 
 230:Generated_Source\PSoC5/ADC_SAR_2.c ****     CyExitCriticalSection(enableInterrupts);
 231:Generated_Source\PSoC5/ADC_SAR_2.c **** }
 232:Generated_Source\PSoC5/ADC_SAR_2.c **** 
 233:Generated_Source\PSoC5/ADC_SAR_2.c **** 
 234:Generated_Source\PSoC5/ADC_SAR_2.c **** /*******************************************************************************
 235:Generated_Source\PSoC5/ADC_SAR_2.c **** * Function Name: ADC_SAR_2_Stop
 236:Generated_Source\PSoC5/ADC_SAR_2.c **** ********************************************************************************
 237:Generated_Source\PSoC5/ADC_SAR_2.c **** *
 238:Generated_Source\PSoC5/ADC_SAR_2.c **** * Summary:
 239:Generated_Source\PSoC5/ADC_SAR_2.c **** *  Stops ADC conversions and puts the ADC into its lowest power mode.
 240:Generated_Source\PSoC5/ADC_SAR_2.c **** *
 241:Generated_Source\PSoC5/ADC_SAR_2.c **** * Parameters:
 242:Generated_Source\PSoC5/ADC_SAR_2.c **** *  None.
 243:Generated_Source\PSoC5/ADC_SAR_2.c **** *
 244:Generated_Source\PSoC5/ADC_SAR_2.c **** * Return:
 245:Generated_Source\PSoC5/ADC_SAR_2.c **** *  None.
 246:Generated_Source\PSoC5/ADC_SAR_2.c **** *
 247:Generated_Source\PSoC5/ADC_SAR_2.c **** *******************************************************************************/
 248:Generated_Source\PSoC5/ADC_SAR_2.c **** void ADC_SAR_2_Stop(void)
 249:Generated_Source\PSoC5/ADC_SAR_2.c **** {
 250:Generated_Source\PSoC5/ADC_SAR_2.c ****     uint8 enableInterrupts;
 251:Generated_Source\PSoC5/ADC_SAR_2.c ****     enableInterrupts = CyEnterCriticalSection();
 252:Generated_Source\PSoC5/ADC_SAR_2.c **** 
 253:Generated_Source\PSoC5/ADC_SAR_2.c ****     /* Stop all conversions */
 254:Generated_Source\PSoC5/ADC_SAR_2.c ****     ADC_SAR_2_SAR_CSR0_REG &= (uint8)~ADC_SAR_2_SAR_SOF_START_CONV;
 255:Generated_Source\PSoC5/ADC_SAR_2.c ****     /* Disable the SAR ADC block in Active Power Mode */
 256:Generated_Source\PSoC5/ADC_SAR_2.c ****     ADC_SAR_2_PWRMGR_SAR_REG &= (uint8)~ADC_SAR_2_ACT_PWR_SAR_EN;
 257:Generated_Source\PSoC5/ADC_SAR_2.c ****     /* Disable the SAR ADC in Standby Power Mode */
 258:Generated_Source\PSoC5/ADC_SAR_2.c ****     ADC_SAR_2_STBY_PWRMGR_SAR_REG &= (uint8)~ADC_SAR_2_STBY_PWR_SAR_EN;
 259:Generated_Source\PSoC5/ADC_SAR_2.c **** 
ARM GAS  C:\Users\FRANKL~1\AppData\Local\Temp\ccrxa7r6.s 			page 6


 260:Generated_Source\PSoC5/ADC_SAR_2.c ****     /* This is only valid if there is an internal clock */
 261:Generated_Source\PSoC5/ADC_SAR_2.c ****     #if(ADC_SAR_2_DEFAULT_INTERNAL_CLK)
 262:Generated_Source\PSoC5/ADC_SAR_2.c ****         ADC_SAR_2_PWRMGR_CLK_REG &= (uint8)~ADC_SAR_2_ACT_PWR_CLK_EN;
 263:Generated_Source\PSoC5/ADC_SAR_2.c ****         ADC_SAR_2_STBY_PWRMGR_CLK_REG &= (uint8)~ADC_SAR_2_STBY_PWR_CLK_EN;
 264:Generated_Source\PSoC5/ADC_SAR_2.c ****     #endif /* End ADC_SAR_2_DEFAULT_INTERNAL_CLK */
 265:Generated_Source\PSoC5/ADC_SAR_2.c **** 
 266:Generated_Source\PSoC5/ADC_SAR_2.c ****     CyExitCriticalSection(enableInterrupts);
 267:Generated_Source\PSoC5/ADC_SAR_2.c **** 
 268:Generated_Source\PSoC5/ADC_SAR_2.c **** }
 269:Generated_Source\PSoC5/ADC_SAR_2.c **** 
 270:Generated_Source\PSoC5/ADC_SAR_2.c **** 
 271:Generated_Source\PSoC5/ADC_SAR_2.c **** /*******************************************************************************
 272:Generated_Source\PSoC5/ADC_SAR_2.c **** * Function Name: ADC_SAR_2_SetPower
 273:Generated_Source\PSoC5/ADC_SAR_2.c **** ********************************************************************************
 274:Generated_Source\PSoC5/ADC_SAR_2.c **** *
 275:Generated_Source\PSoC5/ADC_SAR_2.c **** * Summary:
 276:Generated_Source\PSoC5/ADC_SAR_2.c **** *  Sets the operational power of the ADC. You should use the higher power
 277:Generated_Source\PSoC5/ADC_SAR_2.c **** *  settings with faster clock speeds.
 278:Generated_Source\PSoC5/ADC_SAR_2.c **** *
 279:Generated_Source\PSoC5/ADC_SAR_2.c **** * Parameters:
 280:Generated_Source\PSoC5/ADC_SAR_2.c **** *  power:  Power setting for ADC
 281:Generated_Source\PSoC5/ADC_SAR_2.c **** *  0 ->    Normal
 282:Generated_Source\PSoC5/ADC_SAR_2.c **** *  1 ->    Medium power
 283:Generated_Source\PSoC5/ADC_SAR_2.c **** *  2 ->    1.25 power
 284:Generated_Source\PSoC5/ADC_SAR_2.c **** *  3 ->    Minimum power.
 285:Generated_Source\PSoC5/ADC_SAR_2.c **** *
 286:Generated_Source\PSoC5/ADC_SAR_2.c **** * Return:
 287:Generated_Source\PSoC5/ADC_SAR_2.c **** *  None.
 288:Generated_Source\PSoC5/ADC_SAR_2.c **** *
 289:Generated_Source\PSoC5/ADC_SAR_2.c **** *******************************************************************************/
 290:Generated_Source\PSoC5/ADC_SAR_2.c **** void ADC_SAR_2_SetPower(uint8 power)
 291:Generated_Source\PSoC5/ADC_SAR_2.c **** {
 292:Generated_Source\PSoC5/ADC_SAR_2.c ****     uint8 tmpReg;
 293:Generated_Source\PSoC5/ADC_SAR_2.c **** 
 294:Generated_Source\PSoC5/ADC_SAR_2.c ****     /* mask off invalid power settings */
 295:Generated_Source\PSoC5/ADC_SAR_2.c ****     power &= ADC_SAR_2_SAR_API_POWER_MASK;
 296:Generated_Source\PSoC5/ADC_SAR_2.c **** 
 297:Generated_Source\PSoC5/ADC_SAR_2.c ****     /* Set Power parameter  */
 298:Generated_Source\PSoC5/ADC_SAR_2.c ****     tmpReg = ADC_SAR_2_SAR_CSR0_REG & (uint8)~ADC_SAR_2_SAR_POWER_MASK;
 299:Generated_Source\PSoC5/ADC_SAR_2.c ****     tmpReg |= (uint8)(power << ADC_SAR_2_SAR_POWER_SHIFT);
 300:Generated_Source\PSoC5/ADC_SAR_2.c ****     ADC_SAR_2_SAR_CSR0_REG = tmpReg;
 301:Generated_Source\PSoC5/ADC_SAR_2.c **** }
 302:Generated_Source\PSoC5/ADC_SAR_2.c **** 
 303:Generated_Source\PSoC5/ADC_SAR_2.c **** 
 304:Generated_Source\PSoC5/ADC_SAR_2.c **** /*******************************************************************************
 305:Generated_Source\PSoC5/ADC_SAR_2.c **** * Function Name: ADC_SAR_2_SetResolution
 306:Generated_Source\PSoC5/ADC_SAR_2.c **** ********************************************************************************
 307:Generated_Source\PSoC5/ADC_SAR_2.c **** *
 308:Generated_Source\PSoC5/ADC_SAR_2.c **** * Summary:
 309:Generated_Source\PSoC5/ADC_SAR_2.c **** *  Sets the Relution of the SAR.
 310:Generated_Source\PSoC5/ADC_SAR_2.c **** *
 311:Generated_Source\PSoC5/ADC_SAR_2.c **** * Parameters:
 312:Generated_Source\PSoC5/ADC_SAR_2.c **** *  resolution:
 313:Generated_Source\PSoC5/ADC_SAR_2.c **** *  12 ->    RES12
 314:Generated_Source\PSoC5/ADC_SAR_2.c **** *  10 ->    RES10
 315:Generated_Source\PSoC5/ADC_SAR_2.c **** *  8  ->    RES8
 316:Generated_Source\PSoC5/ADC_SAR_2.c **** *
ARM GAS  C:\Users\FRANKL~1\AppData\Local\Temp\ccrxa7r6.s 			page 7


 317:Generated_Source\PSoC5/ADC_SAR_2.c **** * Return:
 318:Generated_Source\PSoC5/ADC_SAR_2.c **** *  None.
 319:Generated_Source\PSoC5/ADC_SAR_2.c **** *
 320:Generated_Source\PSoC5/ADC_SAR_2.c **** * Side Effects:
 321:Generated_Source\PSoC5/ADC_SAR_2.c **** *  The ADC resolution cannot be changed during a conversion cycle. The
 322:Generated_Source\PSoC5/ADC_SAR_2.c **** *  recommended best practice is to stop conversions with
 323:Generated_Source\PSoC5/ADC_SAR_2.c **** *  ADC_StopConvert(), change the resolution, then restart the
 324:Generated_Source\PSoC5/ADC_SAR_2.c **** *  conversions with ADC_StartConvert().
 325:Generated_Source\PSoC5/ADC_SAR_2.c **** *  If you decide not to stop conversions before calling this API, you
 326:Generated_Source\PSoC5/ADC_SAR_2.c **** *  should use ADC_IsEndConversion() to wait until conversion is complete
 327:Generated_Source\PSoC5/ADC_SAR_2.c **** *  before changing the resolution.
 328:Generated_Source\PSoC5/ADC_SAR_2.c **** *  If you call ADC_SetResolution() during a conversion, the resolution will
 329:Generated_Source\PSoC5/ADC_SAR_2.c **** *  not be changed until the current conversion is complete. Data will not be
 330:Generated_Source\PSoC5/ADC_SAR_2.c **** *  available in the new resolution for another 6 + "New Resolution(in bits)"
 331:Generated_Source\PSoC5/ADC_SAR_2.c **** *  clock cycles.
 332:Generated_Source\PSoC5/ADC_SAR_2.c **** *  You may need add a delay of this number of clock cycles after
 333:Generated_Source\PSoC5/ADC_SAR_2.c **** *  ADC_SetResolution() is called before data is valid again.
 334:Generated_Source\PSoC5/ADC_SAR_2.c **** *  Affects ADC_CountsTo_Volts(), ADC_CountsTo_mVolts(), and
 335:Generated_Source\PSoC5/ADC_SAR_2.c **** *  ADC_CountsTo_uVolts() by calculating the correct conversion between ADC
 336:Generated_Source\PSoC5/ADC_SAR_2.c **** *  counts and the applied input voltage. Calculation depends on resolution,
 337:Generated_Source\PSoC5/ADC_SAR_2.c **** *  input range, and voltage reference.
 338:Generated_Source\PSoC5/ADC_SAR_2.c **** *
 339:Generated_Source\PSoC5/ADC_SAR_2.c **** *******************************************************************************/
 340:Generated_Source\PSoC5/ADC_SAR_2.c **** void ADC_SAR_2_SetResolution(uint8 resolution)
 341:Generated_Source\PSoC5/ADC_SAR_2.c **** {
 342:Generated_Source\PSoC5/ADC_SAR_2.c ****     uint8 tmpReg;
 343:Generated_Source\PSoC5/ADC_SAR_2.c **** 
 344:Generated_Source\PSoC5/ADC_SAR_2.c ****     /* Set SAR ADC resolution and sample width: 18 conversion cycles at 12bits + 1 gap */
 345:Generated_Source\PSoC5/ADC_SAR_2.c ****     switch (resolution)
 346:Generated_Source\PSoC5/ADC_SAR_2.c ****     {
 347:Generated_Source\PSoC5/ADC_SAR_2.c ****         case (uint8)ADC_SAR_2__BITS_12:
 348:Generated_Source\PSoC5/ADC_SAR_2.c ****             tmpReg = ADC_SAR_2_SAR_RESOLUTION_12BIT | ADC_SAR_2_SAR_SAMPLE_WIDTH;
 349:Generated_Source\PSoC5/ADC_SAR_2.c ****             break;
 350:Generated_Source\PSoC5/ADC_SAR_2.c ****         case (uint8)ADC_SAR_2__BITS_10:
 351:Generated_Source\PSoC5/ADC_SAR_2.c ****             tmpReg = ADC_SAR_2_SAR_RESOLUTION_10BIT | ADC_SAR_2_SAR_SAMPLE_WIDTH;
 352:Generated_Source\PSoC5/ADC_SAR_2.c ****             break;
 353:Generated_Source\PSoC5/ADC_SAR_2.c ****         case (uint8)ADC_SAR_2__BITS_8:
 354:Generated_Source\PSoC5/ADC_SAR_2.c ****             tmpReg = ADC_SAR_2_SAR_RESOLUTION_8BIT | ADC_SAR_2_SAR_SAMPLE_WIDTH;
 355:Generated_Source\PSoC5/ADC_SAR_2.c ****             break;
 356:Generated_Source\PSoC5/ADC_SAR_2.c ****         default:
 357:Generated_Source\PSoC5/ADC_SAR_2.c ****             tmpReg = ADC_SAR_2_SAR_RESOLUTION_12BIT | ADC_SAR_2_SAR_SAMPLE_WIDTH;
 358:Generated_Source\PSoC5/ADC_SAR_2.c ****             /* Halt CPU in debug mode if resolution is out of valid range */
 359:Generated_Source\PSoC5/ADC_SAR_2.c ****             CYASSERT(0u != 0u);
 360:Generated_Source\PSoC5/ADC_SAR_2.c ****             break;
 361:Generated_Source\PSoC5/ADC_SAR_2.c ****     }
 362:Generated_Source\PSoC5/ADC_SAR_2.c ****     ADC_SAR_2_SAR_CSR2_REG = tmpReg;
 363:Generated_Source\PSoC5/ADC_SAR_2.c **** 
 364:Generated_Source\PSoC5/ADC_SAR_2.c ****      /* Calculate gain for convert counts to volts */
 365:Generated_Source\PSoC5/ADC_SAR_2.c ****     ADC_SAR_2_CalcGain(resolution);
 366:Generated_Source\PSoC5/ADC_SAR_2.c **** }
 367:Generated_Source\PSoC5/ADC_SAR_2.c **** 
 368:Generated_Source\PSoC5/ADC_SAR_2.c **** 
 369:Generated_Source\PSoC5/ADC_SAR_2.c **** #if(ADC_SAR_2_DEFAULT_CONV_MODE != ADC_SAR_2__HARDWARE_TRIGGER)
 370:Generated_Source\PSoC5/ADC_SAR_2.c **** 
 371:Generated_Source\PSoC5/ADC_SAR_2.c **** 
 372:Generated_Source\PSoC5/ADC_SAR_2.c ****     /*******************************************************************************
 373:Generated_Source\PSoC5/ADC_SAR_2.c ****     * Function Name: ADC_SAR_2_StartConvert
ARM GAS  C:\Users\FRANKL~1\AppData\Local\Temp\ccrxa7r6.s 			page 8


 374:Generated_Source\PSoC5/ADC_SAR_2.c ****     ********************************************************************************
 375:Generated_Source\PSoC5/ADC_SAR_2.c ****     *
 376:Generated_Source\PSoC5/ADC_SAR_2.c ****     * Summary:
 377:Generated_Source\PSoC5/ADC_SAR_2.c ****     *  Forces the ADC to initiate a conversion. In free-running mode, the ADC runs
 378:Generated_Source\PSoC5/ADC_SAR_2.c ****     *  continuously. In software trigger mode, the function also acts as a software
 379:Generated_Source\PSoC5/ADC_SAR_2.c ****     *  version of the SOC and every conversion must be triggered by
 380:Generated_Source\PSoC5/ADC_SAR_2.c ****     *  ADC_SAR_2_StartConvert(). This function is not available when the
 381:Generated_Source\PSoC5/ADC_SAR_2.c ****     *  Hardware Trigger sample mode is selected.
 382:Generated_Source\PSoC5/ADC_SAR_2.c ****     *
 383:Generated_Source\PSoC5/ADC_SAR_2.c ****     * Parameters:
 384:Generated_Source\PSoC5/ADC_SAR_2.c ****     *  None.
 385:Generated_Source\PSoC5/ADC_SAR_2.c ****     *
 386:Generated_Source\PSoC5/ADC_SAR_2.c ****     * Return:
 387:Generated_Source\PSoC5/ADC_SAR_2.c ****     *  None.
 388:Generated_Source\PSoC5/ADC_SAR_2.c ****     *
 389:Generated_Source\PSoC5/ADC_SAR_2.c ****     * Theory:
 390:Generated_Source\PSoC5/ADC_SAR_2.c ****     *  Forces the ADC to initiate a conversion. In Free Running mode, the ADC will
 391:Generated_Source\PSoC5/ADC_SAR_2.c ****     *  run continuously. In a software trigger mode the function also acts as a
 392:Generated_Source\PSoC5/ADC_SAR_2.c ****     *  software version of the SOC. Here every conversion has to be triggered by
 393:Generated_Source\PSoC5/ADC_SAR_2.c ****     *  the routine. This writes into the SOC bit in SAR_CTRL reg.
 394:Generated_Source\PSoC5/ADC_SAR_2.c ****     *
 395:Generated_Source\PSoC5/ADC_SAR_2.c ****     * Side Effects:
 396:Generated_Source\PSoC5/ADC_SAR_2.c ****     *  In a software trigger mode the function switches source for SOF from the
 397:Generated_Source\PSoC5/ADC_SAR_2.c ****     *  external pin to the internal SOF generation. Application should not call
 398:Generated_Source\PSoC5/ADC_SAR_2.c ****     *  StartConvert if external source used for SOF.
 399:Generated_Source\PSoC5/ADC_SAR_2.c ****     *
 400:Generated_Source\PSoC5/ADC_SAR_2.c ****     *******************************************************************************/
 401:Generated_Source\PSoC5/ADC_SAR_2.c ****     void ADC_SAR_2_StartConvert(void)
 402:Generated_Source\PSoC5/ADC_SAR_2.c ****     {
 403:Generated_Source\PSoC5/ADC_SAR_2.c ****         #if(ADC_SAR_2_DEFAULT_CONV_MODE != ADC_SAR_2__FREE_RUNNING)  /* If software triggered mode 
 404:Generated_Source\PSoC5/ADC_SAR_2.c ****             ADC_SAR_2_SAR_CSR0_REG &= (uint8)~ADC_SAR_2_SAR_MX_SOF_UDB;   /* source: SOF bit */
 405:Generated_Source\PSoC5/ADC_SAR_2.c ****         #endif /* End ADC_SAR_2_DEFAULT_CONV_MODE */
 406:Generated_Source\PSoC5/ADC_SAR_2.c **** 
 407:Generated_Source\PSoC5/ADC_SAR_2.c ****         /* Start the conversion */
 408:Generated_Source\PSoC5/ADC_SAR_2.c ****         ADC_SAR_2_SAR_CSR0_REG |= ADC_SAR_2_SAR_SOF_START_CONV;
 409:Generated_Source\PSoC5/ADC_SAR_2.c ****     }
 410:Generated_Source\PSoC5/ADC_SAR_2.c **** 
 411:Generated_Source\PSoC5/ADC_SAR_2.c **** 
 412:Generated_Source\PSoC5/ADC_SAR_2.c ****     /*******************************************************************************
 413:Generated_Source\PSoC5/ADC_SAR_2.c ****     * Function Name: ADC_SAR_2_StopConvert
 414:Generated_Source\PSoC5/ADC_SAR_2.c ****     ********************************************************************************
 415:Generated_Source\PSoC5/ADC_SAR_2.c ****     *
 416:Generated_Source\PSoC5/ADC_SAR_2.c ****     * Summary:
 417:Generated_Source\PSoC5/ADC_SAR_2.c ****     *  Forces the ADC to stop conversions. If a conversion is currently executing,
 418:Generated_Source\PSoC5/ADC_SAR_2.c ****     *  that conversion will complete, but no further conversions will occur. This
 419:Generated_Source\PSoC5/ADC_SAR_2.c ****     *  function is not available when the Hardware Trigger sample mode is selected.
 420:Generated_Source\PSoC5/ADC_SAR_2.c ****     *
 421:Generated_Source\PSoC5/ADC_SAR_2.c ****     * Parameters:
 422:Generated_Source\PSoC5/ADC_SAR_2.c ****     *  None.
 423:Generated_Source\PSoC5/ADC_SAR_2.c ****     *
 424:Generated_Source\PSoC5/ADC_SAR_2.c ****     * Return:
 425:Generated_Source\PSoC5/ADC_SAR_2.c ****     *  None.
 426:Generated_Source\PSoC5/ADC_SAR_2.c ****     *
 427:Generated_Source\PSoC5/ADC_SAR_2.c ****     * Theory:
 428:Generated_Source\PSoC5/ADC_SAR_2.c ****     *  Stops ADC conversion in Free Running mode.
 429:Generated_Source\PSoC5/ADC_SAR_2.c ****     *
 430:Generated_Source\PSoC5/ADC_SAR_2.c ****     * Side Effects:
ARM GAS  C:\Users\FRANKL~1\AppData\Local\Temp\ccrxa7r6.s 			page 9


 431:Generated_Source\PSoC5/ADC_SAR_2.c ****     *  In Software Trigger sample mode, this function sets a software version of the
 432:Generated_Source\PSoC5/ADC_SAR_2.c ****     *  SOC to low level and switches the SOC source to hardware SOC input.
 433:Generated_Source\PSoC5/ADC_SAR_2.c ****     *
 434:Generated_Source\PSoC5/ADC_SAR_2.c ****     *******************************************************************************/
 435:Generated_Source\PSoC5/ADC_SAR_2.c ****     void ADC_SAR_2_StopConvert(void)
 436:Generated_Source\PSoC5/ADC_SAR_2.c ****     {
 437:Generated_Source\PSoC5/ADC_SAR_2.c ****         /* Stop all conversions */
 438:Generated_Source\PSoC5/ADC_SAR_2.c ****         ADC_SAR_2_SAR_CSR0_REG &= (uint8)~ADC_SAR_2_SAR_SOF_START_CONV;
 439:Generated_Source\PSoC5/ADC_SAR_2.c **** 
 440:Generated_Source\PSoC5/ADC_SAR_2.c ****         #if(ADC_SAR_2_DEFAULT_CONV_MODE != ADC_SAR_2__FREE_RUNNING)  /* If software triggered mode 
 441:Generated_Source\PSoC5/ADC_SAR_2.c ****             /* Return source to UDB for hardware SOF signal */
 442:Generated_Source\PSoC5/ADC_SAR_2.c ****             ADC_SAR_2_SAR_CSR0_REG |= ADC_SAR_2_SAR_MX_SOF_UDB;    /* source: UDB */
 443:Generated_Source\PSoC5/ADC_SAR_2.c ****         #endif /* End ADC_SAR_2_DEFAULT_CONV_MODE */
 444:Generated_Source\PSoC5/ADC_SAR_2.c **** 
 445:Generated_Source\PSoC5/ADC_SAR_2.c ****     }
 446:Generated_Source\PSoC5/ADC_SAR_2.c **** 
 447:Generated_Source\PSoC5/ADC_SAR_2.c **** #endif /* End ADC_SAR_2_DEFAULT_CONV_MODE != ADC_SAR_2__HARDWARE_TRIGGER */
 448:Generated_Source\PSoC5/ADC_SAR_2.c **** 
 449:Generated_Source\PSoC5/ADC_SAR_2.c **** 
 450:Generated_Source\PSoC5/ADC_SAR_2.c **** /*******************************************************************************
 451:Generated_Source\PSoC5/ADC_SAR_2.c **** * Function Name: ADC_SAR_2_IsEndConversion
 452:Generated_Source\PSoC5/ADC_SAR_2.c **** ********************************************************************************
 453:Generated_Source\PSoC5/ADC_SAR_2.c **** *
 454:Generated_Source\PSoC5/ADC_SAR_2.c **** * Summary:
 455:Generated_Source\PSoC5/ADC_SAR_2.c **** *  Immediately returns the status of the conversion or does not return
 456:Generated_Source\PSoC5/ADC_SAR_2.c **** *  (blocking) until the conversion completes, depending on the retMode
 457:Generated_Source\PSoC5/ADC_SAR_2.c **** *  parameter.
 458:Generated_Source\PSoC5/ADC_SAR_2.c **** *
 459:Generated_Source\PSoC5/ADC_SAR_2.c **** * Parameters:
 460:Generated_Source\PSoC5/ADC_SAR_2.c **** *  retMode:  Check conversion return mode.
 461:Generated_Source\PSoC5/ADC_SAR_2.c **** *   ADC_SAR_2_RETURN_STATUS: Immediately returns the status. If the
 462:Generated_Source\PSoC5/ADC_SAR_2.c **** *     value returned is zero, the conversion is not complete, and this function
 463:Generated_Source\PSoC5/ADC_SAR_2.c **** *     should be retried until a nonzero result is returned.
 464:Generated_Source\PSoC5/ADC_SAR_2.c **** *   ADC_SAR_2_WAIT_FOR_RESULT: Does not return a result until the ADC
 465:Generated_Source\PSoC5/ADC_SAR_2.c **** *     conversion is complete.
 466:Generated_Source\PSoC5/ADC_SAR_2.c **** *
 467:Generated_Source\PSoC5/ADC_SAR_2.c **** * Return:
 468:Generated_Source\PSoC5/ADC_SAR_2.c **** *  (uint8)  0 =>  The ADC is still calculating the last result.
 469:Generated_Source\PSoC5/ADC_SAR_2.c **** *           1 =>  The last conversion is complete.
 470:Generated_Source\PSoC5/ADC_SAR_2.c **** *
 471:Generated_Source\PSoC5/ADC_SAR_2.c **** * Side Effects:
 472:Generated_Source\PSoC5/ADC_SAR_2.c **** *  This function reads the end of conversion status, which is cleared on read.
 473:Generated_Source\PSoC5/ADC_SAR_2.c **** *
 474:Generated_Source\PSoC5/ADC_SAR_2.c **** *******************************************************************************/
 475:Generated_Source\PSoC5/ADC_SAR_2.c **** uint8 ADC_SAR_2_IsEndConversion(uint8 retMode)
 476:Generated_Source\PSoC5/ADC_SAR_2.c **** {
 477:Generated_Source\PSoC5/ADC_SAR_2.c ****     uint8 status;
 478:Generated_Source\PSoC5/ADC_SAR_2.c **** 
 479:Generated_Source\PSoC5/ADC_SAR_2.c ****     do
 480:Generated_Source\PSoC5/ADC_SAR_2.c ****     {
 481:Generated_Source\PSoC5/ADC_SAR_2.c ****         status = ADC_SAR_2_SAR_CSR1_REG & ADC_SAR_2_SAR_EOF_1;
 482:Generated_Source\PSoC5/ADC_SAR_2.c ****     } while ((status != ADC_SAR_2_SAR_EOF_1) && (retMode == ADC_SAR_2_WAIT_FOR_RESULT));
 483:Generated_Source\PSoC5/ADC_SAR_2.c ****     /* If convertion complete, wait until EOF bit released */
 484:Generated_Source\PSoC5/ADC_SAR_2.c ****     if(status == ADC_SAR_2_SAR_EOF_1)
 485:Generated_Source\PSoC5/ADC_SAR_2.c ****     {
 486:Generated_Source\PSoC5/ADC_SAR_2.c ****         /* wait one ADC clock to let the EOC status bit release */
 487:Generated_Source\PSoC5/ADC_SAR_2.c ****         CyDelayUs(1u);
ARM GAS  C:\Users\FRANKL~1\AppData\Local\Temp\ccrxa7r6.s 			page 10


 488:Generated_Source\PSoC5/ADC_SAR_2.c ****         /* Do the unconditional read operation of the CSR1 register to make sure the EOC bit has be
 489:Generated_Source\PSoC5/ADC_SAR_2.c ****         CY_GET_REG8(ADC_SAR_2_SAR_CSR1_PTR);
 490:Generated_Source\PSoC5/ADC_SAR_2.c ****     }
 491:Generated_Source\PSoC5/ADC_SAR_2.c **** 
 492:Generated_Source\PSoC5/ADC_SAR_2.c ****     return(status);
 493:Generated_Source\PSoC5/ADC_SAR_2.c **** }
 494:Generated_Source\PSoC5/ADC_SAR_2.c **** 
 495:Generated_Source\PSoC5/ADC_SAR_2.c **** 
 496:Generated_Source\PSoC5/ADC_SAR_2.c **** /*******************************************************************************
 497:Generated_Source\PSoC5/ADC_SAR_2.c **** * Function Name: ADC_SAR_2_GetResult8
 498:Generated_Source\PSoC5/ADC_SAR_2.c **** ********************************************************************************
 499:Generated_Source\PSoC5/ADC_SAR_2.c **** *
 500:Generated_Source\PSoC5/ADC_SAR_2.c **** * Summary:
 501:Generated_Source\PSoC5/ADC_SAR_2.c **** *  Returns the result of an 8-bit conversion. If the resolution is set greater
 502:Generated_Source\PSoC5/ADC_SAR_2.c **** *  than 8 bits, the function returns the LSB of the result.
 503:Generated_Source\PSoC5/ADC_SAR_2.c **** *  ADC_SAR_2_IsEndConversion() should be called to verify that the data
 504:Generated_Source\PSoC5/ADC_SAR_2.c **** *   sample is ready.
 505:Generated_Source\PSoC5/ADC_SAR_2.c **** *
 506:Generated_Source\PSoC5/ADC_SAR_2.c **** * Parameters:
 507:Generated_Source\PSoC5/ADC_SAR_2.c **** *  None.
 508:Generated_Source\PSoC5/ADC_SAR_2.c **** *
 509:Generated_Source\PSoC5/ADC_SAR_2.c **** * Return:
 510:Generated_Source\PSoC5/ADC_SAR_2.c **** *  The LSB of the last ADC conversion.
 511:Generated_Source\PSoC5/ADC_SAR_2.c **** *
 512:Generated_Source\PSoC5/ADC_SAR_2.c **** * Global Variables:
 513:Generated_Source\PSoC5/ADC_SAR_2.c **** *  ADC_SAR_2_shift - used to convert the ADC counts to the 2s
 514:Generated_Source\PSoC5/ADC_SAR_2.c **** *  compliment form.
 515:Generated_Source\PSoC5/ADC_SAR_2.c **** *
 516:Generated_Source\PSoC5/ADC_SAR_2.c **** * Side Effects:
 517:Generated_Source\PSoC5/ADC_SAR_2.c **** *  Converts the ADC counts to the 2s complement form.
 518:Generated_Source\PSoC5/ADC_SAR_2.c **** *
 519:Generated_Source\PSoC5/ADC_SAR_2.c **** *******************************************************************************/
 520:Generated_Source\PSoC5/ADC_SAR_2.c **** int8 ADC_SAR_2_GetResult8( void )
 521:Generated_Source\PSoC5/ADC_SAR_2.c **** {
 522:Generated_Source\PSoC5/ADC_SAR_2.c ****     return( (int8)ADC_SAR_2_SAR_WRK0_REG - (int8)ADC_SAR_2_shift);
 523:Generated_Source\PSoC5/ADC_SAR_2.c **** }
 524:Generated_Source\PSoC5/ADC_SAR_2.c **** 
 525:Generated_Source\PSoC5/ADC_SAR_2.c **** 
 526:Generated_Source\PSoC5/ADC_SAR_2.c **** /*******************************************************************************
 527:Generated_Source\PSoC5/ADC_SAR_2.c **** * Function Name: ADC_SAR_2_GetResult16
 528:Generated_Source\PSoC5/ADC_SAR_2.c **** ********************************************************************************
 529:Generated_Source\PSoC5/ADC_SAR_2.c **** *
 530:Generated_Source\PSoC5/ADC_SAR_2.c **** * Summary:
 531:Generated_Source\PSoC5/ADC_SAR_2.c **** *  Returns a 16-bit result for a conversion with a result that has a resolution
 532:Generated_Source\PSoC5/ADC_SAR_2.c **** *  of 8 to 12 bits.
 533:Generated_Source\PSoC5/ADC_SAR_2.c **** *  ADC_SAR_2_IsEndConversion() should be called to verify that the data
 534:Generated_Source\PSoC5/ADC_SAR_2.c **** *   sample is ready
 535:Generated_Source\PSoC5/ADC_SAR_2.c **** *
 536:Generated_Source\PSoC5/ADC_SAR_2.c **** * Parameters:
 537:Generated_Source\PSoC5/ADC_SAR_2.c **** *  None.
 538:Generated_Source\PSoC5/ADC_SAR_2.c **** *
 539:Generated_Source\PSoC5/ADC_SAR_2.c **** * Return:
 540:Generated_Source\PSoC5/ADC_SAR_2.c **** *  The 16-bit result of the last ADC conversion
 541:Generated_Source\PSoC5/ADC_SAR_2.c **** *
 542:Generated_Source\PSoC5/ADC_SAR_2.c **** * Global Variables:
 543:Generated_Source\PSoC5/ADC_SAR_2.c **** *  ADC_SAR_2_shift - used to convert the ADC counts to the 2s
 544:Generated_Source\PSoC5/ADC_SAR_2.c **** *  compliment form.
ARM GAS  C:\Users\FRANKL~1\AppData\Local\Temp\ccrxa7r6.s 			page 11


 545:Generated_Source\PSoC5/ADC_SAR_2.c **** *
 546:Generated_Source\PSoC5/ADC_SAR_2.c **** * Side Effects:
 547:Generated_Source\PSoC5/ADC_SAR_2.c **** *  Converts the ADC counts to the 2s complement form.
 548:Generated_Source\PSoC5/ADC_SAR_2.c **** *
 549:Generated_Source\PSoC5/ADC_SAR_2.c **** *******************************************************************************/
 550:Generated_Source\PSoC5/ADC_SAR_2.c **** int16 ADC_SAR_2_GetResult16( void )
 551:Generated_Source\PSoC5/ADC_SAR_2.c **** {
 552:Generated_Source\PSoC5/ADC_SAR_2.c ****     uint16 res;
 553:Generated_Source\PSoC5/ADC_SAR_2.c **** 
 554:Generated_Source\PSoC5/ADC_SAR_2.c ****     res = CY_GET_REG16(ADC_SAR_2_SAR_WRK_PTR);
 555:Generated_Source\PSoC5/ADC_SAR_2.c **** 
 556:Generated_Source\PSoC5/ADC_SAR_2.c ****     return( (int16)res - ADC_SAR_2_shift );
 557:Generated_Source\PSoC5/ADC_SAR_2.c **** }
 558:Generated_Source\PSoC5/ADC_SAR_2.c **** 
 559:Generated_Source\PSoC5/ADC_SAR_2.c **** 
 560:Generated_Source\PSoC5/ADC_SAR_2.c **** /*******************************************************************************
 561:Generated_Source\PSoC5/ADC_SAR_2.c **** * Function Name: ADC_SAR_2_SetOffset
 562:Generated_Source\PSoC5/ADC_SAR_2.c **** ********************************************************************************
 563:Generated_Source\PSoC5/ADC_SAR_2.c **** *
 564:Generated_Source\PSoC5/ADC_SAR_2.c **** * Summary:
 565:Generated_Source\PSoC5/ADC_SAR_2.c **** *  Sets the ADC offset, which is used by ADC_SAR_2_CountsTo_Volts(),
 566:Generated_Source\PSoC5/ADC_SAR_2.c **** *  ADC_SAR_2_CountsTo_mVolts(), and ADC_SAR_2_CountsTo_uVolts()
 567:Generated_Source\PSoC5/ADC_SAR_2.c **** *  to subtract the offset from the given reading before calculating the voltage
 568:Generated_Source\PSoC5/ADC_SAR_2.c **** *  conversion.
 569:Generated_Source\PSoC5/ADC_SAR_2.c **** *
 570:Generated_Source\PSoC5/ADC_SAR_2.c **** * Parameters:
 571:Generated_Source\PSoC5/ADC_SAR_2.c **** *  int16: This value is measured when the inputs are shorted or connected to
 572:Generated_Source\PSoC5/ADC_SAR_2.c ****    the same input voltage.
 573:Generated_Source\PSoC5/ADC_SAR_2.c **** *
 574:Generated_Source\PSoC5/ADC_SAR_2.c **** * Return:
 575:Generated_Source\PSoC5/ADC_SAR_2.c **** *  None.
 576:Generated_Source\PSoC5/ADC_SAR_2.c **** *
 577:Generated_Source\PSoC5/ADC_SAR_2.c **** * Global Variables:
 578:Generated_Source\PSoC5/ADC_SAR_2.c **** *  The ADC_SAR_2_offset variable modified. This variable is used for
 579:Generated_Source\PSoC5/ADC_SAR_2.c **** *  offset calibration purpose.
 580:Generated_Source\PSoC5/ADC_SAR_2.c **** *  Affects the ADC_SAR_2_CountsTo_Volts,
 581:Generated_Source\PSoC5/ADC_SAR_2.c **** *  ADC_SAR_2_CountsTo_mVolts, ADC_SAR_2_CountsTo_uVolts functions
 582:Generated_Source\PSoC5/ADC_SAR_2.c **** *  by subtracting the given offset.
 583:Generated_Source\PSoC5/ADC_SAR_2.c **** *
 584:Generated_Source\PSoC5/ADC_SAR_2.c **** *******************************************************************************/
 585:Generated_Source\PSoC5/ADC_SAR_2.c **** void ADC_SAR_2_SetOffset(int16 offset)
 586:Generated_Source\PSoC5/ADC_SAR_2.c **** {
 587:Generated_Source\PSoC5/ADC_SAR_2.c ****     ADC_SAR_2_offset = offset;
 588:Generated_Source\PSoC5/ADC_SAR_2.c **** }
 589:Generated_Source\PSoC5/ADC_SAR_2.c **** 
 590:Generated_Source\PSoC5/ADC_SAR_2.c **** 
 591:Generated_Source\PSoC5/ADC_SAR_2.c **** /*******************************************************************************
 592:Generated_Source\PSoC5/ADC_SAR_2.c **** * Function Name: ADC_SAR_2_CalcGain
 593:Generated_Source\PSoC5/ADC_SAR_2.c **** ********************************************************************************
 594:Generated_Source\PSoC5/ADC_SAR_2.c **** *
 595:Generated_Source\PSoC5/ADC_SAR_2.c **** * Summary:
 596:Generated_Source\PSoC5/ADC_SAR_2.c **** *  This function calculates the ADC gain in counts per 10 volt.
 597:Generated_Source\PSoC5/ADC_SAR_2.c **** *
 598:Generated_Source\PSoC5/ADC_SAR_2.c **** * Parameters:
 599:Generated_Source\PSoC5/ADC_SAR_2.c **** *  uint8: resolution
 600:Generated_Source\PSoC5/ADC_SAR_2.c **** *
 601:Generated_Source\PSoC5/ADC_SAR_2.c **** * Return:
ARM GAS  C:\Users\FRANKL~1\AppData\Local\Temp\ccrxa7r6.s 			page 12


 602:Generated_Source\PSoC5/ADC_SAR_2.c **** *  None.
 603:Generated_Source\PSoC5/ADC_SAR_2.c **** *
 604:Generated_Source\PSoC5/ADC_SAR_2.c **** * Global Variables:
 605:Generated_Source\PSoC5/ADC_SAR_2.c **** *  ADC_SAR_2_shift variable initialized. This variable is used to
 606:Generated_Source\PSoC5/ADC_SAR_2.c **** *  convert the ADC counts to the 2s compliment form.
 607:Generated_Source\PSoC5/ADC_SAR_2.c **** *  ADC_SAR_2_countsPer10Volt variable initialized. This variable is used
 608:Generated_Source\PSoC5/ADC_SAR_2.c **** *  for gain calibration purpose.
 609:Generated_Source\PSoC5/ADC_SAR_2.c **** *
 610:Generated_Source\PSoC5/ADC_SAR_2.c **** *******************************************************************************/
 611:Generated_Source\PSoC5/ADC_SAR_2.c **** static void ADC_SAR_2_CalcGain( uint8 resolution )
 612:Generated_Source\PSoC5/ADC_SAR_2.c **** {
  27              		.loc 1 612 0
  28              		.cfi_startproc
  29              		@ args = 0, pretend = 0, frame = 0
  30              		@ frame_needed = 0, uses_anonymous_args = 0
  31              	.LVL0:
  32 0000 08B5     		push	{r3, lr}
  33              		.cfi_def_cfa_offset 8
  34              		.cfi_offset 3, -8
  35              		.cfi_offset 14, -4
 613:Generated_Source\PSoC5/ADC_SAR_2.c ****     int32 counts;
 614:Generated_Source\PSoC5/ADC_SAR_2.c ****     #if(!((ADC_SAR_2_DEFAULT_RANGE == ADC_SAR_2__VSS_TO_VREF) || \
 615:Generated_Source\PSoC5/ADC_SAR_2.c ****          (ADC_SAR_2_DEFAULT_RANGE == ADC_SAR_2__VSSA_TO_VDDA) || \
 616:Generated_Source\PSoC5/ADC_SAR_2.c ****          (ADC_SAR_2_DEFAULT_RANGE == ADC_SAR_2__VSSA_TO_VDAC)) )
 617:Generated_Source\PSoC5/ADC_SAR_2.c ****         uint16 diff_zero;
 618:Generated_Source\PSoC5/ADC_SAR_2.c ****     #endif /* End ADC_SAR_2_DEFAULT_RANGE */
 619:Generated_Source\PSoC5/ADC_SAR_2.c **** 
 620:Generated_Source\PSoC5/ADC_SAR_2.c ****     switch (resolution)
  36              		.loc 1 620 0
  37 0002 0A28     		cmp	r0, #10
  38 0004 13D0     		beq	.L6
  39 0006 0C28     		cmp	r0, #12
  40 0008 02D0     		beq	.L4
  41 000a 0828     		cmp	r0, #8
  42 000c 09D1     		bne	.L7
  43 000e 04E0     		b	.L5
  44              	.L4:
 621:Generated_Source\PSoC5/ADC_SAR_2.c ****     {
 622:Generated_Source\PSoC5/ADC_SAR_2.c ****         case (uint8)ADC_SAR_2__BITS_12:
 623:Generated_Source\PSoC5/ADC_SAR_2.c ****             counts = (int32)ADC_SAR_2_SAR_WRK_MAX_12BIT;
 624:Generated_Source\PSoC5/ADC_SAR_2.c ****             #if(!((ADC_SAR_2_DEFAULT_RANGE == ADC_SAR_2__VSS_TO_VREF) || \
 625:Generated_Source\PSoC5/ADC_SAR_2.c ****                  (ADC_SAR_2_DEFAULT_RANGE == ADC_SAR_2__VSSA_TO_VDDA) || \
 626:Generated_Source\PSoC5/ADC_SAR_2.c ****                  (ADC_SAR_2_DEFAULT_RANGE == ADC_SAR_2__VSSA_TO_VDAC)) )
 627:Generated_Source\PSoC5/ADC_SAR_2.c ****                 diff_zero = ADC_SAR_2_SAR_DIFF_SHIFT;
  45              		.loc 1 627 0
  46 0010 4FF40061 		mov	r1, #2048
 623:Generated_Source\PSoC5/ADC_SAR_2.c ****             #if(!((ADC_SAR_2_DEFAULT_RANGE == ADC_SAR_2__VSS_TO_VREF) || \
  47              		.loc 1 623 0
  48 0014 4FF48052 		mov	r2, #4096
  49 0018 0DE0     		b	.L3
  50              	.L5:
  51              	.LVL1:
 628:Generated_Source\PSoC5/ADC_SAR_2.c ****             #endif /* End ADC_SAR_2_DEFAULT_RANGE */
 629:Generated_Source\PSoC5/ADC_SAR_2.c ****             break;
 630:Generated_Source\PSoC5/ADC_SAR_2.c ****         case (uint8)ADC_SAR_2__BITS_10:
 631:Generated_Source\PSoC5/ADC_SAR_2.c ****             counts = (int32)ADC_SAR_2_SAR_WRK_MAX_10BIT;
 632:Generated_Source\PSoC5/ADC_SAR_2.c ****             #if(!((ADC_SAR_2_DEFAULT_RANGE == ADC_SAR_2__VSS_TO_VREF) || \
ARM GAS  C:\Users\FRANKL~1\AppData\Local\Temp\ccrxa7r6.s 			page 13


 633:Generated_Source\PSoC5/ADC_SAR_2.c ****                  (ADC_SAR_2_DEFAULT_RANGE == ADC_SAR_2__VSSA_TO_VDDA) || \
 634:Generated_Source\PSoC5/ADC_SAR_2.c ****                  (ADC_SAR_2_DEFAULT_RANGE == ADC_SAR_2__VSSA_TO_VDAC)) )
 635:Generated_Source\PSoC5/ADC_SAR_2.c ****                 diff_zero = ADC_SAR_2_SAR_DIFF_SHIFT >> 2u;
 636:Generated_Source\PSoC5/ADC_SAR_2.c ****             #endif /* End ADC_SAR_2_DEFAULT_RANGE */
 637:Generated_Source\PSoC5/ADC_SAR_2.c ****             break;
 638:Generated_Source\PSoC5/ADC_SAR_2.c ****         case (uint8)ADC_SAR_2__BITS_8:
 639:Generated_Source\PSoC5/ADC_SAR_2.c ****             counts = (int32)ADC_SAR_2_SAR_WRK_MAX_8BIT;
 640:Generated_Source\PSoC5/ADC_SAR_2.c ****             #if(!((ADC_SAR_2_DEFAULT_RANGE == ADC_SAR_2__VSS_TO_VREF) || \
 641:Generated_Source\PSoC5/ADC_SAR_2.c ****                  (ADC_SAR_2_DEFAULT_RANGE == ADC_SAR_2__VSSA_TO_VDDA) || \
 642:Generated_Source\PSoC5/ADC_SAR_2.c ****                  (ADC_SAR_2_DEFAULT_RANGE == ADC_SAR_2__VSSA_TO_VDAC)) )
 643:Generated_Source\PSoC5/ADC_SAR_2.c ****                 diff_zero = ADC_SAR_2_SAR_DIFF_SHIFT >> 4u;
  52              		.loc 1 643 0
  53 001a 8021     		movs	r1, #128
 639:Generated_Source\PSoC5/ADC_SAR_2.c ****             #if(!((ADC_SAR_2_DEFAULT_RANGE == ADC_SAR_2__VSS_TO_VREF) || \
  54              		.loc 1 639 0
  55 001c 4FF48072 		mov	r2, #256
 644:Generated_Source\PSoC5/ADC_SAR_2.c ****             #endif /* End ADC_SAR_2_DEFAULT_RANGE */
 645:Generated_Source\PSoC5/ADC_SAR_2.c ****             break;
  56              		.loc 1 645 0
  57 0020 09E0     		b	.L3
  58              	.LVL2:
  59              	.L7:
 646:Generated_Source\PSoC5/ADC_SAR_2.c ****         default: /* Halt CPU in debug mode if resolution is out of valid range */
 647:Generated_Source\PSoC5/ADC_SAR_2.c ****             counts = 0;
 648:Generated_Source\PSoC5/ADC_SAR_2.c ****             #if(!((ADC_SAR_2_DEFAULT_RANGE == ADC_SAR_2__VSS_TO_VREF) || \
 649:Generated_Source\PSoC5/ADC_SAR_2.c ****                  (ADC_SAR_2_DEFAULT_RANGE == ADC_SAR_2__VSSA_TO_VDDA) || \
 650:Generated_Source\PSoC5/ADC_SAR_2.c ****                  (ADC_SAR_2_DEFAULT_RANGE == ADC_SAR_2__VSSA_TO_VDAC)) )
 651:Generated_Source\PSoC5/ADC_SAR_2.c ****                 diff_zero = 0u;
 652:Generated_Source\PSoC5/ADC_SAR_2.c ****             #endif /* End ADC_SAR_2_DEFAULT_RANGE */
 653:Generated_Source\PSoC5/ADC_SAR_2.c ****             CYASSERT(0u != 0u);
  60              		.loc 1 653 0
  61 0022 0020     		movs	r0, #0
  62              	.LVL3:
  63 0024 FFF7FEFF 		bl	CyHalt
  64              	.LVL4:
 651:Generated_Source\PSoC5/ADC_SAR_2.c ****             #endif /* End ADC_SAR_2_DEFAULT_RANGE */
  65              		.loc 1 651 0
  66 0028 0021     		movs	r1, #0
 647:Generated_Source\PSoC5/ADC_SAR_2.c ****             #if(!((ADC_SAR_2_DEFAULT_RANGE == ADC_SAR_2__VSS_TO_VREF) || \
  67              		.loc 1 647 0
  68 002a 0A46     		mov	r2, r1
  69 002c 03E0     		b	.L3
  70              	.LVL5:
  71              	.L6:
 635:Generated_Source\PSoC5/ADC_SAR_2.c ****             #endif /* End ADC_SAR_2_DEFAULT_RANGE */
  72              		.loc 1 635 0
  73 002e 4FF40071 		mov	r1, #512
 631:Generated_Source\PSoC5/ADC_SAR_2.c ****             #if(!((ADC_SAR_2_DEFAULT_RANGE == ADC_SAR_2__VSS_TO_VREF) || \
  74              		.loc 1 631 0
  75 0032 4FF48062 		mov	r2, #1024
  76              	.LVL6:
  77              	.L3:
 654:Generated_Source\PSoC5/ADC_SAR_2.c ****             break;
 655:Generated_Source\PSoC5/ADC_SAR_2.c ****     }
 656:Generated_Source\PSoC5/ADC_SAR_2.c ****     ADC_SAR_2_countsPerVolt = 0; /* Clear obsolete variable */
  78              		.loc 1 656 0
  79 0036 0020     		movs	r0, #0
ARM GAS  C:\Users\FRANKL~1\AppData\Local\Temp\ccrxa7r6.s 			page 14


  80 0038 094B     		ldr	r3, .L9
  81 003a 1880     		strh	r0, [r3]	@ movhi
 657:Generated_Source\PSoC5/ADC_SAR_2.c ****     /* Calculate gain in counts per 10 volts with rounding */
 658:Generated_Source\PSoC5/ADC_SAR_2.c ****     ADC_SAR_2_countsPer10Volt = (((counts * ADC_SAR_2_10MV_COUNTS) +
  82              		.loc 1 658 0
  83 003c 41F28833 		movw	r3, #5000
  84 0040 42F21070 		movw	r0, #10000
  85 0044 00FB0233 		mla	r3, r0, r2, r3
 659:Generated_Source\PSoC5/ADC_SAR_2.c ****                         ADC_SAR_2_DEFAULT_REF_VOLTAGE_MV) / (ADC_SAR_2_DEFAULT_REF_VOLTAGE_MV * 2))
  86              		.loc 1 659 0
  87 0048 064A     		ldr	r2, .L9+4
  88              	.LVL7:
  89 004a 82FB0302 		smull	r0, r2, r2, r3
  90 004e DB17     		asrs	r3, r3, #31
  91 0050 C3EB2233 		rsb	r3, r3, r2, asr #12
 658:Generated_Source\PSoC5/ADC_SAR_2.c ****                         ADC_SAR_2_DEFAULT_REF_VOLTAGE_MV) / (ADC_SAR_2_DEFAULT_REF_VOLTAGE_MV * 2))
  92              		.loc 1 658 0
  93 0054 044A     		ldr	r2, .L9+8
  94 0056 1360     		str	r3, [r2]
 660:Generated_Source\PSoC5/ADC_SAR_2.c **** 
 661:Generated_Source\PSoC5/ADC_SAR_2.c ****     #if( (ADC_SAR_2_DEFAULT_RANGE == ADC_SAR_2__VSS_TO_VREF) || \
 662:Generated_Source\PSoC5/ADC_SAR_2.c ****          (ADC_SAR_2_DEFAULT_RANGE == ADC_SAR_2__VSSA_TO_VDDA) || \
 663:Generated_Source\PSoC5/ADC_SAR_2.c ****          (ADC_SAR_2_DEFAULT_RANGE == ADC_SAR_2__VSSA_TO_VDAC) )
 664:Generated_Source\PSoC5/ADC_SAR_2.c ****         ADC_SAR_2_shift = 0;
 665:Generated_Source\PSoC5/ADC_SAR_2.c ****     #else
 666:Generated_Source\PSoC5/ADC_SAR_2.c ****         ADC_SAR_2_shift = diff_zero;
  95              		.loc 1 666 0
  96 0058 09B2     		sxth	r1, r1
  97 005a 044B     		ldr	r3, .L9+12
  98 005c 1980     		strh	r1, [r3]	@ movhi
  99 005e 08BD     		pop	{r3, pc}
 100              	.L10:
 101              		.align	2
 102              	.L9:
 103 0060 00000000 		.word	ADC_SAR_2_countsPerVolt
 104 0064 AD8BDB68 		.word	1759218605
 105 0068 00000000 		.word	ADC_SAR_2_countsPer10Volt
 106 006c 00000000 		.word	ADC_SAR_2_shift
 107              		.cfi_endproc
 108              	.LFE12:
 109              		.size	ADC_SAR_2_CalcGain, .-ADC_SAR_2_CalcGain
 110              		.section	.text.ADC_SAR_2_Enable,"ax",%progbits
 111              		.align	2
 112              		.global	ADC_SAR_2_Enable
 113              		.thumb
 114              		.thumb_func
 115              		.type	ADC_SAR_2_Enable, %function
 116              	ADC_SAR_2_Enable:
 117              	.LFB2:
 144:Generated_Source\PSoC5/ADC_SAR_2.c ****     uint8 tmpReg;
 118              		.loc 1 144 0
 119              		.cfi_startproc
 120              		@ args = 0, pretend = 0, frame = 0
 121              		@ frame_needed = 0, uses_anonymous_args = 0
 122 0000 38B5     		push	{r3, r4, r5, lr}
 123              		.cfi_def_cfa_offset 16
 124              		.cfi_offset 3, -16
ARM GAS  C:\Users\FRANKL~1\AppData\Local\Temp\ccrxa7r6.s 			page 15


 125              		.cfi_offset 4, -12
 126              		.cfi_offset 5, -8
 127              		.cfi_offset 14, -4
 147:Generated_Source\PSoC5/ADC_SAR_2.c **** 
 128              		.loc 1 147 0
 129 0002 FFF7FEFF 		bl	CyEnterCriticalSection
 130              	.LVL8:
 131 0006 0446     		mov	r4, r0
 132              	.LVL9:
 150:Generated_Source\PSoC5/ADC_SAR_2.c **** 
 133              		.loc 1 150 0
 134 0008 1F4A     		ldr	r2, .L13
 135 000a 1378     		ldrb	r3, [r2]	@ zero_extendqisi2
 136 000c 43F00103 		orr	r3, r3, #1
 137 0010 1370     		strb	r3, [r2]
 153:Generated_Source\PSoC5/ADC_SAR_2.c **** 
 138              		.loc 1 153 0
 139 0012 1032     		adds	r2, r2, #16
 140 0014 1378     		ldrb	r3, [r2]	@ zero_extendqisi2
 141 0016 43F00103 		orr	r3, r3, #1
 142 001a 1370     		strb	r3, [r2]
 157:Generated_Source\PSoC5/ADC_SAR_2.c ****         ADC_SAR_2_STBY_PWRMGR_CLK_REG |= ADC_SAR_2_STBY_PWR_CLK_EN;
 143              		.loc 1 157 0
 144 001c 1A3A     		subs	r2, r2, #26
 145 001e 1378     		ldrb	r3, [r2]	@ zero_extendqisi2
 146 0020 43F00203 		orr	r3, r3, #2
 147 0024 1370     		strb	r3, [r2]
 158:Generated_Source\PSoC5/ADC_SAR_2.c ****     #endif /* End ADC_SAR_2_DEFAULT_INTERNAL_CLK */
 148              		.loc 1 158 0
 149 0026 1032     		adds	r2, r2, #16
 150 0028 1378     		ldrb	r3, [r2]	@ zero_extendqisi2
 151 002a 43F00203 		orr	r3, r3, #2
 152 002e 1370     		strb	r3, [r2]
 162:Generated_Source\PSoC5/ADC_SAR_2.c ****     tmpReg |= ADC_SAR_2_SAR_EN_BUF_VCM_EN;
 153              		.loc 1 162 0
 154 0030 02F5AA52 		add	r2, r2, #5440
 155 0034 1232     		adds	r2, r2, #18
 156 0036 1378     		ldrb	r3, [r2]	@ zero_extendqisi2
 157              	.LVL10:
 158 0038 03F0FE03 		and	r3, r3, #254
 159              	.LVL11:
 167:Generated_Source\PSoC5/ADC_SAR_2.c ****     #else /* In INTREF or INTREF Bypassed this buffer is ON */
 160              		.loc 1 167 0
 161 003c 43F00203 		orr	r3, r3, #2
 162              	.LVL12:
 171:Generated_Source\PSoC5/ADC_SAR_2.c **** 
 163              		.loc 1 171 0
 164 0040 1370     		strb	r3, [r2]
 178:Generated_Source\PSoC5/ADC_SAR_2.c ****         #endif /* ADC_SAR_2_DEFAULT_REFERENCE == ADC_SAR_2__EXT_REF */
 165              		.loc 1 178 0
 166 0042 8022     		movs	r2, #128
 167 0044 114B     		ldr	r3, .L13+4
 168              	.LVL13:
 169 0046 1A70     		strb	r2, [r3]
 170              	.LVL14:
 192:Generated_Source\PSoC5/ADC_SAR_2.c ****     #endif /* ADC_SAR_2_HIGH_POWER_PULSE == 0u */
 171              		.loc 1 192 0
ARM GAS  C:\Users\FRANKL~1\AppData\Local\Temp\ccrxa7r6.s 			page 16


 172 0048 013B     		subs	r3, r3, #1
 173 004a 1A78     		ldrb	r2, [r3]	@ zero_extendqisi2
 174 004c 42F04002 		orr	r2, r2, #64
 175 0050 1A70     		strb	r2, [r3]
 202:Generated_Source\PSoC5/ADC_SAR_2.c ****     #endif /* ADC_SAR_2_HIGH_POWER_PULSE == 0u */
 176              		.loc 1 202 0
 177 0052 1A78     		ldrb	r2, [r3]	@ zero_extendqisi2
 178 0054 02F0FC02 		and	r2, r2, #252
 179 0058 1A70     		strb	r2, [r3]
 206:Generated_Source\PSoC5/ADC_SAR_2.c ****     /* SAR_HIZ_CLEAR:   Should not be used for LP */
 180              		.loc 1 206 0
 181 005a C822     		movs	r2, #200
 182 005c 053B     		subs	r3, r3, #5
 183 005e 1A70     		strb	r2, [r3]
 218:Generated_Source\PSoC5/ADC_SAR_2.c **** 
 184              		.loc 1 218 0
 185 0060 0225     		movs	r5, #2
 186 0062 A3F59753 		sub	r3, r3, #4832
 187 0066 0C3B     		subs	r3, r3, #12
 188 0068 1D70     		strb	r5, [r3]
 221:Generated_Source\PSoC5/ADC_SAR_2.c **** 
 189              		.loc 1 221 0
 190 006a 094A     		ldr	r2, .L13+8
 191 006c 1378     		ldrb	r3, [r2]	@ zero_extendqisi2
 192 006e 43F00803 		orr	r3, r3, #8
 193 0072 1370     		strb	r3, [r2]
 223:Generated_Source\PSoC5/ADC_SAR_2.c **** 
 194              		.loc 1 223 0
 195 0074 0A20     		movs	r0, #10
 196 0076 FFF7FEFF 		bl	CyDelayUs
 197              	.LVL15:
 227:Generated_Source\PSoC5/ADC_SAR_2.c ****     #endif   /* End ADC_SAR_2_IRQ_REMOVE */
 198              		.loc 1 227 0
 199 007a 064B     		ldr	r3, .L13+12
 200 007c 1D60     		str	r5, [r3]
 230:Generated_Source\PSoC5/ADC_SAR_2.c **** }
 201              		.loc 1 230 0
 202 007e 2046     		mov	r0, r4
 203 0080 FFF7FEFF 		bl	CyExitCriticalSection
 204              	.LVL16:
 205 0084 38BD     		pop	{r3, r4, r5, pc}
 206              	.LVL17:
 207              	.L14:
 208 0086 00BF     		.align	2
 209              	.L13:
 210 0088 AB430040 		.word	1073759147
 211 008c 06590040 		.word	1073764614
 212 0090 275B0040 		.word	1073765159
 213 0094 80E200E0 		.word	-536812928
 214              		.cfi_endproc
 215              	.LFE2:
 216              		.size	ADC_SAR_2_Enable, .-ADC_SAR_2_Enable
 217              		.section	.text.ADC_SAR_2_Stop,"ax",%progbits
 218              		.align	2
 219              		.global	ADC_SAR_2_Stop
 220              		.thumb
 221              		.thumb_func
ARM GAS  C:\Users\FRANKL~1\AppData\Local\Temp\ccrxa7r6.s 			page 17


 222              		.type	ADC_SAR_2_Stop, %function
 223              	ADC_SAR_2_Stop:
 224              	.LFB3:
 249:Generated_Source\PSoC5/ADC_SAR_2.c ****     uint8 enableInterrupts;
 225              		.loc 1 249 0
 226              		.cfi_startproc
 227              		@ args = 0, pretend = 0, frame = 0
 228              		@ frame_needed = 0, uses_anonymous_args = 0
 229 0000 08B5     		push	{r3, lr}
 230              		.cfi_def_cfa_offset 8
 231              		.cfi_offset 3, -8
 232              		.cfi_offset 14, -4
 251:Generated_Source\PSoC5/ADC_SAR_2.c **** 
 233              		.loc 1 251 0
 234 0002 FFF7FEFF 		bl	CyEnterCriticalSection
 235              	.LVL18:
 254:Generated_Source\PSoC5/ADC_SAR_2.c ****     /* Disable the SAR ADC block in Active Power Mode */
 236              		.loc 1 254 0
 237 0006 0F4A     		ldr	r2, .L17
 238 0008 1378     		ldrb	r3, [r2]	@ zero_extendqisi2
 239 000a 03F0FE03 		and	r3, r3, #254
 240 000e 1370     		strb	r3, [r2]
 256:Generated_Source\PSoC5/ADC_SAR_2.c ****     /* Disable the SAR ADC in Standby Power Mode */
 241              		.loc 1 256 0
 242 0010 A2F5AA52 		sub	r2, r2, #5440
 243 0014 153A     		subs	r2, r2, #21
 244 0016 1378     		ldrb	r3, [r2]	@ zero_extendqisi2
 245 0018 03F0FE03 		and	r3, r3, #254
 246 001c 1370     		strb	r3, [r2]
 258:Generated_Source\PSoC5/ADC_SAR_2.c **** 
 247              		.loc 1 258 0
 248 001e 1032     		adds	r2, r2, #16
 249 0020 1378     		ldrb	r3, [r2]	@ zero_extendqisi2
 250 0022 03F0FE03 		and	r3, r3, #254
 251 0026 1370     		strb	r3, [r2]
 262:Generated_Source\PSoC5/ADC_SAR_2.c ****         ADC_SAR_2_STBY_PWRMGR_CLK_REG &= (uint8)~ADC_SAR_2_STBY_PWR_CLK_EN;
 252              		.loc 1 262 0
 253 0028 1A3A     		subs	r2, r2, #26
 254 002a 1378     		ldrb	r3, [r2]	@ zero_extendqisi2
 255 002c 03F0FD03 		and	r3, r3, #253
 256 0030 1370     		strb	r3, [r2]
 263:Generated_Source\PSoC5/ADC_SAR_2.c ****     #endif /* End ADC_SAR_2_DEFAULT_INTERNAL_CLK */
 257              		.loc 1 263 0
 258 0032 1032     		adds	r2, r2, #16
 259 0034 1378     		ldrb	r3, [r2]	@ zero_extendqisi2
 260 0036 03F0FD03 		and	r3, r3, #253
 261 003a 1370     		strb	r3, [r2]
 266:Generated_Source\PSoC5/ADC_SAR_2.c **** 
 262              		.loc 1 266 0
 263 003c FFF7FEFF 		bl	CyExitCriticalSection
 264              	.LVL19:
 265 0040 08BD     		pop	{r3, pc}
 266              	.L18:
 267 0042 00BF     		.align	2
 268              	.L17:
 269 0044 00590040 		.word	1073764608
 270              		.cfi_endproc
ARM GAS  C:\Users\FRANKL~1\AppData\Local\Temp\ccrxa7r6.s 			page 18


 271              	.LFE3:
 272              		.size	ADC_SAR_2_Stop, .-ADC_SAR_2_Stop
 273              		.section	.text.ADC_SAR_2_SetPower,"ax",%progbits
 274              		.align	2
 275              		.global	ADC_SAR_2_SetPower
 276              		.thumb
 277              		.thumb_func
 278              		.type	ADC_SAR_2_SetPower, %function
 279              	ADC_SAR_2_SetPower:
 280              	.LFB4:
 291:Generated_Source\PSoC5/ADC_SAR_2.c ****     uint8 tmpReg;
 281              		.loc 1 291 0
 282              		.cfi_startproc
 283              		@ args = 0, pretend = 0, frame = 0
 284              		@ frame_needed = 0, uses_anonymous_args = 0
 285              		@ link register save eliminated.
 286              	.LVL20:
 298:Generated_Source\PSoC5/ADC_SAR_2.c ****     tmpReg |= (uint8)(power << ADC_SAR_2_SAR_POWER_SHIFT);
 287              		.loc 1 298 0
 288 0000 044A     		ldr	r2, .L20
 289 0002 1378     		ldrb	r3, [r2]	@ zero_extendqisi2
 290 0004 03F03F03 		and	r3, r3, #63
 291              	.LVL21:
 299:Generated_Source\PSoC5/ADC_SAR_2.c ****     ADC_SAR_2_SAR_CSR0_REG = tmpReg;
 292              		.loc 1 299 0
 293 0008 43EA8010 		orr	r0, r3, r0, lsl #6
 294              	.LVL22:
 295 000c C0B2     		uxtb	r0, r0
 296              	.LVL23:
 300:Generated_Source\PSoC5/ADC_SAR_2.c **** }
 297              		.loc 1 300 0
 298 000e 1070     		strb	r0, [r2]
 299 0010 7047     		bx	lr
 300              	.L21:
 301 0012 00BF     		.align	2
 302              	.L20:
 303 0014 00590040 		.word	1073764608
 304              		.cfi_endproc
 305              	.LFE4:
 306              		.size	ADC_SAR_2_SetPower, .-ADC_SAR_2_SetPower
 307              		.section	.text.ADC_SAR_2_SetResolution,"ax",%progbits
 308              		.align	2
 309              		.global	ADC_SAR_2_SetResolution
 310              		.thumb
 311              		.thumb_func
 312              		.type	ADC_SAR_2_SetResolution, %function
 313              	ADC_SAR_2_SetResolution:
 314              	.LFB5:
 341:Generated_Source\PSoC5/ADC_SAR_2.c ****     uint8 tmpReg;
 315              		.loc 1 341 0
 316              		.cfi_startproc
 317              		@ args = 0, pretend = 0, frame = 0
 318              		@ frame_needed = 0, uses_anonymous_args = 0
 319              	.LVL24:
 320 0000 10B5     		push	{r4, lr}
 321              		.cfi_def_cfa_offset 8
 322              		.cfi_offset 4, -8
ARM GAS  C:\Users\FRANKL~1\AppData\Local\Temp\ccrxa7r6.s 			page 19


 323              		.cfi_offset 14, -4
 324 0002 0446     		mov	r4, r0
 345:Generated_Source\PSoC5/ADC_SAR_2.c ****     {
 325              		.loc 1 345 0
 326 0004 0A28     		cmp	r0, #10
 327 0006 0DD0     		beq	.L27
 328 0008 0C28     		cmp	r0, #12
 329 000a 02D0     		beq	.L25
 330 000c 0828     		cmp	r0, #8
 331 000e 04D1     		bne	.L28
 332 0010 01E0     		b	.L26
 333              	.L25:
 348:Generated_Source\PSoC5/ADC_SAR_2.c ****             break;
 334              		.loc 1 348 0
 335 0012 C422     		movs	r2, #196
 336 0014 07E0     		b	.L24
 337              	.L26:
 338              	.LVL25:
 354:Generated_Source\PSoC5/ADC_SAR_2.c ****             break;
 339              		.loc 1 354 0
 340 0016 4422     		movs	r2, #68
 355:Generated_Source\PSoC5/ADC_SAR_2.c ****         default:
 341              		.loc 1 355 0
 342 0018 05E0     		b	.L24
 343              	.LVL26:
 344              	.L28:
 359:Generated_Source\PSoC5/ADC_SAR_2.c ****             break;
 345              		.loc 1 359 0
 346 001a 0020     		movs	r0, #0
 347              	.LVL27:
 348 001c FFF7FEFF 		bl	CyHalt
 349              	.LVL28:
 357:Generated_Source\PSoC5/ADC_SAR_2.c ****             /* Halt CPU in debug mode if resolution is out of valid range */
 350              		.loc 1 357 0
 351 0020 C422     		movs	r2, #196
 352 0022 00E0     		b	.L24
 353              	.LVL29:
 354              	.L27:
 351:Generated_Source\PSoC5/ADC_SAR_2.c ****             break;
 355              		.loc 1 351 0
 356 0024 8422     		movs	r2, #132
 357              	.LVL30:
 358              	.L24:
 362:Generated_Source\PSoC5/ADC_SAR_2.c **** 
 359              		.loc 1 362 0
 360 0026 034B     		ldr	r3, .L30
 361 0028 1A70     		strb	r2, [r3]
 365:Generated_Source\PSoC5/ADC_SAR_2.c **** }
 362              		.loc 1 365 0
 363 002a 2046     		mov	r0, r4
 364 002c FFF7FEFF 		bl	ADC_SAR_2_CalcGain
 365              	.LVL31:
 366 0030 10BD     		pop	{r4, pc}
 367              	.L31:
 368 0032 00BF     		.align	2
 369              	.L30:
 370 0034 02590040 		.word	1073764610
ARM GAS  C:\Users\FRANKL~1\AppData\Local\Temp\ccrxa7r6.s 			page 20


 371              		.cfi_endproc
 372              	.LFE5:
 373              		.size	ADC_SAR_2_SetResolution, .-ADC_SAR_2_SetResolution
 374              		.section	.text.ADC_SAR_2_Init,"ax",%progbits
 375              		.align	2
 376              		.global	ADC_SAR_2_Init
 377              		.thumb
 378              		.thumb_func
 379              		.type	ADC_SAR_2_Init, %function
 380              	ADC_SAR_2_Init:
 381              	.LFB1:
 107:Generated_Source\PSoC5/ADC_SAR_2.c **** 
 382              		.loc 1 107 0
 383              		.cfi_startproc
 384              		@ args = 0, pretend = 0, frame = 0
 385              		@ frame_needed = 0, uses_anonymous_args = 0
 386 0000 08B5     		push	{r3, lr}
 387              		.cfi_def_cfa_offset 8
 388              		.cfi_offset 3, -8
 389              		.cfi_offset 14, -4
 111:Generated_Source\PSoC5/ADC_SAR_2.c ****     #endif /* End ADC_SAR_2_DEFAULT_INTERNAL_CLK */
 390              		.loc 1 111 0
 391 0002 1020     		movs	r0, #16
 392 0004 FFF7FEFF 		bl	ADC_SAR_2_theACLK_SetModeRegister
 393              	.LVL32:
 116:Generated_Source\PSoC5/ADC_SAR_2.c ****         (void)CyIntSetVector(ADC_SAR_2_INTC_NUMBER, &ADC_SAR_2_ISR);
 394              		.loc 1 116 0
 395 0008 0721     		movs	r1, #7
 396 000a 0120     		movs	r0, #1
 397 000c FFF7FEFF 		bl	CyIntSetPriority
 398              	.LVL33:
 117:Generated_Source\PSoC5/ADC_SAR_2.c ****     #endif   /* End ADC_SAR_2_IRQ_REMOVE */
 399              		.loc 1 117 0
 400 0010 0749     		ldr	r1, .L34
 401 0012 0120     		movs	r0, #1
 402 0014 FFF7FEFF 		bl	CyIntSetVector
 403              	.LVL34:
 121:Generated_Source\PSoC5/ADC_SAR_2.c **** 
 404              		.loc 1 121 0
 405 0018 064A     		ldr	r2, .L34+4
 406 001a 1378     		ldrb	r3, [r2]	@ zero_extendqisi2
 407 001c 43F00603 		orr	r3, r3, #6
 408 0020 1370     		strb	r3, [r2]
 124:Generated_Source\PSoC5/ADC_SAR_2.c ****     ADC_SAR_2_offset = 0;
 409              		.loc 1 124 0
 410 0022 0C20     		movs	r0, #12
 411 0024 FFF7FEFF 		bl	ADC_SAR_2_SetResolution
 412              	.LVL35:
 125:Generated_Source\PSoC5/ADC_SAR_2.c **** }
 413              		.loc 1 125 0
 414 0028 0022     		movs	r2, #0
 415 002a 034B     		ldr	r3, .L34+8
 416 002c 1A80     		strh	r2, [r3]	@ movhi
 417 002e 08BD     		pop	{r3, pc}
 418              	.L35:
 419              		.align	2
 420              	.L34:
ARM GAS  C:\Users\FRANKL~1\AppData\Local\Temp\ccrxa7r6.s 			page 21


 421 0030 00000000 		.word	ADC_SAR_2_ISR
 422 0034 01590040 		.word	1073764609
 423 0038 00000000 		.word	ADC_SAR_2_offset
 424              		.cfi_endproc
 425              	.LFE1:
 426              		.size	ADC_SAR_2_Init, .-ADC_SAR_2_Init
 427              		.section	.text.ADC_SAR_2_Start,"ax",%progbits
 428              		.align	2
 429              		.global	ADC_SAR_2_Start
 430              		.thumb
 431              		.thumb_func
 432              		.type	ADC_SAR_2_Start, %function
 433              	ADC_SAR_2_Start:
 434              	.LFB0:
  75:Generated_Source\PSoC5/ADC_SAR_2.c **** 
 435              		.loc 1 75 0
 436              		.cfi_startproc
 437              		@ args = 0, pretend = 0, frame = 0
 438              		@ frame_needed = 0, uses_anonymous_args = 0
 439 0000 08B5     		push	{r3, lr}
 440              		.cfi_def_cfa_offset 8
 441              		.cfi_offset 3, -8
 442              		.cfi_offset 14, -4
  78:Generated_Source\PSoC5/ADC_SAR_2.c ****     {
 443              		.loc 1 78 0
 444 0002 054B     		ldr	r3, .L39
 445 0004 1B78     		ldrb	r3, [r3]	@ zero_extendqisi2
 446 0006 23B9     		cbnz	r3, .L37
  80:Generated_Source\PSoC5/ADC_SAR_2.c ****         ADC_SAR_2_initVar = 1u;
 447              		.loc 1 80 0
 448 0008 FFF7FEFF 		bl	ADC_SAR_2_Init
 449              	.LVL36:
  81:Generated_Source\PSoC5/ADC_SAR_2.c ****     }
 450              		.loc 1 81 0
 451 000c 0122     		movs	r2, #1
 452 000e 024B     		ldr	r3, .L39
 453 0010 1A70     		strb	r2, [r3]
 454              	.L37:
  83:Generated_Source\PSoC5/ADC_SAR_2.c **** }
 455              		.loc 1 83 0
 456 0012 FFF7FEFF 		bl	ADC_SAR_2_Enable
 457              	.LVL37:
 458 0016 08BD     		pop	{r3, pc}
 459              	.L40:
 460              		.align	2
 461              	.L39:
 462 0018 00000000 		.word	.LANCHOR0
 463              		.cfi_endproc
 464              	.LFE0:
 465              		.size	ADC_SAR_2_Start, .-ADC_SAR_2_Start
 466              		.section	.text.ADC_SAR_2_StartConvert,"ax",%progbits
 467              		.align	2
 468              		.global	ADC_SAR_2_StartConvert
 469              		.thumb
 470              		.thumb_func
 471              		.type	ADC_SAR_2_StartConvert, %function
 472              	ADC_SAR_2_StartConvert:
ARM GAS  C:\Users\FRANKL~1\AppData\Local\Temp\ccrxa7r6.s 			page 22


 473              	.LFB6:
 402:Generated_Source\PSoC5/ADC_SAR_2.c ****         #if(ADC_SAR_2_DEFAULT_CONV_MODE != ADC_SAR_2__FREE_RUNNING)  /* If software triggered mode 
 474              		.loc 1 402 0
 475              		.cfi_startproc
 476              		@ args = 0, pretend = 0, frame = 0
 477              		@ frame_needed = 0, uses_anonymous_args = 0
 478              		@ link register save eliminated.
 408:Generated_Source\PSoC5/ADC_SAR_2.c ****     }
 479              		.loc 1 408 0
 480 0000 024A     		ldr	r2, .L42
 481 0002 1378     		ldrb	r3, [r2]	@ zero_extendqisi2
 482 0004 43F00103 		orr	r3, r3, #1
 483 0008 1370     		strb	r3, [r2]
 484 000a 7047     		bx	lr
 485              	.L43:
 486              		.align	2
 487              	.L42:
 488 000c 00590040 		.word	1073764608
 489              		.cfi_endproc
 490              	.LFE6:
 491              		.size	ADC_SAR_2_StartConvert, .-ADC_SAR_2_StartConvert
 492              		.section	.text.ADC_SAR_2_StopConvert,"ax",%progbits
 493              		.align	2
 494              		.global	ADC_SAR_2_StopConvert
 495              		.thumb
 496              		.thumb_func
 497              		.type	ADC_SAR_2_StopConvert, %function
 498              	ADC_SAR_2_StopConvert:
 499              	.LFB7:
 436:Generated_Source\PSoC5/ADC_SAR_2.c ****         /* Stop all conversions */
 500              		.loc 1 436 0
 501              		.cfi_startproc
 502              		@ args = 0, pretend = 0, frame = 0
 503              		@ frame_needed = 0, uses_anonymous_args = 0
 504              		@ link register save eliminated.
 438:Generated_Source\PSoC5/ADC_SAR_2.c **** 
 505              		.loc 1 438 0
 506 0000 024A     		ldr	r2, .L45
 507 0002 1378     		ldrb	r3, [r2]	@ zero_extendqisi2
 508 0004 03F0FE03 		and	r3, r3, #254
 509 0008 1370     		strb	r3, [r2]
 510 000a 7047     		bx	lr
 511              	.L46:
 512              		.align	2
 513              	.L45:
 514 000c 00590040 		.word	1073764608
 515              		.cfi_endproc
 516              	.LFE7:
 517              		.size	ADC_SAR_2_StopConvert, .-ADC_SAR_2_StopConvert
 518              		.section	.text.ADC_SAR_2_IsEndConversion,"ax",%progbits
 519              		.align	2
 520              		.global	ADC_SAR_2_IsEndConversion
 521              		.thumb
 522              		.thumb_func
 523              		.type	ADC_SAR_2_IsEndConversion, %function
 524              	ADC_SAR_2_IsEndConversion:
 525              	.LFB8:
ARM GAS  C:\Users\FRANKL~1\AppData\Local\Temp\ccrxa7r6.s 			page 23


 476:Generated_Source\PSoC5/ADC_SAR_2.c ****     uint8 status;
 526              		.loc 1 476 0
 527              		.cfi_startproc
 528              		@ args = 0, pretend = 0, frame = 0
 529              		@ frame_needed = 0, uses_anonymous_args = 0
 530              	.LVL38:
 531 0000 10B5     		push	{r4, lr}
 532              		.cfi_def_cfa_offset 8
 533              		.cfi_offset 4, -8
 534              		.cfi_offset 14, -4
 535              	.L49:
 481:Generated_Source\PSoC5/ADC_SAR_2.c ****     } while ((status != ADC_SAR_2_SAR_EOF_1) && (retMode == ADC_SAR_2_WAIT_FOR_RESULT));
 536              		.loc 1 481 0 discriminator 2
 537 0002 074B     		ldr	r3, .L52
 538 0004 1B78     		ldrb	r3, [r3]	@ zero_extendqisi2
 539              	.LVL39:
 482:Generated_Source\PSoC5/ADC_SAR_2.c ****     /* If convertion complete, wait until EOF bit released */
 540              		.loc 1 482 0 discriminator 2
 541 0006 13F00104 		ands	r4, r3, #1
 542 000a 01D1     		bne	.L48
 482:Generated_Source\PSoC5/ADC_SAR_2.c ****     /* If convertion complete, wait until EOF bit released */
 543              		.loc 1 482 0 is_stmt 0 discriminator 1
 544 000c 0028     		cmp	r0, #0
 545 000e F8D0     		beq	.L49
 546              	.L48:
 484:Generated_Source\PSoC5/ADC_SAR_2.c ****     {
 547              		.loc 1 484 0 is_stmt 1
 548 0010 24B1     		cbz	r4, .L50
 487:Generated_Source\PSoC5/ADC_SAR_2.c ****         /* Do the unconditional read operation of the CSR1 register to make sure the EOC bit has be
 549              		.loc 1 487 0
 550 0012 0120     		movs	r0, #1
 551              	.LVL40:
 552 0014 FFF7FEFF 		bl	CyDelayUs
 553              	.LVL41:
 489:Generated_Source\PSoC5/ADC_SAR_2.c ****     }
 554              		.loc 1 489 0
 555 0018 014B     		ldr	r3, .L52
 556 001a 1B78     		ldrb	r3, [r3]	@ zero_extendqisi2
 557              	.L50:
 493:Generated_Source\PSoC5/ADC_SAR_2.c **** 
 558              		.loc 1 493 0
 559 001c 2046     		mov	r0, r4
 560 001e 10BD     		pop	{r4, pc}
 561              	.L53:
 562              		.align	2
 563              	.L52:
 564 0020 01590040 		.word	1073764609
 565              		.cfi_endproc
 566              	.LFE8:
 567              		.size	ADC_SAR_2_IsEndConversion, .-ADC_SAR_2_IsEndConversion
 568              		.section	.text.ADC_SAR_2_GetResult8,"ax",%progbits
 569              		.align	2
 570              		.global	ADC_SAR_2_GetResult8
 571              		.thumb
 572              		.thumb_func
 573              		.type	ADC_SAR_2_GetResult8, %function
 574              	ADC_SAR_2_GetResult8:
ARM GAS  C:\Users\FRANKL~1\AppData\Local\Temp\ccrxa7r6.s 			page 24


 575              	.LFB9:
 521:Generated_Source\PSoC5/ADC_SAR_2.c ****     return( (int8)ADC_SAR_2_SAR_WRK0_REG - (int8)ADC_SAR_2_shift);
 576              		.loc 1 521 0
 577              		.cfi_startproc
 578              		@ args = 0, pretend = 0, frame = 0
 579              		@ frame_needed = 0, uses_anonymous_args = 0
 580              		@ link register save eliminated.
 522:Generated_Source\PSoC5/ADC_SAR_2.c **** }
 581              		.loc 1 522 0
 582 0000 034B     		ldr	r3, .L55
 583 0002 1B78     		ldrb	r3, [r3]	@ zero_extendqisi2
 584 0004 034A     		ldr	r2, .L55+4
 585 0006 1088     		ldrh	r0, [r2]
 586 0008 00B2     		sxth	r0, r0
 587 000a 181A     		subs	r0, r3, r0
 523:Generated_Source\PSoC5/ADC_SAR_2.c **** 
 588              		.loc 1 523 0
 589 000c 40B2     		sxtb	r0, r0
 590 000e 7047     		bx	lr
 591              	.L56:
 592              		.align	2
 593              	.L55:
 594 0010 A05B0040 		.word	1073765280
 595 0014 00000000 		.word	ADC_SAR_2_shift
 596              		.cfi_endproc
 597              	.LFE9:
 598              		.size	ADC_SAR_2_GetResult8, .-ADC_SAR_2_GetResult8
 599              		.section	.text.ADC_SAR_2_GetResult16,"ax",%progbits
 600              		.align	2
 601              		.global	ADC_SAR_2_GetResult16
 602              		.thumb
 603              		.thumb_func
 604              		.type	ADC_SAR_2_GetResult16, %function
 605              	ADC_SAR_2_GetResult16:
 606              	.LFB10:
 551:Generated_Source\PSoC5/ADC_SAR_2.c ****     uint16 res;
 607              		.loc 1 551 0
 608              		.cfi_startproc
 609              		@ args = 0, pretend = 0, frame = 0
 610              		@ frame_needed = 0, uses_anonymous_args = 0
 611              		@ link register save eliminated.
 554:Generated_Source\PSoC5/ADC_SAR_2.c **** 
 612              		.loc 1 554 0
 613 0000 034B     		ldr	r3, .L58
 614 0002 1888     		ldrh	r0, [r3]
 615 0004 80B2     		uxth	r0, r0
 616              	.LVL42:
 556:Generated_Source\PSoC5/ADC_SAR_2.c **** }
 617              		.loc 1 556 0
 618 0006 034B     		ldr	r3, .L58+4
 619 0008 1B88     		ldrh	r3, [r3]
 620 000a C01A     		subs	r0, r0, r3
 621              	.LVL43:
 557:Generated_Source\PSoC5/ADC_SAR_2.c **** 
 622              		.loc 1 557 0
 623 000c 00B2     		sxth	r0, r0
 624 000e 7047     		bx	lr
ARM GAS  C:\Users\FRANKL~1\AppData\Local\Temp\ccrxa7r6.s 			page 25


 625              	.L59:
 626              		.align	2
 627              	.L58:
 628 0010 A05B0040 		.word	1073765280
 629 0014 00000000 		.word	ADC_SAR_2_shift
 630              		.cfi_endproc
 631              	.LFE10:
 632              		.size	ADC_SAR_2_GetResult16, .-ADC_SAR_2_GetResult16
 633              		.section	.text.ADC_SAR_2_SetOffset,"ax",%progbits
 634              		.align	2
 635              		.global	ADC_SAR_2_SetOffset
 636              		.thumb
 637              		.thumb_func
 638              		.type	ADC_SAR_2_SetOffset, %function
 639              	ADC_SAR_2_SetOffset:
 640              	.LFB11:
 586:Generated_Source\PSoC5/ADC_SAR_2.c ****     ADC_SAR_2_offset = offset;
 641              		.loc 1 586 0
 642              		.cfi_startproc
 643              		@ args = 0, pretend = 0, frame = 0
 644              		@ frame_needed = 0, uses_anonymous_args = 0
 645              		@ link register save eliminated.
 646              	.LVL44:
 587:Generated_Source\PSoC5/ADC_SAR_2.c **** }
 647              		.loc 1 587 0
 648 0000 014B     		ldr	r3, .L61
 649 0002 1880     		strh	r0, [r3]	@ movhi
 650 0004 7047     		bx	lr
 651              	.L62:
 652 0006 00BF     		.align	2
 653              	.L61:
 654 0008 00000000 		.word	ADC_SAR_2_offset
 655              		.cfi_endproc
 656              	.LFE11:
 657              		.size	ADC_SAR_2_SetOffset, .-ADC_SAR_2_SetOffset
 658              		.section	.text.ADC_SAR_2_SetGain,"ax",%progbits
 659              		.align	2
 660              		.global	ADC_SAR_2_SetGain
 661              		.thumb
 662              		.thumb_func
 663              		.type	ADC_SAR_2_SetGain, %function
 664              	ADC_SAR_2_SetGain:
 665              	.LFB13:
 667:Generated_Source\PSoC5/ADC_SAR_2.c ****     #endif /* End ADC_SAR_2_DEFAULT_RANGE */
 668:Generated_Source\PSoC5/ADC_SAR_2.c **** }
 669:Generated_Source\PSoC5/ADC_SAR_2.c **** 
 670:Generated_Source\PSoC5/ADC_SAR_2.c **** 
 671:Generated_Source\PSoC5/ADC_SAR_2.c **** /*******************************************************************************
 672:Generated_Source\PSoC5/ADC_SAR_2.c **** * Function Name: ADC_SAR_2_SetGain
 673:Generated_Source\PSoC5/ADC_SAR_2.c **** ********************************************************************************
 674:Generated_Source\PSoC5/ADC_SAR_2.c **** *
 675:Generated_Source\PSoC5/ADC_SAR_2.c **** * Summary:
 676:Generated_Source\PSoC5/ADC_SAR_2.c **** *  Sets the ADC gain in counts per volt for the voltage conversion functions
 677:Generated_Source\PSoC5/ADC_SAR_2.c **** *  that follow. This value is set by default by the reference and input range
 678:Generated_Source\PSoC5/ADC_SAR_2.c **** *  settings. It should only be used to further calibrate the ADC with a known
 679:Generated_Source\PSoC5/ADC_SAR_2.c **** *  input or if the ADC is using an external reference.
 680:Generated_Source\PSoC5/ADC_SAR_2.c **** *
ARM GAS  C:\Users\FRANKL~1\AppData\Local\Temp\ccrxa7r6.s 			page 26


 681:Generated_Source\PSoC5/ADC_SAR_2.c **** * Parameters:
 682:Generated_Source\PSoC5/ADC_SAR_2.c **** *  int16 adcGain counts per volt
 683:Generated_Source\PSoC5/ADC_SAR_2.c **** *
 684:Generated_Source\PSoC5/ADC_SAR_2.c **** * Return:
 685:Generated_Source\PSoC5/ADC_SAR_2.c **** *  None.
 686:Generated_Source\PSoC5/ADC_SAR_2.c **** *
 687:Generated_Source\PSoC5/ADC_SAR_2.c **** * Global Variables:
 688:Generated_Source\PSoC5/ADC_SAR_2.c **** *  ADC_SAR_2_countsPer10Volt variable modified. This variable is used
 689:Generated_Source\PSoC5/ADC_SAR_2.c **** *  for gain calibration purpose.
 690:Generated_Source\PSoC5/ADC_SAR_2.c **** *
 691:Generated_Source\PSoC5/ADC_SAR_2.c **** *******************************************************************************/
 692:Generated_Source\PSoC5/ADC_SAR_2.c **** void ADC_SAR_2_SetGain(int16 adcGain)
 693:Generated_Source\PSoC5/ADC_SAR_2.c **** {
 666              		.loc 1 693 0
 667              		.cfi_startproc
 668              		@ args = 0, pretend = 0, frame = 0
 669              		@ frame_needed = 0, uses_anonymous_args = 0
 670              		@ link register save eliminated.
 671              	.LVL45:
 694:Generated_Source\PSoC5/ADC_SAR_2.c ****     ADC_SAR_2_countsPer10Volt = (int32)adcGain * 10;
 672              		.loc 1 694 0
 673 0000 00EB8000 		add	r0, r0, r0, lsl #2
 674              	.LVL46:
 675 0004 4300     		lsls	r3, r0, #1
 676 0006 014A     		ldr	r2, .L64
 677 0008 1360     		str	r3, [r2]
 678 000a 7047     		bx	lr
 679              	.L65:
 680              		.align	2
 681              	.L64:
 682 000c 00000000 		.word	ADC_SAR_2_countsPer10Volt
 683              		.cfi_endproc
 684              	.LFE13:
 685              		.size	ADC_SAR_2_SetGain, .-ADC_SAR_2_SetGain
 686              		.section	.text.ADC_SAR_2_SetScaledGain,"ax",%progbits
 687              		.align	2
 688              		.global	ADC_SAR_2_SetScaledGain
 689              		.thumb
 690              		.thumb_func
 691              		.type	ADC_SAR_2_SetScaledGain, %function
 692              	ADC_SAR_2_SetScaledGain:
 693              	.LFB14:
 695:Generated_Source\PSoC5/ADC_SAR_2.c **** }
 696:Generated_Source\PSoC5/ADC_SAR_2.c **** 
 697:Generated_Source\PSoC5/ADC_SAR_2.c **** 
 698:Generated_Source\PSoC5/ADC_SAR_2.c **** /*******************************************************************************
 699:Generated_Source\PSoC5/ADC_SAR_2.c **** * Function Name: ADC_SAR_2_SetScaledGain
 700:Generated_Source\PSoC5/ADC_SAR_2.c **** ********************************************************************************
 701:Generated_Source\PSoC5/ADC_SAR_2.c **** *
 702:Generated_Source\PSoC5/ADC_SAR_2.c **** * Summary:
 703:Generated_Source\PSoC5/ADC_SAR_2.c **** *  Sets the ADC gain in counts per 10 volt for the voltage conversion functions
 704:Generated_Source\PSoC5/ADC_SAR_2.c **** *  that follow. This value is set by default by the reference and input range
 705:Generated_Source\PSoC5/ADC_SAR_2.c **** *  settings. It should only be used to further calibrate the ADC with a known
 706:Generated_Source\PSoC5/ADC_SAR_2.c **** *  input or if the ADC is using an external reference.
 707:Generated_Source\PSoC5/ADC_SAR_2.c **** *
 708:Generated_Source\PSoC5/ADC_SAR_2.c **** * Parameters:
 709:Generated_Source\PSoC5/ADC_SAR_2.c **** *  int32 adcGain  counts per 10 volt
ARM GAS  C:\Users\FRANKL~1\AppData\Local\Temp\ccrxa7r6.s 			page 27


 710:Generated_Source\PSoC5/ADC_SAR_2.c **** *
 711:Generated_Source\PSoC5/ADC_SAR_2.c **** * Return:
 712:Generated_Source\PSoC5/ADC_SAR_2.c **** *  None.
 713:Generated_Source\PSoC5/ADC_SAR_2.c **** *
 714:Generated_Source\PSoC5/ADC_SAR_2.c **** * Global Variables:
 715:Generated_Source\PSoC5/ADC_SAR_2.c **** *  ADC_SAR_2_countsPer10Volt variable modified. This variable is used
 716:Generated_Source\PSoC5/ADC_SAR_2.c **** *  for gain calibration purpose.
 717:Generated_Source\PSoC5/ADC_SAR_2.c **** *
 718:Generated_Source\PSoC5/ADC_SAR_2.c **** *******************************************************************************/
 719:Generated_Source\PSoC5/ADC_SAR_2.c **** void ADC_SAR_2_SetScaledGain(int32 adcGain)
 720:Generated_Source\PSoC5/ADC_SAR_2.c **** {
 694              		.loc 1 720 0
 695              		.cfi_startproc
 696              		@ args = 0, pretend = 0, frame = 0
 697              		@ frame_needed = 0, uses_anonymous_args = 0
 698              		@ link register save eliminated.
 699              	.LVL47:
 721:Generated_Source\PSoC5/ADC_SAR_2.c ****     ADC_SAR_2_countsPer10Volt = adcGain;
 700              		.loc 1 721 0
 701 0000 014B     		ldr	r3, .L67
 702 0002 1860     		str	r0, [r3]
 703 0004 7047     		bx	lr
 704              	.L68:
 705 0006 00BF     		.align	2
 706              	.L67:
 707 0008 00000000 		.word	ADC_SAR_2_countsPer10Volt
 708              		.cfi_endproc
 709              	.LFE14:
 710              		.size	ADC_SAR_2_SetScaledGain, .-ADC_SAR_2_SetScaledGain
 711              		.section	.text.ADC_SAR_2_CountsTo_mVolts,"ax",%progbits
 712              		.align	2
 713              		.global	ADC_SAR_2_CountsTo_mVolts
 714              		.thumb
 715              		.thumb_func
 716              		.type	ADC_SAR_2_CountsTo_mVolts, %function
 717              	ADC_SAR_2_CountsTo_mVolts:
 718              	.LFB15:
 722:Generated_Source\PSoC5/ADC_SAR_2.c **** }
 723:Generated_Source\PSoC5/ADC_SAR_2.c **** 
 724:Generated_Source\PSoC5/ADC_SAR_2.c **** 
 725:Generated_Source\PSoC5/ADC_SAR_2.c **** /*******************************************************************************
 726:Generated_Source\PSoC5/ADC_SAR_2.c **** * Function Name: ADC_SAR_2_CountsTo_mVolts
 727:Generated_Source\PSoC5/ADC_SAR_2.c **** ********************************************************************************
 728:Generated_Source\PSoC5/ADC_SAR_2.c **** *
 729:Generated_Source\PSoC5/ADC_SAR_2.c **** * Summary:
 730:Generated_Source\PSoC5/ADC_SAR_2.c **** *  Converts the ADC output to millivolts as a 16-bit integer.
 731:Generated_Source\PSoC5/ADC_SAR_2.c **** *
 732:Generated_Source\PSoC5/ADC_SAR_2.c **** * Parameters:
 733:Generated_Source\PSoC5/ADC_SAR_2.c **** *  int16 adcCounts:  Result from the ADC conversion
 734:Generated_Source\PSoC5/ADC_SAR_2.c **** *
 735:Generated_Source\PSoC5/ADC_SAR_2.c **** * Return:
 736:Generated_Source\PSoC5/ADC_SAR_2.c **** *  int16 Result in mVolts
 737:Generated_Source\PSoC5/ADC_SAR_2.c **** *
 738:Generated_Source\PSoC5/ADC_SAR_2.c **** * Global Variables:
 739:Generated_Source\PSoC5/ADC_SAR_2.c **** *  ADC_SAR_2_offset variable used.
 740:Generated_Source\PSoC5/ADC_SAR_2.c **** *  ADC_SAR_2_countsPer10Volt variable used.
 741:Generated_Source\PSoC5/ADC_SAR_2.c **** *
ARM GAS  C:\Users\FRANKL~1\AppData\Local\Temp\ccrxa7r6.s 			page 28


 742:Generated_Source\PSoC5/ADC_SAR_2.c **** *******************************************************************************/
 743:Generated_Source\PSoC5/ADC_SAR_2.c **** int16 ADC_SAR_2_CountsTo_mVolts(int16 adcCounts)
 744:Generated_Source\PSoC5/ADC_SAR_2.c **** {
 719              		.loc 1 744 0
 720              		.cfi_startproc
 721              		@ args = 0, pretend = 0, frame = 0
 722              		@ frame_needed = 0, uses_anonymous_args = 0
 723              		@ link register save eliminated.
 724              	.LVL48:
 725 0000 10B4     		push	{r4}
 726              		.cfi_def_cfa_offset 4
 727              		.cfi_offset 4, -4
 745:Generated_Source\PSoC5/ADC_SAR_2.c ****     int16 mVolts;
 746:Generated_Source\PSoC5/ADC_SAR_2.c ****     int32 countsPer10Volt;
 747:Generated_Source\PSoC5/ADC_SAR_2.c **** 
 748:Generated_Source\PSoC5/ADC_SAR_2.c ****     if(ADC_SAR_2_countsPerVolt != 0)
 728              		.loc 1 748 0
 729 0002 124B     		ldr	r3, .L75
 730 0004 1B88     		ldrh	r3, [r3]
 731 0006 1BB2     		sxth	r3, r3
 732 0008 33B1     		cbz	r3, .L70
 749:Generated_Source\PSoC5/ADC_SAR_2.c ****     {   /* Support obsolete method */
 750:Generated_Source\PSoC5/ADC_SAR_2.c ****         countsPer10Volt = (int32)ADC_SAR_2_countsPerVolt * 10;
 733              		.loc 1 750 0
 734 000a 104B     		ldr	r3, .L75
 735 000c 1B88     		ldrh	r3, [r3]
 736 000e 1BB2     		sxth	r3, r3
 737 0010 03EB8303 		add	r3, r3, r3, lsl #2
 738 0014 5C00     		lsls	r4, r3, #1
 739              	.LVL49:
 740 0016 01E0     		b	.L71
 741              	.LVL50:
 742              	.L70:
 751:Generated_Source\PSoC5/ADC_SAR_2.c ****     }
 752:Generated_Source\PSoC5/ADC_SAR_2.c ****     else
 753:Generated_Source\PSoC5/ADC_SAR_2.c ****     {
 754:Generated_Source\PSoC5/ADC_SAR_2.c ****         countsPer10Volt = ADC_SAR_2_countsPer10Volt;
 743              		.loc 1 754 0
 744 0018 0D4B     		ldr	r3, .L75+4
 745 001a 1C68     		ldr	r4, [r3]
 746              	.LVL51:
 747              	.L71:
 755:Generated_Source\PSoC5/ADC_SAR_2.c ****     }
 756:Generated_Source\PSoC5/ADC_SAR_2.c **** 
 757:Generated_Source\PSoC5/ADC_SAR_2.c ****     /* Subtract ADC offset */
 758:Generated_Source\PSoC5/ADC_SAR_2.c ****     adcCounts -= ADC_SAR_2_offset;
 748              		.loc 1 758 0
 749 001c 0D4B     		ldr	r3, .L75+8
 750 001e 1988     		ldrh	r1, [r3]
 751 0020 411A     		subs	r1, r0, r1
 752 0022 09B2     		sxth	r1, r1
 753              	.LVL52:
 759:Generated_Source\PSoC5/ADC_SAR_2.c ****     /* Convert to millivolts with rounding */
 760:Generated_Source\PSoC5/ADC_SAR_2.c ****     mVolts = (int16)( (( (int32)adcCounts * ADC_SAR_2_10MV_COUNTS ) + ( (adcCounts > 0) ?
 754              		.loc 1 760 0
 755 0024 42F21073 		movw	r3, #10000
 756 0028 03FB01F2 		mul	r2, r3, r1
ARM GAS  C:\Users\FRANKL~1\AppData\Local\Temp\ccrxa7r6.s 			page 29


 761:Generated_Source\PSoC5/ADC_SAR_2.c ****                        (countsPer10Volt / 2) : (-(countsPer10Volt / 2)) )) / countsPer10Volt);
 757              		.loc 1 761 0
 758 002c 0029     		cmp	r1, #0
 759 002e 03DD     		ble	.L72
 760              		.loc 1 761 0 is_stmt 0 discriminator 1
 761 0030 04EBD470 		add	r0, r4, r4, lsr #31
 762 0034 4010     		asrs	r0, r0, #1
 763 0036 03E0     		b	.L73
 764              	.L72:
 765              		.loc 1 761 0 discriminator 2
 766 0038 04EBD470 		add	r0, r4, r4, lsr #31
 767 003c 4010     		asrs	r0, r0, #1
 768 003e 4042     		negs	r0, r0
 769              	.L73:
 760:Generated_Source\PSoC5/ADC_SAR_2.c ****                        (countsPer10Volt / 2) : (-(countsPer10Volt / 2)) )) / countsPer10Volt);
 770              		.loc 1 760 0 is_stmt 1
 771 0040 8318     		adds	r3, r0, r2
 772              		.loc 1 761 0
 773 0042 93FBF4F0 		sdiv	r0, r3, r4
 774              	.LVL53:
 762:Generated_Source\PSoC5/ADC_SAR_2.c **** 
 763:Generated_Source\PSoC5/ADC_SAR_2.c ****     return( mVolts );
 764:Generated_Source\PSoC5/ADC_SAR_2.c **** }
 775              		.loc 1 764 0
 776 0046 00B2     		sxth	r0, r0
 777 0048 10BC     		pop	{r4}
 778              		.cfi_restore 4
 779              		.cfi_def_cfa_offset 0
 780              	.LVL54:
 781 004a 7047     		bx	lr
 782              	.L76:
 783              		.align	2
 784              	.L75:
 785 004c 00000000 		.word	ADC_SAR_2_countsPerVolt
 786 0050 00000000 		.word	ADC_SAR_2_countsPer10Volt
 787 0054 00000000 		.word	ADC_SAR_2_offset
 788              		.cfi_endproc
 789              	.LFE15:
 790              		.size	ADC_SAR_2_CountsTo_mVolts, .-ADC_SAR_2_CountsTo_mVolts
 791              		.global	__aeabi_ldivmod
 792              		.section	.text.ADC_SAR_2_CountsTo_uVolts,"ax",%progbits
 793              		.align	2
 794              		.global	ADC_SAR_2_CountsTo_uVolts
 795              		.thumb
 796              		.thumb_func
 797              		.type	ADC_SAR_2_CountsTo_uVolts, %function
 798              	ADC_SAR_2_CountsTo_uVolts:
 799              	.LFB16:
 765:Generated_Source\PSoC5/ADC_SAR_2.c **** 
 766:Generated_Source\PSoC5/ADC_SAR_2.c **** 
 767:Generated_Source\PSoC5/ADC_SAR_2.c **** /*******************************************************************************
 768:Generated_Source\PSoC5/ADC_SAR_2.c **** * Function Name: ADC_SAR_2_CountsTo_uVolts
 769:Generated_Source\PSoC5/ADC_SAR_2.c **** ********************************************************************************
 770:Generated_Source\PSoC5/ADC_SAR_2.c **** *
 771:Generated_Source\PSoC5/ADC_SAR_2.c **** * Summary:
 772:Generated_Source\PSoC5/ADC_SAR_2.c **** *  Converts the ADC output to microvolts as a 32-bit integer.
 773:Generated_Source\PSoC5/ADC_SAR_2.c **** *
ARM GAS  C:\Users\FRANKL~1\AppData\Local\Temp\ccrxa7r6.s 			page 30


 774:Generated_Source\PSoC5/ADC_SAR_2.c **** * Parameters:
 775:Generated_Source\PSoC5/ADC_SAR_2.c **** *  int16 adcCounts: Result from the ADC conversion
 776:Generated_Source\PSoC5/ADC_SAR_2.c **** *
 777:Generated_Source\PSoC5/ADC_SAR_2.c **** * Return:
 778:Generated_Source\PSoC5/ADC_SAR_2.c **** *  int32 Result in micro Volts
 779:Generated_Source\PSoC5/ADC_SAR_2.c **** *
 780:Generated_Source\PSoC5/ADC_SAR_2.c **** * Global Variables:
 781:Generated_Source\PSoC5/ADC_SAR_2.c **** *  ADC_SAR_2_offset variable used.
 782:Generated_Source\PSoC5/ADC_SAR_2.c **** *  ADC_SAR_2_countsPer10Volt used to convert ADC counts to uVolts.
 783:Generated_Source\PSoC5/ADC_SAR_2.c **** *
 784:Generated_Source\PSoC5/ADC_SAR_2.c **** *******************************************************************************/
 785:Generated_Source\PSoC5/ADC_SAR_2.c **** int32 ADC_SAR_2_CountsTo_uVolts(int16 adcCounts)
 786:Generated_Source\PSoC5/ADC_SAR_2.c **** {
 800              		.loc 1 786 0
 801              		.cfi_startproc
 802              		@ args = 0, pretend = 0, frame = 0
 803              		@ frame_needed = 0, uses_anonymous_args = 0
 804              	.LVL55:
 805 0000 38B5     		push	{r3, r4, r5, lr}
 806              		.cfi_def_cfa_offset 16
 807              		.cfi_offset 3, -16
 808              		.cfi_offset 4, -12
 809              		.cfi_offset 5, -8
 810              		.cfi_offset 14, -4
 787:Generated_Source\PSoC5/ADC_SAR_2.c **** 
 788:Generated_Source\PSoC5/ADC_SAR_2.c ****     int64 uVolts;
 789:Generated_Source\PSoC5/ADC_SAR_2.c ****     int32 countsPer10Volt;
 790:Generated_Source\PSoC5/ADC_SAR_2.c **** 
 791:Generated_Source\PSoC5/ADC_SAR_2.c ****     if(ADC_SAR_2_countsPerVolt != 0)
 811              		.loc 1 791 0
 812 0002 0D4B     		ldr	r3, .L81
 813 0004 1B88     		ldrh	r3, [r3]
 814 0006 1BB2     		sxth	r3, r3
 815 0008 33B1     		cbz	r3, .L78
 792:Generated_Source\PSoC5/ADC_SAR_2.c ****     {   /* Support obsolete method */
 793:Generated_Source\PSoC5/ADC_SAR_2.c ****         countsPer10Volt = (int32)ADC_SAR_2_countsPerVolt * 10;
 816              		.loc 1 793 0
 817 000a 0B4B     		ldr	r3, .L81
 818 000c 1B88     		ldrh	r3, [r3]
 819 000e 1BB2     		sxth	r3, r3
 820 0010 03EB8303 		add	r3, r3, r3, lsl #2
 821 0014 5A00     		lsls	r2, r3, #1
 822              	.LVL56:
 823 0016 01E0     		b	.L79
 824              	.LVL57:
 825              	.L78:
 794:Generated_Source\PSoC5/ADC_SAR_2.c ****     }
 795:Generated_Source\PSoC5/ADC_SAR_2.c ****     else
 796:Generated_Source\PSoC5/ADC_SAR_2.c ****     {
 797:Generated_Source\PSoC5/ADC_SAR_2.c ****         countsPer10Volt = ADC_SAR_2_countsPer10Volt;
 826              		.loc 1 797 0
 827 0018 084B     		ldr	r3, .L81+4
 828 001a 1A68     		ldr	r2, [r3]
 829              	.LVL58:
 830              	.L79:
 798:Generated_Source\PSoC5/ADC_SAR_2.c ****     }
 799:Generated_Source\PSoC5/ADC_SAR_2.c **** 
ARM GAS  C:\Users\FRANKL~1\AppData\Local\Temp\ccrxa7r6.s 			page 31


 800:Generated_Source\PSoC5/ADC_SAR_2.c ****     /* Subtract ADC offset */
 801:Generated_Source\PSoC5/ADC_SAR_2.c ****     adcCounts -= ADC_SAR_2_offset;
 831              		.loc 1 801 0
 832 001c 084B     		ldr	r3, .L81+8
 833 001e 1C88     		ldrh	r4, [r3]
 834 0020 041B     		subs	r4, r0, r4
 835              	.LVL59:
 802:Generated_Source\PSoC5/ADC_SAR_2.c ****     /* To convert adcCounts to microVolts it is required to be multiplied
 803:Generated_Source\PSoC5/ADC_SAR_2.c ****     *  on 10 million and later divide on gain in counts per 10V.
 804:Generated_Source\PSoC5/ADC_SAR_2.c ****     */
 805:Generated_Source\PSoC5/ADC_SAR_2.c ****     uVolts = (( (int64)adcCounts * ADC_SAR_2_10UV_COUNTS ) / countsPer10Volt);
 836              		.loc 1 805 0
 837 0022 24B2     		sxth	r4, r4
 838 0024 E517     		asrs	r5, r4, #31
 839 0026 074B     		ldr	r3, .L81+12
 840 0028 A4FB0301 		umull	r0, r1, r4, r3
 841 002c 03FB0511 		mla	r1, r3, r5, r1
 842 0030 D317     		asrs	r3, r2, #31
 843 0032 FFF7FEFF 		bl	__aeabi_ldivmod
 844              	.LVL60:
 806:Generated_Source\PSoC5/ADC_SAR_2.c **** 
 807:Generated_Source\PSoC5/ADC_SAR_2.c ****     return((int32) uVolts );
 808:Generated_Source\PSoC5/ADC_SAR_2.c **** }
 845              		.loc 1 808 0
 846 0036 38BD     		pop	{r3, r4, r5, pc}
 847              	.LVL61:
 848              	.L82:
 849              		.align	2
 850              	.L81:
 851 0038 00000000 		.word	ADC_SAR_2_countsPerVolt
 852 003c 00000000 		.word	ADC_SAR_2_countsPer10Volt
 853 0040 00000000 		.word	ADC_SAR_2_offset
 854 0044 80969800 		.word	10000000
 855              		.cfi_endproc
 856              	.LFE16:
 857              		.size	ADC_SAR_2_CountsTo_uVolts, .-ADC_SAR_2_CountsTo_uVolts
 858              		.global	__aeabi_i2f
 859              		.global	__aeabi_fmul
 860              		.global	__aeabi_fdiv
 861              		.section	.text.ADC_SAR_2_CountsTo_Volts,"ax",%progbits
 862              		.align	2
 863              		.global	ADC_SAR_2_CountsTo_Volts
 864              		.thumb
 865              		.thumb_func
 866              		.type	ADC_SAR_2_CountsTo_Volts, %function
 867              	ADC_SAR_2_CountsTo_Volts:
 868              	.LFB17:
 809:Generated_Source\PSoC5/ADC_SAR_2.c **** 
 810:Generated_Source\PSoC5/ADC_SAR_2.c **** 
 811:Generated_Source\PSoC5/ADC_SAR_2.c **** /*******************************************************************************
 812:Generated_Source\PSoC5/ADC_SAR_2.c **** * Function Name: ADC_SAR_2_CountsTo_Volts
 813:Generated_Source\PSoC5/ADC_SAR_2.c **** ********************************************************************************
 814:Generated_Source\PSoC5/ADC_SAR_2.c **** *
 815:Generated_Source\PSoC5/ADC_SAR_2.c **** * Summary:
 816:Generated_Source\PSoC5/ADC_SAR_2.c **** *  Converts the ADC output to volts as a floating-point number.
 817:Generated_Source\PSoC5/ADC_SAR_2.c **** *
 818:Generated_Source\PSoC5/ADC_SAR_2.c **** * Parameters:
ARM GAS  C:\Users\FRANKL~1\AppData\Local\Temp\ccrxa7r6.s 			page 32


 819:Generated_Source\PSoC5/ADC_SAR_2.c **** *  int16 adcCounts: Result from the ADC conversion
 820:Generated_Source\PSoC5/ADC_SAR_2.c **** *
 821:Generated_Source\PSoC5/ADC_SAR_2.c **** * Return:
 822:Generated_Source\PSoC5/ADC_SAR_2.c **** *  float Result in Volts
 823:Generated_Source\PSoC5/ADC_SAR_2.c **** *
 824:Generated_Source\PSoC5/ADC_SAR_2.c **** * Global Variables:
 825:Generated_Source\PSoC5/ADC_SAR_2.c **** *  ADC_SAR_2_offset variable used.
 826:Generated_Source\PSoC5/ADC_SAR_2.c **** *  ADC_SAR_2_countsPer10Volt used to convert ADC counts to Volts.
 827:Generated_Source\PSoC5/ADC_SAR_2.c **** *
 828:Generated_Source\PSoC5/ADC_SAR_2.c **** *******************************************************************************/
 829:Generated_Source\PSoC5/ADC_SAR_2.c **** float32 ADC_SAR_2_CountsTo_Volts(int16 adcCounts)
 830:Generated_Source\PSoC5/ADC_SAR_2.c **** {
 869              		.loc 1 830 0
 870              		.cfi_startproc
 871              		@ args = 0, pretend = 0, frame = 0
 872              		@ frame_needed = 0, uses_anonymous_args = 0
 873              	.LVL62:
 874 0000 38B5     		push	{r3, r4, r5, lr}
 875              		.cfi_def_cfa_offset 16
 876              		.cfi_offset 3, -16
 877              		.cfi_offset 4, -12
 878              		.cfi_offset 5, -8
 879              		.cfi_offset 14, -4
 831:Generated_Source\PSoC5/ADC_SAR_2.c ****     float32 volts;
 832:Generated_Source\PSoC5/ADC_SAR_2.c ****     int32 countsPer10Volt;
 833:Generated_Source\PSoC5/ADC_SAR_2.c **** 
 834:Generated_Source\PSoC5/ADC_SAR_2.c ****     if(ADC_SAR_2_countsPerVolt != 0)
 880              		.loc 1 834 0
 881 0002 0F4B     		ldr	r3, .L87
 882 0004 1B88     		ldrh	r3, [r3]
 883 0006 1BB2     		sxth	r3, r3
 884 0008 33B1     		cbz	r3, .L84
 835:Generated_Source\PSoC5/ADC_SAR_2.c ****     {   /* Support obsolete method */
 836:Generated_Source\PSoC5/ADC_SAR_2.c ****         countsPer10Volt = (int32)ADC_SAR_2_countsPerVolt * 10;
 885              		.loc 1 836 0
 886 000a 0D4B     		ldr	r3, .L87
 887 000c 1B88     		ldrh	r3, [r3]
 888 000e 1BB2     		sxth	r3, r3
 889 0010 03EB8303 		add	r3, r3, r3, lsl #2
 890 0014 5C00     		lsls	r4, r3, #1
 891              	.LVL63:
 892 0016 01E0     		b	.L85
 893              	.LVL64:
 894              	.L84:
 837:Generated_Source\PSoC5/ADC_SAR_2.c ****     }
 838:Generated_Source\PSoC5/ADC_SAR_2.c ****     else
 839:Generated_Source\PSoC5/ADC_SAR_2.c ****     {
 840:Generated_Source\PSoC5/ADC_SAR_2.c ****         countsPer10Volt = ADC_SAR_2_countsPer10Volt;
 895              		.loc 1 840 0
 896 0018 0A4B     		ldr	r3, .L87+4
 897 001a 1C68     		ldr	r4, [r3]
 898              	.LVL65:
 899              	.L85:
 841:Generated_Source\PSoC5/ADC_SAR_2.c ****     }
 842:Generated_Source\PSoC5/ADC_SAR_2.c **** 
 843:Generated_Source\PSoC5/ADC_SAR_2.c ****     /* Subtract ADC offset */
 844:Generated_Source\PSoC5/ADC_SAR_2.c ****     adcCounts -= ADC_SAR_2_offset;
ARM GAS  C:\Users\FRANKL~1\AppData\Local\Temp\ccrxa7r6.s 			page 33


 900              		.loc 1 844 0
 901 001c 0A4B     		ldr	r3, .L87+8
 902 001e 1B88     		ldrh	r3, [r3]
 903 0020 C01A     		subs	r0, r0, r3
 904              	.LVL66:
 845:Generated_Source\PSoC5/ADC_SAR_2.c **** 
 846:Generated_Source\PSoC5/ADC_SAR_2.c ****     volts = ((float32)adcCounts * ADC_SAR_2_10V_COUNTS) / (float32)countsPer10Volt;
 905              		.loc 1 846 0
 906 0022 00B2     		sxth	r0, r0
 907 0024 FFF7FEFF 		bl	__aeabi_i2f
 908              	.LVL67:
 909 0028 0849     		ldr	r1, .L87+12
 910 002a FFF7FEFF 		bl	__aeabi_fmul
 911              	.LVL68:
 912 002e 0546     		mov	r5, r0
 913 0030 2046     		mov	r0, r4
 914 0032 FFF7FEFF 		bl	__aeabi_i2f
 915              	.LVL69:
 916 0036 0146     		mov	r1, r0
 917 0038 2846     		mov	r0, r5
 918 003a FFF7FEFF 		bl	__aeabi_fdiv
 919              	.LVL70:
 847:Generated_Source\PSoC5/ADC_SAR_2.c **** 
 848:Generated_Source\PSoC5/ADC_SAR_2.c ****     return( volts );
 849:Generated_Source\PSoC5/ADC_SAR_2.c **** }
 920              		.loc 1 849 0
 921 003e 38BD     		pop	{r3, r4, r5, pc}
 922              	.LVL71:
 923              	.L88:
 924              		.align	2
 925              	.L87:
 926 0040 00000000 		.word	ADC_SAR_2_countsPerVolt
 927 0044 00000000 		.word	ADC_SAR_2_countsPer10Volt
 928 0048 00000000 		.word	ADC_SAR_2_offset
 929 004c 00002041 		.word	1092616192
 930              		.cfi_endproc
 931              	.LFE17:
 932              		.size	ADC_SAR_2_CountsTo_Volts, .-ADC_SAR_2_CountsTo_Volts
 933              		.comm	ADC_SAR_2_shift,2,2
 934              		.comm	ADC_SAR_2_countsPer10Volt,4,4
 935              		.comm	ADC_SAR_2_countsPerVolt,2,2
 936              		.comm	ADC_SAR_2_offset,2,2
 937              		.global	ADC_SAR_2_initVar
 938              		.bss
 939              		.set	.LANCHOR0,. + 0
 940              		.type	ADC_SAR_2_initVar, %object
 941              		.size	ADC_SAR_2_initVar, 1
 942              	ADC_SAR_2_initVar:
 943 0000 00       		.space	1
 944              		.text
 945              	.Letext0:
 946              		.file 2 "Generated_Source\\PSoC5\\cytypes.h"
 947              		.file 3 "Generated_Source\\PSoC5\\CyLib.h"
 948              		.file 4 "Generated_Source\\PSoC5\\ADC_SAR_2_theACLK.h"