ARM GAS  C:\Users\FRANKL~1\AppData\Local\Temp\cc8k5vSJ.s 			page 1


   1              		.syntax unified
   2              		.cpu cortex-m3
   3              		.fpu softvfp
   4              		.eabi_attribute 20, 1
   5              		.eabi_attribute 21, 1
   6              		.eabi_attribute 23, 3
   7              		.eabi_attribute 24, 1
   8              		.eabi_attribute 25, 1
   9              		.eabi_attribute 26, 1
  10              		.eabi_attribute 30, 1
  11              		.eabi_attribute 34, 1
  12              		.eabi_attribute 18, 4
  13              		.thumb
  14              		.syntax unified
  15              		.file	"cyfitter_cfg.c"
  16              		.text
  17              	.Ltext0:
  18              		.cfi_sections	.debug_frame
  19              		.section	.text.CyClockStartupError,"ax",%progbits
  20              		.align	2
  21              		.thumb
  22              		.thumb_func
  23              		.type	CyClockStartupError, %function
  24              	CyClockStartupError:
  25              	.LFB3:
  26              		.file 1 "Generated_Source\\PSoC5\\cyfitter_cfg.c"
   1:Generated_Source\PSoC5/cyfitter_cfg.c **** 
   2:Generated_Source\PSoC5/cyfitter_cfg.c **** /*******************************************************************************
   3:Generated_Source\PSoC5/cyfitter_cfg.c **** * File Name: cyfitter_cfg.c
   4:Generated_Source\PSoC5/cyfitter_cfg.c **** * 
   5:Generated_Source\PSoC5/cyfitter_cfg.c **** * PSoC Creator  4.1 Update 1
   6:Generated_Source\PSoC5/cyfitter_cfg.c **** *
   7:Generated_Source\PSoC5/cyfitter_cfg.c **** * Description:
   8:Generated_Source\PSoC5/cyfitter_cfg.c **** * This file contains device initialization code.
   9:Generated_Source\PSoC5/cyfitter_cfg.c **** * Except for the user defined sections in CyClockStartupError(), this file should not be modified.
  10:Generated_Source\PSoC5/cyfitter_cfg.c **** * This file is automatically generated by PSoC Creator.
  11:Generated_Source\PSoC5/cyfitter_cfg.c **** *
  12:Generated_Source\PSoC5/cyfitter_cfg.c **** ********************************************************************************
  13:Generated_Source\PSoC5/cyfitter_cfg.c **** * Copyright (c) 2007-2017 Cypress Semiconductor.  All rights reserved.
  14:Generated_Source\PSoC5/cyfitter_cfg.c **** * You may use this file only in accordance with the license, terms, conditions, 
  15:Generated_Source\PSoC5/cyfitter_cfg.c **** * disclaimers, and limitations in the end user license agreement accompanying 
  16:Generated_Source\PSoC5/cyfitter_cfg.c **** * the software package with which this file was provided.
  17:Generated_Source\PSoC5/cyfitter_cfg.c **** ********************************************************************************/
  18:Generated_Source\PSoC5/cyfitter_cfg.c **** 
  19:Generated_Source\PSoC5/cyfitter_cfg.c **** #include <string.h>
  20:Generated_Source\PSoC5/cyfitter_cfg.c **** #include "cytypes.h"
  21:Generated_Source\PSoC5/cyfitter_cfg.c **** #include "cydevice_trm.h"
  22:Generated_Source\PSoC5/cyfitter_cfg.c **** #include "cyfitter.h"
  23:Generated_Source\PSoC5/cyfitter_cfg.c **** #include "CyLib.h"
  24:Generated_Source\PSoC5/cyfitter_cfg.c **** #include "cyfitter_cfg.h"
  25:Generated_Source\PSoC5/cyfitter_cfg.c **** #include "cyapicallbacks.h"
  26:Generated_Source\PSoC5/cyfitter_cfg.c **** 
  27:Generated_Source\PSoC5/cyfitter_cfg.c **** #define CY_NEED_CYCLOCKSTARTUPERROR 1
  28:Generated_Source\PSoC5/cyfitter_cfg.c **** 
  29:Generated_Source\PSoC5/cyfitter_cfg.c **** 
  30:Generated_Source\PSoC5/cyfitter_cfg.c **** #if defined(__GNUC__) || defined(__ARMCC_VERSION)
  31:Generated_Source\PSoC5/cyfitter_cfg.c ****     #define CYPACKED 
ARM GAS  C:\Users\FRANKL~1\AppData\Local\Temp\cc8k5vSJ.s 			page 2


  32:Generated_Source\PSoC5/cyfitter_cfg.c ****     #define CYPACKED_ATTR __attribute__ ((packed))
  33:Generated_Source\PSoC5/cyfitter_cfg.c ****     #define CYALIGNED __attribute__ ((aligned))
  34:Generated_Source\PSoC5/cyfitter_cfg.c ****     #define CY_CFG_UNUSED __attribute__ ((unused))
  35:Generated_Source\PSoC5/cyfitter_cfg.c ****     #ifndef CY_CFG_SECTION
  36:Generated_Source\PSoC5/cyfitter_cfg.c ****         #define CY_CFG_SECTION __attribute__ ((section(".psocinit")))
  37:Generated_Source\PSoC5/cyfitter_cfg.c ****     #endif
  38:Generated_Source\PSoC5/cyfitter_cfg.c ****     
  39:Generated_Source\PSoC5/cyfitter_cfg.c ****     #if defined(__ARMCC_VERSION)
  40:Generated_Source\PSoC5/cyfitter_cfg.c ****         #define CY_CFG_MEMORY_BARRIER() __memory_changed()
  41:Generated_Source\PSoC5/cyfitter_cfg.c ****     #else
  42:Generated_Source\PSoC5/cyfitter_cfg.c ****         #define CY_CFG_MEMORY_BARRIER() __sync_synchronize()
  43:Generated_Source\PSoC5/cyfitter_cfg.c ****     #endif
  44:Generated_Source\PSoC5/cyfitter_cfg.c ****     
  45:Generated_Source\PSoC5/cyfitter_cfg.c **** #elif defined(__ICCARM__)
  46:Generated_Source\PSoC5/cyfitter_cfg.c ****     #include <intrinsics.h>
  47:Generated_Source\PSoC5/cyfitter_cfg.c **** 
  48:Generated_Source\PSoC5/cyfitter_cfg.c ****     #define CYPACKED __packed
  49:Generated_Source\PSoC5/cyfitter_cfg.c ****     #define CYPACKED_ATTR 
  50:Generated_Source\PSoC5/cyfitter_cfg.c ****     #define CYALIGNED _Pragma("data_alignment=4")
  51:Generated_Source\PSoC5/cyfitter_cfg.c ****     #define CY_CFG_UNUSED _Pragma("diag_suppress=Pe177")
  52:Generated_Source\PSoC5/cyfitter_cfg.c ****     #define CY_CFG_SECTION _Pragma("location=\".psocinit\"")
  53:Generated_Source\PSoC5/cyfitter_cfg.c ****     
  54:Generated_Source\PSoC5/cyfitter_cfg.c ****     #define CY_CFG_MEMORY_BARRIER() __DMB()
  55:Generated_Source\PSoC5/cyfitter_cfg.c ****     
  56:Generated_Source\PSoC5/cyfitter_cfg.c **** #else
  57:Generated_Source\PSoC5/cyfitter_cfg.c ****     #error Unsupported toolchain
  58:Generated_Source\PSoC5/cyfitter_cfg.c **** #endif
  59:Generated_Source\PSoC5/cyfitter_cfg.c **** 
  60:Generated_Source\PSoC5/cyfitter_cfg.c **** #ifndef CYCODE
  61:Generated_Source\PSoC5/cyfitter_cfg.c ****     #define CYCODE
  62:Generated_Source\PSoC5/cyfitter_cfg.c **** #endif
  63:Generated_Source\PSoC5/cyfitter_cfg.c **** #ifndef CYDATA
  64:Generated_Source\PSoC5/cyfitter_cfg.c ****     #define CYDATA
  65:Generated_Source\PSoC5/cyfitter_cfg.c **** #endif
  66:Generated_Source\PSoC5/cyfitter_cfg.c **** #ifndef CYFAR
  67:Generated_Source\PSoC5/cyfitter_cfg.c ****     #define CYFAR
  68:Generated_Source\PSoC5/cyfitter_cfg.c **** #endif
  69:Generated_Source\PSoC5/cyfitter_cfg.c **** #ifndef CYXDATA
  70:Generated_Source\PSoC5/cyfitter_cfg.c ****     #define CYXDATA
  71:Generated_Source\PSoC5/cyfitter_cfg.c **** #endif
  72:Generated_Source\PSoC5/cyfitter_cfg.c **** 
  73:Generated_Source\PSoC5/cyfitter_cfg.c **** 
  74:Generated_Source\PSoC5/cyfitter_cfg.c **** CY_CFG_UNUSED
  75:Generated_Source\PSoC5/cyfitter_cfg.c **** static void CYMEMZERO(void *s, size_t n);
  76:Generated_Source\PSoC5/cyfitter_cfg.c **** CY_CFG_UNUSED
  77:Generated_Source\PSoC5/cyfitter_cfg.c **** static void CYMEMZERO(void *s, size_t n)
  78:Generated_Source\PSoC5/cyfitter_cfg.c **** {
  79:Generated_Source\PSoC5/cyfitter_cfg.c **** 	(void)memset(s, 0, n);
  80:Generated_Source\PSoC5/cyfitter_cfg.c **** }
  81:Generated_Source\PSoC5/cyfitter_cfg.c **** CY_CFG_UNUSED
  82:Generated_Source\PSoC5/cyfitter_cfg.c **** static void CYCONFIGCPY(void *dest, const void *src, size_t n);
  83:Generated_Source\PSoC5/cyfitter_cfg.c **** CY_CFG_UNUSED
  84:Generated_Source\PSoC5/cyfitter_cfg.c **** static void CYCONFIGCPY(void *dest, const void *src, size_t n)
  85:Generated_Source\PSoC5/cyfitter_cfg.c **** {
  86:Generated_Source\PSoC5/cyfitter_cfg.c **** 	(void)memcpy(dest, src, n);
  87:Generated_Source\PSoC5/cyfitter_cfg.c **** }
  88:Generated_Source\PSoC5/cyfitter_cfg.c **** CY_CFG_UNUSED
ARM GAS  C:\Users\FRANKL~1\AppData\Local\Temp\cc8k5vSJ.s 			page 3


  89:Generated_Source\PSoC5/cyfitter_cfg.c **** static void CYCONFIGCPYCODE(void *dest, const void *src, size_t n);
  90:Generated_Source\PSoC5/cyfitter_cfg.c **** CY_CFG_UNUSED
  91:Generated_Source\PSoC5/cyfitter_cfg.c **** static void CYCONFIGCPYCODE(void *dest, const void *src, size_t n)
  92:Generated_Source\PSoC5/cyfitter_cfg.c **** {
  93:Generated_Source\PSoC5/cyfitter_cfg.c **** 	(void)memcpy(dest, src, n);
  94:Generated_Source\PSoC5/cyfitter_cfg.c **** }
  95:Generated_Source\PSoC5/cyfitter_cfg.c **** 
  96:Generated_Source\PSoC5/cyfitter_cfg.c **** 
  97:Generated_Source\PSoC5/cyfitter_cfg.c **** 
  98:Generated_Source\PSoC5/cyfitter_cfg.c **** 
  99:Generated_Source\PSoC5/cyfitter_cfg.c **** /* Clock startup error codes                                                   */
 100:Generated_Source\PSoC5/cyfitter_cfg.c **** #define CYCLOCKSTART_NO_ERROR    0u
 101:Generated_Source\PSoC5/cyfitter_cfg.c **** #define CYCLOCKSTART_XTAL_ERROR  1u
 102:Generated_Source\PSoC5/cyfitter_cfg.c **** #define CYCLOCKSTART_32KHZ_ERROR 2u
 103:Generated_Source\PSoC5/cyfitter_cfg.c **** #define CYCLOCKSTART_PLL_ERROR   3u
 104:Generated_Source\PSoC5/cyfitter_cfg.c **** #define CYCLOCKSTART_FLL_ERROR   4u
 105:Generated_Source\PSoC5/cyfitter_cfg.c **** 
 106:Generated_Source\PSoC5/cyfitter_cfg.c **** 
 107:Generated_Source\PSoC5/cyfitter_cfg.c **** #ifdef CY_NEED_CYCLOCKSTARTUPERROR
 108:Generated_Source\PSoC5/cyfitter_cfg.c **** /*******************************************************************************
 109:Generated_Source\PSoC5/cyfitter_cfg.c **** * Function Name: CyClockStartupError
 110:Generated_Source\PSoC5/cyfitter_cfg.c **** ********************************************************************************
 111:Generated_Source\PSoC5/cyfitter_cfg.c **** * Summary:
 112:Generated_Source\PSoC5/cyfitter_cfg.c **** *  If an error is encountered during clock configuration (crystal startup error,
 113:Generated_Source\PSoC5/cyfitter_cfg.c **** *  PLL lock error, etc.), the system will end up here.  Unless reimplemented by
 114:Generated_Source\PSoC5/cyfitter_cfg.c **** *  the customer, this function will stop in an infinite loop.
 115:Generated_Source\PSoC5/cyfitter_cfg.c **** *
 116:Generated_Source\PSoC5/cyfitter_cfg.c **** * Parameters:
 117:Generated_Source\PSoC5/cyfitter_cfg.c **** *   void
 118:Generated_Source\PSoC5/cyfitter_cfg.c **** *
 119:Generated_Source\PSoC5/cyfitter_cfg.c **** * Return:
 120:Generated_Source\PSoC5/cyfitter_cfg.c **** *   void
 121:Generated_Source\PSoC5/cyfitter_cfg.c **** *
 122:Generated_Source\PSoC5/cyfitter_cfg.c **** *******************************************************************************/
 123:Generated_Source\PSoC5/cyfitter_cfg.c **** CY_CFG_UNUSED
 124:Generated_Source\PSoC5/cyfitter_cfg.c **** static void CyClockStartupError(uint8 errorCode);
 125:Generated_Source\PSoC5/cyfitter_cfg.c **** CY_CFG_UNUSED
 126:Generated_Source\PSoC5/cyfitter_cfg.c **** static void CyClockStartupError(uint8 errorCode)
 127:Generated_Source\PSoC5/cyfitter_cfg.c **** {
  27              		.loc 1 127 0
  28              		.cfi_startproc
  29              		@ Volatile: function does not return.
  30              		@ args = 0, pretend = 0, frame = 0
  31              		@ frame_needed = 0, uses_anonymous_args = 0
  32              		@ link register save eliminated.
  33              	.LVL0:
  34              	.L2:
  35 0000 FEE7     		b	.L2
  36              		.cfi_endproc
  37              	.LFE3:
  38              		.size	CyClockStartupError, .-CyClockStartupError
  39 0002 00BF     		.section	.text.cfg_write_bytes32,"ax",%progbits
  40              		.align	2
  41              		.thumb
  42              		.thumb_func
  43              		.type	cfg_write_bytes32, %function
  44              	cfg_write_bytes32:
ARM GAS  C:\Users\FRANKL~1\AppData\Local\Temp\cc8k5vSJ.s 			page 4


  45              	.LFB4:
 128:Generated_Source\PSoC5/cyfitter_cfg.c ****     /* To remove the compiler warning if errorCode not used. */
 129:Generated_Source\PSoC5/cyfitter_cfg.c **** #if defined(CY_PSOC3) && (CY_PSOC3)
 130:Generated_Source\PSoC5/cyfitter_cfg.c ****     errorCode = errorCode;
 131:Generated_Source\PSoC5/cyfitter_cfg.c **** #else
 132:Generated_Source\PSoC5/cyfitter_cfg.c ****     (void)errorCode;
 133:Generated_Source\PSoC5/cyfitter_cfg.c **** #endif /* CY_PSOC3 */
 134:Generated_Source\PSoC5/cyfitter_cfg.c **** 
 135:Generated_Source\PSoC5/cyfitter_cfg.c ****     /* If we have a clock startup error (bad MHz crystal, PLL lock, etc.),  */
 136:Generated_Source\PSoC5/cyfitter_cfg.c ****     /* we will end up here to allow the customer to implement something to  */
 137:Generated_Source\PSoC5/cyfitter_cfg.c ****     /* deal with the clock condition.                                       */
 138:Generated_Source\PSoC5/cyfitter_cfg.c **** 
 139:Generated_Source\PSoC5/cyfitter_cfg.c **** #ifdef CY_CFG_CLOCK_STARTUP_ERROR_CALLBACK
 140:Generated_Source\PSoC5/cyfitter_cfg.c ****     CY_CFG_Clock_Startup_ErrorCallback();
 141:Generated_Source\PSoC5/cyfitter_cfg.c **** #else
 142:Generated_Source\PSoC5/cyfitter_cfg.c ****     /*  If not using CY_CFG_CLOCK_STARTUP_ERROR_CALLBACK, place your clock startup code here. */
 143:Generated_Source\PSoC5/cyfitter_cfg.c ****     /* `#START CyClockStartupError` */
 144:Generated_Source\PSoC5/cyfitter_cfg.c **** 
 145:Generated_Source\PSoC5/cyfitter_cfg.c **** 
 146:Generated_Source\PSoC5/cyfitter_cfg.c **** 
 147:Generated_Source\PSoC5/cyfitter_cfg.c ****     /* `#END` */
 148:Generated_Source\PSoC5/cyfitter_cfg.c **** 
 149:Generated_Source\PSoC5/cyfitter_cfg.c ****     while(1) {}
 150:Generated_Source\PSoC5/cyfitter_cfg.c **** #endif /* CY_CFG_CLOCK_STARTUP_ERROR_CALLBACK */
 151:Generated_Source\PSoC5/cyfitter_cfg.c **** }
 152:Generated_Source\PSoC5/cyfitter_cfg.c **** #endif
 153:Generated_Source\PSoC5/cyfitter_cfg.c **** 
 154:Generated_Source\PSoC5/cyfitter_cfg.c **** #define CY_CFG_BASE_ADDR_COUNT 38u
 155:Generated_Source\PSoC5/cyfitter_cfg.c **** CYPACKED typedef struct
 156:Generated_Source\PSoC5/cyfitter_cfg.c **** {
 157:Generated_Source\PSoC5/cyfitter_cfg.c **** 	uint8 offset;
 158:Generated_Source\PSoC5/cyfitter_cfg.c **** 	uint8 value;
 159:Generated_Source\PSoC5/cyfitter_cfg.c **** } CYPACKED_ATTR cy_cfg_addrvalue_t;
 160:Generated_Source\PSoC5/cyfitter_cfg.c **** 
 161:Generated_Source\PSoC5/cyfitter_cfg.c **** #define cy_cfg_addr_table ((const uint32 CYFAR *)0x48000000u)
 162:Generated_Source\PSoC5/cyfitter_cfg.c **** #define cy_cfg_data_table ((const cy_cfg_addrvalue_t CYFAR *)0x48000098u)
 163:Generated_Source\PSoC5/cyfitter_cfg.c **** 
 164:Generated_Source\PSoC5/cyfitter_cfg.c **** /* IOPORT_7 Address: CYDEV_PRTDSI_PRT12_BASE Size (bytes): 6 */
 165:Generated_Source\PSoC5/cyfitter_cfg.c **** #define BS_IOPORT_7_VAL ((const uint8 CYFAR *)0x48000888u)
 166:Generated_Source\PSoC5/cyfitter_cfg.c **** 
 167:Generated_Source\PSoC5/cyfitter_cfg.c **** /* UDB_0_4_1_CONFIG Address: CYDEV_UCFG_B0_P6_U0_BASE Size (bytes): 128 */
 168:Generated_Source\PSoC5/cyfitter_cfg.c **** #define BS_UDB_0_4_1_CONFIG_VAL ((const uint8 CYFAR *)0x48000890u)
 169:Generated_Source\PSoC5/cyfitter_cfg.c **** 
 170:Generated_Source\PSoC5/cyfitter_cfg.c **** /* IOPINS0_7 Address: CYREG_PRT12_DR Size (bytes): 10 */
 171:Generated_Source\PSoC5/cyfitter_cfg.c **** #define BS_IOPINS0_7_VAL ((const uint8 CYFAR *)0x48000910u)
 172:Generated_Source\PSoC5/cyfitter_cfg.c **** 
 173:Generated_Source\PSoC5/cyfitter_cfg.c **** /* IOPINS0_8 Address: CYREG_PRT15_DR Size (bytes): 10 */
 174:Generated_Source\PSoC5/cyfitter_cfg.c **** #define BS_IOPINS0_8_VAL ((const uint8 CYFAR *)0x4800091Cu)
 175:Generated_Source\PSoC5/cyfitter_cfg.c **** 
 176:Generated_Source\PSoC5/cyfitter_cfg.c **** /* IOPINS0_1 Address: CYREG_PRT1_DM0 Size (bytes): 8 */
 177:Generated_Source\PSoC5/cyfitter_cfg.c **** #define BS_IOPINS0_1_VAL ((const uint8 CYFAR *)0x48000928u)
 178:Generated_Source\PSoC5/cyfitter_cfg.c **** 
 179:Generated_Source\PSoC5/cyfitter_cfg.c **** /* IOPINS0_2 Address: CYREG_PRT2_DM0 Size (bytes): 8 */
 180:Generated_Source\PSoC5/cyfitter_cfg.c **** #define BS_IOPINS0_2_VAL ((const uint8 CYFAR *)0x48000930u)
 181:Generated_Source\PSoC5/cyfitter_cfg.c **** 
 182:Generated_Source\PSoC5/cyfitter_cfg.c **** /* IOPINS0_4 Address: CYREG_PRT4_DM0 Size (bytes): 8 */
 183:Generated_Source\PSoC5/cyfitter_cfg.c **** #define BS_IOPINS0_4_VAL ((const uint8 CYFAR *)0x48000938u)
ARM GAS  C:\Users\FRANKL~1\AppData\Local\Temp\cc8k5vSJ.s 			page 5


 184:Generated_Source\PSoC5/cyfitter_cfg.c **** 
 185:Generated_Source\PSoC5/cyfitter_cfg.c **** /* IOPINS0_5 Address: CYREG_PRT5_DM0 Size (bytes): 8 */
 186:Generated_Source\PSoC5/cyfitter_cfg.c **** #define BS_IOPINS0_5_VAL ((const uint8 CYFAR *)0x48000940u)
 187:Generated_Source\PSoC5/cyfitter_cfg.c **** 
 188:Generated_Source\PSoC5/cyfitter_cfg.c **** /* IOPINS0_6 Address: CYREG_PRT6_DM0 Size (bytes): 8 */
 189:Generated_Source\PSoC5/cyfitter_cfg.c **** #define BS_IOPINS0_6_VAL ((const uint8 CYFAR *)0x48000948u)
 190:Generated_Source\PSoC5/cyfitter_cfg.c **** 
 191:Generated_Source\PSoC5/cyfitter_cfg.c **** /* CYDEV_CLKDIST_ACFG0_CFG0 Address: CYREG_CLKDIST_ACFG0_CFG0 Size (bytes): 12 */
 192:Generated_Source\PSoC5/cyfitter_cfg.c **** #define BS_CYDEV_CLKDIST_ACFG0_CFG0_VAL ((const uint8 CYFAR *)0x48000950u)
 193:Generated_Source\PSoC5/cyfitter_cfg.c **** 
 194:Generated_Source\PSoC5/cyfitter_cfg.c **** 
 195:Generated_Source\PSoC5/cyfitter_cfg.c **** /*******************************************************************************
 196:Generated_Source\PSoC5/cyfitter_cfg.c **** * Function Name: cfg_write_bytes32
 197:Generated_Source\PSoC5/cyfitter_cfg.c **** ********************************************************************************
 198:Generated_Source\PSoC5/cyfitter_cfg.c **** * Summary:
 199:Generated_Source\PSoC5/cyfitter_cfg.c **** *  This function is used for setting up the chip configuration areas that
 200:Generated_Source\PSoC5/cyfitter_cfg.c **** *  contain relatively sparse data.
 201:Generated_Source\PSoC5/cyfitter_cfg.c **** *
 202:Generated_Source\PSoC5/cyfitter_cfg.c **** * Parameters:
 203:Generated_Source\PSoC5/cyfitter_cfg.c **** *   void
 204:Generated_Source\PSoC5/cyfitter_cfg.c **** *
 205:Generated_Source\PSoC5/cyfitter_cfg.c **** * Return:
 206:Generated_Source\PSoC5/cyfitter_cfg.c **** *   void
 207:Generated_Source\PSoC5/cyfitter_cfg.c **** *
 208:Generated_Source\PSoC5/cyfitter_cfg.c **** *******************************************************************************/
 209:Generated_Source\PSoC5/cyfitter_cfg.c **** static void cfg_write_bytes32(const uint32 addr_table[], const cy_cfg_addrvalue_t data_table[]);
 210:Generated_Source\PSoC5/cyfitter_cfg.c **** static void cfg_write_bytes32(const uint32 addr_table[], const cy_cfg_addrvalue_t data_table[])
 211:Generated_Source\PSoC5/cyfitter_cfg.c **** {
  46              		.loc 1 211 0
  47              		.cfi_startproc
  48              		@ args = 0, pretend = 0, frame = 0
  49              		@ frame_needed = 0, uses_anonymous_args = 0
  50              		@ link register save eliminated.
  51              	.LVL1:
  52              		.loc 1 211 0
  53 0000 F0B4     		push	{r4, r5, r6, r7}
  54              		.cfi_def_cfa_offset 16
  55              		.cfi_offset 4, -16
  56              		.cfi_offset 5, -12
  57              		.cfi_offset 6, -8
  58              		.cfi_offset 7, -4
  59              	.LVL2:
 212:Generated_Source\PSoC5/cyfitter_cfg.c **** 	/* For 32-bit little-endian architectures */
 213:Generated_Source\PSoC5/cyfitter_cfg.c **** 	uint32 i, j = 0u;
  60              		.loc 1 213 0
  61 0002 0022     		movs	r2, #0
 214:Generated_Source\PSoC5/cyfitter_cfg.c **** 	for (i = 0u; i < CY_CFG_BASE_ADDR_COUNT; i++)
  62              		.loc 1 214 0
  63 0004 1746     		mov	r7, r2
  64 0006 11E0     		b	.L4
  65              	.LVL3:
  66              	.L7:
  67              	.LBB2:
 215:Generated_Source\PSoC5/cyfitter_cfg.c **** 	{
 216:Generated_Source\PSoC5/cyfitter_cfg.c **** 		uint32 baseAddr = addr_table[i];
  68              		.loc 1 216 0
  69 0008 50F82760 		ldr	r6, [r0, r7, lsl #2]
ARM GAS  C:\Users\FRANKL~1\AppData\Local\Temp\cc8k5vSJ.s 			page 6


  70              	.LVL4:
 217:Generated_Source\PSoC5/cyfitter_cfg.c **** 		uint8 count = (uint8)baseAddr;
  71              		.loc 1 217 0
  72 000c F3B2     		uxtb	r3, r6
  73              	.LVL5:
 218:Generated_Source\PSoC5/cyfitter_cfg.c **** 		baseAddr &= 0xFFFFFF00u;
  74              		.loc 1 218 0
  75 000e 26F0FF06 		bic	r6, r6, #255
  76              	.LVL6:
 219:Generated_Source\PSoC5/cyfitter_cfg.c **** 		while (count != 0u)
  77              		.loc 1 219 0
  78 0012 08E0     		b	.L5
  79              	.L6:
 220:Generated_Source\PSoC5/cyfitter_cfg.c **** 		{
 221:Generated_Source\PSoC5/cyfitter_cfg.c **** 			CY_SET_REG8((void *)(baseAddr + data_table[j].offset), data_table[j].value);
  80              		.loc 1 221 0
  81 0014 01EB4205 		add	r5, r1, r2, lsl #1
  82 0018 11F81240 		ldrb	r4, [r1, r2, lsl #1]	@ zero_extendqisi2
  83 001c 6D78     		ldrb	r5, [r5, #1]	@ zero_extendqisi2
  84 001e A555     		strb	r5, [r4, r6]
 222:Generated_Source\PSoC5/cyfitter_cfg.c **** 			j++;
  85              		.loc 1 222 0
  86 0020 0132     		adds	r2, r2, #1
  87              	.LVL7:
 223:Generated_Source\PSoC5/cyfitter_cfg.c **** 			count--;
  88              		.loc 1 223 0
  89 0022 013B     		subs	r3, r3, #1
  90              	.LVL8:
  91 0024 DBB2     		uxtb	r3, r3
  92              	.LVL9:
  93              	.L5:
 219:Generated_Source\PSoC5/cyfitter_cfg.c **** 		{
  94              		.loc 1 219 0
  95 0026 002B     		cmp	r3, #0
  96 0028 F4D1     		bne	.L6
  97              	.LBE2:
 214:Generated_Source\PSoC5/cyfitter_cfg.c **** 	{
  98              		.loc 1 214 0 discriminator 2
  99 002a 0137     		adds	r7, r7, #1
 100              	.LVL10:
 101              	.L4:
 214:Generated_Source\PSoC5/cyfitter_cfg.c **** 	{
 102              		.loc 1 214 0 is_stmt 0 discriminator 1
 103 002c 252F     		cmp	r7, #37
 104 002e EBD9     		bls	.L7
 224:Generated_Source\PSoC5/cyfitter_cfg.c **** 		}
 225:Generated_Source\PSoC5/cyfitter_cfg.c **** 	}
 226:Generated_Source\PSoC5/cyfitter_cfg.c **** }
 105              		.loc 1 226 0 is_stmt 1
 106 0030 F0BC     		pop	{r4, r5, r6, r7}
 107              		.cfi_restore 7
 108              		.cfi_restore 6
 109              		.cfi_restore 5
 110              		.cfi_restore 4
 111              		.cfi_def_cfa_offset 0
 112              	.LVL11:
 113 0032 7047     		bx	lr
ARM GAS  C:\Users\FRANKL~1\AppData\Local\Temp\cc8k5vSJ.s 			page 7


 114              		.cfi_endproc
 115              	.LFE4:
 116              		.size	cfg_write_bytes32, .-cfg_write_bytes32
 117              		.section	.text.CYMEMZERO,"ax",%progbits
 118              		.align	2
 119              		.thumb
 120              		.thumb_func
 121              		.type	CYMEMZERO, %function
 122              	CYMEMZERO:
 123              	.LFB0:
  78:Generated_Source\PSoC5/cyfitter_cfg.c **** 	(void)memset(s, 0, n);
 124              		.loc 1 78 0
 125              		.cfi_startproc
 126              		@ args = 0, pretend = 0, frame = 0
 127              		@ frame_needed = 0, uses_anonymous_args = 0
 128              	.LVL12:
 129 0000 08B5     		push	{r3, lr}
 130              		.cfi_def_cfa_offset 8
 131              		.cfi_offset 3, -8
 132              		.cfi_offset 14, -4
  79:Generated_Source\PSoC5/cyfitter_cfg.c **** }
 133              		.loc 1 79 0
 134 0002 0A46     		mov	r2, r1
 135 0004 0021     		movs	r1, #0
 136              	.LVL13:
 137 0006 FFF7FEFF 		bl	memset
 138              	.LVL14:
 139 000a 08BD     		pop	{r3, pc}
 140              		.cfi_endproc
 141              	.LFE0:
 142              		.size	CYMEMZERO, .-CYMEMZERO
 143              		.section	.text.AnalogSetDefault,"ax",%progbits
 144              		.align	2
 145              		.thumb
 146              		.thumb_func
 147              		.type	AnalogSetDefault, %function
 148              	AnalogSetDefault:
 149              	.LFB6:
 227:Generated_Source\PSoC5/cyfitter_cfg.c **** 
 228:Generated_Source\PSoC5/cyfitter_cfg.c **** /*******************************************************************************
 229:Generated_Source\PSoC5/cyfitter_cfg.c **** * Function Name: ClockSetup
 230:Generated_Source\PSoC5/cyfitter_cfg.c **** ********************************************************************************
 231:Generated_Source\PSoC5/cyfitter_cfg.c **** *
 232:Generated_Source\PSoC5/cyfitter_cfg.c **** * Summary:
 233:Generated_Source\PSoC5/cyfitter_cfg.c **** *  Performs the initialization of all of the clocks in the device based on the
 234:Generated_Source\PSoC5/cyfitter_cfg.c **** *  settings in the Clock tab of the DWR.  This includes enabling the requested
 235:Generated_Source\PSoC5/cyfitter_cfg.c **** *  clocks and setting the necessary dividers to produce the desired frequency. 
 236:Generated_Source\PSoC5/cyfitter_cfg.c **** *
 237:Generated_Source\PSoC5/cyfitter_cfg.c **** * Parameters:
 238:Generated_Source\PSoC5/cyfitter_cfg.c **** *  void
 239:Generated_Source\PSoC5/cyfitter_cfg.c **** *
 240:Generated_Source\PSoC5/cyfitter_cfg.c **** * Return:
 241:Generated_Source\PSoC5/cyfitter_cfg.c **** *  void
 242:Generated_Source\PSoC5/cyfitter_cfg.c **** *
 243:Generated_Source\PSoC5/cyfitter_cfg.c **** *******************************************************************************/
 244:Generated_Source\PSoC5/cyfitter_cfg.c **** static void ClockSetup(void);
 245:Generated_Source\PSoC5/cyfitter_cfg.c **** static void ClockSetup(void)
ARM GAS  C:\Users\FRANKL~1\AppData\Local\Temp\cc8k5vSJ.s 			page 8


 246:Generated_Source\PSoC5/cyfitter_cfg.c **** {
 247:Generated_Source\PSoC5/cyfitter_cfg.c **** 	uint32 timeout;
 248:Generated_Source\PSoC5/cyfitter_cfg.c **** 	uint8 pllLock;
 249:Generated_Source\PSoC5/cyfitter_cfg.c **** 
 250:Generated_Source\PSoC5/cyfitter_cfg.c **** 
 251:Generated_Source\PSoC5/cyfitter_cfg.c **** 	/* Configure Digital Clocks based on settings from Clock DWR */
 252:Generated_Source\PSoC5/cyfitter_cfg.c **** 	CY_SET_XTND_REG16((void CYFAR *)(CYREG_CLKDIST_DCFG0_CFG0), 0x0000u);
 253:Generated_Source\PSoC5/cyfitter_cfg.c **** 	CY_SET_XTND_REG8((void CYFAR *)(CYREG_CLKDIST_DCFG0_CFG0 + 0x2u), 0x50u);
 254:Generated_Source\PSoC5/cyfitter_cfg.c **** 	CY_SET_XTND_REG16((void CYFAR *)(CYREG_CLKDIST_DCFG1_CFG0), 0x000Eu);
 255:Generated_Source\PSoC5/cyfitter_cfg.c **** 	CY_SET_XTND_REG8((void CYFAR *)(CYREG_CLKDIST_DCFG1_CFG0 + 0x2u), 0x18u);
 256:Generated_Source\PSoC5/cyfitter_cfg.c **** 	CY_SET_XTND_REG16((void CYFAR *)(CYREG_CLKDIST_DCFG2_CFG0), 0x0138u);
 257:Generated_Source\PSoC5/cyfitter_cfg.c **** 	CY_SET_XTND_REG8((void CYFAR *)(CYREG_CLKDIST_DCFG2_CFG0 + 0x2u), 0x18u);
 258:Generated_Source\PSoC5/cyfitter_cfg.c **** 
 259:Generated_Source\PSoC5/cyfitter_cfg.c **** 	/* Configure Analog Clocks based on settings from Clock DWR */
 260:Generated_Source\PSoC5/cyfitter_cfg.c **** 	CYCONFIGCPY((void CYFAR *)(CYREG_CLKDIST_ACFG0_CFG0), (const void CYFAR *)(BS_CYDEV_CLKDIST_ACFG0_
 261:Generated_Source\PSoC5/cyfitter_cfg.c **** 
 262:Generated_Source\PSoC5/cyfitter_cfg.c **** 	/* Configure ILO based on settings from Clock DWR */
 263:Generated_Source\PSoC5/cyfitter_cfg.c **** 	CY_SET_XTND_REG8((void CYFAR *)(CYREG_SLOWCLK_ILO_CR0), 0x06u);
 264:Generated_Source\PSoC5/cyfitter_cfg.c **** 
 265:Generated_Source\PSoC5/cyfitter_cfg.c **** 	/* Configure IMO based on settings from Clock DWR */
 266:Generated_Source\PSoC5/cyfitter_cfg.c **** 	CY_SET_XTND_REG8((void CYFAR *)(CYREG_FASTCLK_IMO_CR), 0x52u);
 267:Generated_Source\PSoC5/cyfitter_cfg.c **** 	CY_SET_XTND_REG8((void CYFAR *)(CYREG_IMO_TR1), (CY_GET_XTND_REG8((void CYFAR *)CYREG_FLSHID_CUST_
 268:Generated_Source\PSoC5/cyfitter_cfg.c **** 
 269:Generated_Source\PSoC5/cyfitter_cfg.c **** 	/* Configure PLL based on settings from Clock DWR */
 270:Generated_Source\PSoC5/cyfitter_cfg.c **** 	CY_SET_XTND_REG16((void CYFAR *)(CYREG_FASTCLK_PLL_P), 0x0708u);
 271:Generated_Source\PSoC5/cyfitter_cfg.c **** 	CY_SET_XTND_REG16((void CYFAR *)(CYREG_FASTCLK_PLL_CFG0), 0x1251u);
 272:Generated_Source\PSoC5/cyfitter_cfg.c **** 	/* Wait up to 250us for the PLL to lock */
 273:Generated_Source\PSoC5/cyfitter_cfg.c **** 	pllLock = 0u;
 274:Generated_Source\PSoC5/cyfitter_cfg.c **** 	for (timeout = 250u / 10u; (timeout > 0u) && (pllLock != 0x03u); timeout--)
 275:Generated_Source\PSoC5/cyfitter_cfg.c **** 	{ 
 276:Generated_Source\PSoC5/cyfitter_cfg.c **** 		pllLock = 0x03u & ((uint8)((uint8)pllLock << 1) | ((CY_GET_XTND_REG8((void CYFAR *)CYREG_FASTCLK_
 277:Generated_Source\PSoC5/cyfitter_cfg.c **** 		CyDelayCycles(10u * 48u); /* Delay 10us based on 48MHz clock */
 278:Generated_Source\PSoC5/cyfitter_cfg.c **** 	}
 279:Generated_Source\PSoC5/cyfitter_cfg.c **** 	/* If we ran out of time the PLL didn't lock so go to the error function */
 280:Generated_Source\PSoC5/cyfitter_cfg.c **** 	if (timeout == 0u)
 281:Generated_Source\PSoC5/cyfitter_cfg.c **** 	{
 282:Generated_Source\PSoC5/cyfitter_cfg.c **** 		CyClockStartupError(CYCLOCKSTART_PLL_ERROR);
 283:Generated_Source\PSoC5/cyfitter_cfg.c **** 	}
 284:Generated_Source\PSoC5/cyfitter_cfg.c **** 
 285:Generated_Source\PSoC5/cyfitter_cfg.c **** 	/* Configure Bus/Master Clock based on settings from Clock DWR */
 286:Generated_Source\PSoC5/cyfitter_cfg.c **** 	CY_SET_XTND_REG16((void CYFAR *)(CYREG_CLKDIST_MSTR0), 0x0100u);
 287:Generated_Source\PSoC5/cyfitter_cfg.c **** 	CY_SET_XTND_REG8((void CYFAR *)(CYREG_CLKDIST_MSTR0), 0x07u);
 288:Generated_Source\PSoC5/cyfitter_cfg.c **** 	CY_SET_XTND_REG8((void CYFAR *)(CYREG_CLKDIST_BCFG0), 0x00u);
 289:Generated_Source\PSoC5/cyfitter_cfg.c **** 	CY_SET_XTND_REG8((void CYFAR *)(CYREG_CLKDIST_BCFG2), 0x48u);
 290:Generated_Source\PSoC5/cyfitter_cfg.c **** 	CY_SET_XTND_REG8((void CYFAR *)(CYREG_CLKDIST_MSTR0), 0x00u);
 291:Generated_Source\PSoC5/cyfitter_cfg.c **** 
 292:Generated_Source\PSoC5/cyfitter_cfg.c **** 	/* Configure USB Clock based on settings from Clock DWR */
 293:Generated_Source\PSoC5/cyfitter_cfg.c **** 	CY_SET_XTND_REG8((void CYFAR *)(CYREG_CLKDIST_UCFG), 0x00u);
 294:Generated_Source\PSoC5/cyfitter_cfg.c **** 	CY_SET_XTND_REG8((void CYFAR *)(CYREG_CLKDIST_LD), 0x02u);
 295:Generated_Source\PSoC5/cyfitter_cfg.c **** 	CY_SET_XTND_REG8((void CYFAR *)(CYREG_CLKDIST_DLY1), 0x04u);
 296:Generated_Source\PSoC5/cyfitter_cfg.c **** 
 297:Generated_Source\PSoC5/cyfitter_cfg.c **** 	CY_SET_XTND_REG8((void CYFAR *)(CYREG_PM_ACT_CFG2), ((CY_GET_XTND_REG8((void CYFAR *)CYREG_PM_ACT_
 298:Generated_Source\PSoC5/cyfitter_cfg.c **** 	CY_SET_XTND_REG8((void CYFAR *)(CYREG_PM_ACT_CFG1), ((CY_GET_XTND_REG8((void CYFAR *)CYREG_PM_ACT_
 299:Generated_Source\PSoC5/cyfitter_cfg.c **** 	CY_SET_XTND_REG8((void CYFAR *)(CYREG_PM_ACT_CFG0), ((CY_GET_XTND_REG8((void CYFAR *)CYREG_PM_ACT_
 300:Generated_Source\PSoC5/cyfitter_cfg.c **** }
 301:Generated_Source\PSoC5/cyfitter_cfg.c **** 
 302:Generated_Source\PSoC5/cyfitter_cfg.c **** 
ARM GAS  C:\Users\FRANKL~1\AppData\Local\Temp\cc8k5vSJ.s 			page 9


 303:Generated_Source\PSoC5/cyfitter_cfg.c **** /* Analog API Functions */
 304:Generated_Source\PSoC5/cyfitter_cfg.c **** 
 305:Generated_Source\PSoC5/cyfitter_cfg.c **** 
 306:Generated_Source\PSoC5/cyfitter_cfg.c **** /*******************************************************************************
 307:Generated_Source\PSoC5/cyfitter_cfg.c **** * Function Name: AnalogSetDefault
 308:Generated_Source\PSoC5/cyfitter_cfg.c **** ********************************************************************************
 309:Generated_Source\PSoC5/cyfitter_cfg.c **** *
 310:Generated_Source\PSoC5/cyfitter_cfg.c **** * Summary:
 311:Generated_Source\PSoC5/cyfitter_cfg.c **** *  Sets up the analog portions of the chip to default values based on chip
 312:Generated_Source\PSoC5/cyfitter_cfg.c **** *  configuration options from the project.
 313:Generated_Source\PSoC5/cyfitter_cfg.c **** *
 314:Generated_Source\PSoC5/cyfitter_cfg.c **** * Parameters:
 315:Generated_Source\PSoC5/cyfitter_cfg.c **** *  void
 316:Generated_Source\PSoC5/cyfitter_cfg.c **** *
 317:Generated_Source\PSoC5/cyfitter_cfg.c **** * Return:
 318:Generated_Source\PSoC5/cyfitter_cfg.c **** *  void
 319:Generated_Source\PSoC5/cyfitter_cfg.c **** *
 320:Generated_Source\PSoC5/cyfitter_cfg.c **** *******************************************************************************/
 321:Generated_Source\PSoC5/cyfitter_cfg.c **** static void AnalogSetDefault(void);
 322:Generated_Source\PSoC5/cyfitter_cfg.c **** static void AnalogSetDefault(void)
 323:Generated_Source\PSoC5/cyfitter_cfg.c **** {
 150              		.loc 1 323 0
 151              		.cfi_startproc
 152              		@ args = 0, pretend = 0, frame = 0
 153              		@ frame_needed = 0, uses_anonymous_args = 0
 154 0000 2DE9F041 		push	{r4, r5, r6, r7, r8, lr}
 155              		.cfi_def_cfa_offset 24
 156              		.cfi_offset 4, -24
 157              		.cfi_offset 5, -20
 158              		.cfi_offset 6, -16
 159              		.cfi_offset 7, -12
 160              		.cfi_offset 8, -8
 161              		.cfi_offset 14, -4
 324:Generated_Source\PSoC5/cyfitter_cfg.c **** 	uint8 bg_xover_inl_trim = CY_GET_XTND_REG8((void CYFAR *)(CYREG_FLSHID_MFG_CFG_BG_XOVER_INL_TRIM +
 162              		.loc 1 324 0
 163 0004 3C4B     		ldr	r3, .L13
 164 0006 1B78     		ldrb	r3, [r3]	@ zero_extendqisi2
 165 0008 DBB2     		uxtb	r3, r3
 166              	.LVL15:
 325:Generated_Source\PSoC5/cyfitter_cfg.c **** 	uint8 cr4 = CY_GET_XTND_REG8((void CYFAR *)(CYREG_RESET_CR4));
 167              		.loc 1 325 0
 168 000a 3C4E     		ldr	r6, .L13+4
 169 000c 3478     		ldrb	r4, [r6]	@ zero_extendqisi2
 170 000e E4B2     		uxtb	r4, r4
 171              	.LVL16:
 326:Generated_Source\PSoC5/cyfitter_cfg.c **** 	uint8 cr5 = CY_GET_XTND_REG8((void CYFAR *)(CYREG_RESET_CR5));
 172              		.loc 1 326 0
 173 0010 3B4F     		ldr	r7, .L13+8
 174 0012 3D78     		ldrb	r5, [r7]	@ zero_extendqisi2
 175 0014 EDB2     		uxtb	r5, r5
 176              	.LVL17:
 327:Generated_Source\PSoC5/cyfitter_cfg.c **** 	CY_SET_XTND_REG8((void CYFAR *)(CYREG_BG_DFT0), (bg_xover_inl_trim & 0x07u));
 177              		.loc 1 327 0
 178 0016 03F00701 		and	r1, r3, #7
 179 001a 3A4A     		ldr	r2, .L13+12
 180 001c 1170     		strb	r1, [r2]
 328:Generated_Source\PSoC5/cyfitter_cfg.c **** 	CY_SET_XTND_REG8((void CYFAR *)(CYREG_BG_DFT1), ((bg_xover_inl_trim >> 4) & 0x0Fu));
ARM GAS  C:\Users\FRANKL~1\AppData\Local\Temp\cc8k5vSJ.s 			page 10


 181              		.loc 1 328 0
 182 001e 1B09     		lsrs	r3, r3, #4
 183              	.LVL18:
 184 0020 0132     		adds	r2, r2, #1
 185 0022 1370     		strb	r3, [r2]
 329:Generated_Source\PSoC5/cyfitter_cfg.c **** 	/* Disable PRES while setting up SAR voltage reference */
 330:Generated_Source\PSoC5/cyfitter_cfg.c **** 	CY_SET_XTND_REG8((void CYFAR *)(CYREG_RESET_CR4), (cr4 | 0x03u));
 186              		.loc 1 330 0
 187 0024 44F00303 		orr	r3, r4, #3
 188 0028 3370     		strb	r3, [r6]
 331:Generated_Source\PSoC5/cyfitter_cfg.c **** 	CY_SET_XTND_REG8((void CYFAR *)(CYREG_RESET_CR5), (cr5 | 0x03u));
 189              		.loc 1 331 0
 190 002a 45F00303 		orr	r3, r5, #3
 191 002e 3B70     		strb	r3, [r7]
 332:Generated_Source\PSoC5/cyfitter_cfg.c **** 	CY_SET_XTND_REG16((void CYFAR *)CYREG_PRT1_AMUX, 0xA008u);
 192              		.loc 1 332 0
 193 0030 4AF20802 		movw	r2, #40968
 194 0034 344B     		ldr	r3, .L13+16
 195 0036 1A80     		strh	r2, [r3]	@ movhi
 333:Generated_Source\PSoC5/cyfitter_cfg.c **** 	CY_SET_XTND_REG8((void CYFAR *)CYREG_PRT2_AMUX, 0x02u);
 196              		.loc 1 333 0
 197 0038 0220     		movs	r0, #2
 198 003a 1033     		adds	r3, r3, #16
 199 003c 1870     		strb	r0, [r3]
 334:Generated_Source\PSoC5/cyfitter_cfg.c **** 	CY_SET_XTND_REG8((void CYFAR *)CYREG_PRT4_AG, 0x01u);
 200              		.loc 1 334 0
 201 003e 0121     		movs	r1, #1
 202 0040 2133     		adds	r3, r3, #33
 203 0042 1970     		strb	r1, [r3]
 335:Generated_Source\PSoC5/cyfitter_cfg.c **** 	CY_SET_XTND_REG8((void CYFAR *)CYREG_PRT5_AG, 0x10u);
 204              		.loc 1 335 0
 205 0044 1022     		movs	r2, #16
 206 0046 1033     		adds	r3, r3, #16
 207 0048 1A70     		strb	r2, [r3]
 336:Generated_Source\PSoC5/cyfitter_cfg.c **** 	CY_SET_XTND_REG8((void CYFAR *)CYREG_PRT6_AG, 0x08u);
 208              		.loc 1 336 0
 209 004a 4FF0080E 		mov	lr, #8
 210 004e 1033     		adds	r3, r3, #16
 211 0050 83F800E0 		strb	lr, [r3]
 337:Generated_Source\PSoC5/cyfitter_cfg.c **** 	CY_SET_XTND_REG8((void CYFAR *)CYREG_SAR0_CSR1, 0x40u);
 212              		.loc 1 337 0
 213 0054 4023     		movs	r3, #64
 214 0056 DFF8C0C0 		ldr	ip, .L13+32
 215 005a 8CF80030 		strb	r3, [ip]
 338:Generated_Source\PSoC5/cyfitter_cfg.c **** 	CY_SET_XTND_REG8((void CYFAR *)CYREG_SAR0_CSR3, 0x00u);
 216              		.loc 1 338 0
 217 005e 4FF0000C 		mov	ip, #0
 218 0062 DFF8B880 		ldr	r8, .L13+36
 219 0066 88F800C0 		strb	ip, [r8]
 339:Generated_Source\PSoC5/cyfitter_cfg.c **** 	CY_SET_XTND_REG8((void CYFAR *)CYREG_SAR1_CSR1, 0x40u);
 220              		.loc 1 339 0
 221 006a 08F10608 		add	r8, r8, #6
 222 006e 88F80030 		strb	r3, [r8]
 340:Generated_Source\PSoC5/cyfitter_cfg.c **** 	CY_SET_XTND_REG8((void CYFAR *)CYREG_SAR1_CSR3, 0x00u);
 223              		.loc 1 340 0
 224 0072 08F10208 		add	r8, r8, #2
 225 0076 88F800C0 		strb	ip, [r8]
ARM GAS  C:\Users\FRANKL~1\AppData\Local\Temp\cc8k5vSJ.s 			page 11


 341:Generated_Source\PSoC5/cyfitter_cfg.c **** 	CY_SET_XTND_REG8((void CYFAR *)CYREG_SC2_SW0, 0x08u);
 226              		.loc 1 341 0
 227 007a DFF8A4C0 		ldr	ip, .L13+40
 228 007e 8CF800E0 		strb	lr, [ip]
 342:Generated_Source\PSoC5/cyfitter_cfg.c **** 	CY_SET_XTND_REG8((void CYFAR *)CYREG_SC2_SW4, 0x02u);
 229              		.loc 1 342 0
 230 0082 DFF8A0E0 		ldr	lr, .L13+44
 231 0086 8EF80000 		strb	r0, [lr]
 343:Generated_Source\PSoC5/cyfitter_cfg.c **** 	CY_SET_XTND_REG8((void CYFAR *)CYREG_SC2_SW8, 0x40u);
 232              		.loc 1 343 0
 233 008a 0EF1040E 		add	lr, lr, #4
 234 008e 8EF80030 		strb	r3, [lr]
 344:Generated_Source\PSoC5/cyfitter_cfg.c **** 	CY_SET_XTND_REG8((void CYFAR *)CYREG_SC3_SW0, 0x2Bu);
 235              		.loc 1 344 0
 236 0092 4FF02B0C 		mov	ip, #43
 237 0096 0EF1080E 		add	lr, lr, #8
 238 009a 8EF800C0 		strb	ip, [lr]
 345:Generated_Source\PSoC5/cyfitter_cfg.c **** 	CY_SET_XTND_REG8((void CYFAR *)CYREG_DAC0_SW0, 0x03u);
 239              		.loc 1 345 0
 240 009e 4FF0030C 		mov	ip, #3
 241 00a2 0EF1500E 		add	lr, lr, #80
 242 00a6 8EF800C0 		strb	ip, [lr]
 346:Generated_Source\PSoC5/cyfitter_cfg.c **** 	CY_SET_XTND_REG8((void CYFAR *)CYREG_DAC2_SW3, 0x01u);
 243              		.loc 1 346 0
 244 00aa 0EF1130E 		add	lr, lr, #19
 245 00ae 8EF80010 		strb	r1, [lr]
 347:Generated_Source\PSoC5/cyfitter_cfg.c **** 	CY_SET_XTND_REG8((void CYFAR *)CYREG_DAC3_SW0, 0x20u);
 246              		.loc 1 347 0
 247 00b2 4FF0200C 		mov	ip, #32
 248 00b6 0EF1050E 		add	lr, lr, #5
 249 00ba 8EF800C0 		strb	ip, [lr]
 348:Generated_Source\PSoC5/cyfitter_cfg.c **** 	CY_SET_XTND_REG8((void CYFAR *)CYREG_DSM0_SW0, 0x40u);
 250              		.loc 1 348 0
 251 00be 0EF1680E 		add	lr, lr, #104
 252 00c2 8EF80030 		strb	r3, [lr]
 349:Generated_Source\PSoC5/cyfitter_cfg.c **** 	CY_SET_XTND_REG8((void CYFAR *)CYREG_DSM0_SW4, 0x02u);
 253              		.loc 1 349 0
 254 00c6 0EF1040E 		add	lr, lr, #4
 255 00ca 8EF80000 		strb	r0, [lr]
 350:Generated_Source\PSoC5/cyfitter_cfg.c **** 	CY_SET_XTND_REG8((void CYFAR *)CYREG_SAR0_SW0, 0x40u);
 256              		.loc 1 350 0
 257 00ce 0F48     		ldr	r0, .L13+20
 258 00d0 0370     		strb	r3, [r0]
 351:Generated_Source\PSoC5/cyfitter_cfg.c **** 	CY_SET_XTND_REG8((void CYFAR *)CYREG_SAR0_SW4, 0x01u);
 259              		.loc 1 351 0
 260 00d2 0F4B     		ldr	r3, .L13+24
 261 00d4 1970     		strb	r1, [r3]
 352:Generated_Source\PSoC5/cyfitter_cfg.c **** 	CY_SET_XTND_REG8((void CYFAR *)CYREG_SAR1_SW0, 0x10u);
 262              		.loc 1 352 0
 263 00d6 0433     		adds	r3, r3, #4
 264 00d8 1A70     		strb	r2, [r3]
 353:Generated_Source\PSoC5/cyfitter_cfg.c **** 	CY_SET_XTND_REG8((void CYFAR *)CYREG_SAR1_SW3, 0x10u);
 265              		.loc 1 353 0
 266 00da 0333     		adds	r3, r3, #3
 267 00dc 1A70     		strb	r2, [r3]
 354:Generated_Source\PSoC5/cyfitter_cfg.c **** 	CY_SET_XTND_REG8((void CYFAR *)CYREG_BUS_SW0, 0x10u);
 268              		.loc 1 354 0
ARM GAS  C:\Users\FRANKL~1\AppData\Local\Temp\cc8k5vSJ.s 			page 12


 269 00de 2D33     		adds	r3, r3, #45
 270 00e0 1A70     		strb	r2, [r3]
 355:Generated_Source\PSoC5/cyfitter_cfg.c **** 	CyDelayUs(10u); /* Allow vref to settle before re-enabling PRES */
 271              		.loc 1 355 0
 272 00e2 0A20     		movs	r0, #10
 273 00e4 FFF7FEFF 		bl	CyDelayUs
 274              	.LVL19:
 356:Generated_Source\PSoC5/cyfitter_cfg.c **** 	CY_SET_XTND_REG8((void CYFAR *)(CYREG_RESET_CR5), (cr5));
 275              		.loc 1 356 0
 276 00e8 3D70     		strb	r5, [r7]
 357:Generated_Source\PSoC5/cyfitter_cfg.c **** 	CY_SET_XTND_REG8((void CYFAR *)(CYREG_RESET_CR4), (cr4));
 277              		.loc 1 357 0
 278 00ea 3470     		strb	r4, [r6]
 358:Generated_Source\PSoC5/cyfitter_cfg.c **** 	CY_SET_XTND_REG8((void CYFAR *)CYREG_PUMP_CR0, 0x44u);
 279              		.loc 1 358 0
 280 00ec 4422     		movs	r2, #68
 281 00ee 094B     		ldr	r3, .L13+28
 282 00f0 1A70     		strb	r2, [r3]
 283 00f2 BDE8F081 		pop	{r4, r5, r6, r7, r8, pc}
 284              	.LVL20:
 285              	.L14:
 286 00f6 00BF     		.align	2
 287              	.L13:
 288 00f8 CF010049 		.word	1224737231
 289 00fc F8460040 		.word	1073759992
 290 0100 F9460040 		.word	1073759993
 291 0104 6E580040 		.word	1073764462
 292 0108 1C510040 		.word	1073762588
 293 010c 205B0040 		.word	1073765152
 294 0110 245B0040 		.word	1073765156
 295 0114 76580040 		.word	1073764470
 296 0118 01590040 		.word	1073764609
 297 011c 03590040 		.word	1073764611
 298 0120 205A0040 		.word	1073764896
 299 0124 245A0040 		.word	1073764900
 300              		.cfi_endproc
 301              	.LFE6:
 302              		.size	AnalogSetDefault, .-AnalogSetDefault
 303              		.section	.text.CYCONFIGCPY,"ax",%progbits
 304              		.align	2
 305              		.thumb
 306              		.thumb_func
 307              		.type	CYCONFIGCPY, %function
 308              	CYCONFIGCPY:
 309              	.LFB1:
  85:Generated_Source\PSoC5/cyfitter_cfg.c **** 	(void)memcpy(dest, src, n);
 310              		.loc 1 85 0
 311              		.cfi_startproc
 312              		@ args = 0, pretend = 0, frame = 0
 313              		@ frame_needed = 0, uses_anonymous_args = 0
 314              	.LVL21:
 315 0000 08B5     		push	{r3, lr}
 316              		.cfi_def_cfa_offset 8
 317              		.cfi_offset 3, -8
 318              		.cfi_offset 14, -4
  86:Generated_Source\PSoC5/cyfitter_cfg.c **** }
 319              		.loc 1 86 0
ARM GAS  C:\Users\FRANKL~1\AppData\Local\Temp\cc8k5vSJ.s 			page 13


 320 0002 FFF7FEFF 		bl	memcpy
 321              	.LVL22:
 322 0006 08BD     		pop	{r3, pc}
 323              		.cfi_endproc
 324              	.LFE1:
 325              		.size	CYCONFIGCPY, .-CYCONFIGCPY
 326              		.section	.text.ClockSetup,"ax",%progbits
 327              		.align	2
 328              		.thumb
 329              		.thumb_func
 330              		.type	ClockSetup, %function
 331              	ClockSetup:
 332              	.LFB5:
 246:Generated_Source\PSoC5/cyfitter_cfg.c **** 	uint32 timeout;
 333              		.loc 1 246 0
 334              		.cfi_startproc
 335              		@ args = 0, pretend = 0, frame = 0
 336              		@ frame_needed = 0, uses_anonymous_args = 0
 337 0000 38B5     		push	{r3, r4, r5, lr}
 338              		.cfi_def_cfa_offset 16
 339              		.cfi_offset 3, -16
 340              		.cfi_offset 4, -12
 341              		.cfi_offset 5, -8
 342              		.cfi_offset 14, -4
 252:Generated_Source\PSoC5/cyfitter_cfg.c **** 	CY_SET_XTND_REG8((void CYFAR *)(CYREG_CLKDIST_DCFG0_CFG0 + 0x2u), 0x50u);
 343              		.loc 1 252 0
 344 0002 0024     		movs	r4, #0
 345 0004 324B     		ldr	r3, .L23
 346 0006 1C80     		strh	r4, [r3]	@ movhi
 253:Generated_Source\PSoC5/cyfitter_cfg.c **** 	CY_SET_XTND_REG16((void CYFAR *)(CYREG_CLKDIST_DCFG1_CFG0), 0x000Eu);
 347              		.loc 1 253 0
 348 0008 5022     		movs	r2, #80
 349 000a 0233     		adds	r3, r3, #2
 350 000c 1A70     		strb	r2, [r3]
 254:Generated_Source\PSoC5/cyfitter_cfg.c **** 	CY_SET_XTND_REG8((void CYFAR *)(CYREG_CLKDIST_DCFG1_CFG0 + 0x2u), 0x18u);
 351              		.loc 1 254 0
 352 000e 0E22     		movs	r2, #14
 353 0010 0233     		adds	r3, r3, #2
 354 0012 1A80     		strh	r2, [r3]	@ movhi
 255:Generated_Source\PSoC5/cyfitter_cfg.c **** 	CY_SET_XTND_REG16((void CYFAR *)(CYREG_CLKDIST_DCFG2_CFG0), 0x0138u);
 355              		.loc 1 255 0
 356 0014 1823     		movs	r3, #24
 357 0016 2F4A     		ldr	r2, .L23+4
 358 0018 1370     		strb	r3, [r2]
 256:Generated_Source\PSoC5/cyfitter_cfg.c **** 	CY_SET_XTND_REG8((void CYFAR *)(CYREG_CLKDIST_DCFG2_CFG0 + 0x2u), 0x18u);
 359              		.loc 1 256 0
 360 001a 4FF49C71 		mov	r1, #312
 361 001e 0232     		adds	r2, r2, #2
 362 0020 1180     		strh	r1, [r2]	@ movhi
 257:Generated_Source\PSoC5/cyfitter_cfg.c **** 
 363              		.loc 1 257 0
 364 0022 0232     		adds	r2, r2, #2
 365 0024 1370     		strb	r3, [r2]
 260:Generated_Source\PSoC5/cyfitter_cfg.c **** 
 366              		.loc 1 260 0
 367 0026 0C22     		movs	r2, #12
 368 0028 2B49     		ldr	r1, .L23+8
ARM GAS  C:\Users\FRANKL~1\AppData\Local\Temp\cc8k5vSJ.s 			page 14


 369 002a 2C48     		ldr	r0, .L23+12
 370 002c FFF7FEFF 		bl	CYCONFIGCPY
 371              	.LVL23:
 263:Generated_Source\PSoC5/cyfitter_cfg.c **** 
 372              		.loc 1 263 0
 373 0030 0622     		movs	r2, #6
 374 0032 2B4B     		ldr	r3, .L23+16
 375 0034 1A70     		strb	r2, [r3]
 266:Generated_Source\PSoC5/cyfitter_cfg.c **** 	CY_SET_XTND_REG8((void CYFAR *)(CYREG_IMO_TR1), (CY_GET_XTND_REG8((void CYFAR *)CYREG_FLSHID_CUST_
 376              		.loc 1 266 0
 377 0036 5222     		movs	r2, #82
 378 0038 A3F58073 		sub	r3, r3, #256
 379 003c 1A70     		strb	r2, [r3]
 267:Generated_Source\PSoC5/cyfitter_cfg.c **** 
 380              		.loc 1 267 0
 381 003e 294B     		ldr	r3, .L23+20
 382 0040 1B78     		ldrb	r3, [r3]	@ zero_extendqisi2
 383 0042 DBB2     		uxtb	r3, r3
 384 0044 284A     		ldr	r2, .L23+24
 385 0046 1370     		strb	r3, [r2]
 270:Generated_Source\PSoC5/cyfitter_cfg.c **** 	CY_SET_XTND_REG16((void CYFAR *)(CYREG_FASTCLK_PLL_CFG0), 0x1251u);
 386              		.loc 1 270 0
 387 0048 4FF4E162 		mov	r2, #1800
 388 004c 274B     		ldr	r3, .L23+28
 389 004e 1A80     		strh	r2, [r3]	@ movhi
 271:Generated_Source\PSoC5/cyfitter_cfg.c **** 	/* Wait up to 250us for the PLL to lock */
 390              		.loc 1 271 0
 391 0050 41F25122 		movw	r2, #4689
 392 0054 023B     		subs	r3, r3, #2
 393 0056 1A80     		strh	r2, [r3]	@ movhi
 394              	.LVL24:
 274:Generated_Source\PSoC5/cyfitter_cfg.c **** 	{ 
 395              		.loc 1 274 0
 396 0058 1925     		movs	r5, #25
 397 005a 0CE0     		b	.L18
 398              	.LVL25:
 399              	.L20:
 276:Generated_Source\PSoC5/cyfitter_cfg.c **** 		CyDelayCycles(10u * 48u); /* Delay 10us based on 48MHz clock */
 400              		.loc 1 276 0 discriminator 4
 401 005c 244B     		ldr	r3, .L23+32
 402 005e 1B78     		ldrb	r3, [r3]	@ zero_extendqisi2
 403 0060 03F00103 		and	r3, r3, #1
 404 0064 43EA4404 		orr	r4, r3, r4, lsl #1
 405              	.LVL26:
 406 0068 04F00304 		and	r4, r4, #3
 407              	.LVL27:
 277:Generated_Source\PSoC5/cyfitter_cfg.c **** 	}
 408              		.loc 1 277 0 discriminator 4
 409 006c 4FF4F070 		mov	r0, #480
 410 0070 FFF7FEFF 		bl	CyDelayCycles
 411              	.LVL28:
 274:Generated_Source\PSoC5/cyfitter_cfg.c **** 	{ 
 412              		.loc 1 274 0 discriminator 4
 413 0074 013D     		subs	r5, r5, #1
 414              	.LVL29:
 415              	.L18:
 274:Generated_Source\PSoC5/cyfitter_cfg.c **** 	{ 
ARM GAS  C:\Users\FRANKL~1\AppData\Local\Temp\cc8k5vSJ.s 			page 15


 416              		.loc 1 274 0 is_stmt 0 discriminator 1
 417 0076 0DB1     		cbz	r5, .L19
 274:Generated_Source\PSoC5/cyfitter_cfg.c **** 	{ 
 418              		.loc 1 274 0 discriminator 3
 419 0078 032C     		cmp	r4, #3
 420 007a EFD1     		bne	.L20
 421              	.L19:
 280:Generated_Source\PSoC5/cyfitter_cfg.c **** 	{
 422              		.loc 1 280 0 is_stmt 1
 423 007c 15B9     		cbnz	r5, .L21
 282:Generated_Source\PSoC5/cyfitter_cfg.c **** 	}
 424              		.loc 1 282 0
 425 007e 0320     		movs	r0, #3
 426 0080 FFF7FEFF 		bl	CyClockStartupError
 427              	.LVL30:
 428              	.L21:
 286:Generated_Source\PSoC5/cyfitter_cfg.c **** 	CY_SET_XTND_REG8((void CYFAR *)(CYREG_CLKDIST_MSTR0), 0x07u);
 429              		.loc 1 286 0
 430 0084 1B4A     		ldr	r2, .L23+36
 431 0086 4FF48073 		mov	r3, #256
 432 008a 1380     		strh	r3, [r2]	@ movhi
 287:Generated_Source\PSoC5/cyfitter_cfg.c **** 	CY_SET_XTND_REG8((void CYFAR *)(CYREG_CLKDIST_BCFG0), 0x00u);
 433              		.loc 1 287 0
 434 008c 0723     		movs	r3, #7
 435 008e 1370     		strb	r3, [r2]
 288:Generated_Source\PSoC5/cyfitter_cfg.c **** 	CY_SET_XTND_REG8((void CYFAR *)(CYREG_CLKDIST_BCFG2), 0x48u);
 436              		.loc 1 288 0
 437 0090 0023     		movs	r3, #0
 438 0092 1949     		ldr	r1, .L23+40
 439 0094 0B70     		strb	r3, [r1]
 289:Generated_Source\PSoC5/cyfitter_cfg.c **** 	CY_SET_XTND_REG8((void CYFAR *)(CYREG_CLKDIST_MSTR0), 0x00u);
 440              		.loc 1 289 0
 441 0096 4820     		movs	r0, #72
 442 0098 0231     		adds	r1, r1, #2
 443 009a 0870     		strb	r0, [r1]
 290:Generated_Source\PSoC5/cyfitter_cfg.c **** 
 444              		.loc 1 290 0
 445 009c 1370     		strb	r3, [r2]
 293:Generated_Source\PSoC5/cyfitter_cfg.c **** 	CY_SET_XTND_REG8((void CYFAR *)(CYREG_CLKDIST_LD), 0x02u);
 446              		.loc 1 293 0
 447 009e 0532     		adds	r2, r2, #5
 448 00a0 1370     		strb	r3, [r2]
 294:Generated_Source\PSoC5/cyfitter_cfg.c **** 	CY_SET_XTND_REG8((void CYFAR *)(CYREG_CLKDIST_DLY1), 0x04u);
 449              		.loc 1 294 0
 450 00a2 0222     		movs	r2, #2
 451 00a4 154B     		ldr	r3, .L23+44
 452 00a6 1A70     		strb	r2, [r3]
 295:Generated_Source\PSoC5/cyfitter_cfg.c **** 
 453              		.loc 1 295 0
 454 00a8 0422     		movs	r2, #4
 455 00aa 0A33     		adds	r3, r3, #10
 456 00ac 1A70     		strb	r2, [r3]
 297:Generated_Source\PSoC5/cyfitter_cfg.c **** 	CY_SET_XTND_REG8((void CYFAR *)(CYREG_PM_ACT_CFG1), ((CY_GET_XTND_REG8((void CYFAR *)CYREG_PM_ACT_
 457              		.loc 1 297 0
 458 00ae 144A     		ldr	r2, .L23+48
 459 00b0 1378     		ldrb	r3, [r2]	@ zero_extendqisi2
 460 00b2 43F00703 		orr	r3, r3, #7
ARM GAS  C:\Users\FRANKL~1\AppData\Local\Temp\cc8k5vSJ.s 			page 16


 461 00b6 1370     		strb	r3, [r2]
 298:Generated_Source\PSoC5/cyfitter_cfg.c **** 	CY_SET_XTND_REG8((void CYFAR *)(CYREG_PM_ACT_CFG0), ((CY_GET_XTND_REG8((void CYFAR *)CYREG_PM_ACT_
 462              		.loc 1 298 0
 463 00b8 013A     		subs	r2, r2, #1
 464 00ba 1378     		ldrb	r3, [r2]	@ zero_extendqisi2
 465 00bc 43F00703 		orr	r3, r3, #7
 466 00c0 1370     		strb	r3, [r2]
 299:Generated_Source\PSoC5/cyfitter_cfg.c **** }
 467              		.loc 1 299 0
 468 00c2 013A     		subs	r2, r2, #1
 469 00c4 1378     		ldrb	r3, [r2]	@ zero_extendqisi2
 470 00c6 43F08003 		orr	r3, r3, #128
 471 00ca 1370     		strb	r3, [r2]
 472 00cc 38BD     		pop	{r3, r4, r5, pc}
 473              	.LVL31:
 474              	.L24:
 475 00ce 00BF     		.align	2
 476              	.L23:
 477 00d0 80400040 		.word	1073758336
 478 00d4 86400040 		.word	1073758342
 479 00d8 50090048 		.word	1207961936
 480 00dc 00410040 		.word	1073758464
 481 00e0 00430040 		.word	1073758976
 482 00e4 0F010049 		.word	1224737039
 483 00e8 A1460040 		.word	1073759905
 484 00ec 22420040 		.word	1073758754
 485 00f0 25420040 		.word	1073758757
 486 00f4 04400040 		.word	1073758212
 487 00f8 06400040 		.word	1073758214
 488 00fc 01400040 		.word	1073758209
 489 0100 A2430040 		.word	1073759138
 490              		.cfi_endproc
 491              	.LFE5:
 492              		.size	ClockSetup, .-ClockSetup
 493              		.section	.text.SetAnalogRoutingPumps,"ax",%progbits
 494              		.align	2
 495              		.global	SetAnalogRoutingPumps
 496              		.thumb
 497              		.thumb_func
 498              		.type	SetAnalogRoutingPumps, %function
 499              	SetAnalogRoutingPumps:
 500              	.LFB7:
 359:Generated_Source\PSoC5/cyfitter_cfg.c **** }
 360:Generated_Source\PSoC5/cyfitter_cfg.c **** 
 361:Generated_Source\PSoC5/cyfitter_cfg.c **** 
 362:Generated_Source\PSoC5/cyfitter_cfg.c **** /*******************************************************************************
 363:Generated_Source\PSoC5/cyfitter_cfg.c **** * Function Name: SetAnalogRoutingPumps
 364:Generated_Source\PSoC5/cyfitter_cfg.c **** ********************************************************************************
 365:Generated_Source\PSoC5/cyfitter_cfg.c **** *
 366:Generated_Source\PSoC5/cyfitter_cfg.c **** * Summary:
 367:Generated_Source\PSoC5/cyfitter_cfg.c **** * Enables or disables the analog pumps feeding analog routing switches.
 368:Generated_Source\PSoC5/cyfitter_cfg.c **** * Intended to be called at startup, based on the Vdda system configuration;
 369:Generated_Source\PSoC5/cyfitter_cfg.c **** * may be called during operation when the user informs us that the Vdda voltage
 370:Generated_Source\PSoC5/cyfitter_cfg.c **** * crossed the pump threshold.
 371:Generated_Source\PSoC5/cyfitter_cfg.c **** *
 372:Generated_Source\PSoC5/cyfitter_cfg.c **** * Parameters:
 373:Generated_Source\PSoC5/cyfitter_cfg.c **** *  enabled - 1 to enable the pumps, 0 to disable the pumps
ARM GAS  C:\Users\FRANKL~1\AppData\Local\Temp\cc8k5vSJ.s 			page 17


 374:Generated_Source\PSoC5/cyfitter_cfg.c **** *
 375:Generated_Source\PSoC5/cyfitter_cfg.c **** * Return:
 376:Generated_Source\PSoC5/cyfitter_cfg.c **** *  void
 377:Generated_Source\PSoC5/cyfitter_cfg.c **** *
 378:Generated_Source\PSoC5/cyfitter_cfg.c **** *******************************************************************************/
 379:Generated_Source\PSoC5/cyfitter_cfg.c **** void SetAnalogRoutingPumps(uint8 enabled)
 380:Generated_Source\PSoC5/cyfitter_cfg.c **** {
 501              		.loc 1 380 0
 502              		.cfi_startproc
 503              		@ args = 0, pretend = 0, frame = 0
 504              		@ frame_needed = 0, uses_anonymous_args = 0
 505              		@ link register save eliminated.
 506              	.LVL32:
 381:Generated_Source\PSoC5/cyfitter_cfg.c **** 	uint8 regValue = CY_GET_XTND_REG8((void CYFAR *)CYREG_PUMP_CR0);
 507              		.loc 1 381 0
 508 0000 054B     		ldr	r3, .L28
 509 0002 1B78     		ldrb	r3, [r3]	@ zero_extendqisi2
 510 0004 DBB2     		uxtb	r3, r3
 511              	.LVL33:
 382:Generated_Source\PSoC5/cyfitter_cfg.c **** 	if (enabled != 0u)
 512              		.loc 1 382 0
 513 0006 10B1     		cbz	r0, .L26
 383:Generated_Source\PSoC5/cyfitter_cfg.c **** 	{
 384:Generated_Source\PSoC5/cyfitter_cfg.c **** 		regValue |= 0x22u;
 514              		.loc 1 384 0
 515 0008 43F02203 		orr	r3, r3, #34
 516              	.LVL34:
 517 000c 01E0     		b	.L27
 518              	.L26:
 385:Generated_Source\PSoC5/cyfitter_cfg.c **** 	}
 386:Generated_Source\PSoC5/cyfitter_cfg.c **** 	else
 387:Generated_Source\PSoC5/cyfitter_cfg.c **** 	{
 388:Generated_Source\PSoC5/cyfitter_cfg.c **** 		regValue &= (uint8)~0x22u;
 519              		.loc 1 388 0
 520 000e 03F0DD03 		and	r3, r3, #221
 521              	.LVL35:
 522              	.L27:
 389:Generated_Source\PSoC5/cyfitter_cfg.c **** 	}
 390:Generated_Source\PSoC5/cyfitter_cfg.c **** 	CY_SET_XTND_REG8((void CYFAR *)CYREG_PUMP_CR0, regValue);
 523              		.loc 1 390 0
 524 0012 014A     		ldr	r2, .L28
 525 0014 1370     		strb	r3, [r2]
 526 0016 7047     		bx	lr
 527              	.L29:
 528              		.align	2
 529              	.L28:
 530 0018 76580040 		.word	1073764470
 531              		.cfi_endproc
 532              	.LFE7:
 533              		.size	SetAnalogRoutingPumps, .-SetAnalogRoutingPumps
 534              		.section	.text.cyfitter_cfg,"ax",%progbits
 535              		.align	2
 536              		.global	cyfitter_cfg
 537              		.thumb
 538              		.thumb_func
 539              		.type	cyfitter_cfg, %function
 540              	cyfitter_cfg:
ARM GAS  C:\Users\FRANKL~1\AppData\Local\Temp\cc8k5vSJ.s 			page 18


 541              	.LFB8:
 391:Generated_Source\PSoC5/cyfitter_cfg.c **** }
 392:Generated_Source\PSoC5/cyfitter_cfg.c **** 
 393:Generated_Source\PSoC5/cyfitter_cfg.c **** 
 394:Generated_Source\PSoC5/cyfitter_cfg.c **** 
 395:Generated_Source\PSoC5/cyfitter_cfg.c **** 
 396:Generated_Source\PSoC5/cyfitter_cfg.c **** /*******************************************************************************
 397:Generated_Source\PSoC5/cyfitter_cfg.c **** * Function Name: cyfitter_cfg
 398:Generated_Source\PSoC5/cyfitter_cfg.c **** ********************************************************************************
 399:Generated_Source\PSoC5/cyfitter_cfg.c **** * Summary:
 400:Generated_Source\PSoC5/cyfitter_cfg.c **** *  This function is called by the start-up code for the selected device. It
 401:Generated_Source\PSoC5/cyfitter_cfg.c **** *  performs all of the necessary device configuration based on the design
 402:Generated_Source\PSoC5/cyfitter_cfg.c **** *  settings.  This includes settings from the Design Wide Resources (DWR) such
 403:Generated_Source\PSoC5/cyfitter_cfg.c **** *  as Clocks and Pins as well as any component configuration that is necessary.
 404:Generated_Source\PSoC5/cyfitter_cfg.c **** *
 405:Generated_Source\PSoC5/cyfitter_cfg.c **** * Parameters:
 406:Generated_Source\PSoC5/cyfitter_cfg.c **** *   void
 407:Generated_Source\PSoC5/cyfitter_cfg.c **** *
 408:Generated_Source\PSoC5/cyfitter_cfg.c **** * Return:
 409:Generated_Source\PSoC5/cyfitter_cfg.c **** *   void
 410:Generated_Source\PSoC5/cyfitter_cfg.c **** *
 411:Generated_Source\PSoC5/cyfitter_cfg.c **** *******************************************************************************/
 412:Generated_Source\PSoC5/cyfitter_cfg.c **** 
 413:Generated_Source\PSoC5/cyfitter_cfg.c **** void cyfitter_cfg(void)
 414:Generated_Source\PSoC5/cyfitter_cfg.c **** {
 542              		.loc 1 414 0
 543              		.cfi_startproc
 544              		@ args = 0, pretend = 0, frame = 0
 545              		@ frame_needed = 0, uses_anonymous_args = 0
 546 0000 38B5     		push	{r3, r4, r5, lr}
 547              		.cfi_def_cfa_offset 16
 548              		.cfi_offset 3, -16
 549              		.cfi_offset 4, -12
 550              		.cfi_offset 5, -8
 551              		.cfi_offset 14, -4
 415:Generated_Source\PSoC5/cyfitter_cfg.c **** #ifdef CYGlobalIntDisable
 416:Generated_Source\PSoC5/cyfitter_cfg.c **** 	/* Disable interrupts by default. Let user enable if/when they want. */
 417:Generated_Source\PSoC5/cyfitter_cfg.c **** 	CYGlobalIntDisable
 552              		.loc 1 417 0
 553              		.syntax unified
 554              	@ 417 "Generated_Source\PSoC5\cyfitter_cfg.c" 1
 555 0002 72B6     		CPSID   i
 556              	@ 0 "" 2
 557              	.LVL36:
 558              		.thumb
 559              		.syntax unified
 560              	.LBB3:
 418:Generated_Source\PSoC5/cyfitter_cfg.c **** #endif
 419:Generated_Source\PSoC5/cyfitter_cfg.c **** 
 420:Generated_Source\PSoC5/cyfitter_cfg.c **** 	{
 421:Generated_Source\PSoC5/cyfitter_cfg.c **** 
 422:Generated_Source\PSoC5/cyfitter_cfg.c **** 		CYPACKED typedef struct {
 423:Generated_Source\PSoC5/cyfitter_cfg.c **** 			void CYFAR *address;
 424:Generated_Source\PSoC5/cyfitter_cfg.c **** 			uint16 size;
 425:Generated_Source\PSoC5/cyfitter_cfg.c **** 		} CYPACKED_ATTR cfg_memset_t;
 426:Generated_Source\PSoC5/cyfitter_cfg.c **** 
 427:Generated_Source\PSoC5/cyfitter_cfg.c **** 
ARM GAS  C:\Users\FRANKL~1\AppData\Local\Temp\cc8k5vSJ.s 			page 19


 428:Generated_Source\PSoC5/cyfitter_cfg.c **** 		CYPACKED typedef struct {
 429:Generated_Source\PSoC5/cyfitter_cfg.c **** 			void CYFAR *dest;
 430:Generated_Source\PSoC5/cyfitter_cfg.c **** 			const void CYFAR *src;
 431:Generated_Source\PSoC5/cyfitter_cfg.c **** 			uint16 size;
 432:Generated_Source\PSoC5/cyfitter_cfg.c **** 		} CYPACKED_ATTR cfg_memcpy_t;
 433:Generated_Source\PSoC5/cyfitter_cfg.c **** 
 434:Generated_Source\PSoC5/cyfitter_cfg.c **** 		static const cfg_memset_t CYCODE cfg_memset_list[] = {
 435:Generated_Source\PSoC5/cyfitter_cfg.c **** 			/* address, size */
 436:Generated_Source\PSoC5/cyfitter_cfg.c **** 			{(void CYFAR *)(CYREG_TMR0_CFG0), 12u},
 437:Generated_Source\PSoC5/cyfitter_cfg.c **** 			{(void CYFAR *)(CYREG_PRT0_DR), 16u},
 438:Generated_Source\PSoC5/cyfitter_cfg.c **** 			{(void CYFAR *)(CYREG_PRT3_DR), 16u},
 439:Generated_Source\PSoC5/cyfitter_cfg.c **** 			{(void CYFAR *)(CYDEV_UCFG_B0_P0_U0_BASE), 3072u},
 440:Generated_Source\PSoC5/cyfitter_cfg.c **** 			{(void CYFAR *)(CYDEV_UCFG_B0_P6_U1_BASE), 896u},
 441:Generated_Source\PSoC5/cyfitter_cfg.c **** 			{(void CYFAR *)(CYDEV_UCFG_B1_P2_U0_BASE), 2048u},
 442:Generated_Source\PSoC5/cyfitter_cfg.c **** 			{(void CYFAR *)(CYDEV_UCFG_DSI0_BASE), 2560u},
 443:Generated_Source\PSoC5/cyfitter_cfg.c **** 			{(void CYFAR *)(CYDEV_UCFG_DSI12_BASE), 512u},
 444:Generated_Source\PSoC5/cyfitter_cfg.c **** 			{(void CYFAR *)(CYREG_BCTL0_MDCLK_EN), 32u},
 445:Generated_Source\PSoC5/cyfitter_cfg.c **** 		};
 446:Generated_Source\PSoC5/cyfitter_cfg.c **** 
 447:Generated_Source\PSoC5/cyfitter_cfg.c **** 		static const cfg_memcpy_t CYCODE cfg_memcpy_list [] = {
 448:Generated_Source\PSoC5/cyfitter_cfg.c **** 			/* dest, src, size */
 449:Generated_Source\PSoC5/cyfitter_cfg.c **** 			{(void CYFAR *)(CYDEV_PRTDSI_PRT12_BASE), BS_IOPORT_7_VAL, 6u},
 450:Generated_Source\PSoC5/cyfitter_cfg.c **** 			{(void CYFAR *)(CYDEV_UCFG_B0_P6_U0_BASE), BS_UDB_0_4_1_CONFIG_VAL, 128u},
 451:Generated_Source\PSoC5/cyfitter_cfg.c **** 		};
 452:Generated_Source\PSoC5/cyfitter_cfg.c **** 
 453:Generated_Source\PSoC5/cyfitter_cfg.c **** 		uint8 CYDATA i;
 454:Generated_Source\PSoC5/cyfitter_cfg.c **** 
 455:Generated_Source\PSoC5/cyfitter_cfg.c **** 		/* Zero out critical memory blocks before beginning configuration */
 456:Generated_Source\PSoC5/cyfitter_cfg.c **** 		for (i = 0u; i < (sizeof(cfg_memset_list)/sizeof(cfg_memset_list[0])); i++)
 561              		.loc 1 456 0
 562 0004 0024     		movs	r4, #0
 563 0006 0CE0     		b	.L31
 564              	.LVL37:
 565              	.L32:
 566              	.LBB4:
 457:Generated_Source\PSoC5/cyfitter_cfg.c **** 		{
 458:Generated_Source\PSoC5/cyfitter_cfg.c **** 			const cfg_memset_t CYCODE * CYDATA ms = &cfg_memset_list[i];
 459:Generated_Source\PSoC5/cyfitter_cfg.c **** 			CYMEMZERO(ms->address, (size_t)(uint32)(ms->size));
 567              		.loc 1 459 0 discriminator 3
 568 0008 3C4D     		ldr	r5, .L36
 569 000a 6300     		lsls	r3, r4, #1
 570 000c 1919     		adds	r1, r3, r4
 571 000e 4A00     		lsls	r2, r1, #1
 572 0010 1146     		mov	r1, r2
 573 0012 2A44     		add	r2, r2, r5
 574 0014 0846     		mov	r0, r1
 575 0016 9188     		ldrh	r1, [r2, #4]
 576 0018 2858     		ldr	r0, [r5, r0]	@ unaligned
 577 001a FFF7FEFF 		bl	CYMEMZERO
 578              	.LVL38:
 579              	.LBE4:
 456:Generated_Source\PSoC5/cyfitter_cfg.c **** 		{
 580              		.loc 1 456 0 discriminator 3
 581 001e 0134     		adds	r4, r4, #1
 582              	.LVL39:
 583 0020 E4B2     		uxtb	r4, r4
 584              	.LVL40:
ARM GAS  C:\Users\FRANKL~1\AppData\Local\Temp\cc8k5vSJ.s 			page 20


 585              	.L31:
 456:Generated_Source\PSoC5/cyfitter_cfg.c **** 		{
 586              		.loc 1 456 0 is_stmt 0 discriminator 1
 587 0022 082C     		cmp	r4, #8
 588 0024 F0D9     		bls	.L32
 589 0026 0024     		movs	r4, #0
 590              	.LVL41:
 591 0028 0CE0     		b	.L33
 592              	.LVL42:
 593              	.L34:
 594              	.LBB5:
 460:Generated_Source\PSoC5/cyfitter_cfg.c **** 		}
 461:Generated_Source\PSoC5/cyfitter_cfg.c **** 
 462:Generated_Source\PSoC5/cyfitter_cfg.c **** 		/* Copy device configuration data into registers */
 463:Generated_Source\PSoC5/cyfitter_cfg.c **** 		for (i = 0u; i < (sizeof(cfg_memcpy_list)/sizeof(cfg_memcpy_list[0])); i++)
 464:Generated_Source\PSoC5/cyfitter_cfg.c **** 		{
 465:Generated_Source\PSoC5/cyfitter_cfg.c **** 			const cfg_memcpy_t CYCODE * CYDATA mc = &cfg_memcpy_list[i];
 466:Generated_Source\PSoC5/cyfitter_cfg.c **** 			void * CYDATA destPtr = mc->dest;
 595              		.loc 1 466 0 is_stmt 1 discriminator 3
 596 002a 3448     		ldr	r0, .L36
 597 002c A200     		lsls	r2, r4, #2
 598 002e 1119     		adds	r1, r2, r4
 599 0030 4B00     		lsls	r3, r1, #1
 600 0032 0344     		add	r3, r3, r0
 601              	.LVL43:
 467:Generated_Source\PSoC5/cyfitter_cfg.c **** 			const void * CYDATA srcPtr = mc->src;
 468:Generated_Source\PSoC5/cyfitter_cfg.c **** 			uint16 CYDATA numBytes = mc->size;
 469:Generated_Source\PSoC5/cyfitter_cfg.c **** 			CYCONFIGCPY(destPtr, srcPtr, numBytes);
 602              		.loc 1 469 0 discriminator 3
 603 0034 B3F84020 		ldrh	r2, [r3, #64]
 604 0038 D96B     		ldr	r1, [r3, #60]	@ unaligned
 605              	.LVL44:
 606 003a 986B     		ldr	r0, [r3, #56]	@ unaligned
 607              	.LVL45:
 608 003c FFF7FEFF 		bl	CYCONFIGCPY
 609              	.LVL46:
 610              	.LBE5:
 463:Generated_Source\PSoC5/cyfitter_cfg.c **** 		{
 611              		.loc 1 463 0 discriminator 3
 612 0040 0134     		adds	r4, r4, #1
 613              	.LVL47:
 614 0042 E4B2     		uxtb	r4, r4
 615              	.LVL48:
 616              	.L33:
 463:Generated_Source\PSoC5/cyfitter_cfg.c **** 		{
 617              		.loc 1 463 0 is_stmt 0 discriminator 1
 618 0044 012C     		cmp	r4, #1
 619 0046 F0D9     		bls	.L34
 470:Generated_Source\PSoC5/cyfitter_cfg.c **** 		}
 471:Generated_Source\PSoC5/cyfitter_cfg.c **** 
 472:Generated_Source\PSoC5/cyfitter_cfg.c **** 		cfg_write_bytes32(cy_cfg_addr_table, cy_cfg_data_table);
 620              		.loc 1 472 0 is_stmt 1
 621 0048 2D49     		ldr	r1, .L36+4
 622 004a 4FF09040 		mov	r0, #1207959552
 623 004e FFF7FEFF 		bl	cfg_write_bytes32
 624              	.LVL49:
 473:Generated_Source\PSoC5/cyfitter_cfg.c **** 
ARM GAS  C:\Users\FRANKL~1\AppData\Local\Temp\cc8k5vSJ.s 			page 21


 474:Generated_Source\PSoC5/cyfitter_cfg.c **** 		/* Perform normal device configuration. Order is not critical for these items. */
 475:Generated_Source\PSoC5/cyfitter_cfg.c **** 		CY_SET_XTND_REG8((void CYFAR *)(CYREG_DSM0_CR3), 0x0Au);
 625              		.loc 1 475 0
 626 0052 0A25     		movs	r5, #10
 627 0054 2B4B     		ldr	r3, .L36+8
 628 0056 1D70     		strb	r5, [r3]
 476:Generated_Source\PSoC5/cyfitter_cfg.c **** 		CY_SET_XTND_REG8((void CYFAR *)(CYREG_DSM0_CLK), 0x02u);
 629              		.loc 1 476 0
 630 0058 0222     		movs	r2, #2
 631 005a 03F52173 		add	r3, r3, #644
 632 005e 1A70     		strb	r2, [r3]
 477:Generated_Source\PSoC5/cyfitter_cfg.c **** 
 478:Generated_Source\PSoC5/cyfitter_cfg.c **** 		/* Enable digital routing */
 479:Generated_Source\PSoC5/cyfitter_cfg.c **** 		CY_SET_XTND_REG8((void CYFAR *)CYREG_BCTL0_BANK_CTL, CY_GET_XTND_REG8((void CYFAR *)CYREG_BCTL0_B
 633              		.loc 1 479 0
 634 0060 294A     		ldr	r2, .L36+12
 635 0062 1378     		ldrb	r3, [r2]	@ zero_extendqisi2
 636 0064 43F00203 		orr	r3, r3, #2
 637 0068 1370     		strb	r3, [r2]
 480:Generated_Source\PSoC5/cyfitter_cfg.c **** 		CY_SET_XTND_REG8((void CYFAR *)CYREG_BCTL1_BANK_CTL, CY_GET_XTND_REG8((void CYFAR *)CYREG_BCTL1_B
 638              		.loc 1 480 0
 639 006a 1032     		adds	r2, r2, #16
 640 006c 1378     		ldrb	r3, [r2]	@ zero_extendqisi2
 641 006e 43F00203 		orr	r3, r3, #2
 642 0072 1370     		strb	r3, [r2]
 481:Generated_Source\PSoC5/cyfitter_cfg.c **** 
 482:Generated_Source\PSoC5/cyfitter_cfg.c **** 		/* Enable UDB array */
 483:Generated_Source\PSoC5/cyfitter_cfg.c **** 		CY_SET_XTND_REG8((void CYFAR *)CYREG_PM_ACT_CFG0, CY_GET_XTND_REG8((void CYFAR *)CYREG_PM_ACT_CFG
 643              		.loc 1 483 0
 644 0074 254C     		ldr	r4, .L36+16
 645              	.LVL50:
 646 0076 2378     		ldrb	r3, [r4]	@ zero_extendqisi2
 647 0078 43F04003 		orr	r3, r3, #64
 648 007c 2370     		strb	r3, [r4]
 484:Generated_Source\PSoC5/cyfitter_cfg.c **** 		CY_SET_XTND_REG8((void CYFAR *)CYREG_PM_AVAIL_CR2, CY_GET_XTND_REG8((void CYFAR *)CYREG_PM_AVAIL_
 649              		.loc 1 484 0
 650 007e A2F58632 		sub	r2, r2, #68608
 651 0082 513A     		subs	r2, r2, #81
 652 0084 1378     		ldrb	r3, [r2]	@ zero_extendqisi2
 653 0086 43F01003 		orr	r3, r3, #16
 654 008a 1370     		strb	r3, [r2]
 655              	.LBE3:
 485:Generated_Source\PSoC5/cyfitter_cfg.c **** 	}
 486:Generated_Source\PSoC5/cyfitter_cfg.c **** 
 487:Generated_Source\PSoC5/cyfitter_cfg.c **** 
 488:Generated_Source\PSoC5/cyfitter_cfg.c **** 	/* Perform second pass device configuration. These items must be configured in specific order afte
 489:Generated_Source\PSoC5/cyfitter_cfg.c **** 	CYCONFIGCPY((void CYFAR *)(CYREG_PRT12_DR), (const void CYFAR *)(BS_IOPINS0_7_VAL), 10u);
 656              		.loc 1 489 0
 657 008c 2A46     		mov	r2, r5
 658 008e 2049     		ldr	r1, .L36+20
 659 0090 2048     		ldr	r0, .L36+24
 660 0092 FFF7FEFF 		bl	CYCONFIGCPY
 661              	.LVL51:
 490:Generated_Source\PSoC5/cyfitter_cfg.c **** 	CYCONFIGCPY((void CYFAR *)(CYREG_PRT15_DR), (const void CYFAR *)(BS_IOPINS0_8_VAL), 10u);
 662              		.loc 1 490 0
 663 0096 2A46     		mov	r2, r5
 664 0098 1F49     		ldr	r1, .L36+28
ARM GAS  C:\Users\FRANKL~1\AppData\Local\Temp\cc8k5vSJ.s 			page 22


 665 009a 2048     		ldr	r0, .L36+32
 666 009c FFF7FEFF 		bl	CYCONFIGCPY
 667              	.LVL52:
 491:Generated_Source\PSoC5/cyfitter_cfg.c **** 	CYCONFIGCPY((void CYFAR *)(CYREG_PRT1_DM0), (const void CYFAR *)(BS_IOPINS0_1_VAL), 8u);
 668              		.loc 1 491 0
 669 00a0 0822     		movs	r2, #8
 670 00a2 1F49     		ldr	r1, .L36+36
 671 00a4 1F48     		ldr	r0, .L36+40
 672 00a6 FFF7FEFF 		bl	CYCONFIGCPY
 673              	.LVL53:
 492:Generated_Source\PSoC5/cyfitter_cfg.c **** 	CYCONFIGCPY((void CYFAR *)(CYREG_PRT2_DM0), (const void CYFAR *)(BS_IOPINS0_2_VAL), 8u);
 674              		.loc 1 492 0
 675 00aa 0822     		movs	r2, #8
 676 00ac 1E49     		ldr	r1, .L36+44
 677 00ae 1F48     		ldr	r0, .L36+48
 678 00b0 FFF7FEFF 		bl	CYCONFIGCPY
 679              	.LVL54:
 493:Generated_Source\PSoC5/cyfitter_cfg.c **** 	CYCONFIGCPY((void CYFAR *)(CYREG_PRT4_DM0), (const void CYFAR *)(BS_IOPINS0_4_VAL), 8u);
 680              		.loc 1 493 0
 681 00b4 0822     		movs	r2, #8
 682 00b6 1E49     		ldr	r1, .L36+52
 683 00b8 1E48     		ldr	r0, .L36+56
 684 00ba FFF7FEFF 		bl	CYCONFIGCPY
 685              	.LVL55:
 494:Generated_Source\PSoC5/cyfitter_cfg.c **** 	CYCONFIGCPY((void CYFAR *)(CYREG_PRT5_DM0), (const void CYFAR *)(BS_IOPINS0_5_VAL), 8u);
 686              		.loc 1 494 0
 687 00be 0822     		movs	r2, #8
 688 00c0 1D49     		ldr	r1, .L36+60
 689 00c2 1E48     		ldr	r0, .L36+64
 690 00c4 FFF7FEFF 		bl	CYCONFIGCPY
 691              	.LVL56:
 495:Generated_Source\PSoC5/cyfitter_cfg.c **** 	CYCONFIGCPY((void CYFAR *)(CYREG_PRT6_DM0), (const void CYFAR *)(BS_IOPINS0_6_VAL), 8u);
 692              		.loc 1 495 0
 693 00c8 0822     		movs	r2, #8
 694 00ca 1D49     		ldr	r1, .L36+68
 695 00cc 1D48     		ldr	r0, .L36+72
 696 00ce FFF7FEFF 		bl	CYCONFIGCPY
 697              	.LVL57:
 496:Generated_Source\PSoC5/cyfitter_cfg.c **** 	/* Switch Boost to the precision bandgap reference from its internal reference */
 497:Generated_Source\PSoC5/cyfitter_cfg.c **** 	CY_SET_REG8((void CYXDATA *)CYREG_BOOST_CR2, (CY_GET_REG8((void CYXDATA *)CYREG_BOOST_CR2) | 0x08u
 698              		.loc 1 497 0
 699 00d2 1D4A     		ldr	r2, .L36+76
 700 00d4 1378     		ldrb	r3, [r2]	@ zero_extendqisi2
 701 00d6 43F00803 		orr	r3, r3, #8
 702 00da 1370     		strb	r3, [r2]
 498:Generated_Source\PSoC5/cyfitter_cfg.c **** 
 499:Generated_Source\PSoC5/cyfitter_cfg.c **** 	/* Set Flash Cycles based on max possible frequency in case a glitch occurs during ClockSetup(). *
 500:Generated_Source\PSoC5/cyfitter_cfg.c **** 	CY_SET_XTND_REG8((void CYFAR *)(CYREG_CACHE_CC_CTL), (((CYDEV_INSTRUCT_CACHE_ENABLED) != 0) ? 0x01
 703              		.loc 1 500 0
 704 00dc 1B4D     		ldr	r5, .L36+80
 705 00de 0123     		movs	r3, #1
 706 00e0 2B70     		strb	r3, [r5]
 501:Generated_Source\PSoC5/cyfitter_cfg.c **** 	/* Setup clocks based on selections from Clock DWR */
 502:Generated_Source\PSoC5/cyfitter_cfg.c **** 	ClockSetup();
 707              		.loc 1 502 0
 708 00e2 FFF7FEFF 		bl	ClockSetup
 709              	.LVL58:
ARM GAS  C:\Users\FRANKL~1\AppData\Local\Temp\cc8k5vSJ.s 			page 23


 503:Generated_Source\PSoC5/cyfitter_cfg.c **** 	/* Set Flash Cycles based on newly configured 24.00MHz Bus Clock. */
 504:Generated_Source\PSoC5/cyfitter_cfg.c **** 	CY_SET_XTND_REG8((void CYFAR *)(CYREG_CACHE_CC_CTL), (((CYDEV_INSTRUCT_CACHE_ENABLED) != 0) ? 0x81
 710              		.loc 1 504 0
 711 00e6 8123     		movs	r3, #129
 712 00e8 2B70     		strb	r3, [r5]
 505:Generated_Source\PSoC5/cyfitter_cfg.c **** 
 506:Generated_Source\PSoC5/cyfitter_cfg.c **** 	/* Perform basic analog initialization to defaults */
 507:Generated_Source\PSoC5/cyfitter_cfg.c **** 	AnalogSetDefault();
 713              		.loc 1 507 0
 714 00ea FFF7FEFF 		bl	AnalogSetDefault
 715              	.LVL59:
 508:Generated_Source\PSoC5/cyfitter_cfg.c **** 
 509:Generated_Source\PSoC5/cyfitter_cfg.c **** 	/* Configure alternate active mode */
 510:Generated_Source\PSoC5/cyfitter_cfg.c **** 	CYCONFIGCPY((void CYFAR *)CYDEV_PM_STBY_BASE, (const void CYFAR *)CYDEV_PM_ACT_BASE, 14u);
 716              		.loc 1 510 0
 717 00ee 0E22     		movs	r2, #14
 718 00f0 2146     		mov	r1, r4
 719 00f2 1748     		ldr	r0, .L36+84
 720 00f4 FFF7FEFF 		bl	CYCONFIGCPY
 721              	.LVL60:
 722 00f8 38BD     		pop	{r3, r4, r5, pc}
 723              	.L37:
 724 00fa 00BF     		.align	2
 725              	.L36:
 726 00fc 00000000 		.word	.LANCHOR0
 727 0100 98000048 		.word	1207959704
 728 0104 83580040 		.word	1073764483
 729 0108 03500140 		.word	1073827843
 730 010c A0430040 		.word	1073759136
 731 0110 10090048 		.word	1207961872
 732 0114 C0510040 		.word	1073762752
 733 0118 1C090048 		.word	1207961884
 734 011c F0510040 		.word	1073762800
 735 0120 28090048 		.word	1207961896
 736 0124 12510040 		.word	1073762578
 737 0128 30090048 		.word	1207961904
 738 012c 22510040 		.word	1073762594
 739 0130 38090048 		.word	1207961912
 740 0134 42510040 		.word	1073762626
 741 0138 40090048 		.word	1207961920
 742 013c 52510040 		.word	1073762642
 743 0140 48090048 		.word	1207961928
 744 0144 62510040 		.word	1073762658
 745 0148 22430040 		.word	1073759010
 746 014c 00480040 		.word	1073760256
 747 0150 B0430040 		.word	1073759152
 748              		.cfi_endproc
 749              	.LFE8:
 750              		.size	cyfitter_cfg, .-cyfitter_cfg
 751              		.section	.rodata
 752              		.align	2
 753              		.set	.LANCHOR0,. + 0
 754              		.type	cfg_memset_list.5010, %object
 755              		.size	cfg_memset_list.5010, 54
 756              	cfg_memset_list.5010:
 757 0000 004F0040 		.word	1073762048
 758 0004 0C00     		.short	12
ARM GAS  C:\Users\FRANKL~1\AppData\Local\Temp\cc8k5vSJ.s 			page 24


 759 0006 00510040 		.4byte	1073762560
 760 000a 1000     		.short	16
 761 000c 30510040 		.word	1073762608
 762 0010 1000     		.short	16
 763 0012 00000140 		.4byte	1073807360
 764 0016 000C     		.short	3072
 765 0018 800C0140 		.word	1073810560
 766 001c 8003     		.short	896
 767 001e 00140140 		.4byte	1073812480
 768 0022 0008     		.short	2048
 769 0024 00400140 		.word	1073823744
 770 0028 000A     		.short	2560
 771 002a 004C0140 		.4byte	1073826816
 772 002e 0002     		.short	512
 773 0030 00500140 		.word	1073827840
 774 0034 2000     		.short	32
 775 0036 0000     		.space	2
 776              		.type	cfg_memcpy_list.5011, %object
 777              		.size	cfg_memcpy_list.5011, 20
 778              	cfg_memcpy_list.5011:
 779 0038 60520040 		.word	1073762912
 780 003c 88080048 		.word	1207961736
 781 0040 0600     		.short	6
 782 0042 000C0140 		.4byte	1073810432
 783 0046 90080048 		.4byte	1207961744
 784 004a 8000     		.short	128
 785              		.text
 786              	.Letext0:
 787              		.file 2 "c:\\program files (x86)\\cypress\\psoc creator\\4.1\\psoc creator\\import\\gnu\\arm\\5.4.
 788              		.file 3 "Generated_Source\\PSoC5\\cytypes.h"
 789              		.file 4 "Generated_Source\\PSoC5\\CyLib.h"