ARM GAS  C:\Users\FRANKL~1\AppData\Local\Temp\ccPy0viy.s 			page 1


   1              		.syntax unified
   2              		.cpu cortex-m3
   3              		.fpu softvfp
   4              		.eabi_attribute 20, 1
   5              		.eabi_attribute 21, 1
   6              		.eabi_attribute 23, 3
   7              		.eabi_attribute 24, 1
   8              		.eabi_attribute 25, 1
   9              		.eabi_attribute 26, 1
  10              		.eabi_attribute 30, 1
  11              		.eabi_attribute 34, 1
  12              		.eabi_attribute 18, 4
  13              		.thumb
  14              		.syntax unified
  15              		.file	"main.c"
  16              		.text
  17              	.Ltext0:
  18              		.cfi_sections	.debug_frame
  19              		.syntax unified
  20              		.global _printf_float
  21              		.thumb
  22              		.syntax unified
  23              		.section	.text.USBUARTH_Maintain_Configuration,"ax",%progbits
  24              		.align	2
  25              		.global	USBUARTH_Maintain_Configuration
  26              		.thumb
  27              		.thumb_func
  28              		.type	USBUARTH_Maintain_Configuration, %function
  29              	USBUARTH_Maintain_Configuration:
  30              	.LFB64:
  31              		.file 1 "USBUART_Helpers.h"
   1:USBUART_Helpers.h **** #include "project.h"
   2:USBUART_Helpers.h **** #include "stdio.h"
   3:USBUART_Helpers.h **** 
   4:USBUART_Helpers.h **** #if defined (__GNUC__)
   5:USBUART_Helpers.h **** 	/* Add an explicit reference to the floating point printf library */
   6:USBUART_Helpers.h **** 	/* to allow usage of the floating point conversion specifiers. */
   7:USBUART_Helpers.h **** 	/* This is not linked in by default with the newlib-nano library. */
   8:USBUART_Helpers.h **** 	asm (".global _printf_float");
   9:USBUART_Helpers.h **** #endif
  10:USBUART_Helpers.h **** 
  11:USBUART_Helpers.h **** // The buffer size is equal to the maximum packet size of the IN and OUT bulk endpoints.
  12:USBUART_Helpers.h **** #define USBUART_BUFFER_SIZE	(64u)
  13:USBUART_Helpers.h **** #define LINE_STR_LENGTH		(20u)
  14:USBUART_Helpers.h **** 
  15:USBUART_Helpers.h **** 
  16:USBUART_Helpers.h **** void USBUARTH_Maintain_Configuration() {
  32              		.loc 1 16 0
  33              		.cfi_startproc
  34              		@ args = 0, pretend = 0, frame = 0
  35              		@ frame_needed = 0, uses_anonymous_args = 0
  36 0000 08B5     		push	{r3, lr}
  37              		.cfi_def_cfa_offset 8
  38              		.cfi_offset 3, -8
  39              		.cfi_offset 14, -4
  40              	.LVL0:
  17:USBUART_Helpers.h **** 	unsigned long tries = 0;
ARM GAS  C:\Users\FRANKL~1\AppData\Local\Temp\ccPy0viy.s 			page 2


  18:USBUART_Helpers.h **** 	
  19:USBUART_Helpers.h **** 	do {
  20:USBUART_Helpers.h **** 		// Host can send double SET_INTERFACE request.
  21:USBUART_Helpers.h **** 		if (USBUART_IsConfigurationChanged()) {
  41              		.loc 1 21 0
  42 0002 FFF7FEFF 		bl	USBUART_IsConfigurationChanged
  43              	.LVL1:
  44 0006 20B1     		cbz	r0, .L2
  22:USBUART_Helpers.h **** 			// Initialize IN endpoints when device is configured.
  23:USBUART_Helpers.h **** 			if (USBUART_GetConfiguration()) {
  45              		.loc 1 23 0
  46 0008 FFF7FEFF 		bl	USBUART_GetConfiguration
  47              	.LVL2:
  48 000c 08B1     		cbz	r0, .L2
  24:USBUART_Helpers.h **** 				// Enumeration is done, enable OUT endpoint to receive data from host.
  25:USBUART_Helpers.h **** 				USBUART_CDC_Init();
  49              		.loc 1 25 0
  50 000e FFF7FEFF 		bl	USBUART_CDC_Init
  51              	.LVL3:
  52              	.L2:
  26:USBUART_Helpers.h **** 			}
  27:USBUART_Helpers.h **** 		}
  28:USBUART_Helpers.h **** 		
  29:USBUART_Helpers.h **** 		tries++;
  30:USBUART_Helpers.h **** 	// Keep trying until USB CDC device is configured
  31:USBUART_Helpers.h **** 	} while (!USBUART_GetConfiguration() && tries < 1);
  53              		.loc 1 31 0
  54 0012 FFF7FEFF 		bl	USBUART_GetConfiguration
  55              	.LVL4:
  56 0016 08BD     		pop	{r3, pc}
  57              		.cfi_endproc
  58              	.LFE64:
  59              		.size	USBUARTH_Maintain_Configuration, .-USBUARTH_Maintain_Configuration
  60              		.section	.text.USBUARTH_DataIsReady,"ax",%progbits
  61              		.align	2
  62              		.global	USBUARTH_DataIsReady
  63              		.thumb
  64              		.thumb_func
  65              		.type	USBUARTH_DataIsReady, %function
  66              	USBUARTH_DataIsReady:
  67              	.LFB65:
  32:USBUART_Helpers.h **** }
  33:USBUART_Helpers.h **** 
  34:USBUART_Helpers.h **** uint8 USBUARTH_DataIsReady() {
  68              		.loc 1 34 0
  69              		.cfi_startproc
  70              		@ args = 0, pretend = 0, frame = 0
  71              		@ frame_needed = 0, uses_anonymous_args = 0
  72 0000 08B5     		push	{r3, lr}
  73              		.cfi_def_cfa_offset 8
  74              		.cfi_offset 3, -8
  75              		.cfi_offset 14, -4
  35:USBUART_Helpers.h **** 	USBUARTH_Maintain_Configuration();
  76              		.loc 1 35 0
  77 0002 FFF7FEFF 		bl	USBUARTH_Maintain_Configuration
  78              	.LVL5:
  36:USBUART_Helpers.h **** 	
ARM GAS  C:\Users\FRANKL~1\AppData\Local\Temp\ccPy0viy.s 			page 3


  37:USBUART_Helpers.h **** 	return USBUART_GetConfiguration() && USBUART_DataIsReady();
  79              		.loc 1 37 0
  80 0006 FFF7FEFF 		bl	USBUART_GetConfiguration
  81              	.LVL6:
  82 000a 20B1     		cbz	r0, .L6
  83              		.loc 1 37 0 is_stmt 0 discriminator 1
  84 000c FFF7FEFF 		bl	USBUART_DataIsReady
  85              	.LVL7:
  86 0010 18B1     		cbz	r0, .L7
  87              		.loc 1 37 0
  88 0012 0120     		movs	r0, #1
  89 0014 08BD     		pop	{r3, pc}
  90              	.L6:
  91 0016 0020     		movs	r0, #0
  92 0018 08BD     		pop	{r3, pc}
  93              	.L7:
  94 001a 0020     		movs	r0, #0
  38:USBUART_Helpers.h **** }
  95              		.loc 1 38 0 is_stmt 1
  96 001c 08BD     		pop	{r3, pc}
  97              		.cfi_endproc
  98              	.LFE65:
  99              		.size	USBUARTH_DataIsReady, .-USBUARTH_DataIsReady
 100 001e 00BF     		.section	.text.CommunicationHandlerISR,"ax",%progbits
 101              		.align	2
 102              		.global	CommunicationHandlerISR
 103              		.thumb
 104              		.thumb_func
 105              		.type	CommunicationHandlerISR, %function
 106              	CommunicationHandlerISR:
 107              	.LFB108:
 108              		.file 2 "main.c"
   1:main.c        **** #include <stdlib.h>
   2:main.c        **** #include <stdio.h>
   3:main.c        **** #include "project.h"
   4:main.c        **** #include "USBUART_Helpers.h"
   5:main.c        **** 
   6:main.c        **** 
   7:main.c        **** struct Selector_I2C_Struct {
   8:main.c        **** 	struct {
   9:main.c        **** 		uint8 subAddress;
  10:main.c        **** 		uint8 data[126];
  11:main.c        **** 	} write;
  12:main.c        **** 	struct {
  13:main.c        **** 		uint8 subAddress;
  14:main.c        **** 		uint8 data[126];
  15:main.c        **** 	} read;
  16:main.c        **** 	uint8 busAddress;
  17:main.c        **** };
  18:main.c        **** 
  19:main.c        **** 
  20:main.c        **** // Globals ----------------------------------------------
  21:main.c        **** #define SELECTOR_COUNT (4u)
  22:main.c        **** #define INTERMEDIATE_COUNT (4u)
  23:main.c        **** #define CONTACT_COUNT (64u)
  24:main.c        **** #define CHANNEL_COUNT (34u)
  25:main.c        **** #define CONTACT_CONNECT_CODE (0xC0u)
ARM GAS  C:\Users\FRANKL~1\AppData\Local\Temp\ccPy0viy.s 			page 4


  26:main.c        **** #define CONTACT_DISCONNECT_CODE (0xD1u)
  27:main.c        **** #define COMPLIANCE_CURRENT_LIMIT (10e-6)
  28:main.c        **** 
  29:main.c        **** struct Selector_I2C_Struct selectors[SELECTOR_COUNT];
  30:main.c        **** char TransmitBuffer[USBUART_BUFFER_SIZE];
  31:main.c        **** 
  32:main.c        **** volatile uint8 newData = 0;
  33:main.c        **** volatile uint8 G_Stop = 0;
  34:main.c        **** volatile uint8 G_Break = 0;
  35:main.c        **** volatile uint8 G_Pause = 0;
  36:main.c        **** 
  37:main.c        **** volatile char UART_Receive_Buffer[USBUART_BUFFER_SIZE];
  38:main.c        **** volatile uint8 UART_Rx_Position;
  39:main.c        **** 
  40:main.c        **** volatile char USBUART_Receive_Buffer[USBUART_BUFFER_SIZE];
  41:main.c        **** volatile uint8 USBUART_Rx_Position;
  42:main.c        **** 
  43:main.c        **** uint8 Compliance_Reached;
  44:main.c        **** int16 Vgs_Index_Goal_Relative;
  45:main.c        **** int16 Vds_Index_Goal_Relative;
  46:main.c        **** 
  47:main.c        **** uint32 Current_Measurement_Sample_Count;
  48:main.c        **** 
  49:main.c        **** void Setup_Selector_I2C_Struct(struct Selector_I2C_Struct *selector) {
  50:main.c        **** 	selector->write.subAddress = 1;
  51:main.c        **** 	selector->read.subAddress = sizeof(selector->write) + 1;
  52:main.c        **** 	
  53:main.c        **** 	for (uint16 i = 0; i < sizeof(selector->write.data); i++) {
  54:main.c        **** 		selector->write.data[i] = i + 6;
  55:main.c        **** 	}
  56:main.c        **** 	for (uint16 i = 0; i < sizeof(selector->read.data); i++) {
  57:main.c        **** 		selector->read.data[i] = 0xbe;
  58:main.c        **** 	}
  59:main.c        **** }
  60:main.c        **** 
  61:main.c        **** void Update_Selector(uint8 selectori) {
  62:main.c        **** 	sprintf(TransmitBuffer, "Updating Selector %u\r\n", selectori + 1);
  63:main.c        **** 	USBUARTH_Send(TransmitBuffer, strlen(TransmitBuffer));
  64:main.c        **** 	UART_1_PutString(TransmitBuffer);
  65:main.c        **** 	
  66:main.c        **** 	struct Selector_I2C_Struct* selector = &selectors[selectori];
  67:main.c        **** 	
  68:main.c        **** 	I2C_1_MasterClearStatus();
  69:main.c        **** 	I2C_1_MasterWriteBuf(selector->busAddress, (uint8 *) &selector->write, sizeof(selector->write), I2
  70:main.c        **** 	for (uint32 i = 0; i < 4e5; i++) {
  71:main.c        **** 		if ((I2C_1_MasterStatus() & I2C_1_MSTAT_WR_CMPLT)) break;
  72:main.c        **** 		if (i >= 4e5 - 1) {
  73:main.c        **** 			sprintf(TransmitBuffer, "I2C Transfer Error! Type: Timeout\r\n");
  74:main.c        **** 			USBUARTH_Send(TransmitBuffer, strlen(TransmitBuffer));
  75:main.c        **** 			UART_1_PutString(TransmitBuffer);
  76:main.c        **** 			I2C_1_Stop();
  77:main.c        **** 			I2C_1_Start();
  78:main.c        **** 		}
  79:main.c        **** 	}
  80:main.c        **** 	
  81:main.c        **** 	// I2C_1_MasterClearStatus();
  82:main.c        **** 	// I2C_1_MasterWriteBuf(selector->busAddress, (uint8 *) &selector->read.subAddress, 1, I2C_1_MODE_
ARM GAS  C:\Users\FRANKL~1\AppData\Local\Temp\ccPy0viy.s 			page 5


  83:main.c        **** 	// for (uint32 i - 0; i < 4e5; i++) {
  84:main.c        **** 	// 	if ((I2C_1_MasterStatus() & I2C_1_MSTAT_WR_CMPLT)) break;
  85:main.c        **** 	// }
  86:main.c        **** 	
  87:main.c        **** 	// I2C_1_MasterReadBuf(selector->busAddress, (uint8 *) &selector->read.data, sizeof(selector->read
  88:main.c        **** 	// for (uint32 i - 0; i < 4e5; i++) {
  89:main.c        **** 	// 	if ((I2C_1_MasterStatus() & I2C_1_MSTAT_RD_CMPLT)) break;
  90:main.c        **** 	// }
  91:main.c        **** 	
  92:main.c        **** 	if (I2C_1_MasterStatus() & I2C_1_MSTAT_ERR_XFER) {
  93:main.c        **** 		sprintf(TransmitBuffer, "I2C Transfer Error! ");
  94:main.c        **** 		USBUARTH_Send(TransmitBuffer, strlen(TransmitBuffer));
  95:main.c        **** 		UART_1_PutString(TransmitBuffer);
  96:main.c        **** 		
  97:main.c        **** 		if (I2C_1_MasterStatus() & I2C_1_MSTAT_ERR_ADDR_NAK) {
  98:main.c        **** 			sprintf(TransmitBuffer, "Type: NAK");
  99:main.c        **** 			USBUARTH_Send(TransmitBuffer, strlen(TransmitBuffer));
 100:main.c        **** 			UART_1_PutString(TransmitBuffer);
 101:main.c        **** 		}
 102:main.c        **** 		
 103:main.c        **** 		sprintf(TransmitBuffer, "\r\n");
 104:main.c        **** 		USBUARTH_Send(TransmitBuffer, strlen(TransmitBuffer));
 105:main.c        **** 		UART_1_PutString(TransmitBuffer);
 106:main.c        **** 	}
 107:main.c        **** 	
 108:main.c        **** 	sprintf(TransmitBuffer, "Updated Selector %u\r\n", selectori + 1);
 109:main.c        **** 	USBUARTH_Send(TransmitBuffer, strlen(TransmitBuffer));
 110:main.c        **** 	UART_1_PutString(TransmitBuffer);
 111:main.c        **** }
 112:main.c        **** 
 113:main.c        **** 
 114:main.c        **** void ADC_Measure_uV(int32* average, int32* standardDeviation, uint32 sampleCount) {
 115:main.c        **** 	int32 ADC_Result = 0;
 116:main.c        **** 	int32 ADC_SD = 0;
 117:main.c        **** 	
 118:main.c        **** 	for (uint32 i = 1; i < sampleCount; i++) {
 119:main.c        **** 		ADC_DelSig_1_StartConvert();
 120:main.c        **** 		while (!ADC_DelSig_1_IsEndConversion(ADC_DelSig_1_RETURN_STATUS));
 121:main.c        **** 		//int16 ADC_Result = ADC_DelSig_1_CountsTo_mVolts(ADC_DelSig_1_GetResult16());
 122:main.c        **** 		int32 ADC_Result_Current = ADC_DelSig_1_CountsTo_uVolts(ADC_DelSig_1_GetResult32());
 123:main.c        **** 		
 124:main.c        **** 		ADC_SD += (float)(i-1)/(float)(i)*(ADC_Result_Current - ADC_Result)*(ADC_Result_Current - ADC_Res
 125:main.c        **** 		ADC_Result += ((float)ADC_Result_Current - (float)ADC_Result)/(float)i;
 126:main.c        **** 	}
 127:main.c        **** 	
 128:main.c        **** 	*average = ADC_Result;
 129:main.c        **** 	*standardDeviation = ADC_SD;
 130:main.c        **** }
 131:main.c        **** 
 132:main.c        **** void SAR1_Measure_V(float* average, float* standardDeviation, uint32 sampleCount) {
 133:main.c        **** 	float SAR_Result = 0;
 134:main.c        **** 	float SAR_SD = 0;
 135:main.c        **** 	
 136:main.c        **** 	for (uint32 i = 1; i < sampleCount; i++) {
 137:main.c        **** 		ADC_SAR_1_StartConvert();
 138:main.c        **** 		while (!ADC_SAR_1_IsEndConversion(ADC_SAR_1_RETURN_STATUS));
 139:main.c        **** 		
ARM GAS  C:\Users\FRANKL~1\AppData\Local\Temp\ccPy0viy.s 			page 6


 140:main.c        **** 		float SAR1_Result_Current = ADC_SAR_1_CountsTo_Volts(ADC_SAR_1_GetResult16());
 141:main.c        **** 		
 142:main.c        **** 		SAR_SD += (float)(i-1)/(float)(i)*(SAR1_Result_Current - SAR_Result)*(SAR1_Result_Current - SAR_R
 143:main.c        **** 		SAR_Result += ((float)SAR1_Result_Current - (float)SAR_Result)/(float)i;
 144:main.c        **** 	}
 145:main.c        **** 	
 146:main.c        **** 	*average = SAR_Result;
 147:main.c        **** 	*standardDeviation = SAR_SD;
 148:main.c        **** }
 149:main.c        **** 
 150:main.c        **** void SAR2_Measure_V(float* average, float* standardDeviation, uint32 sampleCount) {
 151:main.c        **** 	float SAR_Result = 0;
 152:main.c        **** 	float SAR_SD = 0;
 153:main.c        **** 	
 154:main.c        **** 	for (uint32 i = 1; i < sampleCount; i++) {
 155:main.c        **** 		ADC_SAR_2_StartConvert();
 156:main.c        **** 		while (!ADC_SAR_2_IsEndConversion(ADC_SAR_2_RETURN_STATUS));
 157:main.c        **** 		
 158:main.c        **** 		float SAR2_Result_Current = ADC_SAR_2_CountsTo_Volts(ADC_SAR_2_GetResult16());
 159:main.c        **** 		
 160:main.c        **** 		SAR_SD += (float)(i-1)/(float)(i)*(SAR2_Result_Current - SAR_Result)*(SAR2_Result_Current - SAR_R
 161:main.c        **** 		SAR_Result += ((float)SAR2_Result_Current - (float)SAR_Result)/(float)i;
 162:main.c        **** 	}
 163:main.c        **** 	
 164:main.c        **** 	*average = SAR_Result;
 165:main.c        **** 	*standardDeviation = SAR_SD;
 166:main.c        **** }
 167:main.c        **** 
 168:main.c        **** void Measure_Sweep() {
 169:main.c        **** 	VDAC_Vds_SetValue(90);
 170:main.c        **** 	VDAC_Vgs_SetValue(254);
 171:main.c        **** 	
 172:main.c        **** 	for (uint16 Vgsi = 0; Vgsi < 256; Vgsi++) {
 173:main.c        **** 		int32 IdsAverage = 0;
 174:main.c        **** 		int32 IdsStandardDeviation = 0;
 175:main.c        **** 		
 176:main.c        **** 		VDAC_Vgs_SetValue(Vgsi);
 177:main.c        **** 		
 178:main.c        **** 		ADC_Measure_uV(&IdsAverage, &IdsStandardDeviation, 100);
 179:main.c        **** 		
 180:main.c        **** 		// Send the collected data
 181:main.c        **** 		//sprintf(TransmitBuffer, "[%d, %lu, %lu]\r\n", Vgsi, IdsAverage, IdsStandardDeviation);
 182:main.c        **** 		sprintf(TransmitBuffer, "%lu,", IdsAverage);
 183:main.c        **** 		USBUARTH_Send(TransmitBuffer, strlen(TransmitBuffer));
 184:main.c        **** 		UART_1_PutString(TransmitBuffer);
 185:main.c        **** 	}
 186:main.c        **** }
 187:main.c        **** 
 188:main.c        **** void Setup_Selectors() {
 189:main.c        **** 	for (uint8 i = 0; i < SELECTOR_COUNT; i++) Setup_Selector_I2C_Struct(&selectors[i]);
 190:main.c        **** 	
 191:main.c        **** 	selectors[0].busAddress = 0x66;
 192:main.c        **** 	selectors[1].busAddress = 0x11;
 193:main.c        **** 	selectors[2].busAddress = 0x44;
 194:main.c        **** 	selectors[3].busAddress = 0x22;
 195:main.c        **** }
 196:main.c        **** 
ARM GAS  C:\Users\FRANKL~1\AppData\Local\Temp\ccPy0viy.s 			page 7


 197:main.c        **** void Connect_Channel_On_Intermediate(uint8 channel, uint8 intermediate) {
 198:main.c        **** 	channel--;
 199:main.c        **** 	intermediate--;
 200:main.c        **** 	
 201:main.c        **** 	if (channel >= CHANNEL_COUNT) return;
 202:main.c        **** 	if (intermediate >= INTERMEDIATE_COUNT) return;
 203:main.c        **** 	
 204:main.c        **** 	selectors[intermediate].write.data[channel] = CONTACT_CONNECT_CODE;
 205:main.c        **** 	Update_Selector(intermediate);
 206:main.c        **** }
 207:main.c        **** 
 208:main.c        **** void Connect_Contact_To_Intermediate(uint8 contact, uint8 intermediate) {
 209:main.c        **** 	contact--;
 210:main.c        **** 	intermediate--;
 211:main.c        **** 	
 212:main.c        **** 	if (contact >= CONTACT_COUNT) return;
 213:main.c        **** 	if (intermediate >= INTERMEDIATE_COUNT) return;
 214:main.c        **** 	
 215:main.c        **** 	uint8 offset = 0;
 216:main.c        **** 	if (intermediate >= INTERMEDIATE_COUNT/2) {
 217:main.c        **** 		offset = CONTACT_COUNT/2;
 218:main.c        **** 		if (contact < CONTACT_COUNT/2) return;
 219:main.c        **** 	} else {
 220:main.c        **** 		if (contact >= CONTACT_COUNT/2) return;
 221:main.c        **** 	}
 222:main.c        **** 	
 223:main.c        **** 	Connect_Channel_On_Intermediate(contact - offset + 1, intermediate + 1);
 224:main.c        **** }
 225:main.c        **** 
 226:main.c        **** void Disconnect_Contact_From_Intermediate(uint8 contact, uint8 intermediate) {
 227:main.c        **** 	contact--;
 228:main.c        **** 	intermediate--;
 229:main.c        **** 	
 230:main.c        **** 	if (contact >= CONTACT_COUNT) return;
 231:main.c        **** 	if (intermediate >= INTERMEDIATE_COUNT) return;
 232:main.c        **** 	
 233:main.c        **** 	uint8 offset = 0;
 234:main.c        **** 	if (intermediate >= INTERMEDIATE_COUNT/2) {
 235:main.c        **** 		offset = CONTACT_COUNT/2;
 236:main.c        **** 		if (contact < CONTACT_COUNT/2) return;
 237:main.c        **** 	} else {
 238:main.c        **** 		if (contact >= CONTACT_COUNT/2) return;
 239:main.c        **** 	}
 240:main.c        **** 	
 241:main.c        **** 	selectors[intermediate].write.data[contact - offset] = CONTACT_DISCONNECT_CODE;
 242:main.c        **** 	
 243:main.c        **** 	Update_Selector(intermediate);
 244:main.c        **** }
 245:main.c        **** 
 246:main.c        **** void Disconnect_Contact_From_All_Intermediates(uint8 contact) {
 247:main.c        **** 	contact--;
 248:main.c        **** 	
 249:main.c        **** 	for (uint8 intermediate = 0; intermediate < INTERMEDIATE_COUNT; intermediate++) {
 250:main.c        **** 		
 251:main.c        **** 		uint8 offset = 0;
 252:main.c        **** 		if (intermediate >= INTERMEDIATE_COUNT/2) {
 253:main.c        **** 			offset = CONTACT_COUNT/2;
ARM GAS  C:\Users\FRANKL~1\AppData\Local\Temp\ccPy0viy.s 			page 8


 254:main.c        **** 			if (contact < CONTACT_COUNT/2) continue;
 255:main.c        **** 		} else {
 256:main.c        **** 			if (contact >= CONTACT_COUNT/2) continue;
 257:main.c        **** 		}
 258:main.c        **** 		
 259:main.c        **** 		selectors[intermediate].write.data[contact - offset] = CONTACT_DISCONNECT_CODE;
 260:main.c        **** 		
 261:main.c        **** 		Update_Selector(intermediate);
 262:main.c        **** 	}
 263:main.c        **** }
 264:main.c        **** 
 265:main.c        **** void Disconnect_All_Contacts_From_All_Intermediates() {
 266:main.c        **** 	for (uint8 intermediate = 0; intermediate < INTERMEDIATE_COUNT/**//2; intermediate++) {
 267:main.c        **** 		for (uint8 contact = 0; contact < CONTACT_COUNT/2; contact++) {
 268:main.c        **** 			selectors[intermediate].write.data[contact] = CONTACT_DISCONNECT_CODE;
 269:main.c        **** 		}
 270:main.c        **** 		
 271:main.c        **** 		Update_Selector(intermediate);
 272:main.c        **** 	}
 273:main.c        **** }
 274:main.c        **** 
 275:main.c        **** void Disconnect_All_Contacts_From_Intermediate(uint8 intermediate) {
 276:main.c        **** 	intermediate--;
 277:main.c        **** 	
 278:main.c        **** 	for (uint8 contact = 0; contact < CONTACT_COUNT/2; contact++) {
 279:main.c        **** 		selectors[intermediate].write.data[contact] = CONTACT_DISCONNECT_CODE;
 280:main.c        **** 	}
 281:main.c        **** 	
 282:main.c        **** 	Update_Selector(intermediate);
 283:main.c        **** }
 284:main.c        **** 
 285:main.c        **** void Connect_Intermediate(uint8 intermediate) {
 286:main.c        **** 	switch (intermediate) {
 287:main.c        **** 		case 1: Connect_Channel_On_Intermediate(33, 1); break;
 288:main.c        **** 		case 2: Connect_Channel_On_Intermediate(33, 2); break;
 289:main.c        **** 		case 3: Connect_Channel_On_Intermediate(33, 3); break;
 290:main.c        **** 		case 4: Connect_Channel_On_Intermediate(33, 4); break;
 291:main.c        **** 		default: return;
 292:main.c        **** 	}
 293:main.c        **** }
 294:main.c        **** 
 295:main.c        **** void Connect_Intermediates() {
 296:main.c        **** 	for (uint8 i = 1; i <= INTERMEDIATE_COUNT/**//2; i++) {
 297:main.c        **** 		Connect_Intermediate(i);
 298:main.c        **** 	}
 299:main.c        **** }
 300:main.c        **** 
 301:main.c        **** void Measure_Current_Vss(float* currentAverageIn, float* currentStdDevIn, uint32 sampleCount) {
 302:main.c        **** 	Compliance_Reached = 0;
 303:main.c        **** 	
 304:main.c        **** 	// Voltage and its standard deviation (in uV)
 305:main.c        **** 	int32 voltage = 0;
 306:main.c        **** 	int32 voltageSD = 0;
 307:main.c        **** 	
 308:main.c        **** 	// Current and its standard deviation (in A)
 309:main.c        **** 	float currentNow = 0;
 310:main.c        **** 	
ARM GAS  C:\Users\FRANKL~1\AppData\Local\Temp\ccPy0viy.s 			page 9


 311:main.c        **** 	float currentAverage = 0;
 312:main.c        **** 	float currentStdDev = 0;
 313:main.c        **** 	
 314:main.c        **** 	float TIA_Feedback_R = 20e3;
 315:main.c        **** 	float unitConversion = -1.0e-6/TIA_Feedback_R;
 316:main.c        **** 	
 317:main.c        **** 	// Allow for the first measurement (normally not correct) to take place
 318:main.c        **** 	ADC_Measure_uV(&voltage, &voltageSD, 3);
 319:main.c        **** 	
 320:main.c        **** 	// Now take the real measurement
 321:main.c        **** 	for (uint32 i = 1; i <= sampleCount; i++) {
 322:main.c        **** 		ADC_Measure_uV(&voltage, &voltageSD, 1);
 323:main.c        **** 		
 324:main.c        **** 		currentNow = unitConversion*voltage;
 325:main.c        **** 		
 326:main.c        **** 		if (abs(currentNow) > COMPLIANCE_CURRENT_LIMIT) {
 327:main.c        **** 			Compliance_Reached += 1;
 328:main.c        **** 			break;
 329:main.c        **** 		} else {
 330:main.c        **** 			Compliance_Reached = 0;
 331:main.c        **** 		}
 332:main.c        **** 		
 333:main.c        **** 		currentStdDev += ((float)i-1.0)/(float)(i)*(currentNow - currentAverage)*(currentNow - currentAve
 334:main.c        **** 		currentAverage += (currentNow - currentAverage)/(float)i;
 335:main.c        **** 	}
 336:main.c        **** 	
 337:main.c        **** 	*currentAverageIn = currentAverage;
 338:main.c        **** 	*currentStdDevIn = currentStdDev;
 339:main.c        **** }
 340:main.c        **** 
 341:main.c        **** uint8 At_Compliance() {
 342:main.c        **** 	Compliance_Reached = 0;
 343:main.c        **** 	
 344:main.c        **** 	float current = 0;
 345:main.c        **** 	float currentSD = 0;
 346:main.c        **** 	
 347:main.c        **** 	Measure_Current_Vss(&current, &currentSD, 3);
 348:main.c        **** 	
 349:main.c        **** 	if (abs(current) > COMPLIANCE_CURRENT_LIMIT) {
 350:main.c        **** 		Compliance_Reached = 1;
 351:main.c        **** 		return 1;
 352:main.c        **** 	}
 353:main.c        **** 	
 354:main.c        **** 	return 0;
 355:main.c        **** }
 356:main.c        **** 
 357:main.c        **** void Handle_Compliance_Breach() {
 358:main.c        **** 	uint8 istart = VDAC_Vds_Data;
 359:main.c        **** 	uint8 istop = VDAC_Ref_Data;
 360:main.c        **** 	int8 increment = 1;
 361:main.c        **** 	if (istart < istop) increment = -1;
 362:main.c        **** 	
 363:main.c        **** 	for (uint8 i = istart; i != istop; i += increment) {
 364:main.c        **** 		VDAC_Vds_SetValue(i);
 365:main.c        **** 		
 366:main.c        **** 		if (!At_Compliance()) return;
 367:main.c        **** 	}
ARM GAS  C:\Users\FRANKL~1\AppData\Local\Temp\ccPy0viy.s 			page 10


 368:main.c        **** 	
 369:main.c        **** 	istart = VDAC_Vgs_Data;
 370:main.c        **** 	istop = VDAC_Ref_Data;
 371:main.c        **** 	increment = 1;
 372:main.c        **** 	if (istart < istop) increment = -1;
 373:main.c        **** 	
 374:main.c        **** 	for (uint8 i = istart; i != istop; i += increment) {
 375:main.c        **** 		VDAC_Vgs_SetValue(i);
 376:main.c        **** 		
 377:main.c        **** 		if (!At_Compliance()) return;
 378:main.c        **** 	}
 379:main.c        **** 	
 380:main.c        **** 	// To do: Should disconnect something or take some other action at this point since still at compl
 381:main.c        **** }
 382:main.c        **** 
 383:main.c        **** void Set_Vds_Raw(uint8 value) {
 384:main.c        **** 	Vds_Index_Goal_Relative = (int16)value - (int16)VDAC_Ref_Data;
 385:main.c        **** 	
 386:main.c        **** 	uint8 istart = VDAC_Vds_Data;
 387:main.c        **** 	int8 increment = 1;
 388:main.c        **** 	if (istart > value) increment = -1;
 389:main.c        **** 	
 390:main.c        **** 	for (uint8 i = 0; i != value; i += increment) {
 391:main.c        **** 		if (At_Compliance()) {
 392:main.c        **** 			for (uint8 j = i; j != istart; j -= increment) {
 393:main.c        **** 				VDAC_Vds_SetValue(j);
 394:main.c        **** 				
 395:main.c        **** 				if (!At_Compliance()) return;
 396:main.c        **** 			}
 397:main.c        **** 			if (At_Compliance()) {
 398:main.c        **** 				Handle_Compliance_Breach();
 399:main.c        **** 				return;
 400:main.c        **** 			}
 401:main.c        **** 		}
 402:main.c        **** 		
 403:main.c        **** 		VDAC_Vds_SetValue(i);
 404:main.c        **** 	}
 405:main.c        **** }
 406:main.c        **** 
 407:main.c        **** void Set_Vgs_Raw(uint8 value) {
 408:main.c        **** 	Vgs_Index_Goal_Relative = (int16)value - (int16)VDAC_Ref_Data;
 409:main.c        **** 	
 410:main.c        **** 	int8 increment = 1;
 411:main.c        **** 	uint8 istart = VDAC_Vgs_Data;
 412:main.c        **** 	if (value < istart) increment = -1;
 413:main.c        **** 	
 414:main.c        **** 	for (uint8 i = istart; i != value; i += increment) {
 415:main.c        **** 		if (At_Compliance()) {
 416:main.c        **** 			for (uint8 j = i; j != istart; j -= increment) {
 417:main.c        **** 				VDAC_Vgs_SetValue(j);
 418:main.c        **** 				
 419:main.c        **** 				if (!At_Compliance()) return;
 420:main.c        **** 			}
 421:main.c        **** 			if (At_Compliance()) {
 422:main.c        **** 				Handle_Compliance_Breach();
 423:main.c        **** 				return;
 424:main.c        **** 			}
ARM GAS  C:\Users\FRANKL~1\AppData\Local\Temp\ccPy0viy.s 			page 11


 425:main.c        **** 		}
 426:main.c        **** 		
 427:main.c        **** 		VDAC_Vgs_SetValue(i);
 428:main.c        **** 	}
 429:main.c        **** }
 430:main.c        **** 
 431:main.c        **** void Set_Ref_Raw(uint8 value) {
 432:main.c        **** 	int8 increment = 1;
 433:main.c        **** 	if (value < VDAC_Ref_Data) increment = -1;
 434:main.c        **** 	
 435:main.c        **** 	for (uint8 i = VDAC_Ref_Data; i != value; i += increment) {
 436:main.c        **** 		
 437:main.c        **** 		if (At_Compliance()) return;
 438:main.c        **** 		
 439:main.c        **** 		int16 new_Vgs = (int16)i + Vgs_Index_Goal_Relative;
 440:main.c        **** 		int16 new_Vds = (int16)i + Vds_Index_Goal_Relative;
 441:main.c        **** 		
 442:main.c        **** 		if (new_Vgs > 255) new_Vgs = 255;
 443:main.c        **** 		if (new_Vds > 255) new_Vds = 255;
 444:main.c        **** 		
 445:main.c        **** 		if (new_Vgs < 0) new_Vgs = 0;
 446:main.c        **** 		if (new_Vds < 0) new_Vds = 0;
 447:main.c        **** 		
 448:main.c        **** 		VDAC_Ref_SetValue(i);
 449:main.c        **** 		VDAC_Vgs_SetValue(new_Vgs);
 450:main.c        **** 		VDAC_Vds_SetValue(new_Vds);
 451:main.c        **** 	}
 452:main.c        **** }
 453:main.c        **** 
 454:main.c        **** void Set_Vds_Rel(int16 value) {
 455:main.c        **** 	if (value > 255) value = 255;
 456:main.c        **** 	if (value < -255) value = -255;
 457:main.c        **** 	
 458:main.c        **** 	int16 absolute = (int16)value + (int16)VDAC_Ref_Data;
 459:main.c        **** 	
 460:main.c        **** 	if (absolute > 255) {
 461:main.c        **** 		Set_Ref_Raw(VDAC_Ref_Data - (absolute - 255));
 462:main.c        **** 		Set_Vds_Raw(255);
 463:main.c        **** 	} else if (absolute < 0) {
 464:main.c        **** 		Set_Ref_Raw(VDAC_Ref_Data - absolute);
 465:main.c        **** 		Set_Vds_Raw(0);
 466:main.c        **** 	} else {
 467:main.c        **** 		Set_Vds_Raw(absolute);
 468:main.c        **** 	}
 469:main.c        **** 	
 470:main.c        **** 	Vds_Index_Goal_Relative = (int16)value;
 471:main.c        **** }
 472:main.c        **** 
 473:main.c        **** void Set_Vgs_Rel(int16 value) {
 474:main.c        **** 	if (value > 255) value = 255;
 475:main.c        **** 	if (value < -255) value = -255;
 476:main.c        **** 	
 477:main.c        **** 	int16 absolute = (int16)value + (int16)VDAC_Ref_Data;
 478:main.c        **** 	
 479:main.c        **** 	if (absolute > 255) {
 480:main.c        **** 		Set_Ref_Raw(VDAC_Ref_Data - (absolute - 255));
 481:main.c        **** 		Set_Vgs_Raw(255);
ARM GAS  C:\Users\FRANKL~1\AppData\Local\Temp\ccPy0viy.s 			page 12


 482:main.c        **** 	} else if (absolute < 0) {
 483:main.c        **** 		Set_Ref_Raw(VDAC_Ref_Data - absolute);
 484:main.c        **** 		Set_Vgs_Raw(0);
 485:main.c        **** 	} else {
 486:main.c        **** 		Set_Vgs_Raw(absolute);
 487:main.c        **** 	}
 488:main.c        **** 	
 489:main.c        **** 	Vgs_Index_Goal_Relative = (int16)value;
 490:main.c        **** }
 491:main.c        **** 
 492:main.c        **** void Set_Vgs(float voltage) {
 493:main.c        **** 	Set_Vgs_Rel((voltage/4.080)*255.0);
 494:main.c        **** }
 495:main.c        **** 
 496:main.c        **** void Set_Vds(float voltage) {
 497:main.c        **** 	Set_Vds_Rel((voltage/4.080)*255.0);
 498:main.c        **** }
 499:main.c        **** 
 500:main.c        **** void Set_Vgs_mV(float mV) {
 501:main.c        **** 	Set_Vgs(mV/1000.0);
 502:main.c        **** }
 503:main.c        **** 
 504:main.c        **** void Set_Vds_mV(float mV) {
 505:main.c        **** 	Set_Vds(mV/1000.0);
 506:main.c        **** }
 507:main.c        **** 
 508:main.c        **** float Get_Ref() {
 509:main.c        **** 	float result = 4.080/255.0*VDAC_Ref_Data;
 510:main.c        **** 	if (VDAC_Ref_CR0 & (VDAC_Ref_RANGE_1V & VDAC_Ref_RANGE_MASK)) {
 511:main.c        **** 		result = 1.020/255.0*VDAC_Ref_Data;
 512:main.c        **** 	}
 513:main.c        **** 	return result;
 514:main.c        **** }
 515:main.c        **** 
 516:main.c        **** float Get_Vgs() {
 517:main.c        **** 	float result = 4.080/255.0*VDAC_Vgs_Data - Get_Ref();
 518:main.c        **** 	if (VDAC_Vgs_CR0 & (VDAC_Vgs_RANGE_1V & VDAC_Vgs_RANGE_MASK)) {
 519:main.c        **** 		result = 1.020/255.0*VDAC_Vgs_Data - Get_Ref();
 520:main.c        **** 	}
 521:main.c        **** 	return result;
 522:main.c        **** }
 523:main.c        **** 
 524:main.c        **** float Get_Vds() {
 525:main.c        **** 	float result = 4.080/255.0*VDAC_Vds_Data - Get_Ref();
 526:main.c        **** 	if (VDAC_Vds_CR0 & (VDAC_Vds_RANGE_1V & VDAC_Vds_RANGE_MASK)) {
 527:main.c        **** 		result = 1.020/255.0*VDAC_Vds_Data - Get_Ref();
 528:main.c        **** 	}
 529:main.c        **** 	return result;
 530:main.c        **** }
 531:main.c        **** 
 532:main.c        **** void Zero_All_DACs() {
 533:main.c        **** 	Set_Vds_Raw(0);
 534:main.c        **** 	Set_Vgs_Raw(0);
 535:main.c        **** 	
 536:main.c        **** 	VDAC_Vds_SetValue(0);
 537:main.c        **** 	VDAC_Vgs_SetValue(0);
 538:main.c        **** }
ARM GAS  C:\Users\FRANKL~1\AppData\Local\Temp\ccPy0viy.s 			page 13


 539:main.c        **** 
 540:main.c        **** void Measure() {
 541:main.c        **** 	int32 IdsAverage = 0;
 542:main.c        **** 	int32 IdsStandardDeviation = 0;
 543:main.c        **** 	
 544:main.c        **** 	ADC_Measure_uV(&IdsAverage, &IdsStandardDeviation, 100);
 545:main.c        **** 	
 546:main.c        **** 	float IdsAverageAmps = -1e-6/20e3*IdsAverage;
 547:main.c        **** 	
 548:main.c        **** 	//ADC_SAR_1_StartConvert();
 549:main.c        **** 	//ADC_SAR_2_StartConvert();
 550:main.c        **** 	//while (!ADC_SAR_1_IsEndConversion(ADC_SAR_1_RETURN_STATUS));
 551:main.c        **** 	//while (!ADC_SAR_2_IsEndConversion(ADC_SAR_2_RETURN_STATUS));
 552:main.c        **** 	
 553:main.c        **** 	//float SAR1 = ADC_SAR_1_CountsTo_Volts(ADC_SAR_1_GetResult16());
 554:main.c        **** 	//float SAR2 = ADC_SAR_2_CountsTo_Volts(ADC_SAR_2_GetResult16());
 555:main.c        **** 	
 556:main.c        **** 	float SAR1_Average = 0;
 557:main.c        **** 	float SAR1_SD = 0;
 558:main.c        **** 	float SAR2_Average = 0;
 559:main.c        **** 	float SAR2_SD = 0;
 560:main.c        **** 
 561:main.c        **** 	SAR1_Measure_V(&SAR1_Average, &SAR1_SD, 2);
 562:main.c        **** 	SAR2_Measure_V(&SAR2_Average, &SAR2_SD, 10);
 563:main.c        **** 
 564:main.c        **** 	float SAR1 = SAR1_Average;
 565:main.c        **** 	float SAR2 = SAR2_Average;
 566:main.c        **** 
 567:main.c        **** 	sprintf(TransmitBuffer, "[%e,%f,%f,%f,%f]\r\n", IdsAverageAmps, Get_Vgs(), Get_Vds(), SAR1, SAR2);
 568:main.c        **** 	USBUARTH_Send(TransmitBuffer, strlen(TransmitBuffer));
 569:main.c        **** 	UART_1_PutString(TransmitBuffer);
 570:main.c        **** }
 571:main.c        **** 
 572:main.c        **** void Measure_Multiple(uint32 n) {
 573:main.c        **** 	for (uint32 i = 0; i < n; i++) {
 574:main.c        **** 		Measure();
 575:main.c        **** 	}
 576:main.c        **** }
 577:main.c        **** 
 578:main.c        **** void Measure_Gate_Sweep_New() {
 579:main.c        **** 	uint8 refTurn = 1;
 580:main.c        **** 	int8 refIncrement = 1;
 581:main.c        **** 	uint8 startRefIndex = 0;
 582:main.c        **** 	uint8 endRefIndex = 0;
 583:main.c        **** 	uint8 refIndex = startRefIndex;
 584:main.c        **** 	uint8 refArrived = 0;
 585:main.c        **** 	
 586:main.c        **** 	int8 gateIncrement = 1;
 587:main.c        **** 	uint8 startGateIndex = 0;
 588:main.c        **** 	uint8 endGateIndex = 0;
 589:main.c        **** 	uint8 gateIndex = startGateIndex;
 590:main.c        **** 	uint8 gateArrived = 0;
 591:main.c        **** 	
 592:main.c        **** 	
 593:main.c        **** 	while (!gateArrived || !refArrived) {
 594:main.c        **** 		gateArrived = abs(gateIndex-endGateIndex) < abs(gateIncrement);
 595:main.c        **** 		refArrived = abs(refIndex-endRefIndex) < abs(refIncrement);
ARM GAS  C:\Users\FRANKL~1\AppData\Local\Temp\ccPy0viy.s 			page 14


 596:main.c        **** 		
 597:main.c        **** 		refTurn = !refTurn;
 598:main.c        **** 		
 599:main.c        **** 		if (refTurn && refArrived) continue;
 600:main.c        **** 		if (!refTurn && gateArrived) continue;
 601:main.c        **** 		
 602:main.c        **** 		Set_Ref_Raw(refIndex);
 603:main.c        **** 		Set_Vgs_Raw(gateIndex);
 604:main.c        **** 		
 605:main.c        **** 		Measure();
 606:main.c        **** 		
 607:main.c        **** 		if (refTurn) {
 608:main.c        **** 			refIndex += refIncrement;
 609:main.c        **** 		} else {
 610:main.c        **** 			gateIndex += gateIncrement;
 611:main.c        **** 		}
 612:main.c        **** 		
 613:main.c        **** 		if (G_Stop) break;
 614:main.c        **** 		while (G_Pause);
 615:main.c        **** 	}
 616:main.c        **** }
 617:main.c        **** 
 618:main.c        **** void Measure_Gate_Sweep(uint8 loop) {
 619:main.c        **** 	
 620:main.c        **** 	if (Vds_Index_Goal_Relative > 0) {
 621:main.c        **** 		Set_Ref_Raw(254 - Vds_Index_Goal_Relative);
 622:main.c        **** 	} else {
 623:main.c        **** 		Set_Ref_Raw(254);
 624:main.c        **** 	}
 625:main.c        **** 	
 626:main.c        **** 	int8 speed = 16;
 627:main.c        **** 	
 628:main.c        **** 	for (uint8 l = 0; l <= loop; l++) {
 629:main.c        **** 		int8 direction = 1*speed;
 630:main.c        **** 		uint8 istart = 0;
 631:main.c        **** 		if (Vds_Index_Goal_Relative < 0) {
 632:main.c        **** 			uint8 istart = -Vds_Index_Goal_Relative;
 633:main.c        **** 		}
 634:main.c        **** 		
 635:main.c        **** 		uint8 istop = 256-speed;
 636:main.c        **** 		
 637:main.c        **** 		if (l%2 == 1) {
 638:main.c        **** 			direction = -1*speed;
 639:main.c        **** 			istart = 256-speed;
 640:main.c        **** 			istop = 0;
 641:main.c        **** 		}
 642:main.c        **** 		
 643:main.c        **** 		for (uint8 i = istart; i != istop; i += direction) {
 644:main.c        **** 			for (uint8 j = 0; j <= 1; j++) {
 645:main.c        **** 				int32 IdsAverage = 0;
 646:main.c        **** 				int32 IdsStandardDeviation = 0;
 647:main.c        **** 				
 648:main.c        **** 				if (j == 1) Set_Ref_Raw(254 - i + 1);
 649:main.c        **** 				Set_Vgs_Raw(i);
 650:main.c        **** 				
 651:main.c        **** 				ADC_Measure_uV(&IdsAverage, &IdsStandardDeviation, 33);
 652:main.c        **** 				
ARM GAS  C:\Users\FRANKL~1\AppData\Local\Temp\ccPy0viy.s 			page 15


 653:main.c        **** 				float IdsAverageAmps = -1e-6/20e3*IdsAverage;
 654:main.c        **** 				
 655:main.c        **** 				ADC_SAR_1_StartConvert();
 656:main.c        **** 				ADC_SAR_2_StartConvert();
 657:main.c        **** 				while (!ADC_SAR_1_IsEndConversion(ADC_SAR_1_RETURN_STATUS));
 658:main.c        **** 				while (!ADC_SAR_2_IsEndConversion(ADC_SAR_2_RETURN_STATUS));
 659:main.c        **** 				
 660:main.c        **** 				float SAR1 = ADC_SAR_1_CountsTo_Volts(ADC_SAR_1_GetResult16());
 661:main.c        **** 				float SAR2 = ADC_SAR_2_CountsTo_Volts(ADC_SAR_2_GetResult16());
 662:main.c        **** 				
 663:main.c        **** 				sprintf(TransmitBuffer, "[%e,%f,%f,%f,%f]\r\n", IdsAverageAmps, Get_Vgs(), Get_Vds(), SAR1, SAR
 664:main.c        **** 				USBUARTH_Send(TransmitBuffer, strlen(TransmitBuffer));
 665:main.c        **** 				UART_1_PutString(TransmitBuffer);
 666:main.c        **** 				
 667:main.c        **** 				if (G_Stop) break;
 668:main.c        **** 				while (G_Pause);
 669:main.c        **** 			}
 670:main.c        **** 		}
 671:main.c        **** 	}
 672:main.c        **** }
 673:main.c        **** 
 674:main.c        **** void Measure_Wide_Gate_Sweep(uint8 loop) {
 675:main.c        **** 	Set_Ref_Raw(254);
 676:main.c        **** 	
 677:main.c        **** 	int8 speed = 16;
 678:main.c        **** 	
 679:main.c        **** 	for (uint8 l = 0; l <= loop; l++) {
 680:main.c        **** 		int8 direction = 1*speed;
 681:main.c        **** 		uint8 istart = 0;
 682:main.c        **** 		uint8 istop = 256-speed;
 683:main.c        **** 		
 684:main.c        **** 		if (l%2 == 1) {
 685:main.c        **** 			direction = -1*speed;
 686:main.c        **** 			istart = 256-speed;
 687:main.c        **** 			istop = 0;
 688:main.c        **** 		}
 689:main.c        **** 		
 690:main.c        **** 		for (uint8 i = istart; i != istop; i += direction) {
 691:main.c        **** 			for (uint8 j = 0; j <= 1; j++) {
 692:main.c        **** 				int32 IdsAverage = 0;
 693:main.c        **** 				int32 IdsStandardDeviation = 0;
 694:main.c        **** 				
 695:main.c        **** 				if (j == 1) Set_Ref_Raw(254 - i + 1);
 696:main.c        **** 				Set_Vgs_Raw(i);
 697:main.c        **** 				
 698:main.c        **** 				ADC_Measure_uV(&IdsAverage, &IdsStandardDeviation, 33);
 699:main.c        **** 				
 700:main.c        **** 				float temp = -1e-6/20e3*IdsAverage;
 701:main.c        **** 				
 702:main.c        **** 				ADC_SAR_1_StartConvert();
 703:main.c        **** 				ADC_SAR_2_StartConvert();
 704:main.c        **** 				while (!ADC_SAR_1_IsEndConversion(ADC_SAR_1_RETURN_STATUS));
 705:main.c        **** 				while (!ADC_SAR_2_IsEndConversion(ADC_SAR_2_RETURN_STATUS));
 706:main.c        **** 				
 707:main.c        **** 				float SAR1 = ADC_SAR_1_CountsTo_Volts(ADC_SAR_1_GetResult16());
 708:main.c        **** 				float SAR2 = ADC_SAR_2_CountsTo_Volts(ADC_SAR_2_GetResult16());
 709:main.c        **** 				
ARM GAS  C:\Users\FRANKL~1\AppData\Local\Temp\ccPy0viy.s 			page 16


 710:main.c        **** 				sprintf(TransmitBuffer, "[%e,%f,%f,%f,%f]\r\n", temp, Get_Vgs(), Get_Vds(), SAR1, SAR2);
 711:main.c        **** 				USBUARTH_Send(TransmitBuffer, strlen(TransmitBuffer));
 712:main.c        **** 				UART_1_PutString(TransmitBuffer);
 713:main.c        **** 				
 714:main.c        **** 				if (G_Stop) break;
 715:main.c        **** 				while (G_Pause);
 716:main.c        **** 			}
 717:main.c        **** 		}
 718:main.c        **** 	}
 719:main.c        **** }
 720:main.c        **** 
 721:main.c        **** void Scan(uint8 wide, uint8 loop) {
 722:main.c        **** 	for (uint8 device = 1; device <= CONTACT_COUNT/**//2; device++) {
 723:main.c        **** 		uint8 contact1 = device;
 724:main.c        **** 		uint8 contact2 = device + 1;
 725:main.c        **** 		uint8 intermediate1 = 1;
 726:main.c        **** 		uint8 intermediate2 = 2;
 727:main.c        **** 		
 728:main.c        **** 		Disconnect_All_Contacts_From_All_Intermediates();
 729:main.c        **** 		Zero_All_DACs();
 730:main.c        **** 		Connect_Intermediates();
 731:main.c        **** 		Connect_Contact_To_Intermediate(contact1, intermediate1);
 732:main.c        **** 		Connect_Contact_To_Intermediate(contact2, intermediate2);
 733:main.c        **** 		
 734:main.c        **** 		sprintf(TransmitBuffer, "\r\n%u\r\n", device);
 735:main.c        **** 		USBUARTH_Send(TransmitBuffer, strlen(TransmitBuffer));
 736:main.c        **** 		UART_1_PutString(TransmitBuffer);
 737:main.c        **** 		
 738:main.c        **** 		if (wide) {
 739:main.c        **** 			Measure_Wide_Gate_Sweep(loop);
 740:main.c        **** 		} else {
 741:main.c        **** 			Measure_Gate_Sweep(loop);
 742:main.c        **** 		}
 743:main.c        **** 		
 744:main.c        **** 		if (G_Break || G_Stop) break;
 745:main.c        **** 		while (G_Pause);
 746:main.c        **** 	}
 747:main.c        **** }
 748:main.c        **** 
 749:main.c        **** void Scan_Range(uint8 startDevice, uint8 stopDevice, uint8 wide, uint8 loop) {
 750:main.c        **** 	if (startDevice >= CONTACT_COUNT) return;
 751:main.c        **** 	if (stopDevice >= CONTACT_COUNT) return;
 752:main.c        **** 	
 753:main.c        **** 	for (uint8 device = startDevice; device <= stopDevice; device++) {
 754:main.c        **** 		uint8 contact1 = device;
 755:main.c        **** 		uint8 contact2 = device + 1;
 756:main.c        **** 		uint8 intermediate1 = 1;
 757:main.c        **** 		uint8 intermediate2 = 2;
 758:main.c        **** 		
 759:main.c        **** 		Disconnect_All_Contacts_From_All_Intermediates();
 760:main.c        **** 		Zero_All_DACs();
 761:main.c        **** 		Connect_Intermediates();
 762:main.c        **** 		Connect_Contact_To_Intermediate(contact1, intermediate1);
 763:main.c        **** 		Connect_Contact_To_Intermediate(contact2, intermediate2);
 764:main.c        **** 		
 765:main.c        **** 		sprintf(TransmitBuffer, "\r\n%u\r\n", device);
 766:main.c        **** 		USBUARTH_Send(TransmitBuffer, strlen(TransmitBuffer));
ARM GAS  C:\Users\FRANKL~1\AppData\Local\Temp\ccPy0viy.s 			page 17


 767:main.c        **** 		UART_1_PutString(TransmitBuffer);
 768:main.c        **** 		
 769:main.c        **** 		if (wide) {
 770:main.c        **** 			Measure_Wide_Gate_Sweep(loop);
 771:main.c        **** 		} else {
 772:main.c        **** 			Measure_Gate_Sweep(loop);
 773:main.c        **** 		}
 774:main.c        **** 		
 775:main.c        **** 		if (G_Break || G_Stop) break;
 776:main.c        **** 		while (G_Pause);
 777:main.c        **** 	}
 778:main.c        **** }
 779:main.c        **** 
 780:main.c        **** CY_ISR (CommunicationHandlerISR) {
 109              		.loc 2 780 0
 110              		.cfi_startproc
 111              		@ args = 0, pretend = 0, frame = 64
 112              		@ frame_needed = 0, uses_anonymous_args = 0
 113 0000 30B5     		push	{r4, r5, lr}
 114              		.cfi_def_cfa_offset 12
 115              		.cfi_offset 4, -12
 116              		.cfi_offset 5, -8
 117              		.cfi_offset 14, -4
 118 0002 91B0     		sub	sp, sp, #68
 119              		.cfi_def_cfa_offset 80
 781:main.c        **** 	if (USBUARTH_DataIsReady()) {
 120              		.loc 2 781 0
 121 0004 FFF7FEFF 		bl	USBUARTH_DataIsReady
 122              	.LVL8:
 123 0008 0028     		cmp	r0, #0
 124 000a 37D0     		beq	.L10
 125              	.LBB2:
 782:main.c        **** 		// USBUARTH_Receive_Until(UART_Receive_Buffer, USBUART_BUFFER_SIZE, "\r");
 783:main.c        **** 		
 784:main.c        **** 		char temp_buffer[USBUART_BUFFER_SIZE];
 785:main.c        **** 		uint8 temp_count = USBUART_GetAll((uint8*) temp_buffer);
 126              		.loc 2 785 0
 127 000c 6846     		mov	r0, sp
 128 000e FFF7FEFF 		bl	USBUART_GetAll
 129              	.LVL9:
 130 0012 C0B2     		uxtb	r0, r0
 131              	.LVL10:
 132              	.LBB3:
 786:main.c        **** 		
 787:main.c        **** 		for (uint8 i = 0; i < temp_count; i++) {
 133              		.loc 2 787 0
 134 0014 0023     		movs	r3, #0
 135 0016 2EE0     		b	.L11
 136              	.LVL11:
 137              	.L17:
 138              	.LBB4:
 788:main.c        **** 			char c = temp_buffer[i];
 139              		.loc 2 788 0
 140 0018 10AA     		add	r2, sp, #64
 141 001a 1A44     		add	r2, r2, r3
 142 001c 12F8402C 		ldrb	r2, [r2, #-64]	@ zero_extendqisi2
 143              	.LVL12:
ARM GAS  C:\Users\FRANKL~1\AppData\Local\Temp\ccPy0viy.s 			page 18


 789:main.c        **** 			
 790:main.c        **** 			USBUART_Receive_Buffer[USBUART_Rx_Position] = c;
 144              		.loc 2 790 0
 145 0020 5949     		ldr	r1, .L31
 146 0022 0978     		ldrb	r1, [r1]	@ zero_extendqisi2
 147 0024 C9B2     		uxtb	r1, r1
 148 0026 594C     		ldr	r4, .L31+4
 149 0028 6254     		strb	r2, [r4, r1]
 791:main.c        **** 			
 792:main.c        **** 			// sprintf(TransmitBuffer, "USB: %c\r\n", USBUART_Receive_Buffer[USBUART_Rx_Position]);
 793:main.c        **** 			// UART_1_PutString(TransmitBuffer);
 794:main.c        **** 			
 795:main.c        **** 			if (c == '\r' || c == '\n' || c == '!') {
 150              		.loc 2 795 0
 151 002a 0D2A     		cmp	r2, #13
 152 002c 03D0     		beq	.L12
 153              		.loc 2 795 0 is_stmt 0 discriminator 1
 154 002e 0A2A     		cmp	r2, #10
 155 0030 01D0     		beq	.L12
 156              		.loc 2 795 0 discriminator 2
 157 0032 212A     		cmp	r2, #33
 158 0034 10D1     		bne	.L13
 159              	.L12:
 796:main.c        **** 				USBUART_Receive_Buffer[USBUART_Rx_Position] = 0;
 160              		.loc 2 796 0 is_stmt 1
 161 0036 5449     		ldr	r1, .L31
 162 0038 0A78     		ldrb	r2, [r1]	@ zero_extendqisi2
 163              	.LVL13:
 164 003a D2B2     		uxtb	r2, r2
 165 003c 0025     		movs	r5, #0
 166 003e 534C     		ldr	r4, .L31+4
 167 0040 A554     		strb	r5, [r4, r2]
 797:main.c        **** 				if (USBUART_Rx_Position) newData = 1;
 168              		.loc 2 797 0
 169 0042 0A78     		ldrb	r2, [r1]	@ zero_extendqisi2
 170 0044 12F0FF0F 		tst	r2, #255
 171 0048 02D0     		beq	.L14
 172              		.loc 2 797 0 is_stmt 0 discriminator 1
 173 004a 0121     		movs	r1, #1
 174 004c 504A     		ldr	r2, .L31+8
 175 004e 1170     		strb	r1, [r2]
 176              	.L14:
 798:main.c        **** 				USBUART_Rx_Position = 0;
 177              		.loc 2 798 0 is_stmt 1
 178 0050 0021     		movs	r1, #0
 179 0052 4D4A     		ldr	r2, .L31
 180 0054 1170     		strb	r1, [r2]
 181 0056 04E0     		b	.L15
 182              	.LVL14:
 183              	.L13:
 799:main.c        **** 			} else {
 800:main.c        **** 				USBUART_Rx_Position++;
 184              		.loc 2 800 0
 185 0058 4B49     		ldr	r1, .L31
 186 005a 0A78     		ldrb	r2, [r1]	@ zero_extendqisi2
 187              	.LVL15:
 188 005c 0132     		adds	r2, r2, #1
ARM GAS  C:\Users\FRANKL~1\AppData\Local\Temp\ccPy0viy.s 			page 19


 189 005e D2B2     		uxtb	r2, r2
 190 0060 0A70     		strb	r2, [r1]
 191              	.L15:
 801:main.c        **** 			}
 802:main.c        **** 			
 803:main.c        **** 			if (USBUART_Rx_Position >= USBUART_BUFFER_SIZE) USBUART_Rx_Position = 0;
 192              		.loc 2 803 0
 193 0062 494A     		ldr	r2, .L31
 194 0064 1278     		ldrb	r2, [r2]	@ zero_extendqisi2
 195 0066 D2B2     		uxtb	r2, r2
 196 0068 3F2A     		cmp	r2, #63
 197 006a 02D9     		bls	.L16
 198              		.loc 2 803 0 is_stmt 0 discriminator 1
 199 006c 0021     		movs	r1, #0
 200 006e 464A     		ldr	r2, .L31
 201 0070 1170     		strb	r1, [r2]
 202              	.L16:
 203              	.LBE4:
 787:main.c        **** 			char c = temp_buffer[i];
 204              		.loc 2 787 0 is_stmt 1 discriminator 2
 205 0072 0133     		adds	r3, r3, #1
 206              	.LVL16:
 207 0074 DBB2     		uxtb	r3, r3
 208              	.LVL17:
 209              	.L11:
 787:main.c        **** 			char c = temp_buffer[i];
 210              		.loc 2 787 0 is_stmt 0 discriminator 1
 211 0076 8342     		cmp	r3, r0
 212 0078 CED3     		bcc	.L17
 213 007a 3AE0     		b	.L18
 214              	.LVL18:
 215              	.L10:
 216              	.LBE3:
 217              	.LBE2:
 804:main.c        **** 		}
 805:main.c        **** 	} else
 806:main.c        **** 	if (UART_1_GetRxBufferSize()) {
 218              		.loc 2 806 0 is_stmt 1
 219 007c FFF7FEFF 		bl	UART_1_GetRxBufferSize
 220              	.LVL19:
 221 0080 0028     		cmp	r0, #0
 222 0082 36D0     		beq	.L18
 807:main.c        **** 		UART_Receive_Buffer[UART_Rx_Position] = UART_1_GetChar();
 223              		.loc 2 807 0
 224 0084 434D     		ldr	r5, .L31+12
 225 0086 2C78     		ldrb	r4, [r5]	@ zero_extendqisi2
 226 0088 E4B2     		uxtb	r4, r4
 227 008a FFF7FEFF 		bl	UART_1_GetChar
 228              	.LVL20:
 229 008e 424A     		ldr	r2, .L31+16
 230 0090 1055     		strb	r0, [r2, r4]
 808:main.c        **** 		
 809:main.c        **** 		if (UART_Receive_Buffer[UART_Rx_Position] == '\r' || UART_Receive_Buffer[UART_Rx_Position] == '\n
 231              		.loc 2 809 0
 232 0092 2B78     		ldrb	r3, [r5]	@ zero_extendqisi2
 233 0094 DBB2     		uxtb	r3, r3
 234 0096 D35C     		ldrb	r3, [r2, r3]	@ zero_extendqisi2
ARM GAS  C:\Users\FRANKL~1\AppData\Local\Temp\ccPy0viy.s 			page 20


 235 0098 DBB2     		uxtb	r3, r3
 236 009a 0D2B     		cmp	r3, #13
 237 009c 0BD0     		beq	.L19
 238              		.loc 2 809 0 is_stmt 0 discriminator 1
 239 009e 2B78     		ldrb	r3, [r5]	@ zero_extendqisi2
 240 00a0 DBB2     		uxtb	r3, r3
 241 00a2 D35C     		ldrb	r3, [r2, r3]	@ zero_extendqisi2
 242 00a4 DBB2     		uxtb	r3, r3
 243 00a6 0A2B     		cmp	r3, #10
 244 00a8 05D0     		beq	.L19
 245              		.loc 2 809 0 discriminator 2
 246 00aa 2B78     		ldrb	r3, [r5]	@ zero_extendqisi2
 247 00ac DBB2     		uxtb	r3, r3
 248 00ae D35C     		ldrb	r3, [r2, r3]	@ zero_extendqisi2
 249 00b0 DBB2     		uxtb	r3, r3
 250 00b2 212B     		cmp	r3, #33
 251 00b4 10D1     		bne	.L20
 252              	.L19:
 810:main.c        **** 			UART_Receive_Buffer[UART_Rx_Position] = 0;
 253              		.loc 2 810 0 is_stmt 1
 254 00b6 374A     		ldr	r2, .L31+12
 255 00b8 1378     		ldrb	r3, [r2]	@ zero_extendqisi2
 256 00ba DBB2     		uxtb	r3, r3
 257 00bc 0020     		movs	r0, #0
 258 00be 3649     		ldr	r1, .L31+16
 259 00c0 C854     		strb	r0, [r1, r3]
 811:main.c        **** 			if (UART_Rx_Position) newData = 2;
 260              		.loc 2 811 0
 261 00c2 1378     		ldrb	r3, [r2]	@ zero_extendqisi2
 262 00c4 13F0FF0F 		tst	r3, #255
 263 00c8 02D0     		beq	.L21
 264              		.loc 2 811 0 is_stmt 0 discriminator 1
 265 00ca 0222     		movs	r2, #2
 266 00cc 304B     		ldr	r3, .L31+8
 267 00ce 1A70     		strb	r2, [r3]
 268              	.L21:
 812:main.c        **** 			UART_Rx_Position = 0;
 269              		.loc 2 812 0 is_stmt 1
 270 00d0 0022     		movs	r2, #0
 271 00d2 304B     		ldr	r3, .L31+12
 272 00d4 1A70     		strb	r2, [r3]
 273 00d6 04E0     		b	.L22
 274              	.L20:
 813:main.c        **** 		} else {
 814:main.c        **** 			UART_Rx_Position++;
 275              		.loc 2 814 0
 276 00d8 2E4A     		ldr	r2, .L31+12
 277 00da 1378     		ldrb	r3, [r2]	@ zero_extendqisi2
 278 00dc 0133     		adds	r3, r3, #1
 279 00de DBB2     		uxtb	r3, r3
 280 00e0 1370     		strb	r3, [r2]
 281              	.L22:
 815:main.c        **** 		}
 816:main.c        **** 		
 817:main.c        **** 		if (UART_Rx_Position >= USBUART_BUFFER_SIZE) UART_Rx_Position = 0;
 282              		.loc 2 817 0
 283 00e2 2C4B     		ldr	r3, .L31+12
ARM GAS  C:\Users\FRANKL~1\AppData\Local\Temp\ccPy0viy.s 			page 21


 284 00e4 1B78     		ldrb	r3, [r3]	@ zero_extendqisi2
 285 00e6 DBB2     		uxtb	r3, r3
 286 00e8 3F2B     		cmp	r3, #63
 287 00ea 02D9     		bls	.L18
 288              		.loc 2 817 0 is_stmt 0 discriminator 1
 289 00ec 0022     		movs	r2, #0
 290 00ee 294B     		ldr	r3, .L31+12
 291 00f0 1A70     		strb	r2, [r3]
 292              	.L18:
 818:main.c        **** 	}
 819:main.c        **** 	
 820:main.c        **** 	if (newData) {
 293              		.loc 2 820 0 is_stmt 1
 294 00f2 274B     		ldr	r3, .L31+8
 295 00f4 1B78     		ldrb	r3, [r3]	@ zero_extendqisi2
 296 00f6 13F0FF0F 		tst	r3, #255
 297 00fa 3FD0     		beq	.L23
 298              	.LVL21:
 299              	.LBB5:
 821:main.c        **** 		char* ReceiveBuffer = &USBUART_Receive_Buffer[0];
 822:main.c        **** 		if (newData == 2) ReceiveBuffer = &UART_Receive_Buffer[0];
 300              		.loc 2 822 0
 301 00fc 244B     		ldr	r3, .L31+8
 302 00fe 1B78     		ldrb	r3, [r3]	@ zero_extendqisi2
 303 0100 DBB2     		uxtb	r3, r3
 304 0102 022B     		cmp	r3, #2
 305 0104 01D0     		beq	.L29
 821:main.c        **** 		char* ReceiveBuffer = &USBUART_Receive_Buffer[0];
 306              		.loc 2 821 0
 307 0106 214C     		ldr	r4, .L31+4
 308 0108 00E0     		b	.L24
 309              	.L29:
 310              		.loc 2 822 0
 311 010a 234C     		ldr	r4, .L31+16
 312              	.L24:
 313              	.LVL22:
 823:main.c        **** 		
 824:main.c        **** 		if (strstr(ReceiveBuffer, "stop ") == &ReceiveBuffer[0]) {
 314              		.loc 2 824 0
 315 010c 2349     		ldr	r1, .L31+20
 316 010e 2046     		mov	r0, r4
 317 0110 FFF7FEFF 		bl	strstr
 318              	.LVL23:
 319 0114 8442     		cmp	r4, r0
 320 0116 05D1     		bne	.L25
 825:main.c        **** 			G_Stop = 1;
 321              		.loc 2 825 0
 322 0118 1D4B     		ldr	r3, .L31+8
 323 011a 0122     		movs	r2, #1
 324 011c 5A70     		strb	r2, [r3, #1]
 826:main.c        **** 			newData = 0;
 325              		.loc 2 826 0
 326 011e 0022     		movs	r2, #0
 327 0120 1A70     		strb	r2, [r3]
 328 0122 2BE0     		b	.L23
 329              	.L25:
 827:main.c        **** 		} else 
ARM GAS  C:\Users\FRANKL~1\AppData\Local\Temp\ccPy0viy.s 			page 22


 828:main.c        **** 		if (strstr(ReceiveBuffer, "break ") == &ReceiveBuffer[0]) {
 330              		.loc 2 828 0
 331 0124 1E49     		ldr	r1, .L31+24
 332 0126 2046     		mov	r0, r4
 333 0128 FFF7FEFF 		bl	strstr
 334              	.LVL24:
 335 012c 8442     		cmp	r4, r0
 336 012e 05D1     		bne	.L26
 829:main.c        **** 			G_Break = 1;
 337              		.loc 2 829 0
 338 0130 174B     		ldr	r3, .L31+8
 339 0132 0122     		movs	r2, #1
 340 0134 9A70     		strb	r2, [r3, #2]
 830:main.c        **** 			newData = 0;
 341              		.loc 2 830 0
 342 0136 0022     		movs	r2, #0
 343 0138 1A70     		strb	r2, [r3]
 344 013a 1FE0     		b	.L23
 345              	.L26:
 831:main.c        **** 		} else 
 832:main.c        **** 		if (strstr(ReceiveBuffer, "pause ") == &ReceiveBuffer[0]) {
 346              		.loc 2 832 0
 347 013c 1949     		ldr	r1, .L31+28
 348 013e 2046     		mov	r0, r4
 349 0140 FFF7FEFF 		bl	strstr
 350              	.LVL25:
 351 0144 8442     		cmp	r4, r0
 352 0146 05D1     		bne	.L27
 833:main.c        **** 			G_Pause = 1;
 353              		.loc 2 833 0
 354 0148 114B     		ldr	r3, .L31+8
 355 014a 0122     		movs	r2, #1
 356 014c DA70     		strb	r2, [r3, #3]
 834:main.c        **** 			newData = 0;
 357              		.loc 2 834 0
 358 014e 0022     		movs	r2, #0
 359 0150 1A70     		strb	r2, [r3]
 360 0152 13E0     		b	.L23
 361              	.L27:
 835:main.c        **** 		} else 
 836:main.c        **** 		if (strstr(ReceiveBuffer, "resume ") == &ReceiveBuffer[0]) {
 362              		.loc 2 836 0
 363 0154 1449     		ldr	r1, .L31+32
 364 0156 2046     		mov	r0, r4
 365 0158 FFF7FEFF 		bl	strstr
 366              	.LVL26:
 367 015c 8442     		cmp	r4, r0
 368 015e 04D1     		bne	.L28
 837:main.c        **** 			G_Pause = 0;
 369              		.loc 2 837 0
 370 0160 0B4B     		ldr	r3, .L31+8
 371 0162 0022     		movs	r2, #0
 372 0164 DA70     		strb	r2, [r3, #3]
 838:main.c        **** 			newData = 0;
 373              		.loc 2 838 0
 374 0166 1A70     		strb	r2, [r3]
 375 0168 08E0     		b	.L23
ARM GAS  C:\Users\FRANKL~1\AppData\Local\Temp\ccPy0viy.s 			page 23


 376              	.L28:
 839:main.c        **** 		} else 
 840:main.c        **** 		if (strstr(ReceiveBuffer, "tristate ") == &ReceiveBuffer[0]) {
 377              		.loc 2 840 0
 378 016a 1049     		ldr	r1, .L31+36
 379 016c 2046     		mov	r0, r4
 380 016e FFF7FEFF 		bl	strstr
 381              	.LVL27:
 382 0172 8442     		cmp	r4, r0
 383 0174 02D1     		bne	.L23
 841:main.c        **** 			// To do
 842:main.c        **** 			newData = 0;
 384              		.loc 2 842 0
 385 0176 0022     		movs	r2, #0
 386 0178 054B     		ldr	r3, .L31+8
 387 017a 1A70     		strb	r2, [r3]
 388              	.LVL28:
 389              	.L23:
 390              	.LBE5:
 843:main.c        **** 		}
 844:main.c        **** 	}
 845:main.c        **** 	
 846:main.c        **** 	CommunicationInterrupt_ClearPending();
 391              		.loc 2 846 0
 392 017c FFF7FEFF 		bl	CommunicationInterrupt_ClearPending
 393              	.LVL29:
 847:main.c        **** 	CommunicationTimer_ReadStatusRegister();
 394              		.loc 2 847 0
 395 0180 FFF7FEFF 		bl	CommunicationTimer_ReadStatusRegister
 396              	.LVL30:
 848:main.c        **** }
 397              		.loc 2 848 0
 398 0184 11B0     		add	sp, sp, #68
 399              		.cfi_def_cfa_offset 12
 400              		@ sp needed
 401 0186 30BD     		pop	{r4, r5, pc}
 402              	.L32:
 403              		.align	2
 404              	.L31:
 405 0188 00000000 		.word	USBUART_Rx_Position
 406 018c 00000000 		.word	USBUART_Receive_Buffer
 407 0190 00000000 		.word	.LANCHOR0
 408 0194 00000000 		.word	UART_Rx_Position
 409 0198 00000000 		.word	UART_Receive_Buffer
 410 019c 00000000 		.word	.LC0
 411 01a0 08000000 		.word	.LC1
 412 01a4 10000000 		.word	.LC2
 413 01a8 18000000 		.word	.LC3
 414 01ac 20000000 		.word	.LC4
 415              		.cfi_endproc
 416              	.LFE108:
 417              		.size	CommunicationHandlerISR, .-CommunicationHandlerISR
 418              		.section	.text.USBUARTH_Send,"ax",%progbits
 419              		.align	2
 420              		.global	USBUARTH_Send
 421              		.thumb
 422              		.thumb_func
ARM GAS  C:\Users\FRANKL~1\AppData\Local\Temp\ccPy0viy.s 			page 24


 423              		.type	USBUARTH_Send, %function
 424              	USBUARTH_Send:
 425              	.LFB66:
  39:USBUART_Helpers.h **** 
  40:USBUART_Helpers.h **** 
  41:USBUART_Helpers.h **** uint8 USBUARTH_Send(char* buffer, uint16 count) {
 426              		.loc 1 41 0
 427              		.cfi_startproc
 428              		@ args = 0, pretend = 0, frame = 0
 429              		@ frame_needed = 0, uses_anonymous_args = 0
 430              	.LVL31:
  42:USBUART_Helpers.h **** 	if (count > 0) {
 431              		.loc 1 42 0
 432 0000 49B9     		cbnz	r1, .L39
  43:USBUART_Helpers.h **** 		// Wait until component is ready to send data to host.
  44:USBUART_Helpers.h **** 		for (uint32 tries = 0; tries < 10; tries++) {
  45:USBUART_Helpers.h **** 			USBUARTH_Maintain_Configuration();
  46:USBUART_Helpers.h **** 			if (USBUART_CDCIsReady()) break;
  47:USBUART_Helpers.h **** 		}
  48:USBUART_Helpers.h ****         
  49:USBUART_Helpers.h **** 		if (!USBUART_CDCIsReady()) return 0;
  50:USBUART_Helpers.h **** 		
  51:USBUART_Helpers.h **** 		// Send data to host
  52:USBUART_Helpers.h **** 		USBUART_PutData((uint8*) buffer, count);
  53:USBUART_Helpers.h **** 		
  54:USBUART_Helpers.h **** 		/* If the last sent packet is exactly the maximum packet 
  55:USBUART_Helpers.h **** 		*  size, it is followed by a zero-length packet to assure
  56:USBUART_Helpers.h **** 		*  that the end of the segment is properly identified by 
  57:USBUART_Helpers.h **** 		*  the terminal.
  58:USBUART_Helpers.h **** 		*/
  59:USBUART_Helpers.h **** 		if (USBUART_BUFFER_SIZE == count) {
  60:USBUART_Helpers.h **** 			// Wait until component is ready to send data to PC.
  61:USBUART_Helpers.h **** 			while (!USBUART_CDCIsReady());
  62:USBUART_Helpers.h ****             
  63:USBUART_Helpers.h **** 			// Send zero-length packet to PC.
  64:USBUART_Helpers.h **** 			USBUART_PutData(NULL, 0);
  65:USBUART_Helpers.h **** 		}
  66:USBUART_Helpers.h **** 	}
  67:USBUART_Helpers.h **** 	
  68:USBUART_Helpers.h **** 	return 1;
 433              		.loc 1 68 0
 434 0002 0123     		movs	r3, #1
  69:USBUART_Helpers.h **** }
 435              		.loc 1 69 0
 436 0004 1846     		mov	r0, r3
 437              	.LVL32:
 438 0006 7047     		bx	lr
 439              	.LVL33:
 440              	.L37:
 441              		.cfi_def_cfa_offset 16
 442              		.cfi_offset 4, -16
 443              		.cfi_offset 5, -12
 444              		.cfi_offset 6, -8
 445              		.cfi_offset 14, -4
 446              	.LBB6:
  45:USBUART_Helpers.h **** 			if (USBUART_CDCIsReady()) break;
 447              		.loc 1 45 0
ARM GAS  C:\Users\FRANKL~1\AppData\Local\Temp\ccPy0viy.s 			page 25


 448 0008 FFF7FEFF 		bl	USBUARTH_Maintain_Configuration
 449              	.LVL34:
  46:USBUART_Helpers.h **** 		}
 450              		.loc 1 46 0
 451 000c FFF7FEFF 		bl	USBUART_CDCIsReady
 452              	.LVL35:
 453 0010 38B9     		cbnz	r0, .L36
  44:USBUART_Helpers.h **** 			USBUARTH_Maintain_Configuration();
 454              		.loc 1 44 0 discriminator 2
 455 0012 0134     		adds	r4, r4, #1
 456              	.LVL36:
 457 0014 03E0     		b	.L34
 458              	.LVL37:
 459              	.L39:
 460              		.cfi_def_cfa_offset 0
 461              		.cfi_restore 4
 462              		.cfi_restore 5
 463              		.cfi_restore 6
 464              		.cfi_restore 14
 465              	.LBE6:
  41:USBUART_Helpers.h **** 	if (count > 0) {
 466              		.loc 1 41 0
 467 0016 70B5     		push	{r4, r5, r6, lr}
 468              		.cfi_def_cfa_offset 16
 469              		.cfi_offset 4, -16
 470              		.cfi_offset 5, -12
 471              		.cfi_offset 6, -8
 472              		.cfi_offset 14, -4
 473 0018 0D46     		mov	r5, r1
 474 001a 0646     		mov	r6, r0
 475 001c 0024     		movs	r4, #0
 476              	.LVL38:
 477              	.L34:
 478              	.LBB7:
  44:USBUART_Helpers.h **** 			USBUARTH_Maintain_Configuration();
 479              		.loc 1 44 0 discriminator 1
 480 001e 092C     		cmp	r4, #9
 481 0020 F2D9     		bls	.L37
 482              	.L36:
 483              	.LBE7:
  49:USBUART_Helpers.h **** 		
 484              		.loc 1 49 0
 485 0022 FFF7FEFF 		bl	USBUART_CDCIsReady
 486              	.LVL39:
 487 0026 0346     		mov	r3, r0
 488 0028 80B1     		cbz	r0, .L35
  52:USBUART_Helpers.h **** 		
 489              		.loc 1 52 0
 490 002a 2946     		mov	r1, r5
 491 002c 3046     		mov	r0, r6
 492 002e FFF7FEFF 		bl	USBUART_PutData
 493              	.LVL40:
  59:USBUART_Helpers.h **** 			// Wait until component is ready to send data to PC.
 494              		.loc 1 59 0
 495 0032 402D     		cmp	r5, #64
 496 0034 09D1     		bne	.L40
 497              	.L38:
ARM GAS  C:\Users\FRANKL~1\AppData\Local\Temp\ccPy0viy.s 			page 26


  61:USBUART_Helpers.h ****             
 498              		.loc 1 61 0 discriminator 1
 499 0036 FFF7FEFF 		bl	USBUART_CDCIsReady
 500              	.LVL41:
 501 003a 0028     		cmp	r0, #0
 502 003c FBD0     		beq	.L38
  64:USBUART_Helpers.h **** 		}
 503              		.loc 1 64 0
 504 003e 0021     		movs	r1, #0
 505 0040 0846     		mov	r0, r1
 506 0042 FFF7FEFF 		bl	USBUART_PutData
 507              	.LVL42:
  68:USBUART_Helpers.h **** }
 508              		.loc 1 68 0
 509 0046 0123     		movs	r3, #1
 510 0048 00E0     		b	.L35
 511              	.L40:
 512 004a 0123     		movs	r3, #1
 513              	.L35:
 514              		.loc 1 69 0
 515 004c 1846     		mov	r0, r3
 516 004e 70BD     		pop	{r4, r5, r6, pc}
 517              		.cfi_endproc
 518              	.LFE66:
 519              		.size	USBUARTH_Send, .-USBUARTH_Send
 520              		.section	.text.USBUARTH_Receive,"ax",%progbits
 521              		.align	2
 522              		.global	USBUARTH_Receive
 523              		.thumb
 524              		.thumb_func
 525              		.type	USBUARTH_Receive, %function
 526              	USBUARTH_Receive:
 527              	.LFB67:
  70:USBUART_Helpers.h **** 
  71:USBUART_Helpers.h **** uint8 USBUARTH_Receive(char* buffer, uint16* count) {
 528              		.loc 1 71 0
 529              		.cfi_startproc
 530              		@ args = 0, pretend = 0, frame = 0
 531              		@ frame_needed = 0, uses_anonymous_args = 0
 532              	.LVL43:
 533 0000 38B5     		push	{r3, r4, r5, lr}
 534              		.cfi_def_cfa_offset 16
 535              		.cfi_offset 3, -16
 536              		.cfi_offset 4, -12
 537              		.cfi_offset 5, -8
 538              		.cfi_offset 14, -4
 539 0002 0446     		mov	r4, r0
 540 0004 0D46     		mov	r5, r1
  72:USBUART_Helpers.h **** 	// Wait for input data from host
  73:USBUART_Helpers.h **** 	while (!USBUART_DataIsReady()) USBUARTH_Maintain_Configuration();
 541              		.loc 1 73 0
 542 0006 01E0     		b	.L43
 543              	.LVL44:
 544              	.L44:
 545              		.loc 1 73 0 is_stmt 0 discriminator 2
 546 0008 FFF7FEFF 		bl	USBUARTH_Maintain_Configuration
 547              	.LVL45:
ARM GAS  C:\Users\FRANKL~1\AppData\Local\Temp\ccPy0viy.s 			page 27


 548              	.L43:
 549              		.loc 1 73 0 discriminator 1
 550 000c FFF7FEFF 		bl	USBUART_DataIsReady
 551              	.LVL46:
 552 0010 0028     		cmp	r0, #0
 553 0012 F9D0     		beq	.L44
  74:USBUART_Helpers.h **** 	
  75:USBUART_Helpers.h **** 	// Read received data and re-enable OUT endpoint.
  76:USBUART_Helpers.h **** 	*count = USBUART_GetAll((uint8*) buffer);
 554              		.loc 1 76 0 is_stmt 1
 555 0014 2046     		mov	r0, r4
 556 0016 FFF7FEFF 		bl	USBUART_GetAll
 557              	.LVL47:
 558 001a 2880     		strh	r0, [r5]	@ movhi
  77:USBUART_Helpers.h **** 	
  78:USBUART_Helpers.h **** 	buffer[*count] = 0;
 559              		.loc 1 78 0
 560 001c 0023     		movs	r3, #0
 561 001e 2354     		strb	r3, [r4, r0]
  79:USBUART_Helpers.h **** 	
  80:USBUART_Helpers.h **** 	return 1u;
  81:USBUART_Helpers.h **** }
 562              		.loc 1 81 0
 563 0020 0120     		movs	r0, #1
 564 0022 38BD     		pop	{r3, r4, r5, pc}
 565              		.cfi_endproc
 566              	.LFE67:
 567              		.size	USBUARTH_Receive, .-USBUARTH_Receive
 568              		.section	.text.USBUARTH_GetChar,"ax",%progbits
 569              		.align	2
 570              		.global	USBUARTH_GetChar
 571              		.thumb
 572              		.thumb_func
 573              		.type	USBUARTH_GetChar, %function
 574              	USBUARTH_GetChar:
 575              	.LFB68:
  82:USBUART_Helpers.h **** 
  83:USBUART_Helpers.h **** char USBUARTH_GetChar() {
 576              		.loc 1 83 0
 577              		.cfi_startproc
 578              		@ args = 0, pretend = 0, frame = 0
 579              		@ frame_needed = 0, uses_anonymous_args = 0
 580 0000 08B5     		push	{r3, lr}
 581              		.cfi_def_cfa_offset 8
 582              		.cfi_offset 3, -8
 583              		.cfi_offset 14, -4
  84:USBUART_Helpers.h **** 	while (!USBUART_DataIsReady()) USBUARTH_Maintain_Configuration();
 584              		.loc 1 84 0
 585 0002 01E0     		b	.L47
 586              	.L48:
 587              		.loc 1 84 0 is_stmt 0 discriminator 2
 588 0004 FFF7FEFF 		bl	USBUARTH_Maintain_Configuration
 589              	.LVL48:
 590              	.L47:
 591              		.loc 1 84 0 discriminator 1
 592 0008 FFF7FEFF 		bl	USBUART_DataIsReady
 593              	.LVL49:
ARM GAS  C:\Users\FRANKL~1\AppData\Local\Temp\ccPy0viy.s 			page 28


 594 000c 0028     		cmp	r0, #0
 595 000e F9D0     		beq	.L48
  85:USBUART_Helpers.h **** 	
  86:USBUART_Helpers.h **** 	return USBUART_GetChar();
 596              		.loc 1 86 0 is_stmt 1
 597 0010 FFF7FEFF 		bl	USBUART_GetChar
 598              	.LVL50:
  87:USBUART_Helpers.h **** }
 599              		.loc 1 87 0
 600 0014 08BD     		pop	{r3, pc}
 601              		.cfi_endproc
 602              	.LFE68:
 603              		.size	USBUARTH_GetChar, .-USBUARTH_GetChar
 604 0016 00BF     		.section	.text.USBUARTH_Receive_Until,"ax",%progbits
 605              		.align	2
 606              		.global	USBUARTH_Receive_Until
 607              		.thumb
 608              		.thumb_func
 609              		.type	USBUARTH_Receive_Until, %function
 610              	USBUARTH_Receive_Until:
 611              	.LFB69:
  88:USBUART_Helpers.h **** 
  89:USBUART_Helpers.h **** uint8 USBUARTH_Receive_Until(char* buffer, uint16 maxLength, const char* termination) {
 612              		.loc 1 89 0
 613              		.cfi_startproc
 614              		@ args = 0, pretend = 0, frame = 0
 615              		@ frame_needed = 0, uses_anonymous_args = 0
 616              	.LVL51:
 617 0000 2DE9F041 		push	{r4, r5, r6, r7, r8, lr}
 618              		.cfi_def_cfa_offset 24
 619              		.cfi_offset 4, -24
 620              		.cfi_offset 5, -20
 621              		.cfi_offset 6, -16
 622              		.cfi_offset 7, -12
 623              		.cfi_offset 8, -8
 624              		.cfi_offset 14, -4
 625 0004 0546     		mov	r5, r0
 626 0006 0E46     		mov	r6, r1
 627 0008 1746     		mov	r7, r2
 628              	.LVL52:
 629              	.LBB8:
  90:USBUART_Helpers.h **** 	for (uint16 i = 0; i < maxLength; i++) {
 630              		.loc 1 90 0
 631 000a 0023     		movs	r3, #0
 632 000c 03E0     		b	.L51
 633              	.LVL53:
 634              	.L52:
  91:USBUART_Helpers.h **** 		buffer[i] = 0;
 635              		.loc 1 91 0 discriminator 3
 636 000e 0022     		movs	r2, #0
 637 0010 EA54     		strb	r2, [r5, r3]
  90:USBUART_Helpers.h **** 	for (uint16 i = 0; i < maxLength; i++) {
 638              		.loc 1 90 0 discriminator 3
 639 0012 0133     		adds	r3, r3, #1
 640              	.LVL54:
 641 0014 9BB2     		uxth	r3, r3
 642              	.LVL55:
ARM GAS  C:\Users\FRANKL~1\AppData\Local\Temp\ccPy0viy.s 			page 29


 643              	.L51:
  90:USBUART_Helpers.h **** 	for (uint16 i = 0; i < maxLength; i++) {
 644              		.loc 1 90 0 is_stmt 0 discriminator 1
 645 0016 B342     		cmp	r3, r6
 646 0018 F9D3     		bcc	.L52
 647 001a 0024     		movs	r4, #0
 648 001c 16E0     		b	.L53
 649              	.LVL56:
 650              	.L56:
 651              	.LBE8:
 652              	.LBB9:
  92:USBUART_Helpers.h **** 	}
  93:USBUART_Helpers.h **** 	
  94:USBUART_Helpers.h **** 	for (uint16 i = 0; i < maxLength - 1; i++) {
  95:USBUART_Helpers.h **** 		buffer[i] = USBUARTH_GetChar();
 653              		.loc 1 95 0 is_stmt 1
 654 001e FFF7FEFF 		bl	USBUARTH_GetChar
 655              	.LVL57:
 656 0022 2855     		strb	r0, [r5, r4]
  96:USBUART_Helpers.h **** 		buffer[i+1] = 0;
 657              		.loc 1 96 0
 658 0024 631C     		adds	r3, r4, #1
 659 0026 0022     		movs	r2, #0
 660 0028 EA54     		strb	r2, [r5, r3]
  97:USBUART_Helpers.h **** 		
  98:USBUART_Helpers.h **** 		if (strstr(buffer, termination)) {
 661              		.loc 1 98 0
 662 002a 3946     		mov	r1, r7
 663 002c 2846     		mov	r0, r5
 664 002e FFF7FEFF 		bl	strstr
 665              	.LVL58:
 666 0032 48B1     		cbz	r0, .L54
  99:USBUART_Helpers.h **** 			buffer[i + 1 - strlen(termination)] = 0;
 667              		.loc 1 99 0
 668 0034 3846     		mov	r0, r7
 669 0036 FFF7FEFF 		bl	strlen
 670              	.LVL59:
 671 003a 201A     		subs	r0, r4, r0
 672 003c 0130     		adds	r0, r0, #1
 673 003e 0023     		movs	r3, #0
 674 0040 2B54     		strb	r3, [r5, r0]
 100:USBUART_Helpers.h **** 			return 1;
 675              		.loc 1 100 0
 676 0042 0120     		movs	r0, #1
 677 0044 BDE8F081 		pop	{r4, r5, r6, r7, r8, pc}
 678              	.LVL60:
 679              	.L54:
  94:USBUART_Helpers.h **** 		buffer[i] = USBUARTH_GetChar();
 680              		.loc 1 94 0 discriminator 2
 681 0048 0134     		adds	r4, r4, #1
 682              	.LVL61:
 683 004a A4B2     		uxth	r4, r4
 684              	.LVL62:
 685              	.L53:
  94:USBUART_Helpers.h **** 		buffer[i] = USBUARTH_GetChar();
 686              		.loc 1 94 0 is_stmt 0 discriminator 1
 687 004c 731E     		subs	r3, r6, #1
ARM GAS  C:\Users\FRANKL~1\AppData\Local\Temp\ccPy0viy.s 			page 30


 688 004e 9C42     		cmp	r4, r3
 689 0050 E5DB     		blt	.L56
 690              	.LBE9:
 101:USBUART_Helpers.h **** 		}
 102:USBUART_Helpers.h **** 	}
 103:USBUART_Helpers.h **** 	
 104:USBUART_Helpers.h **** 	return 0;
 691              		.loc 1 104 0 is_stmt 1
 692 0052 0020     		movs	r0, #0
 105:USBUART_Helpers.h **** }
 693              		.loc 1 105 0
 694 0054 BDE8F081 		pop	{r4, r5, r6, r7, r8, pc}
 695              		.cfi_endproc
 696              	.LFE69:
 697              		.size	USBUARTH_Receive_Until, .-USBUARTH_Receive_Until
 698              		.section	.text.Setup_Selector_I2C_Struct,"ax",%progbits
 699              		.align	2
 700              		.global	Setup_Selector_I2C_Struct
 701              		.thumb
 702              		.thumb_func
 703              		.type	Setup_Selector_I2C_Struct, %function
 704              	Setup_Selector_I2C_Struct:
 705              	.LFB70:
  49:main.c        **** 	selector->write.subAddress = 1;
 706              		.loc 2 49 0
 707              		.cfi_startproc
 708              		@ args = 0, pretend = 0, frame = 0
 709              		@ frame_needed = 0, uses_anonymous_args = 0
 710              		@ link register save eliminated.
 711              	.LVL63:
  50:main.c        **** 	selector->read.subAddress = sizeof(selector->write) + 1;
 712              		.loc 2 50 0
 713 0000 0123     		movs	r3, #1
 714 0002 0370     		strb	r3, [r0]
  51:main.c        **** 	
 715              		.loc 2 51 0
 716 0004 8023     		movs	r3, #128
 717 0006 80F87F30 		strb	r3, [r0, #127]
 718              	.LVL64:
 719              	.LBB10:
  53:main.c        **** 		selector->write.data[i] = i + 6;
 720              		.loc 2 53 0
 721 000a 0023     		movs	r3, #0
 722 000c 04E0     		b	.L59
 723              	.LVL65:
 724              	.L60:
  54:main.c        **** 	}
 725              		.loc 2 54 0 discriminator 3
 726 000e C218     		adds	r2, r0, r3
 727 0010 991D     		adds	r1, r3, #6
 728 0012 5170     		strb	r1, [r2, #1]
  53:main.c        **** 		selector->write.data[i] = i + 6;
 729              		.loc 2 53 0 discriminator 3
 730 0014 0133     		adds	r3, r3, #1
 731              	.LVL66:
 732 0016 9BB2     		uxth	r3, r3
 733              	.LVL67:
ARM GAS  C:\Users\FRANKL~1\AppData\Local\Temp\ccPy0viy.s 			page 31


 734              	.L59:
  53:main.c        **** 		selector->write.data[i] = i + 6;
 735              		.loc 2 53 0 is_stmt 0 discriminator 1
 736 0018 7D2B     		cmp	r3, #125
 737 001a F8D9     		bls	.L60
 738 001c 0023     		movs	r3, #0
 739              	.LVL68:
 740 001e 05E0     		b	.L61
 741              	.LVL69:
 742              	.L62:
 743              	.LBE10:
 744              	.LBB11:
  57:main.c        **** 	}
 745              		.loc 2 57 0 is_stmt 1 discriminator 3
 746 0020 C218     		adds	r2, r0, r3
 747 0022 BE21     		movs	r1, #190
 748 0024 82F88010 		strb	r1, [r2, #128]
  56:main.c        **** 		selector->read.data[i] = 0xbe;
 749              		.loc 2 56 0 discriminator 3
 750 0028 0133     		adds	r3, r3, #1
 751              	.LVL70:
 752 002a 9BB2     		uxth	r3, r3
 753              	.LVL71:
 754              	.L61:
  56:main.c        **** 		selector->read.data[i] = 0xbe;
 755              		.loc 2 56 0 is_stmt 0 discriminator 1
 756 002c 7D2B     		cmp	r3, #125
 757 002e F7D9     		bls	.L62
 758              	.LBE11:
  59:main.c        **** 
 759              		.loc 2 59 0 is_stmt 1
 760 0030 7047     		bx	lr
 761              		.cfi_endproc
 762              	.LFE70:
 763              		.size	Setup_Selector_I2C_Struct, .-Setup_Selector_I2C_Struct
 764              		.global	__aeabi_dcmpge
 765              		.global	__aeabi_ui2d
 766              		.global	__aeabi_dcmplt
 767 0032 00BF     		.section	.text.Update_Selector,"ax",%progbits
 768              		.align	2
 769              		.global	Update_Selector
 770              		.thumb
 771              		.thumb_func
 772              		.type	Update_Selector, %function
 773              	Update_Selector:
 774              	.LFB71:
  61:main.c        **** 	sprintf(TransmitBuffer, "Updating Selector %u\r\n", selectori + 1);
 775              		.loc 2 61 0
 776              		.cfi_startproc
 777              		@ args = 0, pretend = 0, frame = 0
 778              		@ frame_needed = 0, uses_anonymous_args = 0
 779              	.LVL72:
 780 0000 2DE9F041 		push	{r4, r5, r6, r7, r8, lr}
 781              		.cfi_def_cfa_offset 24
 782              		.cfi_offset 4, -24
 783              		.cfi_offset 5, -20
 784              		.cfi_offset 6, -16
ARM GAS  C:\Users\FRANKL~1\AppData\Local\Temp\ccPy0viy.s 			page 32


 785              		.cfi_offset 7, -12
 786              		.cfi_offset 8, -8
 787              		.cfi_offset 14, -4
 788 0004 0446     		mov	r4, r0
  62:main.c        **** 	USBUARTH_Send(TransmitBuffer, strlen(TransmitBuffer));
 789              		.loc 2 62 0
 790 0006 00F10108 		add	r8, r0, #1
 791 000a 594D     		ldr	r5, .L74+16
 792 000c 4246     		mov	r2, r8
 793 000e 5949     		ldr	r1, .L74+20
 794 0010 2846     		mov	r0, r5
 795              	.LVL73:
 796 0012 FFF7FEFF 		bl	sprintf
 797              	.LVL74:
  63:main.c        **** 	UART_1_PutString(TransmitBuffer);
 798              		.loc 2 63 0
 799 0016 2846     		mov	r0, r5
 800 0018 FFF7FEFF 		bl	strlen
 801              	.LVL75:
 802 001c 81B2     		uxth	r1, r0
 803 001e 2846     		mov	r0, r5
 804 0020 FFF7FEFF 		bl	USBUARTH_Send
 805              	.LVL76:
  64:main.c        **** 	
 806              		.loc 2 64 0
 807 0024 2846     		mov	r0, r5
 808 0026 FFF7FEFF 		bl	UART_1_PutString
 809              	.LVL77:
  68:main.c        **** 	I2C_1_MasterWriteBuf(selector->busAddress, (uint8 *) &selector->write, sizeof(selector->write), I2
 810              		.loc 2 68 0
 811 002a FFF7FEFF 		bl	I2C_1_MasterClearStatus
 812              	.LVL78:
  69:main.c        **** 	for (uint32 i = 0; i < 4e5; i++) {
 813              		.loc 2 69 0
 814 002e C4EB0424 		rsb	r4, r4, r4, lsl #8
 815              	.LVL79:
 816 0032 514B     		ldr	r3, .L74+24
 817 0034 1C44     		add	r4, r4, r3
 818 0036 0023     		movs	r3, #0
 819 0038 7F22     		movs	r2, #127
 820 003a 2146     		mov	r1, r4
 821 003c 94F8FE00 		ldrb	r0, [r4, #254]	@ zero_extendqisi2
 822 0040 FFF7FEFF 		bl	I2C_1_MasterWriteBuf
 823              	.LVL80:
 824              	.LBB12:
  70:main.c        **** 		if ((I2C_1_MasterStatus() & I2C_1_MSTAT_WR_CMPLT)) break;
 825              		.loc 2 70 0
 826 0044 0024     		movs	r4, #0
 827 0046 2CE0     		b	.L64
 828              	.LVL81:
 829              	.L69:
  71:main.c        **** 		if (i >= 4e5 - 1) {
 830              		.loc 2 71 0
 831 0048 FFF7FEFF 		bl	I2C_1_MasterStatus
 832              	.LVL82:
 833 004c 10F0020F 		tst	r0, #2
 834 0050 33D1     		bne	.L65
ARM GAS  C:\Users\FRANKL~1\AppData\Local\Temp\ccPy0viy.s 			page 33


  72:main.c        **** 			sprintf(TransmitBuffer, "I2C Transfer Error! Type: Timeout\r\n");
 835              		.loc 2 72 0
 836 0052 43A3     		adr	r3, .L74
 837 0054 D3E90023 		ldrd	r2, [r3]
 838 0058 3046     		mov	r0, r6
 839 005a 3946     		mov	r1, r7
 840 005c FFF7FEFF 		bl	__aeabi_dcmpge
 841              	.LVL83:
 842 0060 F0B1     		cbz	r0, .L66
  73:main.c        **** 			USBUARTH_Send(TransmitBuffer, strlen(TransmitBuffer));
 843              		.loc 2 73 0
 844 0062 464F     		ldr	r7, .L74+28
 845 0064 424D     		ldr	r5, .L74+16
 846 0066 07F1200E 		add	lr, r7, #32
 847              	.L68:
 848 006a 3E46     		mov	r6, r7
 849 006c 0FCE     		ldmia	r6!, {r0, r1, r2, r3}
 850 006e 2860     		str	r0, [r5]	@ unaligned
 851 0070 6960     		str	r1, [r5, #4]	@ unaligned
 852 0072 AA60     		str	r2, [r5, #8]	@ unaligned
 853 0074 EB60     		str	r3, [r5, #12]	@ unaligned
 854 0076 3746     		mov	r7, r6
 855 0078 1035     		adds	r5, r5, #16
 856 007a 7645     		cmp	r6, lr
 857 007c F5D1     		bne	.L68
 858 007e 3068     		ldr	r0, [r6]	@ unaligned
 859 0080 2860     		str	r0, [r5]	@ unaligned
  74:main.c        **** 			UART_1_PutString(TransmitBuffer);
 860              		.loc 2 74 0
 861 0082 3B4D     		ldr	r5, .L74+16
 862 0084 2846     		mov	r0, r5
 863 0086 FFF7FEFF 		bl	strlen
 864              	.LVL84:
 865 008a 81B2     		uxth	r1, r0
 866 008c 2846     		mov	r0, r5
 867 008e FFF7FEFF 		bl	USBUARTH_Send
 868              	.LVL85:
  75:main.c        **** 			I2C_1_Stop();
 869              		.loc 2 75 0
 870 0092 2846     		mov	r0, r5
 871 0094 FFF7FEFF 		bl	UART_1_PutString
 872              	.LVL86:
  76:main.c        **** 			I2C_1_Start();
 873              		.loc 2 76 0
 874 0098 FFF7FEFF 		bl	I2C_1_Stop
 875              	.LVL87:
  77:main.c        **** 		}
 876              		.loc 2 77 0
 877 009c FFF7FEFF 		bl	I2C_1_Start
 878              	.LVL88:
 879              	.L66:
  70:main.c        **** 		if ((I2C_1_MasterStatus() & I2C_1_MSTAT_WR_CMPLT)) break;
 880              		.loc 2 70 0 discriminator 2
 881 00a0 0134     		adds	r4, r4, #1
 882              	.LVL89:
 883              	.L64:
  70:main.c        **** 		if ((I2C_1_MasterStatus() & I2C_1_MSTAT_WR_CMPLT)) break;
ARM GAS  C:\Users\FRANKL~1\AppData\Local\Temp\ccPy0viy.s 			page 34


 884              		.loc 2 70 0 is_stmt 0 discriminator 1
 885 00a2 2046     		mov	r0, r4
 886 00a4 FFF7FEFF 		bl	__aeabi_ui2d
 887              	.LVL90:
 888 00a8 0646     		mov	r6, r0
 889 00aa 0F46     		mov	r7, r1
 890 00ac 2EA3     		adr	r3, .L74+8
 891 00ae D3E90023 		ldrd	r2, [r3]
 892 00b2 FFF7FEFF 		bl	__aeabi_dcmplt
 893              	.LVL91:
 894 00b6 0028     		cmp	r0, #0
 895 00b8 C6D1     		bne	.L69
 896              	.L65:
 897              	.LBE12:
  92:main.c        **** 		sprintf(TransmitBuffer, "I2C Transfer Error! ");
 898              		.loc 2 92 0 is_stmt 1
 899 00ba FFF7FEFF 		bl	I2C_1_MasterStatus
 900              	.LVL92:
 901 00be 10F0800F 		tst	r0, #128
 902 00c2 39D0     		beq	.L70
  93:main.c        **** 		USBUARTH_Send(TransmitBuffer, strlen(TransmitBuffer));
 903              		.loc 2 93 0
 904 00c4 2A4C     		ldr	r4, .L74+16
 905              	.LVL93:
 906 00c6 2E4D     		ldr	r5, .L74+32
 907 00c8 0FCD     		ldmia	r5!, {r0, r1, r2, r3}
 908 00ca 2060     		str	r0, [r4]	@ unaligned
 909 00cc 6160     		str	r1, [r4, #4]	@ unaligned
 910 00ce A260     		str	r2, [r4, #8]	@ unaligned
 911 00d0 E360     		str	r3, [r4, #12]	@ unaligned
 912 00d2 2868     		ldr	r0, [r5]	@ unaligned
 913 00d4 2061     		str	r0, [r4, #16]	@ unaligned
 914 00d6 2B79     		ldrb	r3, [r5, #4]	@ zero_extendqisi2
 915 00d8 2375     		strb	r3, [r4, #20]
  94:main.c        **** 		UART_1_PutString(TransmitBuffer);
 916              		.loc 2 94 0
 917 00da 2046     		mov	r0, r4
 918 00dc FFF7FEFF 		bl	strlen
 919              	.LVL94:
 920 00e0 81B2     		uxth	r1, r0
 921 00e2 2046     		mov	r0, r4
 922 00e4 FFF7FEFF 		bl	USBUARTH_Send
 923              	.LVL95:
  95:main.c        **** 		
 924              		.loc 2 95 0
 925 00e8 2046     		mov	r0, r4
 926 00ea FFF7FEFF 		bl	UART_1_PutString
 927              	.LVL96:
  97:main.c        **** 			sprintf(TransmitBuffer, "Type: NAK");
 928              		.loc 2 97 0
 929 00ee FFF7FEFF 		bl	I2C_1_MasterStatus
 930              	.LVL97:
 931 00f2 10F0200F 		tst	r0, #32
 932 00f6 0FD0     		beq	.L71
  98:main.c        **** 			USBUARTH_Send(TransmitBuffer, strlen(TransmitBuffer));
 933              		.loc 2 98 0
 934 00f8 224B     		ldr	r3, .L74+36
ARM GAS  C:\Users\FRANKL~1\AppData\Local\Temp\ccPy0viy.s 			page 35


 935 00fa 03CB     		ldmia	r3!, {r0, r1}
 936 00fc 2060     		str	r0, [r4]	@ unaligned
 937 00fe 6160     		str	r1, [r4, #4]	@ unaligned
 938 0100 1B88     		ldrh	r3, [r3]	@ unaligned
 939 0102 2381     		strh	r3, [r4, #8]	@ unaligned
  99:main.c        **** 			UART_1_PutString(TransmitBuffer);
 940              		.loc 2 99 0
 941 0104 2046     		mov	r0, r4
 942 0106 FFF7FEFF 		bl	strlen
 943              	.LVL98:
 944 010a 81B2     		uxth	r1, r0
 945 010c 2046     		mov	r0, r4
 946 010e FFF7FEFF 		bl	USBUARTH_Send
 947              	.LVL99:
 100:main.c        **** 		}
 948              		.loc 2 100 0
 949 0112 2046     		mov	r0, r4
 950 0114 FFF7FEFF 		bl	UART_1_PutString
 951              	.LVL100:
 952              	.L71:
 103:main.c        **** 		USBUARTH_Send(TransmitBuffer, strlen(TransmitBuffer));
 953              		.loc 2 103 0
 954 0118 154C     		ldr	r4, .L74+16
 955 011a 1B4B     		ldr	r3, .L74+40
 956 011c 1A88     		ldrh	r2, [r3]	@ unaligned
 957 011e 9B78     		ldrb	r3, [r3, #2]	@ zero_extendqisi2
 958 0120 2280     		strh	r2, [r4]	@ unaligned
 959 0122 A370     		strb	r3, [r4, #2]
 104:main.c        **** 		UART_1_PutString(TransmitBuffer);
 960              		.loc 2 104 0
 961 0124 2046     		mov	r0, r4
 962 0126 FFF7FEFF 		bl	strlen
 963              	.LVL101:
 964 012a 81B2     		uxth	r1, r0
 965 012c 2046     		mov	r0, r4
 966 012e FFF7FEFF 		bl	USBUARTH_Send
 967              	.LVL102:
 105:main.c        **** 	}
 968              		.loc 2 105 0
 969 0132 2046     		mov	r0, r4
 970 0134 FFF7FEFF 		bl	UART_1_PutString
 971              	.LVL103:
 972              	.L70:
 108:main.c        **** 	USBUARTH_Send(TransmitBuffer, strlen(TransmitBuffer));
 973              		.loc 2 108 0
 974 0138 0D4C     		ldr	r4, .L74+16
 975 013a 4246     		mov	r2, r8
 976 013c 1349     		ldr	r1, .L74+44
 977 013e 2046     		mov	r0, r4
 978 0140 FFF7FEFF 		bl	sprintf
 979              	.LVL104:
 109:main.c        **** 	UART_1_PutString(TransmitBuffer);
 980              		.loc 2 109 0
 981 0144 2046     		mov	r0, r4
 982 0146 FFF7FEFF 		bl	strlen
 983              	.LVL105:
 984 014a 81B2     		uxth	r1, r0
ARM GAS  C:\Users\FRANKL~1\AppData\Local\Temp\ccPy0viy.s 			page 36


 985 014c 2046     		mov	r0, r4
 986 014e FFF7FEFF 		bl	USBUARTH_Send
 987              	.LVL106:
 110:main.c        **** }
 988              		.loc 2 110 0
 989 0152 2046     		mov	r0, r4
 990 0154 FFF7FEFF 		bl	UART_1_PutString
 991              	.LVL107:
 992 0158 BDE8F081 		pop	{r4, r5, r6, r7, r8, pc}
 993              	.LVL108:
 994              	.L75:
 995 015c AFF30080 		.align	3
 996              	.L74:
 997 0160 00000000 		.word	0
 998 0164 FC691841 		.word	1092119036
 999 0168 00000000 		.word	0
 1000 016c 006A1841 		.word	1092119040
 1001 0170 00000000 		.word	TransmitBuffer
 1002 0174 2C000000 		.word	.LC5
 1003 0178 00000000 		.word	selectors
 1004 017c 44000000 		.word	.LC6
 1005 0180 68000000 		.word	.LC7
 1006 0184 80000000 		.word	.LC8
 1007 0188 8C000000 		.word	.LC9
 1008 018c 90000000 		.word	.LC10
 1009              		.cfi_endproc
 1010              	.LFE71:
 1011              		.size	Update_Selector, .-Update_Selector
 1012              		.global	__aeabi_ui2f
 1013              		.global	__aeabi_fdiv
 1014              		.global	__aeabi_i2f
 1015              		.global	__aeabi_fmul
 1016              		.global	__aeabi_fadd
 1017              		.global	__aeabi_f2iz
 1018              		.global	__aeabi_fsub
 1019              		.section	.text.ADC_Measure_uV,"ax",%progbits
 1020              		.align	2
 1021              		.global	ADC_Measure_uV
 1022              		.thumb
 1023              		.thumb_func
 1024              		.type	ADC_Measure_uV, %function
 1025              	ADC_Measure_uV:
 1026              	.LFB72:
 114:main.c        **** 	int32 ADC_Result = 0;
 1027              		.loc 2 114 0
 1028              		.cfi_startproc
 1029              		@ args = 0, pretend = 0, frame = 8
 1030              		@ frame_needed = 0, uses_anonymous_args = 0
 1031              	.LVL109:
 1032 0000 2DE9F04F 		push	{r4, r5, r6, r7, r8, r9, r10, fp, lr}
 1033              		.cfi_def_cfa_offset 36
 1034              		.cfi_offset 4, -36
 1035              		.cfi_offset 5, -32
 1036              		.cfi_offset 6, -28
 1037              		.cfi_offset 7, -24
 1038              		.cfi_offset 8, -20
 1039              		.cfi_offset 9, -16
ARM GAS  C:\Users\FRANKL~1\AppData\Local\Temp\ccPy0viy.s 			page 37


 1040              		.cfi_offset 10, -12
 1041              		.cfi_offset 11, -8
 1042              		.cfi_offset 14, -4
 1043 0004 83B0     		sub	sp, sp, #12
 1044              		.cfi_def_cfa_offset 48
 1045 0006 0090     		str	r0, [sp]
 1046 0008 0191     		str	r1, [sp, #4]
 1047 000a 9346     		mov	fp, r2
 1048              	.LVL110:
 1049              	.LBB13:
 118:main.c        **** 		ADC_DelSig_1_StartConvert();
 1050              		.loc 2 118 0
 1051 000c 0124     		movs	r4, #1
 1052              	.LBE13:
 116:main.c        **** 	
 1053              		.loc 2 116 0
 1054 000e 4FF00009 		mov	r9, #0
 115:main.c        **** 	int32 ADC_SD = 0;
 1055              		.loc 2 115 0
 1056 0012 4D46     		mov	r5, r9
 1057              	.LBB15:
 118:main.c        **** 		ADC_DelSig_1_StartConvert();
 1058              		.loc 2 118 0
 1059 0014 45E0     		b	.L77
 1060              	.LVL111:
 1061              	.L79:
 1062              	.LBB14:
 119:main.c        **** 		while (!ADC_DelSig_1_IsEndConversion(ADC_DelSig_1_RETURN_STATUS));
 1063              		.loc 2 119 0
 1064 0016 FFF7FEFF 		bl	ADC_DelSig_1_StartConvert
 1065              	.LVL112:
 1066              	.L78:
 120:main.c        **** 		//int16 ADC_Result = ADC_DelSig_1_CountsTo_mVolts(ADC_DelSig_1_GetResult16());
 1067              		.loc 2 120 0 discriminator 1
 1068 001a 0120     		movs	r0, #1
 1069 001c FFF7FEFF 		bl	ADC_DelSig_1_IsEndConversion
 1070              	.LVL113:
 1071 0020 0028     		cmp	r0, #0
 1072 0022 FAD0     		beq	.L78
 122:main.c        **** 		
 1073              		.loc 2 122 0 discriminator 2
 1074 0024 FFF7FEFF 		bl	ADC_DelSig_1_GetResult32
 1075              	.LVL114:
 1076 0028 FFF7FEFF 		bl	ADC_DelSig_1_CountsTo_uVolts
 1077              	.LVL115:
 1078 002c 0746     		mov	r7, r0
 1079              	.LVL116:
 124:main.c        **** 		ADC_Result += ((float)ADC_Result_Current - (float)ADC_Result)/(float)i;
 1080              		.loc 2 124 0 discriminator 2
 1081 002e 601E     		subs	r0, r4, #1
 1082              	.LVL117:
 1083 0030 FFF7FEFF 		bl	__aeabi_ui2f
 1084              	.LVL118:
 1085 0034 8046     		mov	r8, r0
 1086 0036 2046     		mov	r0, r4
 1087 0038 FFF7FEFF 		bl	__aeabi_ui2f
 1088              	.LVL119:
ARM GAS  C:\Users\FRANKL~1\AppData\Local\Temp\ccPy0viy.s 			page 38


 1089 003c 0646     		mov	r6, r0
 1090 003e 0146     		mov	r1, r0
 1091 0040 4046     		mov	r0, r8
 1092 0042 FFF7FEFF 		bl	__aeabi_fdiv
 1093              	.LVL120:
 1094 0046 8246     		mov	r10, r0
 1095 0048 781B     		subs	r0, r7, r5
 1096 004a FFF7FEFF 		bl	__aeabi_i2f
 1097              	.LVL121:
 1098 004e 8046     		mov	r8, r0
 1099 0050 0146     		mov	r1, r0
 1100 0052 5046     		mov	r0, r10
 1101 0054 FFF7FEFF 		bl	__aeabi_fmul
 1102              	.LVL122:
 1103 0058 0146     		mov	r1, r0
 1104 005a 4046     		mov	r0, r8
 1105 005c FFF7FEFF 		bl	__aeabi_fmul
 1106              	.LVL123:
 1107 0060 8046     		mov	r8, r0
 1108 0062 4846     		mov	r0, r9
 1109 0064 FFF7FEFF 		bl	__aeabi_i2f
 1110              	.LVL124:
 1111 0068 4146     		mov	r1, r8
 1112 006a FFF7FEFF 		bl	__aeabi_fadd
 1113              	.LVL125:
 1114 006e FFF7FEFF 		bl	__aeabi_f2iz
 1115              	.LVL126:
 1116 0072 8146     		mov	r9, r0
 1117              	.LVL127:
 125:main.c        **** 	}
 1118              		.loc 2 125 0 discriminator 2
 1119 0074 3846     		mov	r0, r7
 1120              	.LVL128:
 1121 0076 FFF7FEFF 		bl	__aeabi_i2f
 1122              	.LVL129:
 1123 007a 0746     		mov	r7, r0
 1124              	.LVL130:
 1125 007c 2846     		mov	r0, r5
 1126 007e FFF7FEFF 		bl	__aeabi_i2f
 1127              	.LVL131:
 1128 0082 0546     		mov	r5, r0
 1129              	.LVL132:
 1130 0084 0146     		mov	r1, r0
 1131 0086 3846     		mov	r0, r7
 1132 0088 FFF7FEFF 		bl	__aeabi_fsub
 1133              	.LVL133:
 1134 008c 3146     		mov	r1, r6
 1135 008e FFF7FEFF 		bl	__aeabi_fdiv
 1136              	.LVL134:
 1137 0092 0146     		mov	r1, r0
 1138 0094 2846     		mov	r0, r5
 1139 0096 FFF7FEFF 		bl	__aeabi_fadd
 1140              	.LVL135:
 1141 009a FFF7FEFF 		bl	__aeabi_f2iz
 1142              	.LVL136:
 1143 009e 0546     		mov	r5, r0
 1144              	.LVL137:
ARM GAS  C:\Users\FRANKL~1\AppData\Local\Temp\ccPy0viy.s 			page 39


 1145              	.LBE14:
 118:main.c        **** 		ADC_DelSig_1_StartConvert();
 1146              		.loc 2 118 0 discriminator 2
 1147 00a0 0134     		adds	r4, r4, #1
 1148              	.LVL138:
 1149              	.L77:
 118:main.c        **** 		ADC_DelSig_1_StartConvert();
 1150              		.loc 2 118 0 is_stmt 0 discriminator 1
 1151 00a2 5C45     		cmp	r4, fp
 1152 00a4 B7D3     		bcc	.L79
 1153              	.LBE15:
 128:main.c        **** 	*standardDeviation = ADC_SD;
 1154              		.loc 2 128 0 is_stmt 1
 1155 00a6 009B     		ldr	r3, [sp]
 1156 00a8 1D60     		str	r5, [r3]
 129:main.c        **** }
 1157              		.loc 2 129 0
 1158 00aa 019B     		ldr	r3, [sp, #4]
 1159 00ac C3F80090 		str	r9, [r3]
 130:main.c        **** 
 1160              		.loc 2 130 0
 1161 00b0 03B0     		add	sp, sp, #12
 1162              		.cfi_def_cfa_offset 36
 1163              	.LVL139:
 1164              		@ sp needed
 1165 00b2 BDE8F08F 		pop	{r4, r5, r6, r7, r8, r9, r10, fp, pc}
 1166              		.cfi_endproc
 1167              	.LFE72:
 1168              		.size	ADC_Measure_uV, .-ADC_Measure_uV
 1169 00b6 00BF     		.section	.text.SAR1_Measure_V,"ax",%progbits
 1170              		.align	2
 1171              		.global	SAR1_Measure_V
 1172              		.thumb
 1173              		.thumb_func
 1174              		.type	SAR1_Measure_V, %function
 1175              	SAR1_Measure_V:
 1176              	.LFB73:
 132:main.c        **** 	float SAR_Result = 0;
 1177              		.loc 2 132 0
 1178              		.cfi_startproc
 1179              		@ args = 0, pretend = 0, frame = 8
 1180              		@ frame_needed = 0, uses_anonymous_args = 0
 1181              	.LVL140:
 1182 0000 2DE9F04F 		push	{r4, r5, r6, r7, r8, r9, r10, fp, lr}
 1183              		.cfi_def_cfa_offset 36
 1184              		.cfi_offset 4, -36
 1185              		.cfi_offset 5, -32
 1186              		.cfi_offset 6, -28
 1187              		.cfi_offset 7, -24
 1188              		.cfi_offset 8, -20
 1189              		.cfi_offset 9, -16
 1190              		.cfi_offset 10, -12
 1191              		.cfi_offset 11, -8
 1192              		.cfi_offset 14, -4
 1193 0004 83B0     		sub	sp, sp, #12
 1194              		.cfi_def_cfa_offset 48
 1195 0006 8346     		mov	fp, r0
ARM GAS  C:\Users\FRANKL~1\AppData\Local\Temp\ccPy0viy.s 			page 40


 1196 0008 0191     		str	r1, [sp, #4]
 1197 000a 9246     		mov	r10, r2
 1198              	.LVL141:
 1199              	.LBB16:
 136:main.c        **** 		ADC_SAR_1_StartConvert();
 1200              		.loc 2 136 0
 1201 000c 0124     		movs	r4, #1
 1202              	.LBE16:
 134:main.c        **** 	
 1203              		.loc 2 134 0
 1204 000e 4FF00008 		mov	r8, #0
 133:main.c        **** 	float SAR_SD = 0;
 1205              		.loc 2 133 0
 1206 0012 4646     		mov	r6, r8
 1207              	.LBB18:
 136:main.c        **** 		ADC_SAR_1_StartConvert();
 1208              		.loc 2 136 0
 1209 0014 34E0     		b	.L82
 1210              	.LVL142:
 1211              	.L84:
 1212              	.LBB17:
 137:main.c        **** 		while (!ADC_SAR_1_IsEndConversion(ADC_SAR_1_RETURN_STATUS));
 1213              		.loc 2 137 0
 1214 0016 FFF7FEFF 		bl	ADC_SAR_1_StartConvert
 1215              	.LVL143:
 1216              	.L83:
 138:main.c        **** 		
 1217              		.loc 2 138 0 discriminator 1
 1218 001a 0120     		movs	r0, #1
 1219 001c FFF7FEFF 		bl	ADC_SAR_1_IsEndConversion
 1220              	.LVL144:
 1221 0020 0028     		cmp	r0, #0
 1222 0022 FAD0     		beq	.L83
 140:main.c        **** 		
 1223              		.loc 2 140 0 discriminator 2
 1224 0024 FFF7FEFF 		bl	ADC_SAR_1_GetResult16
 1225              	.LVL145:
 1226 0028 FFF7FEFF 		bl	ADC_SAR_1_CountsTo_Volts
 1227              	.LVL146:
 1228 002c 0546     		mov	r5, r0
 1229              	.LVL147:
 142:main.c        **** 		SAR_Result += ((float)SAR1_Result_Current - (float)SAR_Result)/(float)i;
 1230              		.loc 2 142 0 discriminator 2
 1231 002e 601E     		subs	r0, r4, #1
 1232              	.LVL148:
 1233 0030 FFF7FEFF 		bl	__aeabi_ui2f
 1234              	.LVL149:
 1235 0034 8146     		mov	r9, r0
 1236 0036 2046     		mov	r0, r4
 1237 0038 FFF7FEFF 		bl	__aeabi_ui2f
 1238              	.LVL150:
 1239 003c 0746     		mov	r7, r0
 1240 003e 0146     		mov	r1, r0
 1241 0040 4846     		mov	r0, r9
 1242 0042 FFF7FEFF 		bl	__aeabi_fdiv
 1243              	.LVL151:
 1244 0046 8146     		mov	r9, r0
ARM GAS  C:\Users\FRANKL~1\AppData\Local\Temp\ccPy0viy.s 			page 41


 1245 0048 3146     		mov	r1, r6
 1246 004a 2846     		mov	r0, r5
 1247 004c FFF7FEFF 		bl	__aeabi_fsub
 1248              	.LVL152:
 1249 0050 0546     		mov	r5, r0
 1250              	.LVL153:
 1251 0052 0146     		mov	r1, r0
 1252 0054 4846     		mov	r0, r9
 1253 0056 FFF7FEFF 		bl	__aeabi_fmul
 1254              	.LVL154:
 1255 005a 0146     		mov	r1, r0
 1256 005c 2846     		mov	r0, r5
 1257 005e FFF7FEFF 		bl	__aeabi_fmul
 1258              	.LVL155:
 1259 0062 0146     		mov	r1, r0
 1260 0064 4046     		mov	r0, r8
 1261 0066 FFF7FEFF 		bl	__aeabi_fadd
 1262              	.LVL156:
 1263 006a 8046     		mov	r8, r0
 1264              	.LVL157:
 143:main.c        **** 	}
 1265              		.loc 2 143 0 discriminator 2
 1266 006c 3946     		mov	r1, r7
 1267 006e 2846     		mov	r0, r5
 1268              	.LVL158:
 1269 0070 FFF7FEFF 		bl	__aeabi_fdiv
 1270              	.LVL159:
 1271 0074 0146     		mov	r1, r0
 1272 0076 3046     		mov	r0, r6
 1273 0078 FFF7FEFF 		bl	__aeabi_fadd
 1274              	.LVL160:
 1275 007c 0646     		mov	r6, r0
 1276              	.LVL161:
 1277              	.LBE17:
 136:main.c        **** 		ADC_SAR_1_StartConvert();
 1278              		.loc 2 136 0 discriminator 2
 1279 007e 0134     		adds	r4, r4, #1
 1280              	.LVL162:
 1281              	.L82:
 136:main.c        **** 		ADC_SAR_1_StartConvert();
 1282              		.loc 2 136 0 is_stmt 0 discriminator 1
 1283 0080 5445     		cmp	r4, r10
 1284 0082 C8D3     		bcc	.L84
 1285              	.LBE18:
 146:main.c        **** 	*standardDeviation = SAR_SD;
 1286              		.loc 2 146 0 is_stmt 1
 1287 0084 CBF80060 		str	r6, [fp]	@ float
 147:main.c        **** }
 1288              		.loc 2 147 0
 1289 0088 019B     		ldr	r3, [sp, #4]
 1290 008a C3F80080 		str	r8, [r3]	@ float
 148:main.c        **** 
 1291              		.loc 2 148 0
 1292 008e 03B0     		add	sp, sp, #12
 1293              		.cfi_def_cfa_offset 36
 1294              		@ sp needed
 1295 0090 BDE8F08F 		pop	{r4, r5, r6, r7, r8, r9, r10, fp, pc}
ARM GAS  C:\Users\FRANKL~1\AppData\Local\Temp\ccPy0viy.s 			page 42


 1296              		.cfi_endproc
 1297              	.LFE73:
 1298              		.size	SAR1_Measure_V, .-SAR1_Measure_V
 1299              		.section	.text.SAR2_Measure_V,"ax",%progbits
 1300              		.align	2
 1301              		.global	SAR2_Measure_V
 1302              		.thumb
 1303              		.thumb_func
 1304              		.type	SAR2_Measure_V, %function
 1305              	SAR2_Measure_V:
 1306              	.LFB74:
 150:main.c        **** 	float SAR_Result = 0;
 1307              		.loc 2 150 0
 1308              		.cfi_startproc
 1309              		@ args = 0, pretend = 0, frame = 8
 1310              		@ frame_needed = 0, uses_anonymous_args = 0
 1311              	.LVL163:
 1312 0000 2DE9F04F 		push	{r4, r5, r6, r7, r8, r9, r10, fp, lr}
 1313              		.cfi_def_cfa_offset 36
 1314              		.cfi_offset 4, -36
 1315              		.cfi_offset 5, -32
 1316              		.cfi_offset 6, -28
 1317              		.cfi_offset 7, -24
 1318              		.cfi_offset 8, -20
 1319              		.cfi_offset 9, -16
 1320              		.cfi_offset 10, -12
 1321              		.cfi_offset 11, -8
 1322              		.cfi_offset 14, -4
 1323 0004 83B0     		sub	sp, sp, #12
 1324              		.cfi_def_cfa_offset 48
 1325 0006 8346     		mov	fp, r0
 1326 0008 0191     		str	r1, [sp, #4]
 1327 000a 9246     		mov	r10, r2
 1328              	.LVL164:
 1329              	.LBB19:
 154:main.c        **** 		ADC_SAR_2_StartConvert();
 1330              		.loc 2 154 0
 1331 000c 0124     		movs	r4, #1
 1332              	.LBE19:
 152:main.c        **** 	
 1333              		.loc 2 152 0
 1334 000e 4FF00008 		mov	r8, #0
 151:main.c        **** 	float SAR_SD = 0;
 1335              		.loc 2 151 0
 1336 0012 4646     		mov	r6, r8
 1337              	.LBB21:
 154:main.c        **** 		ADC_SAR_2_StartConvert();
 1338              		.loc 2 154 0
 1339 0014 34E0     		b	.L87
 1340              	.LVL165:
 1341              	.L89:
 1342              	.LBB20:
 155:main.c        **** 		while (!ADC_SAR_2_IsEndConversion(ADC_SAR_2_RETURN_STATUS));
 1343              		.loc 2 155 0
 1344 0016 FFF7FEFF 		bl	ADC_SAR_2_StartConvert
 1345              	.LVL166:
 1346              	.L88:
ARM GAS  C:\Users\FRANKL~1\AppData\Local\Temp\ccPy0viy.s 			page 43


 156:main.c        **** 		
 1347              		.loc 2 156 0 discriminator 1
 1348 001a 0120     		movs	r0, #1
 1349 001c FFF7FEFF 		bl	ADC_SAR_2_IsEndConversion
 1350              	.LVL167:
 1351 0020 0028     		cmp	r0, #0
 1352 0022 FAD0     		beq	.L88
 158:main.c        **** 		
 1353              		.loc 2 158 0 discriminator 2
 1354 0024 FFF7FEFF 		bl	ADC_SAR_2_GetResult16
 1355              	.LVL168:
 1356 0028 FFF7FEFF 		bl	ADC_SAR_2_CountsTo_Volts
 1357              	.LVL169:
 1358 002c 0546     		mov	r5, r0
 1359              	.LVL170:
 160:main.c        **** 		SAR_Result += ((float)SAR2_Result_Current - (float)SAR_Result)/(float)i;
 1360              		.loc 2 160 0 discriminator 2
 1361 002e 601E     		subs	r0, r4, #1
 1362              	.LVL171:
 1363 0030 FFF7FEFF 		bl	__aeabi_ui2f
 1364              	.LVL172:
 1365 0034 8146     		mov	r9, r0
 1366 0036 2046     		mov	r0, r4
 1367 0038 FFF7FEFF 		bl	__aeabi_ui2f
 1368              	.LVL173:
 1369 003c 0746     		mov	r7, r0
 1370 003e 0146     		mov	r1, r0
 1371 0040 4846     		mov	r0, r9
 1372 0042 FFF7FEFF 		bl	__aeabi_fdiv
 1373              	.LVL174:
 1374 0046 8146     		mov	r9, r0
 1375 0048 3146     		mov	r1, r6
 1376 004a 2846     		mov	r0, r5
 1377 004c FFF7FEFF 		bl	__aeabi_fsub
 1378              	.LVL175:
 1379 0050 0546     		mov	r5, r0
 1380              	.LVL176:
 1381 0052 0146     		mov	r1, r0
 1382 0054 4846     		mov	r0, r9
 1383 0056 FFF7FEFF 		bl	__aeabi_fmul
 1384              	.LVL177:
 1385 005a 0146     		mov	r1, r0
 1386 005c 2846     		mov	r0, r5
 1387 005e FFF7FEFF 		bl	__aeabi_fmul
 1388              	.LVL178:
 1389 0062 0146     		mov	r1, r0
 1390 0064 4046     		mov	r0, r8
 1391 0066 FFF7FEFF 		bl	__aeabi_fadd
 1392              	.LVL179:
 1393 006a 8046     		mov	r8, r0
 1394              	.LVL180:
 161:main.c        **** 	}
 1395              		.loc 2 161 0 discriminator 2
 1396 006c 3946     		mov	r1, r7
 1397 006e 2846     		mov	r0, r5
 1398              	.LVL181:
 1399 0070 FFF7FEFF 		bl	__aeabi_fdiv
ARM GAS  C:\Users\FRANKL~1\AppData\Local\Temp\ccPy0viy.s 			page 44


 1400              	.LVL182:
 1401 0074 0146     		mov	r1, r0
 1402 0076 3046     		mov	r0, r6
 1403 0078 FFF7FEFF 		bl	__aeabi_fadd
 1404              	.LVL183:
 1405 007c 0646     		mov	r6, r0
 1406              	.LVL184:
 1407              	.LBE20:
 154:main.c        **** 		ADC_SAR_2_StartConvert();
 1408              		.loc 2 154 0 discriminator 2
 1409 007e 0134     		adds	r4, r4, #1
 1410              	.LVL185:
 1411              	.L87:
 154:main.c        **** 		ADC_SAR_2_StartConvert();
 1412              		.loc 2 154 0 is_stmt 0 discriminator 1
 1413 0080 5445     		cmp	r4, r10
 1414 0082 C8D3     		bcc	.L89
 1415              	.LBE21:
 164:main.c        **** 	*standardDeviation = SAR_SD;
 1416              		.loc 2 164 0 is_stmt 1
 1417 0084 CBF80060 		str	r6, [fp]	@ float
 165:main.c        **** }
 1418              		.loc 2 165 0
 1419 0088 019B     		ldr	r3, [sp, #4]
 1420 008a C3F80080 		str	r8, [r3]	@ float
 166:main.c        **** 
 1421              		.loc 2 166 0
 1422 008e 03B0     		add	sp, sp, #12
 1423              		.cfi_def_cfa_offset 36
 1424              		@ sp needed
 1425 0090 BDE8F08F 		pop	{r4, r5, r6, r7, r8, r9, r10, fp, pc}
 1426              		.cfi_endproc
 1427              	.LFE74:
 1428              		.size	SAR2_Measure_V, .-SAR2_Measure_V
 1429              		.section	.text.Measure_Sweep,"ax",%progbits
 1430              		.align	2
 1431              		.global	Measure_Sweep
 1432              		.thumb
 1433              		.thumb_func
 1434              		.type	Measure_Sweep, %function
 1435              	Measure_Sweep:
 1436              	.LFB75:
 168:main.c        **** 	VDAC_Vds_SetValue(90);
 1437              		.loc 2 168 0
 1438              		.cfi_startproc
 1439              		@ args = 0, pretend = 0, frame = 8
 1440              		@ frame_needed = 0, uses_anonymous_args = 0
 1441 0000 30B5     		push	{r4, r5, lr}
 1442              		.cfi_def_cfa_offset 12
 1443              		.cfi_offset 4, -12
 1444              		.cfi_offset 5, -8
 1445              		.cfi_offset 14, -4
 1446 0002 83B0     		sub	sp, sp, #12
 1447              		.cfi_def_cfa_offset 24
 169:main.c        **** 	VDAC_Vgs_SetValue(254);
 1448              		.loc 2 169 0
 1449 0004 5A20     		movs	r0, #90
ARM GAS  C:\Users\FRANKL~1\AppData\Local\Temp\ccPy0viy.s 			page 45


 1450 0006 FFF7FEFF 		bl	VDAC_Vds_SetValue
 1451              	.LVL186:
 170:main.c        **** 	
 1452              		.loc 2 170 0
 1453 000a FE20     		movs	r0, #254
 1454 000c FFF7FEFF 		bl	VDAC_Vgs_SetValue
 1455              	.LVL187:
 1456              	.LBB22:
 172:main.c        **** 		int32 IdsAverage = 0;
 1457              		.loc 2 172 0
 1458 0010 0024     		movs	r4, #0
 1459 0012 1EE0     		b	.L92
 1460              	.LVL188:
 1461              	.L93:
 1462              	.LBB23:
 173:main.c        **** 		int32 IdsStandardDeviation = 0;
 1463              		.loc 2 173 0 discriminator 3
 1464 0014 0023     		movs	r3, #0
 1465 0016 0093     		str	r3, [sp]
 174:main.c        **** 		
 1466              		.loc 2 174 0 discriminator 3
 1467 0018 02AD     		add	r5, sp, #8
 1468 001a 45F8043D 		str	r3, [r5, #-4]!
 176:main.c        **** 		
 1469              		.loc 2 176 0 discriminator 3
 1470 001e E0B2     		uxtb	r0, r4
 1471 0020 FFF7FEFF 		bl	VDAC_Vgs_SetValue
 1472              	.LVL189:
 178:main.c        **** 		
 1473              		.loc 2 178 0 discriminator 3
 1474 0024 6422     		movs	r2, #100
 1475 0026 2946     		mov	r1, r5
 1476 0028 6846     		mov	r0, sp
 1477 002a FFF7FEFF 		bl	ADC_Measure_uV
 1478              	.LVL190:
 182:main.c        **** 		USBUARTH_Send(TransmitBuffer, strlen(TransmitBuffer));
 1479              		.loc 2 182 0 discriminator 3
 1480 002e 0B4D     		ldr	r5, .L95
 1481 0030 009A     		ldr	r2, [sp]
 1482 0032 0B49     		ldr	r1, .L95+4
 1483 0034 2846     		mov	r0, r5
 1484 0036 FFF7FEFF 		bl	sprintf
 1485              	.LVL191:
 183:main.c        **** 		UART_1_PutString(TransmitBuffer);
 1486              		.loc 2 183 0 discriminator 3
 1487 003a 2846     		mov	r0, r5
 1488 003c FFF7FEFF 		bl	strlen
 1489              	.LVL192:
 1490 0040 81B2     		uxth	r1, r0
 1491 0042 2846     		mov	r0, r5
 1492 0044 FFF7FEFF 		bl	USBUARTH_Send
 1493              	.LVL193:
 184:main.c        **** 	}
 1494              		.loc 2 184 0 discriminator 3
 1495 0048 2846     		mov	r0, r5
 1496 004a FFF7FEFF 		bl	UART_1_PutString
 1497              	.LVL194:
ARM GAS  C:\Users\FRANKL~1\AppData\Local\Temp\ccPy0viy.s 			page 46


 1498              	.LBE23:
 172:main.c        **** 		int32 IdsAverage = 0;
 1499              		.loc 2 172 0 discriminator 3
 1500 004e 0134     		adds	r4, r4, #1
 1501              	.LVL195:
 1502 0050 A4B2     		uxth	r4, r4
 1503              	.LVL196:
 1504              	.L92:
 172:main.c        **** 		int32 IdsAverage = 0;
 1505              		.loc 2 172 0 is_stmt 0 discriminator 1
 1506 0052 FF2C     		cmp	r4, #255
 1507 0054 DED9     		bls	.L93
 1508              	.LBE22:
 186:main.c        **** 
 1509              		.loc 2 186 0 is_stmt 1
 1510 0056 03B0     		add	sp, sp, #12
 1511              		.cfi_def_cfa_offset 12
 1512              		@ sp needed
 1513 0058 30BD     		pop	{r4, r5, pc}
 1514              	.LVL197:
 1515              	.L96:
 1516 005a 00BF     		.align	2
 1517              	.L95:
 1518 005c 00000000 		.word	TransmitBuffer
 1519 0060 A8000000 		.word	.LC11
 1520              		.cfi_endproc
 1521              	.LFE75:
 1522              		.size	Measure_Sweep, .-Measure_Sweep
 1523              		.section	.text.Setup_Selectors,"ax",%progbits
 1524              		.align	2
 1525              		.global	Setup_Selectors
 1526              		.thumb
 1527              		.thumb_func
 1528              		.type	Setup_Selectors, %function
 1529              	Setup_Selectors:
 1530              	.LFB76:
 188:main.c        **** 	for (uint8 i = 0; i < SELECTOR_COUNT; i++) Setup_Selector_I2C_Struct(&selectors[i]);
 1531              		.loc 2 188 0
 1532              		.cfi_startproc
 1533              		@ args = 0, pretend = 0, frame = 0
 1534              		@ frame_needed = 0, uses_anonymous_args = 0
 1535 0000 10B5     		push	{r4, lr}
 1536              		.cfi_def_cfa_offset 8
 1537              		.cfi_offset 4, -8
 1538              		.cfi_offset 14, -4
 1539              	.LVL198:
 1540              	.LBB24:
 189:main.c        **** 	
 1541              		.loc 2 189 0
 1542 0002 0024     		movs	r4, #0
 1543 0004 07E0     		b	.L98
 1544              	.LVL199:
 1545              	.L99:
 189:main.c        **** 	
 1546              		.loc 2 189 0 is_stmt 0 discriminator 3
 1547 0006 C4EB0423 		rsb	r3, r4, r4, lsl #8
 1548 000a 0B48     		ldr	r0, .L101
ARM GAS  C:\Users\FRANKL~1\AppData\Local\Temp\ccPy0viy.s 			page 47


 1549 000c 1844     		add	r0, r0, r3
 1550 000e FFF7FEFF 		bl	Setup_Selector_I2C_Struct
 1551              	.LVL200:
 1552 0012 0134     		adds	r4, r4, #1
 1553              	.LVL201:
 1554 0014 E4B2     		uxtb	r4, r4
 1555              	.LVL202:
 1556              	.L98:
 189:main.c        **** 	
 1557              		.loc 2 189 0 discriminator 1
 1558 0016 032C     		cmp	r4, #3
 1559 0018 F5D9     		bls	.L99
 1560              	.LBE24:
 191:main.c        **** 	selectors[1].busAddress = 0x11;
 1561              		.loc 2 191 0 is_stmt 1
 1562 001a 074B     		ldr	r3, .L101
 1563 001c 6622     		movs	r2, #102
 1564 001e 83F8FE20 		strb	r2, [r3, #254]
 192:main.c        **** 	selectors[2].busAddress = 0x44;
 1565              		.loc 2 192 0
 1566 0022 1122     		movs	r2, #17
 1567 0024 83F8FD21 		strb	r2, [r3, #509]
 193:main.c        **** 	selectors[3].busAddress = 0x22;
 1568              		.loc 2 193 0
 1569 0028 4422     		movs	r2, #68
 1570 002a 83F8FC22 		strb	r2, [r3, #764]
 194:main.c        **** }
 1571              		.loc 2 194 0
 1572 002e 2222     		movs	r2, #34
 1573 0030 83F8FB23 		strb	r2, [r3, #1019]
 1574 0034 10BD     		pop	{r4, pc}
 1575              	.LVL203:
 1576              	.L102:
 1577 0036 00BF     		.align	2
 1578              	.L101:
 1579 0038 00000000 		.word	selectors
 1580              		.cfi_endproc
 1581              	.LFE76:
 1582              		.size	Setup_Selectors, .-Setup_Selectors
 1583              		.section	.text.Connect_Channel_On_Intermediate,"ax",%progbits
 1584              		.align	2
 1585              		.global	Connect_Channel_On_Intermediate
 1586              		.thumb
 1587              		.thumb_func
 1588              		.type	Connect_Channel_On_Intermediate, %function
 1589              	Connect_Channel_On_Intermediate:
 1590              	.LFB77:
 197:main.c        **** 	channel--;
 1591              		.loc 2 197 0
 1592              		.cfi_startproc
 1593              		@ args = 0, pretend = 0, frame = 0
 1594              		@ frame_needed = 0, uses_anonymous_args = 0
 1595              	.LVL204:
 1596 0000 08B5     		push	{r3, lr}
 1597              		.cfi_def_cfa_offset 8
 1598              		.cfi_offset 3, -8
 1599              		.cfi_offset 14, -4
ARM GAS  C:\Users\FRANKL~1\AppData\Local\Temp\ccPy0viy.s 			page 48


 198:main.c        **** 	intermediate--;
 1600              		.loc 2 198 0
 1601 0002 0138     		subs	r0, r0, #1
 1602              	.LVL205:
 1603 0004 C3B2     		uxtb	r3, r0
 1604              	.LVL206:
 201:main.c        **** 	if (intermediate >= INTERMEDIATE_COUNT) return;
 1605              		.loc 2 201 0
 1606 0006 212B     		cmp	r3, #33
 1607 0008 0CD8     		bhi	.L103
 1608 000a 0139     		subs	r1, r1, #1
 1609              	.LVL207:
 1610 000c C8B2     		uxtb	r0, r1
 202:main.c        **** 	
 1611              		.loc 2 202 0
 1612 000e 0328     		cmp	r0, #3
 1613 0010 08D8     		bhi	.L103
 204:main.c        **** 	Update_Selector(intermediate);
 1614              		.loc 2 204 0
 1615 0012 C0EB0022 		rsb	r2, r0, r0, lsl #8
 1616 0016 0449     		ldr	r1, .L106
 1617 0018 0A44     		add	r2, r2, r1
 1618 001a 1344     		add	r3, r3, r2
 1619              	.LVL208:
 1620 001c C022     		movs	r2, #192
 1621 001e 5A70     		strb	r2, [r3, #1]
 205:main.c        **** }
 1622              		.loc 2 205 0
 1623 0020 FFF7FEFF 		bl	Update_Selector
 1624              	.LVL209:
 1625              	.L103:
 1626 0024 08BD     		pop	{r3, pc}
 1627              	.L107:
 1628 0026 00BF     		.align	2
 1629              	.L106:
 1630 0028 00000000 		.word	selectors
 1631              		.cfi_endproc
 1632              	.LFE77:
 1633              		.size	Connect_Channel_On_Intermediate, .-Connect_Channel_On_Intermediate
 1634              		.section	.text.Connect_Contact_To_Intermediate,"ax",%progbits
 1635              		.align	2
 1636              		.global	Connect_Contact_To_Intermediate
 1637              		.thumb
 1638              		.thumb_func
 1639              		.type	Connect_Contact_To_Intermediate, %function
 1640              	Connect_Contact_To_Intermediate:
 1641              	.LFB78:
 208:main.c        **** 	contact--;
 1642              		.loc 2 208 0
 1643              		.cfi_startproc
 1644              		@ args = 0, pretend = 0, frame = 0
 1645              		@ frame_needed = 0, uses_anonymous_args = 0
 1646              	.LVL210:
 209:main.c        **** 	intermediate--;
 1647              		.loc 2 209 0
 1648 0000 0138     		subs	r0, r0, #1
 1649              	.LVL211:
ARM GAS  C:\Users\FRANKL~1\AppData\Local\Temp\ccPy0viy.s 			page 49


 1650 0002 C0B2     		uxtb	r0, r0
 1651              	.LVL212:
 212:main.c        **** 	if (intermediate >= INTERMEDIATE_COUNT) return;
 1652              		.loc 2 212 0
 1653 0004 3F28     		cmp	r0, #63
 1654 0006 13D8     		bhi	.L113
 208:main.c        **** 	contact--;
 1655              		.loc 2 208 0
 1656 0008 08B5     		push	{r3, lr}
 1657              		.cfi_def_cfa_offset 8
 1658              		.cfi_offset 3, -8
 1659              		.cfi_offset 14, -4
 1660 000a 4B1E     		subs	r3, r1, #1
 1661 000c DBB2     		uxtb	r3, r3
 213:main.c        **** 	
 1662              		.loc 2 213 0
 1663 000e 032B     		cmp	r3, #3
 1664 0010 0DD8     		bhi	.L108
 1665              	.LVL213:
 216:main.c        **** 		offset = CONTACT_COUNT/2;
 1666              		.loc 2 216 0
 1667 0012 012B     		cmp	r3, #1
 1668 0014 03D9     		bls	.L110
 1669              	.LVL214:
 218:main.c        **** 	} else {
 1670              		.loc 2 218 0
 1671 0016 1F28     		cmp	r0, #31
 1672 0018 09D9     		bls	.L108
 217:main.c        **** 		if (contact < CONTACT_COUNT/2) return;
 1673              		.loc 2 217 0
 1674 001a 2023     		movs	r3, #32
 1675 001c 02E0     		b	.L111
 1676              	.LVL215:
 1677              	.L110:
 220:main.c        **** 	}
 1678              		.loc 2 220 0
 1679 001e 1F28     		cmp	r0, #31
 1680 0020 05D8     		bhi	.L108
 215:main.c        **** 	if (intermediate >= INTERMEDIATE_COUNT/2) {
 1681              		.loc 2 215 0
 1682 0022 0023     		movs	r3, #0
 1683              	.LVL216:
 1684              	.L111:
 223:main.c        **** }
 1685              		.loc 2 223 0
 1686 0024 C01A     		subs	r0, r0, r3
 1687              	.LVL217:
 1688 0026 0130     		adds	r0, r0, #1
 1689 0028 C0B2     		uxtb	r0, r0
 1690 002a FFF7FEFF 		bl	Connect_Channel_On_Intermediate
 1691              	.LVL218:
 1692              	.L108:
 1693 002e 08BD     		pop	{r3, pc}
 1694              	.LVL219:
 1695              	.L113:
 1696              		.cfi_def_cfa_offset 0
 1697              		.cfi_restore 3
ARM GAS  C:\Users\FRANKL~1\AppData\Local\Temp\ccPy0viy.s 			page 50


 1698              		.cfi_restore 14
 1699 0030 7047     		bx	lr
 1700              		.cfi_endproc
 1701              	.LFE78:
 1702              		.size	Connect_Contact_To_Intermediate, .-Connect_Contact_To_Intermediate
 1703 0032 00BF     		.section	.text.Disconnect_Contact_From_Intermediate,"ax",%progbits
 1704              		.align	2
 1705              		.global	Disconnect_Contact_From_Intermediate
 1706              		.thumb
 1707              		.thumb_func
 1708              		.type	Disconnect_Contact_From_Intermediate, %function
 1709              	Disconnect_Contact_From_Intermediate:
 1710              	.LFB79:
 226:main.c        **** 	contact--;
 1711              		.loc 2 226 0
 1712              		.cfi_startproc
 1713              		@ args = 0, pretend = 0, frame = 0
 1714              		@ frame_needed = 0, uses_anonymous_args = 0
 1715              	.LVL220:
 1716 0000 08B5     		push	{r3, lr}
 1717              		.cfi_def_cfa_offset 8
 1718              		.cfi_offset 3, -8
 1719              		.cfi_offset 14, -4
 227:main.c        **** 	intermediate--;
 1720              		.loc 2 227 0
 1721 0002 0138     		subs	r0, r0, #1
 1722              	.LVL221:
 1723 0004 C3B2     		uxtb	r3, r0
 1724              	.LVL222:
 230:main.c        **** 	if (intermediate >= INTERMEDIATE_COUNT) return;
 1725              		.loc 2 230 0
 1726 0006 3F2B     		cmp	r3, #63
 1727 0008 16D8     		bhi	.L114
 1728 000a 0139     		subs	r1, r1, #1
 1729              	.LVL223:
 1730 000c C8B2     		uxtb	r0, r1
 231:main.c        **** 	
 1731              		.loc 2 231 0
 1732 000e 0328     		cmp	r0, #3
 1733 0010 12D8     		bhi	.L114
 1734              	.LVL224:
 234:main.c        **** 		offset = CONTACT_COUNT/2;
 1735              		.loc 2 234 0
 1736 0012 0128     		cmp	r0, #1
 1737 0014 03D9     		bls	.L116
 1738              	.LVL225:
 236:main.c        **** 	} else {
 1739              		.loc 2 236 0
 1740 0016 1F2B     		cmp	r3, #31
 1741 0018 0ED9     		bls	.L114
 235:main.c        **** 		if (contact < CONTACT_COUNT/2) return;
 1742              		.loc 2 235 0
 1743 001a 2022     		movs	r2, #32
 1744 001c 02E0     		b	.L117
 1745              	.LVL226:
 1746              	.L116:
 238:main.c        **** 	}
ARM GAS  C:\Users\FRANKL~1\AppData\Local\Temp\ccPy0viy.s 			page 51


 1747              		.loc 2 238 0
 1748 001e 1F2B     		cmp	r3, #31
 1749 0020 0AD8     		bhi	.L114
 233:main.c        **** 	if (intermediate >= INTERMEDIATE_COUNT/2) {
 1750              		.loc 2 233 0
 1751 0022 0022     		movs	r2, #0
 1752              	.LVL227:
 1753              	.L117:
 241:main.c        **** 	
 1754              		.loc 2 241 0
 1755 0024 9B1A     		subs	r3, r3, r2
 1756              	.LVL228:
 1757 0026 C0EB0022 		rsb	r2, r0, r0, lsl #8
 1758              	.LVL229:
 1759 002a 0449     		ldr	r1, .L119
 1760 002c 0A44     		add	r2, r2, r1
 1761 002e 1344     		add	r3, r3, r2
 1762 0030 D122     		movs	r2, #209
 1763 0032 5A70     		strb	r2, [r3, #1]
 243:main.c        **** }
 1764              		.loc 2 243 0
 1765 0034 FFF7FEFF 		bl	Update_Selector
 1766              	.LVL230:
 1767              	.L114:
 1768 0038 08BD     		pop	{r3, pc}
 1769              	.L120:
 1770 003a 00BF     		.align	2
 1771              	.L119:
 1772 003c 00000000 		.word	selectors
 1773              		.cfi_endproc
 1774              	.LFE79:
 1775              		.size	Disconnect_Contact_From_Intermediate, .-Disconnect_Contact_From_Intermediate
 1776              		.section	.text.Disconnect_Contact_From_All_Intermediates,"ax",%progbits
 1777              		.align	2
 1778              		.global	Disconnect_Contact_From_All_Intermediates
 1779              		.thumb
 1780              		.thumb_func
 1781              		.type	Disconnect_Contact_From_All_Intermediates, %function
 1782              	Disconnect_Contact_From_All_Intermediates:
 1783              	.LFB80:
 246:main.c        **** 	contact--;
 1784              		.loc 2 246 0
 1785              		.cfi_startproc
 1786              		@ args = 0, pretend = 0, frame = 0
 1787              		@ frame_needed = 0, uses_anonymous_args = 0
 1788              	.LVL231:
 1789 0000 38B5     		push	{r3, r4, r5, lr}
 1790              		.cfi_def_cfa_offset 16
 1791              		.cfi_offset 3, -16
 1792              		.cfi_offset 4, -12
 1793              		.cfi_offset 5, -8
 1794              		.cfi_offset 14, -4
 247:main.c        **** 	
 1795              		.loc 2 247 0
 1796 0002 0138     		subs	r0, r0, #1
 1797              	.LVL232:
 1798 0004 C5B2     		uxtb	r5, r0
ARM GAS  C:\Users\FRANKL~1\AppData\Local\Temp\ccPy0viy.s 			page 52


 1799              	.LVL233:
 1800              	.LBB25:
 249:main.c        **** 		
 1801              		.loc 2 249 0
 1802 0006 0024     		movs	r4, #0
 1803 0008 15E0     		b	.L122
 1804              	.LVL234:
 1805              	.L126:
 1806              	.LBB26:
 252:main.c        **** 			offset = CONTACT_COUNT/2;
 1807              		.loc 2 252 0
 1808 000a 012C     		cmp	r4, #1
 1809 000c 03D9     		bls	.L123
 1810              	.LVL235:
 254:main.c        **** 		} else {
 1811              		.loc 2 254 0
 1812 000e 1F2D     		cmp	r5, #31
 1813 0010 0FD9     		bls	.L124
 253:main.c        **** 			if (contact < CONTACT_COUNT/2) continue;
 1814              		.loc 2 253 0
 1815 0012 2023     		movs	r3, #32
 1816 0014 02E0     		b	.L125
 1817              	.LVL236:
 1818              	.L123:
 256:main.c        **** 		}
 1819              		.loc 2 256 0
 1820 0016 1F2D     		cmp	r5, #31
 1821 0018 0BD8     		bhi	.L124
 251:main.c        **** 		if (intermediate >= INTERMEDIATE_COUNT/2) {
 1822              		.loc 2 251 0
 1823 001a 0023     		movs	r3, #0
 1824              	.LVL237:
 1825              	.L125:
 259:main.c        **** 		
 1826              		.loc 2 259 0
 1827 001c EA1A     		subs	r2, r5, r3
 1828 001e C4EB0423 		rsb	r3, r4, r4, lsl #8
 1829              	.LVL238:
 1830 0022 0649     		ldr	r1, .L128
 1831 0024 0B44     		add	r3, r3, r1
 1832 0026 1344     		add	r3, r3, r2
 1833 0028 D122     		movs	r2, #209
 1834 002a 5A70     		strb	r2, [r3, #1]
 261:main.c        **** 	}
 1835              		.loc 2 261 0
 1836 002c 2046     		mov	r0, r4
 1837 002e FFF7FEFF 		bl	Update_Selector
 1838              	.LVL239:
 1839              	.L124:
 1840              	.LBE26:
 249:main.c        **** 		
 1841              		.loc 2 249 0 discriminator 2
 1842 0032 0134     		adds	r4, r4, #1
 1843              	.LVL240:
 1844 0034 E4B2     		uxtb	r4, r4
 1845              	.LVL241:
 1846              	.L122:
ARM GAS  C:\Users\FRANKL~1\AppData\Local\Temp\ccPy0viy.s 			page 53


 249:main.c        **** 		
 1847              		.loc 2 249 0 is_stmt 0 discriminator 1
 1848 0036 032C     		cmp	r4, #3
 1849 0038 E7D9     		bls	.L126
 1850              	.LBE25:
 263:main.c        **** 
 1851              		.loc 2 263 0 is_stmt 1
 1852 003a 38BD     		pop	{r3, r4, r5, pc}
 1853              	.LVL242:
 1854              	.L129:
 1855              		.align	2
 1856              	.L128:
 1857 003c 00000000 		.word	selectors
 1858              		.cfi_endproc
 1859              	.LFE80:
 1860              		.size	Disconnect_Contact_From_All_Intermediates, .-Disconnect_Contact_From_All_Intermediates
 1861              		.section	.text.Disconnect_All_Contacts_From_All_Intermediates,"ax",%progbits
 1862              		.align	2
 1863              		.global	Disconnect_All_Contacts_From_All_Intermediates
 1864              		.thumb
 1865              		.thumb_func
 1866              		.type	Disconnect_All_Contacts_From_All_Intermediates, %function
 1867              	Disconnect_All_Contacts_From_All_Intermediates:
 1868              	.LFB81:
 265:main.c        **** 	for (uint8 intermediate = 0; intermediate < INTERMEDIATE_COUNT/**//2; intermediate++) {
 1869              		.loc 2 265 0
 1870              		.cfi_startproc
 1871              		@ args = 0, pretend = 0, frame = 0
 1872              		@ frame_needed = 0, uses_anonymous_args = 0
 1873 0000 10B5     		push	{r4, lr}
 1874              		.cfi_def_cfa_offset 8
 1875              		.cfi_offset 4, -8
 1876              		.cfi_offset 14, -4
 1877              	.LVL243:
 1878              	.LBB27:
 266:main.c        **** 		for (uint8 contact = 0; contact < CONTACT_COUNT/2; contact++) {
 1879              		.loc 2 266 0
 1880 0002 0024     		movs	r4, #0
 1881 0004 11E0     		b	.L131
 1882              	.LVL244:
 1883              	.L132:
 1884              	.LBB28:
 268:main.c        **** 		}
 1885              		.loc 2 268 0 discriminator 3
 1886 0006 C4EB0422 		rsb	r2, r4, r4, lsl #8
 1887 000a 0949     		ldr	r1, .L136
 1888 000c 0A44     		add	r2, r2, r1
 1889 000e 1A44     		add	r2, r2, r3
 1890 0010 D121     		movs	r1, #209
 1891 0012 5170     		strb	r1, [r2, #1]
 267:main.c        **** 			selectors[intermediate].write.data[contact] = CONTACT_DISCONNECT_CODE;
 1892              		.loc 2 267 0 discriminator 3
 1893 0014 0133     		adds	r3, r3, #1
 1894              	.LVL245:
 1895 0016 DBB2     		uxtb	r3, r3
 1896              	.LVL246:
 1897 0018 00E0     		b	.L133
ARM GAS  C:\Users\FRANKL~1\AppData\Local\Temp\ccPy0viy.s 			page 54


 1898              	.LVL247:
 1899              	.L134:
 1900              	.LBE28:
 1901 001a 0023     		movs	r3, #0
 1902              	.L133:
 1903              	.LVL248:
 1904              	.LBB29:
 267:main.c        **** 			selectors[intermediate].write.data[contact] = CONTACT_DISCONNECT_CODE;
 1905              		.loc 2 267 0 is_stmt 0 discriminator 1
 1906 001c 1F2B     		cmp	r3, #31
 1907 001e F2D9     		bls	.L132
 1908              	.LBE29:
 271:main.c        **** 	}
 1909              		.loc 2 271 0 is_stmt 1 discriminator 2
 1910 0020 2046     		mov	r0, r4
 1911 0022 FFF7FEFF 		bl	Update_Selector
 1912              	.LVL249:
 266:main.c        **** 		for (uint8 contact = 0; contact < CONTACT_COUNT/2; contact++) {
 1913              		.loc 2 266 0 discriminator 2
 1914 0026 0134     		adds	r4, r4, #1
 1915              	.LVL250:
 1916 0028 E4B2     		uxtb	r4, r4
 1917              	.LVL251:
 1918              	.L131:
 266:main.c        **** 		for (uint8 contact = 0; contact < CONTACT_COUNT/2; contact++) {
 1919              		.loc 2 266 0 is_stmt 0 discriminator 1
 1920 002a 012C     		cmp	r4, #1
 1921 002c F5D9     		bls	.L134
 1922              	.LBE27:
 273:main.c        **** 
 1923              		.loc 2 273 0 is_stmt 1
 1924 002e 10BD     		pop	{r4, pc}
 1925              	.LVL252:
 1926              	.L137:
 1927              		.align	2
 1928              	.L136:
 1929 0030 00000000 		.word	selectors
 1930              		.cfi_endproc
 1931              	.LFE81:
 1932              		.size	Disconnect_All_Contacts_From_All_Intermediates, .-Disconnect_All_Contacts_From_All_Intermedi
 1933              		.section	.text.Disconnect_All_Contacts_From_Intermediate,"ax",%progbits
 1934              		.align	2
 1935              		.global	Disconnect_All_Contacts_From_Intermediate
 1936              		.thumb
 1937              		.thumb_func
 1938              		.type	Disconnect_All_Contacts_From_Intermediate, %function
 1939              	Disconnect_All_Contacts_From_Intermediate:
 1940              	.LFB82:
 275:main.c        **** 	intermediate--;
 1941              		.loc 2 275 0
 1942              		.cfi_startproc
 1943              		@ args = 0, pretend = 0, frame = 0
 1944              		@ frame_needed = 0, uses_anonymous_args = 0
 1945              	.LVL253:
 1946 0000 08B5     		push	{r3, lr}
 1947              		.cfi_def_cfa_offset 8
 1948              		.cfi_offset 3, -8
ARM GAS  C:\Users\FRANKL~1\AppData\Local\Temp\ccPy0viy.s 			page 55


 1949              		.cfi_offset 14, -4
 276:main.c        **** 	
 1950              		.loc 2 276 0
 1951 0002 0138     		subs	r0, r0, #1
 1952              	.LVL254:
 1953 0004 C0B2     		uxtb	r0, r0
 1954              	.LVL255:
 1955              	.LBB30:
 278:main.c        **** 		selectors[intermediate].write.data[contact] = CONTACT_DISCONNECT_CODE;
 1956              		.loc 2 278 0
 1957 0006 0023     		movs	r3, #0
 1958 0008 08E0     		b	.L139
 1959              	.LVL256:
 1960              	.L140:
 279:main.c        **** 	}
 1961              		.loc 2 279 0 discriminator 3
 1962 000a C0EB0022 		rsb	r2, r0, r0, lsl #8
 1963 000e 0649     		ldr	r1, .L142
 1964 0010 0A44     		add	r2, r2, r1
 1965 0012 1A44     		add	r2, r2, r3
 1966 0014 D121     		movs	r1, #209
 1967 0016 5170     		strb	r1, [r2, #1]
 278:main.c        **** 		selectors[intermediate].write.data[contact] = CONTACT_DISCONNECT_CODE;
 1968              		.loc 2 278 0 discriminator 3
 1969 0018 0133     		adds	r3, r3, #1
 1970              	.LVL257:
 1971 001a DBB2     		uxtb	r3, r3
 1972              	.LVL258:
 1973              	.L139:
 278:main.c        **** 		selectors[intermediate].write.data[contact] = CONTACT_DISCONNECT_CODE;
 1974              		.loc 2 278 0 is_stmt 0 discriminator 1
 1975 001c 1F2B     		cmp	r3, #31
 1976 001e F4D9     		bls	.L140
 1977              	.LBE30:
 282:main.c        **** }
 1978              		.loc 2 282 0 is_stmt 1
 1979 0020 FFF7FEFF 		bl	Update_Selector
 1980              	.LVL259:
 1981 0024 08BD     		pop	{r3, pc}
 1982              	.L143:
 1983 0026 00BF     		.align	2
 1984              	.L142:
 1985 0028 00000000 		.word	selectors
 1986              		.cfi_endproc
 1987              	.LFE82:
 1988              		.size	Disconnect_All_Contacts_From_Intermediate, .-Disconnect_All_Contacts_From_Intermediate
 1989              		.section	.text.Connect_Intermediate,"ax",%progbits
 1990              		.align	2
 1991              		.global	Connect_Intermediate
 1992              		.thumb
 1993              		.thumb_func
 1994              		.type	Connect_Intermediate, %function
 1995              	Connect_Intermediate:
 1996              	.LFB83:
 285:main.c        **** 	switch (intermediate) {
 1997              		.loc 2 285 0
 1998              		.cfi_startproc
ARM GAS  C:\Users\FRANKL~1\AppData\Local\Temp\ccPy0viy.s 			page 56


 1999              		@ args = 0, pretend = 0, frame = 0
 2000              		@ frame_needed = 0, uses_anonymous_args = 0
 2001              	.LVL260:
 2002 0000 08B5     		push	{r3, lr}
 2003              		.cfi_def_cfa_offset 8
 2004              		.cfi_offset 3, -8
 2005              		.cfi_offset 14, -4
 286:main.c        **** 		case 1: Connect_Channel_On_Intermediate(33, 1); break;
 2006              		.loc 2 286 0
 2007 0002 0138     		subs	r0, r0, #1
 2008              	.LVL261:
 2009 0004 0328     		cmp	r0, #3
 2010 0006 16D8     		bhi	.L144
 2011 0008 DFE800F0 		tbb	[pc, r0]
 2012              	.L147:
 2013 000c 02       		.byte	(.L146-.L147)/2
 2014 000d 07       		.byte	(.L148-.L147)/2
 2015 000e 0C       		.byte	(.L149-.L147)/2
 2016 000f 11       		.byte	(.L150-.L147)/2
 2017              		.p2align 1
 2018              	.L146:
 287:main.c        **** 		case 2: Connect_Channel_On_Intermediate(33, 2); break;
 2019              		.loc 2 287 0
 2020 0010 0121     		movs	r1, #1
 2021 0012 2120     		movs	r0, #33
 2022 0014 FFF7FEFF 		bl	Connect_Channel_On_Intermediate
 2023              	.LVL262:
 2024 0018 08BD     		pop	{r3, pc}
 2025              	.L148:
 288:main.c        **** 		case 3: Connect_Channel_On_Intermediate(33, 3); break;
 2026              		.loc 2 288 0
 2027 001a 0221     		movs	r1, #2
 2028 001c 2120     		movs	r0, #33
 2029 001e FFF7FEFF 		bl	Connect_Channel_On_Intermediate
 2030              	.LVL263:
 2031 0022 08BD     		pop	{r3, pc}
 2032              	.L149:
 289:main.c        **** 		case 4: Connect_Channel_On_Intermediate(33, 4); break;
 2033              		.loc 2 289 0
 2034 0024 0321     		movs	r1, #3
 2035 0026 2120     		movs	r0, #33
 2036 0028 FFF7FEFF 		bl	Connect_Channel_On_Intermediate
 2037              	.LVL264:
 2038 002c 08BD     		pop	{r3, pc}
 2039              	.L150:
 290:main.c        **** 		default: return;
 2040              		.loc 2 290 0
 2041 002e 0421     		movs	r1, #4
 2042 0030 2120     		movs	r0, #33
 2043 0032 FFF7FEFF 		bl	Connect_Channel_On_Intermediate
 2044              	.LVL265:
 2045              	.L144:
 2046 0036 08BD     		pop	{r3, pc}
 2047              		.cfi_endproc
 2048              	.LFE83:
 2049              		.size	Connect_Intermediate, .-Connect_Intermediate
 2050              		.section	.text.Connect_Intermediates,"ax",%progbits
ARM GAS  C:\Users\FRANKL~1\AppData\Local\Temp\ccPy0viy.s 			page 57


 2051              		.align	2
 2052              		.global	Connect_Intermediates
 2053              		.thumb
 2054              		.thumb_func
 2055              		.type	Connect_Intermediates, %function
 2056              	Connect_Intermediates:
 2057              	.LFB84:
 295:main.c        **** 	for (uint8 i = 1; i <= INTERMEDIATE_COUNT/**//2; i++) {
 2058              		.loc 2 295 0
 2059              		.cfi_startproc
 2060              		@ args = 0, pretend = 0, frame = 0
 2061              		@ frame_needed = 0, uses_anonymous_args = 0
 2062 0000 10B5     		push	{r4, lr}
 2063              		.cfi_def_cfa_offset 8
 2064              		.cfi_offset 4, -8
 2065              		.cfi_offset 14, -4
 2066              	.LVL266:
 2067              	.LBB31:
 296:main.c        **** 		Connect_Intermediate(i);
 2068              		.loc 2 296 0
 2069 0002 0124     		movs	r4, #1
 2070 0004 04E0     		b	.L153
 2071              	.LVL267:
 2072              	.L154:
 297:main.c        **** 	}
 2073              		.loc 2 297 0 discriminator 3
 2074 0006 2046     		mov	r0, r4
 2075 0008 FFF7FEFF 		bl	Connect_Intermediate
 2076              	.LVL268:
 296:main.c        **** 		Connect_Intermediate(i);
 2077              		.loc 2 296 0 discriminator 3
 2078 000c 0134     		adds	r4, r4, #1
 2079              	.LVL269:
 2080 000e E4B2     		uxtb	r4, r4
 2081              	.LVL270:
 2082              	.L153:
 296:main.c        **** 		Connect_Intermediate(i);
 2083              		.loc 2 296 0 is_stmt 0 discriminator 1
 2084 0010 022C     		cmp	r4, #2
 2085 0012 F8D9     		bls	.L154
 2086              	.LBE31:
 299:main.c        **** 
 2087              		.loc 2 299 0 is_stmt 1
 2088 0014 10BD     		pop	{r4, pc}
 2089              		.cfi_endproc
 2090              	.LFE84:
 2091              		.size	Connect_Intermediates, .-Connect_Intermediates
 2092              		.global	__aeabi_i2d
 2093              		.global	__aeabi_dcmpgt
 2094              		.global	__aeabi_f2d
 2095              		.global	__aeabi_dsub
 2096              		.global	__aeabi_ddiv
 2097              		.global	__aeabi_dmul
 2098              		.global	__aeabi_dadd
 2099              		.global	__aeabi_d2f
 2100 0016 00BF     		.section	.text.Measure_Current_Vss,"ax",%progbits
 2101              		.align	2
ARM GAS  C:\Users\FRANKL~1\AppData\Local\Temp\ccPy0viy.s 			page 58


 2102              		.global	Measure_Current_Vss
 2103              		.thumb
 2104              		.thumb_func
 2105              		.type	Measure_Current_Vss, %function
 2106              	Measure_Current_Vss:
 2107              	.LFB85:
 301:main.c        **** 	Compliance_Reached = 0;
 2108              		.loc 2 301 0
 2109              		.cfi_startproc
 2110              		@ args = 0, pretend = 0, frame = 24
 2111              		@ frame_needed = 0, uses_anonymous_args = 0
 2112              	.LVL271:
 2113 0000 2DE9F04F 		push	{r4, r5, r6, r7, r8, r9, r10, fp, lr}
 2114              		.cfi_def_cfa_offset 36
 2115              		.cfi_offset 4, -36
 2116              		.cfi_offset 5, -32
 2117              		.cfi_offset 6, -28
 2118              		.cfi_offset 7, -24
 2119              		.cfi_offset 8, -20
 2120              		.cfi_offset 9, -16
 2121              		.cfi_offset 10, -12
 2122              		.cfi_offset 11, -8
 2123              		.cfi_offset 14, -4
 2124 0004 87B0     		sub	sp, sp, #28
 2125              		.cfi_def_cfa_offset 64
 2126 0006 0290     		str	r0, [sp, #8]
 2127 0008 0391     		str	r1, [sp, #12]
 2128 000a 9346     		mov	fp, r2
 302:main.c        **** 	
 2129              		.loc 2 302 0
 2130 000c 0023     		movs	r3, #0
 2131 000e 3E4A     		ldr	r2, .L165+8
 2132              	.LVL272:
 2133 0010 1370     		strb	r3, [r2]
 305:main.c        **** 	int32 voltageSD = 0;
 2134              		.loc 2 305 0
 2135 0012 0593     		str	r3, [sp, #20]
 306:main.c        **** 	
 2136              		.loc 2 306 0
 2137 0014 06A9     		add	r1, sp, #24
 2138              	.LVL273:
 2139 0016 41F8083D 		str	r3, [r1, #-8]!
 2140              	.LVL274:
 318:main.c        **** 	
 2141              		.loc 2 318 0
 2142 001a 0322     		movs	r2, #3
 2143 001c 05A8     		add	r0, sp, #20
 2144              	.LVL275:
 2145 001e FFF7FEFF 		bl	ADC_Measure_uV
 2146              	.LVL276:
 2147              	.LBB32:
 321:main.c        **** 		ADC_Measure_uV(&voltage, &voltageSD, 1);
 2148              		.loc 2 321 0
 2149 0022 0124     		movs	r4, #1
 2150              	.LBE32:
 312:main.c        **** 	
 2151              		.loc 2 312 0
ARM GAS  C:\Users\FRANKL~1\AppData\Local\Temp\ccPy0viy.s 			page 59


 2152 0024 4FF00008 		mov	r8, #0
 311:main.c        **** 	float currentStdDev = 0;
 2153              		.loc 2 311 0
 2154 0028 C146     		mov	r9, r8
 2155              	.LBB33:
 321:main.c        **** 		ADC_Measure_uV(&voltage, &voltageSD, 1);
 2156              		.loc 2 321 0
 2157 002a 5DE0     		b	.L157
 2158              	.LVL277:
 2159              	.L161:
 322:main.c        **** 		
 2160              		.loc 2 322 0
 2161 002c 0122     		movs	r2, #1
 2162 002e 04A9     		add	r1, sp, #16
 2163 0030 05A8     		add	r0, sp, #20
 2164 0032 FFF7FEFF 		bl	ADC_Measure_uV
 2165              	.LVL278:
 324:main.c        **** 		
 2166              		.loc 2 324 0
 2167 0036 0598     		ldr	r0, [sp, #20]
 2168 0038 FFF7FEFF 		bl	__aeabi_i2f
 2169              	.LVL279:
 2170 003c 3349     		ldr	r1, .L165+12
 2171 003e FFF7FEFF 		bl	__aeabi_fmul
 2172              	.LVL280:
 2173 0042 0546     		mov	r5, r0
 2174              	.LVL281:
 326:main.c        **** 			Compliance_Reached += 1;
 2175              		.loc 2 326 0
 2176 0044 FFF7FEFF 		bl	__aeabi_f2iz
 2177              	.LVL282:
 2178 0048 0028     		cmp	r0, #0
 2179 004a B8BF     		it	lt
 2180 004c 4042     		rsblt	r0, r0, #0
 2181 004e FFF7FEFF 		bl	__aeabi_i2d
 2182              	.LVL283:
 2183 0052 2BA3     		adr	r3, .L165
 2184 0054 D3E90023 		ldrd	r2, [r3]
 2185 0058 FFF7FEFF 		bl	__aeabi_dcmpgt
 2186              	.LVL284:
 2187 005c 20B1     		cbz	r0, .L163
 327:main.c        **** 			break;
 2188              		.loc 2 327 0
 2189 005e 2A4A     		ldr	r2, .L165+8
 2190 0060 1378     		ldrb	r3, [r2]	@ zero_extendqisi2
 2191 0062 0133     		adds	r3, r3, #1
 2192 0064 1370     		strb	r3, [r2]
 328:main.c        **** 		} else {
 2193              		.loc 2 328 0
 2194 0066 41E0     		b	.L160
 2195              	.L163:
 330:main.c        **** 		}
 2196              		.loc 2 330 0 discriminator 2
 2197 0068 0022     		movs	r2, #0
 2198 006a 274B     		ldr	r3, .L165+8
 2199 006c 1A70     		strb	r2, [r3]
 333:main.c        **** 		currentAverage += (currentNow - currentAverage)/(float)i;
ARM GAS  C:\Users\FRANKL~1\AppData\Local\Temp\ccPy0viy.s 			page 60


 2200              		.loc 2 333 0 discriminator 2
 2201 006e 2046     		mov	r0, r4
 2202 0070 FFF7FEFF 		bl	__aeabi_ui2f
 2203              	.LVL285:
 2204 0074 8246     		mov	r10, r0
 2205 0076 FFF7FEFF 		bl	__aeabi_f2d
 2206              	.LVL286:
 2207 007a 0646     		mov	r6, r0
 2208 007c 0F46     		mov	r7, r1
 2209 007e 0022     		movs	r2, #0
 2210 0080 234B     		ldr	r3, .L165+16
 2211 0082 FFF7FEFF 		bl	__aeabi_dsub
 2212              	.LVL287:
 2213 0086 3246     		mov	r2, r6
 2214 0088 3B46     		mov	r3, r7
 2215 008a FFF7FEFF 		bl	__aeabi_ddiv
 2216              	.LVL288:
 2217 008e CDE90001 		strd	r0, [sp]
 2218 0092 4946     		mov	r1, r9
 2219 0094 2846     		mov	r0, r5
 2220 0096 FFF7FEFF 		bl	__aeabi_fsub
 2221              	.LVL289:
 2222 009a 0546     		mov	r5, r0
 2223              	.LVL290:
 2224 009c FFF7FEFF 		bl	__aeabi_f2d
 2225              	.LVL291:
 2226 00a0 0646     		mov	r6, r0
 2227 00a2 0F46     		mov	r7, r1
 2228 00a4 0246     		mov	r2, r0
 2229 00a6 0B46     		mov	r3, r1
 2230 00a8 DDE90001 		ldrd	r0, [sp]
 2231 00ac FFF7FEFF 		bl	__aeabi_dmul
 2232              	.LVL292:
 2233 00b0 0246     		mov	r2, r0
 2234 00b2 0B46     		mov	r3, r1
 2235 00b4 3046     		mov	r0, r6
 2236 00b6 3946     		mov	r1, r7
 2237 00b8 FFF7FEFF 		bl	__aeabi_dmul
 2238              	.LVL293:
 2239 00bc 0646     		mov	r6, r0
 2240 00be 0F46     		mov	r7, r1
 2241 00c0 4046     		mov	r0, r8
 2242 00c2 FFF7FEFF 		bl	__aeabi_f2d
 2243              	.LVL294:
 2244 00c6 3246     		mov	r2, r6
 2245 00c8 3B46     		mov	r3, r7
 2246 00ca FFF7FEFF 		bl	__aeabi_dadd
 2247              	.LVL295:
 2248 00ce FFF7FEFF 		bl	__aeabi_d2f
 2249              	.LVL296:
 2250 00d2 8046     		mov	r8, r0
 2251              	.LVL297:
 334:main.c        **** 	}
 2252              		.loc 2 334 0 discriminator 2
 2253 00d4 5146     		mov	r1, r10
 2254 00d6 2846     		mov	r0, r5
 2255              	.LVL298:
ARM GAS  C:\Users\FRANKL~1\AppData\Local\Temp\ccPy0viy.s 			page 61


 2256 00d8 FFF7FEFF 		bl	__aeabi_fdiv
 2257              	.LVL299:
 2258 00dc 0146     		mov	r1, r0
 2259 00de 4846     		mov	r0, r9
 2260 00e0 FFF7FEFF 		bl	__aeabi_fadd
 2261              	.LVL300:
 2262 00e4 8146     		mov	r9, r0
 2263              	.LVL301:
 321:main.c        **** 		ADC_Measure_uV(&voltage, &voltageSD, 1);
 2264              		.loc 2 321 0 discriminator 2
 2265 00e6 0134     		adds	r4, r4, #1
 2266              	.LVL302:
 2267              	.L157:
 321:main.c        **** 		ADC_Measure_uV(&voltage, &voltageSD, 1);
 2268              		.loc 2 321 0 is_stmt 0 discriminator 1
 2269 00e8 5C45     		cmp	r4, fp
 2270 00ea 9FD9     		bls	.L161
 2271              	.L160:
 2272              	.LBE33:
 337:main.c        **** 	*currentStdDevIn = currentStdDev;
 2273              		.loc 2 337 0 is_stmt 1
 2274 00ec 029B     		ldr	r3, [sp, #8]
 2275 00ee C3F80090 		str	r9, [r3]	@ float
 338:main.c        **** }
 2276              		.loc 2 338 0
 2277 00f2 039B     		ldr	r3, [sp, #12]
 2278 00f4 C3F80080 		str	r8, [r3]	@ float
 339:main.c        **** 
 2279              		.loc 2 339 0
 2280 00f8 07B0     		add	sp, sp, #28
 2281              		.cfi_def_cfa_offset 36
 2282              		@ sp needed
 2283 00fa BDE8F08F 		pop	{r4, r5, r6, r7, r8, r9, r10, fp, pc}
 2284              	.LVL303:
 2285              	.L166:
 2286 00fe 00BF     		.align	3
 2287              	.L165:
 2288 0100 F168E388 		.word	-1998362383
 2289 0104 B5F8E43E 		.word	1055193269
 2290 0108 00000000 		.word	Compliance_Reached
 2291 010c FFE65BAE 		.word	-1369708801
 2292 0110 0000F03F 		.word	1072693248
 2293              		.cfi_endproc
 2294              	.LFE85:
 2295              		.size	Measure_Current_Vss, .-Measure_Current_Vss
 2296              		.section	.text.At_Compliance,"ax",%progbits
 2297              		.align	2
 2298              		.global	At_Compliance
 2299              		.thumb
 2300              		.thumb_func
 2301              		.type	At_Compliance, %function
 2302              	At_Compliance:
 2303              	.LFB86:
 341:main.c        **** 	Compliance_Reached = 0;
 2304              		.loc 2 341 0
 2305              		.cfi_startproc
 2306              		@ args = 0, pretend = 0, frame = 8
ARM GAS  C:\Users\FRANKL~1\AppData\Local\Temp\ccPy0viy.s 			page 62


 2307              		@ frame_needed = 0, uses_anonymous_args = 0
 2308 0000 00B5     		push	{lr}
 2309              		.cfi_def_cfa_offset 4
 2310              		.cfi_offset 14, -4
 2311 0002 83B0     		sub	sp, sp, #12
 2312              		.cfi_def_cfa_offset 16
 342:main.c        **** 	
 2313              		.loc 2 342 0
 2314 0004 0022     		movs	r2, #0
 2315 0006 124B     		ldr	r3, .L174+8
 2316 0008 1A70     		strb	r2, [r3]
 344:main.c        **** 	float currentSD = 0;
 2317              		.loc 2 344 0
 2318 000a 0023     		movs	r3, #0
 2319 000c 0193     		str	r3, [sp, #4]	@ float
 345:main.c        **** 	
 2320              		.loc 2 345 0
 2321 000e 02A9     		add	r1, sp, #8
 2322 0010 41F8083D 		str	r3, [r1, #-8]!	@ float
 347:main.c        **** 	
 2323              		.loc 2 347 0
 2324 0014 0322     		movs	r2, #3
 2325 0016 01A8     		add	r0, sp, #4
 2326 0018 FFF7FEFF 		bl	Measure_Current_Vss
 2327              	.LVL304:
 349:main.c        **** 		Compliance_Reached = 1;
 2328              		.loc 2 349 0
 2329 001c 0198     		ldr	r0, [sp, #4]	@ float
 2330 001e FFF7FEFF 		bl	__aeabi_f2iz
 2331              	.LVL305:
 2332 0022 0028     		cmp	r0, #0
 2333 0024 B8BF     		it	lt
 2334 0026 4042     		rsblt	r0, r0, #0
 2335 0028 FFF7FEFF 		bl	__aeabi_i2d
 2336              	.LVL306:
 2337 002c 06A3     		adr	r3, .L174
 2338 002e D3E90023 		ldrd	r2, [r3]
 2339 0032 FFF7FEFF 		bl	__aeabi_dcmpgt
 2340              	.LVL307:
 2341 0036 18B1     		cbz	r0, .L172
 350:main.c        **** 		return 1;
 2342              		.loc 2 350 0
 2343 0038 0120     		movs	r0, #1
 2344 003a 054B     		ldr	r3, .L174+8
 2345 003c 1870     		strb	r0, [r3]
 351:main.c        **** 	}
 2346              		.loc 2 351 0
 2347 003e 00E0     		b	.L168
 2348              	.L172:
 354:main.c        **** }
 2349              		.loc 2 354 0
 2350 0040 0020     		movs	r0, #0
 2351              	.L168:
 355:main.c        **** 
 2352              		.loc 2 355 0
 2353 0042 03B0     		add	sp, sp, #12
 2354              		.cfi_def_cfa_offset 4
ARM GAS  C:\Users\FRANKL~1\AppData\Local\Temp\ccPy0viy.s 			page 63


 2355              		@ sp needed
 2356 0044 5DF804FB 		ldr	pc, [sp], #4
 2357              	.L175:
 2358              		.align	3
 2359              	.L174:
 2360 0048 F168E388 		.word	-1998362383
 2361 004c B5F8E43E 		.word	1055193269
 2362 0050 00000000 		.word	Compliance_Reached
 2363              		.cfi_endproc
 2364              	.LFE86:
 2365              		.size	At_Compliance, .-At_Compliance
 2366              		.section	.text.Handle_Compliance_Breach,"ax",%progbits
 2367              		.align	2
 2368              		.global	Handle_Compliance_Breach
 2369              		.thumb
 2370              		.thumb_func
 2371              		.type	Handle_Compliance_Breach, %function
 2372              	Handle_Compliance_Breach:
 2373              	.LFB87:
 357:main.c        **** 	uint8 istart = VDAC_Vds_Data;
 2374              		.loc 2 357 0
 2375              		.cfi_startproc
 2376              		@ args = 0, pretend = 0, frame = 0
 2377              		@ frame_needed = 0, uses_anonymous_args = 0
 2378 0000 70B5     		push	{r4, r5, r6, lr}
 2379              		.cfi_def_cfa_offset 16
 2380              		.cfi_offset 4, -16
 2381              		.cfi_offset 5, -12
 2382              		.cfi_offset 6, -8
 2383              		.cfi_offset 14, -4
 358:main.c        **** 	uint8 istop = VDAC_Ref_Data;
 2384              		.loc 2 358 0
 2385 0002 174B     		ldr	r3, .L187
 2386 0004 1C78     		ldrb	r4, [r3]	@ zero_extendqisi2
 2387 0006 E4B2     		uxtb	r4, r4
 2388              	.LVL308:
 359:main.c        **** 	int8 increment = 1;
 2389              		.loc 2 359 0
 2390 0008 023B     		subs	r3, r3, #2
 2391 000a 1D78     		ldrb	r5, [r3]	@ zero_extendqisi2
 2392 000c EDB2     		uxtb	r5, r5
 2393              	.LVL309:
 361:main.c        **** 	
 2394              		.loc 2 361 0
 2395 000e AC42     		cmp	r4, r5
 2396 0010 01D3     		bcc	.L184
 360:main.c        **** 	if (istart < istop) increment = -1;
 2397              		.loc 2 360 0
 2398 0012 0126     		movs	r6, #1
 2399 0014 0AE0     		b	.L178
 2400              	.L184:
 361:main.c        **** 	
 2401              		.loc 2 361 0
 2402 0016 4FF0FF36 		mov	r6, #-1
 2403              	.LVL310:
 2404              	.LBB34:
 363:main.c        **** 		VDAC_Vds_SetValue(i);
ARM GAS  C:\Users\FRANKL~1\AppData\Local\Temp\ccPy0viy.s 			page 64


 2405              		.loc 2 363 0
 2406 001a 07E0     		b	.L178
 2407              	.LVL311:
 2408              	.L180:
 364:main.c        **** 		
 2409              		.loc 2 364 0
 2410 001c 2046     		mov	r0, r4
 2411 001e FFF7FEFF 		bl	VDAC_Vds_SetValue
 2412              	.LVL312:
 366:main.c        **** 	}
 2413              		.loc 2 366 0
 2414 0022 FFF7FEFF 		bl	At_Compliance
 2415              	.LVL313:
 2416 0026 D0B1     		cbz	r0, .L176
 363:main.c        **** 		VDAC_Vds_SetValue(i);
 2417              		.loc 2 363 0 discriminator 2
 2418 0028 3444     		add	r4, r4, r6
 2419              	.LVL314:
 2420 002a E4B2     		uxtb	r4, r4
 2421              	.LVL315:
 2422              	.L178:
 363:main.c        **** 		VDAC_Vds_SetValue(i);
 2423              		.loc 2 363 0 is_stmt 0 discriminator 1
 2424 002c AC42     		cmp	r4, r5
 2425 002e F5D1     		bne	.L180
 2426              	.LBE34:
 369:main.c        **** 	istop = VDAC_Ref_Data;
 2427              		.loc 2 369 0 is_stmt 1
 2428 0030 0C4B     		ldr	r3, .L187+4
 2429 0032 1C78     		ldrb	r4, [r3]	@ zero_extendqisi2
 2430              	.LVL316:
 2431 0034 E4B2     		uxtb	r4, r4
 2432              	.LVL317:
 370:main.c        **** 	increment = 1;
 2433              		.loc 2 370 0
 2434 0036 033B     		subs	r3, r3, #3
 2435 0038 1D78     		ldrb	r5, [r3]	@ zero_extendqisi2
 2436              	.LVL318:
 2437 003a EDB2     		uxtb	r5, r5
 2438              	.LVL319:
 372:main.c        **** 	
 2439              		.loc 2 372 0
 2440 003c AC42     		cmp	r4, r5
 2441 003e 01D3     		bcc	.L185
 371:main.c        **** 	if (istart < istop) increment = -1;
 2442              		.loc 2 371 0
 2443 0040 0126     		movs	r6, #1
 2444 0042 0AE0     		b	.L182
 2445              	.L185:
 372:main.c        **** 	
 2446              		.loc 2 372 0
 2447 0044 4FF0FF36 		mov	r6, #-1
 2448              	.LVL320:
 2449              	.LBB35:
 374:main.c        **** 		VDAC_Vgs_SetValue(i);
 2450              		.loc 2 374 0
 2451 0048 07E0     		b	.L182
ARM GAS  C:\Users\FRANKL~1\AppData\Local\Temp\ccPy0viy.s 			page 65


 2452              	.LVL321:
 2453              	.L183:
 375:main.c        **** 		
 2454              		.loc 2 375 0
 2455 004a 2046     		mov	r0, r4
 2456 004c FFF7FEFF 		bl	VDAC_Vgs_SetValue
 2457              	.LVL322:
 377:main.c        **** 	}
 2458              		.loc 2 377 0
 2459 0050 FFF7FEFF 		bl	At_Compliance
 2460              	.LVL323:
 2461 0054 18B1     		cbz	r0, .L176
 374:main.c        **** 		VDAC_Vgs_SetValue(i);
 2462              		.loc 2 374 0 discriminator 2
 2463 0056 3444     		add	r4, r4, r6
 2464              	.LVL324:
 2465 0058 E4B2     		uxtb	r4, r4
 2466              	.LVL325:
 2467              	.L182:
 374:main.c        **** 		VDAC_Vgs_SetValue(i);
 2468              		.loc 2 374 0 is_stmt 0 discriminator 1
 2469 005a AC42     		cmp	r4, r5
 2470 005c F5D1     		bne	.L183
 2471              	.LVL326:
 2472              	.L176:
 2473 005e 70BD     		pop	{r4, r5, r6, pc}
 2474              	.LVL327:
 2475              	.L188:
 2476              		.align	2
 2477              	.L187:
 2478 0060 825B0040 		.word	1073765250
 2479 0064 835B0040 		.word	1073765251
 2480              	.LBE35:
 2481              		.cfi_endproc
 2482              	.LFE87:
 2483              		.size	Handle_Compliance_Breach, .-Handle_Compliance_Breach
 2484              		.section	.text.Set_Vds_Raw,"ax",%progbits
 2485              		.align	2
 2486              		.global	Set_Vds_Raw
 2487              		.thumb
 2488              		.thumb_func
 2489              		.type	Set_Vds_Raw, %function
 2490              	Set_Vds_Raw:
 2491              	.LFB88:
 383:main.c        **** 	Vds_Index_Goal_Relative = (int16)value - (int16)VDAC_Ref_Data;
 2492              		.loc 2 383 0 is_stmt 1
 2493              		.cfi_startproc
 2494              		@ args = 0, pretend = 0, frame = 0
 2495              		@ frame_needed = 0, uses_anonymous_args = 0
 2496              	.LVL328:
 2497 0000 2DE9F041 		push	{r4, r5, r6, r7, r8, lr}
 2498              		.cfi_def_cfa_offset 24
 2499              		.cfi_offset 4, -24
 2500              		.cfi_offset 5, -20
 2501              		.cfi_offset 6, -16
 2502              		.cfi_offset 7, -12
 2503              		.cfi_offset 8, -8
ARM GAS  C:\Users\FRANKL~1\AppData\Local\Temp\ccPy0viy.s 			page 66


 2504              		.cfi_offset 14, -4
 2505 0004 8046     		mov	r8, r0
 384:main.c        **** 	
 2506              		.loc 2 384 0
 2507 0006 184B     		ldr	r3, .L200
 2508 0008 1B78     		ldrb	r3, [r3]	@ zero_extendqisi2
 2509 000a C31A     		subs	r3, r0, r3
 2510 000c 174A     		ldr	r2, .L200+4
 2511 000e 1380     		strh	r3, [r2]	@ movhi
 386:main.c        **** 	int8 increment = 1;
 2512              		.loc 2 386 0
 2513 0010 174B     		ldr	r3, .L200+8
 2514 0012 1D78     		ldrb	r5, [r3]	@ zero_extendqisi2
 2515 0014 EDB2     		uxtb	r5, r5
 2516              	.LVL329:
 388:main.c        **** 	
 2517              		.loc 2 388 0
 2518 0016 A842     		cmp	r0, r5
 2519 0018 01D3     		bcc	.L197
 387:main.c        **** 	if (istart > value) increment = -1;
 2520              		.loc 2 387 0
 2521 001a 0126     		movs	r6, #1
 2522 001c 01E0     		b	.L190
 2523              	.L197:
 388:main.c        **** 	
 2524              		.loc 2 388 0
 2525 001e 4FF0FF36 		mov	r6, #-1
 2526              	.L190:
 2527              	.LVL330:
 2528              	.LBB36:
 390:main.c        **** 		if (At_Compliance()) {
 2529              		.loc 2 390 0
 2530 0022 0027     		movs	r7, #0
 2531 0024 1BE0     		b	.L191
 2532              	.LVL331:
 2533              	.L196:
 391:main.c        **** 			for (uint8 j = i; j != istart; j -= increment) {
 2534              		.loc 2 391 0
 2535 0026 FFF7FEFF 		bl	At_Compliance
 2536              	.LVL332:
 2537 002a 48B9     		cbnz	r0, .L198
 2538 002c 12E0     		b	.L193
 2539              	.LVL333:
 2540              	.L195:
 2541              	.LBB37:
 393:main.c        **** 				
 2542              		.loc 2 393 0
 2543 002e 2046     		mov	r0, r4
 2544 0030 FFF7FEFF 		bl	VDAC_Vds_SetValue
 2545              	.LVL334:
 395:main.c        **** 			}
 2546              		.loc 2 395 0
 2547 0034 FFF7FEFF 		bl	At_Compliance
 2548              	.LVL335:
 2549 0038 98B1     		cbz	r0, .L189
 392:main.c        **** 				VDAC_Vds_SetValue(j);
 2550              		.loc 2 392 0 discriminator 2
ARM GAS  C:\Users\FRANKL~1\AppData\Local\Temp\ccPy0viy.s 			page 67


 2551 003a A41B     		subs	r4, r4, r6
 2552              	.LVL336:
 2553 003c E4B2     		uxtb	r4, r4
 2554              	.LVL337:
 2555 003e 00E0     		b	.L192
 2556              	.LVL338:
 2557              	.L198:
 2558              	.LBE37:
 2559 0040 3C46     		mov	r4, r7
 2560              	.L192:
 2561              	.LVL339:
 2562              	.LBB38:
 392:main.c        **** 				VDAC_Vds_SetValue(j);
 2563              		.loc 2 392 0 is_stmt 0 discriminator 1
 2564 0042 AC42     		cmp	r4, r5
 2565 0044 F3D1     		bne	.L195
 2566              	.LBE38:
 397:main.c        **** 				Handle_Compliance_Breach();
 2567              		.loc 2 397 0 is_stmt 1
 2568 0046 FFF7FEFF 		bl	At_Compliance
 2569              	.LVL340:
 2570 004a 18B1     		cbz	r0, .L193
 398:main.c        **** 				return;
 2571              		.loc 2 398 0
 2572 004c FFF7FEFF 		bl	Handle_Compliance_Breach
 2573              	.LVL341:
 399:main.c        **** 			}
 2574              		.loc 2 399 0
 2575 0050 BDE8F081 		pop	{r4, r5, r6, r7, r8, pc}
 2576              	.LVL342:
 2577              	.L193:
 403:main.c        **** 	}
 2578              		.loc 2 403 0 discriminator 2
 2579 0054 3846     		mov	r0, r7
 2580 0056 FFF7FEFF 		bl	VDAC_Vds_SetValue
 2581              	.LVL343:
 390:main.c        **** 		if (At_Compliance()) {
 2582              		.loc 2 390 0 discriminator 2
 2583 005a 3744     		add	r7, r7, r6
 2584              	.LVL344:
 2585 005c FFB2     		uxtb	r7, r7
 2586              	.LVL345:
 2587              	.L191:
 390:main.c        **** 		if (At_Compliance()) {
 2588              		.loc 2 390 0 is_stmt 0 discriminator 1
 2589 005e 4745     		cmp	r7, r8
 2590 0060 E1D1     		bne	.L196
 2591              	.L189:
 2592 0062 BDE8F081 		pop	{r4, r5, r6, r7, r8, pc}
 2593              	.LVL346:
 2594              	.L201:
 2595 0066 00BF     		.align	2
 2596              	.L200:
 2597 0068 805B0040 		.word	1073765248
 2598 006c 00000000 		.word	Vds_Index_Goal_Relative
 2599 0070 825B0040 		.word	1073765250
 2600              	.LBE36:
ARM GAS  C:\Users\FRANKL~1\AppData\Local\Temp\ccPy0viy.s 			page 68


 2601              		.cfi_endproc
 2602              	.LFE88:
 2603              		.size	Set_Vds_Raw, .-Set_Vds_Raw
 2604              		.section	.text.Set_Vgs_Raw,"ax",%progbits
 2605              		.align	2
 2606              		.global	Set_Vgs_Raw
 2607              		.thumb
 2608              		.thumb_func
 2609              		.type	Set_Vgs_Raw, %function
 2610              	Set_Vgs_Raw:
 2611              	.LFB89:
 407:main.c        **** 	Vgs_Index_Goal_Relative = (int16)value - (int16)VDAC_Ref_Data;
 2612              		.loc 2 407 0 is_stmt 1
 2613              		.cfi_startproc
 2614              		@ args = 0, pretend = 0, frame = 0
 2615              		@ frame_needed = 0, uses_anonymous_args = 0
 2616              	.LVL347:
 2617 0000 2DE9F041 		push	{r4, r5, r6, r7, r8, lr}
 2618              		.cfi_def_cfa_offset 24
 2619              		.cfi_offset 4, -24
 2620              		.cfi_offset 5, -20
 2621              		.cfi_offset 6, -16
 2622              		.cfi_offset 7, -12
 2623              		.cfi_offset 8, -8
 2624              		.cfi_offset 14, -4
 2625 0004 8046     		mov	r8, r0
 408:main.c        **** 	
 2626              		.loc 2 408 0
 2627 0006 184B     		ldr	r3, .L213
 2628 0008 1B78     		ldrb	r3, [r3]	@ zero_extendqisi2
 2629 000a C31A     		subs	r3, r0, r3
 2630 000c 174A     		ldr	r2, .L213+4
 2631 000e 1380     		strh	r3, [r2]	@ movhi
 2632              	.LVL348:
 411:main.c        **** 	if (value < istart) increment = -1;
 2633              		.loc 2 411 0
 2634 0010 174B     		ldr	r3, .L213+8
 2635 0012 1D78     		ldrb	r5, [r3]	@ zero_extendqisi2
 2636 0014 EDB2     		uxtb	r5, r5
 2637              	.LVL349:
 412:main.c        **** 	
 2638              		.loc 2 412 0
 2639 0016 A842     		cmp	r0, r5
 2640 0018 01D3     		bcc	.L210
 410:main.c        **** 	uint8 istart = VDAC_Vgs_Data;
 2641              		.loc 2 410 0
 2642 001a 0126     		movs	r6, #1
 2643 001c 01E0     		b	.L203
 2644              	.L210:
 412:main.c        **** 	
 2645              		.loc 2 412 0
 2646 001e 4FF0FF36 		mov	r6, #-1
 2647              	.L203:
 2648              	.LVL350:
 2649              	.LBB39:
 414:main.c        **** 		if (At_Compliance()) {
 2650              		.loc 2 414 0
ARM GAS  C:\Users\FRANKL~1\AppData\Local\Temp\ccPy0viy.s 			page 69


 2651 0022 2F46     		mov	r7, r5
 2652 0024 1BE0     		b	.L204
 2653              	.LVL351:
 2654              	.L209:
 415:main.c        **** 			for (uint8 j = i; j != istart; j -= increment) {
 2655              		.loc 2 415 0
 2656 0026 FFF7FEFF 		bl	At_Compliance
 2657              	.LVL352:
 2658 002a 48B9     		cbnz	r0, .L211
 2659 002c 12E0     		b	.L206
 2660              	.LVL353:
 2661              	.L208:
 2662              	.LBB40:
 417:main.c        **** 				
 2663              		.loc 2 417 0
 2664 002e 2046     		mov	r0, r4
 2665 0030 FFF7FEFF 		bl	VDAC_Vgs_SetValue
 2666              	.LVL354:
 419:main.c        **** 			}
 2667              		.loc 2 419 0
 2668 0034 FFF7FEFF 		bl	At_Compliance
 2669              	.LVL355:
 2670 0038 98B1     		cbz	r0, .L202
 416:main.c        **** 				VDAC_Vgs_SetValue(j);
 2671              		.loc 2 416 0 discriminator 2
 2672 003a A41B     		subs	r4, r4, r6
 2673              	.LVL356:
 2674 003c E4B2     		uxtb	r4, r4
 2675              	.LVL357:
 2676 003e 00E0     		b	.L205
 2677              	.LVL358:
 2678              	.L211:
 2679              	.LBE40:
 2680 0040 3C46     		mov	r4, r7
 2681              	.L205:
 2682              	.LVL359:
 2683              	.LBB41:
 416:main.c        **** 				VDAC_Vgs_SetValue(j);
 2684              		.loc 2 416 0 is_stmt 0 discriminator 1
 2685 0042 AC42     		cmp	r4, r5
 2686 0044 F3D1     		bne	.L208
 2687              	.LBE41:
 421:main.c        **** 				Handle_Compliance_Breach();
 2688              		.loc 2 421 0 is_stmt 1
 2689 0046 FFF7FEFF 		bl	At_Compliance
 2690              	.LVL360:
 2691 004a 18B1     		cbz	r0, .L206
 422:main.c        **** 				return;
 2692              		.loc 2 422 0
 2693 004c FFF7FEFF 		bl	Handle_Compliance_Breach
 2694              	.LVL361:
 423:main.c        **** 			}
 2695              		.loc 2 423 0
 2696 0050 BDE8F081 		pop	{r4, r5, r6, r7, r8, pc}
 2697              	.LVL362:
 2698              	.L206:
 427:main.c        **** 	}
ARM GAS  C:\Users\FRANKL~1\AppData\Local\Temp\ccPy0viy.s 			page 70


 2699              		.loc 2 427 0 discriminator 2
 2700 0054 3846     		mov	r0, r7
 2701 0056 FFF7FEFF 		bl	VDAC_Vgs_SetValue
 2702              	.LVL363:
 414:main.c        **** 		if (At_Compliance()) {
 2703              		.loc 2 414 0 discriminator 2
 2704 005a 3744     		add	r7, r7, r6
 2705              	.LVL364:
 2706 005c FFB2     		uxtb	r7, r7
 2707              	.LVL365:
 2708              	.L204:
 414:main.c        **** 		if (At_Compliance()) {
 2709              		.loc 2 414 0 is_stmt 0 discriminator 1
 2710 005e 4745     		cmp	r7, r8
 2711 0060 E1D1     		bne	.L209
 2712              	.L202:
 2713 0062 BDE8F081 		pop	{r4, r5, r6, r7, r8, pc}
 2714              	.LVL366:
 2715              	.L214:
 2716 0066 00BF     		.align	2
 2717              	.L213:
 2718 0068 805B0040 		.word	1073765248
 2719 006c 00000000 		.word	Vgs_Index_Goal_Relative
 2720 0070 835B0040 		.word	1073765251
 2721              	.LBE39:
 2722              		.cfi_endproc
 2723              	.LFE89:
 2724              		.size	Set_Vgs_Raw, .-Set_Vgs_Raw
 2725              		.section	.text.Set_Ref_Raw,"ax",%progbits
 2726              		.align	2
 2727              		.global	Set_Ref_Raw
 2728              		.thumb
 2729              		.thumb_func
 2730              		.type	Set_Ref_Raw, %function
 2731              	Set_Ref_Raw:
 2732              	.LFB90:
 431:main.c        **** 	int8 increment = 1;
 2733              		.loc 2 431 0 is_stmt 1
 2734              		.cfi_startproc
 2735              		@ args = 0, pretend = 0, frame = 0
 2736              		@ frame_needed = 0, uses_anonymous_args = 0
 2737              	.LVL367:
 2738 0000 2DE9F041 		push	{r4, r5, r6, r7, r8, lr}
 2739              		.cfi_def_cfa_offset 24
 2740              		.cfi_offset 4, -24
 2741              		.cfi_offset 5, -20
 2742              		.cfi_offset 6, -16
 2743              		.cfi_offset 7, -12
 2744              		.cfi_offset 8, -8
 2745              		.cfi_offset 14, -4
 2746 0004 0746     		mov	r7, r0
 2747              	.LVL368:
 433:main.c        **** 	
 2748              		.loc 2 433 0
 2749 0006 1A4B     		ldr	r3, .L230
 2750 0008 1B78     		ldrb	r3, [r3]	@ zero_extendqisi2
 2751 000a DBB2     		uxtb	r3, r3
ARM GAS  C:\Users\FRANKL~1\AppData\Local\Temp\ccPy0viy.s 			page 71


 2752 000c 8342     		cmp	r3, r0
 2753 000e 02D8     		bhi	.L224
 432:main.c        **** 	if (value < VDAC_Ref_Data) increment = -1;
 2754              		.loc 2 432 0
 2755 0010 4FF00108 		mov	r8, #1
 2756 0014 01E0     		b	.L216
 2757              	.L224:
 433:main.c        **** 	
 2758              		.loc 2 433 0
 2759 0016 4FF0FF38 		mov	r8, #-1
 2760              	.L216:
 2761              	.LVL369:
 2762              	.LBB42:
 435:main.c        **** 		
 2763              		.loc 2 435 0
 2764 001a 154B     		ldr	r3, .L230
 2765 001c 1E78     		ldrb	r6, [r3]	@ zero_extendqisi2
 2766 001e F6B2     		uxtb	r6, r6
 2767              	.LVL370:
 2768 0020 22E0     		b	.L217
 2769              	.LVL371:
 2770              	.L223:
 2771              	.LBB43:
 437:main.c        **** 		
 2772              		.loc 2 437 0
 2773 0022 FFF7FEFF 		bl	At_Compliance
 2774              	.LVL372:
 2775 0026 08BB     		cbnz	r0, .L215
 439:main.c        **** 		int16 new_Vds = (int16)i + Vds_Index_Goal_Relative;
 2776              		.loc 2 439 0
 2777 0028 B4B2     		uxth	r4, r6
 2778 002a 124B     		ldr	r3, .L230+4
 2779 002c 1D88     		ldrh	r5, [r3]
 2780 002e 2544     		add	r5, r5, r4
 2781 0030 2DB2     		sxth	r5, r5
 2782              	.LVL373:
 440:main.c        **** 		
 2783              		.loc 2 440 0
 2784 0032 114B     		ldr	r3, .L230+8
 2785 0034 1B88     		ldrh	r3, [r3]
 2786 0036 1C44     		add	r4, r4, r3
 2787 0038 24B2     		sxth	r4, r4
 2788              	.LVL374:
 442:main.c        **** 		if (new_Vds > 255) new_Vds = 255;
 2789              		.loc 2 442 0
 2790 003a FF2D     		cmp	r5, #255
 2791 003c 00DD     		ble	.L219
 2792 003e FF25     		movs	r5, #255
 2793              	.LVL375:
 2794              	.L219:
 443:main.c        **** 		
 2795              		.loc 2 443 0
 2796 0040 FF2C     		cmp	r4, #255
 2797 0042 00DD     		ble	.L220
 2798 0044 FF24     		movs	r4, #255
 2799              	.LVL376:
 2800              	.L220:
ARM GAS  C:\Users\FRANKL~1\AppData\Local\Temp\ccPy0viy.s 			page 72


 445:main.c        **** 		if (new_Vds < 0) new_Vds = 0;
 2801              		.loc 2 445 0
 2802 0046 002D     		cmp	r5, #0
 2803 0048 00DA     		bge	.L221
 2804 004a 0025     		movs	r5, #0
 2805              	.LVL377:
 2806              	.L221:
 446:main.c        **** 		
 2807              		.loc 2 446 0
 2808 004c 002C     		cmp	r4, #0
 2809 004e 00DA     		bge	.L222
 2810 0050 0024     		movs	r4, #0
 2811              	.LVL378:
 2812              	.L222:
 448:main.c        **** 		VDAC_Vgs_SetValue(new_Vgs);
 2813              		.loc 2 448 0 discriminator 2
 2814 0052 3046     		mov	r0, r6
 2815 0054 FFF7FEFF 		bl	VDAC_Ref_SetValue
 2816              	.LVL379:
 449:main.c        **** 		VDAC_Vds_SetValue(new_Vds);
 2817              		.loc 2 449 0 discriminator 2
 2818 0058 E8B2     		uxtb	r0, r5
 2819 005a FFF7FEFF 		bl	VDAC_Vgs_SetValue
 2820              	.LVL380:
 450:main.c        **** 	}
 2821              		.loc 2 450 0 discriminator 2
 2822 005e E0B2     		uxtb	r0, r4
 2823 0060 FFF7FEFF 		bl	VDAC_Vds_SetValue
 2824              	.LVL381:
 2825              	.LBE43:
 435:main.c        **** 		
 2826              		.loc 2 435 0 discriminator 2
 2827 0064 4644     		add	r6, r6, r8
 2828              	.LVL382:
 2829 0066 F6B2     		uxtb	r6, r6
 2830              	.LVL383:
 2831              	.L217:
 435:main.c        **** 		
 2832              		.loc 2 435 0 is_stmt 0 discriminator 1
 2833 0068 BE42     		cmp	r6, r7
 2834 006a DAD1     		bne	.L223
 2835              	.L215:
 2836 006c BDE8F081 		pop	{r4, r5, r6, r7, r8, pc}
 2837              	.LVL384:
 2838              	.L231:
 2839              		.align	2
 2840              	.L230:
 2841 0070 805B0040 		.word	1073765248
 2842 0074 00000000 		.word	Vgs_Index_Goal_Relative
 2843 0078 00000000 		.word	Vds_Index_Goal_Relative
 2844              	.LBE42:
 2845              		.cfi_endproc
 2846              	.LFE90:
 2847              		.size	Set_Ref_Raw, .-Set_Ref_Raw
 2848              		.section	.text.Set_Vds_Rel,"ax",%progbits
 2849              		.align	2
 2850              		.global	Set_Vds_Rel
ARM GAS  C:\Users\FRANKL~1\AppData\Local\Temp\ccPy0viy.s 			page 73


 2851              		.thumb
 2852              		.thumb_func
 2853              		.type	Set_Vds_Rel, %function
 2854              	Set_Vds_Rel:
 2855              	.LFB91:
 454:main.c        **** 	if (value > 255) value = 255;
 2856              		.loc 2 454 0 is_stmt 1
 2857              		.cfi_startproc
 2858              		@ args = 0, pretend = 0, frame = 0
 2859              		@ frame_needed = 0, uses_anonymous_args = 0
 2860              	.LVL385:
 2861 0000 10B5     		push	{r4, lr}
 2862              		.cfi_def_cfa_offset 8
 2863              		.cfi_offset 4, -8
 2864              		.cfi_offset 14, -4
 2865 0002 0446     		mov	r4, r0
 455:main.c        **** 	if (value < -255) value = -255;
 2866              		.loc 2 455 0
 2867 0004 FF28     		cmp	r0, #255
 2868 0006 00DD     		ble	.L233
 2869 0008 FF24     		movs	r4, #255
 2870              	.L233:
 2871              	.LVL386:
 456:main.c        **** 	
 2872              		.loc 2 456 0
 2873 000a 14F1FF0F 		cmn	r4, #255
 2874 000e 01DA     		bge	.L234
 2875 0010 6FF0FE04 		mvn	r4, #254
 2876              	.LVL387:
 2877              	.L234:
 458:main.c        **** 	
 2878              		.loc 2 458 0
 2879 0014 114B     		ldr	r3, .L241
 2880 0016 1878     		ldrb	r0, [r3]	@ zero_extendqisi2
 2881 0018 2044     		add	r0, r0, r4
 2882 001a 80B2     		uxth	r0, r0
 2883 001c 03B2     		sxth	r3, r0
 2884              	.LVL388:
 460:main.c        **** 		Set_Ref_Raw(VDAC_Ref_Data - (absolute - 255));
 2885              		.loc 2 460 0
 2886 001e FF2B     		cmp	r3, #255
 2887 0020 0ADD     		ble	.L235
 461:main.c        **** 		Set_Vds_Raw(255);
 2888              		.loc 2 461 0
 2889 0022 0E4B     		ldr	r3, .L241
 2890              	.LVL389:
 2891 0024 1B78     		ldrb	r3, [r3]	@ zero_extendqisi2
 2892 0026 181A     		subs	r0, r3, r0
 2893              	.LVL390:
 2894 0028 0138     		subs	r0, r0, #1
 2895 002a C0B2     		uxtb	r0, r0
 2896 002c FFF7FEFF 		bl	Set_Ref_Raw
 2897              	.LVL391:
 462:main.c        **** 	} else if (absolute < 0) {
 2898              		.loc 2 462 0
 2899 0030 FF20     		movs	r0, #255
 2900 0032 FFF7FEFF 		bl	Set_Vds_Raw
ARM GAS  C:\Users\FRANKL~1\AppData\Local\Temp\ccPy0viy.s 			page 74


 2901              	.LVL392:
 2902 0036 0EE0     		b	.L236
 2903              	.LVL393:
 2904              	.L235:
 463:main.c        **** 		Set_Ref_Raw(VDAC_Ref_Data - absolute);
 2905              		.loc 2 463 0
 2906 0038 002B     		cmp	r3, #0
 2907 003a 09DA     		bge	.L237
 464:main.c        **** 		Set_Vds_Raw(0);
 2908              		.loc 2 464 0
 2909 003c 074B     		ldr	r3, .L241
 2910              	.LVL394:
 2911 003e 1B78     		ldrb	r3, [r3]	@ zero_extendqisi2
 2912 0040 181A     		subs	r0, r3, r0
 2913              	.LVL395:
 2914 0042 C0B2     		uxtb	r0, r0
 2915 0044 FFF7FEFF 		bl	Set_Ref_Raw
 2916              	.LVL396:
 465:main.c        **** 	} else {
 2917              		.loc 2 465 0
 2918 0048 0020     		movs	r0, #0
 2919 004a FFF7FEFF 		bl	Set_Vds_Raw
 2920              	.LVL397:
 2921 004e 02E0     		b	.L236
 2922              	.LVL398:
 2923              	.L237:
 467:main.c        **** 	}
 2924              		.loc 2 467 0
 2925 0050 C0B2     		uxtb	r0, r0
 2926 0052 FFF7FEFF 		bl	Set_Vds_Raw
 2927              	.LVL399:
 2928              	.L236:
 470:main.c        **** }
 2929              		.loc 2 470 0
 2930 0056 024B     		ldr	r3, .L241+4
 2931 0058 1C80     		strh	r4, [r3]	@ movhi
 2932 005a 10BD     		pop	{r4, pc}
 2933              	.LVL400:
 2934              	.L242:
 2935              		.align	2
 2936              	.L241:
 2937 005c 805B0040 		.word	1073765248
 2938 0060 00000000 		.word	Vds_Index_Goal_Relative
 2939              		.cfi_endproc
 2940              	.LFE91:
 2941              		.size	Set_Vds_Rel, .-Set_Vds_Rel
 2942              		.section	.text.Set_Vgs_Rel,"ax",%progbits
 2943              		.align	2
 2944              		.global	Set_Vgs_Rel
 2945              		.thumb
 2946              		.thumb_func
 2947              		.type	Set_Vgs_Rel, %function
 2948              	Set_Vgs_Rel:
 2949              	.LFB92:
 473:main.c        **** 	if (value > 255) value = 255;
 2950              		.loc 2 473 0
 2951              		.cfi_startproc
ARM GAS  C:\Users\FRANKL~1\AppData\Local\Temp\ccPy0viy.s 			page 75


 2952              		@ args = 0, pretend = 0, frame = 0
 2953              		@ frame_needed = 0, uses_anonymous_args = 0
 2954              	.LVL401:
 2955 0000 10B5     		push	{r4, lr}
 2956              		.cfi_def_cfa_offset 8
 2957              		.cfi_offset 4, -8
 2958              		.cfi_offset 14, -4
 2959 0002 0446     		mov	r4, r0
 474:main.c        **** 	if (value < -255) value = -255;
 2960              		.loc 2 474 0
 2961 0004 FF28     		cmp	r0, #255
 2962 0006 00DD     		ble	.L244
 2963 0008 FF24     		movs	r4, #255
 2964              	.L244:
 2965              	.LVL402:
 475:main.c        **** 	
 2966              		.loc 2 475 0
 2967 000a 14F1FF0F 		cmn	r4, #255
 2968 000e 01DA     		bge	.L245
 2969 0010 6FF0FE04 		mvn	r4, #254
 2970              	.LVL403:
 2971              	.L245:
 477:main.c        **** 	
 2972              		.loc 2 477 0
 2973 0014 114B     		ldr	r3, .L252
 2974 0016 1878     		ldrb	r0, [r3]	@ zero_extendqisi2
 2975 0018 2044     		add	r0, r0, r4
 2976 001a 80B2     		uxth	r0, r0
 2977 001c 03B2     		sxth	r3, r0
 2978              	.LVL404:
 479:main.c        **** 		Set_Ref_Raw(VDAC_Ref_Data - (absolute - 255));
 2979              		.loc 2 479 0
 2980 001e FF2B     		cmp	r3, #255
 2981 0020 0ADD     		ble	.L246
 480:main.c        **** 		Set_Vgs_Raw(255);
 2982              		.loc 2 480 0
 2983 0022 0E4B     		ldr	r3, .L252
 2984              	.LVL405:
 2985 0024 1B78     		ldrb	r3, [r3]	@ zero_extendqisi2
 2986 0026 181A     		subs	r0, r3, r0
 2987              	.LVL406:
 2988 0028 0138     		subs	r0, r0, #1
 2989 002a C0B2     		uxtb	r0, r0
 2990 002c FFF7FEFF 		bl	Set_Ref_Raw
 2991              	.LVL407:
 481:main.c        **** 	} else if (absolute < 0) {
 2992              		.loc 2 481 0
 2993 0030 FF20     		movs	r0, #255
 2994 0032 FFF7FEFF 		bl	Set_Vgs_Raw
 2995              	.LVL408:
 2996 0036 0EE0     		b	.L247
 2997              	.LVL409:
 2998              	.L246:
 482:main.c        **** 		Set_Ref_Raw(VDAC_Ref_Data - absolute);
 2999              		.loc 2 482 0
 3000 0038 002B     		cmp	r3, #0
 3001 003a 09DA     		bge	.L248
ARM GAS  C:\Users\FRANKL~1\AppData\Local\Temp\ccPy0viy.s 			page 76


 483:main.c        **** 		Set_Vgs_Raw(0);
 3002              		.loc 2 483 0
 3003 003c 074B     		ldr	r3, .L252
 3004              	.LVL410:
 3005 003e 1B78     		ldrb	r3, [r3]	@ zero_extendqisi2
 3006 0040 181A     		subs	r0, r3, r0
 3007              	.LVL411:
 3008 0042 C0B2     		uxtb	r0, r0
 3009 0044 FFF7FEFF 		bl	Set_Ref_Raw
 3010              	.LVL412:
 484:main.c        **** 	} else {
 3011              		.loc 2 484 0
 3012 0048 0020     		movs	r0, #0
 3013 004a FFF7FEFF 		bl	Set_Vgs_Raw
 3014              	.LVL413:
 3015 004e 02E0     		b	.L247
 3016              	.LVL414:
 3017              	.L248:
 486:main.c        **** 	}
 3018              		.loc 2 486 0
 3019 0050 C0B2     		uxtb	r0, r0
 3020 0052 FFF7FEFF 		bl	Set_Vgs_Raw
 3021              	.LVL415:
 3022              	.L247:
 489:main.c        **** }
 3023              		.loc 2 489 0
 3024 0056 024B     		ldr	r3, .L252+4
 3025 0058 1C80     		strh	r4, [r3]	@ movhi
 3026 005a 10BD     		pop	{r4, pc}
 3027              	.LVL416:
 3028              	.L253:
 3029              		.align	2
 3030              	.L252:
 3031 005c 805B0040 		.word	1073765248
 3032 0060 00000000 		.word	Vgs_Index_Goal_Relative
 3033              		.cfi_endproc
 3034              	.LFE92:
 3035              		.size	Set_Vgs_Rel, .-Set_Vgs_Rel
 3036              		.global	__aeabi_d2iz
 3037              		.section	.text.Set_Vgs,"ax",%progbits
 3038              		.align	2
 3039              		.global	Set_Vgs
 3040              		.thumb
 3041              		.thumb_func
 3042              		.type	Set_Vgs, %function
 3043              	Set_Vgs:
 3044              	.LFB93:
 492:main.c        **** 	Set_Vgs_Rel((voltage/4.080)*255.0);
 3045              		.loc 2 492 0
 3046              		.cfi_startproc
 3047              		@ args = 0, pretend = 0, frame = 0
 3048              		@ frame_needed = 0, uses_anonymous_args = 0
 3049              	.LVL417:
 3050 0000 08B5     		push	{r3, lr}
 3051              		.cfi_def_cfa_offset 8
 3052              		.cfi_offset 3, -8
 3053              		.cfi_offset 14, -4
ARM GAS  C:\Users\FRANKL~1\AppData\Local\Temp\ccPy0viy.s 			page 77


 493:main.c        **** }
 3054              		.loc 2 493 0
 3055 0002 FFF7FEFF 		bl	__aeabi_f2d
 3056              	.LVL418:
 3057 0006 08A3     		adr	r3, .L256
 3058 0008 D3E90023 		ldrd	r2, [r3]
 3059 000c FFF7FEFF 		bl	__aeabi_ddiv
 3060              	.LVL419:
 3061 0010 07A3     		adr	r3, .L256+8
 3062 0012 D3E90023 		ldrd	r2, [r3]
 3063 0016 FFF7FEFF 		bl	__aeabi_dmul
 3064              	.LVL420:
 3065 001a FFF7FEFF 		bl	__aeabi_d2iz
 3066              	.LVL421:
 3067 001e 00B2     		sxth	r0, r0
 3068 0020 FFF7FEFF 		bl	Set_Vgs_Rel
 3069              	.LVL422:
 3070 0024 08BD     		pop	{r3, pc}
 3071              	.L257:
 3072 0026 00BF     		.align	3
 3073              	.L256:
 3074 0028 52B81E85 		.word	-2061584302
 3075 002c EB511040 		.word	1074811371
 3076 0030 00000000 		.word	0
 3077 0034 00E06F40 		.word	1081073664
 3078              		.cfi_endproc
 3079              	.LFE93:
 3080              		.size	Set_Vgs, .-Set_Vgs
 3081              		.section	.text.Set_Vds,"ax",%progbits
 3082              		.align	2
 3083              		.global	Set_Vds
 3084              		.thumb
 3085              		.thumb_func
 3086              		.type	Set_Vds, %function
 3087              	Set_Vds:
 3088              	.LFB94:
 496:main.c        **** 	Set_Vds_Rel((voltage/4.080)*255.0);
 3089              		.loc 2 496 0
 3090              		.cfi_startproc
 3091              		@ args = 0, pretend = 0, frame = 0
 3092              		@ frame_needed = 0, uses_anonymous_args = 0
 3093              	.LVL423:
 3094 0000 08B5     		push	{r3, lr}
 3095              		.cfi_def_cfa_offset 8
 3096              		.cfi_offset 3, -8
 3097              		.cfi_offset 14, -4
 497:main.c        **** }
 3098              		.loc 2 497 0
 3099 0002 FFF7FEFF 		bl	__aeabi_f2d
 3100              	.LVL424:
 3101 0006 08A3     		adr	r3, .L260
 3102 0008 D3E90023 		ldrd	r2, [r3]
 3103 000c FFF7FEFF 		bl	__aeabi_ddiv
 3104              	.LVL425:
 3105 0010 07A3     		adr	r3, .L260+8
 3106 0012 D3E90023 		ldrd	r2, [r3]
 3107 0016 FFF7FEFF 		bl	__aeabi_dmul
ARM GAS  C:\Users\FRANKL~1\AppData\Local\Temp\ccPy0viy.s 			page 78


 3108              	.LVL426:
 3109 001a FFF7FEFF 		bl	__aeabi_d2iz
 3110              	.LVL427:
 3111 001e 00B2     		sxth	r0, r0
 3112 0020 FFF7FEFF 		bl	Set_Vds_Rel
 3113              	.LVL428:
 3114 0024 08BD     		pop	{r3, pc}
 3115              	.L261:
 3116 0026 00BF     		.align	3
 3117              	.L260:
 3118 0028 52B81E85 		.word	-2061584302
 3119 002c EB511040 		.word	1074811371
 3120 0030 00000000 		.word	0
 3121 0034 00E06F40 		.word	1081073664
 3122              		.cfi_endproc
 3123              	.LFE94:
 3124              		.size	Set_Vds, .-Set_Vds
 3125              		.section	.text.Set_Vgs_mV,"ax",%progbits
 3126              		.align	2
 3127              		.global	Set_Vgs_mV
 3128              		.thumb
 3129              		.thumb_func
 3130              		.type	Set_Vgs_mV, %function
 3131              	Set_Vgs_mV:
 3132              	.LFB95:
 500:main.c        **** 	Set_Vgs(mV/1000.0);
 3133              		.loc 2 500 0
 3134              		.cfi_startproc
 3135              		@ args = 0, pretend = 0, frame = 0
 3136              		@ frame_needed = 0, uses_anonymous_args = 0
 3137              	.LVL429:
 3138 0000 08B5     		push	{r3, lr}
 3139              		.cfi_def_cfa_offset 8
 3140              		.cfi_offset 3, -8
 3141              		.cfi_offset 14, -4
 501:main.c        **** }
 3142              		.loc 2 501 0
 3143 0002 0349     		ldr	r1, .L264
 3144 0004 FFF7FEFF 		bl	__aeabi_fdiv
 3145              	.LVL430:
 3146 0008 FFF7FEFF 		bl	Set_Vgs
 3147              	.LVL431:
 3148 000c 08BD     		pop	{r3, pc}
 3149              	.L265:
 3150 000e 00BF     		.align	2
 3151              	.L264:
 3152 0010 00007A44 		.word	1148846080
 3153              		.cfi_endproc
 3154              	.LFE95:
 3155              		.size	Set_Vgs_mV, .-Set_Vgs_mV
 3156              		.section	.text.Set_Vds_mV,"ax",%progbits
 3157              		.align	2
 3158              		.global	Set_Vds_mV
 3159              		.thumb
 3160              		.thumb_func
 3161              		.type	Set_Vds_mV, %function
 3162              	Set_Vds_mV:
ARM GAS  C:\Users\FRANKL~1\AppData\Local\Temp\ccPy0viy.s 			page 79


 3163              	.LFB96:
 504:main.c        **** 	Set_Vds(mV/1000.0);
 3164              		.loc 2 504 0
 3165              		.cfi_startproc
 3166              		@ args = 0, pretend = 0, frame = 0
 3167              		@ frame_needed = 0, uses_anonymous_args = 0
 3168              	.LVL432:
 3169 0000 08B5     		push	{r3, lr}
 3170              		.cfi_def_cfa_offset 8
 3171              		.cfi_offset 3, -8
 3172              		.cfi_offset 14, -4
 505:main.c        **** }
 3173              		.loc 2 505 0
 3174 0002 0349     		ldr	r1, .L268
 3175 0004 FFF7FEFF 		bl	__aeabi_fdiv
 3176              	.LVL433:
 3177 0008 FFF7FEFF 		bl	Set_Vds
 3178              	.LVL434:
 3179 000c 08BD     		pop	{r3, pc}
 3180              	.L269:
 3181 000e 00BF     		.align	2
 3182              	.L268:
 3183 0010 00007A44 		.word	1148846080
 3184              		.cfi_endproc
 3185              	.LFE96:
 3186              		.size	Set_Vds_mV, .-Set_Vds_mV
 3187              		.section	.text.Get_Ref,"ax",%progbits
 3188              		.align	2
 3189              		.global	Get_Ref
 3190              		.thumb
 3191              		.thumb_func
 3192              		.type	Get_Ref, %function
 3193              	Get_Ref:
 3194              	.LFB97:
 508:main.c        **** 	float result = 4.080/255.0*VDAC_Ref_Data;
 3195              		.loc 2 508 0
 3196              		.cfi_startproc
 3197              		@ args = 0, pretend = 0, frame = 0
 3198              		@ frame_needed = 0, uses_anonymous_args = 0
 3199 0000 08B5     		push	{r3, lr}
 3200              		.cfi_def_cfa_offset 8
 3201              		.cfi_offset 3, -8
 3202              		.cfi_offset 14, -4
 509:main.c        **** 	if (VDAC_Ref_CR0 & (VDAC_Ref_RANGE_1V & VDAC_Ref_RANGE_MASK)) {
 3203              		.loc 2 509 0
 3204 0002 094B     		ldr	r3, .L272+8
 3205 0004 1878     		ldrb	r0, [r3]	@ zero_extendqisi2
 3206 0006 FFF7FEFF 		bl	__aeabi_i2d
 3207              	.LVL435:
 3208 000a 05A3     		adr	r3, .L272
 3209 000c D3E90023 		ldrd	r2, [r3]
 3210 0010 FFF7FEFF 		bl	__aeabi_dmul
 3211              	.LVL436:
 3212 0014 FFF7FEFF 		bl	__aeabi_d2f
 3213              	.LVL437:
 510:main.c        **** 		result = 1.020/255.0*VDAC_Ref_Data;
 3214              		.loc 2 510 0
ARM GAS  C:\Users\FRANKL~1\AppData\Local\Temp\ccPy0viy.s 			page 80


 3215 0018 044B     		ldr	r3, .L272+12
 3216 001a 1B78     		ldrb	r3, [r3]	@ zero_extendqisi2
 514:main.c        **** 
 3217              		.loc 2 514 0
 3218 001c 08BD     		pop	{r3, pc}
 3219              	.L273:
 3220 001e 00BF     		.align	3
 3221              	.L272:
 3222 0020 FCA9F1D2 		.word	-755914244
 3223 0024 4D62903F 		.word	1066426957
 3224 0028 805B0040 		.word	1073765248
 3225 002c 20580040 		.word	1073764384
 3226              		.cfi_endproc
 3227              	.LFE97:
 3228              		.size	Get_Ref, .-Get_Ref
 3229              		.section	.text.Get_Vgs,"ax",%progbits
 3230              		.align	2
 3231              		.global	Get_Vgs
 3232              		.thumb
 3233              		.thumb_func
 3234              		.type	Get_Vgs, %function
 3235              	Get_Vgs:
 3236              	.LFB98:
 516:main.c        **** 	float result = 4.080/255.0*VDAC_Vgs_Data - Get_Ref();
 3237              		.loc 2 516 0
 3238              		.cfi_startproc
 3239              		@ args = 0, pretend = 0, frame = 0
 3240              		@ frame_needed = 0, uses_anonymous_args = 0
 3241 0000 38B5     		push	{r3, r4, r5, lr}
 3242              		.cfi_def_cfa_offset 16
 3243              		.cfi_offset 3, -16
 3244              		.cfi_offset 4, -12
 3245              		.cfi_offset 5, -8
 3246              		.cfi_offset 14, -4
 517:main.c        **** 	if (VDAC_Vgs_CR0 & (VDAC_Vgs_RANGE_1V & VDAC_Vgs_RANGE_MASK)) {
 3247              		.loc 2 517 0
 3248 0002 0F4B     		ldr	r3, .L276+8
 3249 0004 1878     		ldrb	r0, [r3]	@ zero_extendqisi2
 3250 0006 FFF7FEFF 		bl	__aeabi_i2d
 3251              	.LVL438:
 3252 000a 0BA3     		adr	r3, .L276
 3253 000c D3E90023 		ldrd	r2, [r3]
 3254 0010 FFF7FEFF 		bl	__aeabi_dmul
 3255              	.LVL439:
 3256 0014 0446     		mov	r4, r0
 3257 0016 0D46     		mov	r5, r1
 3258 0018 FFF7FEFF 		bl	Get_Ref
 3259              	.LVL440:
 3260 001c FFF7FEFF 		bl	__aeabi_f2d
 3261              	.LVL441:
 3262 0020 0246     		mov	r2, r0
 3263 0022 0B46     		mov	r3, r1
 3264 0024 2046     		mov	r0, r4
 3265 0026 2946     		mov	r1, r5
 3266 0028 FFF7FEFF 		bl	__aeabi_dsub
 3267              	.LVL442:
 3268 002c FFF7FEFF 		bl	__aeabi_d2f
ARM GAS  C:\Users\FRANKL~1\AppData\Local\Temp\ccPy0viy.s 			page 81


 3269              	.LVL443:
 518:main.c        **** 		result = 1.020/255.0*VDAC_Vgs_Data - Get_Ref();
 3270              		.loc 2 518 0
 3271 0030 044B     		ldr	r3, .L276+12
 3272 0032 1B78     		ldrb	r3, [r3]	@ zero_extendqisi2
 522:main.c        **** 
 3273              		.loc 2 522 0
 3274 0034 38BD     		pop	{r3, r4, r5, pc}
 3275              	.L277:
 3276 0036 00BF     		.align	3
 3277              	.L276:
 3278 0038 FCA9F1D2 		.word	-755914244
 3279 003c 4D62903F 		.word	1066426957
 3280 0040 835B0040 		.word	1073765251
 3281 0044 2C580040 		.word	1073764396
 3282              		.cfi_endproc
 3283              	.LFE98:
 3284              		.size	Get_Vgs, .-Get_Vgs
 3285              		.section	.text.Get_Vds,"ax",%progbits
 3286              		.align	2
 3287              		.global	Get_Vds
 3288              		.thumb
 3289              		.thumb_func
 3290              		.type	Get_Vds, %function
 3291              	Get_Vds:
 3292              	.LFB99:
 524:main.c        **** 	float result = 4.080/255.0*VDAC_Vds_Data - Get_Ref();
 3293              		.loc 2 524 0
 3294              		.cfi_startproc
 3295              		@ args = 0, pretend = 0, frame = 0
 3296              		@ frame_needed = 0, uses_anonymous_args = 0
 3297 0000 38B5     		push	{r3, r4, r5, lr}
 3298              		.cfi_def_cfa_offset 16
 3299              		.cfi_offset 3, -16
 3300              		.cfi_offset 4, -12
 3301              		.cfi_offset 5, -8
 3302              		.cfi_offset 14, -4
 525:main.c        **** 	if (VDAC_Vds_CR0 & (VDAC_Vds_RANGE_1V & VDAC_Vds_RANGE_MASK)) {
 3303              		.loc 2 525 0
 3304 0002 0F4B     		ldr	r3, .L280+8
 3305 0004 1878     		ldrb	r0, [r3]	@ zero_extendqisi2
 3306 0006 FFF7FEFF 		bl	__aeabi_i2d
 3307              	.LVL444:
 3308 000a 0BA3     		adr	r3, .L280
 3309 000c D3E90023 		ldrd	r2, [r3]
 3310 0010 FFF7FEFF 		bl	__aeabi_dmul
 3311              	.LVL445:
 3312 0014 0446     		mov	r4, r0
 3313 0016 0D46     		mov	r5, r1
 3314 0018 FFF7FEFF 		bl	Get_Ref
 3315              	.LVL446:
 3316 001c FFF7FEFF 		bl	__aeabi_f2d
 3317              	.LVL447:
 3318 0020 0246     		mov	r2, r0
 3319 0022 0B46     		mov	r3, r1
 3320 0024 2046     		mov	r0, r4
 3321 0026 2946     		mov	r1, r5
ARM GAS  C:\Users\FRANKL~1\AppData\Local\Temp\ccPy0viy.s 			page 82


 3322 0028 FFF7FEFF 		bl	__aeabi_dsub
 3323              	.LVL448:
 3324 002c FFF7FEFF 		bl	__aeabi_d2f
 3325              	.LVL449:
 526:main.c        **** 		result = 1.020/255.0*VDAC_Vds_Data - Get_Ref();
 3326              		.loc 2 526 0
 3327 0030 044B     		ldr	r3, .L280+12
 3328 0032 1B78     		ldrb	r3, [r3]	@ zero_extendqisi2
 530:main.c        **** 
 3329              		.loc 2 530 0
 3330 0034 38BD     		pop	{r3, r4, r5, pc}
 3331              	.L281:
 3332 0036 00BF     		.align	3
 3333              	.L280:
 3334 0038 FCA9F1D2 		.word	-755914244
 3335 003c 4D62903F 		.word	1066426957
 3336 0040 825B0040 		.word	1073765250
 3337 0044 28580040 		.word	1073764392
 3338              		.cfi_endproc
 3339              	.LFE99:
 3340              		.size	Get_Vds, .-Get_Vds
 3341              		.section	.text.Zero_All_DACs,"ax",%progbits
 3342              		.align	2
 3343              		.global	Zero_All_DACs
 3344              		.thumb
 3345              		.thumb_func
 3346              		.type	Zero_All_DACs, %function
 3347              	Zero_All_DACs:
 3348              	.LFB100:
 532:main.c        **** 	Set_Vds_Raw(0);
 3349              		.loc 2 532 0
 3350              		.cfi_startproc
 3351              		@ args = 0, pretend = 0, frame = 0
 3352              		@ frame_needed = 0, uses_anonymous_args = 0
 3353 0000 08B5     		push	{r3, lr}
 3354              		.cfi_def_cfa_offset 8
 3355              		.cfi_offset 3, -8
 3356              		.cfi_offset 14, -4
 533:main.c        **** 	Set_Vgs_Raw(0);
 3357              		.loc 2 533 0
 3358 0002 0020     		movs	r0, #0
 3359 0004 FFF7FEFF 		bl	Set_Vds_Raw
 3360              	.LVL450:
 534:main.c        **** 	
 3361              		.loc 2 534 0
 3362 0008 0020     		movs	r0, #0
 3363 000a FFF7FEFF 		bl	Set_Vgs_Raw
 3364              	.LVL451:
 536:main.c        **** 	VDAC_Vgs_SetValue(0);
 3365              		.loc 2 536 0
 3366 000e 0020     		movs	r0, #0
 3367 0010 FFF7FEFF 		bl	VDAC_Vds_SetValue
 3368              	.LVL452:
 537:main.c        **** }
 3369              		.loc 2 537 0
 3370 0014 0020     		movs	r0, #0
 3371 0016 FFF7FEFF 		bl	VDAC_Vgs_SetValue
ARM GAS  C:\Users\FRANKL~1\AppData\Local\Temp\ccPy0viy.s 			page 83


 3372              	.LVL453:
 3373 001a 08BD     		pop	{r3, pc}
 3374              		.cfi_endproc
 3375              	.LFE100:
 3376              		.size	Zero_All_DACs, .-Zero_All_DACs
 3377              		.section	.text.Measure,"ax",%progbits
 3378              		.align	2
 3379              		.global	Measure
 3380              		.thumb
 3381              		.thumb_func
 3382              		.type	Measure, %function
 3383              	Measure:
 3384              	.LFB101:
 540:main.c        **** 	int32 IdsAverage = 0;
 3385              		.loc 2 540 0
 3386              		.cfi_startproc
 3387              		@ args = 0, pretend = 0, frame = 24
 3388              		@ frame_needed = 0, uses_anonymous_args = 0
 3389 0000 2DE9F047 		push	{r4, r5, r6, r7, r8, r9, r10, lr}
 3390              		.cfi_def_cfa_offset 32
 3391              		.cfi_offset 4, -32
 3392              		.cfi_offset 5, -28
 3393              		.cfi_offset 6, -24
 3394              		.cfi_offset 7, -20
 3395              		.cfi_offset 8, -16
 3396              		.cfi_offset 9, -12
 3397              		.cfi_offset 10, -8
 3398              		.cfi_offset 14, -4
 3399 0004 8EB0     		sub	sp, sp, #56
 3400              		.cfi_def_cfa_offset 88
 541:main.c        **** 	int32 IdsStandardDeviation = 0;
 3401              		.loc 2 541 0
 3402 0006 0023     		movs	r3, #0
 3403 0008 0D93     		str	r3, [sp, #52]
 542:main.c        **** 	
 3404              		.loc 2 542 0
 3405 000a 0EA9     		add	r1, sp, #56
 3406 000c 41F8083D 		str	r3, [r1, #-8]!
 544:main.c        **** 	
 3407              		.loc 2 544 0
 3408 0010 6422     		movs	r2, #100
 3409 0012 0DA8     		add	r0, sp, #52
 3410 0014 FFF7FEFF 		bl	ADC_Measure_uV
 3411              	.LVL454:
 546:main.c        **** 	
 3412              		.loc 2 546 0
 3413 0018 0D98     		ldr	r0, [sp, #52]
 3414 001a FFF7FEFF 		bl	__aeabi_i2d
 3415              	.LVL455:
 3416 001e 28A3     		adr	r3, .L286
 3417 0020 D3E90023 		ldrd	r2, [r3]
 3418 0024 FFF7FEFF 		bl	__aeabi_dmul
 3419              	.LVL456:
 3420 0028 FFF7FEFF 		bl	__aeabi_d2f
 3421              	.LVL457:
 3422 002c 0446     		mov	r4, r0
 3423              	.LVL458:
ARM GAS  C:\Users\FRANKL~1\AppData\Local\Temp\ccPy0viy.s 			page 84


 556:main.c        **** 	float SAR1_SD = 0;
 3424              		.loc 2 556 0
 3425 002e 0023     		movs	r3, #0
 3426 0030 0B93     		str	r3, [sp, #44]	@ float
 557:main.c        **** 	float SAR2_Average = 0;
 3427              		.loc 2 557 0
 3428 0032 0A93     		str	r3, [sp, #40]	@ float
 558:main.c        **** 	float SAR2_SD = 0;
 3429              		.loc 2 558 0
 3430 0034 0993     		str	r3, [sp, #36]	@ float
 559:main.c        **** 
 3431              		.loc 2 559 0
 3432 0036 0893     		str	r3, [sp, #32]	@ float
 561:main.c        **** 	SAR2_Measure_V(&SAR2_Average, &SAR2_SD, 10);
 3433              		.loc 2 561 0
 3434 0038 0222     		movs	r2, #2
 3435 003a 0AA9     		add	r1, sp, #40
 3436 003c 0BA8     		add	r0, sp, #44
 3437              	.LVL459:
 3438 003e FFF7FEFF 		bl	SAR1_Measure_V
 3439              	.LVL460:
 562:main.c        **** 
 3440              		.loc 2 562 0
 3441 0042 0A22     		movs	r2, #10
 3442 0044 08A9     		add	r1, sp, #32
 3443 0046 09A8     		add	r0, sp, #36
 3444 0048 FFF7FEFF 		bl	SAR2_Measure_V
 3445              	.LVL461:
 564:main.c        **** 	float SAR2 = SAR2_Average;
 3446              		.loc 2 564 0
 3447 004c DDF82C90 		ldr	r9, [sp, #44]	@ float
 3448              	.LVL462:
 565:main.c        **** 
 3449              		.loc 2 565 0
 3450 0050 DDF824A0 		ldr	r10, [sp, #36]	@ float
 3451              	.LVL463:
 567:main.c        **** 	USBUARTH_Send(TransmitBuffer, strlen(TransmitBuffer));
 3452              		.loc 2 567 0
 3453 0054 FFF7FEFF 		bl	Get_Vgs
 3454              	.LVL464:
 3455 0058 0546     		mov	r5, r0
 3456 005a FFF7FEFF 		bl	Get_Vds
 3457              	.LVL465:
 3458 005e 8046     		mov	r8, r0
 3459 0060 2046     		mov	r0, r4
 3460 0062 FFF7FEFF 		bl	__aeabi_f2d
 3461              	.LVL466:
 3462 0066 0646     		mov	r6, r0
 3463 0068 0F46     		mov	r7, r1
 3464 006a 174C     		ldr	r4, .L286+8
 3465              	.LVL467:
 3466 006c 5046     		mov	r0, r10
 3467 006e FFF7FEFF 		bl	__aeabi_f2d
 3468              	.LVL468:
 3469 0072 CDE90601 		strd	r0, [sp, #24]
 3470 0076 4846     		mov	r0, r9
 3471 0078 FFF7FEFF 		bl	__aeabi_f2d
ARM GAS  C:\Users\FRANKL~1\AppData\Local\Temp\ccPy0viy.s 			page 85


 3472              	.LVL469:
 3473 007c CDE90401 		strd	r0, [sp, #16]
 3474 0080 4046     		mov	r0, r8
 3475 0082 FFF7FEFF 		bl	__aeabi_f2d
 3476              	.LVL470:
 3477 0086 CDE90201 		strd	r0, [sp, #8]
 3478 008a 2846     		mov	r0, r5
 3479 008c FFF7FEFF 		bl	__aeabi_f2d
 3480              	.LVL471:
 3481 0090 CDE90001 		strd	r0, [sp]
 3482 0094 3246     		mov	r2, r6
 3483 0096 3B46     		mov	r3, r7
 3484 0098 0C49     		ldr	r1, .L286+12
 3485 009a 2046     		mov	r0, r4
 3486 009c FFF7FEFF 		bl	sprintf
 3487              	.LVL472:
 568:main.c        **** 	UART_1_PutString(TransmitBuffer);
 3488              		.loc 2 568 0
 3489 00a0 2046     		mov	r0, r4
 3490 00a2 FFF7FEFF 		bl	strlen
 3491              	.LVL473:
 3492 00a6 81B2     		uxth	r1, r0
 3493 00a8 2046     		mov	r0, r4
 3494 00aa FFF7FEFF 		bl	USBUARTH_Send
 3495              	.LVL474:
 569:main.c        **** }
 3496              		.loc 2 569 0
 3497 00ae 2046     		mov	r0, r4
 3498 00b0 FFF7FEFF 		bl	UART_1_PutString
 3499              	.LVL475:
 570:main.c        **** 
 3500              		.loc 2 570 0
 3501 00b4 0EB0     		add	sp, sp, #56
 3502              		.cfi_def_cfa_offset 32
 3503              		@ sp needed
 3504 00b6 BDE8F087 		pop	{r4, r5, r6, r7, r8, r9, r10, pc}
 3505              	.LVL476:
 3506              	.L287:
 3507 00ba 00BFAFF3 		.align	3
 3507      0080
 3508              	.L286:
 3509 00c0 BABDD7D9 		.word	-640172614
 3510 00c4 DF7CCBBD 		.word	-1110737697
 3511 00c8 00000000 		.word	TransmitBuffer
 3512 00cc B0000000 		.word	.LC12
 3513              		.cfi_endproc
 3514              	.LFE101:
 3515              		.size	Measure, .-Measure
 3516              		.section	.text.Measure_Multiple,"ax",%progbits
 3517              		.align	2
 3518              		.global	Measure_Multiple
 3519              		.thumb
 3520              		.thumb_func
 3521              		.type	Measure_Multiple, %function
 3522              	Measure_Multiple:
 3523              	.LFB102:
 572:main.c        **** 	for (uint32 i = 0; i < n; i++) {
ARM GAS  C:\Users\FRANKL~1\AppData\Local\Temp\ccPy0viy.s 			page 86


 3524              		.loc 2 572 0
 3525              		.cfi_startproc
 3526              		@ args = 0, pretend = 0, frame = 0
 3527              		@ frame_needed = 0, uses_anonymous_args = 0
 3528              	.LVL477:
 3529 0000 38B5     		push	{r3, r4, r5, lr}
 3530              		.cfi_def_cfa_offset 16
 3531              		.cfi_offset 3, -16
 3532              		.cfi_offset 4, -12
 3533              		.cfi_offset 5, -8
 3534              		.cfi_offset 14, -4
 3535 0002 0546     		mov	r5, r0
 3536              	.LVL478:
 3537              	.LBB44:
 573:main.c        **** 		Measure();
 3538              		.loc 2 573 0
 3539 0004 0024     		movs	r4, #0
 3540 0006 02E0     		b	.L289
 3541              	.LVL479:
 3542              	.L290:
 574:main.c        **** 	}
 3543              		.loc 2 574 0 discriminator 3
 3544 0008 FFF7FEFF 		bl	Measure
 3545              	.LVL480:
 573:main.c        **** 		Measure();
 3546              		.loc 2 573 0 discriminator 3
 3547 000c 0134     		adds	r4, r4, #1
 3548              	.LVL481:
 3549              	.L289:
 573:main.c        **** 		Measure();
 3550              		.loc 2 573 0 is_stmt 0 discriminator 1
 3551 000e AC42     		cmp	r4, r5
 3552 0010 FAD3     		bcc	.L290
 3553              	.LBE44:
 576:main.c        **** 
 3554              		.loc 2 576 0 is_stmt 1
 3555 0012 38BD     		pop	{r3, r4, r5, pc}
 3556              		.cfi_endproc
 3557              	.LFE102:
 3558              		.size	Measure_Multiple, .-Measure_Multiple
 3559              		.section	.text.Measure_Gate_Sweep_New,"ax",%progbits
 3560              		.align	2
 3561              		.global	Measure_Gate_Sweep_New
 3562              		.thumb
 3563              		.thumb_func
 3564              		.type	Measure_Gate_Sweep_New, %function
 3565              	Measure_Gate_Sweep_New:
 3566              	.LFB103:
 578:main.c        **** 	uint8 refTurn = 1;
 3567              		.loc 2 578 0
 3568              		.cfi_startproc
 3569              		@ args = 0, pretend = 0, frame = 0
 3570              		@ frame_needed = 0, uses_anonymous_args = 0
 3571 0000 2DE9F843 		push	{r3, r4, r5, r6, r7, r8, r9, lr}
 3572              		.cfi_def_cfa_offset 32
 3573              		.cfi_offset 3, -32
 3574              		.cfi_offset 4, -28
ARM GAS  C:\Users\FRANKL~1\AppData\Local\Temp\ccPy0viy.s 			page 87


 3575              		.cfi_offset 5, -24
 3576              		.cfi_offset 6, -20
 3577              		.cfi_offset 7, -16
 3578              		.cfi_offset 8, -12
 3579              		.cfi_offset 9, -8
 3580              		.cfi_offset 14, -4
 3581              	.LVL482:
 590:main.c        **** 	
 3582              		.loc 2 590 0
 3583 0004 0027     		movs	r7, #0
 589:main.c        **** 	uint8 gateArrived = 0;
 3584              		.loc 2 589 0
 3585 0006 3E46     		mov	r6, r7
 584:main.c        **** 	
 3586              		.loc 2 584 0
 3587 0008 B946     		mov	r9, r7
 583:main.c        **** 	uint8 refArrived = 0;
 3588              		.loc 2 583 0
 3589 000a 3D46     		mov	r5, r7
 579:main.c        **** 	int8 refIncrement = 1;
 3590              		.loc 2 579 0
 3591 000c 0124     		movs	r4, #1
 593:main.c        **** 		gateArrived = abs(gateIndex-endGateIndex) < abs(gateIncrement);
 3592              		.loc 2 593 0
 3593 000e 36E0     		b	.L293
 3594              	.LVL483:
 3595              	.L301:
 594:main.c        **** 		refArrived = abs(refIndex-endRefIndex) < abs(refIncrement);
 3596              		.loc 2 594 0
 3597 0010 86EAE673 		eor	r3, r6, r6, asr #31
 3598 0014 A3EBE673 		sub	r3, r3, r6, asr #31
 3599 0018 002B     		cmp	r3, #0
 3600 001a CCBF     		ite	gt
 3601 001c 0027     		movgt	r7, #0
 3602              	.LVL484:
 3603 001e 0127     		movle	r7, #1
 3604              	.LVL485:
 595:main.c        **** 		
 3605              		.loc 2 595 0
 3606 0020 85EAE572 		eor	r2, r5, r5, asr #31
 3607 0024 A2EBE572 		sub	r2, r2, r5, asr #31
 3608 0028 002A     		cmp	r2, #0
 3609 002a CCBF     		ite	gt
 3610 002c 4FF00009 		movgt	r9, #0
 3611              	.LVL486:
 3612 0030 4FF00109 		movle	r9, #1
 3613              	.LVL487:
 597:main.c        **** 		
 3614              		.loc 2 597 0
 3615 0034 002C     		cmp	r4, #0
 3616 0036 0CBF     		ite	eq
 3617 0038 4FF00108 		moveq	r8, #1
 3618 003c 4FF00008 		movne	r8, #0
 3619              	.LVL488:
 599:main.c        **** 		if (!refTurn && gateArrived) continue;
 3620              		.loc 2 599 0
 3621 0040 01D1     		bne	.L294
ARM GAS  C:\Users\FRANKL~1\AppData\Local\Temp\ccPy0viy.s 			page 88


 599:main.c        **** 		if (!refTurn && gateArrived) continue;
 3622              		.loc 2 599 0 is_stmt 0 discriminator 1
 3623 0042 002A     		cmp	r2, #0
 3624 0044 1ADD     		ble	.L295
 3625              	.L294:
 600:main.c        **** 		
 3626              		.loc 2 600 0 is_stmt 1
 3627 0046 0CB1     		cbz	r4, .L296
 600:main.c        **** 		
 3628              		.loc 2 600 0 is_stmt 0 discriminator 1
 3629 0048 002B     		cmp	r3, #0
 3630 004a 17DD     		ble	.L295
 3631              	.L296:
 602:main.c        **** 		Set_Vgs_Raw(gateIndex);
 3632              		.loc 2 602 0 is_stmt 1
 3633 004c 2846     		mov	r0, r5
 3634 004e FFF7FEFF 		bl	Set_Ref_Raw
 3635              	.LVL489:
 603:main.c        **** 		
 3636              		.loc 2 603 0
 3637 0052 3046     		mov	r0, r6
 3638 0054 FFF7FEFF 		bl	Set_Vgs_Raw
 3639              	.LVL490:
 605:main.c        **** 		
 3640              		.loc 2 605 0
 3641 0058 FFF7FEFF 		bl	Measure
 3642              	.LVL491:
 607:main.c        **** 			refIndex += refIncrement;
 3643              		.loc 2 607 0
 3644 005c 14B9     		cbnz	r4, .L297
 608:main.c        **** 		} else {
 3645              		.loc 2 608 0
 3646 005e 0135     		adds	r5, r5, #1
 3647              	.LVL492:
 3648 0060 EDB2     		uxtb	r5, r5
 3649              	.LVL493:
 3650 0062 01E0     		b	.L298
 3651              	.L297:
 610:main.c        **** 		}
 3652              		.loc 2 610 0
 3653 0064 0136     		adds	r6, r6, #1
 3654              	.LVL494:
 3655 0066 F6B2     		uxtb	r6, r6
 3656              	.LVL495:
 3657              	.L298:
 613:main.c        **** 		while (G_Pause);
 3658              		.loc 2 613 0
 3659 0068 084B     		ldr	r3, .L303
 3660 006a 5B78     		ldrb	r3, [r3, #1]	@ zero_extendqisi2
 3661 006c 13F0FF0F 		tst	r3, #255
 3662 0070 0AD1     		bne	.L292
 3663              	.L300:
 614:main.c        **** 	}
 3664              		.loc 2 614 0 discriminator 1
 3665 0072 064B     		ldr	r3, .L303
 3666 0074 DB78     		ldrb	r3, [r3, #3]	@ zero_extendqisi2
 3667 0076 13F0FF0F 		tst	r3, #255
ARM GAS  C:\Users\FRANKL~1\AppData\Local\Temp\ccPy0viy.s 			page 89


 3668 007a FAD1     		bne	.L300
 3669              	.L295:
 578:main.c        **** 	uint8 refTurn = 1;
 3670              		.loc 2 578 0
 3671 007c 4446     		mov	r4, r8
 3672              	.LVL496:
 3673              	.L293:
 593:main.c        **** 		gateArrived = abs(gateIndex-endGateIndex) < abs(gateIncrement);
 3674              		.loc 2 593 0
 3675 007e 002F     		cmp	r7, #0
 3676 0080 C6D0     		beq	.L301
 593:main.c        **** 		gateArrived = abs(gateIndex-endGateIndex) < abs(gateIncrement);
 3677              		.loc 2 593 0 is_stmt 0 discriminator 1
 3678 0082 B9F1000F 		cmp	r9, #0
 3679 0086 C3D0     		beq	.L301
 3680              	.LVL497:
 3681              	.L292:
 3682 0088 BDE8F883 		pop	{r3, r4, r5, r6, r7, r8, r9, pc}
 3683              	.LVL498:
 3684              	.L304:
 3685              		.align	2
 3686              	.L303:
 3687 008c 00000000 		.word	.LANCHOR0
 3688              		.cfi_endproc
 3689              	.LFE103:
 3690              		.size	Measure_Gate_Sweep_New, .-Measure_Gate_Sweep_New
 3691              		.section	.text.Measure_Gate_Sweep,"ax",%progbits
 3692              		.align	2
 3693              		.global	Measure_Gate_Sweep
 3694              		.thumb
 3695              		.thumb_func
 3696              		.type	Measure_Gate_Sweep, %function
 3697              	Measure_Gate_Sweep:
 3698              	.LFB104:
 618:main.c        **** 	
 3699              		.loc 2 618 0 is_stmt 1
 3700              		.cfi_startproc
 3701              		@ args = 0, pretend = 0, frame = 32
 3702              		@ frame_needed = 0, uses_anonymous_args = 0
 3703              	.LVL499:
 3704 0000 2DE9F04F 		push	{r4, r5, r6, r7, r8, r9, r10, fp, lr}
 3705              		.cfi_def_cfa_offset 36
 3706              		.cfi_offset 4, -36
 3707              		.cfi_offset 5, -32
 3708              		.cfi_offset 6, -28
 3709              		.cfi_offset 7, -24
 3710              		.cfi_offset 8, -20
 3711              		.cfi_offset 9, -16
 3712              		.cfi_offset 10, -12
 3713              		.cfi_offset 11, -8
 3714              		.cfi_offset 14, -4
 3715 0004 91B0     		sub	sp, sp, #68
 3716              		.cfi_def_cfa_offset 104
 3717 0006 0D90     		str	r0, [sp, #52]
 620:main.c        **** 		Set_Ref_Raw(254 - Vds_Index_Goal_Relative);
 3718              		.loc 2 620 0
 3719 0008 594B     		ldr	r3, .L323+8
ARM GAS  C:\Users\FRANKL~1\AppData\Local\Temp\ccPy0viy.s 			page 90


 3720 000a B3F90030 		ldrsh	r3, [r3]
 3721 000e 002B     		cmp	r3, #0
 3722 0010 07DD     		ble	.L306
 621:main.c        **** 	} else {
 3723              		.loc 2 621 0
 3724 0012 C3F1FE00 		rsb	r0, r3, #254
 3725              	.LVL500:
 3726 0016 C0B2     		uxtb	r0, r0
 3727 0018 FFF7FEFF 		bl	Set_Ref_Raw
 3728              	.LVL501:
 3729              	.L308:
 3730              	.LBB45:
 3731              	.LBB46:
 3732              	.LBB47:
 3733 001c 0023     		movs	r3, #0
 3734 001e 0C93     		str	r3, [sp, #48]
 3735 0020 97E0     		b	.L307
 3736              	.LVL502:
 3737              	.L306:
 3738              	.LBE47:
 3739              	.LBE46:
 3740              	.LBE45:
 623:main.c        **** 	}
 3741              		.loc 2 623 0
 3742 0022 FE20     		movs	r0, #254
 3743              	.LVL503:
 3744 0024 FFF7FEFF 		bl	Set_Ref_Raw
 3745              	.LVL504:
 3746 0028 F8E7     		b	.L308
 3747              	.LVL505:
 3748              	.L319:
 3749              	.LBB53:
 3750              	.LBB52:
 637:main.c        **** 			direction = -1*speed;
 3751              		.loc 2 637 0
 3752 002a 0C9B     		ldr	r3, [sp, #48]
 3753 002c 13F0010F 		tst	r3, #1
 3754 0030 07D1     		bne	.L320
 635:main.c        **** 		
 3755              		.loc 2 635 0
 3756 0032 4FF0F008 		mov	r8, #240
 630:main.c        **** 		if (Vds_Index_Goal_Relative < 0) {
 3757              		.loc 2 630 0
 3758 0036 0027     		movs	r7, #0
 629:main.c        **** 		uint8 istart = 0;
 3759              		.loc 2 629 0
 3760 0038 1026     		movs	r6, #16
 3761 003a 3B46     		mov	r3, r7
 3762 003c 4746     		mov	r7, r8
 3763 003e 9846     		mov	r8, r3
 3764 0040 81E0     		b	.L310
 3765              	.L320:
 640:main.c        **** 		}
 3766              		.loc 2 640 0
 3767 0042 4FF00008 		mov	r8, #0
 639:main.c        **** 			istop = 0;
 3768              		.loc 2 639 0
ARM GAS  C:\Users\FRANKL~1\AppData\Local\Temp\ccPy0viy.s 			page 91


 3769 0046 F027     		movs	r7, #240
 638:main.c        **** 			istart = 256-speed;
 3770              		.loc 2 638 0
 3771 0048 6FF00F06 		mvn	r6, #15
 3772              	.LVL506:
 3773 004c 3B46     		mov	r3, r7
 3774 004e 4746     		mov	r7, r8
 3775              	.LVL507:
 3776 0050 9846     		mov	r8, r3
 3777              	.LVL508:
 3778              	.LBB51:
 643:main.c        **** 			for (uint8 j = 0; j <= 1; j++) {
 3779              		.loc 2 643 0
 3780 0052 78E0     		b	.L310
 3781              	.LVL509:
 3782              	.L318:
 3783              	.LBB48:
 3784              	.LBB49:
 645:main.c        **** 				int32 IdsStandardDeviation = 0;
 3785              		.loc 2 645 0
 3786 0054 0023     		movs	r3, #0
 3787 0056 0E93     		str	r3, [sp, #56]
 646:main.c        **** 				
 3788              		.loc 2 646 0
 3789 0058 0F93     		str	r3, [sp, #60]
 648:main.c        **** 				Set_Vgs_Raw(i);
 3790              		.loc 2 648 0
 3791 005a 012C     		cmp	r4, #1
 3792 005c 04D1     		bne	.L311
 648:main.c        **** 				Set_Vgs_Raw(i);
 3793              		.loc 2 648 0 is_stmt 0 discriminator 1
 3794 005e 6FEA0800 		mvn	r0, r8
 3795 0062 C0B2     		uxtb	r0, r0
 3796 0064 FFF7FEFF 		bl	Set_Ref_Raw
 3797              	.LVL510:
 3798              	.L311:
 649:main.c        **** 				
 3799              		.loc 2 649 0 is_stmt 1
 3800 0068 4046     		mov	r0, r8
 3801 006a FFF7FEFF 		bl	Set_Vgs_Raw
 3802              	.LVL511:
 651:main.c        **** 				
 3803              		.loc 2 651 0
 3804 006e 2122     		movs	r2, #33
 3805 0070 0FA9     		add	r1, sp, #60
 3806 0072 0EA8     		add	r0, sp, #56
 3807 0074 FFF7FEFF 		bl	ADC_Measure_uV
 3808              	.LVL512:
 653:main.c        **** 				
 3809              		.loc 2 653 0
 3810 0078 0E98     		ldr	r0, [sp, #56]
 3811 007a FFF7FEFF 		bl	__aeabi_i2d
 3812              	.LVL513:
 3813 007e 3AA3     		adr	r3, .L323
 3814 0080 D3E90023 		ldrd	r2, [r3]
 3815 0084 FFF7FEFF 		bl	__aeabi_dmul
 3816              	.LVL514:
ARM GAS  C:\Users\FRANKL~1\AppData\Local\Temp\ccPy0viy.s 			page 92


 3817 0088 FFF7FEFF 		bl	__aeabi_d2f
 3818              	.LVL515:
 3819 008c 0546     		mov	r5, r0
 3820              	.LVL516:
 655:main.c        **** 				ADC_SAR_2_StartConvert();
 3821              		.loc 2 655 0
 3822 008e FFF7FEFF 		bl	ADC_SAR_1_StartConvert
 3823              	.LVL517:
 656:main.c        **** 				while (!ADC_SAR_1_IsEndConversion(ADC_SAR_1_RETURN_STATUS));
 3824              		.loc 2 656 0
 3825 0092 FFF7FEFF 		bl	ADC_SAR_2_StartConvert
 3826              	.LVL518:
 3827              	.L312:
 657:main.c        **** 				while (!ADC_SAR_2_IsEndConversion(ADC_SAR_2_RETURN_STATUS));
 3828              		.loc 2 657 0 discriminator 1
 3829 0096 0120     		movs	r0, #1
 3830 0098 FFF7FEFF 		bl	ADC_SAR_1_IsEndConversion
 3831              	.LVL519:
 3832 009c 0028     		cmp	r0, #0
 3833 009e FAD0     		beq	.L312
 3834              	.L313:
 658:main.c        **** 				
 3835              		.loc 2 658 0 discriminator 1
 3836 00a0 0120     		movs	r0, #1
 3837 00a2 FFF7FEFF 		bl	ADC_SAR_2_IsEndConversion
 3838              	.LVL520:
 3839 00a6 0028     		cmp	r0, #0
 3840 00a8 FAD0     		beq	.L313
 660:main.c        **** 				float SAR2 = ADC_SAR_2_CountsTo_Volts(ADC_SAR_2_GetResult16());
 3841              		.loc 2 660 0
 3842 00aa FFF7FEFF 		bl	ADC_SAR_1_GetResult16
 3843              	.LVL521:
 3844 00ae FFF7FEFF 		bl	ADC_SAR_1_CountsTo_Volts
 3845              	.LVL522:
 3846 00b2 8246     		mov	r10, r0
 3847              	.LVL523:
 661:main.c        **** 				
 3848              		.loc 2 661 0
 3849 00b4 FFF7FEFF 		bl	ADC_SAR_2_GetResult16
 3850              	.LVL524:
 3851 00b8 FFF7FEFF 		bl	ADC_SAR_2_CountsTo_Volts
 3852              	.LVL525:
 3853 00bc 8346     		mov	fp, r0
 3854              	.LVL526:
 663:main.c        **** 				USBUARTH_Send(TransmitBuffer, strlen(TransmitBuffer));
 3855              		.loc 2 663 0
 3856 00be FFF7FEFF 		bl	Get_Vgs
 3857              	.LVL527:
 3858 00c2 0990     		str	r0, [sp, #36]	@ float
 3859 00c4 FFF7FEFF 		bl	Get_Vds
 3860              	.LVL528:
 3861 00c8 8146     		mov	r9, r0
 3862 00ca 2846     		mov	r0, r5
 3863 00cc FFF7FEFF 		bl	__aeabi_f2d
 3864              	.LVL529:
 3865 00d0 CDE90A01 		strd	r0, [sp, #40]
 3866 00d4 274D     		ldr	r5, .L323+12
ARM GAS  C:\Users\FRANKL~1\AppData\Local\Temp\ccPy0viy.s 			page 93


 3867              	.LVL530:
 3868 00d6 5846     		mov	r0, fp
 3869 00d8 FFF7FEFF 		bl	__aeabi_f2d
 3870              	.LVL531:
 3871 00dc CDE90601 		strd	r0, [sp, #24]
 3872 00e0 5046     		mov	r0, r10
 3873 00e2 FFF7FEFF 		bl	__aeabi_f2d
 3874              	.LVL532:
 3875 00e6 CDE90401 		strd	r0, [sp, #16]
 3876 00ea 4846     		mov	r0, r9
 3877 00ec FFF7FEFF 		bl	__aeabi_f2d
 3878              	.LVL533:
 3879 00f0 CDE90201 		strd	r0, [sp, #8]
 3880 00f4 0998     		ldr	r0, [sp, #36]	@ float
 3881 00f6 FFF7FEFF 		bl	__aeabi_f2d
 3882              	.LVL534:
 3883 00fa CDE90001 		strd	r0, [sp]
 3884 00fe DDE90A23 		ldrd	r2, [sp, #40]
 3885 0102 1D49     		ldr	r1, .L323+16
 3886 0104 2846     		mov	r0, r5
 3887 0106 FFF7FEFF 		bl	sprintf
 3888              	.LVL535:
 664:main.c        **** 				UART_1_PutString(TransmitBuffer);
 3889              		.loc 2 664 0
 3890 010a 2846     		mov	r0, r5
 3891 010c FFF7FEFF 		bl	strlen
 3892              	.LVL536:
 3893 0110 81B2     		uxth	r1, r0
 3894 0112 2846     		mov	r0, r5
 3895 0114 FFF7FEFF 		bl	USBUARTH_Send
 3896              	.LVL537:
 665:main.c        **** 				
 3897              		.loc 2 665 0
 3898 0118 2846     		mov	r0, r5
 3899 011a FFF7FEFF 		bl	UART_1_PutString
 3900              	.LVL538:
 667:main.c        **** 				while (G_Pause);
 3901              		.loc 2 667 0
 3902 011e 174B     		ldr	r3, .L323+20
 3903 0120 5B78     		ldrb	r3, [r3, #1]	@ zero_extendqisi2
 3904 0122 13F0FF0F 		tst	r3, #255
 3905 0126 0AD1     		bne	.L317
 3906              	.L315:
 668:main.c        **** 			}
 3907              		.loc 2 668 0 discriminator 1
 3908 0128 144B     		ldr	r3, .L323+20
 3909 012a DB78     		ldrb	r3, [r3, #3]	@ zero_extendqisi2
 3910 012c 13F0FF0F 		tst	r3, #255
 3911 0130 FAD1     		bne	.L315
 3912              	.LBE49:
 644:main.c        **** 				int32 IdsAverage = 0;
 3913              		.loc 2 644 0
 3914 0132 0134     		adds	r4, r4, #1
 3915              	.LVL539:
 3916 0134 E4B2     		uxtb	r4, r4
 3917              	.LVL540:
 3918 0136 00E0     		b	.L316
ARM GAS  C:\Users\FRANKL~1\AppData\Local\Temp\ccPy0viy.s 			page 94


 3919              	.LVL541:
 3920              	.L321:
 3921              	.LBE48:
 3922 0138 0024     		movs	r4, #0
 3923              	.L316:
 3924              	.LVL542:
 3925              	.LBB50:
 644:main.c        **** 				int32 IdsAverage = 0;
 3926              		.loc 2 644 0 is_stmt 0 discriminator 1
 3927 013a 012C     		cmp	r4, #1
 3928 013c 8AD9     		bls	.L318
 3929              	.L317:
 3930              	.LBE50:
 643:main.c        **** 			for (uint8 j = 0; j <= 1; j++) {
 3931              		.loc 2 643 0 is_stmt 1 discriminator 2
 3932 013e 08EB0603 		add	r3, r8, r6
 3933 0142 5FFA83F8 		uxtb	r8, r3
 3934              	.LVL543:
 3935              	.L310:
 643:main.c        **** 			for (uint8 j = 0; j <= 1; j++) {
 3936              		.loc 2 643 0 is_stmt 0 discriminator 1
 3937 0146 4745     		cmp	r7, r8
 3938 0148 F6D1     		bne	.L321
 3939              	.LBE51:
 3940              	.LBE52:
 628:main.c        **** 		int8 direction = 1*speed;
 3941              		.loc 2 628 0 is_stmt 1 discriminator 2
 3942 014a 0C9B     		ldr	r3, [sp, #48]
 3943 014c 0133     		adds	r3, r3, #1
 3944 014e DBB2     		uxtb	r3, r3
 3945 0150 0C93     		str	r3, [sp, #48]
 3946              	.LVL544:
 3947              	.L307:
 628:main.c        **** 		int8 direction = 1*speed;
 3948              		.loc 2 628 0 is_stmt 0 discriminator 1
 3949 0152 0C9B     		ldr	r3, [sp, #48]
 3950 0154 0D9A     		ldr	r2, [sp, #52]
 3951 0156 9342     		cmp	r3, r2
 3952 0158 7FF667AF 		bls	.L319
 3953              	.LBE53:
 672:main.c        **** 
 3954              		.loc 2 672 0 is_stmt 1
 3955 015c 11B0     		add	sp, sp, #68
 3956              		.cfi_def_cfa_offset 36
 3957              		@ sp needed
 3958 015e BDE8F08F 		pop	{r4, r5, r6, r7, r8, r9, r10, fp, pc}
 3959              	.LVL545:
 3960              	.L324:
 3961 0162 00BFAFF3 		.align	3
 3961      0080
 3962              	.L323:
 3963 0168 BABDD7D9 		.word	-640172614
 3964 016c DF7CCBBD 		.word	-1110737697
 3965 0170 00000000 		.word	Vds_Index_Goal_Relative
 3966 0174 00000000 		.word	TransmitBuffer
 3967 0178 B0000000 		.word	.LC12
 3968 017c 00000000 		.word	.LANCHOR0
ARM GAS  C:\Users\FRANKL~1\AppData\Local\Temp\ccPy0viy.s 			page 95


 3969              		.cfi_endproc
 3970              	.LFE104:
 3971              		.size	Measure_Gate_Sweep, .-Measure_Gate_Sweep
 3972              		.section	.text.Measure_Wide_Gate_Sweep,"ax",%progbits
 3973              		.align	2
 3974              		.global	Measure_Wide_Gate_Sweep
 3975              		.thumb
 3976              		.thumb_func
 3977              		.type	Measure_Wide_Gate_Sweep, %function
 3978              	Measure_Wide_Gate_Sweep:
 3979              	.LFB105:
 674:main.c        **** 	Set_Ref_Raw(254);
 3980              		.loc 2 674 0
 3981              		.cfi_startproc
 3982              		@ args = 0, pretend = 0, frame = 32
 3983              		@ frame_needed = 0, uses_anonymous_args = 0
 3984              	.LVL546:
 3985 0000 2DE9F04F 		push	{r4, r5, r6, r7, r8, r9, r10, fp, lr}
 3986              		.cfi_def_cfa_offset 36
 3987              		.cfi_offset 4, -36
 3988              		.cfi_offset 5, -32
 3989              		.cfi_offset 6, -28
 3990              		.cfi_offset 7, -24
 3991              		.cfi_offset 8, -20
 3992              		.cfi_offset 9, -16
 3993              		.cfi_offset 10, -12
 3994              		.cfi_offset 11, -8
 3995              		.cfi_offset 14, -4
 3996 0004 91B0     		sub	sp, sp, #68
 3997              		.cfi_def_cfa_offset 104
 3998 0006 0D90     		str	r0, [sp, #52]
 675:main.c        **** 	
 3999              		.loc 2 675 0
 4000 0008 FE20     		movs	r0, #254
 4001              	.LVL547:
 4002 000a FFF7FEFF 		bl	Set_Ref_Raw
 4003              	.LVL548:
 4004              	.LBB54:
 679:main.c        **** 		int8 direction = 1*speed;
 4005              		.loc 2 679 0
 4006 000e 0023     		movs	r3, #0
 4007 0010 0C93     		str	r3, [sp, #48]
 4008 0012 93E0     		b	.L326
 4009              	.LVL549:
 4010              	.L337:
 4011              	.LBB55:
 684:main.c        **** 			direction = -1*speed;
 4012              		.loc 2 684 0
 4013 0014 0C9B     		ldr	r3, [sp, #48]
 4014 0016 13F0010F 		tst	r3, #1
 4015 001a 07D1     		bne	.L338
 682:main.c        **** 		
 4016              		.loc 2 682 0
 4017 001c 4FF0F008 		mov	r8, #240
 681:main.c        **** 		uint8 istop = 256-speed;
 4018              		.loc 2 681 0
 4019 0020 0027     		movs	r7, #0
ARM GAS  C:\Users\FRANKL~1\AppData\Local\Temp\ccPy0viy.s 			page 96


 680:main.c        **** 		uint8 istart = 0;
 4020              		.loc 2 680 0
 4021 0022 1026     		movs	r6, #16
 4022 0024 3B46     		mov	r3, r7
 4023 0026 4746     		mov	r7, r8
 4024 0028 9846     		mov	r8, r3
 4025 002a 81E0     		b	.L328
 4026              	.L338:
 687:main.c        **** 		}
 4027              		.loc 2 687 0
 4028 002c 4FF00008 		mov	r8, #0
 686:main.c        **** 			istop = 0;
 4029              		.loc 2 686 0
 4030 0030 F027     		movs	r7, #240
 685:main.c        **** 			istart = 256-speed;
 4031              		.loc 2 685 0
 4032 0032 6FF00F06 		mvn	r6, #15
 4033              	.LVL550:
 4034 0036 3B46     		mov	r3, r7
 4035 0038 4746     		mov	r7, r8
 4036              	.LVL551:
 4037 003a 9846     		mov	r8, r3
 4038              	.LVL552:
 4039              	.LBB56:
 690:main.c        **** 			for (uint8 j = 0; j <= 1; j++) {
 4040              		.loc 2 690 0
 4041 003c 78E0     		b	.L328
 4042              	.LVL553:
 4043              	.L336:
 4044              	.LBB57:
 4045              	.LBB58:
 692:main.c        **** 				int32 IdsStandardDeviation = 0;
 4046              		.loc 2 692 0
 4047 003e 0023     		movs	r3, #0
 4048 0040 0E93     		str	r3, [sp, #56]
 693:main.c        **** 				
 4049              		.loc 2 693 0
 4050 0042 0F93     		str	r3, [sp, #60]
 695:main.c        **** 				Set_Vgs_Raw(i);
 4051              		.loc 2 695 0
 4052 0044 012C     		cmp	r4, #1
 4053 0046 04D1     		bne	.L329
 695:main.c        **** 				Set_Vgs_Raw(i);
 4054              		.loc 2 695 0 is_stmt 0 discriminator 1
 4055 0048 6FEA0800 		mvn	r0, r8
 4056 004c C0B2     		uxtb	r0, r0
 4057 004e FFF7FEFF 		bl	Set_Ref_Raw
 4058              	.LVL554:
 4059              	.L329:
 696:main.c        **** 				
 4060              		.loc 2 696 0 is_stmt 1
 4061 0052 4046     		mov	r0, r8
 4062 0054 FFF7FEFF 		bl	Set_Vgs_Raw
 4063              	.LVL555:
 698:main.c        **** 				
 4064              		.loc 2 698 0
 4065 0058 2122     		movs	r2, #33
ARM GAS  C:\Users\FRANKL~1\AppData\Local\Temp\ccPy0viy.s 			page 97


 4066 005a 0FA9     		add	r1, sp, #60
 4067 005c 0EA8     		add	r0, sp, #56
 4068 005e FFF7FEFF 		bl	ADC_Measure_uV
 4069              	.LVL556:
 700:main.c        **** 				
 4070              		.loc 2 700 0
 4071 0062 0E98     		ldr	r0, [sp, #56]
 4072 0064 FFF7FEFF 		bl	__aeabi_i2d
 4073              	.LVL557:
 4074 0068 39A3     		adr	r3, .L341
 4075 006a D3E90023 		ldrd	r2, [r3]
 4076 006e FFF7FEFF 		bl	__aeabi_dmul
 4077              	.LVL558:
 4078 0072 FFF7FEFF 		bl	__aeabi_d2f
 4079              	.LVL559:
 4080 0076 0546     		mov	r5, r0
 4081              	.LVL560:
 702:main.c        **** 				ADC_SAR_2_StartConvert();
 4082              		.loc 2 702 0
 4083 0078 FFF7FEFF 		bl	ADC_SAR_1_StartConvert
 4084              	.LVL561:
 703:main.c        **** 				while (!ADC_SAR_1_IsEndConversion(ADC_SAR_1_RETURN_STATUS));
 4085              		.loc 2 703 0
 4086 007c FFF7FEFF 		bl	ADC_SAR_2_StartConvert
 4087              	.LVL562:
 4088              	.L330:
 704:main.c        **** 				while (!ADC_SAR_2_IsEndConversion(ADC_SAR_2_RETURN_STATUS));
 4089              		.loc 2 704 0 discriminator 1
 4090 0080 0120     		movs	r0, #1
 4091 0082 FFF7FEFF 		bl	ADC_SAR_1_IsEndConversion
 4092              	.LVL563:
 4093 0086 0028     		cmp	r0, #0
 4094 0088 FAD0     		beq	.L330
 4095              	.L331:
 705:main.c        **** 				
 4096              		.loc 2 705 0 discriminator 1
 4097 008a 0120     		movs	r0, #1
 4098 008c FFF7FEFF 		bl	ADC_SAR_2_IsEndConversion
 4099              	.LVL564:
 4100 0090 0028     		cmp	r0, #0
 4101 0092 FAD0     		beq	.L331
 707:main.c        **** 				float SAR2 = ADC_SAR_2_CountsTo_Volts(ADC_SAR_2_GetResult16());
 4102              		.loc 2 707 0
 4103 0094 FFF7FEFF 		bl	ADC_SAR_1_GetResult16
 4104              	.LVL565:
 4105 0098 FFF7FEFF 		bl	ADC_SAR_1_CountsTo_Volts
 4106              	.LVL566:
 4107 009c 8246     		mov	r10, r0
 4108              	.LVL567:
 708:main.c        **** 				
 4109              		.loc 2 708 0
 4110 009e FFF7FEFF 		bl	ADC_SAR_2_GetResult16
 4111              	.LVL568:
 4112 00a2 FFF7FEFF 		bl	ADC_SAR_2_CountsTo_Volts
 4113              	.LVL569:
 4114 00a6 8346     		mov	fp, r0
 4115              	.LVL570:
ARM GAS  C:\Users\FRANKL~1\AppData\Local\Temp\ccPy0viy.s 			page 98


 710:main.c        **** 				USBUARTH_Send(TransmitBuffer, strlen(TransmitBuffer));
 4116              		.loc 2 710 0
 4117 00a8 FFF7FEFF 		bl	Get_Vgs
 4118              	.LVL571:
 4119 00ac 0990     		str	r0, [sp, #36]	@ float
 4120 00ae FFF7FEFF 		bl	Get_Vds
 4121              	.LVL572:
 4122 00b2 8146     		mov	r9, r0
 4123 00b4 2846     		mov	r0, r5
 4124 00b6 FFF7FEFF 		bl	__aeabi_f2d
 4125              	.LVL573:
 4126 00ba CDE90A01 		strd	r0, [sp, #40]
 4127 00be 264D     		ldr	r5, .L341+8
 4128              	.LVL574:
 4129 00c0 5846     		mov	r0, fp
 4130 00c2 FFF7FEFF 		bl	__aeabi_f2d
 4131              	.LVL575:
 4132 00c6 CDE90601 		strd	r0, [sp, #24]
 4133 00ca 5046     		mov	r0, r10
 4134 00cc FFF7FEFF 		bl	__aeabi_f2d
 4135              	.LVL576:
 4136 00d0 CDE90401 		strd	r0, [sp, #16]
 4137 00d4 4846     		mov	r0, r9
 4138 00d6 FFF7FEFF 		bl	__aeabi_f2d
 4139              	.LVL577:
 4140 00da CDE90201 		strd	r0, [sp, #8]
 4141 00de 0998     		ldr	r0, [sp, #36]	@ float
 4142 00e0 FFF7FEFF 		bl	__aeabi_f2d
 4143              	.LVL578:
 4144 00e4 CDE90001 		strd	r0, [sp]
 4145 00e8 DDE90A23 		ldrd	r2, [sp, #40]
 4146 00ec 1B49     		ldr	r1, .L341+12
 4147 00ee 2846     		mov	r0, r5
 4148 00f0 FFF7FEFF 		bl	sprintf
 4149              	.LVL579:
 711:main.c        **** 				UART_1_PutString(TransmitBuffer);
 4150              		.loc 2 711 0
 4151 00f4 2846     		mov	r0, r5
 4152 00f6 FFF7FEFF 		bl	strlen
 4153              	.LVL580:
 4154 00fa 81B2     		uxth	r1, r0
 4155 00fc 2846     		mov	r0, r5
 4156 00fe FFF7FEFF 		bl	USBUARTH_Send
 4157              	.LVL581:
 712:main.c        **** 				
 4158              		.loc 2 712 0
 4159 0102 2846     		mov	r0, r5
 4160 0104 FFF7FEFF 		bl	UART_1_PutString
 4161              	.LVL582:
 714:main.c        **** 				while (G_Pause);
 4162              		.loc 2 714 0
 4163 0108 154B     		ldr	r3, .L341+16
 4164 010a 5B78     		ldrb	r3, [r3, #1]	@ zero_extendqisi2
 4165 010c 13F0FF0F 		tst	r3, #255
 4166 0110 0AD1     		bne	.L335
 4167              	.L333:
 715:main.c        **** 			}
ARM GAS  C:\Users\FRANKL~1\AppData\Local\Temp\ccPy0viy.s 			page 99


 4168              		.loc 2 715 0 discriminator 1
 4169 0112 134B     		ldr	r3, .L341+16
 4170 0114 DB78     		ldrb	r3, [r3, #3]	@ zero_extendqisi2
 4171 0116 13F0FF0F 		tst	r3, #255
 4172 011a FAD1     		bne	.L333
 4173              	.LBE58:
 691:main.c        **** 				int32 IdsAverage = 0;
 4174              		.loc 2 691 0
 4175 011c 0134     		adds	r4, r4, #1
 4176              	.LVL583:
 4177 011e E4B2     		uxtb	r4, r4
 4178              	.LVL584:
 4179 0120 00E0     		b	.L334
 4180              	.LVL585:
 4181              	.L339:
 4182              	.LBE57:
 4183 0122 0024     		movs	r4, #0
 4184              	.L334:
 4185              	.LVL586:
 4186              	.LBB59:
 691:main.c        **** 				int32 IdsAverage = 0;
 4187              		.loc 2 691 0 is_stmt 0 discriminator 1
 4188 0124 012C     		cmp	r4, #1
 4189 0126 8AD9     		bls	.L336
 4190              	.L335:
 4191              	.LBE59:
 690:main.c        **** 			for (uint8 j = 0; j <= 1; j++) {
 4192              		.loc 2 690 0 is_stmt 1 discriminator 2
 4193 0128 08EB0603 		add	r3, r8, r6
 4194 012c 5FFA83F8 		uxtb	r8, r3
 4195              	.LVL587:
 4196              	.L328:
 690:main.c        **** 			for (uint8 j = 0; j <= 1; j++) {
 4197              		.loc 2 690 0 is_stmt 0 discriminator 1
 4198 0130 4745     		cmp	r7, r8
 4199 0132 F6D1     		bne	.L339
 4200              	.LBE56:
 4201              	.LBE55:
 679:main.c        **** 		int8 direction = 1*speed;
 4202              		.loc 2 679 0 is_stmt 1 discriminator 2
 4203 0134 0C9B     		ldr	r3, [sp, #48]
 4204 0136 0133     		adds	r3, r3, #1
 4205 0138 DBB2     		uxtb	r3, r3
 4206 013a 0C93     		str	r3, [sp, #48]
 4207              	.LVL588:
 4208              	.L326:
 679:main.c        **** 		int8 direction = 1*speed;
 4209              		.loc 2 679 0 is_stmt 0 discriminator 1
 4210 013c 0C9B     		ldr	r3, [sp, #48]
 4211 013e 0D9A     		ldr	r2, [sp, #52]
 4212 0140 9342     		cmp	r3, r2
 4213 0142 7FF667AF 		bls	.L337
 4214              	.LBE54:
 719:main.c        **** 
 4215              		.loc 2 719 0 is_stmt 1
 4216 0146 11B0     		add	sp, sp, #68
 4217              		.cfi_def_cfa_offset 36
ARM GAS  C:\Users\FRANKL~1\AppData\Local\Temp\ccPy0viy.s 			page 100


 4218              		@ sp needed
 4219 0148 BDE8F08F 		pop	{r4, r5, r6, r7, r8, r9, r10, fp, pc}
 4220              	.LVL589:
 4221              	.L342:
 4222 014c AFF30080 		.align	3
 4223              	.L341:
 4224 0150 BABDD7D9 		.word	-640172614
 4225 0154 DF7CCBBD 		.word	-1110737697
 4226 0158 00000000 		.word	TransmitBuffer
 4227 015c B0000000 		.word	.LC12
 4228 0160 00000000 		.word	.LANCHOR0
 4229              		.cfi_endproc
 4230              	.LFE105:
 4231              		.size	Measure_Wide_Gate_Sweep, .-Measure_Wide_Gate_Sweep
 4232              		.section	.text.Scan,"ax",%progbits
 4233              		.align	2
 4234              		.global	Scan
 4235              		.thumb
 4236              		.thumb_func
 4237              		.type	Scan, %function
 4238              	Scan:
 4239              	.LFB106:
 721:main.c        **** 	for (uint8 device = 1; device <= CONTACT_COUNT/**//2; device++) {
 4240              		.loc 2 721 0
 4241              		.cfi_startproc
 4242              		@ args = 0, pretend = 0, frame = 0
 4243              		@ frame_needed = 0, uses_anonymous_args = 0
 4244              	.LVL590:
 4245 0000 2DE9F041 		push	{r4, r5, r6, r7, r8, lr}
 4246              		.cfi_def_cfa_offset 24
 4247              		.cfi_offset 4, -24
 4248              		.cfi_offset 5, -20
 4249              		.cfi_offset 6, -16
 4250              		.cfi_offset 7, -12
 4251              		.cfi_offset 8, -8
 4252              		.cfi_offset 14, -4
 4253 0004 0746     		mov	r7, r0
 4254 0006 8846     		mov	r8, r1
 4255              	.LVL591:
 4256              	.LBB60:
 722:main.c        **** 		uint8 contact1 = device;
 4257              		.loc 2 722 0
 4258 0008 0124     		movs	r4, #1
 4259 000a 37E0     		b	.L344
 4260              	.LVL592:
 4261              	.L349:
 4262              	.LBB61:
 724:main.c        **** 		uint8 intermediate1 = 1;
 4263              		.loc 2 724 0
 4264 000c 661C     		adds	r6, r4, #1
 4265 000e F6B2     		uxtb	r6, r6
 4266              	.LVL593:
 728:main.c        **** 		Zero_All_DACs();
 4267              		.loc 2 728 0
 4268 0010 FFF7FEFF 		bl	Disconnect_All_Contacts_From_All_Intermediates
 4269              	.LVL594:
 729:main.c        **** 		Connect_Intermediates();
ARM GAS  C:\Users\FRANKL~1\AppData\Local\Temp\ccPy0viy.s 			page 101


 4270              		.loc 2 729 0
 4271 0014 FFF7FEFF 		bl	Zero_All_DACs
 4272              	.LVL595:
 730:main.c        **** 		Connect_Contact_To_Intermediate(contact1, intermediate1);
 4273              		.loc 2 730 0
 4274 0018 FFF7FEFF 		bl	Connect_Intermediates
 4275              	.LVL596:
 731:main.c        **** 		Connect_Contact_To_Intermediate(contact2, intermediate2);
 4276              		.loc 2 731 0
 4277 001c 0121     		movs	r1, #1
 4278 001e 2046     		mov	r0, r4
 4279 0020 FFF7FEFF 		bl	Connect_Contact_To_Intermediate
 4280              	.LVL597:
 732:main.c        **** 		
 4281              		.loc 2 732 0
 4282 0024 0221     		movs	r1, #2
 4283 0026 3046     		mov	r0, r6
 4284 0028 FFF7FEFF 		bl	Connect_Contact_To_Intermediate
 4285              	.LVL598:
 734:main.c        **** 		USBUARTH_Send(TransmitBuffer, strlen(TransmitBuffer));
 4286              		.loc 2 734 0
 4287 002c 154D     		ldr	r5, .L351
 4288 002e 2246     		mov	r2, r4
 4289 0030 1549     		ldr	r1, .L351+4
 4290 0032 2846     		mov	r0, r5
 4291 0034 FFF7FEFF 		bl	sprintf
 4292              	.LVL599:
 735:main.c        **** 		UART_1_PutString(TransmitBuffer);
 4293              		.loc 2 735 0
 4294 0038 2846     		mov	r0, r5
 4295 003a FFF7FEFF 		bl	strlen
 4296              	.LVL600:
 4297 003e 81B2     		uxth	r1, r0
 4298 0040 2846     		mov	r0, r5
 4299 0042 FFF7FEFF 		bl	USBUARTH_Send
 4300              	.LVL601:
 736:main.c        **** 		
 4301              		.loc 2 736 0
 4302 0046 2846     		mov	r0, r5
 4303 0048 FFF7FEFF 		bl	UART_1_PutString
 4304              	.LVL602:
 738:main.c        **** 			Measure_Wide_Gate_Sweep(loop);
 4305              		.loc 2 738 0
 4306 004c 1FB1     		cbz	r7, .L345
 739:main.c        **** 		} else {
 4307              		.loc 2 739 0
 4308 004e 4046     		mov	r0, r8
 4309 0050 FFF7FEFF 		bl	Measure_Wide_Gate_Sweep
 4310              	.LVL603:
 4311 0054 02E0     		b	.L346
 4312              	.L345:
 741:main.c        **** 		}
 4313              		.loc 2 741 0
 4314 0056 4046     		mov	r0, r8
 4315 0058 FFF7FEFF 		bl	Measure_Gate_Sweep
 4316              	.LVL604:
 4317              	.L346:
ARM GAS  C:\Users\FRANKL~1\AppData\Local\Temp\ccPy0viy.s 			page 102


 744:main.c        **** 		while (G_Pause);
 4318              		.loc 2 744 0
 4319 005c 0B4B     		ldr	r3, .L351+8
 4320 005e 9B78     		ldrb	r3, [r3, #2]	@ zero_extendqisi2
 4321 0060 13F0FF0F 		tst	r3, #255
 4322 0064 0CD1     		bne	.L343
 744:main.c        **** 		while (G_Pause);
 4323              		.loc 2 744 0 is_stmt 0 discriminator 1
 4324 0066 094B     		ldr	r3, .L351+8
 4325 0068 5B78     		ldrb	r3, [r3, #1]	@ zero_extendqisi2
 4326 006a 13F0FF0F 		tst	r3, #255
 4327 006e 07D1     		bne	.L343
 4328              	.L348:
 745:main.c        **** 	}
 4329              		.loc 2 745 0 is_stmt 1 discriminator 1
 4330 0070 064B     		ldr	r3, .L351+8
 4331 0072 DB78     		ldrb	r3, [r3, #3]	@ zero_extendqisi2
 4332 0074 13F0FF0F 		tst	r3, #255
 4333 0078 FAD1     		bne	.L348
 4334              	.LBE61:
 722:main.c        **** 		uint8 contact1 = device;
 4335              		.loc 2 722 0
 4336 007a 3446     		mov	r4, r6
 4337              	.LVL605:
 4338              	.L344:
 722:main.c        **** 		uint8 contact1 = device;
 4339              		.loc 2 722 0 is_stmt 0 discriminator 1
 4340 007c 202C     		cmp	r4, #32
 4341 007e C5D9     		bls	.L349
 4342              	.L343:
 4343 0080 BDE8F081 		pop	{r4, r5, r6, r7, r8, pc}
 4344              	.LVL606:
 4345              	.L352:
 4346              		.align	2
 4347              	.L351:
 4348 0084 00000000 		.word	TransmitBuffer
 4349 0088 C4000000 		.word	.LC13
 4350 008c 00000000 		.word	.LANCHOR0
 4351              	.LBE60:
 4352              		.cfi_endproc
 4353              	.LFE106:
 4354              		.size	Scan, .-Scan
 4355              		.section	.text.Scan_Range,"ax",%progbits
 4356              		.align	2
 4357              		.global	Scan_Range
 4358              		.thumb
 4359              		.thumb_func
 4360              		.type	Scan_Range, %function
 4361              	Scan_Range:
 4362              	.LFB107:
 749:main.c        **** 	if (startDevice >= CONTACT_COUNT) return;
 4363              		.loc 2 749 0 is_stmt 1
 4364              		.cfi_startproc
 4365              		@ args = 0, pretend = 0, frame = 0
 4366              		@ frame_needed = 0, uses_anonymous_args = 0
 4367              	.LVL607:
 750:main.c        **** 	if (stopDevice >= CONTACT_COUNT) return;
ARM GAS  C:\Users\FRANKL~1\AppData\Local\Temp\ccPy0viy.s 			page 103


 4368              		.loc 2 750 0
 4369 0000 3F28     		cmp	r0, #63
 4370 0002 47D8     		bhi	.L361
 749:main.c        **** 	if (startDevice >= CONTACT_COUNT) return;
 4371              		.loc 2 749 0
 4372 0004 2DE9F843 		push	{r3, r4, r5, r6, r7, r8, r9, lr}
 4373              		.cfi_def_cfa_offset 32
 4374              		.cfi_offset 3, -32
 4375              		.cfi_offset 4, -28
 4376              		.cfi_offset 5, -24
 4377              		.cfi_offset 6, -20
 4378              		.cfi_offset 7, -16
 4379              		.cfi_offset 8, -12
 4380              		.cfi_offset 9, -8
 4381              		.cfi_offset 14, -4
 4382 0008 0446     		mov	r4, r0
 4383 000a 0F46     		mov	r7, r1
 4384 000c 9046     		mov	r8, r2
 4385 000e 9946     		mov	r9, r3
 751:main.c        **** 	
 4386              		.loc 2 751 0
 4387 0010 3F29     		cmp	r1, #63
 4388 0012 3BD9     		bls	.L355
 4389 0014 BDE8F883 		pop	{r3, r4, r5, r6, r7, r8, r9, pc}
 4390              	.LVL608:
 4391              	.L359:
 4392              	.LBB62:
 4393              	.LBB63:
 755:main.c        **** 		uint8 intermediate1 = 1;
 4394              		.loc 2 755 0
 4395 0018 661C     		adds	r6, r4, #1
 4396 001a F6B2     		uxtb	r6, r6
 4397              	.LVL609:
 759:main.c        **** 		Zero_All_DACs();
 4398              		.loc 2 759 0
 4399 001c FFF7FEFF 		bl	Disconnect_All_Contacts_From_All_Intermediates
 4400              	.LVL610:
 760:main.c        **** 		Connect_Intermediates();
 4401              		.loc 2 760 0
 4402 0020 FFF7FEFF 		bl	Zero_All_DACs
 4403              	.LVL611:
 761:main.c        **** 		Connect_Contact_To_Intermediate(contact1, intermediate1);
 4404              		.loc 2 761 0
 4405 0024 FFF7FEFF 		bl	Connect_Intermediates
 4406              	.LVL612:
 762:main.c        **** 		Connect_Contact_To_Intermediate(contact2, intermediate2);
 4407              		.loc 2 762 0
 4408 0028 0121     		movs	r1, #1
 4409 002a 2046     		mov	r0, r4
 4410 002c FFF7FEFF 		bl	Connect_Contact_To_Intermediate
 4411              	.LVL613:
 763:main.c        **** 		
 4412              		.loc 2 763 0
 4413 0030 0221     		movs	r1, #2
 4414 0032 3046     		mov	r0, r6
 4415 0034 FFF7FEFF 		bl	Connect_Contact_To_Intermediate
 4416              	.LVL614:
ARM GAS  C:\Users\FRANKL~1\AppData\Local\Temp\ccPy0viy.s 			page 104


 765:main.c        **** 		USBUARTH_Send(TransmitBuffer, strlen(TransmitBuffer));
 4417              		.loc 2 765 0
 4418 0038 174D     		ldr	r5, .L362
 4419 003a 2246     		mov	r2, r4
 4420 003c 1749     		ldr	r1, .L362+4
 4421 003e 2846     		mov	r0, r5
 4422 0040 FFF7FEFF 		bl	sprintf
 4423              	.LVL615:
 766:main.c        **** 		UART_1_PutString(TransmitBuffer);
 4424              		.loc 2 766 0
 4425 0044 2846     		mov	r0, r5
 4426 0046 FFF7FEFF 		bl	strlen
 4427              	.LVL616:
 4428 004a 81B2     		uxth	r1, r0
 4429 004c 2846     		mov	r0, r5
 4430 004e FFF7FEFF 		bl	USBUARTH_Send
 4431              	.LVL617:
 767:main.c        **** 		
 4432              		.loc 2 767 0
 4433 0052 2846     		mov	r0, r5
 4434 0054 FFF7FEFF 		bl	UART_1_PutString
 4435              	.LVL618:
 769:main.c        **** 			Measure_Wide_Gate_Sweep(loop);
 4436              		.loc 2 769 0
 4437 0058 B8F1000F 		cmp	r8, #0
 4438 005c 03D0     		beq	.L356
 770:main.c        **** 		} else {
 4439              		.loc 2 770 0
 4440 005e 4846     		mov	r0, r9
 4441 0060 FFF7FEFF 		bl	Measure_Wide_Gate_Sweep
 4442              	.LVL619:
 4443 0064 02E0     		b	.L357
 4444              	.L356:
 772:main.c        **** 		}
 4445              		.loc 2 772 0
 4446 0066 4846     		mov	r0, r9
 4447 0068 FFF7FEFF 		bl	Measure_Gate_Sweep
 4448              	.LVL620:
 4449              	.L357:
 775:main.c        **** 		while (G_Pause);
 4450              		.loc 2 775 0
 4451 006c 0C4B     		ldr	r3, .L362+8
 4452 006e 9B78     		ldrb	r3, [r3, #2]	@ zero_extendqisi2
 4453 0070 13F0FF0F 		tst	r3, #255
 4454 0074 0CD1     		bne	.L353
 775:main.c        **** 		while (G_Pause);
 4455              		.loc 2 775 0 is_stmt 0 discriminator 1
 4456 0076 0A4B     		ldr	r3, .L362+8
 4457 0078 5B78     		ldrb	r3, [r3, #1]	@ zero_extendqisi2
 4458 007a 13F0FF0F 		tst	r3, #255
 4459 007e 07D1     		bne	.L353
 4460              	.L358:
 776:main.c        **** 	}
 4461              		.loc 2 776 0 is_stmt 1 discriminator 1
 4462 0080 074B     		ldr	r3, .L362+8
 4463 0082 DB78     		ldrb	r3, [r3, #3]	@ zero_extendqisi2
 4464 0084 13F0FF0F 		tst	r3, #255
ARM GAS  C:\Users\FRANKL~1\AppData\Local\Temp\ccPy0viy.s 			page 105


 4465 0088 FAD1     		bne	.L358
 4466              	.LBE63:
 753:main.c        **** 		uint8 contact1 = device;
 4467              		.loc 2 753 0
 4468 008a 3446     		mov	r4, r6
 4469              	.LVL621:
 4470              	.L355:
 753:main.c        **** 		uint8 contact1 = device;
 4471              		.loc 2 753 0 is_stmt 0 discriminator 1
 4472 008c BC42     		cmp	r4, r7
 4473 008e C3D9     		bls	.L359
 4474              	.L353:
 4475 0090 BDE8F883 		pop	{r3, r4, r5, r6, r7, r8, r9, pc}
 4476              	.LVL622:
 4477              	.L361:
 4478              		.cfi_def_cfa_offset 0
 4479              		.cfi_restore 3
 4480              		.cfi_restore 4
 4481              		.cfi_restore 5
 4482              		.cfi_restore 6
 4483              		.cfi_restore 7
 4484              		.cfi_restore 8
 4485              		.cfi_restore 9
 4486              		.cfi_restore 14
 4487 0094 7047     		bx	lr
 4488              	.L363:
 4489 0096 00BF     		.align	2
 4490              	.L362:
 4491 0098 00000000 		.word	TransmitBuffer
 4492 009c C4000000 		.word	.LC13
 4493 00a0 00000000 		.word	.LANCHOR0
 4494              	.LBE62:
 4495              		.cfi_endproc
 4496              	.LFE107:
 4497              		.size	Scan_Range, .-Scan_Range
 4498              		.section	.text.main,"ax",%progbits
 4499              		.align	2
 4500              		.global	main
 4501              		.thumb
 4502              		.thumb_func
 4503              		.type	main, %function
 4504              	main:
 4505              	.LFB109:
 849:main.c        **** 
 850:main.c        **** int main(void) {
 4506              		.loc 2 850 0 is_stmt 1
 4507              		.cfi_startproc
 4508              		@ args = 0, pretend = 0, frame = 8
 4509              		@ frame_needed = 0, uses_anonymous_args = 0
 4510 0000 F0B5     		push	{r4, r5, r6, r7, lr}
 4511              		.cfi_def_cfa_offset 20
 4512              		.cfi_offset 4, -20
 4513              		.cfi_offset 5, -16
 4514              		.cfi_offset 6, -12
 4515              		.cfi_offset 7, -8
 4516              		.cfi_offset 14, -4
 4517 0002 83B0     		sub	sp, sp, #12
ARM GAS  C:\Users\FRANKL~1\AppData\Local\Temp\ccPy0viy.s 			page 106


 4518              		.cfi_def_cfa_offset 32
 851:main.c        **** 	CyGlobalIntEnable;
 4519              		.loc 2 851 0
 4520              		.syntax unified
 4521              	@ 851 "main.c" 1
 4522 0004 62B6     		CPSIE   i
 4523              	@ 0 "" 2
 852:main.c        **** 	
 853:main.c        **** 	Setup_Selectors();
 4524              		.loc 2 853 0
 4525              		.thumb
 4526              		.syntax unified
 4527 0006 FFF7FEFF 		bl	Setup_Selectors
 4528              	.LVL623:
 854:main.c        **** 	
 855:main.c        **** 	USBUART_Start(0u, USBUART_5V_OPERATION);
 4529              		.loc 2 855 0
 4530 000a 0121     		movs	r1, #1
 4531 000c 0020     		movs	r0, #0
 4532 000e FFF7FEFF 		bl	USBUART_Start
 4533              	.LVL624:
 856:main.c        **** 	UART_1_Start();
 4534              		.loc 2 856 0
 4535 0012 FFF7FEFF 		bl	UART_1_Start
 4536              	.LVL625:
 857:main.c        **** 	VDAC_Vds_Start();
 4537              		.loc 2 857 0
 4538 0016 FFF7FEFF 		bl	VDAC_Vds_Start
 4539              	.LVL626:
 858:main.c        **** 	VDAC_Vgs_Start();
 4540              		.loc 2 858 0
 4541 001a FFF7FEFF 		bl	VDAC_Vgs_Start
 4542              	.LVL627:
 859:main.c        **** 	VDAC_Ref_Start();
 4543              		.loc 2 859 0
 4544 001e FFF7FEFF 		bl	VDAC_Ref_Start
 4545              	.LVL628:
 860:main.c        **** 	ADC_DelSig_1_Start();
 4546              		.loc 2 860 0
 4547 0022 FFF7FEFF 		bl	ADC_DelSig_1_Start
 4548              	.LVL629:
 861:main.c        **** 	TIA_1_Start();
 4549              		.loc 2 861 0
 4550 0026 FFF7FEFF 		bl	TIA_1_Start
 4551              	.LVL630:
 862:main.c        **** 	I2C_1_Start();
 4552              		.loc 2 862 0
 4553 002a FFF7FEFF 		bl	I2C_1_Start
 4554              	.LVL631:
 863:main.c        **** 	ADC_SAR_1_Start();
 4555              		.loc 2 863 0
 4556 002e FFF7FEFF 		bl	ADC_SAR_1_Start
 4557              	.LVL632:
 864:main.c        **** 	ADC_SAR_2_Start();
 4558              		.loc 2 864 0
 4559 0032 FFF7FEFF 		bl	ADC_SAR_2_Start
 4560              	.LVL633:
ARM GAS  C:\Users\FRANKL~1\AppData\Local\Temp\ccPy0viy.s 			page 107


 865:main.c        **** 	
 866:main.c        **** 	CyDelay(1000);
 4561              		.loc 2 866 0
 4562 0036 4FF47A70 		mov	r0, #1000
 4563 003a FFF7FEFF 		bl	CyDelay
 4564              	.LVL634:
 867:main.c        **** 	
 868:main.c        **** 	UART_1_PutString("\r\n# Starting\r\n");
 4565              		.loc 2 868 0
 4566 003e AF48     		ldr	r0, .L400
 4567 0040 FFF7FEFF 		bl	UART_1_PutString
 4568              	.LVL635:
 869:main.c        **** 	
 870:main.c        **** 	Connect_Intermediates();
 4569              		.loc 2 870 0
 4570 0044 FFF7FEFF 		bl	Connect_Intermediates
 4571              	.LVL636:
 871:main.c        **** 	
 872:main.c        **** 	newData = 0;
 4572              		.loc 2 872 0
 4573 0048 0023     		movs	r3, #0
 4574 004a AD4A     		ldr	r2, .L400+4
 4575 004c 1370     		strb	r3, [r2]
 873:main.c        **** 	UART_Rx_Position = 0;
 4576              		.loc 2 873 0
 4577 004e AD4A     		ldr	r2, .L400+8
 4578 0050 1370     		strb	r3, [r2]
 874:main.c        **** 	USBUART_Rx_Position = 0;
 4579              		.loc 2 874 0
 4580 0052 AD4A     		ldr	r2, .L400+12
 4581 0054 1370     		strb	r3, [r2]
 875:main.c        **** 	
 876:main.c        **** 	CommunicationTimer_Start();
 4582              		.loc 2 876 0
 4583 0056 FFF7FEFF 		bl	CommunicationTimer_Start
 4584              	.LVL637:
 877:main.c        **** 	CommunicationInterrupt_StartEx(CommunicationHandlerISR);
 4585              		.loc 2 877 0
 4586 005a AC48     		ldr	r0, .L400+16
 4587 005c FFF7FEFF 		bl	CommunicationInterrupt_StartEx
 4588              	.LVL638:
 878:main.c        **** 	
 879:main.c        **** 	Current_Measurement_Sample_Count = 100;
 4589              		.loc 2 879 0
 4590 0060 6422     		movs	r2, #100
 4591 0062 AB4B     		ldr	r3, .L400+20
 4592 0064 1A60     		str	r2, [r3]
 4593              	.L366:
 880:main.c        **** 	
 881:main.c        **** 	while (1) {
 882:main.c        **** 		G_Stop = 0;
 4594              		.loc 2 882 0
 4595 0066 A64B     		ldr	r3, .L400+4
 4596 0068 0022     		movs	r2, #0
 4597 006a 5A70     		strb	r2, [r3, #1]
 883:main.c        **** 		G_Break = 0;
 4598              		.loc 2 883 0
ARM GAS  C:\Users\FRANKL~1\AppData\Local\Temp\ccPy0viy.s 			page 108


 4599 006c 9A70     		strb	r2, [r3, #2]
 884:main.c        **** 		
 885:main.c        **** 		if (newData) {
 4600              		.loc 2 885 0
 4601 006e 1B78     		ldrb	r3, [r3]	@ zero_extendqisi2
 4602 0070 13F0FF0F 		tst	r3, #255
 4603 0074 F7D0     		beq	.L366
 4604              	.LVL639:
 4605              	.LBB64:
 886:main.c        **** 			char* ReceiveBuffer = &USBUART_Receive_Buffer[0];
 887:main.c        **** 			if (newData == 2) ReceiveBuffer = &UART_Receive_Buffer[0];
 4606              		.loc 2 887 0
 4607 0076 A24B     		ldr	r3, .L400+4
 4608 0078 1B78     		ldrb	r3, [r3]	@ zero_extendqisi2
 4609 007a DBB2     		uxtb	r3, r3
 4610 007c 022B     		cmp	r3, #2
 4611 007e 01D0     		beq	.L398
 886:main.c        **** 			char* ReceiveBuffer = &USBUART_Receive_Buffer[0];
 4612              		.loc 2 886 0
 4613 0080 A44C     		ldr	r4, .L400+24
 4614 0082 00E0     		b	.L367
 4615              	.L398:
 4616              		.loc 2 887 0
 4617 0084 A44C     		ldr	r4, .L400+28
 4618              	.L367:
 4619              	.LVL640:
 888:main.c        **** 			
 889:main.c        **** 			newData = 0;
 4620              		.loc 2 889 0
 4621 0086 0022     		movs	r2, #0
 4622 0088 9D4B     		ldr	r3, .L400+4
 4623 008a 1A70     		strb	r2, [r3]
 890:main.c        **** 			
 891:main.c        **** 			if (strstr(ReceiveBuffer, "measure ") == &ReceiveBuffer[0]) {
 4624              		.loc 2 891 0
 4625 008c A349     		ldr	r1, .L400+32
 4626 008e 2046     		mov	r0, r4
 4627 0090 FFF7FEFF 		bl	strstr
 4628              	.LVL641:
 4629 0094 8442     		cmp	r4, r0
 4630 0096 02D1     		bne	.L368
 892:main.c        **** 				Measure();
 4631              		.loc 2 892 0
 4632 0098 FFF7FEFF 		bl	Measure
 4633              	.LVL642:
 4634 009c E3E7     		b	.L366
 4635              	.L368:
 893:main.c        **** 			} else 
 894:main.c        **** 			if (strstr(ReceiveBuffer, "measure-multiple ") == &ReceiveBuffer[0]) {
 4636              		.loc 2 894 0
 4637 009e A049     		ldr	r1, .L400+36
 4638 00a0 2046     		mov	r0, r4
 4639 00a2 FFF7FEFF 		bl	strstr
 4640              	.LVL643:
 4641 00a6 8442     		cmp	r4, r0
 4642 00a8 0CD1     		bne	.L370
 4643              	.LBB65:
ARM GAS  C:\Users\FRANKL~1\AppData\Local\Temp\ccPy0viy.s 			page 109


 895:main.c        **** 				char* location = strstr(ReceiveBuffer, " ");
 4644              		.loc 2 895 0
 4645 00aa 2021     		movs	r1, #32
 4646 00ac 2046     		mov	r0, r4
 4647 00ae FFF7FEFF 		bl	strchr
 4648              	.LVL644:
 4649 00b2 02A9     		add	r1, sp, #8
 4650 00b4 41F8040D 		str	r0, [r1, #-4]!
 896:main.c        **** 				uint32 n = strtol(location, &location, 10);
 4651              		.loc 2 896 0
 4652 00b8 0A22     		movs	r2, #10
 4653 00ba FFF7FEFF 		bl	strtol
 4654              	.LVL645:
 897:main.c        **** 				
 898:main.c        **** 				Measure_Multiple(n);
 4655              		.loc 2 898 0
 4656 00be FFF7FEFF 		bl	Measure_Multiple
 4657              	.LVL646:
 4658              	.LBE65:
 4659 00c2 D0E7     		b	.L366
 4660              	.L370:
 899:main.c        **** 			} else 
 900:main.c        **** 			if (strstr(ReceiveBuffer, "measure-sweep ") == &ReceiveBuffer[0]) {
 4661              		.loc 2 900 0
 4662 00c4 9749     		ldr	r1, .L400+40
 4663 00c6 2046     		mov	r0, r4
 4664 00c8 FFF7FEFF 		bl	strstr
 4665              	.LVL647:
 4666 00cc 8442     		cmp	r4, r0
 4667 00ce 02D1     		bne	.L371
 901:main.c        **** 				Measure_Sweep();
 4668              		.loc 2 901 0
 4669 00d0 FFF7FEFF 		bl	Measure_Sweep
 4670              	.LVL648:
 4671 00d4 C7E7     		b	.L366
 4672              	.L371:
 902:main.c        **** 			} else 
 903:main.c        **** 			if (strstr(ReceiveBuffer, "measure-gate-sweep ") == &ReceiveBuffer[0]) {
 4673              		.loc 2 903 0
 4674 00d6 9449     		ldr	r1, .L400+44
 4675 00d8 2046     		mov	r0, r4
 4676 00da FFF7FEFF 		bl	strstr
 4677              	.LVL649:
 4678 00de 8442     		cmp	r4, r0
 4679 00e0 03D1     		bne	.L372
 904:main.c        **** 				Measure_Gate_Sweep(0);
 4680              		.loc 2 904 0
 4681 00e2 0020     		movs	r0, #0
 4682 00e4 FFF7FEFF 		bl	Measure_Gate_Sweep
 4683              	.LVL650:
 4684 00e8 BDE7     		b	.L366
 4685              	.L372:
 905:main.c        **** 			} else 
 906:main.c        **** 			if (strstr(ReceiveBuffer, "measure-gate-sweep-loop ") == &ReceiveBuffer[0]) {
 4686              		.loc 2 906 0
 4687 00ea 9049     		ldr	r1, .L400+48
 4688 00ec 2046     		mov	r0, r4
ARM GAS  C:\Users\FRANKL~1\AppData\Local\Temp\ccPy0viy.s 			page 110


 4689 00ee FFF7FEFF 		bl	strstr
 4690              	.LVL651:
 4691 00f2 8442     		cmp	r4, r0
 4692 00f4 03D1     		bne	.L373
 907:main.c        **** 				Measure_Gate_Sweep(1);
 4693              		.loc 2 907 0
 4694 00f6 0120     		movs	r0, #1
 4695 00f8 FFF7FEFF 		bl	Measure_Gate_Sweep
 4696              	.LVL652:
 4697 00fc B3E7     		b	.L366
 4698              	.L373:
 908:main.c        **** 			} else 
 909:main.c        **** 			if (strstr(ReceiveBuffer, "set-vgs-raw ") == &ReceiveBuffer[0]) {
 4699              		.loc 2 909 0
 4700 00fe 8C49     		ldr	r1, .L400+52
 4701 0100 2046     		mov	r0, r4
 4702 0102 FFF7FEFF 		bl	strstr
 4703              	.LVL653:
 4704 0106 8442     		cmp	r4, r0
 4705 0108 0DD1     		bne	.L374
 4706              	.LBB66:
 910:main.c        **** 				char* location = strstr(ReceiveBuffer, " ");
 4707              		.loc 2 910 0 discriminator 2
 4708 010a 2021     		movs	r1, #32
 4709 010c 2046     		mov	r0, r4
 4710 010e FFF7FEFF 		bl	strchr
 4711              	.LVL654:
 4712 0112 02A9     		add	r1, sp, #8
 4713 0114 41F8040D 		str	r0, [r1, #-4]!
 911:main.c        **** 				uint8 vgsi = strtol(location, &location, 10);
 4714              		.loc 2 911 0 discriminator 2
 4715 0118 0A22     		movs	r2, #10
 4716 011a FFF7FEFF 		bl	strtol
 4717              	.LVL655:
 912:main.c        **** 				
 913:main.c        **** 				Set_Vgs_Raw(vgsi);
 4718              		.loc 2 913 0 discriminator 2
 4719 011e C0B2     		uxtb	r0, r0
 4720 0120 FFF7FEFF 		bl	Set_Vgs_Raw
 4721              	.LVL656:
 4722              	.LBE66:
 4723 0124 9FE7     		b	.L366
 4724              	.L374:
 914:main.c        **** 			} else 
 915:main.c        **** 			if (strstr(ReceiveBuffer, "set-vds-raw ") == &ReceiveBuffer[0]) {
 4725              		.loc 2 915 0
 4726 0126 8349     		ldr	r1, .L400+56
 4727 0128 2046     		mov	r0, r4
 4728 012a FFF7FEFF 		bl	strstr
 4729              	.LVL657:
 4730 012e 8442     		cmp	r4, r0
 4731 0130 0DD1     		bne	.L375
 4732              	.LBB67:
 916:main.c        **** 				char* location = strstr(ReceiveBuffer, " ");
 4733              		.loc 2 916 0 discriminator 3
 4734 0132 2021     		movs	r1, #32
 4735 0134 2046     		mov	r0, r4
ARM GAS  C:\Users\FRANKL~1\AppData\Local\Temp\ccPy0viy.s 			page 111


 4736 0136 FFF7FEFF 		bl	strchr
 4737              	.LVL658:
 4738 013a 02A9     		add	r1, sp, #8
 4739 013c 41F8040D 		str	r0, [r1, #-4]!
 917:main.c        **** 				uint8 vdsi = strtol(location, &location, 10);
 4740              		.loc 2 917 0 discriminator 3
 4741 0140 0A22     		movs	r2, #10
 4742 0142 FFF7FEFF 		bl	strtol
 4743              	.LVL659:
 918:main.c        **** 				
 919:main.c        **** 				Set_Vds_Raw(vdsi);
 4744              		.loc 2 919 0 discriminator 3
 4745 0146 C0B2     		uxtb	r0, r0
 4746 0148 FFF7FEFF 		bl	Set_Vds_Raw
 4747              	.LVL660:
 4748              	.LBE67:
 4749 014c 8BE7     		b	.L366
 4750              	.L375:
 920:main.c        **** 			} else 
 921:main.c        **** 			if (strstr(ReceiveBuffer, "set-vgs-rel ") == &ReceiveBuffer[0]) {
 4751              		.loc 2 921 0
 4752 014e 7A49     		ldr	r1, .L400+60
 4753 0150 2046     		mov	r0, r4
 4754 0152 FFF7FEFF 		bl	strstr
 4755              	.LVL661:
 4756 0156 8442     		cmp	r4, r0
 4757 0158 0DD1     		bne	.L376
 4758              	.LBB68:
 922:main.c        **** 				char* location = strstr(ReceiveBuffer, " ");
 4759              		.loc 2 922 0 discriminator 4
 4760 015a 2021     		movs	r1, #32
 4761 015c 2046     		mov	r0, r4
 4762 015e FFF7FEFF 		bl	strchr
 4763              	.LVL662:
 4764 0162 02A9     		add	r1, sp, #8
 4765 0164 41F8040D 		str	r0, [r1, #-4]!
 923:main.c        **** 				int8 vgsi = strtol(location, &location, 10);
 4766              		.loc 2 923 0 discriminator 4
 4767 0168 0A22     		movs	r2, #10
 4768 016a FFF7FEFF 		bl	strtol
 4769              	.LVL663:
 924:main.c        **** 				
 925:main.c        **** 				Set_Vgs_Rel(vgsi);
 4770              		.loc 2 925 0 discriminator 4
 4771 016e 40B2     		sxtb	r0, r0
 4772 0170 FFF7FEFF 		bl	Set_Vgs_Rel
 4773              	.LVL664:
 4774              	.LBE68:
 4775 0174 77E7     		b	.L366
 4776              	.L376:
 926:main.c        **** 			} else 
 927:main.c        **** 			if (strstr(ReceiveBuffer, "set-vds-rel ") == &ReceiveBuffer[0]) {
 4777              		.loc 2 927 0
 4778 0176 7149     		ldr	r1, .L400+64
 4779 0178 2046     		mov	r0, r4
 4780 017a FFF7FEFF 		bl	strstr
 4781              	.LVL665:
ARM GAS  C:\Users\FRANKL~1\AppData\Local\Temp\ccPy0viy.s 			page 112


 4782 017e 8442     		cmp	r4, r0
 4783 0180 0DD1     		bne	.L377
 4784              	.LBB69:
 928:main.c        **** 				char* location = strstr(ReceiveBuffer, " ");
 4785              		.loc 2 928 0 discriminator 5
 4786 0182 2021     		movs	r1, #32
 4787 0184 2046     		mov	r0, r4
 4788 0186 FFF7FEFF 		bl	strchr
 4789              	.LVL666:
 4790 018a 02A9     		add	r1, sp, #8
 4791 018c 41F8040D 		str	r0, [r1, #-4]!
 929:main.c        **** 				int8 vdsi = strtol(location, &location, 10);
 4792              		.loc 2 929 0 discriminator 5
 4793 0190 0A22     		movs	r2, #10
 4794 0192 FFF7FEFF 		bl	strtol
 4795              	.LVL667:
 930:main.c        **** 				
 931:main.c        **** 				Set_Vds_Rel(vdsi);
 4796              		.loc 2 931 0 discriminator 5
 4797 0196 40B2     		sxtb	r0, r0
 4798 0198 FFF7FEFF 		bl	Set_Vds_Rel
 4799              	.LVL668:
 4800              	.LBE69:
 4801 019c 63E7     		b	.L366
 4802              	.L377:
 932:main.c        **** 			} else 
 933:main.c        **** 			if (strstr(ReceiveBuffer, "set-vgs ") == &ReceiveBuffer[0]) {
 4803              		.loc 2 933 0
 4804 019e 6849     		ldr	r1, .L400+68
 4805 01a0 2046     		mov	r0, r4
 4806 01a2 FFF7FEFF 		bl	strstr
 4807              	.LVL669:
 4808 01a6 8442     		cmp	r4, r0
 4809 01a8 0ED1     		bne	.L378
 4810              	.LBB70:
 934:main.c        **** 				char* location = strstr(ReceiveBuffer, " ");
 4811              		.loc 2 934 0 discriminator 6
 4812 01aa 2021     		movs	r1, #32
 4813 01ac 2046     		mov	r0, r4
 4814 01ae FFF7FEFF 		bl	strchr
 4815              	.LVL670:
 935:main.c        **** 				float vgs = 0;
 4816              		.loc 2 935 0 discriminator 6
 4817 01b2 02AA     		add	r2, sp, #8
 4818 01b4 0023     		movs	r3, #0
 4819 01b6 42F8043D 		str	r3, [r2, #-4]!	@ float
 936:main.c        **** 				int8 success = sscanf(location, "%f", &vgs);
 4820              		.loc 2 936 0 discriminator 6
 4821 01ba 6249     		ldr	r1, .L400+72
 4822 01bc FFF7FEFF 		bl	sscanf
 4823              	.LVL671:
 937:main.c        **** 				
 938:main.c        **** 				Set_Vgs(vgs);
 4824              		.loc 2 938 0 discriminator 6
 4825 01c0 0198     		ldr	r0, [sp, #4]	@ float
 4826 01c2 FFF7FEFF 		bl	Set_Vgs
 4827              	.LVL672:
ARM GAS  C:\Users\FRANKL~1\AppData\Local\Temp\ccPy0viy.s 			page 113


 4828              	.LBE70:
 4829 01c6 4EE7     		b	.L366
 4830              	.L378:
 939:main.c        **** 			} else 
 940:main.c        **** 			if (strstr(ReceiveBuffer, "set-vds ") == &ReceiveBuffer[0]) {
 4831              		.loc 2 940 0
 4832 01c8 5F49     		ldr	r1, .L400+76
 4833 01ca 2046     		mov	r0, r4
 4834 01cc FFF7FEFF 		bl	strstr
 4835              	.LVL673:
 4836 01d0 8442     		cmp	r4, r0
 4837 01d2 0ED1     		bne	.L379
 4838              	.LBB71:
 941:main.c        **** 				char* location = strstr(ReceiveBuffer, " ");
 4839              		.loc 2 941 0 discriminator 7
 4840 01d4 2021     		movs	r1, #32
 4841 01d6 2046     		mov	r0, r4
 4842 01d8 FFF7FEFF 		bl	strchr
 4843              	.LVL674:
 942:main.c        **** 				float vds = 0;
 4844              		.loc 2 942 0 discriminator 7
 4845 01dc 02AA     		add	r2, sp, #8
 4846 01de 0023     		movs	r3, #0
 4847 01e0 42F8043D 		str	r3, [r2, #-4]!	@ float
 943:main.c        **** 				int8 success = sscanf(location, "%f", &vds);
 4848              		.loc 2 943 0 discriminator 7
 4849 01e4 5749     		ldr	r1, .L400+72
 4850 01e6 FFF7FEFF 		bl	sscanf
 4851              	.LVL675:
 944:main.c        **** 				
 945:main.c        **** 				Set_Vds(vds);
 4852              		.loc 2 945 0 discriminator 7
 4853 01ea 0198     		ldr	r0, [sp, #4]	@ float
 4854 01ec FFF7FEFF 		bl	Set_Vds
 4855              	.LVL676:
 4856              	.LBE71:
 4857 01f0 39E7     		b	.L366
 4858              	.L379:
 946:main.c        **** 			} else 
 947:main.c        **** 			if (strstr(ReceiveBuffer, "set-vgs-mv ") == &ReceiveBuffer[0]) {
 4859              		.loc 2 947 0
 4860 01f2 5649     		ldr	r1, .L400+80
 4861 01f4 2046     		mov	r0, r4
 4862 01f6 FFF7FEFF 		bl	strstr
 4863              	.LVL677:
 4864 01fa 8442     		cmp	r4, r0
 4865 01fc 23D1     		bne	.L380
 4866              	.LBB72:
 948:main.c        **** 				char* location = strstr(ReceiveBuffer, " ");
 4867              		.loc 2 948 0 discriminator 8
 4868 01fe 2021     		movs	r1, #32
 4869 0200 2046     		mov	r0, r4
 4870 0202 FFF7FEFF 		bl	strchr
 4871              	.LVL678:
 4872 0206 02A9     		add	r1, sp, #8
 4873 0208 41F8040D 		str	r0, [r1, #-4]!
 949:main.c        **** 				float Vgs_mV = (float)(strtol(location, &location, 10));
ARM GAS  C:\Users\FRANKL~1\AppData\Local\Temp\ccPy0viy.s 			page 114


 4874              		.loc 2 949 0 discriminator 8
 4875 020c 0A22     		movs	r2, #10
 4876 020e FFF7FEFF 		bl	strtol
 4877              	.LVL679:
 4878 0212 FFF7FEFF 		bl	__aeabi_i2f
 4879              	.LVL680:
 4880 0216 0446     		mov	r4, r0
 4881              	.LVL681:
 950:main.c        **** 				
 951:main.c        **** 				Set_Vgs_mV(Vgs_mV);
 4882              		.loc 2 951 0 discriminator 8
 4883 0218 FFF7FEFF 		bl	Set_Vgs_mV
 4884              	.LVL682:
 952:main.c        **** 				
 953:main.c        **** 				sprintf(TransmitBuffer, "# Vgs set to %f mV\r\n", Vgs_mV);
 4885              		.loc 2 953 0 discriminator 8
 4886 021c 2046     		mov	r0, r4
 4887 021e FFF7FEFF 		bl	__aeabi_f2d
 4888              	.LVL683:
 4889 0222 4B4C     		ldr	r4, .L400+84
 4890              	.LVL684:
 4891 0224 0246     		mov	r2, r0
 4892 0226 0B46     		mov	r3, r1
 4893 0228 4A49     		ldr	r1, .L400+88
 4894 022a 2046     		mov	r0, r4
 4895 022c FFF7FEFF 		bl	sprintf
 4896              	.LVL685:
 954:main.c        **** 				USBUARTH_Send(TransmitBuffer, strlen(TransmitBuffer));
 4897              		.loc 2 954 0 discriminator 8
 4898 0230 2046     		mov	r0, r4
 4899 0232 FFF7FEFF 		bl	strlen
 4900              	.LVL686:
 4901 0236 81B2     		uxth	r1, r0
 4902 0238 2046     		mov	r0, r4
 4903 023a FFF7FEFF 		bl	USBUARTH_Send
 4904              	.LVL687:
 955:main.c        **** 				UART_1_PutString(TransmitBuffer);
 4905              		.loc 2 955 0 discriminator 8
 4906 023e 2046     		mov	r0, r4
 4907 0240 FFF7FEFF 		bl	UART_1_PutString
 4908              	.LVL688:
 4909              	.LBE72:
 4910 0244 0FE7     		b	.L366
 4911              	.LVL689:
 4912              	.L380:
 956:main.c        **** 			} else 
 957:main.c        **** 			if (strstr(ReceiveBuffer, "set-vds-mv ") == &ReceiveBuffer[0]) {
 4913              		.loc 2 957 0
 4914 0246 4449     		ldr	r1, .L400+92
 4915 0248 2046     		mov	r0, r4
 4916 024a FFF7FEFF 		bl	strstr
 4917              	.LVL690:
 4918 024e 8442     		cmp	r4, r0
 4919 0250 23D1     		bne	.L381
 4920              	.LBB73:
 958:main.c        **** 				char* location = strstr(ReceiveBuffer, " ");
 4921              		.loc 2 958 0 discriminator 9
ARM GAS  C:\Users\FRANKL~1\AppData\Local\Temp\ccPy0viy.s 			page 115


 4922 0252 2021     		movs	r1, #32
 4923 0254 2046     		mov	r0, r4
 4924 0256 FFF7FEFF 		bl	strchr
 4925              	.LVL691:
 4926 025a 02A9     		add	r1, sp, #8
 4927 025c 41F8040D 		str	r0, [r1, #-4]!
 959:main.c        **** 				float Vds_mV = (float)(strtol(location, &location, 10));
 4928              		.loc 2 959 0 discriminator 9
 4929 0260 0A22     		movs	r2, #10
 4930 0262 FFF7FEFF 		bl	strtol
 4931              	.LVL692:
 4932 0266 FFF7FEFF 		bl	__aeabi_i2f
 4933              	.LVL693:
 4934 026a 0446     		mov	r4, r0
 4935              	.LVL694:
 960:main.c        **** 				
 961:main.c        **** 				Set_Vds_mV(Vds_mV);
 4936              		.loc 2 961 0 discriminator 9
 4937 026c FFF7FEFF 		bl	Set_Vds_mV
 4938              	.LVL695:
 962:main.c        **** 				
 963:main.c        **** 				sprintf(TransmitBuffer, "# Vds set to %f mV\r\n", Vds_mV);
 4939              		.loc 2 963 0 discriminator 9
 4940 0270 2046     		mov	r0, r4
 4941 0272 FFF7FEFF 		bl	__aeabi_f2d
 4942              	.LVL696:
 4943 0276 364C     		ldr	r4, .L400+84
 4944              	.LVL697:
 4945 0278 0246     		mov	r2, r0
 4946 027a 0B46     		mov	r3, r1
 4947 027c 3749     		ldr	r1, .L400+96
 4948 027e 2046     		mov	r0, r4
 4949 0280 FFF7FEFF 		bl	sprintf
 4950              	.LVL698:
 964:main.c        **** 				USBUARTH_Send(TransmitBuffer, strlen(TransmitBuffer));
 4951              		.loc 2 964 0 discriminator 9
 4952 0284 2046     		mov	r0, r4
 4953 0286 FFF7FEFF 		bl	strlen
 4954              	.LVL699:
 4955 028a 81B2     		uxth	r1, r0
 4956 028c 2046     		mov	r0, r4
 4957 028e FFF7FEFF 		bl	USBUARTH_Send
 4958              	.LVL700:
 965:main.c        **** 				UART_1_PutString(TransmitBuffer);
 4959              		.loc 2 965 0 discriminator 9
 4960 0292 2046     		mov	r0, r4
 4961 0294 FFF7FEFF 		bl	UART_1_PutString
 4962              	.LVL701:
 4963              	.LBE73:
 4964 0298 E5E6     		b	.L366
 4965              	.LVL702:
 4966              	.L381:
 966:main.c        **** 			} else 
 967:main.c        **** 			if (strstr(ReceiveBuffer, "scan ") == &ReceiveBuffer[0]) {
 4967              		.loc 2 967 0
 4968 029a 3149     		ldr	r1, .L400+100
 4969 029c 2046     		mov	r0, r4
ARM GAS  C:\Users\FRANKL~1\AppData\Local\Temp\ccPy0viy.s 			page 116


 4970 029e FFF7FEFF 		bl	strstr
 4971              	.LVL703:
 4972 02a2 8442     		cmp	r4, r0
 4973 02a4 62D1     		bne	.L382
 968:main.c        **** 				sprintf(TransmitBuffer, "\r\n# Scan Starting\r\n");
 4974              		.loc 2 968 0
 4975 02a6 2A4C     		ldr	r4, .L400+84
 4976              	.LVL704:
 4977 02a8 2E4D     		ldr	r5, .L400+104
 4978 02aa 0FCD     		ldmia	r5!, {r0, r1, r2, r3}
 4979 02ac 2060     		str	r0, [r4]	@ unaligned
 4980 02ae 6160     		str	r1, [r4, #4]	@ unaligned
 4981 02b0 A260     		str	r2, [r4, #8]	@ unaligned
 4982 02b2 E360     		str	r3, [r4, #12]	@ unaligned
 4983 02b4 2868     		ldr	r0, [r5]	@ unaligned
 4984 02b6 2061     		str	r0, [r4, #16]	@ unaligned
 969:main.c        **** 				USBUARTH_Send(TransmitBuffer, strlen(TransmitBuffer));
 4985              		.loc 2 969 0
 4986 02b8 2046     		mov	r0, r4
 4987 02ba FFF7FEFF 		bl	strlen
 4988              	.LVL705:
 4989 02be 81B2     		uxth	r1, r0
 4990 02c0 2046     		mov	r0, r4
 4991 02c2 FFF7FEFF 		bl	USBUARTH_Send
 4992              	.LVL706:
 970:main.c        **** 				UART_1_PutString(TransmitBuffer);
 4993              		.loc 2 970 0
 4994 02c6 2046     		mov	r0, r4
 4995 02c8 FFF7FEFF 		bl	UART_1_PutString
 4996              	.LVL707:
 971:main.c        **** 				
 972:main.c        **** 				Scan(0, 0);
 4997              		.loc 2 972 0
 4998 02cc 0021     		movs	r1, #0
 4999 02ce 0846     		mov	r0, r1
 5000 02d0 FFF7FEFF 		bl	Scan
 5001              	.LVL708:
 973:main.c        **** 				
 974:main.c        **** 				sprintf(TransmitBuffer, "\r\n# Scan Complete\r\n");
 5002              		.loc 2 974 0
 5003 02d4 244D     		ldr	r5, .L400+108
 5004 02d6 0FCD     		ldmia	r5!, {r0, r1, r2, r3}
 5005 02d8 2060     		str	r0, [r4]	@ unaligned
 5006 02da 6160     		str	r1, [r4, #4]	@ unaligned
 5007 02dc A260     		str	r2, [r4, #8]	@ unaligned
 5008 02de E360     		str	r3, [r4, #12]	@ unaligned
 5009 02e0 2868     		ldr	r0, [r5]	@ unaligned
 5010 02e2 2061     		str	r0, [r4, #16]	@ unaligned
 975:main.c        **** 				USBUARTH_Send(TransmitBuffer, strlen(TransmitBuffer));
 5011              		.loc 2 975 0
 5012 02e4 2046     		mov	r0, r4
 5013 02e6 FFF7FEFF 		bl	strlen
 5014              	.LVL709:
 5015 02ea 81B2     		uxth	r1, r0
 5016 02ec 2046     		mov	r0, r4
 5017 02ee FFF7FEFF 		bl	USBUARTH_Send
 5018              	.LVL710:
ARM GAS  C:\Users\FRANKL~1\AppData\Local\Temp\ccPy0viy.s 			page 117


 976:main.c        **** 				UART_1_PutString(TransmitBuffer);
 5019              		.loc 2 976 0
 5020 02f2 2046     		mov	r0, r4
 5021 02f4 FFF7FEFF 		bl	UART_1_PutString
 5022              	.LVL711:
 5023 02f8 B5E6     		b	.L366
 5024              	.L401:
 5025 02fa 00BF     		.align	2
 5026              	.L400:
 5027 02fc CC000000 		.word	.LC14
 5028 0300 00000000 		.word	.LANCHOR0
 5029 0304 00000000 		.word	UART_Rx_Position
 5030 0308 00000000 		.word	USBUART_Rx_Position
 5031 030c 00000000 		.word	CommunicationHandlerISR
 5032 0310 00000000 		.word	Current_Measurement_Sample_Count
 5033 0314 00000000 		.word	USBUART_Receive_Buffer
 5034 0318 00000000 		.word	UART_Receive_Buffer
 5035 031c DC000000 		.word	.LC15
 5036 0320 E8000000 		.word	.LC16
 5037 0324 FC000000 		.word	.LC17
 5038 0328 0C010000 		.word	.LC18
 5039 032c 20010000 		.word	.LC19
 5040 0330 3C010000 		.word	.LC20
 5041 0334 4C010000 		.word	.LC21
 5042 0338 5C010000 		.word	.LC22
 5043 033c 6C010000 		.word	.LC23
 5044 0340 7C010000 		.word	.LC24
 5045 0344 88010000 		.word	.LC25
 5046 0348 8C010000 		.word	.LC26
 5047 034c 98010000 		.word	.LC27
 5048 0350 00000000 		.word	TransmitBuffer
 5049 0354 A4010000 		.word	.LC28
 5050 0358 BC010000 		.word	.LC29
 5051 035c C8010000 		.word	.LC30
 5052 0360 E0010000 		.word	.LC31
 5053 0364 E8010000 		.word	.LC32
 5054 0368 FC010000 		.word	.LC33
 5055              	.LVL712:
 5056              	.L382:
 977:main.c        **** 			} else 
 978:main.c        **** 			if (strstr(ReceiveBuffer, "scan-range ") == &ReceiveBuffer[0]) {
 5057              		.loc 2 978 0
 5058 036c CD49     		ldr	r1, .L402
 5059 036e 2046     		mov	r0, r4
 5060 0370 FFF7FEFF 		bl	strstr
 5061              	.LVL713:
 5062 0374 8442     		cmp	r4, r0
 5063 0376 42D1     		bne	.L383
 5064              	.LBB74:
 979:main.c        **** 				sprintf(TransmitBuffer, "\r\n# Scan-Range Starting\r\n");
 5065              		.loc 2 979 0 discriminator 10
 5066 0378 CB4D     		ldr	r5, .L402+4
 5067 037a CC4E     		ldr	r6, .L402+8
 5068 037c 0FCE     		ldmia	r6!, {r0, r1, r2, r3}
 5069 037e 2860     		str	r0, [r5]	@ unaligned
 5070 0380 6960     		str	r1, [r5, #4]	@ unaligned
 5071 0382 AA60     		str	r2, [r5, #8]	@ unaligned
ARM GAS  C:\Users\FRANKL~1\AppData\Local\Temp\ccPy0viy.s 			page 118


 5072 0384 EB60     		str	r3, [r5, #12]	@ unaligned
 5073 0386 03CE     		ldmia	r6!, {r0, r1}
 5074 0388 2861     		str	r0, [r5, #16]	@ unaligned
 5075 038a 6961     		str	r1, [r5, #20]	@ unaligned
 5076 038c 3388     		ldrh	r3, [r6]	@ unaligned
 5077 038e 2B83     		strh	r3, [r5, #24]	@ unaligned
 980:main.c        **** 				USBUARTH_Send(TransmitBuffer, strlen(TransmitBuffer));
 5078              		.loc 2 980 0 discriminator 10
 5079 0390 2846     		mov	r0, r5
 5080 0392 FFF7FEFF 		bl	strlen
 5081              	.LVL714:
 5082 0396 81B2     		uxth	r1, r0
 5083 0398 2846     		mov	r0, r5
 5084 039a FFF7FEFF 		bl	USBUARTH_Send
 5085              	.LVL715:
 981:main.c        **** 				UART_1_PutString(TransmitBuffer);
 5086              		.loc 2 981 0 discriminator 10
 5087 039e 2846     		mov	r0, r5
 5088 03a0 FFF7FEFF 		bl	UART_1_PutString
 5089              	.LVL716:
 982:main.c        **** 				
 983:main.c        **** 				char* location = strstr(ReceiveBuffer, " ");
 5090              		.loc 2 983 0 discriminator 10
 5091 03a4 2021     		movs	r1, #32
 5092 03a6 2046     		mov	r0, r4
 5093 03a8 FFF7FEFF 		bl	strchr
 5094              	.LVL717:
 5095 03ac 02AC     		add	r4, sp, #8
 5096              	.LVL718:
 5097 03ae 44F8040D 		str	r0, [r4, #-4]!
 984:main.c        **** 				uint8 startDevice = strtol(location, &location, 10);
 5098              		.loc 2 984 0 discriminator 10
 5099 03b2 0A22     		movs	r2, #10
 5100 03b4 2146     		mov	r1, r4
 5101 03b6 FFF7FEFF 		bl	strtol
 5102              	.LVL719:
 5103 03ba C6B2     		uxtb	r6, r0
 5104              	.LVL720:
 985:main.c        **** 				uint8 stopDevice = strtol(location, &location, 10);
 5105              		.loc 2 985 0 discriminator 10
 5106 03bc 0A22     		movs	r2, #10
 5107 03be 2146     		mov	r1, r4
 5108 03c0 0198     		ldr	r0, [sp, #4]
 5109 03c2 FFF7FEFF 		bl	strtol
 5110              	.LVL721:
 986:main.c        **** 				Scan_Range(startDevice, stopDevice, 0, 0);
 5111              		.loc 2 986 0 discriminator 10
 5112 03c6 0023     		movs	r3, #0
 5113 03c8 1A46     		mov	r2, r3
 5114 03ca C1B2     		uxtb	r1, r0
 5115 03cc 3046     		mov	r0, r6
 5116              	.LVL722:
 5117 03ce FFF7FEFF 		bl	Scan_Range
 5118              	.LVL723:
 987:main.c        **** 				
 988:main.c        **** 				sprintf(TransmitBuffer, "\r\n# Scan Range Complete\r\n");
 5119              		.loc 2 988 0 discriminator 10
ARM GAS  C:\Users\FRANKL~1\AppData\Local\Temp\ccPy0viy.s 			page 119


 5120 03d2 B74C     		ldr	r4, .L402+12
 5121 03d4 0FCC     		ldmia	r4!, {r0, r1, r2, r3}
 5122 03d6 2860     		str	r0, [r5]	@ unaligned
 5123 03d8 6960     		str	r1, [r5, #4]	@ unaligned
 5124 03da AA60     		str	r2, [r5, #8]	@ unaligned
 5125 03dc EB60     		str	r3, [r5, #12]	@ unaligned
 5126 03de 03CC     		ldmia	r4!, {r0, r1}
 5127 03e0 2861     		str	r0, [r5, #16]	@ unaligned
 5128 03e2 6961     		str	r1, [r5, #20]	@ unaligned
 5129 03e4 2388     		ldrh	r3, [r4]	@ unaligned
 5130 03e6 2B83     		strh	r3, [r5, #24]	@ unaligned
 989:main.c        **** 				USBUARTH_Send(TransmitBuffer, strlen(TransmitBuffer));
 5131              		.loc 2 989 0 discriminator 10
 5132 03e8 2846     		mov	r0, r5
 5133 03ea FFF7FEFF 		bl	strlen
 5134              	.LVL724:
 5135 03ee 81B2     		uxth	r1, r0
 5136 03f0 2846     		mov	r0, r5
 5137 03f2 FFF7FEFF 		bl	USBUARTH_Send
 5138              	.LVL725:
 990:main.c        **** 				UART_1_PutString(TransmitBuffer);
 5139              		.loc 2 990 0 discriminator 10
 5140 03f6 2846     		mov	r0, r5
 5141 03f8 FFF7FEFF 		bl	UART_1_PutString
 5142              	.LVL726:
 5143              	.LBE74:
 5144 03fc 33E6     		b	.L366
 5145              	.LVL727:
 5146              	.L383:
 991:main.c        **** 			} else 
 992:main.c        **** 			if (strstr(ReceiveBuffer, "scan-range-loop ") == &ReceiveBuffer[0]) {
 5147              		.loc 2 992 0
 5148 03fe AD49     		ldr	r1, .L402+16
 5149 0400 2046     		mov	r0, r4
 5150 0402 FFF7FEFF 		bl	strstr
 5151              	.LVL728:
 5152 0406 8442     		cmp	r4, r0
 5153 0408 48D1     		bne	.L384
 5154              	.LBB75:
 993:main.c        **** 				sprintf(TransmitBuffer, "\r\n# Scan-Range-Loop Starting\r\n");
 5155              		.loc 2 993 0 discriminator 11
 5156 040a A74D     		ldr	r5, .L402+4
 5157 040c AA4E     		ldr	r6, .L402+20
 5158 040e 0FCE     		ldmia	r6!, {r0, r1, r2, r3}
 5159 0410 2860     		str	r0, [r5]	@ unaligned
 5160 0412 6960     		str	r1, [r5, #4]	@ unaligned
 5161 0414 AA60     		str	r2, [r5, #8]	@ unaligned
 5162 0416 EB60     		str	r3, [r5, #12]	@ unaligned
 5163 0418 07CE     		ldmia	r6!, {r0, r1, r2}
 5164 041a 2861     		str	r0, [r5, #16]	@ unaligned
 5165 041c 6961     		str	r1, [r5, #20]	@ unaligned
 5166 041e AA61     		str	r2, [r5, #24]	@ unaligned
 5167 0420 3288     		ldrh	r2, [r6]	@ unaligned
 5168 0422 B378     		ldrb	r3, [r6, #2]	@ zero_extendqisi2
 5169 0424 AA83     		strh	r2, [r5, #28]	@ unaligned
 5170 0426 AB77     		strb	r3, [r5, #30]
 994:main.c        **** 				USBUARTH_Send(TransmitBuffer, strlen(TransmitBuffer));
ARM GAS  C:\Users\FRANKL~1\AppData\Local\Temp\ccPy0viy.s 			page 120


 5171              		.loc 2 994 0 discriminator 11
 5172 0428 2846     		mov	r0, r5
 5173 042a FFF7FEFF 		bl	strlen
 5174              	.LVL729:
 5175 042e 81B2     		uxth	r1, r0
 5176 0430 2846     		mov	r0, r5
 5177 0432 FFF7FEFF 		bl	USBUARTH_Send
 5178              	.LVL730:
 995:main.c        **** 				UART_1_PutString(TransmitBuffer);
 5179              		.loc 2 995 0 discriminator 11
 5180 0436 2846     		mov	r0, r5
 5181 0438 FFF7FEFF 		bl	UART_1_PutString
 5182              	.LVL731:
 996:main.c        **** 				
 997:main.c        **** 				char* location = strstr(ReceiveBuffer, " ");
 5183              		.loc 2 997 0 discriminator 11
 5184 043c 2021     		movs	r1, #32
 5185 043e 2046     		mov	r0, r4
 5186 0440 FFF7FEFF 		bl	strchr
 5187              	.LVL732:
 5188 0444 02AC     		add	r4, sp, #8
 5189              	.LVL733:
 5190 0446 44F8040D 		str	r0, [r4, #-4]!
 998:main.c        **** 				uint8 startDevice = strtol(location, &location, 10);
 5191              		.loc 2 998 0 discriminator 11
 5192 044a 0A22     		movs	r2, #10
 5193 044c 2146     		mov	r1, r4
 5194 044e FFF7FEFF 		bl	strtol
 5195              	.LVL734:
 5196 0452 C6B2     		uxtb	r6, r0
 5197              	.LVL735:
 999:main.c        **** 				uint8 stopDevice = strtol(location, &location, 10);
 5198              		.loc 2 999 0 discriminator 11
 5199 0454 0A22     		movs	r2, #10
 5200 0456 2146     		mov	r1, r4
 5201 0458 0198     		ldr	r0, [sp, #4]
 5202 045a FFF7FEFF 		bl	strtol
 5203              	.LVL736:
1000:main.c        **** 				Scan_Range(startDevice, stopDevice, 0, 1);
 5204              		.loc 2 1000 0 discriminator 11
 5205 045e 0123     		movs	r3, #1
 5206 0460 0022     		movs	r2, #0
 5207 0462 C1B2     		uxtb	r1, r0
 5208 0464 3046     		mov	r0, r6
 5209              	.LVL737:
 5210 0466 FFF7FEFF 		bl	Scan_Range
 5211              	.LVL738:
1001:main.c        **** 				
1002:main.c        **** 				sprintf(TransmitBuffer, "\r\n# Scan Range Loop Complete\r\n");
 5212              		.loc 2 1002 0 discriminator 11
 5213 046a 944C     		ldr	r4, .L402+24
 5214 046c 0FCC     		ldmia	r4!, {r0, r1, r2, r3}
 5215 046e 2860     		str	r0, [r5]	@ unaligned
 5216 0470 6960     		str	r1, [r5, #4]	@ unaligned
 5217 0472 AA60     		str	r2, [r5, #8]	@ unaligned
 5218 0474 EB60     		str	r3, [r5, #12]	@ unaligned
 5219 0476 07CC     		ldmia	r4!, {r0, r1, r2}
ARM GAS  C:\Users\FRANKL~1\AppData\Local\Temp\ccPy0viy.s 			page 121


 5220 0478 2861     		str	r0, [r5, #16]	@ unaligned
 5221 047a 6961     		str	r1, [r5, #20]	@ unaligned
 5222 047c AA61     		str	r2, [r5, #24]	@ unaligned
 5223 047e 2288     		ldrh	r2, [r4]	@ unaligned
 5224 0480 A378     		ldrb	r3, [r4, #2]	@ zero_extendqisi2
 5225 0482 AA83     		strh	r2, [r5, #28]	@ unaligned
 5226 0484 AB77     		strb	r3, [r5, #30]
1003:main.c        **** 				USBUARTH_Send(TransmitBuffer, strlen(TransmitBuffer));
 5227              		.loc 2 1003 0 discriminator 11
 5228 0486 2846     		mov	r0, r5
 5229 0488 FFF7FEFF 		bl	strlen
 5230              	.LVL739:
 5231 048c 81B2     		uxth	r1, r0
 5232 048e 2846     		mov	r0, r5
 5233 0490 FFF7FEFF 		bl	USBUARTH_Send
 5234              	.LVL740:
1004:main.c        **** 				UART_1_PutString(TransmitBuffer);
 5235              		.loc 2 1004 0 discriminator 11
 5236 0494 2846     		mov	r0, r5
 5237 0496 FFF7FEFF 		bl	UART_1_PutString
 5238              	.LVL741:
 5239              	.LBE75:
 5240 049a E4E5     		b	.L366
 5241              	.LVL742:
 5242              	.L384:
1005:main.c        **** 			} else 
1006:main.c        **** 			if (strstr(ReceiveBuffer, "scan-range-wide-loop ") == &ReceiveBuffer[0]) {
 5243              		.loc 2 1006 0
 5244 049c 8849     		ldr	r1, .L402+28
 5245 049e 2046     		mov	r0, r4
 5246 04a0 FFF7FEFF 		bl	strstr
 5247              	.LVL743:
 5248 04a4 8442     		cmp	r4, r0
 5249 04a6 4DD1     		bne	.L385
 5250              	.LBB76:
1007:main.c        **** 				sprintf(TransmitBuffer, "\r\n# Scan-Range-Wide-Loop Starting\r\n");
 5251              		.loc 2 1007 0 discriminator 12
 5252 04a8 864F     		ldr	r7, .L402+32
 5253 04aa 7F4D     		ldr	r5, .L402+4
 5254 04ac 07F1200E 		add	lr, r7, #32
 5255              	.L386:
 5256 04b0 3E46     		mov	r6, r7
 5257 04b2 0FCE     		ldmia	r6!, {r0, r1, r2, r3}
 5258 04b4 2860     		str	r0, [r5]	@ unaligned
 5259 04b6 6960     		str	r1, [r5, #4]	@ unaligned
 5260 04b8 AA60     		str	r2, [r5, #8]	@ unaligned
 5261 04ba EB60     		str	r3, [r5, #12]	@ unaligned
 5262 04bc 3746     		mov	r7, r6
 5263 04be 1035     		adds	r5, r5, #16
 5264 04c0 7645     		cmp	r6, lr
 5265 04c2 F5D1     		bne	.L386
 5266 04c4 3068     		ldr	r0, [r6]	@ unaligned
 5267 04c6 2860     		str	r0, [r5]	@ unaligned
1008:main.c        **** 				USBUARTH_Send(TransmitBuffer, strlen(TransmitBuffer));
 5268              		.loc 2 1008 0 discriminator 12
 5269 04c8 774D     		ldr	r5, .L402+4
 5270 04ca 2846     		mov	r0, r5
ARM GAS  C:\Users\FRANKL~1\AppData\Local\Temp\ccPy0viy.s 			page 122


 5271 04cc FFF7FEFF 		bl	strlen
 5272              	.LVL744:
 5273 04d0 81B2     		uxth	r1, r0
 5274 04d2 2846     		mov	r0, r5
 5275 04d4 FFF7FEFF 		bl	USBUARTH_Send
 5276              	.LVL745:
1009:main.c        **** 				UART_1_PutString(TransmitBuffer);
 5277              		.loc 2 1009 0 discriminator 12
 5278 04d8 2846     		mov	r0, r5
 5279 04da FFF7FEFF 		bl	UART_1_PutString
 5280              	.LVL746:
1010:main.c        **** 				
1011:main.c        **** 				char* location = strstr(ReceiveBuffer, " ");
 5281              		.loc 2 1011 0 discriminator 12
 5282 04de 2021     		movs	r1, #32
 5283 04e0 2046     		mov	r0, r4
 5284 04e2 FFF7FEFF 		bl	strchr
 5285              	.LVL747:
 5286 04e6 02AC     		add	r4, sp, #8
 5287              	.LVL748:
 5288 04e8 44F8040D 		str	r0, [r4, #-4]!
1012:main.c        **** 				uint8 startDevice = strtol(location, &location, 10);
 5289              		.loc 2 1012 0 discriminator 12
 5290 04ec 0A22     		movs	r2, #10
 5291 04ee 2146     		mov	r1, r4
 5292 04f0 FFF7FEFF 		bl	strtol
 5293              	.LVL749:
 5294 04f4 C6B2     		uxtb	r6, r0
 5295              	.LVL750:
1013:main.c        **** 				uint8 stopDevice = strtol(location, &location, 10);
 5296              		.loc 2 1013 0 discriminator 12
 5297 04f6 0A22     		movs	r2, #10
 5298 04f8 2146     		mov	r1, r4
 5299 04fa 0198     		ldr	r0, [sp, #4]
 5300 04fc FFF7FEFF 		bl	strtol
 5301              	.LVL751:
1014:main.c        **** 				Scan_Range(startDevice, stopDevice, 1, 1);
 5302              		.loc 2 1014 0 discriminator 12
 5303 0500 0123     		movs	r3, #1
 5304 0502 1A46     		mov	r2, r3
 5305 0504 C1B2     		uxtb	r1, r0
 5306 0506 3046     		mov	r0, r6
 5307              	.LVL752:
 5308 0508 FFF7FEFF 		bl	Scan_Range
 5309              	.LVL753:
1015:main.c        **** 				
1016:main.c        **** 				sprintf(TransmitBuffer, "\r\n# Scan Range Wide Loop Complete\r\n");
 5310              		.loc 2 1016 0 discriminator 12
 5311 050c 6E4E     		ldr	r6, .L402+36
 5312              	.LVL754:
 5313 050e 2C46     		mov	r4, r5
 5314 0510 06F12007 		add	r7, r6, #32
 5315              	.L387:
 5316 0514 3546     		mov	r5, r6
 5317 0516 0FCD     		ldmia	r5!, {r0, r1, r2, r3}
 5318 0518 2060     		str	r0, [r4]	@ unaligned
 5319 051a 6160     		str	r1, [r4, #4]	@ unaligned
ARM GAS  C:\Users\FRANKL~1\AppData\Local\Temp\ccPy0viy.s 			page 123


 5320 051c A260     		str	r2, [r4, #8]	@ unaligned
 5321 051e E360     		str	r3, [r4, #12]	@ unaligned
 5322 0520 2E46     		mov	r6, r5
 5323 0522 1034     		adds	r4, r4, #16
 5324 0524 BD42     		cmp	r5, r7
 5325 0526 F5D1     		bne	.L387
 5326 0528 2868     		ldr	r0, [r5]	@ unaligned
 5327 052a 2060     		str	r0, [r4]	@ unaligned
1017:main.c        **** 				USBUARTH_Send(TransmitBuffer, strlen(TransmitBuffer));
 5328              		.loc 2 1017 0 discriminator 12
 5329 052c 5E4C     		ldr	r4, .L402+4
 5330 052e 2046     		mov	r0, r4
 5331 0530 FFF7FEFF 		bl	strlen
 5332              	.LVL755:
 5333 0534 81B2     		uxth	r1, r0
 5334 0536 2046     		mov	r0, r4
 5335 0538 FFF7FEFF 		bl	USBUARTH_Send
 5336              	.LVL756:
1018:main.c        **** 				UART_1_PutString(TransmitBuffer);
 5337              		.loc 2 1018 0 discriminator 12
 5338 053c 2046     		mov	r0, r4
 5339 053e FFF7FEFF 		bl	UART_1_PutString
 5340              	.LVL757:
 5341              	.LBE76:
 5342 0542 90E5     		b	.L366
 5343              	.LVL758:
 5344              	.L385:
1019:main.c        **** 			} else 
1020:main.c        **** 			if (strstr(ReceiveBuffer, "connect ") == &ReceiveBuffer[0]) {
 5345              		.loc 2 1020 0
 5346 0544 6149     		ldr	r1, .L402+40
 5347 0546 2046     		mov	r0, r4
 5348 0548 FFF7FEFF 		bl	strstr
 5349              	.LVL759:
 5350 054c 8442     		cmp	r4, r0
 5351 054e 27D1     		bne	.L388
 5352              	.LBB77:
1021:main.c        **** 				char* location = strstr(ReceiveBuffer, " ");
 5353              		.loc 2 1021 0 discriminator 13
 5354 0550 2021     		movs	r1, #32
 5355 0552 2046     		mov	r0, r4
 5356 0554 FFF7FEFF 		bl	strchr
 5357              	.LVL760:
 5358 0558 02AC     		add	r4, sp, #8
 5359              	.LVL761:
 5360 055a 44F8040D 		str	r0, [r4, #-4]!
1022:main.c        **** 				uint8 contact = strtol(location, &location, 10);
 5361              		.loc 2 1022 0 discriminator 13
 5362 055e 0A22     		movs	r2, #10
 5363 0560 2146     		mov	r1, r4
 5364 0562 FFF7FEFF 		bl	strtol
 5365              	.LVL762:
 5366 0566 C5B2     		uxtb	r5, r0
 5367              	.LVL763:
1023:main.c        **** 				uint8 intermediate = strtol(location, &location, 10);
 5368              		.loc 2 1023 0 discriminator 13
 5369 0568 0A22     		movs	r2, #10
ARM GAS  C:\Users\FRANKL~1\AppData\Local\Temp\ccPy0viy.s 			page 124


 5370 056a 2146     		mov	r1, r4
 5371 056c 0198     		ldr	r0, [sp, #4]
 5372 056e FFF7FEFF 		bl	strtol
 5373              	.LVL764:
 5374 0572 C6B2     		uxtb	r6, r0
 5375              	.LVL765:
1024:main.c        **** 				Connect_Contact_To_Intermediate(contact, intermediate);
 5376              		.loc 2 1024 0 discriminator 13
 5377 0574 3146     		mov	r1, r6
 5378 0576 2846     		mov	r0, r5
 5379 0578 FFF7FEFF 		bl	Connect_Contact_To_Intermediate
 5380              	.LVL766:
1025:main.c        **** 				
1026:main.c        **** 				sprintf(TransmitBuffer, "# Connected %u to %u\r\n", contact, intermediate);
 5381              		.loc 2 1026 0 discriminator 13
 5382 057c 4A4C     		ldr	r4, .L402+4
 5383 057e 3346     		mov	r3, r6
 5384 0580 2A46     		mov	r2, r5
 5385 0582 5349     		ldr	r1, .L402+44
 5386 0584 2046     		mov	r0, r4
 5387 0586 FFF7FEFF 		bl	sprintf
 5388              	.LVL767:
1027:main.c        **** 				USBUARTH_Send(TransmitBuffer, strlen(TransmitBuffer));
 5389              		.loc 2 1027 0 discriminator 13
 5390 058a 2046     		mov	r0, r4
 5391 058c FFF7FEFF 		bl	strlen
 5392              	.LVL768:
 5393 0590 81B2     		uxth	r1, r0
 5394 0592 2046     		mov	r0, r4
 5395 0594 FFF7FEFF 		bl	USBUARTH_Send
 5396              	.LVL769:
1028:main.c        **** 				UART_1_PutString(TransmitBuffer);
 5397              		.loc 2 1028 0 discriminator 13
 5398 0598 2046     		mov	r0, r4
 5399 059a FFF7FEFF 		bl	UART_1_PutString
 5400              	.LVL770:
 5401              	.LBE77:
 5402 059e 62E5     		b	.L366
 5403              	.LVL771:
 5404              	.L388:
1029:main.c        **** 			} else 
1030:main.c        **** 			if (strstr(ReceiveBuffer, "connect-c ") == &ReceiveBuffer[0]) {
 5405              		.loc 2 1030 0
 5406 05a0 4C49     		ldr	r1, .L402+48
 5407 05a2 2046     		mov	r0, r4
 5408 05a4 FFF7FEFF 		bl	strstr
 5409              	.LVL772:
 5410 05a8 8442     		cmp	r4, r0
 5411 05aa 27D1     		bne	.L389
 5412              	.LBB78:
1031:main.c        **** 				char* location = strstr(ReceiveBuffer, " ");
 5413              		.loc 2 1031 0 discriminator 14
 5414 05ac 2021     		movs	r1, #32
 5415 05ae 2046     		mov	r0, r4
 5416 05b0 FFF7FEFF 		bl	strchr
 5417              	.LVL773:
 5418 05b4 02AC     		add	r4, sp, #8
ARM GAS  C:\Users\FRANKL~1\AppData\Local\Temp\ccPy0viy.s 			page 125


 5419              	.LVL774:
 5420 05b6 44F8040D 		str	r0, [r4, #-4]!
1032:main.c        **** 				uint8 channel = strtol(location, &location, 10);
 5421              		.loc 2 1032 0 discriminator 14
 5422 05ba 0A22     		movs	r2, #10
 5423 05bc 2146     		mov	r1, r4
 5424 05be FFF7FEFF 		bl	strtol
 5425              	.LVL775:
 5426 05c2 C5B2     		uxtb	r5, r0
 5427              	.LVL776:
1033:main.c        **** 				uint8 intermediate = strtol(location, &location, 10);
 5428              		.loc 2 1033 0 discriminator 14
 5429 05c4 0A22     		movs	r2, #10
 5430 05c6 2146     		mov	r1, r4
 5431 05c8 0198     		ldr	r0, [sp, #4]
 5432 05ca FFF7FEFF 		bl	strtol
 5433              	.LVL777:
 5434 05ce C6B2     		uxtb	r6, r0
 5435              	.LVL778:
1034:main.c        **** 				Connect_Channel_On_Intermediate(channel, intermediate);
 5436              		.loc 2 1034 0 discriminator 14
 5437 05d0 3146     		mov	r1, r6
 5438 05d2 2846     		mov	r0, r5
 5439 05d4 FFF7FEFF 		bl	Connect_Channel_On_Intermediate
 5440              	.LVL779:
1035:main.c        **** 				
1036:main.c        **** 				sprintf(TransmitBuffer, "# Connected channel %u to %u\r\n", channel, intermediate);
 5441              		.loc 2 1036 0 discriminator 14
 5442 05d8 334C     		ldr	r4, .L402+4
 5443 05da 3346     		mov	r3, r6
 5444 05dc 2A46     		mov	r2, r5
 5445 05de 3E49     		ldr	r1, .L402+52
 5446 05e0 2046     		mov	r0, r4
 5447 05e2 FFF7FEFF 		bl	sprintf
 5448              	.LVL780:
1037:main.c        **** 				USBUARTH_Send(TransmitBuffer, strlen(TransmitBuffer));
 5449              		.loc 2 1037 0 discriminator 14
 5450 05e6 2046     		mov	r0, r4
 5451 05e8 FFF7FEFF 		bl	strlen
 5452              	.LVL781:
 5453 05ec 81B2     		uxth	r1, r0
 5454 05ee 2046     		mov	r0, r4
 5455 05f0 FFF7FEFF 		bl	USBUARTH_Send
 5456              	.LVL782:
1038:main.c        **** 				UART_1_PutString(TransmitBuffer);
 5457              		.loc 2 1038 0 discriminator 14
 5458 05f4 2046     		mov	r0, r4
 5459 05f6 FFF7FEFF 		bl	UART_1_PutString
 5460              	.LVL783:
 5461              	.LBE78:
 5462 05fa 34E5     		b	.L366
 5463              	.LVL784:
 5464              	.L389:
1039:main.c        **** 			} else 
1040:main.c        **** 			if (strstr(ReceiveBuffer, "disconnect ") == &ReceiveBuffer[0]) {
 5465              		.loc 2 1040 0
 5466 05fc 3749     		ldr	r1, .L402+56
ARM GAS  C:\Users\FRANKL~1\AppData\Local\Temp\ccPy0viy.s 			page 126


 5467 05fe 2046     		mov	r0, r4
 5468 0600 FFF7FEFF 		bl	strstr
 5469              	.LVL785:
 5470 0604 8442     		cmp	r4, r0
 5471 0606 27D1     		bne	.L390
 5472              	.LBB79:
1041:main.c        **** 				char* location = strstr(ReceiveBuffer, " ");
 5473              		.loc 2 1041 0 discriminator 15
 5474 0608 2021     		movs	r1, #32
 5475 060a 2046     		mov	r0, r4
 5476 060c FFF7FEFF 		bl	strchr
 5477              	.LVL786:
 5478 0610 02AC     		add	r4, sp, #8
 5479              	.LVL787:
 5480 0612 44F8040D 		str	r0, [r4, #-4]!
1042:main.c        **** 				uint8 contact = strtol(location, &location, 10);
 5481              		.loc 2 1042 0 discriminator 15
 5482 0616 0A22     		movs	r2, #10
 5483 0618 2146     		mov	r1, r4
 5484 061a FFF7FEFF 		bl	strtol
 5485              	.LVL788:
 5486 061e C5B2     		uxtb	r5, r0
 5487              	.LVL789:
1043:main.c        **** 				uint8 intermediate = strtol(location, &location, 10);
 5488              		.loc 2 1043 0 discriminator 15
 5489 0620 0A22     		movs	r2, #10
 5490 0622 2146     		mov	r1, r4
 5491 0624 0198     		ldr	r0, [sp, #4]
 5492 0626 FFF7FEFF 		bl	strtol
 5493              	.LVL790:
 5494 062a C6B2     		uxtb	r6, r0
 5495              	.LVL791:
1044:main.c        **** 				Disconnect_Contact_From_Intermediate(contact, intermediate);
 5496              		.loc 2 1044 0 discriminator 15
 5497 062c 3146     		mov	r1, r6
 5498 062e 2846     		mov	r0, r5
 5499 0630 FFF7FEFF 		bl	Disconnect_Contact_From_Intermediate
 5500              	.LVL792:
1045:main.c        **** 				
1046:main.c        **** 				sprintf(TransmitBuffer, "# Disonnected %u from %u\r\n", contact, intermediate);
 5501              		.loc 2 1046 0 discriminator 15
 5502 0634 1C4C     		ldr	r4, .L402+4
 5503 0636 3346     		mov	r3, r6
 5504 0638 2A46     		mov	r2, r5
 5505 063a 2949     		ldr	r1, .L402+60
 5506 063c 2046     		mov	r0, r4
 5507 063e FFF7FEFF 		bl	sprintf
 5508              	.LVL793:
1047:main.c        **** 				USBUARTH_Send(TransmitBuffer, strlen(TransmitBuffer));
 5509              		.loc 2 1047 0 discriminator 15
 5510 0642 2046     		mov	r0, r4
 5511 0644 FFF7FEFF 		bl	strlen
 5512              	.LVL794:
 5513 0648 81B2     		uxth	r1, r0
 5514 064a 2046     		mov	r0, r4
 5515 064c FFF7FEFF 		bl	USBUARTH_Send
 5516              	.LVL795:
ARM GAS  C:\Users\FRANKL~1\AppData\Local\Temp\ccPy0viy.s 			page 127


1048:main.c        **** 				UART_1_PutString(TransmitBuffer);
 5517              		.loc 2 1048 0 discriminator 15
 5518 0650 2046     		mov	r0, r4
 5519 0652 FFF7FEFF 		bl	UART_1_PutString
 5520              	.LVL796:
 5521              	.LBE79:
 5522 0656 06E5     		b	.L366
 5523              	.LVL797:
 5524              	.L390:
1049:main.c        **** 			} else 
1050:main.c        **** 			if (strstr(ReceiveBuffer, "disconnect-all-from ") == &ReceiveBuffer[0]) {
 5525              		.loc 2 1050 0
 5526 0658 2249     		ldr	r1, .L402+64
 5527 065a 2046     		mov	r0, r4
 5528 065c FFF7FEFF 		bl	strstr
 5529              	.LVL798:
 5530 0660 8442     		cmp	r4, r0
 5531 0662 43D1     		bne	.L391
 5532              	.LBB80:
1051:main.c        **** 				char* location = strstr(ReceiveBuffer, " ");
 5533              		.loc 2 1051 0 discriminator 16
 5534 0664 2021     		movs	r1, #32
 5535 0666 2046     		mov	r0, r4
 5536 0668 FFF7FEFF 		bl	strchr
 5537              	.LVL799:
 5538 066c 02A9     		add	r1, sp, #8
 5539 066e 41F8040D 		str	r0, [r1, #-4]!
1052:main.c        **** 				uint8 intermediate = strtol(location, &location, 10);
 5540              		.loc 2 1052 0 discriminator 16
 5541 0672 0A22     		movs	r2, #10
 5542 0674 FFF7FEFF 		bl	strtol
 5543              	.LVL800:
 5544 0678 C5B2     		uxtb	r5, r0
 5545              	.LVL801:
1053:main.c        **** 				Disconnect_All_Contacts_From_Intermediate(intermediate);
 5546              		.loc 2 1053 0 discriminator 16
 5547 067a 2846     		mov	r0, r5
 5548 067c FFF7FEFF 		bl	Disconnect_All_Contacts_From_Intermediate
 5549              	.LVL802:
1054:main.c        **** 				
1055:main.c        **** 				sprintf(TransmitBuffer, "# Disconnected all from  %u\r\n", intermediate);
 5550              		.loc 2 1055 0 discriminator 16
 5551 0680 094C     		ldr	r4, .L402+4
 5552              	.LVL803:
 5553 0682 2A46     		mov	r2, r5
 5554 0684 1849     		ldr	r1, .L402+68
 5555 0686 2046     		mov	r0, r4
 5556 0688 FFF7FEFF 		bl	sprintf
 5557              	.LVL804:
1056:main.c        **** 				USBUARTH_Send(TransmitBuffer, strlen(TransmitBuffer));
 5558              		.loc 2 1056 0 discriminator 16
 5559 068c 2046     		mov	r0, r4
 5560 068e FFF7FEFF 		bl	strlen
 5561              	.LVL805:
 5562 0692 81B2     		uxth	r1, r0
 5563 0694 2046     		mov	r0, r4
 5564 0696 FFF7FEFF 		bl	USBUARTH_Send
ARM GAS  C:\Users\FRANKL~1\AppData\Local\Temp\ccPy0viy.s 			page 128


 5565              	.LVL806:
1057:main.c        **** 				UART_1_PutString(TransmitBuffer);
 5566              		.loc 2 1057 0 discriminator 16
 5567 069a 2046     		mov	r0, r4
 5568 069c FFF7FEFF 		bl	UART_1_PutString
 5569              	.LVL807:
 5570              	.LBE80:
 5571 06a0 E1E4     		b	.L366
 5572              	.L403:
 5573 06a2 00BF     		.align	2
 5574              	.L402:
 5575 06a4 10020000 		.word	.LC34
 5576 06a8 00000000 		.word	TransmitBuffer
 5577 06ac 1C020000 		.word	.LC35
 5578 06b0 38020000 		.word	.LC36
 5579 06b4 54020000 		.word	.LC37
 5580 06b8 68020000 		.word	.LC38
 5581 06bc 88020000 		.word	.LC39
 5582 06c0 A8020000 		.word	.LC40
 5583 06c4 C0020000 		.word	.LC41
 5584 06c8 E4020000 		.word	.LC42
 5585 06cc 08030000 		.word	.LC43
 5586 06d0 14030000 		.word	.LC44
 5587 06d4 2C030000 		.word	.LC45
 5588 06d8 38030000 		.word	.LC46
 5589 06dc 58030000 		.word	.LC47
 5590 06e0 64030000 		.word	.LC48
 5591 06e4 80030000 		.word	.LC49
 5592 06e8 98030000 		.word	.LC50
 5593              	.LVL808:
 5594              	.L391:
1058:main.c        **** 			} else 
1059:main.c        **** 			if (strstr(ReceiveBuffer, "disconnect-all-from-all ") == &ReceiveBuffer[0]) {
 5595              		.loc 2 1059 0
 5596 06ec 6549     		ldr	r1, .L404
 5597 06ee 2046     		mov	r0, r4
 5598 06f0 FFF7FEFF 		bl	strstr
 5599              	.LVL809:
 5600 06f4 8442     		cmp	r4, r0
 5601 06f6 19D1     		bne	.L392
1060:main.c        **** 				Disconnect_All_Contacts_From_All_Intermediates();
 5602              		.loc 2 1060 0
 5603 06f8 FFF7FEFF 		bl	Disconnect_All_Contacts_From_All_Intermediates
 5604              	.LVL810:
1061:main.c        **** 				
1062:main.c        **** 				sprintf(TransmitBuffer, "# Disconnected all from all\r\n");
 5605              		.loc 2 1062 0
 5606 06fc 624D     		ldr	r5, .L404+4
 5607 06fe 634C     		ldr	r4, .L404+8
 5608              	.LVL811:
 5609 0700 0FCC     		ldmia	r4!, {r0, r1, r2, r3}
 5610 0702 2860     		str	r0, [r5]	@ unaligned
 5611 0704 6960     		str	r1, [r5, #4]	@ unaligned
 5612 0706 AA60     		str	r2, [r5, #8]	@ unaligned
 5613 0708 EB60     		str	r3, [r5, #12]	@ unaligned
 5614 070a 07CC     		ldmia	r4!, {r0, r1, r2}
 5615 070c 2861     		str	r0, [r5, #16]	@ unaligned
ARM GAS  C:\Users\FRANKL~1\AppData\Local\Temp\ccPy0viy.s 			page 129


 5616 070e 6961     		str	r1, [r5, #20]	@ unaligned
 5617 0710 AA61     		str	r2, [r5, #24]	@ unaligned
 5618 0712 2388     		ldrh	r3, [r4]	@ unaligned
 5619 0714 AB83     		strh	r3, [r5, #28]	@ unaligned
1063:main.c        **** 				USBUARTH_Send(TransmitBuffer, strlen(TransmitBuffer));
 5620              		.loc 2 1063 0
 5621 0716 2846     		mov	r0, r5
 5622 0718 FFF7FEFF 		bl	strlen
 5623              	.LVL812:
 5624 071c 81B2     		uxth	r1, r0
 5625 071e 2846     		mov	r0, r5
 5626 0720 FFF7FEFF 		bl	USBUARTH_Send
 5627              	.LVL813:
1064:main.c        **** 				UART_1_PutString(TransmitBuffer);
 5628              		.loc 2 1064 0
 5629 0724 2846     		mov	r0, r5
 5630 0726 FFF7FEFF 		bl	UART_1_PutString
 5631              	.LVL814:
 5632 072a 9CE4     		b	.L366
 5633              	.LVL815:
 5634              	.L392:
1065:main.c        **** 			} else 
1066:main.c        **** 			if (strstr(ReceiveBuffer, "disconnect-from-all ") == &ReceiveBuffer[0]) {
 5635              		.loc 2 1066 0
 5636 072c 5849     		ldr	r1, .L404+12
 5637 072e 2046     		mov	r0, r4
 5638 0730 FFF7FEFF 		bl	strstr
 5639              	.LVL816:
 5640 0734 8442     		cmp	r4, r0
 5641 0736 1ED1     		bne	.L393
 5642              	.LBB81:
1067:main.c        **** 				char* location = strstr(ReceiveBuffer, " ");
 5643              		.loc 2 1067 0 discriminator 17
 5644 0738 2021     		movs	r1, #32
 5645 073a 2046     		mov	r0, r4
 5646 073c FFF7FEFF 		bl	strchr
 5647              	.LVL817:
 5648 0740 02A9     		add	r1, sp, #8
 5649 0742 41F8040D 		str	r0, [r1, #-4]!
1068:main.c        **** 				uint8 contact = strtol(location, &location, 10);
 5650              		.loc 2 1068 0 discriminator 17
 5651 0746 0A22     		movs	r2, #10
 5652 0748 FFF7FEFF 		bl	strtol
 5653              	.LVL818:
 5654 074c C5B2     		uxtb	r5, r0
 5655              	.LVL819:
1069:main.c        **** 				Disconnect_Contact_From_All_Intermediates(contact);
 5656              		.loc 2 1069 0 discriminator 17
 5657 074e 2846     		mov	r0, r5
 5658 0750 FFF7FEFF 		bl	Disconnect_Contact_From_All_Intermediates
 5659              	.LVL820:
1070:main.c        **** 				
1071:main.c        **** 				sprintf(TransmitBuffer, "# Disconnected %u from all\r\n", contact);
 5660              		.loc 2 1071 0 discriminator 17
 5661 0754 4C4C     		ldr	r4, .L404+4
 5662              	.LVL821:
 5663 0756 2A46     		mov	r2, r5
ARM GAS  C:\Users\FRANKL~1\AppData\Local\Temp\ccPy0viy.s 			page 130


 5664 0758 4E49     		ldr	r1, .L404+16
 5665 075a 2046     		mov	r0, r4
 5666 075c FFF7FEFF 		bl	sprintf
 5667              	.LVL822:
1072:main.c        **** 				USBUARTH_Send(TransmitBuffer, strlen(TransmitBuffer));
 5668              		.loc 2 1072 0 discriminator 17
 5669 0760 2046     		mov	r0, r4
 5670 0762 FFF7FEFF 		bl	strlen
 5671              	.LVL823:
 5672 0766 81B2     		uxth	r1, r0
 5673 0768 2046     		mov	r0, r4
 5674 076a FFF7FEFF 		bl	USBUARTH_Send
 5675              	.LVL824:
1073:main.c        **** 				UART_1_PutString(TransmitBuffer);
 5676              		.loc 2 1073 0 discriminator 17
 5677 076e 2046     		mov	r0, r4
 5678 0770 FFF7FEFF 		bl	UART_1_PutString
 5679              	.LVL825:
 5680              	.LBE81:
 5681 0774 77E4     		b	.L366
 5682              	.LVL826:
 5683              	.L393:
1074:main.c        **** 			} else 
1075:main.c        **** 			if (strstr(ReceiveBuffer, "connect-intermediate ") == &ReceiveBuffer[0]) {
 5684              		.loc 2 1075 0
 5685 0776 4849     		ldr	r1, .L404+20
 5686 0778 2046     		mov	r0, r4
 5687 077a FFF7FEFF 		bl	strstr
 5688              	.LVL827:
 5689 077e 8442     		cmp	r4, r0
 5690 0780 1ED1     		bne	.L394
 5691              	.LBB82:
1076:main.c        **** 				char* location = strstr(ReceiveBuffer, " ");
 5692              		.loc 2 1076 0 discriminator 18
 5693 0782 2021     		movs	r1, #32
 5694 0784 2046     		mov	r0, r4
 5695 0786 FFF7FEFF 		bl	strchr
 5696              	.LVL828:
 5697 078a 02A9     		add	r1, sp, #8
 5698 078c 41F8040D 		str	r0, [r1, #-4]!
1077:main.c        **** 				uint8 intermediate = strtol(location, &location, 10);
 5699              		.loc 2 1077 0 discriminator 18
 5700 0790 0A22     		movs	r2, #10
 5701 0792 FFF7FEFF 		bl	strtol
 5702              	.LVL829:
 5703 0796 C5B2     		uxtb	r5, r0
 5704              	.LVL830:
1078:main.c        **** 				Connect_Intermediate(intermediate);
 5705              		.loc 2 1078 0 discriminator 18
 5706 0798 2846     		mov	r0, r5
 5707 079a FFF7FEFF 		bl	Connect_Intermediate
 5708              	.LVL831:
1079:main.c        **** 				
1080:main.c        **** 				sprintf(TransmitBuffer, "# Connected intermediate %u\r\n", intermediate);
 5709              		.loc 2 1080 0 discriminator 18
 5710 079e 3A4C     		ldr	r4, .L404+4
 5711              	.LVL832:
ARM GAS  C:\Users\FRANKL~1\AppData\Local\Temp\ccPy0viy.s 			page 131


 5712 07a0 2A46     		mov	r2, r5
 5713 07a2 3E49     		ldr	r1, .L404+24
 5714 07a4 2046     		mov	r0, r4
 5715 07a6 FFF7FEFF 		bl	sprintf
 5716              	.LVL833:
1081:main.c        **** 				USBUARTH_Send(TransmitBuffer, strlen(TransmitBuffer));
 5717              		.loc 2 1081 0 discriminator 18
 5718 07aa 2046     		mov	r0, r4
 5719 07ac FFF7FEFF 		bl	strlen
 5720              	.LVL834:
 5721 07b0 81B2     		uxth	r1, r0
 5722 07b2 2046     		mov	r0, r4
 5723 07b4 FFF7FEFF 		bl	USBUARTH_Send
 5724              	.LVL835:
1082:main.c        **** 				UART_1_PutString(TransmitBuffer);
 5725              		.loc 2 1082 0 discriminator 18
 5726 07b8 2046     		mov	r0, r4
 5727 07ba FFF7FEFF 		bl	UART_1_PutString
 5728              	.LVL836:
 5729              	.LBE82:
 5730 07be 52E4     		b	.L366
 5731              	.LVL837:
 5732              	.L394:
1083:main.c        **** 			} else 
1084:main.c        **** 			if (strstr(ReceiveBuffer, "connect-intermediates ") == &ReceiveBuffer[0]) {
 5733              		.loc 2 1084 0
 5734 07c0 3749     		ldr	r1, .L404+28
 5735 07c2 2046     		mov	r0, r4
 5736 07c4 FFF7FEFF 		bl	strstr
 5737              	.LVL838:
 5738 07c8 8442     		cmp	r4, r0
 5739 07ca 17D1     		bne	.L395
1085:main.c        **** 				Connect_Intermediates();
 5740              		.loc 2 1085 0
 5741 07cc FFF7FEFF 		bl	Connect_Intermediates
 5742              	.LVL839:
1086:main.c        **** 				
1087:main.c        **** 				sprintf(TransmitBuffer, "# Connected intermediates\r\n");
 5743              		.loc 2 1087 0
 5744 07d0 2D4D     		ldr	r5, .L404+4
 5745 07d2 344C     		ldr	r4, .L404+32
 5746              	.LVL840:
 5747 07d4 0FCC     		ldmia	r4!, {r0, r1, r2, r3}
 5748 07d6 2860     		str	r0, [r5]	@ unaligned
 5749 07d8 6960     		str	r1, [r5, #4]	@ unaligned
 5750 07da AA60     		str	r2, [r5, #8]	@ unaligned
 5751 07dc EB60     		str	r3, [r5, #12]	@ unaligned
 5752 07de 07CC     		ldmia	r4!, {r0, r1, r2}
 5753 07e0 2861     		str	r0, [r5, #16]	@ unaligned
 5754 07e2 6961     		str	r1, [r5, #20]	@ unaligned
 5755 07e4 AA61     		str	r2, [r5, #24]	@ unaligned
1088:main.c        **** 				USBUARTH_Send(TransmitBuffer, strlen(TransmitBuffer));
 5756              		.loc 2 1088 0
 5757 07e6 2846     		mov	r0, r5
 5758 07e8 FFF7FEFF 		bl	strlen
 5759              	.LVL841:
 5760 07ec 81B2     		uxth	r1, r0
ARM GAS  C:\Users\FRANKL~1\AppData\Local\Temp\ccPy0viy.s 			page 132


 5761 07ee 2846     		mov	r0, r5
 5762 07f0 FFF7FEFF 		bl	USBUARTH_Send
 5763              	.LVL842:
1089:main.c        **** 				UART_1_PutString(TransmitBuffer);
 5764              		.loc 2 1089 0
 5765 07f4 2846     		mov	r0, r5
 5766 07f6 FFF7FEFF 		bl	UART_1_PutString
 5767              	.LVL843:
 5768 07fa 34E4     		b	.L366
 5769              	.LVL844:
 5770              	.L395:
1090:main.c        **** 			} else 
1091:main.c        **** 			if (strstr(ReceiveBuffer, "Set_Current_Measurement_Sample_Count ") == &ReceiveBuffer[0]) {
 5771              		.loc 2 1091 0
 5772 07fc 2A49     		ldr	r1, .L404+36
 5773 07fe 2046     		mov	r0, r4
 5774 0800 FFF7FEFF 		bl	strstr
 5775              	.LVL845:
 5776 0804 8442     		cmp	r4, r0
 5777 0806 2AD1     		bne	.L396
 5778              	.LBB83:
1092:main.c        **** 				char* location = strstr(ReceiveBuffer, " ");
 5779              		.loc 2 1092 0 discriminator 19
 5780 0808 2021     		movs	r1, #32
 5781 080a 2046     		mov	r0, r4
 5782 080c FFF7FEFF 		bl	strchr
 5783              	.LVL846:
 5784 0810 02A9     		add	r1, sp, #8
 5785 0812 41F8040D 		str	r0, [r1, #-4]!
1093:main.c        **** 				uint32 sampleCount = strtol(location, &location, 10);
 5786              		.loc 2 1093 0 discriminator 19
 5787 0816 0A22     		movs	r2, #10
 5788 0818 FFF7FEFF 		bl	strtol
 5789              	.LVL847:
1094:main.c        **** 				
1095:main.c        **** 				Current_Measurement_Sample_Count = sampleCount;
 5790              		.loc 2 1095 0 discriminator 19
 5791 081c 234B     		ldr	r3, .L404+40
 5792 081e 1860     		str	r0, [r3]
1096:main.c        **** 				
1097:main.c        **** 				sprintf(TransmitBuffer, "# Set Current Measurement Sample Count\r\n");
 5793              		.loc 2 1097 0 discriminator 19
 5794 0820 234C     		ldr	r4, .L404+44
 5795              	.LVL848:
 5796 0822 194D     		ldr	r5, .L404+4
 5797 0824 04F12007 		add	r7, r4, #32
 5798              	.LVL849:
 5799              	.L397:
 5800 0828 2646     		mov	r6, r4
 5801 082a 0FCE     		ldmia	r6!, {r0, r1, r2, r3}
 5802 082c 2860     		str	r0, [r5]	@ unaligned
 5803 082e 6960     		str	r1, [r5, #4]	@ unaligned
 5804 0830 AA60     		str	r2, [r5, #8]	@ unaligned
 5805 0832 EB60     		str	r3, [r5, #12]	@ unaligned
 5806 0834 3446     		mov	r4, r6
 5807 0836 1035     		adds	r5, r5, #16
 5808 0838 BE42     		cmp	r6, r7
ARM GAS  C:\Users\FRANKL~1\AppData\Local\Temp\ccPy0viy.s 			page 133


 5809 083a F5D1     		bne	.L397
 5810 083c 03CC     		ldmia	r4!, {r0, r1}
 5811 083e 2860     		str	r0, [r5]	@ unaligned
 5812 0840 6960     		str	r1, [r5, #4]	@ unaligned
 5813 0842 2378     		ldrb	r3, [r4]	@ zero_extendqisi2
 5814 0844 2B72     		strb	r3, [r5, #8]
1098:main.c        **** 				USBUARTH_Send(TransmitBuffer, strlen(TransmitBuffer));
 5815              		.loc 2 1098 0 discriminator 19
 5816 0846 104C     		ldr	r4, .L404+4
 5817 0848 2046     		mov	r0, r4
 5818 084a FFF7FEFF 		bl	strlen
 5819              	.LVL850:
 5820 084e 81B2     		uxth	r1, r0
 5821 0850 2046     		mov	r0, r4
 5822 0852 FFF7FEFF 		bl	USBUARTH_Send
 5823              	.LVL851:
1099:main.c        **** 				UART_1_PutString(TransmitBuffer);
 5824              		.loc 2 1099 0 discriminator 19
 5825 0856 2046     		mov	r0, r4
 5826 0858 FFF7FEFF 		bl	UART_1_PutString
 5827              	.LVL852:
 5828              	.LBE83:
 5829 085c 03E4     		b	.L366
 5830              	.LVL853:
 5831              	.L396:
1100:main.c        **** 			} else {
1101:main.c        **** 				sprintf(TransmitBuffer, "! Unidentified command: |%s|\r\n", ReceiveBuffer);
 5832              		.loc 2 1101 0
 5833 085e 0A4D     		ldr	r5, .L404+4
 5834 0860 2246     		mov	r2, r4
 5835 0862 1449     		ldr	r1, .L404+48
 5836 0864 2846     		mov	r0, r5
 5837 0866 FFF7FEFF 		bl	sprintf
 5838              	.LVL854:
1102:main.c        **** 				USBUARTH_Send(TransmitBuffer, strlen(TransmitBuffer));
 5839              		.loc 2 1102 0
 5840 086a 2846     		mov	r0, r5
 5841 086c FFF7FEFF 		bl	strlen
 5842              	.LVL855:
 5843 0870 81B2     		uxth	r1, r0
 5844 0872 2846     		mov	r0, r5
 5845 0874 FFF7FEFF 		bl	USBUARTH_Send
 5846              	.LVL856:
1103:main.c        **** 				UART_1_PutString(TransmitBuffer);
 5847              		.loc 2 1103 0
 5848 0878 2846     		mov	r0, r5
 5849 087a FFF7FEFF 		bl	UART_1_PutString
 5850              	.LVL857:
 5851 087e FFF7F2BB 		b	.L366
 5852              	.L405:
 5853 0882 00BF     		.align	2
 5854              	.L404:
 5855 0884 B8030000 		.word	.LC51
 5856 0888 00000000 		.word	TransmitBuffer
 5857 088c D4030000 		.word	.LC52
 5858 0890 F4030000 		.word	.LC53
 5859 0894 0C040000 		.word	.LC54
ARM GAS  C:\Users\FRANKL~1\AppData\Local\Temp\ccPy0viy.s 			page 134


 5860 0898 2C040000 		.word	.LC55
 5861 089c 44040000 		.word	.LC56
 5862 08a0 64040000 		.word	.LC57
 5863 08a4 7C040000 		.word	.LC58
 5864 08a8 98040000 		.word	.LC59
 5865 08ac 00000000 		.word	Current_Measurement_Sample_Count
 5866 08b0 C0040000 		.word	.LC60
 5867 08b4 EC040000 		.word	.LC61
 5868              	.LBE64:
 5869              		.cfi_endproc
 5870              	.LFE109:
 5871              		.size	main, .-main
 5872              		.comm	Current_Measurement_Sample_Count,4,4
 5873              		.comm	Vds_Index_Goal_Relative,2,2
 5874              		.comm	Vgs_Index_Goal_Relative,2,2
 5875              		.comm	Compliance_Reached,1,1
 5876              		.comm	USBUART_Rx_Position,1,1
 5877              		.comm	USBUART_Receive_Buffer,64,4
 5878              		.comm	UART_Rx_Position,1,1
 5879              		.comm	UART_Receive_Buffer,64,4
 5880              		.global	G_Pause
 5881              		.global	G_Break
 5882              		.global	G_Stop
 5883              		.global	newData
 5884              		.comm	TransmitBuffer,64,4
 5885              		.comm	selectors,1020,4
 5886              		.section	.rodata.str1.4,"aMS",%progbits,1
 5887              		.align	2
 5888              	.LC0:
 5889 0000 73746F70 		.ascii	"stop \000"
 5889      2000
 5890 0006 0000     		.space	2
 5891              	.LC1:
 5892 0008 62726561 		.ascii	"break \000"
 5892      6B2000
 5893 000f 00       		.space	1
 5894              	.LC2:
 5895 0010 70617573 		.ascii	"pause \000"
 5895      652000
 5896 0017 00       		.space	1
 5897              	.LC3:
 5898 0018 72657375 		.ascii	"resume \000"
 5898      6D652000 
 5899              	.LC4:
 5900 0020 74726973 		.ascii	"tristate \000"
 5900      74617465 
 5900      2000
 5901 002a 0000     		.space	2
 5902              	.LC5:
 5903 002c 55706461 		.ascii	"Updating Selector %u\015\012\000"
 5903      74696E67 
 5903      2053656C 
 5903      6563746F 
 5903      72202575 
 5904 0043 00       		.space	1
 5905              	.LC6:
 5906 0044 49324320 		.ascii	"I2C Transfer Error! Type: Timeout\015\012\000"
ARM GAS  C:\Users\FRANKL~1\AppData\Local\Temp\ccPy0viy.s 			page 135


 5906      5472616E 
 5906      73666572 
 5906      20457272 
 5906      6F722120 
 5907              	.LC7:
 5908 0068 49324320 		.ascii	"I2C Transfer Error! \000"
 5908      5472616E 
 5908      73666572 
 5908      20457272 
 5908      6F722120 
 5909 007d 000000   		.space	3
 5910              	.LC8:
 5911 0080 54797065 		.ascii	"Type: NAK\000"
 5911      3A204E41 
 5911      4B00
 5912 008a 0000     		.space	2
 5913              	.LC9:
 5914 008c 0D0A00   		.ascii	"\015\012\000"
 5915 008f 00       		.space	1
 5916              	.LC10:
 5917 0090 55706461 		.ascii	"Updated Selector %u\015\012\000"
 5917      74656420 
 5917      53656C65 
 5917      63746F72 
 5917      2025750D 
 5918 00a6 0000     		.space	2
 5919              	.LC11:
 5920 00a8 256C752C 		.ascii	"%lu,\000"
 5920      00
 5921 00ad 000000   		.space	3
 5922              	.LC12:
 5923 00b0 5B25652C 		.ascii	"[%e,%f,%f,%f,%f]\015\012\000"
 5923      25662C25 
 5923      662C2566 
 5923      2C25665D 
 5923      0D0A00
 5924 00c3 00       		.space	1
 5925              	.LC13:
 5926 00c4 0D0A2575 		.ascii	"\015\012%u\015\012\000"
 5926      0D0A00
 5927 00cb 00       		.space	1
 5928              	.LC14:
 5929 00cc 0D0A2320 		.ascii	"\015\012# Starting\015\012\000"
 5929      53746172 
 5929      74696E67 
 5929      0D0A00
 5930 00db 00       		.space	1
 5931              	.LC15:
 5932 00dc 6D656173 		.ascii	"measure \000"
 5932      75726520 
 5932      00
 5933 00e5 000000   		.space	3
 5934              	.LC16:
 5935 00e8 6D656173 		.ascii	"measure-multiple \000"
 5935      7572652D 
 5935      6D756C74 
 5935      69706C65 
ARM GAS  C:\Users\FRANKL~1\AppData\Local\Temp\ccPy0viy.s 			page 136


 5935      2000
 5936 00fa 0000     		.space	2
 5937              	.LC17:
 5938 00fc 6D656173 		.ascii	"measure-sweep \000"
 5938      7572652D 
 5938      73776565 
 5938      702000
 5939 010b 00       		.space	1
 5940              	.LC18:
 5941 010c 6D656173 		.ascii	"measure-gate-sweep \000"
 5941      7572652D 
 5941      67617465 
 5941      2D737765 
 5941      65702000 
 5942              	.LC19:
 5943 0120 6D656173 		.ascii	"measure-gate-sweep-loop \000"
 5943      7572652D 
 5943      67617465 
 5943      2D737765 
 5943      65702D6C 
 5944 0139 000000   		.space	3
 5945              	.LC20:
 5946 013c 7365742D 		.ascii	"set-vgs-raw \000"
 5946      7667732D 
 5946      72617720 
 5946      00
 5947 0149 000000   		.space	3
 5948              	.LC21:
 5949 014c 7365742D 		.ascii	"set-vds-raw \000"
 5949      7664732D 
 5949      72617720 
 5949      00
 5950 0159 000000   		.space	3
 5951              	.LC22:
 5952 015c 7365742D 		.ascii	"set-vgs-rel \000"
 5952      7667732D 
 5952      72656C20 
 5952      00
 5953 0169 000000   		.space	3
 5954              	.LC23:
 5955 016c 7365742D 		.ascii	"set-vds-rel \000"
 5955      7664732D 
 5955      72656C20 
 5955      00
 5956 0179 000000   		.space	3
 5957              	.LC24:
 5958 017c 7365742D 		.ascii	"set-vgs \000"
 5958      76677320 
 5958      00
 5959 0185 000000   		.space	3
 5960              	.LC25:
 5961 0188 256600   		.ascii	"%f\000"
 5962 018b 00       		.space	1
 5963              	.LC26:
 5964 018c 7365742D 		.ascii	"set-vds \000"
 5964      76647320 
 5964      00
ARM GAS  C:\Users\FRANKL~1\AppData\Local\Temp\ccPy0viy.s 			page 137


 5965 0195 000000   		.space	3
 5966              	.LC27:
 5967 0198 7365742D 		.ascii	"set-vgs-mv \000"
 5967      7667732D 
 5967      6D762000 
 5968              	.LC28:
 5969 01a4 23205667 		.ascii	"# Vgs set to %f mV\015\012\000"
 5969      73207365 
 5969      7420746F 
 5969      20256620 
 5969      6D560D0A 
 5970 01b9 000000   		.space	3
 5971              	.LC29:
 5972 01bc 7365742D 		.ascii	"set-vds-mv \000"
 5972      7664732D 
 5972      6D762000 
 5973              	.LC30:
 5974 01c8 23205664 		.ascii	"# Vds set to %f mV\015\012\000"
 5974      73207365 
 5974      7420746F 
 5974      20256620 
 5974      6D560D0A 
 5975 01dd 000000   		.space	3
 5976              	.LC31:
 5977 01e0 7363616E 		.ascii	"scan \000"
 5977      2000
 5978 01e6 0000     		.space	2
 5979              	.LC32:
 5980 01e8 0D0A2320 		.ascii	"\015\012# Scan Starting\015\012\000"
 5980      5363616E 
 5980      20537461 
 5980      7274696E 
 5980      670D0A00 
 5981              	.LC33:
 5982 01fc 0D0A2320 		.ascii	"\015\012# Scan Complete\015\012\000"
 5982      5363616E 
 5982      20436F6D 
 5982      706C6574 
 5982      650D0A00 
 5983              	.LC34:
 5984 0210 7363616E 		.ascii	"scan-range \000"
 5984      2D72616E 
 5984      67652000 
 5985              	.LC35:
 5986 021c 0D0A2320 		.ascii	"\015\012# Scan-Range Starting\015\012\000"
 5986      5363616E 
 5986      2D52616E 
 5986      67652053 
 5986      74617274 
 5987 0236 0000     		.space	2
 5988              	.LC36:
 5989 0238 0D0A2320 		.ascii	"\015\012# Scan Range Complete\015\012\000"
 5989      5363616E 
 5989      2052616E 
 5989      67652043 
 5989      6F6D706C 
 5990 0252 0000     		.space	2
ARM GAS  C:\Users\FRANKL~1\AppData\Local\Temp\ccPy0viy.s 			page 138


 5991              	.LC37:
 5992 0254 7363616E 		.ascii	"scan-range-loop \000"
 5992      2D72616E 
 5992      67652D6C 
 5992      6F6F7020 
 5992      00
 5993 0265 000000   		.space	3
 5994              	.LC38:
 5995 0268 0D0A2320 		.ascii	"\015\012# Scan-Range-Loop Starting\015\012\000"
 5995      5363616E 
 5995      2D52616E 
 5995      67652D4C 
 5995      6F6F7020 
 5996 0287 00       		.space	1
 5997              	.LC39:
 5998 0288 0D0A2320 		.ascii	"\015\012# Scan Range Loop Complete\015\012\000"
 5998      5363616E 
 5998      2052616E 
 5998      6765204C 
 5998      6F6F7020 
 5999 02a7 00       		.space	1
 6000              	.LC40:
 6001 02a8 7363616E 		.ascii	"scan-range-wide-loop \000"
 6001      2D72616E 
 6001      67652D77 
 6001      6964652D 
 6001      6C6F6F70 
 6002 02be 0000     		.space	2
 6003              	.LC41:
 6004 02c0 0D0A2320 		.ascii	"\015\012# Scan-Range-Wide-Loop Starting\015\012\000"
 6004      5363616E 
 6004      2D52616E 
 6004      67652D57 
 6004      6964652D 
 6005              	.LC42:
 6006 02e4 0D0A2320 		.ascii	"\015\012# Scan Range Wide Loop Complete\015\012\000"
 6006      5363616E 
 6006      2052616E 
 6006      67652057 
 6006      69646520 
 6007              	.LC43:
 6008 0308 636F6E6E 		.ascii	"connect \000"
 6008      65637420 
 6008      00
 6009 0311 000000   		.space	3
 6010              	.LC44:
 6011 0314 2320436F 		.ascii	"# Connected %u to %u\015\012\000"
 6011      6E6E6563 
 6011      74656420 
 6011      25752074 
 6011      6F202575 
 6012 032b 00       		.space	1
 6013              	.LC45:
 6014 032c 636F6E6E 		.ascii	"connect-c \000"
 6014      6563742D 
 6014      632000
 6015 0337 00       		.space	1
ARM GAS  C:\Users\FRANKL~1\AppData\Local\Temp\ccPy0viy.s 			page 139


 6016              	.LC46:
 6017 0338 2320436F 		.ascii	"# Connected channel %u to %u\015\012\000"
 6017      6E6E6563 
 6017      74656420 
 6017      6368616E 
 6017      6E656C20 
 6018 0357 00       		.space	1
 6019              	.LC47:
 6020 0358 64697363 		.ascii	"disconnect \000"
 6020      6F6E6E65 
 6020      63742000 
 6021              	.LC48:
 6022 0364 23204469 		.ascii	"# Disonnected %u from %u\015\012\000"
 6022      736F6E6E 
 6022      65637465 
 6022      64202575 
 6022      2066726F 
 6023 037f 00       		.space	1
 6024              	.LC49:
 6025 0380 64697363 		.ascii	"disconnect-all-from \000"
 6025      6F6E6E65 
 6025      63742D61 
 6025      6C6C2D66 
 6025      726F6D20 
 6026 0395 000000   		.space	3
 6027              	.LC50:
 6028 0398 23204469 		.ascii	"# Disconnected all from  %u\015\012\000"
 6028      73636F6E 
 6028      6E656374 
 6028      65642061 
 6028      6C6C2066 
 6029 03b6 0000     		.space	2
 6030              	.LC51:
 6031 03b8 64697363 		.ascii	"disconnect-all-from-all \000"
 6031      6F6E6E65 
 6031      63742D61 
 6031      6C6C2D66 
 6031      726F6D2D 
 6032 03d1 000000   		.space	3
 6033              	.LC52:
 6034 03d4 23204469 		.ascii	"# Disconnected all from all\015\012\000"
 6034      73636F6E 
 6034      6E656374 
 6034      65642061 
 6034      6C6C2066 
 6035 03f2 0000     		.space	2
 6036              	.LC53:
 6037 03f4 64697363 		.ascii	"disconnect-from-all \000"
 6037      6F6E6E65 
 6037      63742D66 
 6037      726F6D2D 
 6037      616C6C20 
 6038 0409 000000   		.space	3
 6039              	.LC54:
 6040 040c 23204469 		.ascii	"# Disconnected %u from all\015\012\000"
 6040      73636F6E 
 6040      6E656374 
ARM GAS  C:\Users\FRANKL~1\AppData\Local\Temp\ccPy0viy.s 			page 140


 6040      65642025 
 6040      75206672 
 6041 0429 000000   		.space	3
 6042              	.LC55:
 6043 042c 636F6E6E 		.ascii	"connect-intermediate \000"
 6043      6563742D 
 6043      696E7465 
 6043      726D6564 
 6043      69617465 
 6044 0442 0000     		.space	2
 6045              	.LC56:
 6046 0444 2320436F 		.ascii	"# Connected intermediate %u\015\012\000"
 6046      6E6E6563 
 6046      74656420 
 6046      696E7465 
 6046      726D6564 
 6047 0462 0000     		.space	2
 6048              	.LC57:
 6049 0464 636F6E6E 		.ascii	"connect-intermediates \000"
 6049      6563742D 
 6049      696E7465 
 6049      726D6564 
 6049      69617465 
 6050 047b 00       		.space	1
 6051              	.LC58:
 6052 047c 2320436F 		.ascii	"# Connected intermediates\015\012\000"
 6052      6E6E6563 
 6052      74656420 
 6052      696E7465 
 6052      726D6564 
 6053              	.LC59:
 6054 0498 5365745F 		.ascii	"Set_Current_Measurement_Sample_Count \000"
 6054      43757272 
 6054      656E745F 
 6054      4D656173 
 6054      7572656D 
 6055 04be 0000     		.space	2
 6056              	.LC60:
 6057 04c0 23205365 		.ascii	"# Set Current Measurement Sample Count\015\012\000"
 6057      74204375 
 6057      7272656E 
 6057      74204D65 
 6057      61737572 
 6058 04e9 000000   		.space	3
 6059              	.LC61:
 6060 04ec 2120556E 		.ascii	"! Unidentified command: |%s|\015\012\000"
 6060      6964656E 
 6060      74696669 
 6060      65642063 
 6060      6F6D6D61 
 6061              		.bss
 6062              		.set	.LANCHOR0,. + 0
 6063              		.type	newData, %object
 6064              		.size	newData, 1
 6065              	newData:
 6066 0000 00       		.space	1
 6067              		.type	G_Stop, %object
ARM GAS  C:\Users\FRANKL~1\AppData\Local\Temp\ccPy0viy.s 			page 141


 6068              		.size	G_Stop, 1
 6069              	G_Stop:
 6070 0001 00       		.space	1
 6071              		.type	G_Break, %object
 6072              		.size	G_Break, 1
 6073              	G_Break:
 6074 0002 00       		.space	1
 6075              		.type	G_Pause, %object
 6076              		.size	G_Pause, 1
 6077              	G_Pause:
 6078 0003 00       		.space	1
 6079              		.text
 6080              	.Letext0:
 6081              		.file 3 "c:\\program files (x86)\\cypress\\psoc creator\\4.1\\psoc creator\\import\\gnu\\arm\\5.4.
 6082              		.file 4 "c:\\program files (x86)\\cypress\\psoc creator\\4.1\\psoc creator\\import\\gnu\\arm\\5.4.
 6083              		.file 5 "Generated_Source\\PSoC5/cytypes.h"
 6084              		.file 6 "Generated_Source\\PSoC5/core_cm3.h"
 6085              		.file 7 "Generated_Source\\PSoC5/USBUART.h"
 6086              		.file 8 "Generated_Source\\PSoC5/USBUART_cdc.h"
 6087              		.file 9 "c:\\program files (x86)\\cypress\\psoc creator\\4.1\\psoc creator\\import\\gnu\\arm\\5.4.
 6088              		.file 10 "Generated_Source\\PSoC5/UART_1.h"
 6089              		.file 11 "Generated_Source\\PSoC5/CommunicationInterrupt.h"
 6090              		.file 12 "Generated_Source\\PSoC5/CommunicationTimer.h"
 6091              		.file 13 "Generated_Source\\PSoC5/I2C_1.h"
 6092              		.file 14 "c:\\program files (x86)\\cypress\\psoc creator\\4.1\\psoc creator\\import\\gnu\\arm\\5.4
 6093              		.file 15 "Generated_Source\\PSoC5/ADC_DelSig_1.h"
 6094              		.file 16 "Generated_Source\\PSoC5/ADC_SAR_1.h"
 6095              		.file 17 "Generated_Source\\PSoC5/ADC_SAR_2.h"
 6096              		.file 18 "Generated_Source\\PSoC5/VDAC_Vgs.h"
 6097              		.file 19 "Generated_Source\\PSoC5/VDAC_Vds.h"
 6098              		.file 20 "Generated_Source\\PSoC5/VDAC_Ref.h"
 6099              		.file 21 "c:\\program files (x86)\\cypress\\psoc creator\\4.1\\psoc creator\\import\\gnu\\arm\\5.4
 6100              		.file 22 "Generated_Source\\PSoC5/TIA_1.h"
 6101              		.file 23 "Generated_Source\\PSoC5/CyLib.h"
 6102              		.file 24 "<built-in>"
 6103              		.section	.debug_info,"",%progbits
 6104              	.Ldebug_info0:
 6105 0000 0A360000 		.4byte	0x360a
 6106 0004 0400     		.2byte	0x4
 6107 0006 00000000 		.4byte	.Ldebug_abbrev0
 6108 000a 04       		.byte	0x4
 6109 000b 01       		.uleb128 0x1
 6110 000c 75080000 		.4byte	.LASF220
 6111 0010 0C       		.byte	0xc
 6112 0011 D6060000 		.4byte	.LASF221
 6113 0015 3B0B0000 		.4byte	.LASF222
 6114 0019 38010000 		.4byte	.Ldebug_ranges0+0x138
 6115 001d 00000000 		.4byte	0
 6116 0021 00000000 		.4byte	.Ldebug_line0
 6117 0025 02       		.uleb128 0x2
 6118 0026 04       		.byte	0x4
 6119 0027 04       		.byte	0x4
 6120 0028 2F070000 		.4byte	.LASF0
 6121 002c 02       		.uleb128 0x2
 6122 002d 08       		.byte	0x8
 6123 002e 04       		.byte	0x4
 6124 002f 01030000 		.4byte	.LASF1
ARM GAS  C:\Users\FRANKL~1\AppData\Local\Temp\ccPy0viy.s 			page 142


 6125 0033 02       		.uleb128 0x2
 6126 0034 04       		.byte	0x4
 6127 0035 07       		.byte	0x7
 6128 0036 0A040000 		.4byte	.LASF2
 6129 003a 03       		.uleb128 0x3
 6130 003b 04       		.byte	0x4
 6131 003c 05       		.byte	0x5
 6132 003d 696E7400 		.ascii	"int\000"
 6133 0041 02       		.uleb128 0x2
 6134 0042 08       		.byte	0x8
 6135 0043 05       		.byte	0x5
 6136 0044 E1010000 		.4byte	.LASF3
 6137 0048 02       		.uleb128 0x2
 6138 0049 08       		.byte	0x8
 6139 004a 04       		.byte	0x4
 6140 004b 79090000 		.4byte	.LASF4
 6141 004f 02       		.uleb128 0x2
 6142 0050 01       		.byte	0x1
 6143 0051 06       		.byte	0x6
 6144 0052 EF010000 		.4byte	.LASF5
 6145 0056 02       		.uleb128 0x2
 6146 0057 01       		.byte	0x1
 6147 0058 08       		.byte	0x8
 6148 0059 AB070000 		.4byte	.LASF6
 6149 005d 02       		.uleb128 0x2
 6150 005e 02       		.byte	0x2
 6151 005f 05       		.byte	0x5
 6152 0060 67050000 		.4byte	.LASF7
 6153 0064 02       		.uleb128 0x2
 6154 0065 02       		.byte	0x2
 6155 0066 07       		.byte	0x7
 6156 0067 DE040000 		.4byte	.LASF8
 6157 006b 04       		.uleb128 0x4
 6158 006c 71050000 		.4byte	.LASF14
 6159 0070 03       		.byte	0x3
 6160 0071 3F       		.byte	0x3f
 6161 0072 76000000 		.4byte	0x76
 6162 0076 02       		.uleb128 0x2
 6163 0077 04       		.byte	0x4
 6164 0078 05       		.byte	0x5
 6165 0079 97020000 		.4byte	.LASF9
 6166 007d 02       		.uleb128 0x2
 6167 007e 04       		.byte	0x4
 6168 007f 07       		.byte	0x7
 6169 0080 8E040000 		.4byte	.LASF10
 6170 0084 02       		.uleb128 0x2
 6171 0085 08       		.byte	0x8
 6172 0086 07       		.byte	0x7
 6173 0087 D5000000 		.4byte	.LASF11
 6174 008b 02       		.uleb128 0x2
 6175 008c 04       		.byte	0x4
 6176 008d 07       		.byte	0x7
 6177 008e 28060000 		.4byte	.LASF12
 6178 0092 05       		.uleb128 0x5
 6179 0093 04       		.byte	0x4
 6180 0094 98000000 		.4byte	0x98
 6181 0098 02       		.uleb128 0x2
ARM GAS  C:\Users\FRANKL~1\AppData\Local\Temp\ccPy0viy.s 			page 143


 6182 0099 01       		.byte	0x1
 6183 009a 08       		.byte	0x8
 6184 009b AF090000 		.4byte	.LASF13
 6185 009f 05       		.uleb128 0x5
 6186 00a0 04       		.byte	0x4
 6187 00a1 A5000000 		.4byte	0xa5
 6188 00a5 06       		.uleb128 0x6
 6189 00a6 98000000 		.4byte	0x98
 6190 00aa 04       		.uleb128 0x4
 6191 00ab A3070000 		.4byte	.LASF15
 6192 00af 04       		.byte	0x4
 6193 00b0 2C       		.byte	0x2c
 6194 00b1 6B000000 		.4byte	0x6b
 6195 00b5 07       		.uleb128 0x7
 6196 00b6 DB020000 		.4byte	.LASF16
 6197 00ba 05       		.byte	0x5
 6198 00bb 9201     		.2byte	0x192
 6199 00bd 56000000 		.4byte	0x56
 6200 00c1 07       		.uleb128 0x7
 6201 00c2 AD030000 		.4byte	.LASF17
 6202 00c6 05       		.byte	0x5
 6203 00c7 9301     		.2byte	0x193
 6204 00c9 64000000 		.4byte	0x64
 6205 00cd 07       		.uleb128 0x7
 6206 00ce 35030000 		.4byte	.LASF18
 6207 00d2 05       		.byte	0x5
 6208 00d3 9401     		.2byte	0x194
 6209 00d5 7D000000 		.4byte	0x7d
 6210 00d9 07       		.uleb128 0x7
 6211 00da FA040000 		.4byte	.LASF19
 6212 00de 05       		.byte	0x5
 6213 00df 9501     		.2byte	0x195
 6214 00e1 4F000000 		.4byte	0x4f
 6215 00e5 07       		.uleb128 0x7
 6216 00e6 230C0000 		.4byte	.LASF20
 6217 00ea 05       		.byte	0x5
 6218 00eb 9601     		.2byte	0x196
 6219 00ed 5D000000 		.4byte	0x5d
 6220 00f1 07       		.uleb128 0x7
 6221 00f2 53020000 		.4byte	.LASF21
 6222 00f6 05       		.byte	0x5
 6223 00f7 9701     		.2byte	0x197
 6224 00f9 76000000 		.4byte	0x76
 6225 00fd 07       		.uleb128 0x7
 6226 00fe 8F070000 		.4byte	.LASF22
 6227 0102 05       		.byte	0x5
 6228 0103 3C02     		.2byte	0x23c
 6229 0105 09010000 		.4byte	0x109
 6230 0109 08       		.uleb128 0x8
 6231 010a B5000000 		.4byte	0xb5
 6232 010e 09       		.uleb128 0x9
 6233 010f 7F       		.byte	0x7f
 6234 0110 02       		.byte	0x2
 6235 0111 08       		.byte	0x8
 6236 0112 2F010000 		.4byte	0x12f
 6237 0116 0A       		.uleb128 0xa
 6238 0117 7A060000 		.4byte	.LASF23
ARM GAS  C:\Users\FRANKL~1\AppData\Local\Temp\ccPy0viy.s 			page 144


 6239 011b 02       		.byte	0x2
 6240 011c 09       		.byte	0x9
 6241 011d B5000000 		.4byte	0xb5
 6242 0121 00       		.byte	0
 6243 0122 0A       		.uleb128 0xa
 6244 0123 D9040000 		.4byte	.LASF24
 6245 0127 02       		.byte	0x2
 6246 0128 0A       		.byte	0xa
 6247 0129 2F010000 		.4byte	0x12f
 6248 012d 01       		.byte	0x1
 6249 012e 00       		.byte	0
 6250 012f 0B       		.uleb128 0xb
 6251 0130 B5000000 		.4byte	0xb5
 6252 0134 3F010000 		.4byte	0x13f
 6253 0138 0C       		.uleb128 0xc
 6254 0139 8B000000 		.4byte	0x8b
 6255 013d 7D       		.byte	0x7d
 6256 013e 00       		.byte	0
 6257 013f 09       		.uleb128 0x9
 6258 0140 7F       		.byte	0x7f
 6259 0141 02       		.byte	0x2
 6260 0142 0C       		.byte	0xc
 6261 0143 60010000 		.4byte	0x160
 6262 0147 0A       		.uleb128 0xa
 6263 0148 7A060000 		.4byte	.LASF23
 6264 014c 02       		.byte	0x2
 6265 014d 0D       		.byte	0xd
 6266 014e B5000000 		.4byte	0xb5
 6267 0152 00       		.byte	0
 6268 0153 0A       		.uleb128 0xa
 6269 0154 D9040000 		.4byte	.LASF24
 6270 0158 02       		.byte	0x2
 6271 0159 0E       		.byte	0xe
 6272 015a 2F010000 		.4byte	0x12f
 6273 015e 01       		.byte	0x1
 6274 015f 00       		.byte	0
 6275 0160 0D       		.uleb128 0xd
 6276 0161 000A0000 		.4byte	.LASF223
 6277 0165 FF       		.byte	0xff
 6278 0166 02       		.byte	0x2
 6279 0167 07       		.byte	0x7
 6280 0168 91010000 		.4byte	0x191
 6281 016c 0A       		.uleb128 0xa
 6282 016d D1050000 		.4byte	.LASF25
 6283 0171 02       		.byte	0x2
 6284 0172 0B       		.byte	0xb
 6285 0173 0E010000 		.4byte	0x10e
 6286 0177 00       		.byte	0
 6287 0178 0A       		.uleb128 0xa
 6288 0179 3C0C0000 		.4byte	.LASF26
 6289 017d 02       		.byte	0x2
 6290 017e 0F       		.byte	0xf
 6291 017f 3F010000 		.4byte	0x13f
 6292 0183 7F       		.byte	0x7f
 6293 0184 0A       		.uleb128 0xa
 6294 0185 B4030000 		.4byte	.LASF27
 6295 0189 02       		.byte	0x2
ARM GAS  C:\Users\FRANKL~1\AppData\Local\Temp\ccPy0viy.s 			page 145


 6296 018a 10       		.byte	0x10
 6297 018b B5000000 		.4byte	0xb5
 6298 018f FE       		.byte	0xfe
 6299 0190 00       		.byte	0
 6300 0191 0E       		.uleb128 0xe
 6301 0192 21020000 		.4byte	.LASF59
 6302 0196 01       		.byte	0x1
 6303 0197 10       		.byte	0x10
 6304 0198 00000000 		.4byte	.LFB64
 6305 019c 18000000 		.4byte	.LFE64-.LFB64
 6306 01a0 01       		.uleb128 0x1
 6307 01a1 9C       		.byte	0x9c
 6308 01a2 DA010000 		.4byte	0x1da
 6309 01a6 0F       		.uleb128 0xf
 6310 01a7 B9070000 		.4byte	.LASF30
 6311 01ab 01       		.byte	0x1
 6312 01ac 11       		.byte	0x11
 6313 01ad 7D000000 		.4byte	0x7d
 6314 01b1 00000000 		.4byte	.LLST0
 6315 01b5 10       		.uleb128 0x10
 6316 01b6 06000000 		.4byte	.LVL1
 6317 01ba D5330000 		.4byte	0x33d5
 6318 01be 10       		.uleb128 0x10
 6319 01bf 0C000000 		.4byte	.LVL2
 6320 01c3 E1330000 		.4byte	0x33e1
 6321 01c7 10       		.uleb128 0x10
 6322 01c8 12000000 		.4byte	.LVL3
 6323 01cc ED330000 		.4byte	0x33ed
 6324 01d0 10       		.uleb128 0x10
 6325 01d1 16000000 		.4byte	.LVL4
 6326 01d5 E1330000 		.4byte	0x33e1
 6327 01d9 00       		.byte	0
 6328 01da 11       		.uleb128 0x11
 6329 01db 8A0C0000 		.4byte	.LASF28
 6330 01df 01       		.byte	0x1
 6331 01e0 22       		.byte	0x22
 6332 01e1 B5000000 		.4byte	0xb5
 6333 01e5 00000000 		.4byte	.LFB65
 6334 01e9 1E000000 		.4byte	.LFE65-.LFB65
 6335 01ed 01       		.uleb128 0x1
 6336 01ee 9C       		.byte	0x9c
 6337 01ef 0F020000 		.4byte	0x20f
 6338 01f3 10       		.uleb128 0x10
 6339 01f4 06000000 		.4byte	.LVL5
 6340 01f8 91010000 		.4byte	0x191
 6341 01fc 10       		.uleb128 0x10
 6342 01fd 0A000000 		.4byte	.LVL6
 6343 0201 E1330000 		.4byte	0x33e1
 6344 0205 10       		.uleb128 0x10
 6345 0206 10000000 		.4byte	.LVL7
 6346 020a F8330000 		.4byte	0x33f8
 6347 020e 00       		.byte	0
 6348 020f 12       		.uleb128 0x12
 6349 0210 BC090000 		.4byte	.LASF29
 6350 0214 02       		.byte	0x2
 6351 0215 0C03     		.2byte	0x30c
 6352 0217 00000000 		.4byte	.LFB108
ARM GAS  C:\Users\FRANKL~1\AppData\Local\Temp\ccPy0viy.s 			page 146


 6353 021b B0010000 		.4byte	.LFE108-.LFB108
 6354 021f 01       		.uleb128 0x1
 6355 0220 9C       		.byte	0x9c
 6356 0221 70030000 		.4byte	0x370
 6357 0225 13       		.uleb128 0x13
 6358 0226 0C000000 		.4byte	.LBB2
 6359 022a 70000000 		.4byte	.LBE2-.LBB2
 6360 022e 97020000 		.4byte	0x297
 6361 0232 14       		.uleb128 0x14
 6362 0233 940A0000 		.4byte	.LASF31
 6363 0237 02       		.byte	0x2
 6364 0238 1003     		.2byte	0x310
 6365 023a 70030000 		.4byte	0x370
 6366 023e 03       		.uleb128 0x3
 6367 023f 91       		.byte	0x91
 6368 0240 B07F     		.sleb128 -80
 6369 0242 15       		.uleb128 0x15
 6370 0243 180C0000 		.4byte	.LASF32
 6371 0247 02       		.byte	0x2
 6372 0248 1103     		.2byte	0x311
 6373 024a B5000000 		.4byte	0xb5
 6374 024e 20000000 		.4byte	.LLST1
 6375 0252 13       		.uleb128 0x13
 6376 0253 14000000 		.4byte	.LBB3
 6377 0257 68000000 		.4byte	.LBE3-.LBB3
 6378 025b 86020000 		.4byte	0x286
 6379 025f 16       		.uleb128 0x16
 6380 0260 6900     		.ascii	"i\000"
 6381 0262 02       		.byte	0x2
 6382 0263 1303     		.2byte	0x313
 6383 0265 B5000000 		.4byte	0xb5
 6384 0269 33000000 		.4byte	.LLST2
 6385 026d 17       		.uleb128 0x17
 6386 026e 18000000 		.4byte	.LBB4
 6387 0272 5A000000 		.4byte	.LBE4-.LBB4
 6388 0276 16       		.uleb128 0x16
 6389 0277 6300     		.ascii	"c\000"
 6390 0279 02       		.byte	0x2
 6391 027a 1403     		.2byte	0x314
 6392 027c 98000000 		.4byte	0x98
 6393 0280 5D000000 		.4byte	.LLST3
 6394 0284 00       		.byte	0
 6395 0285 00       		.byte	0
 6396 0286 18       		.uleb128 0x18
 6397 0287 12000000 		.4byte	.LVL9
 6398 028b 03340000 		.4byte	0x3403
 6399 028f 19       		.uleb128 0x19
 6400 0290 01       		.uleb128 0x1
 6401 0291 50       		.byte	0x50
 6402 0292 02       		.uleb128 0x2
 6403 0293 7D       		.byte	0x7d
 6404 0294 00       		.sleb128 0
 6405 0295 00       		.byte	0
 6406 0296 00       		.byte	0
 6407 0297 13       		.uleb128 0x13
 6408 0298 FC000000 		.4byte	.LBB5
 6409 029c 80000000 		.4byte	.LBE5-.LBB5
ARM GAS  C:\Users\FRANKL~1\AppData\Local\Temp\ccPy0viy.s 			page 147


 6410 02a0 42030000 		.4byte	0x342
 6411 02a4 15       		.uleb128 0x15
 6412 02a5 1F000000 		.4byte	.LASF33
 6413 02a9 02       		.byte	0x2
 6414 02aa 3503     		.2byte	0x335
 6415 02ac 92000000 		.4byte	0x92
 6416 02b0 B1000000 		.4byte	.LLST4
 6417 02b4 1A       		.uleb128 0x1a
 6418 02b5 14010000 		.4byte	.LVL23
 6419 02b9 0E340000 		.4byte	0x340e
 6420 02bd D1020000 		.4byte	0x2d1
 6421 02c1 19       		.uleb128 0x19
 6422 02c2 01       		.uleb128 0x1
 6423 02c3 50       		.byte	0x50
 6424 02c4 02       		.uleb128 0x2
 6425 02c5 74       		.byte	0x74
 6426 02c6 00       		.sleb128 0
 6427 02c7 19       		.uleb128 0x19
 6428 02c8 01       		.uleb128 0x1
 6429 02c9 51       		.byte	0x51
 6430 02ca 05       		.uleb128 0x5
 6431 02cb 03       		.byte	0x3
 6432 02cc 00000000 		.4byte	.LC0
 6433 02d0 00       		.byte	0
 6434 02d1 1A       		.uleb128 0x1a
 6435 02d2 2C010000 		.4byte	.LVL24
 6436 02d6 0E340000 		.4byte	0x340e
 6437 02da EE020000 		.4byte	0x2ee
 6438 02de 19       		.uleb128 0x19
 6439 02df 01       		.uleb128 0x1
 6440 02e0 50       		.byte	0x50
 6441 02e1 02       		.uleb128 0x2
 6442 02e2 74       		.byte	0x74
 6443 02e3 00       		.sleb128 0
 6444 02e4 19       		.uleb128 0x19
 6445 02e5 01       		.uleb128 0x1
 6446 02e6 51       		.byte	0x51
 6447 02e7 05       		.uleb128 0x5
 6448 02e8 03       		.byte	0x3
 6449 02e9 08000000 		.4byte	.LC1
 6450 02ed 00       		.byte	0
 6451 02ee 1A       		.uleb128 0x1a
 6452 02ef 44010000 		.4byte	.LVL25
 6453 02f3 0E340000 		.4byte	0x340e
 6454 02f7 0B030000 		.4byte	0x30b
 6455 02fb 19       		.uleb128 0x19
 6456 02fc 01       		.uleb128 0x1
 6457 02fd 50       		.byte	0x50
 6458 02fe 02       		.uleb128 0x2
 6459 02ff 74       		.byte	0x74
 6460 0300 00       		.sleb128 0
 6461 0301 19       		.uleb128 0x19
 6462 0302 01       		.uleb128 0x1
 6463 0303 51       		.byte	0x51
 6464 0304 05       		.uleb128 0x5
 6465 0305 03       		.byte	0x3
 6466 0306 10000000 		.4byte	.LC2
ARM GAS  C:\Users\FRANKL~1\AppData\Local\Temp\ccPy0viy.s 			page 148


 6467 030a 00       		.byte	0
 6468 030b 1A       		.uleb128 0x1a
 6469 030c 5C010000 		.4byte	.LVL26
 6470 0310 0E340000 		.4byte	0x340e
 6471 0314 28030000 		.4byte	0x328
 6472 0318 19       		.uleb128 0x19
 6473 0319 01       		.uleb128 0x1
 6474 031a 50       		.byte	0x50
 6475 031b 02       		.uleb128 0x2
 6476 031c 74       		.byte	0x74
 6477 031d 00       		.sleb128 0
 6478 031e 19       		.uleb128 0x19
 6479 031f 01       		.uleb128 0x1
 6480 0320 51       		.byte	0x51
 6481 0321 05       		.uleb128 0x5
 6482 0322 03       		.byte	0x3
 6483 0323 18000000 		.4byte	.LC3
 6484 0327 00       		.byte	0
 6485 0328 18       		.uleb128 0x18
 6486 0329 72010000 		.4byte	.LVL27
 6487 032d 0E340000 		.4byte	0x340e
 6488 0331 19       		.uleb128 0x19
 6489 0332 01       		.uleb128 0x1
 6490 0333 50       		.byte	0x50
 6491 0334 02       		.uleb128 0x2
 6492 0335 74       		.byte	0x74
 6493 0336 00       		.sleb128 0
 6494 0337 19       		.uleb128 0x19
 6495 0338 01       		.uleb128 0x1
 6496 0339 51       		.byte	0x51
 6497 033a 05       		.uleb128 0x5
 6498 033b 03       		.byte	0x3
 6499 033c 20000000 		.4byte	.LC4
 6500 0340 00       		.byte	0
 6501 0341 00       		.byte	0
 6502 0342 10       		.uleb128 0x10
 6503 0343 08000000 		.4byte	.LVL8
 6504 0347 DA010000 		.4byte	0x1da
 6505 034b 10       		.uleb128 0x10
 6506 034c 80000000 		.4byte	.LVL19
 6507 0350 19340000 		.4byte	0x3419
 6508 0354 10       		.uleb128 0x10
 6509 0355 8E000000 		.4byte	.LVL20
 6510 0359 24340000 		.4byte	0x3424
 6511 035d 10       		.uleb128 0x10
 6512 035e 80010000 		.4byte	.LVL29
 6513 0362 2F340000 		.4byte	0x342f
 6514 0366 10       		.uleb128 0x10
 6515 0367 84010000 		.4byte	.LVL30
 6516 036b 3A340000 		.4byte	0x343a
 6517 036f 00       		.byte	0
 6518 0370 0B       		.uleb128 0xb
 6519 0371 98000000 		.4byte	0x98
 6520 0375 80030000 		.4byte	0x380
 6521 0379 0C       		.uleb128 0xc
 6522 037a 8B000000 		.4byte	0x8b
 6523 037e 3F       		.byte	0x3f
ARM GAS  C:\Users\FRANKL~1\AppData\Local\Temp\ccPy0viy.s 			page 149


 6524 037f 00       		.byte	0
 6525 0380 1B       		.uleb128 0x1b
 6526 0381 BA040000 		.4byte	.LASF36
 6527 0385 01       		.byte	0x1
 6528 0386 29       		.byte	0x29
 6529 0387 B5000000 		.4byte	0xb5
 6530 038b 00000000 		.4byte	.LFB66
 6531 038f 50000000 		.4byte	.LFE66-.LFB66
 6532 0393 01       		.uleb128 0x1
 6533 0394 9C       		.byte	0x9c
 6534 0395 23040000 		.4byte	0x423
 6535 0399 1C       		.uleb128 0x1c
 6536 039a 1F0A0000 		.4byte	.LASF34
 6537 039e 01       		.byte	0x1
 6538 039f 29       		.byte	0x29
 6539 03a0 92000000 		.4byte	0x92
 6540 03a4 D4000000 		.4byte	.LLST5
 6541 03a8 1C       		.uleb128 0x1c
 6542 03a9 0A000000 		.4byte	.LASF35
 6543 03ad 01       		.byte	0x1
 6544 03ae 29       		.byte	0x29
 6545 03af C1000000 		.4byte	0xc1
 6546 03b3 16010000 		.4byte	.LLST6
 6547 03b7 1D       		.uleb128 0x1d
 6548 03b8 00000000 		.4byte	.Ldebug_ranges0+0
 6549 03bc E2030000 		.4byte	0x3e2
 6550 03c0 0F       		.uleb128 0xf
 6551 03c1 B9070000 		.4byte	.LASF30
 6552 03c5 01       		.byte	0x1
 6553 03c6 2C       		.byte	0x2c
 6554 03c7 CD000000 		.4byte	0xcd
 6555 03cb 50010000 		.4byte	.LLST7
 6556 03cf 10       		.uleb128 0x10
 6557 03d0 0C000000 		.4byte	.LVL34
 6558 03d4 91010000 		.4byte	0x191
 6559 03d8 10       		.uleb128 0x10
 6560 03d9 10000000 		.4byte	.LVL35
 6561 03dd 45340000 		.4byte	0x3445
 6562 03e1 00       		.byte	0
 6563 03e2 10       		.uleb128 0x10
 6564 03e3 26000000 		.4byte	.LVL39
 6565 03e7 45340000 		.4byte	0x3445
 6566 03eb 1A       		.uleb128 0x1a
 6567 03ec 32000000 		.4byte	.LVL40
 6568 03f0 50340000 		.4byte	0x3450
 6569 03f4 05040000 		.4byte	0x405
 6570 03f8 19       		.uleb128 0x19
 6571 03f9 01       		.uleb128 0x1
 6572 03fa 50       		.byte	0x50
 6573 03fb 02       		.uleb128 0x2
 6574 03fc 76       		.byte	0x76
 6575 03fd 00       		.sleb128 0
 6576 03fe 19       		.uleb128 0x19
 6577 03ff 01       		.uleb128 0x1
 6578 0400 51       		.byte	0x51
 6579 0401 02       		.uleb128 0x2
 6580 0402 75       		.byte	0x75
ARM GAS  C:\Users\FRANKL~1\AppData\Local\Temp\ccPy0viy.s 			page 150


 6581 0403 00       		.sleb128 0
 6582 0404 00       		.byte	0
 6583 0405 10       		.uleb128 0x10
 6584 0406 3A000000 		.4byte	.LVL41
 6585 040a 45340000 		.4byte	0x3445
 6586 040e 18       		.uleb128 0x18
 6587 040f 46000000 		.4byte	.LVL42
 6588 0413 50340000 		.4byte	0x3450
 6589 0417 19       		.uleb128 0x19
 6590 0418 01       		.uleb128 0x1
 6591 0419 50       		.byte	0x50
 6592 041a 01       		.uleb128 0x1
 6593 041b 30       		.byte	0x30
 6594 041c 19       		.uleb128 0x19
 6595 041d 01       		.uleb128 0x1
 6596 041e 51       		.byte	0x51
 6597 041f 01       		.uleb128 0x1
 6598 0420 30       		.byte	0x30
 6599 0421 00       		.byte	0
 6600 0422 00       		.byte	0
 6601 0423 1B       		.uleb128 0x1b
 6602 0424 000B0000 		.4byte	.LASF37
 6603 0428 01       		.byte	0x1
 6604 0429 47       		.byte	0x47
 6605 042a B5000000 		.4byte	0xb5
 6606 042e 00000000 		.4byte	.LFB67
 6607 0432 24000000 		.4byte	.LFE67-.LFB67
 6608 0436 01       		.uleb128 0x1
 6609 0437 9C       		.byte	0x9c
 6610 0438 7D040000 		.4byte	0x47d
 6611 043c 1C       		.uleb128 0x1c
 6612 043d 1F0A0000 		.4byte	.LASF34
 6613 0441 01       		.byte	0x1
 6614 0442 47       		.byte	0x47
 6615 0443 92000000 		.4byte	0x92
 6616 0447 6E010000 		.4byte	.LLST8
 6617 044b 1C       		.uleb128 0x1c
 6618 044c 0A000000 		.4byte	.LASF35
 6619 0450 01       		.byte	0x1
 6620 0451 47       		.byte	0x47
 6621 0452 7D040000 		.4byte	0x47d
 6622 0456 8C010000 		.4byte	.LLST9
 6623 045a 10       		.uleb128 0x10
 6624 045b 0C000000 		.4byte	.LVL45
 6625 045f 91010000 		.4byte	0x191
 6626 0463 10       		.uleb128 0x10
 6627 0464 10000000 		.4byte	.LVL46
 6628 0468 F8330000 		.4byte	0x33f8
 6629 046c 18       		.uleb128 0x18
 6630 046d 1A000000 		.4byte	.LVL47
 6631 0471 03340000 		.4byte	0x3403
 6632 0475 19       		.uleb128 0x19
 6633 0476 01       		.uleb128 0x1
 6634 0477 50       		.byte	0x50
 6635 0478 02       		.uleb128 0x2
 6636 0479 74       		.byte	0x74
 6637 047a 00       		.sleb128 0
ARM GAS  C:\Users\FRANKL~1\AppData\Local\Temp\ccPy0viy.s 			page 151


 6638 047b 00       		.byte	0
 6639 047c 00       		.byte	0
 6640 047d 05       		.uleb128 0x5
 6641 047e 04       		.byte	0x4
 6642 047f C1000000 		.4byte	0xc1
 6643 0483 11       		.uleb128 0x11
 6644 0484 BF070000 		.4byte	.LASF38
 6645 0488 01       		.byte	0x1
 6646 0489 53       		.byte	0x53
 6647 048a 98000000 		.4byte	0x98
 6648 048e 00000000 		.4byte	.LFB68
 6649 0492 16000000 		.4byte	.LFE68-.LFB68
 6650 0496 01       		.uleb128 0x1
 6651 0497 9C       		.byte	0x9c
 6652 0498 B8040000 		.4byte	0x4b8
 6653 049c 10       		.uleb128 0x10
 6654 049d 08000000 		.4byte	.LVL48
 6655 04a1 91010000 		.4byte	0x191
 6656 04a5 10       		.uleb128 0x10
 6657 04a6 0C000000 		.4byte	.LVL49
 6658 04aa F8330000 		.4byte	0x33f8
 6659 04ae 10       		.uleb128 0x10
 6660 04af 14000000 		.4byte	.LVL50
 6661 04b3 5B340000 		.4byte	0x345b
 6662 04b7 00       		.byte	0
 6663 04b8 1B       		.uleb128 0x1b
 6664 04b9 7B050000 		.4byte	.LASF39
 6665 04bd 01       		.byte	0x1
 6666 04be 59       		.byte	0x59
 6667 04bf B5000000 		.4byte	0xb5
 6668 04c3 00000000 		.4byte	.LFB69
 6669 04c7 58000000 		.4byte	.LFE69-.LFB69
 6670 04cb 01       		.uleb128 0x1
 6671 04cc 9C       		.byte	0x9c
 6672 04cd 64050000 		.4byte	0x564
 6673 04d1 1C       		.uleb128 0x1c
 6674 04d2 1F0A0000 		.4byte	.LASF34
 6675 04d6 01       		.byte	0x1
 6676 04d7 59       		.byte	0x59
 6677 04d8 92000000 		.4byte	0x92
 6678 04dc AA010000 		.4byte	.LLST10
 6679 04e0 1C       		.uleb128 0x1c
 6680 04e1 0E0C0000 		.4byte	.LASF40
 6681 04e5 01       		.byte	0x1
 6682 04e6 59       		.byte	0x59
 6683 04e7 C1000000 		.4byte	0xc1
 6684 04eb C8010000 		.4byte	.LLST11
 6685 04ef 1C       		.uleb128 0x1c
 6686 04f0 F5070000 		.4byte	.LASF41
 6687 04f4 01       		.byte	0x1
 6688 04f5 59       		.byte	0x59
 6689 04f6 9F000000 		.4byte	0x9f
 6690 04fa E9010000 		.4byte	.LLST12
 6691 04fe 13       		.uleb128 0x13
 6692 04ff 0A000000 		.4byte	.LBB8
 6693 0503 14000000 		.4byte	.LBE8-.LBB8
 6694 0507 19050000 		.4byte	0x519
ARM GAS  C:\Users\FRANKL~1\AppData\Local\Temp\ccPy0viy.s 			page 152


 6695 050b 1E       		.uleb128 0x1e
 6696 050c 6900     		.ascii	"i\000"
 6697 050e 01       		.byte	0x1
 6698 050f 5A       		.byte	0x5a
 6699 0510 C1000000 		.4byte	0xc1
 6700 0514 07020000 		.4byte	.LLST13
 6701 0518 00       		.byte	0
 6702 0519 17       		.uleb128 0x17
 6703 051a 1E000000 		.4byte	.LBB9
 6704 051e 34000000 		.4byte	.LBE9-.LBB9
 6705 0522 1E       		.uleb128 0x1e
 6706 0523 6900     		.ascii	"i\000"
 6707 0525 01       		.byte	0x1
 6708 0526 5E       		.byte	0x5e
 6709 0527 C1000000 		.4byte	0xc1
 6710 052b 31020000 		.4byte	.LLST14
 6711 052f 10       		.uleb128 0x10
 6712 0530 22000000 		.4byte	.LVL57
 6713 0534 83040000 		.4byte	0x483
 6714 0538 1A       		.uleb128 0x1a
 6715 0539 32000000 		.4byte	.LVL58
 6716 053d 0E340000 		.4byte	0x340e
 6717 0541 52050000 		.4byte	0x552
 6718 0545 19       		.uleb128 0x19
 6719 0546 01       		.uleb128 0x1
 6720 0547 50       		.byte	0x50
 6721 0548 02       		.uleb128 0x2
 6722 0549 75       		.byte	0x75
 6723 054a 00       		.sleb128 0
 6724 054b 19       		.uleb128 0x19
 6725 054c 01       		.uleb128 0x1
 6726 054d 51       		.byte	0x51
 6727 054e 02       		.uleb128 0x2
 6728 054f 77       		.byte	0x77
 6729 0550 00       		.sleb128 0
 6730 0551 00       		.byte	0
 6731 0552 18       		.uleb128 0x18
 6732 0553 3A000000 		.4byte	.LVL59
 6733 0557 66340000 		.4byte	0x3466
 6734 055b 19       		.uleb128 0x19
 6735 055c 01       		.uleb128 0x1
 6736 055d 50       		.byte	0x50
 6737 055e 02       		.uleb128 0x2
 6738 055f 77       		.byte	0x77
 6739 0560 00       		.sleb128 0
 6740 0561 00       		.byte	0
 6741 0562 00       		.byte	0
 6742 0563 00       		.byte	0
 6743 0564 1F       		.uleb128 0x1f
 6744 0565 BF030000 		.4byte	.LASF42
 6745 0569 02       		.byte	0x2
 6746 056a 31       		.byte	0x31
 6747 056b 00000000 		.4byte	.LFB70
 6748 056f 32000000 		.4byte	.LFE70-.LFB70
 6749 0573 01       		.uleb128 0x1
 6750 0574 9C       		.byte	0x9c
 6751 0575 B9050000 		.4byte	0x5b9
ARM GAS  C:\Users\FRANKL~1\AppData\Local\Temp\ccPy0viy.s 			page 153


 6752 0579 20       		.uleb128 0x20
 6753 057a F20B0000 		.4byte	.LASF43
 6754 057e 02       		.byte	0x2
 6755 057f 31       		.byte	0x31
 6756 0580 B9050000 		.4byte	0x5b9
 6757 0584 01       		.uleb128 0x1
 6758 0585 50       		.byte	0x50
 6759 0586 13       		.uleb128 0x13
 6760 0587 0A000000 		.4byte	.LBB10
 6761 058b 16000000 		.4byte	.LBE10-.LBB10
 6762 058f A1050000 		.4byte	0x5a1
 6763 0593 1E       		.uleb128 0x1e
 6764 0594 6900     		.ascii	"i\000"
 6765 0596 02       		.byte	0x2
 6766 0597 35       		.byte	0x35
 6767 0598 C1000000 		.4byte	0xc1
 6768 059c 4F020000 		.4byte	.LLST15
 6769 05a0 00       		.byte	0
 6770 05a1 17       		.uleb128 0x17
 6771 05a2 20000000 		.4byte	.LBB11
 6772 05a6 10000000 		.4byte	.LBE11-.LBB11
 6773 05aa 1E       		.uleb128 0x1e
 6774 05ab 6900     		.ascii	"i\000"
 6775 05ad 02       		.byte	0x2
 6776 05ae 38       		.byte	0x38
 6777 05af C1000000 		.4byte	0xc1
 6778 05b3 79020000 		.4byte	.LLST16
 6779 05b7 00       		.byte	0
 6780 05b8 00       		.byte	0
 6781 05b9 05       		.uleb128 0x5
 6782 05ba 04       		.byte	0x4
 6783 05bb 60010000 		.4byte	0x160
 6784 05bf 21       		.uleb128 0x21
 6785 05c0 6F010000 		.4byte	.LASF44
 6786 05c4 02       		.byte	0x2
 6787 05c5 3D       		.byte	0x3d
 6788 05c6 00000000 		.4byte	.LFB71
 6789 05ca 90010000 		.4byte	.LFE71-.LFB71
 6790 05ce 01       		.uleb128 0x1
 6791 05cf 9C       		.byte	0x9c
 6792 05d0 0D080000 		.4byte	0x80d
 6793 05d4 1C       		.uleb128 0x1c
 6794 05d5 6C0C0000 		.4byte	.LASF45
 6795 05d9 02       		.byte	0x2
 6796 05da 3D       		.byte	0x3d
 6797 05db B5000000 		.4byte	0xb5
 6798 05df 97020000 		.4byte	.LLST17
 6799 05e3 0F       		.uleb128 0xf
 6800 05e4 F20B0000 		.4byte	.LASF43
 6801 05e8 02       		.byte	0x2
 6802 05e9 42       		.byte	0x42
 6803 05ea B9050000 		.4byte	0x5b9
 6804 05ee B8020000 		.4byte	.LLST18
 6805 05f2 13       		.uleb128 0x13
 6806 05f3 44000000 		.4byte	.LBB12
 6807 05f7 76000000 		.4byte	.LBE12-.LBB12
 6808 05fb 64060000 		.4byte	0x664
ARM GAS  C:\Users\FRANKL~1\AppData\Local\Temp\ccPy0viy.s 			page 154


 6809 05ff 1E       		.uleb128 0x1e
 6810 0600 6900     		.ascii	"i\000"
 6811 0602 02       		.byte	0x2
 6812 0603 46       		.byte	0x46
 6813 0604 CD000000 		.4byte	0xcd
 6814 0608 EC020000 		.4byte	.LLST19
 6815 060c 10       		.uleb128 0x10
 6816 060d 4C000000 		.4byte	.LVL82
 6817 0611 71340000 		.4byte	0x3471
 6818 0615 1A       		.uleb128 0x1a
 6819 0616 8A000000 		.4byte	.LVL84
 6820 061a 66340000 		.4byte	0x3466
 6821 061e 29060000 		.4byte	0x629
 6822 0622 19       		.uleb128 0x19
 6823 0623 01       		.uleb128 0x1
 6824 0624 50       		.byte	0x50
 6825 0625 02       		.uleb128 0x2
 6826 0626 75       		.byte	0x75
 6827 0627 00       		.sleb128 0
 6828 0628 00       		.byte	0
 6829 0629 1A       		.uleb128 0x1a
 6830 062a 92000000 		.4byte	.LVL85
 6831 062e 80030000 		.4byte	0x380
 6832 0632 3D060000 		.4byte	0x63d
 6833 0636 19       		.uleb128 0x19
 6834 0637 01       		.uleb128 0x1
 6835 0638 50       		.byte	0x50
 6836 0639 02       		.uleb128 0x2
 6837 063a 75       		.byte	0x75
 6838 063b 00       		.sleb128 0
 6839 063c 00       		.byte	0
 6840 063d 1A       		.uleb128 0x1a
 6841 063e 98000000 		.4byte	.LVL86
 6842 0642 7C340000 		.4byte	0x347c
 6843 0646 51060000 		.4byte	0x651
 6844 064a 19       		.uleb128 0x19
 6845 064b 01       		.uleb128 0x1
 6846 064c 50       		.byte	0x50
 6847 064d 02       		.uleb128 0x2
 6848 064e 75       		.byte	0x75
 6849 064f 00       		.sleb128 0
 6850 0650 00       		.byte	0
 6851 0651 10       		.uleb128 0x10
 6852 0652 9C000000 		.4byte	.LVL87
 6853 0656 87340000 		.4byte	0x3487
 6854 065a 10       		.uleb128 0x10
 6855 065b A0000000 		.4byte	.LVL88
 6856 065f 92340000 		.4byte	0x3492
 6857 0663 00       		.byte	0
 6858 0664 1A       		.uleb128 0x1a
 6859 0665 16000000 		.4byte	.LVL74
 6860 0669 9D340000 		.4byte	0x349d
 6861 066d 87060000 		.4byte	0x687
 6862 0671 19       		.uleb128 0x19
 6863 0672 01       		.uleb128 0x1
 6864 0673 50       		.byte	0x50
 6865 0674 02       		.uleb128 0x2
ARM GAS  C:\Users\FRANKL~1\AppData\Local\Temp\ccPy0viy.s 			page 155


 6866 0675 75       		.byte	0x75
 6867 0676 00       		.sleb128 0
 6868 0677 19       		.uleb128 0x19
 6869 0678 01       		.uleb128 0x1
 6870 0679 51       		.byte	0x51
 6871 067a 05       		.uleb128 0x5
 6872 067b 03       		.byte	0x3
 6873 067c 2C000000 		.4byte	.LC5
 6874 0680 19       		.uleb128 0x19
 6875 0681 01       		.uleb128 0x1
 6876 0682 52       		.byte	0x52
 6877 0683 02       		.uleb128 0x2
 6878 0684 78       		.byte	0x78
 6879 0685 00       		.sleb128 0
 6880 0686 00       		.byte	0
 6881 0687 1A       		.uleb128 0x1a
 6882 0688 1C000000 		.4byte	.LVL75
 6883 068c 66340000 		.4byte	0x3466
 6884 0690 9B060000 		.4byte	0x69b
 6885 0694 19       		.uleb128 0x19
 6886 0695 01       		.uleb128 0x1
 6887 0696 50       		.byte	0x50
 6888 0697 02       		.uleb128 0x2
 6889 0698 75       		.byte	0x75
 6890 0699 00       		.sleb128 0
 6891 069a 00       		.byte	0
 6892 069b 1A       		.uleb128 0x1a
 6893 069c 24000000 		.4byte	.LVL76
 6894 06a0 80030000 		.4byte	0x380
 6895 06a4 AF060000 		.4byte	0x6af
 6896 06a8 19       		.uleb128 0x19
 6897 06a9 01       		.uleb128 0x1
 6898 06aa 50       		.byte	0x50
 6899 06ab 02       		.uleb128 0x2
 6900 06ac 75       		.byte	0x75
 6901 06ad 00       		.sleb128 0
 6902 06ae 00       		.byte	0
 6903 06af 1A       		.uleb128 0x1a
 6904 06b0 2A000000 		.4byte	.LVL77
 6905 06b4 7C340000 		.4byte	0x347c
 6906 06b8 C3060000 		.4byte	0x6c3
 6907 06bc 19       		.uleb128 0x19
 6908 06bd 01       		.uleb128 0x1
 6909 06be 50       		.byte	0x50
 6910 06bf 02       		.uleb128 0x2
 6911 06c0 75       		.byte	0x75
 6912 06c1 00       		.sleb128 0
 6913 06c2 00       		.byte	0
 6914 06c3 10       		.uleb128 0x10
 6915 06c4 2E000000 		.4byte	.LVL78
 6916 06c8 A8340000 		.4byte	0x34a8
 6917 06cc 1A       		.uleb128 0x1a
 6918 06cd 44000000 		.4byte	.LVL80
 6919 06d1 B3340000 		.4byte	0x34b3
 6920 06d5 EB060000 		.4byte	0x6eb
 6921 06d9 19       		.uleb128 0x19
 6922 06da 01       		.uleb128 0x1
ARM GAS  C:\Users\FRANKL~1\AppData\Local\Temp\ccPy0viy.s 			page 156


 6923 06db 51       		.byte	0x51
 6924 06dc 02       		.uleb128 0x2
 6925 06dd 74       		.byte	0x74
 6926 06de 00       		.sleb128 0
 6927 06df 19       		.uleb128 0x19
 6928 06e0 01       		.uleb128 0x1
 6929 06e1 52       		.byte	0x52
 6930 06e2 02       		.uleb128 0x2
 6931 06e3 08       		.byte	0x8
 6932 06e4 7F       		.byte	0x7f
 6933 06e5 19       		.uleb128 0x19
 6934 06e6 01       		.uleb128 0x1
 6935 06e7 53       		.byte	0x53
 6936 06e8 01       		.uleb128 0x1
 6937 06e9 30       		.byte	0x30
 6938 06ea 00       		.byte	0
 6939 06eb 10       		.uleb128 0x10
 6940 06ec BE000000 		.4byte	.LVL92
 6941 06f0 71340000 		.4byte	0x3471
 6942 06f4 1A       		.uleb128 0x1a
 6943 06f5 E0000000 		.4byte	.LVL94
 6944 06f9 66340000 		.4byte	0x3466
 6945 06fd 08070000 		.4byte	0x708
 6946 0701 19       		.uleb128 0x19
 6947 0702 01       		.uleb128 0x1
 6948 0703 50       		.byte	0x50
 6949 0704 02       		.uleb128 0x2
 6950 0705 75       		.byte	0x75
 6951 0706 00       		.sleb128 0
 6952 0707 00       		.byte	0
 6953 0708 1A       		.uleb128 0x1a
 6954 0709 E8000000 		.4byte	.LVL95
 6955 070d 80030000 		.4byte	0x380
 6956 0711 1C070000 		.4byte	0x71c
 6957 0715 19       		.uleb128 0x19
 6958 0716 01       		.uleb128 0x1
 6959 0717 50       		.byte	0x50
 6960 0718 02       		.uleb128 0x2
 6961 0719 75       		.byte	0x75
 6962 071a 00       		.sleb128 0
 6963 071b 00       		.byte	0
 6964 071c 1A       		.uleb128 0x1a
 6965 071d EE000000 		.4byte	.LVL96
 6966 0721 7C340000 		.4byte	0x347c
 6967 0725 30070000 		.4byte	0x730
 6968 0729 19       		.uleb128 0x19
 6969 072a 01       		.uleb128 0x1
 6970 072b 50       		.byte	0x50
 6971 072c 02       		.uleb128 0x2
 6972 072d 75       		.byte	0x75
 6973 072e 00       		.sleb128 0
 6974 072f 00       		.byte	0
 6975 0730 10       		.uleb128 0x10
 6976 0731 F2000000 		.4byte	.LVL97
 6977 0735 71340000 		.4byte	0x3471
 6978 0739 1A       		.uleb128 0x1a
 6979 073a 0A010000 		.4byte	.LVL98
ARM GAS  C:\Users\FRANKL~1\AppData\Local\Temp\ccPy0viy.s 			page 157


 6980 073e 66340000 		.4byte	0x3466
 6981 0742 4D070000 		.4byte	0x74d
 6982 0746 19       		.uleb128 0x19
 6983 0747 01       		.uleb128 0x1
 6984 0748 50       		.byte	0x50
 6985 0749 02       		.uleb128 0x2
 6986 074a 75       		.byte	0x75
 6987 074b 00       		.sleb128 0
 6988 074c 00       		.byte	0
 6989 074d 1A       		.uleb128 0x1a
 6990 074e 12010000 		.4byte	.LVL99
 6991 0752 80030000 		.4byte	0x380
 6992 0756 61070000 		.4byte	0x761
 6993 075a 19       		.uleb128 0x19
 6994 075b 01       		.uleb128 0x1
 6995 075c 50       		.byte	0x50
 6996 075d 02       		.uleb128 0x2
 6997 075e 75       		.byte	0x75
 6998 075f 00       		.sleb128 0
 6999 0760 00       		.byte	0
 7000 0761 1A       		.uleb128 0x1a
 7001 0762 18010000 		.4byte	.LVL100
 7002 0766 7C340000 		.4byte	0x347c
 7003 076a 75070000 		.4byte	0x775
 7004 076e 19       		.uleb128 0x19
 7005 076f 01       		.uleb128 0x1
 7006 0770 50       		.byte	0x50
 7007 0771 02       		.uleb128 0x2
 7008 0772 75       		.byte	0x75
 7009 0773 00       		.sleb128 0
 7010 0774 00       		.byte	0
 7011 0775 1A       		.uleb128 0x1a
 7012 0776 2A010000 		.4byte	.LVL101
 7013 077a 66340000 		.4byte	0x3466
 7014 077e 89070000 		.4byte	0x789
 7015 0782 19       		.uleb128 0x19
 7016 0783 01       		.uleb128 0x1
 7017 0784 50       		.byte	0x50
 7018 0785 02       		.uleb128 0x2
 7019 0786 74       		.byte	0x74
 7020 0787 00       		.sleb128 0
 7021 0788 00       		.byte	0
 7022 0789 1A       		.uleb128 0x1a
 7023 078a 32010000 		.4byte	.LVL102
 7024 078e 80030000 		.4byte	0x380
 7025 0792 9D070000 		.4byte	0x79d
 7026 0796 19       		.uleb128 0x19
 7027 0797 01       		.uleb128 0x1
 7028 0798 50       		.byte	0x50
 7029 0799 02       		.uleb128 0x2
 7030 079a 74       		.byte	0x74
 7031 079b 00       		.sleb128 0
 7032 079c 00       		.byte	0
 7033 079d 1A       		.uleb128 0x1a
 7034 079e 38010000 		.4byte	.LVL103
 7035 07a2 7C340000 		.4byte	0x347c
 7036 07a6 B1070000 		.4byte	0x7b1
ARM GAS  C:\Users\FRANKL~1\AppData\Local\Temp\ccPy0viy.s 			page 158


 7037 07aa 19       		.uleb128 0x19
 7038 07ab 01       		.uleb128 0x1
 7039 07ac 50       		.byte	0x50
 7040 07ad 02       		.uleb128 0x2
 7041 07ae 74       		.byte	0x74
 7042 07af 00       		.sleb128 0
 7043 07b0 00       		.byte	0
 7044 07b1 1A       		.uleb128 0x1a
 7045 07b2 44010000 		.4byte	.LVL104
 7046 07b6 9D340000 		.4byte	0x349d
 7047 07ba D4070000 		.4byte	0x7d4
 7048 07be 19       		.uleb128 0x19
 7049 07bf 01       		.uleb128 0x1
 7050 07c0 50       		.byte	0x50
 7051 07c1 02       		.uleb128 0x2
 7052 07c2 74       		.byte	0x74
 7053 07c3 00       		.sleb128 0
 7054 07c4 19       		.uleb128 0x19
 7055 07c5 01       		.uleb128 0x1
 7056 07c6 51       		.byte	0x51
 7057 07c7 05       		.uleb128 0x5
 7058 07c8 03       		.byte	0x3
 7059 07c9 90000000 		.4byte	.LC10
 7060 07cd 19       		.uleb128 0x19
 7061 07ce 01       		.uleb128 0x1
 7062 07cf 52       		.byte	0x52
 7063 07d0 02       		.uleb128 0x2
 7064 07d1 78       		.byte	0x78
 7065 07d2 00       		.sleb128 0
 7066 07d3 00       		.byte	0
 7067 07d4 1A       		.uleb128 0x1a
 7068 07d5 4A010000 		.4byte	.LVL105
 7069 07d9 66340000 		.4byte	0x3466
 7070 07dd E8070000 		.4byte	0x7e8
 7071 07e1 19       		.uleb128 0x19
 7072 07e2 01       		.uleb128 0x1
 7073 07e3 50       		.byte	0x50
 7074 07e4 02       		.uleb128 0x2
 7075 07e5 74       		.byte	0x74
 7076 07e6 00       		.sleb128 0
 7077 07e7 00       		.byte	0
 7078 07e8 1A       		.uleb128 0x1a
 7079 07e9 52010000 		.4byte	.LVL106
 7080 07ed 80030000 		.4byte	0x380
 7081 07f1 FC070000 		.4byte	0x7fc
 7082 07f5 19       		.uleb128 0x19
 7083 07f6 01       		.uleb128 0x1
 7084 07f7 50       		.byte	0x50
 7085 07f8 02       		.uleb128 0x2
 7086 07f9 74       		.byte	0x74
 7087 07fa 00       		.sleb128 0
 7088 07fb 00       		.byte	0
 7089 07fc 18       		.uleb128 0x18
 7090 07fd 58010000 		.4byte	.LVL107
 7091 0801 7C340000 		.4byte	0x347c
 7092 0805 19       		.uleb128 0x19
 7093 0806 01       		.uleb128 0x1
ARM GAS  C:\Users\FRANKL~1\AppData\Local\Temp\ccPy0viy.s 			page 159


 7094 0807 50       		.byte	0x50
 7095 0808 02       		.uleb128 0x2
 7096 0809 74       		.byte	0x74
 7097 080a 00       		.sleb128 0
 7098 080b 00       		.byte	0
 7099 080c 00       		.byte	0
 7100 080d 21       		.uleb128 0x21
 7101 080e 58050000 		.4byte	.LASF46
 7102 0812 02       		.byte	0x2
 7103 0813 72       		.byte	0x72
 7104 0814 00000000 		.4byte	.LFB72
 7105 0818 B6000000 		.4byte	.LFE72-.LFB72
 7106 081c 01       		.uleb128 0x1
 7107 081d 9C       		.byte	0x9c
 7108 081e C8080000 		.4byte	0x8c8
 7109 0822 1C       		.uleb128 0x1c
 7110 0823 43030000 		.4byte	.LASF47
 7111 0827 02       		.byte	0x2
 7112 0828 72       		.byte	0x72
 7113 0829 C8080000 		.4byte	0x8c8
 7114 082d 0B030000 		.4byte	.LLST20
 7115 0831 1C       		.uleb128 0x1c
 7116 0832 EF020000 		.4byte	.LASF48
 7117 0836 02       		.byte	0x2
 7118 0837 72       		.byte	0x72
 7119 0838 C8080000 		.4byte	0x8c8
 7120 083c 36030000 		.4byte	.LLST21
 7121 0840 1C       		.uleb128 0x1c
 7122 0841 F4090000 		.4byte	.LASF49
 7123 0845 02       		.byte	0x2
 7124 0846 72       		.byte	0x72
 7125 0847 CD000000 		.4byte	0xcd
 7126 084b 55030000 		.4byte	.LLST22
 7127 084f 0F       		.uleb128 0xf
 7128 0850 FB0B0000 		.4byte	.LASF50
 7129 0854 02       		.byte	0x2
 7130 0855 73       		.byte	0x73
 7131 0856 F1000000 		.4byte	0xf1
 7132 085a 73030000 		.4byte	.LLST23
 7133 085e 0F       		.uleb128 0xf
 7134 085f D9030000 		.4byte	.LASF51
 7135 0863 02       		.byte	0x2
 7136 0864 74       		.byte	0x74
 7137 0865 F1000000 		.4byte	0xf1
 7138 0869 A8030000 		.4byte	.LLST24
 7139 086d 22       		.uleb128 0x22
 7140 086e 18000000 		.4byte	.Ldebug_ranges0+0x18
 7141 0872 1E       		.uleb128 0x1e
 7142 0873 6900     		.ascii	"i\000"
 7143 0875 02       		.byte	0x2
 7144 0876 76       		.byte	0x76
 7145 0877 CD000000 		.4byte	0xcd
 7146 087b DD030000 		.4byte	.LLST25
 7147 087f 17       		.uleb128 0x17
 7148 0880 16000000 		.4byte	.LBB14
 7149 0884 8A000000 		.4byte	.LBE14-.LBB14
 7150 0888 0F       		.uleb128 0xf
ARM GAS  C:\Users\FRANKL~1\AppData\Local\Temp\ccPy0viy.s 			page 160


 7151 0889 CE010000 		.4byte	.LASF52
 7152 088d 02       		.byte	0x2
 7153 088e 7A       		.byte	0x7a
 7154 088f F1000000 		.4byte	0xf1
 7155 0893 FC030000 		.4byte	.LLST26
 7156 0897 10       		.uleb128 0x10
 7157 0898 1A000000 		.4byte	.LVL112
 7158 089c BE340000 		.4byte	0x34be
 7159 08a0 1A       		.uleb128 0x1a
 7160 08a1 20000000 		.4byte	.LVL113
 7161 08a5 C9340000 		.4byte	0x34c9
 7162 08a9 B3080000 		.4byte	0x8b3
 7163 08ad 19       		.uleb128 0x19
 7164 08ae 01       		.uleb128 0x1
 7165 08af 50       		.byte	0x50
 7166 08b0 01       		.uleb128 0x1
 7167 08b1 31       		.byte	0x31
 7168 08b2 00       		.byte	0
 7169 08b3 10       		.uleb128 0x10
 7170 08b4 28000000 		.4byte	.LVL114
 7171 08b8 D4340000 		.4byte	0x34d4
 7172 08bc 10       		.uleb128 0x10
 7173 08bd 2C000000 		.4byte	.LVL115
 7174 08c1 DF340000 		.4byte	0x34df
 7175 08c5 00       		.byte	0
 7176 08c6 00       		.byte	0
 7177 08c7 00       		.byte	0
 7178 08c8 05       		.uleb128 0x5
 7179 08c9 04       		.byte	0x4
 7180 08ca F1000000 		.4byte	0xf1
 7181 08ce 21       		.uleb128 0x21
 7182 08cf 0B060000 		.4byte	.LASF53
 7183 08d3 02       		.byte	0x2
 7184 08d4 84       		.byte	0x84
 7185 08d5 00000000 		.4byte	.LFB73
 7186 08d9 94000000 		.4byte	.LFE73-.LFB73
 7187 08dd 01       		.uleb128 0x1
 7188 08de 9C       		.byte	0x9c
 7189 08df 89090000 		.4byte	0x989
 7190 08e3 1C       		.uleb128 0x1c
 7191 08e4 43030000 		.4byte	.LASF47
 7192 08e8 02       		.byte	0x2
 7193 08e9 84       		.byte	0x84
 7194 08ea 89090000 		.4byte	0x989
 7195 08ee 1A040000 		.4byte	.LLST27
 7196 08f2 1C       		.uleb128 0x1c
 7197 08f3 EF020000 		.4byte	.LASF48
 7198 08f7 02       		.byte	0x2
 7199 08f8 84       		.byte	0x84
 7200 08f9 89090000 		.4byte	0x989
 7201 08fd 38040000 		.4byte	.LLST28
 7202 0901 1C       		.uleb128 0x1c
 7203 0902 F4090000 		.4byte	.LASF49
 7204 0906 02       		.byte	0x2
 7205 0907 84       		.byte	0x84
 7206 0908 CD000000 		.4byte	0xcd
 7207 090c 57040000 		.4byte	.LLST29
ARM GAS  C:\Users\FRANKL~1\AppData\Local\Temp\ccPy0viy.s 			page 161


 7208 0910 0F       		.uleb128 0xf
 7209 0911 4F0D0000 		.4byte	.LASF54
 7210 0915 02       		.byte	0x2
 7211 0916 85       		.byte	0x85
 7212 0917 25000000 		.4byte	0x25
 7213 091b 75040000 		.4byte	.LLST30
 7214 091f 0F       		.uleb128 0xf
 7215 0920 D4090000 		.4byte	.LASF55
 7216 0924 02       		.byte	0x2
 7217 0925 86       		.byte	0x86
 7218 0926 25000000 		.4byte	0x25
 7219 092a AE040000 		.4byte	.LLST31
 7220 092e 22       		.uleb128 0x22
 7221 092f 30000000 		.4byte	.Ldebug_ranges0+0x30
 7222 0933 1E       		.uleb128 0x1e
 7223 0934 6900     		.ascii	"i\000"
 7224 0936 02       		.byte	0x2
 7225 0937 88       		.byte	0x88
 7226 0938 CD000000 		.4byte	0xcd
 7227 093c E7040000 		.4byte	.LLST32
 7228 0940 17       		.uleb128 0x17
 7229 0941 16000000 		.4byte	.LBB17
 7230 0945 68000000 		.4byte	.LBE17-.LBB17
 7231 0949 0F       		.uleb128 0xf
 7232 094a 88000000 		.4byte	.LASF56
 7233 094e 02       		.byte	0x2
 7234 094f 8C       		.byte	0x8c
 7235 0950 25000000 		.4byte	0x25
 7236 0954 06050000 		.4byte	.LLST33
 7237 0958 10       		.uleb128 0x10
 7238 0959 1A000000 		.4byte	.LVL143
 7239 095d EA340000 		.4byte	0x34ea
 7240 0961 1A       		.uleb128 0x1a
 7241 0962 20000000 		.4byte	.LVL144
 7242 0966 F5340000 		.4byte	0x34f5
 7243 096a 74090000 		.4byte	0x974
 7244 096e 19       		.uleb128 0x19
 7245 096f 01       		.uleb128 0x1
 7246 0970 50       		.byte	0x50
 7247 0971 01       		.uleb128 0x1
 7248 0972 31       		.byte	0x31
 7249 0973 00       		.byte	0
 7250 0974 10       		.uleb128 0x10
 7251 0975 28000000 		.4byte	.LVL145
 7252 0979 00350000 		.4byte	0x3500
 7253 097d 10       		.uleb128 0x10
 7254 097e 2C000000 		.4byte	.LVL146
 7255 0982 0B350000 		.4byte	0x350b
 7256 0986 00       		.byte	0
 7257 0987 00       		.byte	0
 7258 0988 00       		.byte	0
 7259 0989 05       		.uleb128 0x5
 7260 098a 04       		.byte	0x4
 7261 098b 25000000 		.4byte	0x25
 7262 098f 21       		.uleb128 0x21
 7263 0990 9F0C0000 		.4byte	.LASF57
 7264 0994 02       		.byte	0x2
ARM GAS  C:\Users\FRANKL~1\AppData\Local\Temp\ccPy0viy.s 			page 162


 7265 0995 96       		.byte	0x96
 7266 0996 00000000 		.4byte	.LFB74
 7267 099a 94000000 		.4byte	.LFE74-.LFB74
 7268 099e 01       		.uleb128 0x1
 7269 099f 9C       		.byte	0x9c
 7270 09a0 4A0A0000 		.4byte	0xa4a
 7271 09a4 1C       		.uleb128 0x1c
 7272 09a5 43030000 		.4byte	.LASF47
 7273 09a9 02       		.byte	0x2
 7274 09aa 96       		.byte	0x96
 7275 09ab 89090000 		.4byte	0x989
 7276 09af 24050000 		.4byte	.LLST34
 7277 09b3 1C       		.uleb128 0x1c
 7278 09b4 EF020000 		.4byte	.LASF48
 7279 09b8 02       		.byte	0x2
 7280 09b9 96       		.byte	0x96
 7281 09ba 89090000 		.4byte	0x989
 7282 09be 42050000 		.4byte	.LLST35
 7283 09c2 1C       		.uleb128 0x1c
 7284 09c3 F4090000 		.4byte	.LASF49
 7285 09c7 02       		.byte	0x2
 7286 09c8 96       		.byte	0x96
 7287 09c9 CD000000 		.4byte	0xcd
 7288 09cd 61050000 		.4byte	.LLST36
 7289 09d1 0F       		.uleb128 0xf
 7290 09d2 4F0D0000 		.4byte	.LASF54
 7291 09d6 02       		.byte	0x2
 7292 09d7 97       		.byte	0x97
 7293 09d8 25000000 		.4byte	0x25
 7294 09dc 7F050000 		.4byte	.LLST37
 7295 09e0 0F       		.uleb128 0xf
 7296 09e1 D4090000 		.4byte	.LASF55
 7297 09e5 02       		.byte	0x2
 7298 09e6 98       		.byte	0x98
 7299 09e7 25000000 		.4byte	0x25
 7300 09eb B8050000 		.4byte	.LLST38
 7301 09ef 22       		.uleb128 0x22
 7302 09f0 48000000 		.4byte	.Ldebug_ranges0+0x48
 7303 09f4 1E       		.uleb128 0x1e
 7304 09f5 6900     		.ascii	"i\000"
 7305 09f7 02       		.byte	0x2
 7306 09f8 9A       		.byte	0x9a
 7307 09f9 CD000000 		.4byte	0xcd
 7308 09fd F1050000 		.4byte	.LLST39
 7309 0a01 17       		.uleb128 0x17
 7310 0a02 16000000 		.4byte	.LBB20
 7311 0a06 68000000 		.4byte	.LBE20-.LBB20
 7312 0a0a 0F       		.uleb128 0xf
 7313 0a0b 92050000 		.4byte	.LASF58
 7314 0a0f 02       		.byte	0x2
 7315 0a10 9E       		.byte	0x9e
 7316 0a11 25000000 		.4byte	0x25
 7317 0a15 10060000 		.4byte	.LLST40
 7318 0a19 10       		.uleb128 0x10
 7319 0a1a 1A000000 		.4byte	.LVL166
 7320 0a1e 16350000 		.4byte	0x3516
 7321 0a22 1A       		.uleb128 0x1a
ARM GAS  C:\Users\FRANKL~1\AppData\Local\Temp\ccPy0viy.s 			page 163


 7322 0a23 20000000 		.4byte	.LVL167
 7323 0a27 21350000 		.4byte	0x3521
 7324 0a2b 350A0000 		.4byte	0xa35
 7325 0a2f 19       		.uleb128 0x19
 7326 0a30 01       		.uleb128 0x1
 7327 0a31 50       		.byte	0x50
 7328 0a32 01       		.uleb128 0x1
 7329 0a33 31       		.byte	0x31
 7330 0a34 00       		.byte	0
 7331 0a35 10       		.uleb128 0x10
 7332 0a36 28000000 		.4byte	.LVL168
 7333 0a3a 2C350000 		.4byte	0x352c
 7334 0a3e 10       		.uleb128 0x10
 7335 0a3f 2C000000 		.4byte	.LVL169
 7336 0a43 37350000 		.4byte	0x3537
 7337 0a47 00       		.byte	0
 7338 0a48 00       		.byte	0
 7339 0a49 00       		.byte	0
 7340 0a4a 0E       		.uleb128 0xe
 7341 0a4b AF0B0000 		.4byte	.LASF60
 7342 0a4f 02       		.byte	0x2
 7343 0a50 A8       		.byte	0xa8
 7344 0a51 00000000 		.4byte	.LFB75
 7345 0a55 64000000 		.4byte	.LFE75-.LFB75
 7346 0a59 01       		.uleb128 0x1
 7347 0a5a 9C       		.byte	0x9c
 7348 0a5b 500B0000 		.4byte	0xb50
 7349 0a5f 13       		.uleb128 0x13
 7350 0a60 10000000 		.4byte	.LBB22
 7351 0a64 46000000 		.4byte	.LBE22-.LBB22
 7352 0a68 2B0B0000 		.4byte	0xb2b
 7353 0a6c 0F       		.uleb128 0xf
 7354 0a6d 5A090000 		.4byte	.LASF61
 7355 0a71 02       		.byte	0x2
 7356 0a72 AC       		.byte	0xac
 7357 0a73 C1000000 		.4byte	0xc1
 7358 0a77 2E060000 		.4byte	.LLST41
 7359 0a7b 17       		.uleb128 0x17
 7360 0a7c 14000000 		.4byte	.LBB23
 7361 0a80 3A000000 		.4byte	.LBE23-.LBB23
 7362 0a84 23       		.uleb128 0x23
 7363 0a85 03090000 		.4byte	.LASF62
 7364 0a89 02       		.byte	0x2
 7365 0a8a AD       		.byte	0xad
 7366 0a8b F1000000 		.4byte	0xf1
 7367 0a8f 02       		.uleb128 0x2
 7368 0a90 91       		.byte	0x91
 7369 0a91 68       		.sleb128 -24
 7370 0a92 23       		.uleb128 0x23
 7371 0a93 64040000 		.4byte	.LASF63
 7372 0a97 02       		.byte	0x2
 7373 0a98 AE       		.byte	0xae
 7374 0a99 F1000000 		.4byte	0xf1
 7375 0a9d 02       		.uleb128 0x2
 7376 0a9e 91       		.byte	0x91
 7377 0a9f 6C       		.sleb128 -20
 7378 0aa0 1A       		.uleb128 0x1a
ARM GAS  C:\Users\FRANKL~1\AppData\Local\Temp\ccPy0viy.s 			page 164


 7379 0aa1 24000000 		.4byte	.LVL189
 7380 0aa5 42350000 		.4byte	0x3542
 7381 0aa9 B40A0000 		.4byte	0xab4
 7382 0aad 19       		.uleb128 0x19
 7383 0aae 01       		.uleb128 0x1
 7384 0aaf 50       		.byte	0x50
 7385 0ab0 02       		.uleb128 0x2
 7386 0ab1 74       		.byte	0x74
 7387 0ab2 00       		.sleb128 0
 7388 0ab3 00       		.byte	0
 7389 0ab4 1A       		.uleb128 0x1a
 7390 0ab5 2E000000 		.4byte	.LVL190
 7391 0ab9 0D080000 		.4byte	0x80d
 7392 0abd D40A0000 		.4byte	0xad4
 7393 0ac1 19       		.uleb128 0x19
 7394 0ac2 01       		.uleb128 0x1
 7395 0ac3 50       		.byte	0x50
 7396 0ac4 02       		.uleb128 0x2
 7397 0ac5 7D       		.byte	0x7d
 7398 0ac6 00       		.sleb128 0
 7399 0ac7 19       		.uleb128 0x19
 7400 0ac8 01       		.uleb128 0x1
 7401 0ac9 51       		.byte	0x51
 7402 0aca 02       		.uleb128 0x2
 7403 0acb 75       		.byte	0x75
 7404 0acc 00       		.sleb128 0
 7405 0acd 19       		.uleb128 0x19
 7406 0ace 01       		.uleb128 0x1
 7407 0acf 52       		.byte	0x52
 7408 0ad0 02       		.uleb128 0x2
 7409 0ad1 08       		.byte	0x8
 7410 0ad2 64       		.byte	0x64
 7411 0ad3 00       		.byte	0
 7412 0ad4 1A       		.uleb128 0x1a
 7413 0ad5 3A000000 		.4byte	.LVL191
 7414 0ad9 9D340000 		.4byte	0x349d
 7415 0add F10A0000 		.4byte	0xaf1
 7416 0ae1 19       		.uleb128 0x19
 7417 0ae2 01       		.uleb128 0x1
 7418 0ae3 50       		.byte	0x50
 7419 0ae4 02       		.uleb128 0x2
 7420 0ae5 75       		.byte	0x75
 7421 0ae6 00       		.sleb128 0
 7422 0ae7 19       		.uleb128 0x19
 7423 0ae8 01       		.uleb128 0x1
 7424 0ae9 51       		.byte	0x51
 7425 0aea 05       		.uleb128 0x5
 7426 0aeb 03       		.byte	0x3
 7427 0aec A8000000 		.4byte	.LC11
 7428 0af0 00       		.byte	0
 7429 0af1 1A       		.uleb128 0x1a
 7430 0af2 40000000 		.4byte	.LVL192
 7431 0af6 66340000 		.4byte	0x3466
 7432 0afa 050B0000 		.4byte	0xb05
 7433 0afe 19       		.uleb128 0x19
 7434 0aff 01       		.uleb128 0x1
 7435 0b00 50       		.byte	0x50
ARM GAS  C:\Users\FRANKL~1\AppData\Local\Temp\ccPy0viy.s 			page 165


 7436 0b01 02       		.uleb128 0x2
 7437 0b02 75       		.byte	0x75
 7438 0b03 00       		.sleb128 0
 7439 0b04 00       		.byte	0
 7440 0b05 1A       		.uleb128 0x1a
 7441 0b06 48000000 		.4byte	.LVL193
 7442 0b0a 80030000 		.4byte	0x380
 7443 0b0e 190B0000 		.4byte	0xb19
 7444 0b12 19       		.uleb128 0x19
 7445 0b13 01       		.uleb128 0x1
 7446 0b14 50       		.byte	0x50
 7447 0b15 02       		.uleb128 0x2
 7448 0b16 75       		.byte	0x75
 7449 0b17 00       		.sleb128 0
 7450 0b18 00       		.byte	0
 7451 0b19 18       		.uleb128 0x18
 7452 0b1a 4E000000 		.4byte	.LVL194
 7453 0b1e 7C340000 		.4byte	0x347c
 7454 0b22 19       		.uleb128 0x19
 7455 0b23 01       		.uleb128 0x1
 7456 0b24 50       		.byte	0x50
 7457 0b25 02       		.uleb128 0x2
 7458 0b26 75       		.byte	0x75
 7459 0b27 00       		.sleb128 0
 7460 0b28 00       		.byte	0
 7461 0b29 00       		.byte	0
 7462 0b2a 00       		.byte	0
 7463 0b2b 1A       		.uleb128 0x1a
 7464 0b2c 0A000000 		.4byte	.LVL186
 7465 0b30 4D350000 		.4byte	0x354d
 7466 0b34 3F0B0000 		.4byte	0xb3f
 7467 0b38 19       		.uleb128 0x19
 7468 0b39 01       		.uleb128 0x1
 7469 0b3a 50       		.byte	0x50
 7470 0b3b 02       		.uleb128 0x2
 7471 0b3c 08       		.byte	0x8
 7472 0b3d 5A       		.byte	0x5a
 7473 0b3e 00       		.byte	0
 7474 0b3f 18       		.uleb128 0x18
 7475 0b40 10000000 		.4byte	.LVL187
 7476 0b44 42350000 		.4byte	0x3542
 7477 0b48 19       		.uleb128 0x19
 7478 0b49 01       		.uleb128 0x1
 7479 0b4a 50       		.byte	0x50
 7480 0b4b 02       		.uleb128 0x2
 7481 0b4c 09       		.byte	0x9
 7482 0b4d FE       		.byte	0xfe
 7483 0b4e 00       		.byte	0
 7484 0b4f 00       		.byte	0
 7485 0b50 0E       		.uleb128 0xe
 7486 0b51 BC0A0000 		.4byte	.LASF64
 7487 0b55 02       		.byte	0x2
 7488 0b56 BC       		.byte	0xbc
 7489 0b57 00000000 		.4byte	.LFB76
 7490 0b5b 3C000000 		.4byte	.LFE76-.LFB76
 7491 0b5f 01       		.uleb128 0x1
 7492 0b60 9C       		.byte	0x9c
ARM GAS  C:\Users\FRANKL~1\AppData\Local\Temp\ccPy0viy.s 			page 166


 7493 0b61 980B0000 		.4byte	0xb98
 7494 0b65 17       		.uleb128 0x17
 7495 0b66 02000000 		.4byte	.LBB24
 7496 0b6a 18000000 		.4byte	.LBE24-.LBB24
 7497 0b6e 1E       		.uleb128 0x1e
 7498 0b6f 6900     		.ascii	"i\000"
 7499 0b71 02       		.byte	0x2
 7500 0b72 BD       		.byte	0xbd
 7501 0b73 B5000000 		.4byte	0xb5
 7502 0b77 58060000 		.4byte	.LLST42
 7503 0b7b 18       		.uleb128 0x18
 7504 0b7c 12000000 		.4byte	.LVL200
 7505 0b80 64050000 		.4byte	0x564
 7506 0b84 19       		.uleb128 0x19
 7507 0b85 01       		.uleb128 0x1
 7508 0b86 50       		.byte	0x50
 7509 0b87 0D       		.uleb128 0xd
 7510 0b88 74       		.byte	0x74
 7511 0b89 00       		.sleb128 0
 7512 0b8a 38       		.byte	0x38
 7513 0b8b 24       		.byte	0x24
 7514 0b8c 74       		.byte	0x74
 7515 0b8d 00       		.sleb128 0
 7516 0b8e 1C       		.byte	0x1c
 7517 0b8f 03       		.byte	0x3
 7518 0b90 00000000 		.4byte	selectors
 7519 0b94 22       		.byte	0x22
 7520 0b95 00       		.byte	0
 7521 0b96 00       		.byte	0
 7522 0b97 00       		.byte	0
 7523 0b98 1F       		.uleb128 0x1f
 7524 0b99 EC000000 		.4byte	.LASF65
 7525 0b9d 02       		.byte	0x2
 7526 0b9e C5       		.byte	0xc5
 7527 0b9f 00000000 		.4byte	.LFB77
 7528 0ba3 2C000000 		.4byte	.LFE77-.LFB77
 7529 0ba7 01       		.uleb128 0x1
 7530 0ba8 9C       		.byte	0x9c
 7531 0ba9 D50B0000 		.4byte	0xbd5
 7532 0bad 1C       		.uleb128 0x1c
 7533 0bae 060C0000 		.4byte	.LASF66
 7534 0bb2 02       		.byte	0x2
 7535 0bb3 C5       		.byte	0xc5
 7536 0bb4 B5000000 		.4byte	0xb5
 7537 0bb8 82060000 		.4byte	.LLST43
 7538 0bbc 1C       		.uleb128 0x1c
 7539 0bbd E50B0000 		.4byte	.LASF67
 7540 0bc1 02       		.byte	0x2
 7541 0bc2 C5       		.byte	0xc5
 7542 0bc3 B5000000 		.4byte	0xb5
 7543 0bc7 AE060000 		.4byte	.LLST44
 7544 0bcb 10       		.uleb128 0x10
 7545 0bcc 24000000 		.4byte	.LVL209
 7546 0bd0 BF050000 		.4byte	0x5bf
 7547 0bd4 00       		.byte	0
 7548 0bd5 1F       		.uleb128 0x1f
 7549 0bd6 1B010000 		.4byte	.LASF68
ARM GAS  C:\Users\FRANKL~1\AppData\Local\Temp\ccPy0viy.s 			page 167


 7550 0bda 02       		.byte	0x2
 7551 0bdb D0       		.byte	0xd0
 7552 0bdc 00000000 		.4byte	.LFB78
 7553 0be0 32000000 		.4byte	.LFE78-.LFB78
 7554 0be4 01       		.uleb128 0x1
 7555 0be5 9C       		.byte	0x9c
 7556 0be6 210C0000 		.4byte	0xc21
 7557 0bea 1C       		.uleb128 0x1c
 7558 0beb 02020000 		.4byte	.LASF69
 7559 0bef 02       		.byte	0x2
 7560 0bf0 D0       		.byte	0xd0
 7561 0bf1 B5000000 		.4byte	0xb5
 7562 0bf5 DE060000 		.4byte	.LLST45
 7563 0bf9 1C       		.uleb128 0x1c
 7564 0bfa E50B0000 		.4byte	.LASF67
 7565 0bfe 02       		.byte	0x2
 7566 0bff D0       		.byte	0xd0
 7567 0c00 B5000000 		.4byte	0xb5
 7568 0c04 15070000 		.4byte	.LLST46
 7569 0c08 0F       		.uleb128 0xf
 7570 0c09 5B0A0000 		.4byte	.LASF70
 7571 0c0d 02       		.byte	0x2
 7572 0c0e D7       		.byte	0xd7
 7573 0c0f B5000000 		.4byte	0xb5
 7574 0c13 52070000 		.4byte	.LLST47
 7575 0c17 10       		.uleb128 0x10
 7576 0c18 2E000000 		.4byte	.LVL218
 7577 0c1c 980B0000 		.4byte	0xb98
 7578 0c20 00       		.byte	0
 7579 0c21 1F       		.uleb128 0x1f
 7580 0c22 D0070000 		.4byte	.LASF71
 7581 0c26 02       		.byte	0x2
 7582 0c27 E2       		.byte	0xe2
 7583 0c28 00000000 		.4byte	.LFB79
 7584 0c2c 40000000 		.4byte	.LFE79-.LFB79
 7585 0c30 01       		.uleb128 0x1
 7586 0c31 9C       		.byte	0x9c
 7587 0c32 6D0C0000 		.4byte	0xc6d
 7588 0c36 1C       		.uleb128 0x1c
 7589 0c37 02020000 		.4byte	.LASF69
 7590 0c3b 02       		.byte	0x2
 7591 0c3c E2       		.byte	0xe2
 7592 0c3d B5000000 		.4byte	0xb5
 7593 0c41 8A070000 		.4byte	.LLST48
 7594 0c45 1C       		.uleb128 0x1c
 7595 0c46 E50B0000 		.4byte	.LASF67
 7596 0c4a 02       		.byte	0x2
 7597 0c4b E2       		.byte	0xe2
 7598 0c4c B5000000 		.4byte	0xb5
 7599 0c50 B6070000 		.4byte	.LLST49
 7600 0c54 0F       		.uleb128 0xf
 7601 0c55 5B0A0000 		.4byte	.LASF70
 7602 0c59 02       		.byte	0x2
 7603 0c5a E9       		.byte	0xe9
 7604 0c5b B5000000 		.4byte	0xb5
 7605 0c5f E6070000 		.4byte	.LLST50
 7606 0c63 10       		.uleb128 0x10
ARM GAS  C:\Users\FRANKL~1\AppData\Local\Temp\ccPy0viy.s 			page 168


 7607 0c64 38000000 		.4byte	.LVL230
 7608 0c68 BF050000 		.4byte	0x5bf
 7609 0c6c 00       		.byte	0
 7610 0c6d 1F       		.uleb128 0x1f
 7611 0c6e 83030000 		.4byte	.LASF72
 7612 0c72 02       		.byte	0x2
 7613 0c73 F6       		.byte	0xf6
 7614 0c74 00000000 		.4byte	.LFB80
 7615 0c78 40000000 		.4byte	.LFE80-.LFB80
 7616 0c7c 01       		.uleb128 0x1
 7617 0c7d 9C       		.byte	0x9c
 7618 0c7e D40C0000 		.4byte	0xcd4
 7619 0c82 1C       		.uleb128 0x1c
 7620 0c83 02020000 		.4byte	.LASF69
 7621 0c87 02       		.byte	0x2
 7622 0c88 F6       		.byte	0xf6
 7623 0c89 B5000000 		.4byte	0xb5
 7624 0c8d 1E080000 		.4byte	.LLST51
 7625 0c91 17       		.uleb128 0x17
 7626 0c92 06000000 		.4byte	.LBB25
 7627 0c96 34000000 		.4byte	.LBE25-.LBB25
 7628 0c9a 0F       		.uleb128 0xf
 7629 0c9b E50B0000 		.4byte	.LASF67
 7630 0c9f 02       		.byte	0x2
 7631 0ca0 F9       		.byte	0xf9
 7632 0ca1 B5000000 		.4byte	0xb5
 7633 0ca5 4A080000 		.4byte	.LLST52
 7634 0ca9 17       		.uleb128 0x17
 7635 0caa 0A000000 		.4byte	.LBB26
 7636 0cae 28000000 		.4byte	.LBE26-.LBB26
 7637 0cb2 0F       		.uleb128 0xf
 7638 0cb3 5B0A0000 		.4byte	.LASF70
 7639 0cb7 02       		.byte	0x2
 7640 0cb8 FB       		.byte	0xfb
 7641 0cb9 B5000000 		.4byte	0xb5
 7642 0cbd 74080000 		.4byte	.LLST53
 7643 0cc1 18       		.uleb128 0x18
 7644 0cc2 32000000 		.4byte	.LVL239
 7645 0cc6 BF050000 		.4byte	0x5bf
 7646 0cca 19       		.uleb128 0x19
 7647 0ccb 01       		.uleb128 0x1
 7648 0ccc 50       		.byte	0x50
 7649 0ccd 02       		.uleb128 0x2
 7650 0cce 74       		.byte	0x74
 7651 0ccf 00       		.sleb128 0
 7652 0cd0 00       		.byte	0
 7653 0cd1 00       		.byte	0
 7654 0cd2 00       		.byte	0
 7655 0cd3 00       		.byte	0
 7656 0cd4 24       		.uleb128 0x24
 7657 0cd5 C10C0000 		.4byte	.LASF73
 7658 0cd9 02       		.byte	0x2
 7659 0cda 0901     		.2byte	0x109
 7660 0cdc 00000000 		.4byte	.LFB81
 7661 0ce0 34000000 		.4byte	.LFE81-.LFB81
 7662 0ce4 01       		.uleb128 0x1
 7663 0ce5 9C       		.byte	0x9c
ARM GAS  C:\Users\FRANKL~1\AppData\Local\Temp\ccPy0viy.s 			page 169


 7664 0ce6 2F0D0000 		.4byte	0xd2f
 7665 0cea 17       		.uleb128 0x17
 7666 0ceb 02000000 		.4byte	.LBB27
 7667 0cef 2C000000 		.4byte	.LBE27-.LBB27
 7668 0cf3 15       		.uleb128 0x15
 7669 0cf4 E50B0000 		.4byte	.LASF67
 7670 0cf8 02       		.byte	0x2
 7671 0cf9 0A01     		.2byte	0x10a
 7672 0cfb B5000000 		.4byte	0xb5
 7673 0cff AC080000 		.4byte	.LLST54
 7674 0d03 1D       		.uleb128 0x1d
 7675 0d04 60000000 		.4byte	.Ldebug_ranges0+0x60
 7676 0d08 1D0D0000 		.4byte	0xd1d
 7677 0d0c 15       		.uleb128 0x15
 7678 0d0d 02020000 		.4byte	.LASF69
 7679 0d11 02       		.byte	0x2
 7680 0d12 0B01     		.2byte	0x10b
 7681 0d14 B5000000 		.4byte	0xb5
 7682 0d18 D6080000 		.4byte	.LLST55
 7683 0d1c 00       		.byte	0
 7684 0d1d 18       		.uleb128 0x18
 7685 0d1e 26000000 		.4byte	.LVL249
 7686 0d22 BF050000 		.4byte	0x5bf
 7687 0d26 19       		.uleb128 0x19
 7688 0d27 01       		.uleb128 0x1
 7689 0d28 50       		.byte	0x50
 7690 0d29 02       		.uleb128 0x2
 7691 0d2a 74       		.byte	0x74
 7692 0d2b 00       		.sleb128 0
 7693 0d2c 00       		.byte	0
 7694 0d2d 00       		.byte	0
 7695 0d2e 00       		.byte	0
 7696 0d2f 12       		.uleb128 0x12
 7697 0d30 110B0000 		.4byte	.LASF74
 7698 0d34 02       		.byte	0x2
 7699 0d35 1301     		.2byte	0x113
 7700 0d37 00000000 		.4byte	.LFB82
 7701 0d3b 2C000000 		.4byte	.LFE82-.LFB82
 7702 0d3f 01       		.uleb128 0x1
 7703 0d40 9C       		.byte	0x9c
 7704 0d41 7D0D0000 		.4byte	0xd7d
 7705 0d45 25       		.uleb128 0x25
 7706 0d46 E50B0000 		.4byte	.LASF67
 7707 0d4a 02       		.byte	0x2
 7708 0d4b 1301     		.2byte	0x113
 7709 0d4d B5000000 		.4byte	0xb5
 7710 0d51 FF080000 		.4byte	.LLST56
 7711 0d55 13       		.uleb128 0x13
 7712 0d56 06000000 		.4byte	.LBB30
 7713 0d5a 1A000000 		.4byte	.LBE30-.LBB30
 7714 0d5e 730D0000 		.4byte	0xd73
 7715 0d62 15       		.uleb128 0x15
 7716 0d63 02020000 		.4byte	.LASF69
 7717 0d67 02       		.byte	0x2
 7718 0d68 1601     		.2byte	0x116
 7719 0d6a B5000000 		.4byte	0xb5
 7720 0d6e 2B090000 		.4byte	.LLST57
ARM GAS  C:\Users\FRANKL~1\AppData\Local\Temp\ccPy0viy.s 			page 170


 7721 0d72 00       		.byte	0
 7722 0d73 10       		.uleb128 0x10
 7723 0d74 24000000 		.4byte	.LVL259
 7724 0d78 BF050000 		.4byte	0x5bf
 7725 0d7c 00       		.byte	0
 7726 0d7d 12       		.uleb128 0x12
 7727 0d7e C0000000 		.4byte	.LASF75
 7728 0d82 02       		.byte	0x2
 7729 0d83 1D01     		.2byte	0x11d
 7730 0d85 00000000 		.4byte	.LFB83
 7731 0d89 38000000 		.4byte	.LFE83-.LFB83
 7732 0d8d 01       		.uleb128 0x1
 7733 0d8e 9C       		.byte	0x9c
 7734 0d8f 040E0000 		.4byte	0xe04
 7735 0d93 25       		.uleb128 0x25
 7736 0d94 E50B0000 		.4byte	.LASF67
 7737 0d98 02       		.byte	0x2
 7738 0d99 1D01     		.2byte	0x11d
 7739 0d9b B5000000 		.4byte	0xb5
 7740 0d9f 55090000 		.4byte	.LLST58
 7741 0da3 1A       		.uleb128 0x1a
 7742 0da4 18000000 		.4byte	.LVL262
 7743 0da8 980B0000 		.4byte	0xb98
 7744 0dac BC0D0000 		.4byte	0xdbc
 7745 0db0 19       		.uleb128 0x19
 7746 0db1 01       		.uleb128 0x1
 7747 0db2 50       		.byte	0x50
 7748 0db3 02       		.uleb128 0x2
 7749 0db4 08       		.byte	0x8
 7750 0db5 21       		.byte	0x21
 7751 0db6 19       		.uleb128 0x19
 7752 0db7 01       		.uleb128 0x1
 7753 0db8 51       		.byte	0x51
 7754 0db9 01       		.uleb128 0x1
 7755 0dba 31       		.byte	0x31
 7756 0dbb 00       		.byte	0
 7757 0dbc 1A       		.uleb128 0x1a
 7758 0dbd 22000000 		.4byte	.LVL263
 7759 0dc1 980B0000 		.4byte	0xb98
 7760 0dc5 D50D0000 		.4byte	0xdd5
 7761 0dc9 19       		.uleb128 0x19
 7762 0dca 01       		.uleb128 0x1
 7763 0dcb 50       		.byte	0x50
 7764 0dcc 02       		.uleb128 0x2
 7765 0dcd 08       		.byte	0x8
 7766 0dce 21       		.byte	0x21
 7767 0dcf 19       		.uleb128 0x19
 7768 0dd0 01       		.uleb128 0x1
 7769 0dd1 51       		.byte	0x51
 7770 0dd2 01       		.uleb128 0x1
 7771 0dd3 32       		.byte	0x32
 7772 0dd4 00       		.byte	0
 7773 0dd5 1A       		.uleb128 0x1a
 7774 0dd6 2C000000 		.4byte	.LVL264
 7775 0dda 980B0000 		.4byte	0xb98
 7776 0dde EE0D0000 		.4byte	0xdee
 7777 0de2 19       		.uleb128 0x19
ARM GAS  C:\Users\FRANKL~1\AppData\Local\Temp\ccPy0viy.s 			page 171


 7778 0de3 01       		.uleb128 0x1
 7779 0de4 50       		.byte	0x50
 7780 0de5 02       		.uleb128 0x2
 7781 0de6 08       		.byte	0x8
 7782 0de7 21       		.byte	0x21
 7783 0de8 19       		.uleb128 0x19
 7784 0de9 01       		.uleb128 0x1
 7785 0dea 51       		.byte	0x51
 7786 0deb 01       		.uleb128 0x1
 7787 0dec 33       		.byte	0x33
 7788 0ded 00       		.byte	0
 7789 0dee 18       		.uleb128 0x18
 7790 0def 36000000 		.4byte	.LVL265
 7791 0df3 980B0000 		.4byte	0xb98
 7792 0df7 19       		.uleb128 0x19
 7793 0df8 01       		.uleb128 0x1
 7794 0df9 50       		.byte	0x50
 7795 0dfa 02       		.uleb128 0x2
 7796 0dfb 08       		.byte	0x8
 7797 0dfc 21       		.byte	0x21
 7798 0dfd 19       		.uleb128 0x19
 7799 0dfe 01       		.uleb128 0x1
 7800 0dff 51       		.byte	0x51
 7801 0e00 01       		.uleb128 0x1
 7802 0e01 34       		.byte	0x34
 7803 0e02 00       		.byte	0
 7804 0e03 00       		.byte	0
 7805 0e04 24       		.uleb128 0x24
 7806 0e05 37050000 		.4byte	.LASF76
 7807 0e09 02       		.byte	0x2
 7808 0e0a 2701     		.2byte	0x127
 7809 0e0c 00000000 		.4byte	.LFB84
 7810 0e10 16000000 		.4byte	.LFE84-.LFB84
 7811 0e14 01       		.uleb128 0x1
 7812 0e15 9C       		.byte	0x9c
 7813 0e16 430E0000 		.4byte	0xe43
 7814 0e1a 17       		.uleb128 0x17
 7815 0e1b 02000000 		.4byte	.LBB31
 7816 0e1f 12000000 		.4byte	.LBE31-.LBB31
 7817 0e23 16       		.uleb128 0x16
 7818 0e24 6900     		.ascii	"i\000"
 7819 0e26 02       		.byte	0x2
 7820 0e27 2801     		.2byte	0x128
 7821 0e29 B5000000 		.4byte	0xb5
 7822 0e2d 76090000 		.4byte	.LLST59
 7823 0e31 18       		.uleb128 0x18
 7824 0e32 0C000000 		.4byte	.LVL268
 7825 0e36 7D0D0000 		.4byte	0xd7d
 7826 0e3a 19       		.uleb128 0x19
 7827 0e3b 01       		.uleb128 0x1
 7828 0e3c 50       		.byte	0x50
 7829 0e3d 02       		.uleb128 0x2
 7830 0e3e 74       		.byte	0x74
 7831 0e3f 00       		.sleb128 0
 7832 0e40 00       		.byte	0
 7833 0e41 00       		.byte	0
 7834 0e42 00       		.byte	0
ARM GAS  C:\Users\FRANKL~1\AppData\Local\Temp\ccPy0viy.s 			page 172


 7835 0e43 26       		.uleb128 0x26
 7836 0e44 A00A0000 		.4byte	.LASF77
 7837 0e48 02       		.byte	0x2
 7838 0e49 2D01     		.2byte	0x12d
 7839 0e4b 00000000 		.4byte	.LFB85
 7840 0e4f 14010000 		.4byte	.LFE85-.LFB85
 7841 0e53 01       		.uleb128 0x1
 7842 0e54 9C       		.byte	0x9c
 7843 0e55 480F0000 		.4byte	0xf48
 7844 0e59 25       		.uleb128 0x25
 7845 0e5a 9E090000 		.4byte	.LASF78
 7846 0e5e 02       		.byte	0x2
 7847 0e5f 2D01     		.2byte	0x12d
 7848 0e61 89090000 		.4byte	0x989
 7849 0e65 A0090000 		.4byte	.LLST60
 7850 0e69 25       		.uleb128 0x25
 7851 0e6a 85060000 		.4byte	.LASF79
 7852 0e6e 02       		.byte	0x2
 7853 0e6f 2D01     		.2byte	0x12d
 7854 0e71 89090000 		.4byte	0x989
 7855 0e75 CB090000 		.4byte	.LLST61
 7856 0e79 25       		.uleb128 0x25
 7857 0e7a F4090000 		.4byte	.LASF49
 7858 0e7e 02       		.byte	0x2
 7859 0e7f 2D01     		.2byte	0x12d
 7860 0e81 CD000000 		.4byte	0xcd
 7861 0e85 F6090000 		.4byte	.LLST62
 7862 0e89 14       		.uleb128 0x14
 7863 0e8a 43010000 		.4byte	.LASF80
 7864 0e8e 02       		.byte	0x2
 7865 0e8f 3101     		.2byte	0x131
 7866 0e91 F1000000 		.4byte	0xf1
 7867 0e95 02       		.uleb128 0x2
 7868 0e96 91       		.byte	0x91
 7869 0e97 54       		.sleb128 -44
 7870 0e98 14       		.uleb128 0x14
 7871 0e99 E6030000 		.4byte	.LASF81
 7872 0e9d 02       		.byte	0x2
 7873 0e9e 3201     		.2byte	0x132
 7874 0ea0 F1000000 		.4byte	0xf1
 7875 0ea4 02       		.uleb128 0x2
 7876 0ea5 91       		.byte	0x91
 7877 0ea6 50       		.sleb128 -48
 7878 0ea7 15       		.uleb128 0x15
 7879 0ea8 08030000 		.4byte	.LASF82
 7880 0eac 02       		.byte	0x2
 7881 0ead 3501     		.2byte	0x135
 7882 0eaf 25000000 		.4byte	0x25
 7883 0eb3 220A0000 		.4byte	.LLST63
 7884 0eb7 15       		.uleb128 0x15
 7885 0eb8 B7060000 		.4byte	.LASF83
 7886 0ebc 02       		.byte	0x2
 7887 0ebd 3701     		.2byte	0x137
 7888 0ebf 25000000 		.4byte	0x25
 7889 0ec3 500A0000 		.4byte	.LLST64
 7890 0ec7 15       		.uleb128 0x15
 7891 0ec8 D70B0000 		.4byte	.LASF84
ARM GAS  C:\Users\FRANKL~1\AppData\Local\Temp\ccPy0viy.s 			page 173


 7892 0ecc 02       		.byte	0x2
 7893 0ecd 3801     		.2byte	0x138
 7894 0ecf 25000000 		.4byte	0x25
 7895 0ed3 890A0000 		.4byte	.LLST65
 7896 0ed7 27       		.uleb128 0x27
 7897 0ed8 4C0A0000 		.4byte	.LASF85
 7898 0edc 02       		.byte	0x2
 7899 0edd 3A01     		.2byte	0x13a
 7900 0edf 25000000 		.4byte	0x25
 7901 0ee3 04       		.byte	0x4
 7902 0ee4 00409C46 		.4byte	0x469c4000
 7903 0ee8 27       		.uleb128 0x27
 7904 0ee9 83020000 		.4byte	.LASF86
 7905 0eed 02       		.byte	0x2
 7906 0eee 3B01     		.2byte	0x13b
 7907 0ef0 25000000 		.4byte	0x25
 7908 0ef4 04       		.byte	0x4
 7909 0ef5 FFE65BAE 		.4byte	0xae5be6ff
 7910 0ef9 1D       		.uleb128 0x1d
 7911 0efa 78000000 		.4byte	.Ldebug_ranges0+0x78
 7912 0efe 2C0F0000 		.4byte	0xf2c
 7913 0f02 16       		.uleb128 0x16
 7914 0f03 6900     		.ascii	"i\000"
 7915 0f05 02       		.byte	0x2
 7916 0f06 4101     		.2byte	0x141
 7917 0f08 CD000000 		.4byte	0xcd
 7918 0f0c CE0A0000 		.4byte	.LLST66
 7919 0f10 18       		.uleb128 0x18
 7920 0f11 36000000 		.4byte	.LVL278
 7921 0f15 0D080000 		.4byte	0x80d
 7922 0f19 19       		.uleb128 0x19
 7923 0f1a 01       		.uleb128 0x1
 7924 0f1b 50       		.byte	0x50
 7925 0f1c 02       		.uleb128 0x2
 7926 0f1d 91       		.byte	0x91
 7927 0f1e 54       		.sleb128 -44
 7928 0f1f 19       		.uleb128 0x19
 7929 0f20 01       		.uleb128 0x1
 7930 0f21 51       		.byte	0x51
 7931 0f22 02       		.uleb128 0x2
 7932 0f23 91       		.byte	0x91
 7933 0f24 50       		.sleb128 -48
 7934 0f25 19       		.uleb128 0x19
 7935 0f26 01       		.uleb128 0x1
 7936 0f27 52       		.byte	0x52
 7937 0f28 01       		.uleb128 0x1
 7938 0f29 31       		.byte	0x31
 7939 0f2a 00       		.byte	0
 7940 0f2b 00       		.byte	0
 7941 0f2c 18       		.uleb128 0x18
 7942 0f2d 22000000 		.4byte	.LVL276
 7943 0f31 0D080000 		.4byte	0x80d
 7944 0f35 19       		.uleb128 0x19
 7945 0f36 01       		.uleb128 0x1
 7946 0f37 50       		.byte	0x50
 7947 0f38 02       		.uleb128 0x2
 7948 0f39 91       		.byte	0x91
ARM GAS  C:\Users\FRANKL~1\AppData\Local\Temp\ccPy0viy.s 			page 174


 7949 0f3a 54       		.sleb128 -44
 7950 0f3b 19       		.uleb128 0x19
 7951 0f3c 01       		.uleb128 0x1
 7952 0f3d 51       		.byte	0x51
 7953 0f3e 02       		.uleb128 0x2
 7954 0f3f 91       		.byte	0x91
 7955 0f40 50       		.sleb128 -48
 7956 0f41 19       		.uleb128 0x19
 7957 0f42 01       		.uleb128 0x1
 7958 0f43 52       		.byte	0x52
 7959 0f44 01       		.uleb128 0x1
 7960 0f45 33       		.byte	0x33
 7961 0f46 00       		.byte	0
 7962 0f47 00       		.byte	0
 7963 0f48 28       		.uleb128 0x28
 7964 0f49 36060000 		.4byte	.LASF87
 7965 0f4d 02       		.byte	0x2
 7966 0f4e 5501     		.2byte	0x155
 7967 0f50 B5000000 		.4byte	0xb5
 7968 0f54 00000000 		.4byte	.LFB86
 7969 0f58 54000000 		.4byte	.LFE86-.LFB86
 7970 0f5c 01       		.uleb128 0x1
 7971 0f5d 9C       		.byte	0x9c
 7972 0f5e 9C0F0000 		.4byte	0xf9c
 7973 0f62 14       		.uleb128 0x14
 7974 0f63 F5060000 		.4byte	.LASF88
 7975 0f67 02       		.byte	0x2
 7976 0f68 5801     		.2byte	0x158
 7977 0f6a 25000000 		.4byte	0x25
 7978 0f6e 02       		.uleb128 0x2
 7979 0f6f 91       		.byte	0x91
 7980 0f70 74       		.sleb128 -12
 7981 0f71 14       		.uleb128 0x14
 7982 0f72 70060000 		.4byte	.LASF89
 7983 0f76 02       		.byte	0x2
 7984 0f77 5901     		.2byte	0x159
 7985 0f79 25000000 		.4byte	0x25
 7986 0f7d 02       		.uleb128 0x2
 7987 0f7e 91       		.byte	0x91
 7988 0f7f 70       		.sleb128 -16
 7989 0f80 18       		.uleb128 0x18
 7990 0f81 1C000000 		.4byte	.LVL304
 7991 0f85 430E0000 		.4byte	0xe43
 7992 0f89 19       		.uleb128 0x19
 7993 0f8a 01       		.uleb128 0x1
 7994 0f8b 50       		.byte	0x50
 7995 0f8c 02       		.uleb128 0x2
 7996 0f8d 91       		.byte	0x91
 7997 0f8e 74       		.sleb128 -12
 7998 0f8f 19       		.uleb128 0x19
 7999 0f90 01       		.uleb128 0x1
 8000 0f91 51       		.byte	0x51
 8001 0f92 02       		.uleb128 0x2
 8002 0f93 91       		.byte	0x91
 8003 0f94 70       		.sleb128 -16
 8004 0f95 19       		.uleb128 0x19
 8005 0f96 01       		.uleb128 0x1
ARM GAS  C:\Users\FRANKL~1\AppData\Local\Temp\ccPy0viy.s 			page 175


 8006 0f97 52       		.byte	0x52
 8007 0f98 01       		.uleb128 0x1
 8008 0f99 33       		.byte	0x33
 8009 0f9a 00       		.byte	0
 8010 0f9b 00       		.byte	0
 8011 0f9c 24       		.uleb128 0x24
 8012 0f9d 530C0000 		.4byte	.LASF90
 8013 0fa1 02       		.byte	0x2
 8014 0fa2 6501     		.2byte	0x165
 8015 0fa4 00000000 		.4byte	.LFB87
 8016 0fa8 68000000 		.4byte	.LFE87-.LFB87
 8017 0fac 01       		.uleb128 0x1
 8018 0fad 9C       		.byte	0x9c
 8019 0fae 51100000 		.4byte	0x1051
 8020 0fb2 15       		.uleb128 0x15
 8021 0fb3 9C000000 		.4byte	.LASF91
 8022 0fb7 02       		.byte	0x2
 8023 0fb8 6601     		.2byte	0x166
 8024 0fba B5000000 		.4byte	0xb5
 8025 0fbe ED0A0000 		.4byte	.LLST67
 8026 0fc2 15       		.uleb128 0x15
 8027 0fc3 9D070000 		.4byte	.LASF92
 8028 0fc7 02       		.byte	0x2
 8029 0fc8 6701     		.2byte	0x167
 8030 0fca B5000000 		.4byte	0xb5
 8031 0fce 0B0B0000 		.4byte	.LLST68
 8032 0fd2 15       		.uleb128 0x15
 8033 0fd3 00000000 		.4byte	.LASF93
 8034 0fd7 02       		.byte	0x2
 8035 0fd8 6801     		.2byte	0x168
 8036 0fda D9000000 		.4byte	0xd9
 8037 0fde 290B0000 		.4byte	.LLST69
 8038 0fe2 13       		.uleb128 0x13
 8039 0fe3 1A000000 		.4byte	.LBB34
 8040 0fe7 16000000 		.4byte	.LBE34-.LBB34
 8041 0feb 1B100000 		.4byte	0x101b
 8042 0fef 16       		.uleb128 0x16
 8043 0ff0 6900     		.ascii	"i\000"
 8044 0ff2 02       		.byte	0x2
 8045 0ff3 6B01     		.2byte	0x16b
 8046 0ff5 B5000000 		.4byte	0xb5
 8047 0ff9 5F0B0000 		.4byte	.LLST70
 8048 0ffd 1A       		.uleb128 0x1a
 8049 0ffe 22000000 		.4byte	.LVL312
 8050 1002 4D350000 		.4byte	0x354d
 8051 1006 11100000 		.4byte	0x1011
 8052 100a 19       		.uleb128 0x19
 8053 100b 01       		.uleb128 0x1
 8054 100c 50       		.byte	0x50
 8055 100d 02       		.uleb128 0x2
 8056 100e 74       		.byte	0x74
 8057 100f 00       		.sleb128 0
 8058 1010 00       		.byte	0
 8059 1011 10       		.uleb128 0x10
 8060 1012 26000000 		.4byte	.LVL313
 8061 1016 480F0000 		.4byte	0xf48
 8062 101a 00       		.byte	0
ARM GAS  C:\Users\FRANKL~1\AppData\Local\Temp\ccPy0viy.s 			page 176


 8063 101b 17       		.uleb128 0x17
 8064 101c 48000000 		.4byte	.LBB35
 8065 1020 20000000 		.4byte	.LBE35-.LBB35
 8066 1024 16       		.uleb128 0x16
 8067 1025 6900     		.ascii	"i\000"
 8068 1027 02       		.byte	0x2
 8069 1028 7601     		.2byte	0x176
 8070 102a B5000000 		.4byte	0xb5
 8071 102e 7D0B0000 		.4byte	.LLST71
 8072 1032 1A       		.uleb128 0x1a
 8073 1033 50000000 		.4byte	.LVL322
 8074 1037 42350000 		.4byte	0x3542
 8075 103b 46100000 		.4byte	0x1046
 8076 103f 19       		.uleb128 0x19
 8077 1040 01       		.uleb128 0x1
 8078 1041 50       		.byte	0x50
 8079 1042 02       		.uleb128 0x2
 8080 1043 74       		.byte	0x74
 8081 1044 00       		.sleb128 0
 8082 1045 00       		.byte	0
 8083 1046 10       		.uleb128 0x10
 8084 1047 54000000 		.4byte	.LVL323
 8085 104b 480F0000 		.4byte	0xf48
 8086 104f 00       		.byte	0
 8087 1050 00       		.byte	0
 8088 1051 12       		.uleb128 0x12
 8089 1052 DB090000 		.4byte	.LASF94
 8090 1056 02       		.byte	0x2
 8091 1057 7F01     		.2byte	0x17f
 8092 1059 00000000 		.4byte	.LFB88
 8093 105d 74000000 		.4byte	.LFE88-.LFB88
 8094 1061 01       		.uleb128 0x1
 8095 1062 9C       		.byte	0x9c
 8096 1063 10110000 		.4byte	0x1110
 8097 1067 25       		.uleb128 0x25
 8098 1068 E0030000 		.4byte	.LASF95
 8099 106c 02       		.byte	0x2
 8100 106d 7F01     		.2byte	0x17f
 8101 106f B5000000 		.4byte	0xb5
 8102 1073 9B0B0000 		.4byte	.LLST72
 8103 1077 15       		.uleb128 0x15
 8104 1078 9C000000 		.4byte	.LASF91
 8105 107c 02       		.byte	0x2
 8106 107d 8201     		.2byte	0x182
 8107 107f B5000000 		.4byte	0xb5
 8108 1083 BC0B0000 		.4byte	.LLST73
 8109 1087 15       		.uleb128 0x15
 8110 1088 00000000 		.4byte	.LASF93
 8111 108c 02       		.byte	0x2
 8112 108d 8301     		.2byte	0x183
 8113 108f D9000000 		.4byte	0xd9
 8114 1093 CF0B0000 		.4byte	.LLST74
 8115 1097 17       		.uleb128 0x17
 8116 1098 22000000 		.4byte	.LBB36
 8117 109c 52000000 		.4byte	.LBE36-.LBB36
 8118 10a0 16       		.uleb128 0x16
 8119 10a1 6900     		.ascii	"i\000"
ARM GAS  C:\Users\FRANKL~1\AppData\Local\Temp\ccPy0viy.s 			page 177


 8120 10a3 02       		.byte	0x2
 8121 10a4 8601     		.2byte	0x186
 8122 10a6 B5000000 		.4byte	0xb5
 8123 10aa EE0B0000 		.4byte	.LLST75
 8124 10ae 1D       		.uleb128 0x1d
 8125 10af 90000000 		.4byte	.Ldebug_ranges0+0x90
 8126 10b3 E3100000 		.4byte	0x10e3
 8127 10b7 16       		.uleb128 0x16
 8128 10b8 6A00     		.ascii	"j\000"
 8129 10ba 02       		.byte	0x2
 8130 10bb 8801     		.2byte	0x188
 8131 10bd B5000000 		.4byte	0xb5
 8132 10c1 180C0000 		.4byte	.LLST76
 8133 10c5 1A       		.uleb128 0x1a
 8134 10c6 34000000 		.4byte	.LVL334
 8135 10ca 4D350000 		.4byte	0x354d
 8136 10ce D9100000 		.4byte	0x10d9
 8137 10d2 19       		.uleb128 0x19
 8138 10d3 01       		.uleb128 0x1
 8139 10d4 50       		.byte	0x50
 8140 10d5 02       		.uleb128 0x2
 8141 10d6 74       		.byte	0x74
 8142 10d7 00       		.sleb128 0
 8143 10d8 00       		.byte	0
 8144 10d9 10       		.uleb128 0x10
 8145 10da 38000000 		.4byte	.LVL335
 8146 10de 480F0000 		.4byte	0xf48
 8147 10e2 00       		.byte	0
 8148 10e3 10       		.uleb128 0x10
 8149 10e4 2A000000 		.4byte	.LVL332
 8150 10e8 480F0000 		.4byte	0xf48
 8151 10ec 10       		.uleb128 0x10
 8152 10ed 4A000000 		.4byte	.LVL340
 8153 10f1 480F0000 		.4byte	0xf48
 8154 10f5 10       		.uleb128 0x10
 8155 10f6 50000000 		.4byte	.LVL341
 8156 10fa 9C0F0000 		.4byte	0xf9c
 8157 10fe 18       		.uleb128 0x18
 8158 10ff 5A000000 		.4byte	.LVL343
 8159 1103 4D350000 		.4byte	0x354d
 8160 1107 19       		.uleb128 0x19
 8161 1108 01       		.uleb128 0x1
 8162 1109 50       		.byte	0x50
 8163 110a 02       		.uleb128 0x2
 8164 110b 77       		.byte	0x77
 8165 110c 00       		.sleb128 0
 8166 110d 00       		.byte	0
 8167 110e 00       		.byte	0
 8168 110f 00       		.byte	0
 8169 1110 12       		.uleb128 0x12
 8170 1111 A0020000 		.4byte	.LASF96
 8171 1115 02       		.byte	0x2
 8172 1116 9701     		.2byte	0x197
 8173 1118 00000000 		.4byte	.LFB89
 8174 111c 74000000 		.4byte	.LFE89-.LFB89
 8175 1120 01       		.uleb128 0x1
 8176 1121 9C       		.byte	0x9c
ARM GAS  C:\Users\FRANKL~1\AppData\Local\Temp\ccPy0viy.s 			page 178


 8177 1122 CF110000 		.4byte	0x11cf
 8178 1126 25       		.uleb128 0x25
 8179 1127 E0030000 		.4byte	.LASF95
 8180 112b 02       		.byte	0x2
 8181 112c 9701     		.2byte	0x197
 8182 112e B5000000 		.4byte	0xb5
 8183 1132 410C0000 		.4byte	.LLST77
 8184 1136 15       		.uleb128 0x15
 8185 1137 00000000 		.4byte	.LASF93
 8186 113b 02       		.byte	0x2
 8187 113c 9A01     		.2byte	0x19a
 8188 113e D9000000 		.4byte	0xd9
 8189 1142 620C0000 		.4byte	.LLST78
 8190 1146 15       		.uleb128 0x15
 8191 1147 9C000000 		.4byte	.LASF91
 8192 114b 02       		.byte	0x2
 8193 114c 9B01     		.2byte	0x19b
 8194 114e B5000000 		.4byte	0xb5
 8195 1152 810C0000 		.4byte	.LLST79
 8196 1156 17       		.uleb128 0x17
 8197 1157 22000000 		.4byte	.LBB39
 8198 115b 52000000 		.4byte	.LBE39-.LBB39
 8199 115f 16       		.uleb128 0x16
 8200 1160 6900     		.ascii	"i\000"
 8201 1162 02       		.byte	0x2
 8202 1163 9E01     		.2byte	0x19e
 8203 1165 B5000000 		.4byte	0xb5
 8204 1169 940C0000 		.4byte	.LLST80
 8205 116d 1D       		.uleb128 0x1d
 8206 116e A8000000 		.4byte	.Ldebug_ranges0+0xa8
 8207 1172 A2110000 		.4byte	0x11a2
 8208 1176 16       		.uleb128 0x16
 8209 1177 6A00     		.ascii	"j\000"
 8210 1179 02       		.byte	0x2
 8211 117a A001     		.2byte	0x1a0
 8212 117c B5000000 		.4byte	0xb5
 8213 1180 BD0C0000 		.4byte	.LLST81
 8214 1184 1A       		.uleb128 0x1a
 8215 1185 34000000 		.4byte	.LVL354
 8216 1189 42350000 		.4byte	0x3542
 8217 118d 98110000 		.4byte	0x1198
 8218 1191 19       		.uleb128 0x19
 8219 1192 01       		.uleb128 0x1
 8220 1193 50       		.byte	0x50
 8221 1194 02       		.uleb128 0x2
 8222 1195 74       		.byte	0x74
 8223 1196 00       		.sleb128 0
 8224 1197 00       		.byte	0
 8225 1198 10       		.uleb128 0x10
 8226 1199 38000000 		.4byte	.LVL355
 8227 119d 480F0000 		.4byte	0xf48
 8228 11a1 00       		.byte	0
 8229 11a2 10       		.uleb128 0x10
 8230 11a3 2A000000 		.4byte	.LVL352
 8231 11a7 480F0000 		.4byte	0xf48
 8232 11ab 10       		.uleb128 0x10
 8233 11ac 4A000000 		.4byte	.LVL360
ARM GAS  C:\Users\FRANKL~1\AppData\Local\Temp\ccPy0viy.s 			page 179


 8234 11b0 480F0000 		.4byte	0xf48
 8235 11b4 10       		.uleb128 0x10
 8236 11b5 50000000 		.4byte	.LVL361
 8237 11b9 9C0F0000 		.4byte	0xf9c
 8238 11bd 18       		.uleb128 0x18
 8239 11be 5A000000 		.4byte	.LVL363
 8240 11c2 42350000 		.4byte	0x3542
 8241 11c6 19       		.uleb128 0x19
 8242 11c7 01       		.uleb128 0x1
 8243 11c8 50       		.byte	0x50
 8244 11c9 02       		.uleb128 0x2
 8245 11ca 77       		.byte	0x77
 8246 11cb 00       		.sleb128 0
 8247 11cc 00       		.byte	0
 8248 11cd 00       		.byte	0
 8249 11ce 00       		.byte	0
 8250 11cf 12       		.uleb128 0x12
 8251 11d0 2B050000 		.4byte	.LASF97
 8252 11d4 02       		.byte	0x2
 8253 11d5 AF01     		.2byte	0x1af
 8254 11d7 00000000 		.4byte	.LFB90
 8255 11db 7C000000 		.4byte	.LFE90-.LFB90
 8256 11df 01       		.uleb128 0x1
 8257 11e0 9C       		.byte	0x9c
 8258 11e1 89120000 		.4byte	0x1289
 8259 11e5 25       		.uleb128 0x25
 8260 11e6 E0030000 		.4byte	.LASF95
 8261 11ea 02       		.byte	0x2
 8262 11eb AF01     		.2byte	0x1af
 8263 11ed B5000000 		.4byte	0xb5
 8264 11f1 E60C0000 		.4byte	.LLST82
 8265 11f5 15       		.uleb128 0x15
 8266 11f6 00000000 		.4byte	.LASF93
 8267 11fa 02       		.byte	0x2
 8268 11fb B001     		.2byte	0x1b0
 8269 11fd D9000000 		.4byte	0xd9
 8270 1201 070D0000 		.4byte	.LLST83
 8271 1205 17       		.uleb128 0x17
 8272 1206 1A000000 		.4byte	.LBB42
 8273 120a 62000000 		.4byte	.LBE42-.LBB42
 8274 120e 16       		.uleb128 0x16
 8275 120f 6900     		.ascii	"i\000"
 8276 1211 02       		.byte	0x2
 8277 1212 B301     		.2byte	0x1b3
 8278 1214 B5000000 		.4byte	0xb5
 8279 1218 260D0000 		.4byte	.LLST84
 8280 121c 17       		.uleb128 0x17
 8281 121d 22000000 		.4byte	.LBB43
 8282 1221 42000000 		.4byte	.LBE43-.LBB43
 8283 1225 15       		.uleb128 0x15
 8284 1226 3B010000 		.4byte	.LASF98
 8285 122a 02       		.byte	0x2
 8286 122b B701     		.2byte	0x1b7
 8287 122d E5000000 		.4byte	0xe5
 8288 1231 440D0000 		.4byte	.LLST85
 8289 1235 15       		.uleb128 0x15
 8290 1236 1A090000 		.4byte	.LASF99
ARM GAS  C:\Users\FRANKL~1\AppData\Local\Temp\ccPy0viy.s 			page 180


 8291 123a 02       		.byte	0x2
 8292 123b B801     		.2byte	0x1b8
 8293 123d E5000000 		.4byte	0xe5
 8294 1241 570D0000 		.4byte	.LLST86
 8295 1245 10       		.uleb128 0x10
 8296 1246 26000000 		.4byte	.LVL372
 8297 124a 480F0000 		.4byte	0xf48
 8298 124e 1A       		.uleb128 0x1a
 8299 124f 58000000 		.4byte	.LVL379
 8300 1253 58350000 		.4byte	0x3558
 8301 1257 62120000 		.4byte	0x1262
 8302 125b 19       		.uleb128 0x19
 8303 125c 01       		.uleb128 0x1
 8304 125d 50       		.byte	0x50
 8305 125e 02       		.uleb128 0x2
 8306 125f 76       		.byte	0x76
 8307 1260 00       		.sleb128 0
 8308 1261 00       		.byte	0
 8309 1262 1A       		.uleb128 0x1a
 8310 1263 5E000000 		.4byte	.LVL380
 8311 1267 42350000 		.4byte	0x3542
 8312 126b 76120000 		.4byte	0x1276
 8313 126f 19       		.uleb128 0x19
 8314 1270 01       		.uleb128 0x1
 8315 1271 50       		.byte	0x50
 8316 1272 02       		.uleb128 0x2
 8317 1273 75       		.byte	0x75
 8318 1274 00       		.sleb128 0
 8319 1275 00       		.byte	0
 8320 1276 18       		.uleb128 0x18
 8321 1277 64000000 		.4byte	.LVL381
 8322 127b 4D350000 		.4byte	0x354d
 8323 127f 19       		.uleb128 0x19
 8324 1280 01       		.uleb128 0x1
 8325 1281 50       		.byte	0x50
 8326 1282 02       		.uleb128 0x2
 8327 1283 74       		.byte	0x74
 8328 1284 00       		.sleb128 0
 8329 1285 00       		.byte	0
 8330 1286 00       		.byte	0
 8331 1287 00       		.byte	0
 8332 1288 00       		.byte	0
 8333 1289 12       		.uleb128 0x12
 8334 128a 48000000 		.4byte	.LASF100
 8335 128e 02       		.byte	0x2
 8336 128f C601     		.2byte	0x1c6
 8337 1291 00000000 		.4byte	.LFB91
 8338 1295 64000000 		.4byte	.LFE91-.LFB91
 8339 1299 01       		.uleb128 0x1
 8340 129a 9C       		.byte	0x9c
 8341 129b 02130000 		.4byte	0x1302
 8342 129f 25       		.uleb128 0x25
 8343 12a0 E0030000 		.4byte	.LASF95
 8344 12a4 02       		.byte	0x2
 8345 12a5 C601     		.2byte	0x1c6
 8346 12a7 E5000000 		.4byte	0xe5
 8347 12ab 6A0D0000 		.4byte	.LLST87
ARM GAS  C:\Users\FRANKL~1\AppData\Local\Temp\ccPy0viy.s 			page 181


 8348 12af 15       		.uleb128 0x15
 8349 12b0 F1040000 		.4byte	.LASF101
 8350 12b4 02       		.byte	0x2
 8351 12b5 CA01     		.2byte	0x1ca
 8352 12b7 E5000000 		.4byte	0xe5
 8353 12bb 970D0000 		.4byte	.LLST88
 8354 12bf 10       		.uleb128 0x10
 8355 12c0 30000000 		.4byte	.LVL391
 8356 12c4 CF110000 		.4byte	0x11cf
 8357 12c8 1A       		.uleb128 0x1a
 8358 12c9 36000000 		.4byte	.LVL392
 8359 12cd 51100000 		.4byte	0x1051
 8360 12d1 DC120000 		.4byte	0x12dc
 8361 12d5 19       		.uleb128 0x19
 8362 12d6 01       		.uleb128 0x1
 8363 12d7 50       		.byte	0x50
 8364 12d8 02       		.uleb128 0x2
 8365 12d9 09       		.byte	0x9
 8366 12da FF       		.byte	0xff
 8367 12db 00       		.byte	0
 8368 12dc 10       		.uleb128 0x10
 8369 12dd 48000000 		.4byte	.LVL396
 8370 12e1 CF110000 		.4byte	0x11cf
 8371 12e5 1A       		.uleb128 0x1a
 8372 12e6 4E000000 		.4byte	.LVL397
 8373 12ea 51100000 		.4byte	0x1051
 8374 12ee F8120000 		.4byte	0x12f8
 8375 12f2 19       		.uleb128 0x19
 8376 12f3 01       		.uleb128 0x1
 8377 12f4 50       		.byte	0x50
 8378 12f5 01       		.uleb128 0x1
 8379 12f6 30       		.byte	0x30
 8380 12f7 00       		.byte	0
 8381 12f8 10       		.uleb128 0x10
 8382 12f9 56000000 		.4byte	.LVL399
 8383 12fd 51100000 		.4byte	0x1051
 8384 1301 00       		.byte	0
 8385 1302 12       		.uleb128 0x12
 8386 1303 0E090000 		.4byte	.LASF102
 8387 1307 02       		.byte	0x2
 8388 1308 D901     		.2byte	0x1d9
 8389 130a 00000000 		.4byte	.LFB92
 8390 130e 64000000 		.4byte	.LFE92-.LFB92
 8391 1312 01       		.uleb128 0x1
 8392 1313 9C       		.byte	0x9c
 8393 1314 7B130000 		.4byte	0x137b
 8394 1318 25       		.uleb128 0x25
 8395 1319 E0030000 		.4byte	.LASF95
 8396 131d 02       		.byte	0x2
 8397 131e D901     		.2byte	0x1d9
 8398 1320 E5000000 		.4byte	0xe5
 8399 1324 D60D0000 		.4byte	.LLST89
 8400 1328 15       		.uleb128 0x15
 8401 1329 F1040000 		.4byte	.LASF101
 8402 132d 02       		.byte	0x2
 8403 132e DD01     		.2byte	0x1dd
 8404 1330 E5000000 		.4byte	0xe5
ARM GAS  C:\Users\FRANKL~1\AppData\Local\Temp\ccPy0viy.s 			page 182


 8405 1334 030E0000 		.4byte	.LLST90
 8406 1338 10       		.uleb128 0x10
 8407 1339 30000000 		.4byte	.LVL407
 8408 133d CF110000 		.4byte	0x11cf
 8409 1341 1A       		.uleb128 0x1a
 8410 1342 36000000 		.4byte	.LVL408
 8411 1346 10110000 		.4byte	0x1110
 8412 134a 55130000 		.4byte	0x1355
 8413 134e 19       		.uleb128 0x19
 8414 134f 01       		.uleb128 0x1
 8415 1350 50       		.byte	0x50
 8416 1351 02       		.uleb128 0x2
 8417 1352 09       		.byte	0x9
 8418 1353 FF       		.byte	0xff
 8419 1354 00       		.byte	0
 8420 1355 10       		.uleb128 0x10
 8421 1356 48000000 		.4byte	.LVL412
 8422 135a CF110000 		.4byte	0x11cf
 8423 135e 1A       		.uleb128 0x1a
 8424 135f 4E000000 		.4byte	.LVL413
 8425 1363 10110000 		.4byte	0x1110
 8426 1367 71130000 		.4byte	0x1371
 8427 136b 19       		.uleb128 0x19
 8428 136c 01       		.uleb128 0x1
 8429 136d 50       		.byte	0x50
 8430 136e 01       		.uleb128 0x1
 8431 136f 30       		.byte	0x30
 8432 1370 00       		.byte	0
 8433 1371 10       		.uleb128 0x10
 8434 1372 56000000 		.4byte	.LVL415
 8435 1376 10110000 		.4byte	0x1110
 8436 137a 00       		.byte	0
 8437 137b 26       		.uleb128 0x26
 8438 137c 52090000 		.4byte	.LASF103
 8439 1380 02       		.byte	0x2
 8440 1381 EC01     		.2byte	0x1ec
 8441 1383 00000000 		.4byte	.LFB93
 8442 1387 38000000 		.4byte	.LFE93-.LFB93
 8443 138b 01       		.uleb128 0x1
 8444 138c 9C       		.byte	0x9c
 8445 138d AB130000 		.4byte	0x13ab
 8446 1391 25       		.uleb128 0x25
 8447 1392 43010000 		.4byte	.LASF80
 8448 1396 02       		.byte	0x2
 8449 1397 EC01     		.2byte	0x1ec
 8450 1399 25000000 		.4byte	0x25
 8451 139d 420E0000 		.4byte	.LLST91
 8452 13a1 10       		.uleb128 0x10
 8453 13a2 24000000 		.4byte	.LVL422
 8454 13a6 02130000 		.4byte	0x1302
 8455 13aa 00       		.byte	0
 8456 13ab 26       		.uleb128 0x26
 8457 13ac F0030000 		.4byte	.LASF104
 8458 13b0 02       		.byte	0x2
 8459 13b1 F001     		.2byte	0x1f0
 8460 13b3 00000000 		.4byte	.LFB94
 8461 13b7 38000000 		.4byte	.LFE94-.LFB94
ARM GAS  C:\Users\FRANKL~1\AppData\Local\Temp\ccPy0viy.s 			page 183


 8462 13bb 01       		.uleb128 0x1
 8463 13bc 9C       		.byte	0x9c
 8464 13bd DB130000 		.4byte	0x13db
 8465 13c1 25       		.uleb128 0x25
 8466 13c2 43010000 		.4byte	.LASF80
 8467 13c6 02       		.byte	0x2
 8468 13c7 F001     		.2byte	0x1f0
 8469 13c9 25000000 		.4byte	0x25
 8470 13cd 650E0000 		.4byte	.LLST92
 8471 13d1 10       		.uleb128 0x10
 8472 13d2 24000000 		.4byte	.LVL428
 8473 13d6 89120000 		.4byte	0x1289
 8474 13da 00       		.byte	0
 8475 13db 26       		.uleb128 0x26
 8476 13dc 33080000 		.4byte	.LASF105
 8477 13e0 02       		.byte	0x2
 8478 13e1 F401     		.2byte	0x1f4
 8479 13e3 00000000 		.4byte	.LFB95
 8480 13e7 14000000 		.4byte	.LFE95-.LFB95
 8481 13eb 01       		.uleb128 0x1
 8482 13ec 9C       		.byte	0x9c
 8483 13ed 0A140000 		.4byte	0x140a
 8484 13f1 29       		.uleb128 0x29
 8485 13f2 6D5600   		.ascii	"mV\000"
 8486 13f5 02       		.byte	0x2
 8487 13f6 F401     		.2byte	0x1f4
 8488 13f8 25000000 		.4byte	0x25
 8489 13fc 880E0000 		.4byte	.LLST93
 8490 1400 10       		.uleb128 0x10
 8491 1401 0C000000 		.4byte	.LVL431
 8492 1405 7B130000 		.4byte	0x137b
 8493 1409 00       		.byte	0
 8494 140a 26       		.uleb128 0x26
 8495 140b 140A0000 		.4byte	.LASF106
 8496 140f 02       		.byte	0x2
 8497 1410 F801     		.2byte	0x1f8
 8498 1412 00000000 		.4byte	.LFB96
 8499 1416 14000000 		.4byte	.LFE96-.LFB96
 8500 141a 01       		.uleb128 0x1
 8501 141b 9C       		.byte	0x9c
 8502 141c 39140000 		.4byte	0x1439
 8503 1420 29       		.uleb128 0x29
 8504 1421 6D5600   		.ascii	"mV\000"
 8505 1424 02       		.byte	0x2
 8506 1425 F801     		.2byte	0x1f8
 8507 1427 25000000 		.4byte	0x25
 8508 142b AB0E0000 		.4byte	.LLST94
 8509 142f 10       		.uleb128 0x10
 8510 1430 0C000000 		.4byte	.LVL434
 8511 1434 AB130000 		.4byte	0x13ab
 8512 1438 00       		.byte	0
 8513 1439 28       		.uleb128 0x28
 8514 143a 2B080000 		.4byte	.LASF107
 8515 143e 02       		.byte	0x2
 8516 143f FC01     		.2byte	0x1fc
 8517 1441 25000000 		.4byte	0x25
 8518 1445 00000000 		.4byte	.LFB97
ARM GAS  C:\Users\FRANKL~1\AppData\Local\Temp\ccPy0viy.s 			page 184


 8519 1449 30000000 		.4byte	.LFE97-.LFB97
 8520 144d 01       		.uleb128 0x1
 8521 144e 9C       		.byte	0x9c
 8522 144f 62140000 		.4byte	0x1462
 8523 1453 14       		.uleb128 0x14
 8524 1454 5A0D0000 		.4byte	.LASF108
 8525 1458 02       		.byte	0x2
 8526 1459 FD01     		.2byte	0x1fd
 8527 145b 25000000 		.4byte	0x25
 8528 145f 01       		.uleb128 0x1
 8529 1460 50       		.byte	0x50
 8530 1461 00       		.byte	0
 8531 1462 28       		.uleb128 0x28
 8532 1463 4B010000 		.4byte	.LASF109
 8533 1467 02       		.byte	0x2
 8534 1468 0402     		.2byte	0x204
 8535 146a 25000000 		.4byte	0x25
 8536 146e 00000000 		.4byte	.LFB98
 8537 1472 48000000 		.4byte	.LFE98-.LFB98
 8538 1476 01       		.uleb128 0x1
 8539 1477 9C       		.byte	0x9c
 8540 1478 94140000 		.4byte	0x1494
 8541 147c 14       		.uleb128 0x14
 8542 147d 5A0D0000 		.4byte	.LASF108
 8543 1481 02       		.byte	0x2
 8544 1482 0502     		.2byte	0x205
 8545 1484 25000000 		.4byte	0x25
 8546 1488 01       		.uleb128 0x1
 8547 1489 50       		.byte	0x50
 8548 148a 10       		.uleb128 0x10
 8549 148b 1C000000 		.4byte	.LVL440
 8550 148f 39140000 		.4byte	0x1439
 8551 1493 00       		.byte	0
 8552 1494 28       		.uleb128 0x28
 8553 1495 B40A0000 		.4byte	.LASF110
 8554 1499 02       		.byte	0x2
 8555 149a 0C02     		.2byte	0x20c
 8556 149c 25000000 		.4byte	0x25
 8557 14a0 00000000 		.4byte	.LFB99
 8558 14a4 48000000 		.4byte	.LFE99-.LFB99
 8559 14a8 01       		.uleb128 0x1
 8560 14a9 9C       		.byte	0x9c
 8561 14aa C6140000 		.4byte	0x14c6
 8562 14ae 14       		.uleb128 0x14
 8563 14af 5A0D0000 		.4byte	.LASF108
 8564 14b3 02       		.byte	0x2
 8565 14b4 0D02     		.2byte	0x20d
 8566 14b6 25000000 		.4byte	0x25
 8567 14ba 01       		.uleb128 0x1
 8568 14bb 50       		.byte	0x50
 8569 14bc 10       		.uleb128 0x10
 8570 14bd 1C000000 		.4byte	.LVL446
 8571 14c1 39140000 		.4byte	0x1439
 8572 14c5 00       		.byte	0
 8573 14c6 24       		.uleb128 0x24
 8574 14c7 51040000 		.4byte	.LASF111
 8575 14cb 02       		.byte	0x2
ARM GAS  C:\Users\FRANKL~1\AppData\Local\Temp\ccPy0viy.s 			page 185


 8576 14cc 1402     		.2byte	0x214
 8577 14ce 00000000 		.4byte	.LFB100
 8578 14d2 1C000000 		.4byte	.LFE100-.LFB100
 8579 14d6 01       		.uleb128 0x1
 8580 14d7 9C       		.byte	0x9c
 8581 14d8 25150000 		.4byte	0x1525
 8582 14dc 1A       		.uleb128 0x1a
 8583 14dd 08000000 		.4byte	.LVL450
 8584 14e1 51100000 		.4byte	0x1051
 8585 14e5 EF140000 		.4byte	0x14ef
 8586 14e9 19       		.uleb128 0x19
 8587 14ea 01       		.uleb128 0x1
 8588 14eb 50       		.byte	0x50
 8589 14ec 01       		.uleb128 0x1
 8590 14ed 30       		.byte	0x30
 8591 14ee 00       		.byte	0
 8592 14ef 1A       		.uleb128 0x1a
 8593 14f0 0E000000 		.4byte	.LVL451
 8594 14f4 10110000 		.4byte	0x1110
 8595 14f8 02150000 		.4byte	0x1502
 8596 14fc 19       		.uleb128 0x19
 8597 14fd 01       		.uleb128 0x1
 8598 14fe 50       		.byte	0x50
 8599 14ff 01       		.uleb128 0x1
 8600 1500 30       		.byte	0x30
 8601 1501 00       		.byte	0
 8602 1502 1A       		.uleb128 0x1a
 8603 1503 14000000 		.4byte	.LVL452
 8604 1507 4D350000 		.4byte	0x354d
 8605 150b 15150000 		.4byte	0x1515
 8606 150f 19       		.uleb128 0x19
 8607 1510 01       		.uleb128 0x1
 8608 1511 50       		.byte	0x50
 8609 1512 01       		.uleb128 0x1
 8610 1513 30       		.byte	0x30
 8611 1514 00       		.byte	0
 8612 1515 18       		.uleb128 0x18
 8613 1516 1A000000 		.4byte	.LVL453
 8614 151a 42350000 		.4byte	0x3542
 8615 151e 19       		.uleb128 0x19
 8616 151f 01       		.uleb128 0x1
 8617 1520 50       		.byte	0x50
 8618 1521 01       		.uleb128 0x1
 8619 1522 30       		.byte	0x30
 8620 1523 00       		.byte	0
 8621 1524 00       		.byte	0
 8622 1525 2A       		.uleb128 0x2a
 8623 1526 980D0000 		.4byte	.LASF112
 8624 152a 02       		.byte	0x2
 8625 152b 1C02     		.2byte	0x21c
 8626 152d 00000000 		.4byte	.LFB101
 8627 1531 D0000000 		.4byte	.LFE101-.LFB101
 8628 1535 01       		.uleb128 0x1
 8629 1536 9C       		.byte	0x9c
 8630 1537 8B160000 		.4byte	0x168b
 8631 153b 14       		.uleb128 0x14
 8632 153c 03090000 		.4byte	.LASF62
ARM GAS  C:\Users\FRANKL~1\AppData\Local\Temp\ccPy0viy.s 			page 186


 8633 1540 02       		.byte	0x2
 8634 1541 1D02     		.2byte	0x21d
 8635 1543 F1000000 		.4byte	0xf1
 8636 1547 02       		.uleb128 0x2
 8637 1548 91       		.byte	0x91
 8638 1549 5C       		.sleb128 -36
 8639 154a 14       		.uleb128 0x14
 8640 154b 64040000 		.4byte	.LASF63
 8641 154f 02       		.byte	0x2
 8642 1550 1E02     		.2byte	0x21e
 8643 1552 F1000000 		.4byte	0xf1
 8644 1556 02       		.uleb128 0x2
 8645 1557 91       		.byte	0x91
 8646 1558 58       		.sleb128 -40
 8647 1559 15       		.uleb128 0x15
 8648 155a 260A0000 		.4byte	.LASF113
 8649 155e 02       		.byte	0x2
 8650 155f 2202     		.2byte	0x222
 8651 1561 25000000 		.4byte	0x25
 8652 1565 CE0E0000 		.4byte	.LLST95
 8653 1569 14       		.uleb128 0x14
 8654 156a B3000000 		.4byte	.LASF114
 8655 156e 02       		.byte	0x2
 8656 156f 2C02     		.2byte	0x22c
 8657 1571 25000000 		.4byte	0x25
 8658 1575 02       		.uleb128 0x2
 8659 1576 91       		.byte	0x91
 8660 1577 54       		.sleb128 -44
 8661 1578 14       		.uleb128 0x14
 8662 1579 40000000 		.4byte	.LASF115
 8663 157d 02       		.byte	0x2
 8664 157e 2D02     		.2byte	0x22d
 8665 1580 25000000 		.4byte	0x25
 8666 1584 02       		.uleb128 0x2
 8667 1585 91       		.byte	0x91
 8668 1586 50       		.sleb128 -48
 8669 1587 14       		.uleb128 0x14
 8670 1588 E7090000 		.4byte	.LASF116
 8671 158c 02       		.byte	0x2
 8672 158d 2E02     		.2byte	0x22e
 8673 158f 25000000 		.4byte	0x25
 8674 1593 02       		.uleb128 0x2
 8675 1594 91       		.byte	0x91
 8676 1595 4C       		.sleb128 -52
 8677 1596 14       		.uleb128 0x14
 8678 1597 340C0000 		.4byte	.LASF117
 8679 159b 02       		.byte	0x2
 8680 159c 2F02     		.2byte	0x22f
 8681 159e 25000000 		.4byte	0x25
 8682 15a2 02       		.uleb128 0x2
 8683 15a3 91       		.byte	0x91
 8684 15a4 48       		.sleb128 -56
 8685 15a5 15       		.uleb128 0x15
 8686 15a6 A6050000 		.4byte	.LASF118
 8687 15aa 02       		.byte	0x2
 8688 15ab 3402     		.2byte	0x234
 8689 15ad 25000000 		.4byte	0x25
ARM GAS  C:\Users\FRANKL~1\AppData\Local\Temp\ccPy0viy.s 			page 187


 8690 15b1 EC0E0000 		.4byte	.LLST96
 8691 15b5 15       		.uleb128 0x15
 8692 15b6 AB050000 		.4byte	.LASF119
 8693 15ba 02       		.byte	0x2
 8694 15bb 3502     		.2byte	0x235
 8695 15bd 25000000 		.4byte	0x25
 8696 15c1 FF0E0000 		.4byte	.LLST97
 8697 15c5 1A       		.uleb128 0x1a
 8698 15c6 18000000 		.4byte	.LVL454
 8699 15ca 0D080000 		.4byte	0x80d
 8700 15ce E5150000 		.4byte	0x15e5
 8701 15d2 19       		.uleb128 0x19
 8702 15d3 01       		.uleb128 0x1
 8703 15d4 50       		.byte	0x50
 8704 15d5 02       		.uleb128 0x2
 8705 15d6 91       		.byte	0x91
 8706 15d7 5C       		.sleb128 -36
 8707 15d8 19       		.uleb128 0x19
 8708 15d9 01       		.uleb128 0x1
 8709 15da 51       		.byte	0x51
 8710 15db 02       		.uleb128 0x2
 8711 15dc 91       		.byte	0x91
 8712 15dd 58       		.sleb128 -40
 8713 15de 19       		.uleb128 0x19
 8714 15df 01       		.uleb128 0x1
 8715 15e0 52       		.byte	0x52
 8716 15e1 02       		.uleb128 0x2
 8717 15e2 08       		.byte	0x8
 8718 15e3 64       		.byte	0x64
 8719 15e4 00       		.byte	0
 8720 15e5 1A       		.uleb128 0x1a
 8721 15e6 42000000 		.4byte	.LVL460
 8722 15ea CE080000 		.4byte	0x8ce
 8723 15ee 04160000 		.4byte	0x1604
 8724 15f2 19       		.uleb128 0x19
 8725 15f3 01       		.uleb128 0x1
 8726 15f4 50       		.byte	0x50
 8727 15f5 02       		.uleb128 0x2
 8728 15f6 91       		.byte	0x91
 8729 15f7 54       		.sleb128 -44
 8730 15f8 19       		.uleb128 0x19
 8731 15f9 01       		.uleb128 0x1
 8732 15fa 51       		.byte	0x51
 8733 15fb 02       		.uleb128 0x2
 8734 15fc 91       		.byte	0x91
 8735 15fd 50       		.sleb128 -48
 8736 15fe 19       		.uleb128 0x19
 8737 15ff 01       		.uleb128 0x1
 8738 1600 52       		.byte	0x52
 8739 1601 01       		.uleb128 0x1
 8740 1602 32       		.byte	0x32
 8741 1603 00       		.byte	0
 8742 1604 1A       		.uleb128 0x1a
 8743 1605 4C000000 		.4byte	.LVL461
 8744 1609 8F090000 		.4byte	0x98f
 8745 160d 23160000 		.4byte	0x1623
 8746 1611 19       		.uleb128 0x19
ARM GAS  C:\Users\FRANKL~1\AppData\Local\Temp\ccPy0viy.s 			page 188


 8747 1612 01       		.uleb128 0x1
 8748 1613 50       		.byte	0x50
 8749 1614 02       		.uleb128 0x2
 8750 1615 91       		.byte	0x91
 8751 1616 4C       		.sleb128 -52
 8752 1617 19       		.uleb128 0x19
 8753 1618 01       		.uleb128 0x1
 8754 1619 51       		.byte	0x51
 8755 161a 02       		.uleb128 0x2
 8756 161b 91       		.byte	0x91
 8757 161c 48       		.sleb128 -56
 8758 161d 19       		.uleb128 0x19
 8759 161e 01       		.uleb128 0x1
 8760 161f 52       		.byte	0x52
 8761 1620 01       		.uleb128 0x1
 8762 1621 3A       		.byte	0x3a
 8763 1622 00       		.byte	0
 8764 1623 10       		.uleb128 0x10
 8765 1624 58000000 		.4byte	.LVL464
 8766 1628 62140000 		.4byte	0x1462
 8767 162c 10       		.uleb128 0x10
 8768 162d 5E000000 		.4byte	.LVL465
 8769 1631 94140000 		.4byte	0x1494
 8770 1635 1A       		.uleb128 0x1a
 8771 1636 A0000000 		.4byte	.LVL472
 8772 163a 9D340000 		.4byte	0x349d
 8773 163e 52160000 		.4byte	0x1652
 8774 1642 19       		.uleb128 0x19
 8775 1643 01       		.uleb128 0x1
 8776 1644 50       		.byte	0x50
 8777 1645 02       		.uleb128 0x2
 8778 1646 74       		.byte	0x74
 8779 1647 00       		.sleb128 0
 8780 1648 19       		.uleb128 0x19
 8781 1649 01       		.uleb128 0x1
 8782 164a 51       		.byte	0x51
 8783 164b 05       		.uleb128 0x5
 8784 164c 03       		.byte	0x3
 8785 164d B0000000 		.4byte	.LC12
 8786 1651 00       		.byte	0
 8787 1652 1A       		.uleb128 0x1a
 8788 1653 A6000000 		.4byte	.LVL473
 8789 1657 66340000 		.4byte	0x3466
 8790 165b 66160000 		.4byte	0x1666
 8791 165f 19       		.uleb128 0x19
 8792 1660 01       		.uleb128 0x1
 8793 1661 50       		.byte	0x50
 8794 1662 02       		.uleb128 0x2
 8795 1663 74       		.byte	0x74
 8796 1664 00       		.sleb128 0
 8797 1665 00       		.byte	0
 8798 1666 1A       		.uleb128 0x1a
 8799 1667 AE000000 		.4byte	.LVL474
 8800 166b 80030000 		.4byte	0x380
 8801 166f 7A160000 		.4byte	0x167a
 8802 1673 19       		.uleb128 0x19
 8803 1674 01       		.uleb128 0x1
ARM GAS  C:\Users\FRANKL~1\AppData\Local\Temp\ccPy0viy.s 			page 189


 8804 1675 50       		.byte	0x50
 8805 1676 02       		.uleb128 0x2
 8806 1677 74       		.byte	0x74
 8807 1678 00       		.sleb128 0
 8808 1679 00       		.byte	0
 8809 167a 18       		.uleb128 0x18
 8810 167b B4000000 		.4byte	.LVL475
 8811 167f 7C340000 		.4byte	0x347c
 8812 1683 19       		.uleb128 0x19
 8813 1684 01       		.uleb128 0x1
 8814 1685 50       		.byte	0x50
 8815 1686 02       		.uleb128 0x2
 8816 1687 74       		.byte	0x74
 8817 1688 00       		.sleb128 0
 8818 1689 00       		.byte	0
 8819 168a 00       		.byte	0
 8820 168b 12       		.uleb128 0x12
 8821 168c 830A0000 		.4byte	.LASF120
 8822 1690 02       		.byte	0x2
 8823 1691 3C02     		.2byte	0x23c
 8824 1693 00000000 		.4byte	.LFB102
 8825 1697 14000000 		.4byte	.LFE102-.LFB102
 8826 169b 01       		.uleb128 0x1
 8827 169c 9C       		.byte	0x9c
 8828 169d D1160000 		.4byte	0x16d1
 8829 16a1 29       		.uleb128 0x29
 8830 16a2 6E00     		.ascii	"n\000"
 8831 16a4 02       		.byte	0x2
 8832 16a5 3C02     		.2byte	0x23c
 8833 16a7 CD000000 		.4byte	0xcd
 8834 16ab 120F0000 		.4byte	.LLST98
 8835 16af 17       		.uleb128 0x17
 8836 16b0 04000000 		.4byte	.LBB44
 8837 16b4 0E000000 		.4byte	.LBE44-.LBB44
 8838 16b8 16       		.uleb128 0x16
 8839 16b9 6900     		.ascii	"i\000"
 8840 16bb 02       		.byte	0x2
 8841 16bc 3D02     		.2byte	0x23d
 8842 16be CD000000 		.4byte	0xcd
 8843 16c2 300F0000 		.4byte	.LLST99
 8844 16c6 10       		.uleb128 0x10
 8845 16c7 0C000000 		.4byte	.LVL480
 8846 16cb 25150000 		.4byte	0x1525
 8847 16cf 00       		.byte	0
 8848 16d0 00       		.byte	0
 8849 16d1 24       		.uleb128 0x24
 8850 16d2 A4010000 		.4byte	.LASF121
 8851 16d6 02       		.byte	0x2
 8852 16d7 4202     		.2byte	0x242
 8853 16d9 00000000 		.4byte	.LFB103
 8854 16dd 90000000 		.4byte	.LFE103-.LFB103
 8855 16e1 01       		.uleb128 0x1
 8856 16e2 9C       		.byte	0x9c
 8857 16e3 B7170000 		.4byte	0x17b7
 8858 16e7 15       		.uleb128 0x15
 8859 16e8 4B060000 		.4byte	.LASF122
 8860 16ec 02       		.byte	0x2
ARM GAS  C:\Users\FRANKL~1\AppData\Local\Temp\ccPy0viy.s 			page 190


 8861 16ed 4302     		.2byte	0x243
 8862 16ef B5000000 		.4byte	0xb5
 8863 16f3 4F0F0000 		.4byte	.LLST100
 8864 16f7 2B       		.uleb128 0x2b
 8865 16f8 4F070000 		.4byte	.LASF123
 8866 16fc 02       		.byte	0x2
 8867 16fd 4402     		.2byte	0x244
 8868 16ff D9000000 		.4byte	0xd9
 8869 1703 01       		.byte	0x1
 8870 1704 2B       		.uleb128 0x2b
 8871 1705 A0040000 		.4byte	.LASF124
 8872 1709 02       		.byte	0x2
 8873 170a 4502     		.2byte	0x245
 8874 170c B5000000 		.4byte	0xb5
 8875 1710 00       		.byte	0
 8876 1711 2B       		.uleb128 0x2b
 8877 1712 470C0000 		.4byte	.LASF125
 8878 1716 02       		.byte	0x2
 8879 1717 4602     		.2byte	0x246
 8880 1719 B5000000 		.4byte	0xb5
 8881 171d 00       		.byte	0
 8882 171e 15       		.uleb128 0x15
 8883 171f 94070000 		.4byte	.LASF126
 8884 1723 02       		.byte	0x2
 8885 1724 4702     		.2byte	0x247
 8886 1726 B5000000 		.4byte	0xb5
 8887 172a 840F0000 		.4byte	.LLST101
 8888 172e 15       		.uleb128 0x15
 8889 172f 4D050000 		.4byte	.LASF127
 8890 1733 02       		.byte	0x2
 8891 1734 4802     		.2byte	0x248
 8892 1736 B5000000 		.4byte	0xb5
 8893 173a AE0F0000 		.4byte	.LLST102
 8894 173e 2B       		.uleb128 0x2b
 8895 173f 1A060000 		.4byte	.LASF128
 8896 1743 02       		.byte	0x2
 8897 1744 4A02     		.2byte	0x24a
 8898 1746 D9000000 		.4byte	0xd9
 8899 174a 01       		.byte	0x1
 8900 174b 2B       		.uleb128 0x2b
 8901 174c 6F000000 		.4byte	.LASF129
 8902 1750 02       		.byte	0x2
 8903 1751 4B02     		.2byte	0x24b
 8904 1753 B5000000 		.4byte	0xb5
 8905 1757 00       		.byte	0
 8906 1758 2B       		.uleb128 0x2b
 8907 1759 82070000 		.4byte	.LASF130
 8908 175d 02       		.byte	0x2
 8909 175e 4C02     		.2byte	0x24c
 8910 1760 B5000000 		.4byte	0xb5
 8911 1764 00       		.byte	0
 8912 1765 15       		.uleb128 0x15
 8913 1766 FD060000 		.4byte	.LASF131
 8914 176a 02       		.byte	0x2
 8915 176b 4D02     		.2byte	0x24d
 8916 176d B5000000 		.4byte	0xb5
 8917 1771 D80F0000 		.4byte	.LLST103
ARM GAS  C:\Users\FRANKL~1\AppData\Local\Temp\ccPy0viy.s 			page 191


 8918 1775 15       		.uleb128 0x15
 8919 1776 BB010000 		.4byte	.LASF132
 8920 177a 02       		.byte	0x2
 8921 177b 4E02     		.2byte	0x24e
 8922 177d B5000000 		.4byte	0xb5
 8923 1781 02100000 		.4byte	.LLST104
 8924 1785 1A       		.uleb128 0x1a
 8925 1786 52000000 		.4byte	.LVL489
 8926 178a CF110000 		.4byte	0x11cf
 8927 178e 99170000 		.4byte	0x1799
 8928 1792 19       		.uleb128 0x19
 8929 1793 01       		.uleb128 0x1
 8930 1794 50       		.byte	0x50
 8931 1795 02       		.uleb128 0x2
 8932 1796 75       		.byte	0x75
 8933 1797 00       		.sleb128 0
 8934 1798 00       		.byte	0
 8935 1799 1A       		.uleb128 0x1a
 8936 179a 58000000 		.4byte	.LVL490
 8937 179e 10110000 		.4byte	0x1110
 8938 17a2 AD170000 		.4byte	0x17ad
 8939 17a6 19       		.uleb128 0x19
 8940 17a7 01       		.uleb128 0x1
 8941 17a8 50       		.byte	0x50
 8942 17a9 02       		.uleb128 0x2
 8943 17aa 76       		.byte	0x76
 8944 17ab 00       		.sleb128 0
 8945 17ac 00       		.byte	0
 8946 17ad 10       		.uleb128 0x10
 8947 17ae 5C000000 		.4byte	.LVL491
 8948 17b2 25150000 		.4byte	0x1525
 8949 17b6 00       		.byte	0
 8950 17b7 26       		.uleb128 0x26
 8951 17b8 17040000 		.4byte	.LASF133
 8952 17bc 02       		.byte	0x2
 8953 17bd 6A02     		.2byte	0x26a
 8954 17bf 00000000 		.4byte	.LFB104
 8955 17c3 80010000 		.4byte	.LFE104-.LFB104
 8956 17c7 01       		.uleb128 0x1
 8957 17c8 9C       		.byte	0x9c
 8958 17c9 EB190000 		.4byte	0x19eb
 8959 17cd 25       		.uleb128 0x25
 8960 17ce 5F040000 		.4byte	.LASF134
 8961 17d2 02       		.byte	0x2
 8962 17d3 6A02     		.2byte	0x26a
 8963 17d5 B5000000 		.4byte	0xb5
 8964 17d9 2C100000 		.4byte	.LLST105
 8965 17dd 2C       		.uleb128 0x2c
 8966 17de 410C0000 		.4byte	.LASF137
 8967 17e2 02       		.byte	0x2
 8968 17e3 7202     		.2byte	0x272
 8969 17e5 D9000000 		.4byte	0xd9
 8970 17e9 1D       		.uleb128 0x1d
 8971 17ea C0000000 		.4byte	.Ldebug_ranges0+0xc0
 8972 17ee D1190000 		.4byte	0x19d1
 8973 17f2 16       		.uleb128 0x16
 8974 17f3 6C00     		.ascii	"l\000"
ARM GAS  C:\Users\FRANKL~1\AppData\Local\Temp\ccPy0viy.s 			page 192


 8975 17f5 02       		.byte	0x2
 8976 17f6 7402     		.2byte	0x274
 8977 17f8 B5000000 		.4byte	0xb5
 8978 17fc 66100000 		.4byte	.LLST106
 8979 1800 22       		.uleb128 0x22
 8980 1801 D8000000 		.4byte	.Ldebug_ranges0+0xd8
 8981 1805 15       		.uleb128 0x15
 8982 1806 7E000000 		.4byte	.LASF135
 8983 180a 02       		.byte	0x2
 8984 180b 7502     		.2byte	0x275
 8985 180d D9000000 		.4byte	0xd9
 8986 1811 86100000 		.4byte	.LLST107
 8987 1815 15       		.uleb128 0x15
 8988 1816 9C000000 		.4byte	.LASF91
 8989 181a 02       		.byte	0x2
 8990 181b 7602     		.2byte	0x276
 8991 181d B5000000 		.4byte	0xb5
 8992 1821 A5100000 		.4byte	.LLST108
 8993 1825 15       		.uleb128 0x15
 8994 1826 9D070000 		.4byte	.LASF92
 8995 182a 02       		.byte	0x2
 8996 182b 7B02     		.2byte	0x27b
 8997 182d B5000000 		.4byte	0xb5
 8998 1831 CF100000 		.4byte	.LLST109
 8999 1835 22       		.uleb128 0x22
 9000 1836 F0000000 		.4byte	.Ldebug_ranges0+0xf0
 9001 183a 16       		.uleb128 0x16
 9002 183b 6900     		.ascii	"i\000"
 9003 183d 02       		.byte	0x2
 9004 183e 8302     		.2byte	0x283
 9005 1840 B5000000 		.4byte	0xb5
 9006 1844 FA100000 		.4byte	.LLST110
 9007 1848 22       		.uleb128 0x22
 9008 1849 08010000 		.4byte	.Ldebug_ranges0+0x108
 9009 184d 16       		.uleb128 0x16
 9010 184e 6A00     		.ascii	"j\000"
 9011 1850 02       		.byte	0x2
 9012 1851 8402     		.2byte	0x284
 9013 1853 B5000000 		.4byte	0xb5
 9014 1857 23110000 		.4byte	.LLST111
 9015 185b 17       		.uleb128 0x17
 9016 185c 54000000 		.4byte	.LBB49
 9017 1860 DE000000 		.4byte	.LBE49-.LBB49
 9018 1864 14       		.uleb128 0x14
 9019 1865 03090000 		.4byte	.LASF62
 9020 1869 02       		.byte	0x2
 9021 186a 8502     		.2byte	0x285
 9022 186c F1000000 		.4byte	0xf1
 9023 1870 02       		.uleb128 0x2
 9024 1871 91       		.byte	0x91
 9025 1872 50       		.sleb128 -48
 9026 1873 14       		.uleb128 0x14
 9027 1874 64040000 		.4byte	.LASF63
 9028 1878 02       		.byte	0x2
 9029 1879 8602     		.2byte	0x286
 9030 187b F1000000 		.4byte	0xf1
 9031 187f 02       		.uleb128 0x2
ARM GAS  C:\Users\FRANKL~1\AppData\Local\Temp\ccPy0viy.s 			page 193


 9032 1880 91       		.byte	0x91
 9033 1881 54       		.sleb128 -44
 9034 1882 15       		.uleb128 0x15
 9035 1883 260A0000 		.4byte	.LASF113
 9036 1887 02       		.byte	0x2
 9037 1888 8D02     		.2byte	0x28d
 9038 188a 25000000 		.4byte	0x25
 9039 188e 4C110000 		.4byte	.LLST112
 9040 1892 15       		.uleb128 0x15
 9041 1893 A6050000 		.4byte	.LASF118
 9042 1897 02       		.byte	0x2
 9043 1898 9402     		.2byte	0x294
 9044 189a 25000000 		.4byte	0x25
 9045 189e 6A110000 		.4byte	.LLST113
 9046 18a2 15       		.uleb128 0x15
 9047 18a3 AB050000 		.4byte	.LASF119
 9048 18a7 02       		.byte	0x2
 9049 18a8 9502     		.2byte	0x295
 9050 18aa 25000000 		.4byte	0x25
 9051 18ae 88110000 		.4byte	.LLST114
 9052 18b2 1A       		.uleb128 0x1a
 9053 18b3 68000000 		.4byte	.LVL510
 9054 18b7 CF110000 		.4byte	0x11cf
 9055 18bb C7180000 		.4byte	0x18c7
 9056 18bf 19       		.uleb128 0x19
 9057 18c0 01       		.uleb128 0x1
 9058 18c1 50       		.byte	0x50
 9059 18c2 03       		.uleb128 0x3
 9060 18c3 78       		.byte	0x78
 9061 18c4 00       		.sleb128 0
 9062 18c5 20       		.byte	0x20
 9063 18c6 00       		.byte	0
 9064 18c7 1A       		.uleb128 0x1a
 9065 18c8 6E000000 		.4byte	.LVL511
 9066 18cc 10110000 		.4byte	0x1110
 9067 18d0 DB180000 		.4byte	0x18db
 9068 18d4 19       		.uleb128 0x19
 9069 18d5 01       		.uleb128 0x1
 9070 18d6 50       		.byte	0x50
 9071 18d7 02       		.uleb128 0x2
 9072 18d8 78       		.byte	0x78
 9073 18d9 00       		.sleb128 0
 9074 18da 00       		.byte	0
 9075 18db 1A       		.uleb128 0x1a
 9076 18dc 78000000 		.4byte	.LVL512
 9077 18e0 0D080000 		.4byte	0x80d
 9078 18e4 FB180000 		.4byte	0x18fb
 9079 18e8 19       		.uleb128 0x19
 9080 18e9 01       		.uleb128 0x1
 9081 18ea 50       		.byte	0x50
 9082 18eb 02       		.uleb128 0x2
 9083 18ec 91       		.byte	0x91
 9084 18ed 50       		.sleb128 -48
 9085 18ee 19       		.uleb128 0x19
 9086 18ef 01       		.uleb128 0x1
 9087 18f0 51       		.byte	0x51
 9088 18f1 02       		.uleb128 0x2
ARM GAS  C:\Users\FRANKL~1\AppData\Local\Temp\ccPy0viy.s 			page 194


 9089 18f2 91       		.byte	0x91
 9090 18f3 54       		.sleb128 -44
 9091 18f4 19       		.uleb128 0x19
 9092 18f5 01       		.uleb128 0x1
 9093 18f6 52       		.byte	0x52
 9094 18f7 02       		.uleb128 0x2
 9095 18f8 08       		.byte	0x8
 9096 18f9 21       		.byte	0x21
 9097 18fa 00       		.byte	0
 9098 18fb 10       		.uleb128 0x10
 9099 18fc 92000000 		.4byte	.LVL517
 9100 1900 EA340000 		.4byte	0x34ea
 9101 1904 10       		.uleb128 0x10
 9102 1905 96000000 		.4byte	.LVL518
 9103 1909 16350000 		.4byte	0x3516
 9104 190d 1A       		.uleb128 0x1a
 9105 190e 9C000000 		.4byte	.LVL519
 9106 1912 F5340000 		.4byte	0x34f5
 9107 1916 20190000 		.4byte	0x1920
 9108 191a 19       		.uleb128 0x19
 9109 191b 01       		.uleb128 0x1
 9110 191c 50       		.byte	0x50
 9111 191d 01       		.uleb128 0x1
 9112 191e 31       		.byte	0x31
 9113 191f 00       		.byte	0
 9114 1920 1A       		.uleb128 0x1a
 9115 1921 A6000000 		.4byte	.LVL520
 9116 1925 21350000 		.4byte	0x3521
 9117 1929 33190000 		.4byte	0x1933
 9118 192d 19       		.uleb128 0x19
 9119 192e 01       		.uleb128 0x1
 9120 192f 50       		.byte	0x50
 9121 1930 01       		.uleb128 0x1
 9122 1931 31       		.byte	0x31
 9123 1932 00       		.byte	0
 9124 1933 10       		.uleb128 0x10
 9125 1934 AE000000 		.4byte	.LVL521
 9126 1938 00350000 		.4byte	0x3500
 9127 193c 10       		.uleb128 0x10
 9128 193d B2000000 		.4byte	.LVL522
 9129 1941 0B350000 		.4byte	0x350b
 9130 1945 10       		.uleb128 0x10
 9131 1946 B8000000 		.4byte	.LVL524
 9132 194a 2C350000 		.4byte	0x352c
 9133 194e 10       		.uleb128 0x10
 9134 194f BC000000 		.4byte	.LVL525
 9135 1953 37350000 		.4byte	0x3537
 9136 1957 10       		.uleb128 0x10
 9137 1958 C2000000 		.4byte	.LVL527
 9138 195c 62140000 		.4byte	0x1462
 9139 1960 10       		.uleb128 0x10
 9140 1961 C8000000 		.4byte	.LVL528
 9141 1965 94140000 		.4byte	0x1494
 9142 1969 1A       		.uleb128 0x1a
 9143 196a 0A010000 		.4byte	.LVL535
 9144 196e 9D340000 		.4byte	0x349d
 9145 1972 94190000 		.4byte	0x1994
ARM GAS  C:\Users\FRANKL~1\AppData\Local\Temp\ccPy0viy.s 			page 195


 9146 1976 19       		.uleb128 0x19
 9147 1977 01       		.uleb128 0x1
 9148 1978 50       		.byte	0x50
 9149 1979 02       		.uleb128 0x2
 9150 197a 75       		.byte	0x75
 9151 197b 00       		.sleb128 0
 9152 197c 19       		.uleb128 0x19
 9153 197d 01       		.uleb128 0x1
 9154 197e 51       		.byte	0x51
 9155 197f 05       		.uleb128 0x5
 9156 1980 03       		.byte	0x3
 9157 1981 B0000000 		.4byte	.LC12
 9158 1985 19       		.uleb128 0x19
 9159 1986 06       		.uleb128 0x6
 9160 1987 52       		.byte	0x52
 9161 1988 93       		.byte	0x93
 9162 1989 04       		.uleb128 0x4
 9163 198a 53       		.byte	0x53
 9164 198b 93       		.byte	0x93
 9165 198c 04       		.uleb128 0x4
 9166 198d 05       		.uleb128 0x5
 9167 198e 91       		.byte	0x91
 9168 198f 40       		.sleb128 -64
 9169 1990 F6       		.byte	0xf6
 9170 1991 08       		.byte	0x8
 9171 1992 2C       		.uleb128 0x2c
 9172 1993 00       		.byte	0
 9173 1994 1A       		.uleb128 0x1a
 9174 1995 10010000 		.4byte	.LVL536
 9175 1999 66340000 		.4byte	0x3466
 9176 199d A8190000 		.4byte	0x19a8
 9177 19a1 19       		.uleb128 0x19
 9178 19a2 01       		.uleb128 0x1
 9179 19a3 50       		.byte	0x50
 9180 19a4 02       		.uleb128 0x2
 9181 19a5 75       		.byte	0x75
 9182 19a6 00       		.sleb128 0
 9183 19a7 00       		.byte	0
 9184 19a8 1A       		.uleb128 0x1a
 9185 19a9 18010000 		.4byte	.LVL537
 9186 19ad 80030000 		.4byte	0x380
 9187 19b1 BC190000 		.4byte	0x19bc
 9188 19b5 19       		.uleb128 0x19
 9189 19b6 01       		.uleb128 0x1
 9190 19b7 50       		.byte	0x50
 9191 19b8 02       		.uleb128 0x2
 9192 19b9 75       		.byte	0x75
 9193 19ba 00       		.sleb128 0
 9194 19bb 00       		.byte	0
 9195 19bc 18       		.uleb128 0x18
 9196 19bd 1E010000 		.4byte	.LVL538
 9197 19c1 7C340000 		.4byte	0x347c
 9198 19c5 19       		.uleb128 0x19
 9199 19c6 01       		.uleb128 0x1
 9200 19c7 50       		.byte	0x50
 9201 19c8 02       		.uleb128 0x2
 9202 19c9 75       		.byte	0x75
ARM GAS  C:\Users\FRANKL~1\AppData\Local\Temp\ccPy0viy.s 			page 196


 9203 19ca 00       		.sleb128 0
 9204 19cb 00       		.byte	0
 9205 19cc 00       		.byte	0
 9206 19cd 00       		.byte	0
 9207 19ce 00       		.byte	0
 9208 19cf 00       		.byte	0
 9209 19d0 00       		.byte	0
 9210 19d1 10       		.uleb128 0x10
 9211 19d2 1C000000 		.4byte	.LVL501
 9212 19d6 CF110000 		.4byte	0x11cf
 9213 19da 18       		.uleb128 0x18
 9214 19db 28000000 		.4byte	.LVL504
 9215 19df CF110000 		.4byte	0x11cf
 9216 19e3 19       		.uleb128 0x19
 9217 19e4 01       		.uleb128 0x1
 9218 19e5 50       		.byte	0x50
 9219 19e6 02       		.uleb128 0x2
 9220 19e7 09       		.byte	0x9
 9221 19e8 FE       		.byte	0xfe
 9222 19e9 00       		.byte	0
 9223 19ea 00       		.byte	0
 9224 19eb 26       		.uleb128 0x26
 9225 19ec F3050000 		.4byte	.LASF136
 9226 19f0 02       		.byte	0x2
 9227 19f1 A202     		.2byte	0x2a2
 9228 19f3 00000000 		.4byte	.LFB105
 9229 19f7 64010000 		.4byte	.LFE105-.LFB105
 9230 19fb 01       		.uleb128 0x1
 9231 19fc 9C       		.byte	0x9c
 9232 19fd 231C0000 		.4byte	0x1c23
 9233 1a01 25       		.uleb128 0x25
 9234 1a02 5F040000 		.4byte	.LASF134
 9235 1a06 02       		.byte	0x2
 9236 1a07 A202     		.2byte	0x2a2
 9237 1a09 B5000000 		.4byte	0xb5
 9238 1a0d A6110000 		.4byte	.LLST115
 9239 1a11 2B       		.uleb128 0x2b
 9240 1a12 410C0000 		.4byte	.LASF137
 9241 1a16 02       		.byte	0x2
 9242 1a17 A502     		.2byte	0x2a5
 9243 1a19 D9000000 		.4byte	0xd9
 9244 1a1d 10       		.byte	0x10
 9245 1a1e 13       		.uleb128 0x13
 9246 1a1f 0E000000 		.4byte	.LBB54
 9247 1a23 38010000 		.4byte	.LBE54-.LBB54
 9248 1a27 121C0000 		.4byte	0x1c12
 9249 1a2b 16       		.uleb128 0x16
 9250 1a2c 6C00     		.ascii	"l\000"
 9251 1a2e 02       		.byte	0x2
 9252 1a2f A702     		.2byte	0x2a7
 9253 1a31 B5000000 		.4byte	0xb5
 9254 1a35 C7110000 		.4byte	.LLST116
 9255 1a39 17       		.uleb128 0x17
 9256 1a3a 14000000 		.4byte	.LBB55
 9257 1a3e 20010000 		.4byte	.LBE55-.LBB55
 9258 1a42 15       		.uleb128 0x15
 9259 1a43 7E000000 		.4byte	.LASF135
ARM GAS  C:\Users\FRANKL~1\AppData\Local\Temp\ccPy0viy.s 			page 197


 9260 1a47 02       		.byte	0x2
 9261 1a48 A802     		.2byte	0x2a8
 9262 1a4a D9000000 		.4byte	0xd9
 9263 1a4e F3110000 		.4byte	.LLST117
 9264 1a52 15       		.uleb128 0x15
 9265 1a53 9C000000 		.4byte	.LASF91
 9266 1a57 02       		.byte	0x2
 9267 1a58 A902     		.2byte	0x2a9
 9268 1a5a B5000000 		.4byte	0xb5
 9269 1a5e 12120000 		.4byte	.LLST118
 9270 1a62 15       		.uleb128 0x15
 9271 1a63 9D070000 		.4byte	.LASF92
 9272 1a67 02       		.byte	0x2
 9273 1a68 AA02     		.2byte	0x2aa
 9274 1a6a B5000000 		.4byte	0xb5
 9275 1a6e 3C120000 		.4byte	.LLST119
 9276 1a72 17       		.uleb128 0x17
 9277 1a73 3C000000 		.4byte	.LBB56
 9278 1a77 F8000000 		.4byte	.LBE56-.LBB56
 9279 1a7b 16       		.uleb128 0x16
 9280 1a7c 6900     		.ascii	"i\000"
 9281 1a7e 02       		.byte	0x2
 9282 1a7f B202     		.2byte	0x2b2
 9283 1a81 B5000000 		.4byte	0xb5
 9284 1a85 67120000 		.4byte	.LLST120
 9285 1a89 22       		.uleb128 0x22
 9286 1a8a 20010000 		.4byte	.Ldebug_ranges0+0x120
 9287 1a8e 16       		.uleb128 0x16
 9288 1a8f 6A00     		.ascii	"j\000"
 9289 1a91 02       		.byte	0x2
 9290 1a92 B302     		.2byte	0x2b3
 9291 1a94 B5000000 		.4byte	0xb5
 9292 1a98 90120000 		.4byte	.LLST121
 9293 1a9c 17       		.uleb128 0x17
 9294 1a9d 3E000000 		.4byte	.LBB58
 9295 1aa1 DE000000 		.4byte	.LBE58-.LBB58
 9296 1aa5 14       		.uleb128 0x14
 9297 1aa6 03090000 		.4byte	.LASF62
 9298 1aaa 02       		.byte	0x2
 9299 1aab B402     		.2byte	0x2b4
 9300 1aad F1000000 		.4byte	0xf1
 9301 1ab1 02       		.uleb128 0x2
 9302 1ab2 91       		.byte	0x91
 9303 1ab3 50       		.sleb128 -48
 9304 1ab4 14       		.uleb128 0x14
 9305 1ab5 64040000 		.4byte	.LASF63
 9306 1ab9 02       		.byte	0x2
 9307 1aba B502     		.2byte	0x2b5
 9308 1abc F1000000 		.4byte	0xf1
 9309 1ac0 02       		.uleb128 0x2
 9310 1ac1 91       		.byte	0x91
 9311 1ac2 54       		.sleb128 -44
 9312 1ac3 15       		.uleb128 0x15
 9313 1ac4 92020000 		.4byte	.LASF138
 9314 1ac8 02       		.byte	0x2
 9315 1ac9 BC02     		.2byte	0x2bc
 9316 1acb 25000000 		.4byte	0x25
ARM GAS  C:\Users\FRANKL~1\AppData\Local\Temp\ccPy0viy.s 			page 198


 9317 1acf B9120000 		.4byte	.LLST122
 9318 1ad3 15       		.uleb128 0x15
 9319 1ad4 A6050000 		.4byte	.LASF118
 9320 1ad8 02       		.byte	0x2
 9321 1ad9 C302     		.2byte	0x2c3
 9322 1adb 25000000 		.4byte	0x25
 9323 1adf D7120000 		.4byte	.LLST123
 9324 1ae3 15       		.uleb128 0x15
 9325 1ae4 AB050000 		.4byte	.LASF119
 9326 1ae8 02       		.byte	0x2
 9327 1ae9 C402     		.2byte	0x2c4
 9328 1aeb 25000000 		.4byte	0x25
 9329 1aef F5120000 		.4byte	.LLST124
 9330 1af3 1A       		.uleb128 0x1a
 9331 1af4 52000000 		.4byte	.LVL554
 9332 1af8 CF110000 		.4byte	0x11cf
 9333 1afc 081B0000 		.4byte	0x1b08
 9334 1b00 19       		.uleb128 0x19
 9335 1b01 01       		.uleb128 0x1
 9336 1b02 50       		.byte	0x50
 9337 1b03 03       		.uleb128 0x3
 9338 1b04 78       		.byte	0x78
 9339 1b05 00       		.sleb128 0
 9340 1b06 20       		.byte	0x20
 9341 1b07 00       		.byte	0
 9342 1b08 1A       		.uleb128 0x1a
 9343 1b09 58000000 		.4byte	.LVL555
 9344 1b0d 10110000 		.4byte	0x1110
 9345 1b11 1C1B0000 		.4byte	0x1b1c
 9346 1b15 19       		.uleb128 0x19
 9347 1b16 01       		.uleb128 0x1
 9348 1b17 50       		.byte	0x50
 9349 1b18 02       		.uleb128 0x2
 9350 1b19 78       		.byte	0x78
 9351 1b1a 00       		.sleb128 0
 9352 1b1b 00       		.byte	0
 9353 1b1c 1A       		.uleb128 0x1a
 9354 1b1d 62000000 		.4byte	.LVL556
 9355 1b21 0D080000 		.4byte	0x80d
 9356 1b25 3C1B0000 		.4byte	0x1b3c
 9357 1b29 19       		.uleb128 0x19
 9358 1b2a 01       		.uleb128 0x1
 9359 1b2b 50       		.byte	0x50
 9360 1b2c 02       		.uleb128 0x2
 9361 1b2d 91       		.byte	0x91
 9362 1b2e 50       		.sleb128 -48
 9363 1b2f 19       		.uleb128 0x19
 9364 1b30 01       		.uleb128 0x1
 9365 1b31 51       		.byte	0x51
 9366 1b32 02       		.uleb128 0x2
 9367 1b33 91       		.byte	0x91
 9368 1b34 54       		.sleb128 -44
 9369 1b35 19       		.uleb128 0x19
 9370 1b36 01       		.uleb128 0x1
 9371 1b37 52       		.byte	0x52
 9372 1b38 02       		.uleb128 0x2
 9373 1b39 08       		.byte	0x8
ARM GAS  C:\Users\FRANKL~1\AppData\Local\Temp\ccPy0viy.s 			page 199


 9374 1b3a 21       		.byte	0x21
 9375 1b3b 00       		.byte	0
 9376 1b3c 10       		.uleb128 0x10
 9377 1b3d 7C000000 		.4byte	.LVL561
 9378 1b41 EA340000 		.4byte	0x34ea
 9379 1b45 10       		.uleb128 0x10
 9380 1b46 80000000 		.4byte	.LVL562
 9381 1b4a 16350000 		.4byte	0x3516
 9382 1b4e 1A       		.uleb128 0x1a
 9383 1b4f 86000000 		.4byte	.LVL563
 9384 1b53 F5340000 		.4byte	0x34f5
 9385 1b57 611B0000 		.4byte	0x1b61
 9386 1b5b 19       		.uleb128 0x19
 9387 1b5c 01       		.uleb128 0x1
 9388 1b5d 50       		.byte	0x50
 9389 1b5e 01       		.uleb128 0x1
 9390 1b5f 31       		.byte	0x31
 9391 1b60 00       		.byte	0
 9392 1b61 1A       		.uleb128 0x1a
 9393 1b62 90000000 		.4byte	.LVL564
 9394 1b66 21350000 		.4byte	0x3521
 9395 1b6a 741B0000 		.4byte	0x1b74
 9396 1b6e 19       		.uleb128 0x19
 9397 1b6f 01       		.uleb128 0x1
 9398 1b70 50       		.byte	0x50
 9399 1b71 01       		.uleb128 0x1
 9400 1b72 31       		.byte	0x31
 9401 1b73 00       		.byte	0
 9402 1b74 10       		.uleb128 0x10
 9403 1b75 98000000 		.4byte	.LVL565
 9404 1b79 00350000 		.4byte	0x3500
 9405 1b7d 10       		.uleb128 0x10
 9406 1b7e 9C000000 		.4byte	.LVL566
 9407 1b82 0B350000 		.4byte	0x350b
 9408 1b86 10       		.uleb128 0x10
 9409 1b87 A2000000 		.4byte	.LVL568
 9410 1b8b 2C350000 		.4byte	0x352c
 9411 1b8f 10       		.uleb128 0x10
 9412 1b90 A6000000 		.4byte	.LVL569
 9413 1b94 37350000 		.4byte	0x3537
 9414 1b98 10       		.uleb128 0x10
 9415 1b99 AC000000 		.4byte	.LVL571
 9416 1b9d 62140000 		.4byte	0x1462
 9417 1ba1 10       		.uleb128 0x10
 9418 1ba2 B2000000 		.4byte	.LVL572
 9419 1ba6 94140000 		.4byte	0x1494
 9420 1baa 1A       		.uleb128 0x1a
 9421 1bab F4000000 		.4byte	.LVL579
 9422 1baf 9D340000 		.4byte	0x349d
 9423 1bb3 D51B0000 		.4byte	0x1bd5
 9424 1bb7 19       		.uleb128 0x19
 9425 1bb8 01       		.uleb128 0x1
 9426 1bb9 50       		.byte	0x50
 9427 1bba 02       		.uleb128 0x2
 9428 1bbb 75       		.byte	0x75
 9429 1bbc 00       		.sleb128 0
 9430 1bbd 19       		.uleb128 0x19
ARM GAS  C:\Users\FRANKL~1\AppData\Local\Temp\ccPy0viy.s 			page 200


 9431 1bbe 01       		.uleb128 0x1
 9432 1bbf 51       		.byte	0x51
 9433 1bc0 05       		.uleb128 0x5
 9434 1bc1 03       		.byte	0x3
 9435 1bc2 B0000000 		.4byte	.LC12
 9436 1bc6 19       		.uleb128 0x19
 9437 1bc7 06       		.uleb128 0x6
 9438 1bc8 52       		.byte	0x52
 9439 1bc9 93       		.byte	0x93
 9440 1bca 04       		.uleb128 0x4
 9441 1bcb 53       		.byte	0x53
 9442 1bcc 93       		.byte	0x93
 9443 1bcd 04       		.uleb128 0x4
 9444 1bce 05       		.uleb128 0x5
 9445 1bcf 91       		.byte	0x91
 9446 1bd0 40       		.sleb128 -64
 9447 1bd1 F6       		.byte	0xf6
 9448 1bd2 08       		.byte	0x8
 9449 1bd3 2C       		.uleb128 0x2c
 9450 1bd4 00       		.byte	0
 9451 1bd5 1A       		.uleb128 0x1a
 9452 1bd6 FA000000 		.4byte	.LVL580
 9453 1bda 66340000 		.4byte	0x3466
 9454 1bde E91B0000 		.4byte	0x1be9
 9455 1be2 19       		.uleb128 0x19
 9456 1be3 01       		.uleb128 0x1
 9457 1be4 50       		.byte	0x50
 9458 1be5 02       		.uleb128 0x2
 9459 1be6 75       		.byte	0x75
 9460 1be7 00       		.sleb128 0
 9461 1be8 00       		.byte	0
 9462 1be9 1A       		.uleb128 0x1a
 9463 1bea 02010000 		.4byte	.LVL581
 9464 1bee 80030000 		.4byte	0x380
 9465 1bf2 FD1B0000 		.4byte	0x1bfd
 9466 1bf6 19       		.uleb128 0x19
 9467 1bf7 01       		.uleb128 0x1
 9468 1bf8 50       		.byte	0x50
 9469 1bf9 02       		.uleb128 0x2
 9470 1bfa 75       		.byte	0x75
 9471 1bfb 00       		.sleb128 0
 9472 1bfc 00       		.byte	0
 9473 1bfd 18       		.uleb128 0x18
 9474 1bfe 08010000 		.4byte	.LVL582
 9475 1c02 7C340000 		.4byte	0x347c
 9476 1c06 19       		.uleb128 0x19
 9477 1c07 01       		.uleb128 0x1
 9478 1c08 50       		.byte	0x50
 9479 1c09 02       		.uleb128 0x2
 9480 1c0a 75       		.byte	0x75
 9481 1c0b 00       		.sleb128 0
 9482 1c0c 00       		.byte	0
 9483 1c0d 00       		.byte	0
 9484 1c0e 00       		.byte	0
 9485 1c0f 00       		.byte	0
 9486 1c10 00       		.byte	0
 9487 1c11 00       		.byte	0
ARM GAS  C:\Users\FRANKL~1\AppData\Local\Temp\ccPy0viy.s 			page 201


 9488 1c12 18       		.uleb128 0x18
 9489 1c13 0E000000 		.4byte	.LVL548
 9490 1c17 CF110000 		.4byte	0x11cf
 9491 1c1b 19       		.uleb128 0x19
 9492 1c1c 01       		.uleb128 0x1
 9493 1c1d 50       		.byte	0x50
 9494 1c1e 02       		.uleb128 0x2
 9495 1c1f 09       		.byte	0x9
 9496 1c20 FE       		.byte	0xfe
 9497 1c21 00       		.byte	0
 9498 1c22 00       		.byte	0
 9499 1c23 12       		.uleb128 0x12
 9500 1c24 26050000 		.4byte	.LASF139
 9501 1c28 02       		.byte	0x2
 9502 1c29 D102     		.2byte	0x2d1
 9503 1c2b 00000000 		.4byte	.LFB106
 9504 1c2f 90000000 		.4byte	.LFE106-.LFB106
 9505 1c33 01       		.uleb128 0x1
 9506 1c34 9C       		.byte	0x9c
 9507 1c35 8E1D0000 		.4byte	0x1d8e
 9508 1c39 25       		.uleb128 0x25
 9509 1c3a 59000000 		.4byte	.LASF140
 9510 1c3e 02       		.byte	0x2
 9511 1c3f D102     		.2byte	0x2d1
 9512 1c41 B5000000 		.4byte	0xb5
 9513 1c45 13130000 		.4byte	.LLST125
 9514 1c49 25       		.uleb128 0x25
 9515 1c4a 5F040000 		.4byte	.LASF134
 9516 1c4e 02       		.byte	0x2
 9517 1c4f D102     		.2byte	0x2d1
 9518 1c51 B5000000 		.4byte	0xb5
 9519 1c55 34130000 		.4byte	.LLST126
 9520 1c59 17       		.uleb128 0x17
 9521 1c5a 08000000 		.4byte	.LBB60
 9522 1c5e 88000000 		.4byte	.LBE60-.LBB60
 9523 1c62 15       		.uleb128 0x15
 9524 1c63 C7010000 		.4byte	.LASF141
 9525 1c67 02       		.byte	0x2
 9526 1c68 D202     		.2byte	0x2d2
 9527 1c6a B5000000 		.4byte	0xb5
 9528 1c6e 55130000 		.4byte	.LLST127
 9529 1c72 17       		.uleb128 0x17
 9530 1c73 0C000000 		.4byte	.LBB61
 9531 1c77 6E000000 		.4byte	.LBE61-.LBB61
 9532 1c7b 15       		.uleb128 0x15
 9533 1c7c 46070000 		.4byte	.LASF142
 9534 1c80 02       		.byte	0x2
 9535 1c81 D302     		.2byte	0x2d3
 9536 1c83 B5000000 		.4byte	0xb5
 9537 1c87 74130000 		.4byte	.LLST128
 9538 1c8b 15       		.uleb128 0x15
 9539 1c8c D0040000 		.4byte	.LASF143
 9540 1c90 02       		.byte	0x2
 9541 1c91 D402     		.2byte	0x2d4
 9542 1c93 B5000000 		.4byte	0xb5
 9543 1c97 87130000 		.4byte	.LLST129
 9544 1c9b 15       		.uleb128 0x15
ARM GAS  C:\Users\FRANKL~1\AppData\Local\Temp\ccPy0viy.s 			page 202


 9545 1c9c D7050000 		.4byte	.LASF144
 9546 1ca0 02       		.byte	0x2
 9547 1ca1 D502     		.2byte	0x2d5
 9548 1ca3 B5000000 		.4byte	0xb5
 9549 1ca7 9A130000 		.4byte	.LLST130
 9550 1cab 15       		.uleb128 0x15
 9551 1cac E5050000 		.4byte	.LASF145
 9552 1cb0 02       		.byte	0x2
 9553 1cb1 D602     		.2byte	0x2d6
 9554 1cb3 B5000000 		.4byte	0xb5
 9555 1cb7 AE130000 		.4byte	.LLST131
 9556 1cbb 10       		.uleb128 0x10
 9557 1cbc 14000000 		.4byte	.LVL594
 9558 1cc0 D40C0000 		.4byte	0xcd4
 9559 1cc4 10       		.uleb128 0x10
 9560 1cc5 18000000 		.4byte	.LVL595
 9561 1cc9 C6140000 		.4byte	0x14c6
 9562 1ccd 10       		.uleb128 0x10
 9563 1cce 1C000000 		.4byte	.LVL596
 9564 1cd2 040E0000 		.4byte	0xe04
 9565 1cd6 1A       		.uleb128 0x1a
 9566 1cd7 24000000 		.4byte	.LVL597
 9567 1cdb D50B0000 		.4byte	0xbd5
 9568 1cdf EF1C0000 		.4byte	0x1cef
 9569 1ce3 19       		.uleb128 0x19
 9570 1ce4 01       		.uleb128 0x1
 9571 1ce5 50       		.byte	0x50
 9572 1ce6 02       		.uleb128 0x2
 9573 1ce7 74       		.byte	0x74
 9574 1ce8 00       		.sleb128 0
 9575 1ce9 19       		.uleb128 0x19
 9576 1cea 01       		.uleb128 0x1
 9577 1ceb 51       		.byte	0x51
 9578 1cec 01       		.uleb128 0x1
 9579 1ced 31       		.byte	0x31
 9580 1cee 00       		.byte	0
 9581 1cef 1A       		.uleb128 0x1a
 9582 1cf0 2C000000 		.4byte	.LVL598
 9583 1cf4 D50B0000 		.4byte	0xbd5
 9584 1cf8 081D0000 		.4byte	0x1d08
 9585 1cfc 19       		.uleb128 0x19
 9586 1cfd 01       		.uleb128 0x1
 9587 1cfe 50       		.byte	0x50
 9588 1cff 02       		.uleb128 0x2
 9589 1d00 76       		.byte	0x76
 9590 1d01 00       		.sleb128 0
 9591 1d02 19       		.uleb128 0x19
 9592 1d03 01       		.uleb128 0x1
 9593 1d04 51       		.byte	0x51
 9594 1d05 01       		.uleb128 0x1
 9595 1d06 32       		.byte	0x32
 9596 1d07 00       		.byte	0
 9597 1d08 1A       		.uleb128 0x1a
 9598 1d09 38000000 		.4byte	.LVL599
 9599 1d0d 9D340000 		.4byte	0x349d
 9600 1d11 2B1D0000 		.4byte	0x1d2b
 9601 1d15 19       		.uleb128 0x19
ARM GAS  C:\Users\FRANKL~1\AppData\Local\Temp\ccPy0viy.s 			page 203


 9602 1d16 01       		.uleb128 0x1
 9603 1d17 50       		.byte	0x50
 9604 1d18 02       		.uleb128 0x2
 9605 1d19 75       		.byte	0x75
 9606 1d1a 00       		.sleb128 0
 9607 1d1b 19       		.uleb128 0x19
 9608 1d1c 01       		.uleb128 0x1
 9609 1d1d 51       		.byte	0x51
 9610 1d1e 05       		.uleb128 0x5
 9611 1d1f 03       		.byte	0x3
 9612 1d20 C4000000 		.4byte	.LC13
 9613 1d24 19       		.uleb128 0x19
 9614 1d25 01       		.uleb128 0x1
 9615 1d26 52       		.byte	0x52
 9616 1d27 02       		.uleb128 0x2
 9617 1d28 74       		.byte	0x74
 9618 1d29 00       		.sleb128 0
 9619 1d2a 00       		.byte	0
 9620 1d2b 1A       		.uleb128 0x1a
 9621 1d2c 3E000000 		.4byte	.LVL600
 9622 1d30 66340000 		.4byte	0x3466
 9623 1d34 3F1D0000 		.4byte	0x1d3f
 9624 1d38 19       		.uleb128 0x19
 9625 1d39 01       		.uleb128 0x1
 9626 1d3a 50       		.byte	0x50
 9627 1d3b 02       		.uleb128 0x2
 9628 1d3c 75       		.byte	0x75
 9629 1d3d 00       		.sleb128 0
 9630 1d3e 00       		.byte	0
 9631 1d3f 1A       		.uleb128 0x1a
 9632 1d40 46000000 		.4byte	.LVL601
 9633 1d44 80030000 		.4byte	0x380
 9634 1d48 531D0000 		.4byte	0x1d53
 9635 1d4c 19       		.uleb128 0x19
 9636 1d4d 01       		.uleb128 0x1
 9637 1d4e 50       		.byte	0x50
 9638 1d4f 02       		.uleb128 0x2
 9639 1d50 75       		.byte	0x75
 9640 1d51 00       		.sleb128 0
 9641 1d52 00       		.byte	0
 9642 1d53 1A       		.uleb128 0x1a
 9643 1d54 4C000000 		.4byte	.LVL602
 9644 1d58 7C340000 		.4byte	0x347c
 9645 1d5c 671D0000 		.4byte	0x1d67
 9646 1d60 19       		.uleb128 0x19
 9647 1d61 01       		.uleb128 0x1
 9648 1d62 50       		.byte	0x50
 9649 1d63 02       		.uleb128 0x2
 9650 1d64 75       		.byte	0x75
 9651 1d65 00       		.sleb128 0
 9652 1d66 00       		.byte	0
 9653 1d67 1A       		.uleb128 0x1a
 9654 1d68 54000000 		.4byte	.LVL603
 9655 1d6c EB190000 		.4byte	0x19eb
 9656 1d70 7B1D0000 		.4byte	0x1d7b
 9657 1d74 19       		.uleb128 0x19
 9658 1d75 01       		.uleb128 0x1
ARM GAS  C:\Users\FRANKL~1\AppData\Local\Temp\ccPy0viy.s 			page 204


 9659 1d76 50       		.byte	0x50
 9660 1d77 02       		.uleb128 0x2
 9661 1d78 78       		.byte	0x78
 9662 1d79 00       		.sleb128 0
 9663 1d7a 00       		.byte	0
 9664 1d7b 18       		.uleb128 0x18
 9665 1d7c 5C000000 		.4byte	.LVL604
 9666 1d80 B7170000 		.4byte	0x17b7
 9667 1d84 19       		.uleb128 0x19
 9668 1d85 01       		.uleb128 0x1
 9669 1d86 50       		.byte	0x50
 9670 1d87 02       		.uleb128 0x2
 9671 1d88 78       		.byte	0x78
 9672 1d89 00       		.sleb128 0
 9673 1d8a 00       		.byte	0
 9674 1d8b 00       		.byte	0
 9675 1d8c 00       		.byte	0
 9676 1d8d 00       		.byte	0
 9677 1d8e 12       		.uleb128 0x12
 9678 1d8f 290C0000 		.4byte	.LASF146
 9679 1d93 02       		.byte	0x2
 9680 1d94 ED02     		.2byte	0x2ed
 9681 1d96 00000000 		.4byte	.LFB107
 9682 1d9a A4000000 		.4byte	.LFE107-.LFB107
 9683 1d9e 01       		.uleb128 0x1
 9684 1d9f 9C       		.byte	0x9c
 9685 1da0 191F0000 		.4byte	0x1f19
 9686 1da4 25       		.uleb128 0x25
 9687 1da5 7F010000 		.4byte	.LASF147
 9688 1da9 02       		.byte	0x2
 9689 1daa ED02     		.2byte	0x2ed
 9690 1dac B5000000 		.4byte	0xb5
 9691 1db0 C2130000 		.4byte	.LLST132
 9692 1db4 25       		.uleb128 0x25
 9693 1db5 2D000000 		.4byte	.LASF148
 9694 1db9 02       		.byte	0x2
 9695 1dba ED02     		.2byte	0x2ed
 9696 1dbc B5000000 		.4byte	0xb5
 9697 1dc0 EE130000 		.4byte	.LLST133
 9698 1dc4 25       		.uleb128 0x25
 9699 1dc5 59000000 		.4byte	.LASF140
 9700 1dc9 02       		.byte	0x2
 9701 1dca ED02     		.2byte	0x2ed
 9702 1dcc B5000000 		.4byte	0xb5
 9703 1dd0 1A140000 		.4byte	.LLST134
 9704 1dd4 25       		.uleb128 0x25
 9705 1dd5 5F040000 		.4byte	.LASF134
 9706 1dd9 02       		.byte	0x2
 9707 1dda ED02     		.2byte	0x2ed
 9708 1ddc B5000000 		.4byte	0xb5
 9709 1de0 46140000 		.4byte	.LLST135
 9710 1de4 17       		.uleb128 0x17
 9711 1de5 18000000 		.4byte	.LBB62
 9712 1de9 8C000000 		.4byte	.LBE62-.LBB62
 9713 1ded 15       		.uleb128 0x15
 9714 1dee C7010000 		.4byte	.LASF141
 9715 1df2 02       		.byte	0x2
ARM GAS  C:\Users\FRANKL~1\AppData\Local\Temp\ccPy0viy.s 			page 205


 9716 1df3 F102     		.2byte	0x2f1
 9717 1df5 B5000000 		.4byte	0xb5
 9718 1df9 72140000 		.4byte	.LLST136
 9719 1dfd 17       		.uleb128 0x17
 9720 1dfe 18000000 		.4byte	.LBB63
 9721 1e02 72000000 		.4byte	.LBE63-.LBB63
 9722 1e06 15       		.uleb128 0x15
 9723 1e07 46070000 		.4byte	.LASF142
 9724 1e0b 02       		.byte	0x2
 9725 1e0c F202     		.2byte	0x2f2
 9726 1e0e B5000000 		.4byte	0xb5
 9727 1e12 85140000 		.4byte	.LLST137
 9728 1e16 15       		.uleb128 0x15
 9729 1e17 D0040000 		.4byte	.LASF143
 9730 1e1b 02       		.byte	0x2
 9731 1e1c F302     		.2byte	0x2f3
 9732 1e1e B5000000 		.4byte	0xb5
 9733 1e22 98140000 		.4byte	.LLST138
 9734 1e26 15       		.uleb128 0x15
 9735 1e27 D7050000 		.4byte	.LASF144
 9736 1e2b 02       		.byte	0x2
 9737 1e2c F402     		.2byte	0x2f4
 9738 1e2e B5000000 		.4byte	0xb5
 9739 1e32 AB140000 		.4byte	.LLST139
 9740 1e36 15       		.uleb128 0x15
 9741 1e37 E5050000 		.4byte	.LASF145
 9742 1e3b 02       		.byte	0x2
 9743 1e3c F502     		.2byte	0x2f5
 9744 1e3e B5000000 		.4byte	0xb5
 9745 1e42 BF140000 		.4byte	.LLST140
 9746 1e46 10       		.uleb128 0x10
 9747 1e47 20000000 		.4byte	.LVL610
 9748 1e4b D40C0000 		.4byte	0xcd4
 9749 1e4f 10       		.uleb128 0x10
 9750 1e50 24000000 		.4byte	.LVL611
 9751 1e54 C6140000 		.4byte	0x14c6
 9752 1e58 10       		.uleb128 0x10
 9753 1e59 28000000 		.4byte	.LVL612
 9754 1e5d 040E0000 		.4byte	0xe04
 9755 1e61 1A       		.uleb128 0x1a
 9756 1e62 30000000 		.4byte	.LVL613
 9757 1e66 D50B0000 		.4byte	0xbd5
 9758 1e6a 7A1E0000 		.4byte	0x1e7a
 9759 1e6e 19       		.uleb128 0x19
 9760 1e6f 01       		.uleb128 0x1
 9761 1e70 50       		.byte	0x50
 9762 1e71 02       		.uleb128 0x2
 9763 1e72 74       		.byte	0x74
 9764 1e73 00       		.sleb128 0
 9765 1e74 19       		.uleb128 0x19
 9766 1e75 01       		.uleb128 0x1
 9767 1e76 51       		.byte	0x51
 9768 1e77 01       		.uleb128 0x1
 9769 1e78 31       		.byte	0x31
 9770 1e79 00       		.byte	0
 9771 1e7a 1A       		.uleb128 0x1a
 9772 1e7b 38000000 		.4byte	.LVL614
ARM GAS  C:\Users\FRANKL~1\AppData\Local\Temp\ccPy0viy.s 			page 206


 9773 1e7f D50B0000 		.4byte	0xbd5
 9774 1e83 931E0000 		.4byte	0x1e93
 9775 1e87 19       		.uleb128 0x19
 9776 1e88 01       		.uleb128 0x1
 9777 1e89 50       		.byte	0x50
 9778 1e8a 02       		.uleb128 0x2
 9779 1e8b 76       		.byte	0x76
 9780 1e8c 00       		.sleb128 0
 9781 1e8d 19       		.uleb128 0x19
 9782 1e8e 01       		.uleb128 0x1
 9783 1e8f 51       		.byte	0x51
 9784 1e90 01       		.uleb128 0x1
 9785 1e91 32       		.byte	0x32
 9786 1e92 00       		.byte	0
 9787 1e93 1A       		.uleb128 0x1a
 9788 1e94 44000000 		.4byte	.LVL615
 9789 1e98 9D340000 		.4byte	0x349d
 9790 1e9c B61E0000 		.4byte	0x1eb6
 9791 1ea0 19       		.uleb128 0x19
 9792 1ea1 01       		.uleb128 0x1
 9793 1ea2 50       		.byte	0x50
 9794 1ea3 02       		.uleb128 0x2
 9795 1ea4 75       		.byte	0x75
 9796 1ea5 00       		.sleb128 0
 9797 1ea6 19       		.uleb128 0x19
 9798 1ea7 01       		.uleb128 0x1
 9799 1ea8 51       		.byte	0x51
 9800 1ea9 05       		.uleb128 0x5
 9801 1eaa 03       		.byte	0x3
 9802 1eab C4000000 		.4byte	.LC13
 9803 1eaf 19       		.uleb128 0x19
 9804 1eb0 01       		.uleb128 0x1
 9805 1eb1 52       		.byte	0x52
 9806 1eb2 02       		.uleb128 0x2
 9807 1eb3 74       		.byte	0x74
 9808 1eb4 00       		.sleb128 0
 9809 1eb5 00       		.byte	0
 9810 1eb6 1A       		.uleb128 0x1a
 9811 1eb7 4A000000 		.4byte	.LVL616
 9812 1ebb 66340000 		.4byte	0x3466
 9813 1ebf CA1E0000 		.4byte	0x1eca
 9814 1ec3 19       		.uleb128 0x19
 9815 1ec4 01       		.uleb128 0x1
 9816 1ec5 50       		.byte	0x50
 9817 1ec6 02       		.uleb128 0x2
 9818 1ec7 75       		.byte	0x75
 9819 1ec8 00       		.sleb128 0
 9820 1ec9 00       		.byte	0
 9821 1eca 1A       		.uleb128 0x1a
 9822 1ecb 52000000 		.4byte	.LVL617
 9823 1ecf 80030000 		.4byte	0x380
 9824 1ed3 DE1E0000 		.4byte	0x1ede
 9825 1ed7 19       		.uleb128 0x19
 9826 1ed8 01       		.uleb128 0x1
 9827 1ed9 50       		.byte	0x50
 9828 1eda 02       		.uleb128 0x2
 9829 1edb 75       		.byte	0x75
ARM GAS  C:\Users\FRANKL~1\AppData\Local\Temp\ccPy0viy.s 			page 207


 9830 1edc 00       		.sleb128 0
 9831 1edd 00       		.byte	0
 9832 1ede 1A       		.uleb128 0x1a
 9833 1edf 58000000 		.4byte	.LVL618
 9834 1ee3 7C340000 		.4byte	0x347c
 9835 1ee7 F21E0000 		.4byte	0x1ef2
 9836 1eeb 19       		.uleb128 0x19
 9837 1eec 01       		.uleb128 0x1
 9838 1eed 50       		.byte	0x50
 9839 1eee 02       		.uleb128 0x2
 9840 1eef 75       		.byte	0x75
 9841 1ef0 00       		.sleb128 0
 9842 1ef1 00       		.byte	0
 9843 1ef2 1A       		.uleb128 0x1a
 9844 1ef3 64000000 		.4byte	.LVL619
 9845 1ef7 EB190000 		.4byte	0x19eb
 9846 1efb 061F0000 		.4byte	0x1f06
 9847 1eff 19       		.uleb128 0x19
 9848 1f00 01       		.uleb128 0x1
 9849 1f01 50       		.byte	0x50
 9850 1f02 02       		.uleb128 0x2
 9851 1f03 79       		.byte	0x79
 9852 1f04 00       		.sleb128 0
 9853 1f05 00       		.byte	0
 9854 1f06 18       		.uleb128 0x18
 9855 1f07 6C000000 		.4byte	.LVL620
 9856 1f0b B7170000 		.4byte	0x17b7
 9857 1f0f 19       		.uleb128 0x19
 9858 1f10 01       		.uleb128 0x1
 9859 1f11 50       		.byte	0x50
 9860 1f12 02       		.uleb128 0x2
 9861 1f13 79       		.byte	0x79
 9862 1f14 00       		.sleb128 0
 9863 1f15 00       		.byte	0
 9864 1f16 00       		.byte	0
 9865 1f17 00       		.byte	0
 9866 1f18 00       		.byte	0
 9867 1f19 2D       		.uleb128 0x2d
 9868 1f1a 4A0D0000 		.4byte	.LASF224
 9869 1f1e 02       		.byte	0x2
 9870 1f1f 5203     		.2byte	0x352
 9871 1f21 3A000000 		.4byte	0x3a
 9872 1f25 00000000 		.4byte	.LFB109
 9873 1f29 B8080000 		.4byte	.LFE109-.LFB109
 9874 1f2d 01       		.uleb128 0x1
 9875 1f2e 9C       		.byte	0x9c
 9876 1f2f A7320000 		.4byte	0x32a7
 9877 1f33 13       		.uleb128 0x13
 9878 1f34 76000000 		.4byte	.LBB64
 9879 1f38 42080000 		.4byte	.LBE64-.LBB64
 9880 1f3c E3310000 		.4byte	0x31e3
 9881 1f40 15       		.uleb128 0x15
 9882 1f41 1F000000 		.4byte	.LASF33
 9883 1f45 02       		.byte	0x2
 9884 1f46 7603     		.2byte	0x376
 9885 1f48 92000000 		.4byte	0x92
 9886 1f4c D3140000 		.4byte	.LLST141
ARM GAS  C:\Users\FRANKL~1\AppData\Local\Temp\ccPy0viy.s 			page 208


 9887 1f50 13       		.uleb128 0x13
 9888 1f51 AA000000 		.4byte	.LBB65
 9889 1f55 18000000 		.4byte	.LBE65-.LBB65
 9890 1f59 B71F0000 		.4byte	0x1fb7
 9891 1f5d 14       		.uleb128 0x14
 9892 1f5e 70090000 		.4byte	.LASF149
 9893 1f62 02       		.byte	0x2
 9894 1f63 7F03     		.2byte	0x37f
 9895 1f65 92000000 		.4byte	0x92
 9896 1f69 02       		.uleb128 0x2
 9897 1f6a 91       		.byte	0x91
 9898 1f6b 64       		.sleb128 -28
 9899 1f6c 16       		.uleb128 0x16
 9900 1f6d 6E00     		.ascii	"n\000"
 9901 1f6f 02       		.byte	0x2
 9902 1f70 8003     		.2byte	0x380
 9903 1f72 CD000000 		.4byte	0xcd
 9904 1f76 9B150000 		.4byte	.LLST142
 9905 1f7a 1A       		.uleb128 0x1a
 9906 1f7b B2000000 		.4byte	.LVL644
 9907 1f7f 63350000 		.4byte	0x3563
 9908 1f83 941F0000 		.4byte	0x1f94
 9909 1f87 19       		.uleb128 0x19
 9910 1f88 01       		.uleb128 0x1
 9911 1f89 50       		.byte	0x50
 9912 1f8a 02       		.uleb128 0x2
 9913 1f8b 74       		.byte	0x74
 9914 1f8c 00       		.sleb128 0
 9915 1f8d 19       		.uleb128 0x19
 9916 1f8e 01       		.uleb128 0x1
 9917 1f8f 51       		.byte	0x51
 9918 1f90 02       		.uleb128 0x2
 9919 1f91 08       		.byte	0x8
 9920 1f92 20       		.byte	0x20
 9921 1f93 00       		.byte	0
 9922 1f94 1A       		.uleb128 0x1a
 9923 1f95 BE000000 		.4byte	.LVL645
 9924 1f99 72350000 		.4byte	0x3572
 9925 1f9d AD1F0000 		.4byte	0x1fad
 9926 1fa1 19       		.uleb128 0x19
 9927 1fa2 01       		.uleb128 0x1
 9928 1fa3 51       		.byte	0x51
 9929 1fa4 02       		.uleb128 0x2
 9930 1fa5 91       		.byte	0x91
 9931 1fa6 64       		.sleb128 -28
 9932 1fa7 19       		.uleb128 0x19
 9933 1fa8 01       		.uleb128 0x1
 9934 1fa9 52       		.byte	0x52
 9935 1faa 01       		.uleb128 0x1
 9936 1fab 3A       		.byte	0x3a
 9937 1fac 00       		.byte	0
 9938 1fad 10       		.uleb128 0x10
 9939 1fae C2000000 		.4byte	.LVL646
 9940 1fb2 8B160000 		.4byte	0x168b
 9941 1fb6 00       		.byte	0
 9942 1fb7 13       		.uleb128 0x13
 9943 1fb8 0A010000 		.4byte	.LBB66
ARM GAS  C:\Users\FRANKL~1\AppData\Local\Temp\ccPy0viy.s 			page 209


 9944 1fbc 1A000000 		.4byte	.LBE66-.LBB66
 9945 1fc0 20200000 		.4byte	0x2020
 9946 1fc4 14       		.uleb128 0x14
 9947 1fc5 70090000 		.4byte	.LASF149
 9948 1fc9 02       		.byte	0x2
 9949 1fca 8E03     		.2byte	0x38e
 9950 1fcc 92000000 		.4byte	0x92
 9951 1fd0 02       		.uleb128 0x2
 9952 1fd1 91       		.byte	0x91
 9953 1fd2 64       		.sleb128 -28
 9954 1fd3 15       		.uleb128 0x15
 9955 1fd4 31060000 		.4byte	.LASF150
 9956 1fd8 02       		.byte	0x2
 9957 1fd9 8F03     		.2byte	0x38f
 9958 1fdb B5000000 		.4byte	0xb5
 9959 1fdf AE150000 		.4byte	.LLST143
 9960 1fe3 1A       		.uleb128 0x1a
 9961 1fe4 12010000 		.4byte	.LVL654
 9962 1fe8 63350000 		.4byte	0x3563
 9963 1fec FD1F0000 		.4byte	0x1ffd
 9964 1ff0 19       		.uleb128 0x19
 9965 1ff1 01       		.uleb128 0x1
 9966 1ff2 50       		.byte	0x50
 9967 1ff3 02       		.uleb128 0x2
 9968 1ff4 74       		.byte	0x74
 9969 1ff5 00       		.sleb128 0
 9970 1ff6 19       		.uleb128 0x19
 9971 1ff7 01       		.uleb128 0x1
 9972 1ff8 51       		.byte	0x51
 9973 1ff9 02       		.uleb128 0x2
 9974 1ffa 08       		.byte	0x8
 9975 1ffb 20       		.byte	0x20
 9976 1ffc 00       		.byte	0
 9977 1ffd 1A       		.uleb128 0x1a
 9978 1ffe 1E010000 		.4byte	.LVL655
 9979 2002 72350000 		.4byte	0x3572
 9980 2006 16200000 		.4byte	0x2016
 9981 200a 19       		.uleb128 0x19
 9982 200b 01       		.uleb128 0x1
 9983 200c 51       		.byte	0x51
 9984 200d 02       		.uleb128 0x2
 9985 200e 91       		.byte	0x91
 9986 200f 64       		.sleb128 -28
 9987 2010 19       		.uleb128 0x19
 9988 2011 01       		.uleb128 0x1
 9989 2012 52       		.byte	0x52
 9990 2013 01       		.uleb128 0x1
 9991 2014 3A       		.byte	0x3a
 9992 2015 00       		.byte	0
 9993 2016 10       		.uleb128 0x10
 9994 2017 24010000 		.4byte	.LVL656
 9995 201b 10110000 		.4byte	0x1110
 9996 201f 00       		.byte	0
 9997 2020 13       		.uleb128 0x13
 9998 2021 32010000 		.4byte	.LBB67
 9999 2025 1A000000 		.4byte	.LBE67-.LBB67
 10000 2029 89200000 		.4byte	0x2089
ARM GAS  C:\Users\FRANKL~1\AppData\Local\Temp\ccPy0viy.s 			page 210


 10001 202d 14       		.uleb128 0x14
 10002 202e 70090000 		.4byte	.LASF149
 10003 2032 02       		.byte	0x2
 10004 2033 9403     		.2byte	0x394
 10005 2035 92000000 		.4byte	0x92
 10006 2039 02       		.uleb128 0x2
 10007 203a 91       		.byte	0x91
 10008 203b 64       		.sleb128 -28
 10009 203c 15       		.uleb128 0x15
 10010 203d 54000000 		.4byte	.LASF151
 10011 2041 02       		.byte	0x2
 10012 2042 9503     		.2byte	0x395
 10013 2044 B5000000 		.4byte	0xb5
 10014 2048 C1150000 		.4byte	.LLST144
 10015 204c 1A       		.uleb128 0x1a
 10016 204d 3A010000 		.4byte	.LVL658
 10017 2051 63350000 		.4byte	0x3563
 10018 2055 66200000 		.4byte	0x2066
 10019 2059 19       		.uleb128 0x19
 10020 205a 01       		.uleb128 0x1
 10021 205b 50       		.byte	0x50
 10022 205c 02       		.uleb128 0x2
 10023 205d 74       		.byte	0x74
 10024 205e 00       		.sleb128 0
 10025 205f 19       		.uleb128 0x19
 10026 2060 01       		.uleb128 0x1
 10027 2061 51       		.byte	0x51
 10028 2062 02       		.uleb128 0x2
 10029 2063 08       		.byte	0x8
 10030 2064 20       		.byte	0x20
 10031 2065 00       		.byte	0
 10032 2066 1A       		.uleb128 0x1a
 10033 2067 46010000 		.4byte	.LVL659
 10034 206b 72350000 		.4byte	0x3572
 10035 206f 7F200000 		.4byte	0x207f
 10036 2073 19       		.uleb128 0x19
 10037 2074 01       		.uleb128 0x1
 10038 2075 51       		.byte	0x51
 10039 2076 02       		.uleb128 0x2
 10040 2077 91       		.byte	0x91
 10041 2078 64       		.sleb128 -28
 10042 2079 19       		.uleb128 0x19
 10043 207a 01       		.uleb128 0x1
 10044 207b 52       		.byte	0x52
 10045 207c 01       		.uleb128 0x1
 10046 207d 3A       		.byte	0x3a
 10047 207e 00       		.byte	0
 10048 207f 10       		.uleb128 0x10
 10049 2080 4C010000 		.4byte	.LVL660
 10050 2084 51100000 		.4byte	0x1051
 10051 2088 00       		.byte	0
 10052 2089 13       		.uleb128 0x13
 10053 208a 5A010000 		.4byte	.LBB68
 10054 208e 1A000000 		.4byte	.LBE68-.LBB68
 10055 2092 F2200000 		.4byte	0x20f2
 10056 2096 14       		.uleb128 0x14
 10057 2097 70090000 		.4byte	.LASF149
ARM GAS  C:\Users\FRANKL~1\AppData\Local\Temp\ccPy0viy.s 			page 211


 10058 209b 02       		.byte	0x2
 10059 209c 9A03     		.2byte	0x39a
 10060 209e 92000000 		.4byte	0x92
 10061 20a2 02       		.uleb128 0x2
 10062 20a3 91       		.byte	0x91
 10063 20a4 64       		.sleb128 -28
 10064 20a5 15       		.uleb128 0x15
 10065 20a6 31060000 		.4byte	.LASF150
 10066 20aa 02       		.byte	0x2
 10067 20ab 9B03     		.2byte	0x39b
 10068 20ad D9000000 		.4byte	0xd9
 10069 20b1 D4150000 		.4byte	.LLST145
 10070 20b5 1A       		.uleb128 0x1a
 10071 20b6 62010000 		.4byte	.LVL662
 10072 20ba 63350000 		.4byte	0x3563
 10073 20be CF200000 		.4byte	0x20cf
 10074 20c2 19       		.uleb128 0x19
 10075 20c3 01       		.uleb128 0x1
 10076 20c4 50       		.byte	0x50
 10077 20c5 02       		.uleb128 0x2
 10078 20c6 74       		.byte	0x74
 10079 20c7 00       		.sleb128 0
 10080 20c8 19       		.uleb128 0x19
 10081 20c9 01       		.uleb128 0x1
 10082 20ca 51       		.byte	0x51
 10083 20cb 02       		.uleb128 0x2
 10084 20cc 08       		.byte	0x8
 10085 20cd 20       		.byte	0x20
 10086 20ce 00       		.byte	0
 10087 20cf 1A       		.uleb128 0x1a
 10088 20d0 6E010000 		.4byte	.LVL663
 10089 20d4 72350000 		.4byte	0x3572
 10090 20d8 E8200000 		.4byte	0x20e8
 10091 20dc 19       		.uleb128 0x19
 10092 20dd 01       		.uleb128 0x1
 10093 20de 51       		.byte	0x51
 10094 20df 02       		.uleb128 0x2
 10095 20e0 91       		.byte	0x91
 10096 20e1 64       		.sleb128 -28
 10097 20e2 19       		.uleb128 0x19
 10098 20e3 01       		.uleb128 0x1
 10099 20e4 52       		.byte	0x52
 10100 20e5 01       		.uleb128 0x1
 10101 20e6 3A       		.byte	0x3a
 10102 20e7 00       		.byte	0
 10103 20e8 10       		.uleb128 0x10
 10104 20e9 74010000 		.4byte	.LVL664
 10105 20ed 02130000 		.4byte	0x1302
 10106 20f1 00       		.byte	0
 10107 20f2 13       		.uleb128 0x13
 10108 20f3 82010000 		.4byte	.LBB69
 10109 20f7 1A000000 		.4byte	.LBE69-.LBB69
 10110 20fb 5B210000 		.4byte	0x215b
 10111 20ff 14       		.uleb128 0x14
 10112 2100 70090000 		.4byte	.LASF149
 10113 2104 02       		.byte	0x2
 10114 2105 A003     		.2byte	0x3a0
ARM GAS  C:\Users\FRANKL~1\AppData\Local\Temp\ccPy0viy.s 			page 212


 10115 2107 92000000 		.4byte	0x92
 10116 210b 02       		.uleb128 0x2
 10117 210c 91       		.byte	0x91
 10118 210d 64       		.sleb128 -28
 10119 210e 15       		.uleb128 0x15
 10120 210f 54000000 		.4byte	.LASF151
 10121 2113 02       		.byte	0x2
 10122 2114 A103     		.2byte	0x3a1
 10123 2116 D9000000 		.4byte	0xd9
 10124 211a E7150000 		.4byte	.LLST146
 10125 211e 1A       		.uleb128 0x1a
 10126 211f 8A010000 		.4byte	.LVL666
 10127 2123 63350000 		.4byte	0x3563
 10128 2127 38210000 		.4byte	0x2138
 10129 212b 19       		.uleb128 0x19
 10130 212c 01       		.uleb128 0x1
 10131 212d 50       		.byte	0x50
 10132 212e 02       		.uleb128 0x2
 10133 212f 74       		.byte	0x74
 10134 2130 00       		.sleb128 0
 10135 2131 19       		.uleb128 0x19
 10136 2132 01       		.uleb128 0x1
 10137 2133 51       		.byte	0x51
 10138 2134 02       		.uleb128 0x2
 10139 2135 08       		.byte	0x8
 10140 2136 20       		.byte	0x20
 10141 2137 00       		.byte	0
 10142 2138 1A       		.uleb128 0x1a
 10143 2139 96010000 		.4byte	.LVL667
 10144 213d 72350000 		.4byte	0x3572
 10145 2141 51210000 		.4byte	0x2151
 10146 2145 19       		.uleb128 0x19
 10147 2146 01       		.uleb128 0x1
 10148 2147 51       		.byte	0x51
 10149 2148 02       		.uleb128 0x2
 10150 2149 91       		.byte	0x91
 10151 214a 64       		.sleb128 -28
 10152 214b 19       		.uleb128 0x19
 10153 214c 01       		.uleb128 0x1
 10154 214d 52       		.byte	0x52
 10155 214e 01       		.uleb128 0x1
 10156 214f 3A       		.byte	0x3a
 10157 2150 00       		.byte	0
 10158 2151 10       		.uleb128 0x10
 10159 2152 9C010000 		.4byte	.LVL668
 10160 2156 89120000 		.4byte	0x1289
 10161 215a 00       		.byte	0
 10162 215b 13       		.uleb128 0x13
 10163 215c AA010000 		.4byte	.LBB70
 10164 2160 1C000000 		.4byte	.LBE70-.LBB70
 10165 2164 D4210000 		.4byte	0x21d4
 10166 2168 15       		.uleb128 0x15
 10167 2169 70090000 		.4byte	.LASF149
 10168 216d 02       		.byte	0x2
 10169 216e A603     		.2byte	0x3a6
 10170 2170 92000000 		.4byte	0x92
 10171 2174 FA150000 		.4byte	.LLST147
ARM GAS  C:\Users\FRANKL~1\AppData\Local\Temp\ccPy0viy.s 			page 213


 10172 2178 2E       		.uleb128 0x2e
 10173 2179 76677300 		.ascii	"vgs\000"
 10174 217d 02       		.byte	0x2
 10175 217e A703     		.2byte	0x3a7
 10176 2180 25000000 		.4byte	0x25
 10177 2184 02       		.uleb128 0x2
 10178 2185 91       		.byte	0x91
 10179 2186 64       		.sleb128 -28
 10180 2187 2C       		.uleb128 0x2c
 10181 2188 AF060000 		.4byte	.LASF152
 10182 218c 02       		.byte	0x2
 10183 218d A803     		.2byte	0x3a8
 10184 218f D9000000 		.4byte	0xd9
 10185 2193 1A       		.uleb128 0x1a
 10186 2194 B2010000 		.4byte	.LVL670
 10187 2198 63350000 		.4byte	0x3563
 10188 219c AD210000 		.4byte	0x21ad
 10189 21a0 19       		.uleb128 0x19
 10190 21a1 01       		.uleb128 0x1
 10191 21a2 50       		.byte	0x50
 10192 21a3 02       		.uleb128 0x2
 10193 21a4 74       		.byte	0x74
 10194 21a5 00       		.sleb128 0
 10195 21a6 19       		.uleb128 0x19
 10196 21a7 01       		.uleb128 0x1
 10197 21a8 51       		.byte	0x51
 10198 21a9 02       		.uleb128 0x2
 10199 21aa 08       		.byte	0x8
 10200 21ab 20       		.byte	0x20
 10201 21ac 00       		.byte	0
 10202 21ad 1A       		.uleb128 0x1a
 10203 21ae C0010000 		.4byte	.LVL671
 10204 21b2 7D350000 		.4byte	0x357d
 10205 21b6 CA210000 		.4byte	0x21ca
 10206 21ba 19       		.uleb128 0x19
 10207 21bb 01       		.uleb128 0x1
 10208 21bc 51       		.byte	0x51
 10209 21bd 05       		.uleb128 0x5
 10210 21be 03       		.byte	0x3
 10211 21bf 88010000 		.4byte	.LC25
 10212 21c3 19       		.uleb128 0x19
 10213 21c4 01       		.uleb128 0x1
 10214 21c5 52       		.byte	0x52
 10215 21c6 02       		.uleb128 0x2
 10216 21c7 91       		.byte	0x91
 10217 21c8 64       		.sleb128 -28
 10218 21c9 00       		.byte	0
 10219 21ca 10       		.uleb128 0x10
 10220 21cb C6010000 		.4byte	.LVL672
 10221 21cf 7B130000 		.4byte	0x137b
 10222 21d3 00       		.byte	0
 10223 21d4 13       		.uleb128 0x13
 10224 21d5 D4010000 		.4byte	.LBB71
 10225 21d9 1C000000 		.4byte	.LBE71-.LBB71
 10226 21dd 4D220000 		.4byte	0x224d
 10227 21e1 15       		.uleb128 0x15
 10228 21e2 70090000 		.4byte	.LASF149
ARM GAS  C:\Users\FRANKL~1\AppData\Local\Temp\ccPy0viy.s 			page 214


 10229 21e6 02       		.byte	0x2
 10230 21e7 AD03     		.2byte	0x3ad
 10231 21e9 92000000 		.4byte	0x92
 10232 21ed 0D160000 		.4byte	.LLST148
 10233 21f1 2E       		.uleb128 0x2e
 10234 21f2 76647300 		.ascii	"vds\000"
 10235 21f6 02       		.byte	0x2
 10236 21f7 AE03     		.2byte	0x3ae
 10237 21f9 25000000 		.4byte	0x25
 10238 21fd 02       		.uleb128 0x2
 10239 21fe 91       		.byte	0x91
 10240 21ff 64       		.sleb128 -28
 10241 2200 2C       		.uleb128 0x2c
 10242 2201 AF060000 		.4byte	.LASF152
 10243 2205 02       		.byte	0x2
 10244 2206 AF03     		.2byte	0x3af
 10245 2208 D9000000 		.4byte	0xd9
 10246 220c 1A       		.uleb128 0x1a
 10247 220d DC010000 		.4byte	.LVL674
 10248 2211 63350000 		.4byte	0x3563
 10249 2215 26220000 		.4byte	0x2226
 10250 2219 19       		.uleb128 0x19
 10251 221a 01       		.uleb128 0x1
 10252 221b 50       		.byte	0x50
 10253 221c 02       		.uleb128 0x2
 10254 221d 74       		.byte	0x74
 10255 221e 00       		.sleb128 0
 10256 221f 19       		.uleb128 0x19
 10257 2220 01       		.uleb128 0x1
 10258 2221 51       		.byte	0x51
 10259 2222 02       		.uleb128 0x2
 10260 2223 08       		.byte	0x8
 10261 2224 20       		.byte	0x20
 10262 2225 00       		.byte	0
 10263 2226 1A       		.uleb128 0x1a
 10264 2227 EA010000 		.4byte	.LVL675
 10265 222b 7D350000 		.4byte	0x357d
 10266 222f 43220000 		.4byte	0x2243
 10267 2233 19       		.uleb128 0x19
 10268 2234 01       		.uleb128 0x1
 10269 2235 51       		.byte	0x51
 10270 2236 05       		.uleb128 0x5
 10271 2237 03       		.byte	0x3
 10272 2238 88010000 		.4byte	.LC25
 10273 223c 19       		.uleb128 0x19
 10274 223d 01       		.uleb128 0x1
 10275 223e 52       		.byte	0x52
 10276 223f 02       		.uleb128 0x2
 10277 2240 91       		.byte	0x91
 10278 2241 64       		.sleb128 -28
 10279 2242 00       		.byte	0
 10280 2243 10       		.uleb128 0x10
 10281 2244 F0010000 		.4byte	.LVL676
 10282 2248 AB130000 		.4byte	0x13ab
 10283 224c 00       		.byte	0
 10284 224d 13       		.uleb128 0x13
 10285 224e FE010000 		.4byte	.LBB72
ARM GAS  C:\Users\FRANKL~1\AppData\Local\Temp\ccPy0viy.s 			page 215


 10286 2252 46000000 		.4byte	.LBE72-.LBB72
 10287 2256 17230000 		.4byte	0x2317
 10288 225a 14       		.uleb128 0x14
 10289 225b 70090000 		.4byte	.LASF149
 10290 225f 02       		.byte	0x2
 10291 2260 B403     		.2byte	0x3b4
 10292 2262 92000000 		.4byte	0x92
 10293 2266 02       		.uleb128 0x2
 10294 2267 91       		.byte	0x91
 10295 2268 64       		.sleb128 -28
 10296 2269 15       		.uleb128 0x15
 10297 226a 0A020000 		.4byte	.LASF153
 10298 226e 02       		.byte	0x2
 10299 226f B503     		.2byte	0x3b5
 10300 2271 25000000 		.4byte	0x25
 10301 2275 20160000 		.4byte	.LLST149
 10302 2279 1A       		.uleb128 0x1a
 10303 227a 06020000 		.4byte	.LVL678
 10304 227e 63350000 		.4byte	0x3563
 10305 2282 93220000 		.4byte	0x2293
 10306 2286 19       		.uleb128 0x19
 10307 2287 01       		.uleb128 0x1
 10308 2288 50       		.byte	0x50
 10309 2289 02       		.uleb128 0x2
 10310 228a 74       		.byte	0x74
 10311 228b 00       		.sleb128 0
 10312 228c 19       		.uleb128 0x19
 10313 228d 01       		.uleb128 0x1
 10314 228e 51       		.byte	0x51
 10315 228f 02       		.uleb128 0x2
 10316 2290 08       		.byte	0x8
 10317 2291 20       		.byte	0x20
 10318 2292 00       		.byte	0
 10319 2293 1A       		.uleb128 0x1a
 10320 2294 12020000 		.4byte	.LVL679
 10321 2298 72350000 		.4byte	0x3572
 10322 229c AC220000 		.4byte	0x22ac
 10323 22a0 19       		.uleb128 0x19
 10324 22a1 01       		.uleb128 0x1
 10325 22a2 51       		.byte	0x51
 10326 22a3 02       		.uleb128 0x2
 10327 22a4 91       		.byte	0x91
 10328 22a5 64       		.sleb128 -28
 10329 22a6 19       		.uleb128 0x19
 10330 22a7 01       		.uleb128 0x1
 10331 22a8 52       		.byte	0x52
 10332 22a9 01       		.uleb128 0x1
 10333 22aa 3A       		.byte	0x3a
 10334 22ab 00       		.byte	0
 10335 22ac 1A       		.uleb128 0x1a
 10336 22ad 1C020000 		.4byte	.LVL682
 10337 22b1 DB130000 		.4byte	0x13db
 10338 22b5 C1220000 		.4byte	0x22c1
 10339 22b9 19       		.uleb128 0x19
 10340 22ba 01       		.uleb128 0x1
 10341 22bb 50       		.byte	0x50
 10342 22bc 03       		.uleb128 0x3
ARM GAS  C:\Users\FRANKL~1\AppData\Local\Temp\ccPy0viy.s 			page 216


 10343 22bd F5       		.byte	0xf5
 10344 22be 04       		.uleb128 0x4
 10345 22bf 25       		.uleb128 0x25
 10346 22c0 00       		.byte	0
 10347 22c1 1A       		.uleb128 0x1a
 10348 22c2 30020000 		.4byte	.LVL685
 10349 22c6 9D340000 		.4byte	0x349d
 10350 22ca DE220000 		.4byte	0x22de
 10351 22ce 19       		.uleb128 0x19
 10352 22cf 01       		.uleb128 0x1
 10353 22d0 50       		.byte	0x50
 10354 22d1 02       		.uleb128 0x2
 10355 22d2 74       		.byte	0x74
 10356 22d3 00       		.sleb128 0
 10357 22d4 19       		.uleb128 0x19
 10358 22d5 01       		.uleb128 0x1
 10359 22d6 51       		.byte	0x51
 10360 22d7 05       		.uleb128 0x5
 10361 22d8 03       		.byte	0x3
 10362 22d9 A4010000 		.4byte	.LC28
 10363 22dd 00       		.byte	0
 10364 22de 1A       		.uleb128 0x1a
 10365 22df 36020000 		.4byte	.LVL686
 10366 22e3 66340000 		.4byte	0x3466
 10367 22e7 F2220000 		.4byte	0x22f2
 10368 22eb 19       		.uleb128 0x19
 10369 22ec 01       		.uleb128 0x1
 10370 22ed 50       		.byte	0x50
 10371 22ee 02       		.uleb128 0x2
 10372 22ef 74       		.byte	0x74
 10373 22f0 00       		.sleb128 0
 10374 22f1 00       		.byte	0
 10375 22f2 1A       		.uleb128 0x1a
 10376 22f3 3E020000 		.4byte	.LVL687
 10377 22f7 80030000 		.4byte	0x380
 10378 22fb 06230000 		.4byte	0x2306
 10379 22ff 19       		.uleb128 0x19
 10380 2300 01       		.uleb128 0x1
 10381 2301 50       		.byte	0x50
 10382 2302 02       		.uleb128 0x2
 10383 2303 74       		.byte	0x74
 10384 2304 00       		.sleb128 0
 10385 2305 00       		.byte	0
 10386 2306 18       		.uleb128 0x18
 10387 2307 44020000 		.4byte	.LVL688
 10388 230b 7C340000 		.4byte	0x347c
 10389 230f 19       		.uleb128 0x19
 10390 2310 01       		.uleb128 0x1
 10391 2311 50       		.byte	0x50
 10392 2312 02       		.uleb128 0x2
 10393 2313 74       		.byte	0x74
 10394 2314 00       		.sleb128 0
 10395 2315 00       		.byte	0
 10396 2316 00       		.byte	0
 10397 2317 13       		.uleb128 0x13
 10398 2318 52020000 		.4byte	.LBB73
 10399 231c 46000000 		.4byte	.LBE73-.LBB73
ARM GAS  C:\Users\FRANKL~1\AppData\Local\Temp\ccPy0viy.s 			page 217


 10400 2320 E1230000 		.4byte	0x23e1
 10401 2324 14       		.uleb128 0x14
 10402 2325 70090000 		.4byte	.LASF149
 10403 2329 02       		.byte	0x2
 10404 232a BE03     		.2byte	0x3be
 10405 232c 92000000 		.4byte	0x92
 10406 2330 02       		.uleb128 0x2
 10407 2331 91       		.byte	0x91
 10408 2332 64       		.sleb128 -28
 10409 2333 15       		.uleb128 0x15
 10410 2334 3C030000 		.4byte	.LASF154
 10411 2338 02       		.byte	0x2
 10412 2339 BF03     		.2byte	0x3bf
 10413 233b 25000000 		.4byte	0x25
 10414 233f 3E160000 		.4byte	.LLST150
 10415 2343 1A       		.uleb128 0x1a
 10416 2344 5A020000 		.4byte	.LVL691
 10417 2348 63350000 		.4byte	0x3563
 10418 234c 5D230000 		.4byte	0x235d
 10419 2350 19       		.uleb128 0x19
 10420 2351 01       		.uleb128 0x1
 10421 2352 50       		.byte	0x50
 10422 2353 02       		.uleb128 0x2
 10423 2354 74       		.byte	0x74
 10424 2355 00       		.sleb128 0
 10425 2356 19       		.uleb128 0x19
 10426 2357 01       		.uleb128 0x1
 10427 2358 51       		.byte	0x51
 10428 2359 02       		.uleb128 0x2
 10429 235a 08       		.byte	0x8
 10430 235b 20       		.byte	0x20
 10431 235c 00       		.byte	0
 10432 235d 1A       		.uleb128 0x1a
 10433 235e 66020000 		.4byte	.LVL692
 10434 2362 72350000 		.4byte	0x3572
 10435 2366 76230000 		.4byte	0x2376
 10436 236a 19       		.uleb128 0x19
 10437 236b 01       		.uleb128 0x1
 10438 236c 51       		.byte	0x51
 10439 236d 02       		.uleb128 0x2
 10440 236e 91       		.byte	0x91
 10441 236f 64       		.sleb128 -28
 10442 2370 19       		.uleb128 0x19
 10443 2371 01       		.uleb128 0x1
 10444 2372 52       		.byte	0x52
 10445 2373 01       		.uleb128 0x1
 10446 2374 3A       		.byte	0x3a
 10447 2375 00       		.byte	0
 10448 2376 1A       		.uleb128 0x1a
 10449 2377 70020000 		.4byte	.LVL695
 10450 237b 0A140000 		.4byte	0x140a
 10451 237f 8B230000 		.4byte	0x238b
 10452 2383 19       		.uleb128 0x19
 10453 2384 01       		.uleb128 0x1
 10454 2385 50       		.byte	0x50
 10455 2386 03       		.uleb128 0x3
 10456 2387 F5       		.byte	0xf5
ARM GAS  C:\Users\FRANKL~1\AppData\Local\Temp\ccPy0viy.s 			page 218


 10457 2388 04       		.uleb128 0x4
 10458 2389 25       		.uleb128 0x25
 10459 238a 00       		.byte	0
 10460 238b 1A       		.uleb128 0x1a
 10461 238c 84020000 		.4byte	.LVL698
 10462 2390 9D340000 		.4byte	0x349d
 10463 2394 A8230000 		.4byte	0x23a8
 10464 2398 19       		.uleb128 0x19
 10465 2399 01       		.uleb128 0x1
 10466 239a 50       		.byte	0x50
 10467 239b 02       		.uleb128 0x2
 10468 239c 74       		.byte	0x74
 10469 239d 00       		.sleb128 0
 10470 239e 19       		.uleb128 0x19
 10471 239f 01       		.uleb128 0x1
 10472 23a0 51       		.byte	0x51
 10473 23a1 05       		.uleb128 0x5
 10474 23a2 03       		.byte	0x3
 10475 23a3 C8010000 		.4byte	.LC30
 10476 23a7 00       		.byte	0
 10477 23a8 1A       		.uleb128 0x1a
 10478 23a9 8A020000 		.4byte	.LVL699
 10479 23ad 66340000 		.4byte	0x3466
 10480 23b1 BC230000 		.4byte	0x23bc
 10481 23b5 19       		.uleb128 0x19
 10482 23b6 01       		.uleb128 0x1
 10483 23b7 50       		.byte	0x50
 10484 23b8 02       		.uleb128 0x2
 10485 23b9 74       		.byte	0x74
 10486 23ba 00       		.sleb128 0
 10487 23bb 00       		.byte	0
 10488 23bc 1A       		.uleb128 0x1a
 10489 23bd 92020000 		.4byte	.LVL700
 10490 23c1 80030000 		.4byte	0x380
 10491 23c5 D0230000 		.4byte	0x23d0
 10492 23c9 19       		.uleb128 0x19
 10493 23ca 01       		.uleb128 0x1
 10494 23cb 50       		.byte	0x50
 10495 23cc 02       		.uleb128 0x2
 10496 23cd 74       		.byte	0x74
 10497 23ce 00       		.sleb128 0
 10498 23cf 00       		.byte	0
 10499 23d0 18       		.uleb128 0x18
 10500 23d1 98020000 		.4byte	.LVL701
 10501 23d5 7C340000 		.4byte	0x347c
 10502 23d9 19       		.uleb128 0x19
 10503 23da 01       		.uleb128 0x1
 10504 23db 50       		.byte	0x50
 10505 23dc 02       		.uleb128 0x2
 10506 23dd 74       		.byte	0x74
 10507 23de 00       		.sleb128 0
 10508 23df 00       		.byte	0
 10509 23e0 00       		.byte	0
 10510 23e1 13       		.uleb128 0x13
 10511 23e2 78030000 		.4byte	.LBB74
 10512 23e6 84000000 		.4byte	.LBE74-.LBB74
 10513 23ea FC240000 		.4byte	0x24fc
ARM GAS  C:\Users\FRANKL~1\AppData\Local\Temp\ccPy0viy.s 			page 219


 10514 23ee 14       		.uleb128 0x14
 10515 23ef 70090000 		.4byte	.LASF149
 10516 23f3 02       		.byte	0x2
 10517 23f4 D703     		.2byte	0x3d7
 10518 23f6 92000000 		.4byte	0x92
 10519 23fa 02       		.uleb128 0x2
 10520 23fb 91       		.byte	0x91
 10521 23fc 64       		.sleb128 -28
 10522 23fd 15       		.uleb128 0x15
 10523 23fe 7F010000 		.4byte	.LASF147
 10524 2402 02       		.byte	0x2
 10525 2403 D803     		.2byte	0x3d8
 10526 2405 B5000000 		.4byte	0xb5
 10527 2409 5C160000 		.4byte	.LLST151
 10528 240d 15       		.uleb128 0x15
 10529 240e 2D000000 		.4byte	.LASF148
 10530 2412 02       		.byte	0x2
 10531 2413 D903     		.2byte	0x3d9
 10532 2415 B5000000 		.4byte	0xb5
 10533 2419 6F160000 		.4byte	.LLST152
 10534 241d 1A       		.uleb128 0x1a
 10535 241e 96030000 		.4byte	.LVL714
 10536 2422 66340000 		.4byte	0x3466
 10537 2426 31240000 		.4byte	0x2431
 10538 242a 19       		.uleb128 0x19
 10539 242b 01       		.uleb128 0x1
 10540 242c 50       		.byte	0x50
 10541 242d 02       		.uleb128 0x2
 10542 242e 75       		.byte	0x75
 10543 242f 00       		.sleb128 0
 10544 2430 00       		.byte	0
 10545 2431 1A       		.uleb128 0x1a
 10546 2432 9E030000 		.4byte	.LVL715
 10547 2436 80030000 		.4byte	0x380
 10548 243a 45240000 		.4byte	0x2445
 10549 243e 19       		.uleb128 0x19
 10550 243f 01       		.uleb128 0x1
 10551 2440 50       		.byte	0x50
 10552 2441 02       		.uleb128 0x2
 10553 2442 75       		.byte	0x75
 10554 2443 00       		.sleb128 0
 10555 2444 00       		.byte	0
 10556 2445 1A       		.uleb128 0x1a
 10557 2446 A4030000 		.4byte	.LVL716
 10558 244a 7C340000 		.4byte	0x347c
 10559 244e 59240000 		.4byte	0x2459
 10560 2452 19       		.uleb128 0x19
 10561 2453 01       		.uleb128 0x1
 10562 2454 50       		.byte	0x50
 10563 2455 02       		.uleb128 0x2
 10564 2456 75       		.byte	0x75
 10565 2457 00       		.sleb128 0
 10566 2458 00       		.byte	0
 10567 2459 1A       		.uleb128 0x1a
 10568 245a AC030000 		.4byte	.LVL717
 10569 245e 63350000 		.4byte	0x3563
 10570 2462 73240000 		.4byte	0x2473
ARM GAS  C:\Users\FRANKL~1\AppData\Local\Temp\ccPy0viy.s 			page 220


 10571 2466 19       		.uleb128 0x19
 10572 2467 01       		.uleb128 0x1
 10573 2468 50       		.byte	0x50
 10574 2469 02       		.uleb128 0x2
 10575 246a 74       		.byte	0x74
 10576 246b 00       		.sleb128 0
 10577 246c 19       		.uleb128 0x19
 10578 246d 01       		.uleb128 0x1
 10579 246e 51       		.byte	0x51
 10580 246f 02       		.uleb128 0x2
 10581 2470 08       		.byte	0x8
 10582 2471 20       		.byte	0x20
 10583 2472 00       		.byte	0
 10584 2473 1A       		.uleb128 0x1a
 10585 2474 BA030000 		.4byte	.LVL719
 10586 2478 72350000 		.4byte	0x3572
 10587 247c 8C240000 		.4byte	0x248c
 10588 2480 19       		.uleb128 0x19
 10589 2481 01       		.uleb128 0x1
 10590 2482 51       		.byte	0x51
 10591 2483 02       		.uleb128 0x2
 10592 2484 74       		.byte	0x74
 10593 2485 00       		.sleb128 0
 10594 2486 19       		.uleb128 0x19
 10595 2487 01       		.uleb128 0x1
 10596 2488 52       		.byte	0x52
 10597 2489 01       		.uleb128 0x1
 10598 248a 3A       		.byte	0x3a
 10599 248b 00       		.byte	0
 10600 248c 1A       		.uleb128 0x1a
 10601 248d C6030000 		.4byte	.LVL721
 10602 2491 72350000 		.4byte	0x3572
 10603 2495 A5240000 		.4byte	0x24a5
 10604 2499 19       		.uleb128 0x19
 10605 249a 01       		.uleb128 0x1
 10606 249b 51       		.byte	0x51
 10607 249c 02       		.uleb128 0x2
 10608 249d 74       		.byte	0x74
 10609 249e 00       		.sleb128 0
 10610 249f 19       		.uleb128 0x19
 10611 24a0 01       		.uleb128 0x1
 10612 24a1 52       		.byte	0x52
 10613 24a2 01       		.uleb128 0x1
 10614 24a3 3A       		.byte	0x3a
 10615 24a4 00       		.byte	0
 10616 24a5 1A       		.uleb128 0x1a
 10617 24a6 D2030000 		.4byte	.LVL723
 10618 24aa 8E1D0000 		.4byte	0x1d8e
 10619 24ae C3240000 		.4byte	0x24c3
 10620 24b2 19       		.uleb128 0x19
 10621 24b3 01       		.uleb128 0x1
 10622 24b4 50       		.byte	0x50
 10623 24b5 02       		.uleb128 0x2
 10624 24b6 76       		.byte	0x76
 10625 24b7 00       		.sleb128 0
 10626 24b8 19       		.uleb128 0x19
 10627 24b9 01       		.uleb128 0x1
ARM GAS  C:\Users\FRANKL~1\AppData\Local\Temp\ccPy0viy.s 			page 221


 10628 24ba 52       		.byte	0x52
 10629 24bb 01       		.uleb128 0x1
 10630 24bc 30       		.byte	0x30
 10631 24bd 19       		.uleb128 0x19
 10632 24be 01       		.uleb128 0x1
 10633 24bf 53       		.byte	0x53
 10634 24c0 01       		.uleb128 0x1
 10635 24c1 30       		.byte	0x30
 10636 24c2 00       		.byte	0
 10637 24c3 1A       		.uleb128 0x1a
 10638 24c4 EE030000 		.4byte	.LVL724
 10639 24c8 66340000 		.4byte	0x3466
 10640 24cc D7240000 		.4byte	0x24d7
 10641 24d0 19       		.uleb128 0x19
 10642 24d1 01       		.uleb128 0x1
 10643 24d2 50       		.byte	0x50
 10644 24d3 02       		.uleb128 0x2
 10645 24d4 75       		.byte	0x75
 10646 24d5 00       		.sleb128 0
 10647 24d6 00       		.byte	0
 10648 24d7 1A       		.uleb128 0x1a
 10649 24d8 F6030000 		.4byte	.LVL725
 10650 24dc 80030000 		.4byte	0x380
 10651 24e0 EB240000 		.4byte	0x24eb
 10652 24e4 19       		.uleb128 0x19
 10653 24e5 01       		.uleb128 0x1
 10654 24e6 50       		.byte	0x50
 10655 24e7 02       		.uleb128 0x2
 10656 24e8 75       		.byte	0x75
 10657 24e9 00       		.sleb128 0
 10658 24ea 00       		.byte	0
 10659 24eb 18       		.uleb128 0x18
 10660 24ec FC030000 		.4byte	.LVL726
 10661 24f0 7C340000 		.4byte	0x347c
 10662 24f4 19       		.uleb128 0x19
 10663 24f5 01       		.uleb128 0x1
 10664 24f6 50       		.byte	0x50
 10665 24f7 02       		.uleb128 0x2
 10666 24f8 75       		.byte	0x75
 10667 24f9 00       		.sleb128 0
 10668 24fa 00       		.byte	0
 10669 24fb 00       		.byte	0
 10670 24fc 13       		.uleb128 0x13
 10671 24fd 0A040000 		.4byte	.LBB75
 10672 2501 90000000 		.4byte	.LBE75-.LBB75
 10673 2505 17260000 		.4byte	0x2617
 10674 2509 14       		.uleb128 0x14
 10675 250a 70090000 		.4byte	.LASF149
 10676 250e 02       		.byte	0x2
 10677 250f E503     		.2byte	0x3e5
 10678 2511 92000000 		.4byte	0x92
 10679 2515 02       		.uleb128 0x2
 10680 2516 91       		.byte	0x91
 10681 2517 64       		.sleb128 -28
 10682 2518 15       		.uleb128 0x15
 10683 2519 7F010000 		.4byte	.LASF147
 10684 251d 02       		.byte	0x2
ARM GAS  C:\Users\FRANKL~1\AppData\Local\Temp\ccPy0viy.s 			page 222


 10685 251e E603     		.2byte	0x3e6
 10686 2520 B5000000 		.4byte	0xb5
 10687 2524 8D160000 		.4byte	.LLST153
 10688 2528 15       		.uleb128 0x15
 10689 2529 2D000000 		.4byte	.LASF148
 10690 252d 02       		.byte	0x2
 10691 252e E703     		.2byte	0x3e7
 10692 2530 B5000000 		.4byte	0xb5
 10693 2534 A0160000 		.4byte	.LLST154
 10694 2538 1A       		.uleb128 0x1a
 10695 2539 2E040000 		.4byte	.LVL729
 10696 253d 66340000 		.4byte	0x3466
 10697 2541 4C250000 		.4byte	0x254c
 10698 2545 19       		.uleb128 0x19
 10699 2546 01       		.uleb128 0x1
 10700 2547 50       		.byte	0x50
 10701 2548 02       		.uleb128 0x2
 10702 2549 75       		.byte	0x75
 10703 254a 00       		.sleb128 0
 10704 254b 00       		.byte	0
 10705 254c 1A       		.uleb128 0x1a
 10706 254d 36040000 		.4byte	.LVL730
 10707 2551 80030000 		.4byte	0x380
 10708 2555 60250000 		.4byte	0x2560
 10709 2559 19       		.uleb128 0x19
 10710 255a 01       		.uleb128 0x1
 10711 255b 50       		.byte	0x50
 10712 255c 02       		.uleb128 0x2
 10713 255d 75       		.byte	0x75
 10714 255e 00       		.sleb128 0
 10715 255f 00       		.byte	0
 10716 2560 1A       		.uleb128 0x1a
 10717 2561 3C040000 		.4byte	.LVL731
 10718 2565 7C340000 		.4byte	0x347c
 10719 2569 74250000 		.4byte	0x2574
 10720 256d 19       		.uleb128 0x19
 10721 256e 01       		.uleb128 0x1
 10722 256f 50       		.byte	0x50
 10723 2570 02       		.uleb128 0x2
 10724 2571 75       		.byte	0x75
 10725 2572 00       		.sleb128 0
 10726 2573 00       		.byte	0
 10727 2574 1A       		.uleb128 0x1a
 10728 2575 44040000 		.4byte	.LVL732
 10729 2579 63350000 		.4byte	0x3563
 10730 257d 8E250000 		.4byte	0x258e
 10731 2581 19       		.uleb128 0x19
 10732 2582 01       		.uleb128 0x1
 10733 2583 50       		.byte	0x50
 10734 2584 02       		.uleb128 0x2
 10735 2585 74       		.byte	0x74
 10736 2586 00       		.sleb128 0
 10737 2587 19       		.uleb128 0x19
 10738 2588 01       		.uleb128 0x1
 10739 2589 51       		.byte	0x51
 10740 258a 02       		.uleb128 0x2
 10741 258b 08       		.byte	0x8
ARM GAS  C:\Users\FRANKL~1\AppData\Local\Temp\ccPy0viy.s 			page 223


 10742 258c 20       		.byte	0x20
 10743 258d 00       		.byte	0
 10744 258e 1A       		.uleb128 0x1a
 10745 258f 52040000 		.4byte	.LVL734
 10746 2593 72350000 		.4byte	0x3572
 10747 2597 A7250000 		.4byte	0x25a7
 10748 259b 19       		.uleb128 0x19
 10749 259c 01       		.uleb128 0x1
 10750 259d 51       		.byte	0x51
 10751 259e 02       		.uleb128 0x2
 10752 259f 74       		.byte	0x74
 10753 25a0 00       		.sleb128 0
 10754 25a1 19       		.uleb128 0x19
 10755 25a2 01       		.uleb128 0x1
 10756 25a3 52       		.byte	0x52
 10757 25a4 01       		.uleb128 0x1
 10758 25a5 3A       		.byte	0x3a
 10759 25a6 00       		.byte	0
 10760 25a7 1A       		.uleb128 0x1a
 10761 25a8 5E040000 		.4byte	.LVL736
 10762 25ac 72350000 		.4byte	0x3572
 10763 25b0 C0250000 		.4byte	0x25c0
 10764 25b4 19       		.uleb128 0x19
 10765 25b5 01       		.uleb128 0x1
 10766 25b6 51       		.byte	0x51
 10767 25b7 02       		.uleb128 0x2
 10768 25b8 74       		.byte	0x74
 10769 25b9 00       		.sleb128 0
 10770 25ba 19       		.uleb128 0x19
 10771 25bb 01       		.uleb128 0x1
 10772 25bc 52       		.byte	0x52
 10773 25bd 01       		.uleb128 0x1
 10774 25be 3A       		.byte	0x3a
 10775 25bf 00       		.byte	0
 10776 25c0 1A       		.uleb128 0x1a
 10777 25c1 6A040000 		.4byte	.LVL738
 10778 25c5 8E1D0000 		.4byte	0x1d8e
 10779 25c9 DE250000 		.4byte	0x25de
 10780 25cd 19       		.uleb128 0x19
 10781 25ce 01       		.uleb128 0x1
 10782 25cf 50       		.byte	0x50
 10783 25d0 02       		.uleb128 0x2
 10784 25d1 76       		.byte	0x76
 10785 25d2 00       		.sleb128 0
 10786 25d3 19       		.uleb128 0x19
 10787 25d4 01       		.uleb128 0x1
 10788 25d5 52       		.byte	0x52
 10789 25d6 01       		.uleb128 0x1
 10790 25d7 30       		.byte	0x30
 10791 25d8 19       		.uleb128 0x19
 10792 25d9 01       		.uleb128 0x1
 10793 25da 53       		.byte	0x53
 10794 25db 01       		.uleb128 0x1
 10795 25dc 31       		.byte	0x31
 10796 25dd 00       		.byte	0
 10797 25de 1A       		.uleb128 0x1a
 10798 25df 8C040000 		.4byte	.LVL739
ARM GAS  C:\Users\FRANKL~1\AppData\Local\Temp\ccPy0viy.s 			page 224


 10799 25e3 66340000 		.4byte	0x3466
 10800 25e7 F2250000 		.4byte	0x25f2
 10801 25eb 19       		.uleb128 0x19
 10802 25ec 01       		.uleb128 0x1
 10803 25ed 50       		.byte	0x50
 10804 25ee 02       		.uleb128 0x2
 10805 25ef 75       		.byte	0x75
 10806 25f0 00       		.sleb128 0
 10807 25f1 00       		.byte	0
 10808 25f2 1A       		.uleb128 0x1a
 10809 25f3 94040000 		.4byte	.LVL740
 10810 25f7 80030000 		.4byte	0x380
 10811 25fb 06260000 		.4byte	0x2606
 10812 25ff 19       		.uleb128 0x19
 10813 2600 01       		.uleb128 0x1
 10814 2601 50       		.byte	0x50
 10815 2602 02       		.uleb128 0x2
 10816 2603 75       		.byte	0x75
 10817 2604 00       		.sleb128 0
 10818 2605 00       		.byte	0
 10819 2606 18       		.uleb128 0x18
 10820 2607 9A040000 		.4byte	.LVL741
 10821 260b 7C340000 		.4byte	0x347c
 10822 260f 19       		.uleb128 0x19
 10823 2610 01       		.uleb128 0x1
 10824 2611 50       		.byte	0x50
 10825 2612 02       		.uleb128 0x2
 10826 2613 75       		.byte	0x75
 10827 2614 00       		.sleb128 0
 10828 2615 00       		.byte	0
 10829 2616 00       		.byte	0
 10830 2617 13       		.uleb128 0x13
 10831 2618 A8040000 		.4byte	.LBB76
 10832 261c 9A000000 		.4byte	.LBE76-.LBB76
 10833 2620 32270000 		.4byte	0x2732
 10834 2624 14       		.uleb128 0x14
 10835 2625 70090000 		.4byte	.LASF149
 10836 2629 02       		.byte	0x2
 10837 262a F303     		.2byte	0x3f3
 10838 262c 92000000 		.4byte	0x92
 10839 2630 02       		.uleb128 0x2
 10840 2631 91       		.byte	0x91
 10841 2632 64       		.sleb128 -28
 10842 2633 15       		.uleb128 0x15
 10843 2634 7F010000 		.4byte	.LASF147
 10844 2638 02       		.byte	0x2
 10845 2639 F403     		.2byte	0x3f4
 10846 263b B5000000 		.4byte	0xb5
 10847 263f BE160000 		.4byte	.LLST155
 10848 2643 15       		.uleb128 0x15
 10849 2644 2D000000 		.4byte	.LASF148
 10850 2648 02       		.byte	0x2
 10851 2649 F503     		.2byte	0x3f5
 10852 264b B5000000 		.4byte	0xb5
 10853 264f D1160000 		.4byte	.LLST156
 10854 2653 1A       		.uleb128 0x1a
 10855 2654 D0040000 		.4byte	.LVL744
ARM GAS  C:\Users\FRANKL~1\AppData\Local\Temp\ccPy0viy.s 			page 225


 10856 2658 66340000 		.4byte	0x3466
 10857 265c 67260000 		.4byte	0x2667
 10858 2660 19       		.uleb128 0x19
 10859 2661 01       		.uleb128 0x1
 10860 2662 50       		.byte	0x50
 10861 2663 02       		.uleb128 0x2
 10862 2664 75       		.byte	0x75
 10863 2665 00       		.sleb128 0
 10864 2666 00       		.byte	0
 10865 2667 1A       		.uleb128 0x1a
 10866 2668 D8040000 		.4byte	.LVL745
 10867 266c 80030000 		.4byte	0x380
 10868 2670 7B260000 		.4byte	0x267b
 10869 2674 19       		.uleb128 0x19
 10870 2675 01       		.uleb128 0x1
 10871 2676 50       		.byte	0x50
 10872 2677 02       		.uleb128 0x2
 10873 2678 75       		.byte	0x75
 10874 2679 00       		.sleb128 0
 10875 267a 00       		.byte	0
 10876 267b 1A       		.uleb128 0x1a
 10877 267c DE040000 		.4byte	.LVL746
 10878 2680 7C340000 		.4byte	0x347c
 10879 2684 8F260000 		.4byte	0x268f
 10880 2688 19       		.uleb128 0x19
 10881 2689 01       		.uleb128 0x1
 10882 268a 50       		.byte	0x50
 10883 268b 02       		.uleb128 0x2
 10884 268c 75       		.byte	0x75
 10885 268d 00       		.sleb128 0
 10886 268e 00       		.byte	0
 10887 268f 1A       		.uleb128 0x1a
 10888 2690 E6040000 		.4byte	.LVL747
 10889 2694 63350000 		.4byte	0x3563
 10890 2698 A9260000 		.4byte	0x26a9
 10891 269c 19       		.uleb128 0x19
 10892 269d 01       		.uleb128 0x1
 10893 269e 50       		.byte	0x50
 10894 269f 02       		.uleb128 0x2
 10895 26a0 74       		.byte	0x74
 10896 26a1 00       		.sleb128 0
 10897 26a2 19       		.uleb128 0x19
 10898 26a3 01       		.uleb128 0x1
 10899 26a4 51       		.byte	0x51
 10900 26a5 02       		.uleb128 0x2
 10901 26a6 08       		.byte	0x8
 10902 26a7 20       		.byte	0x20
 10903 26a8 00       		.byte	0
 10904 26a9 1A       		.uleb128 0x1a
 10905 26aa F4040000 		.4byte	.LVL749
 10906 26ae 72350000 		.4byte	0x3572
 10907 26b2 C2260000 		.4byte	0x26c2
 10908 26b6 19       		.uleb128 0x19
 10909 26b7 01       		.uleb128 0x1
 10910 26b8 51       		.byte	0x51
 10911 26b9 02       		.uleb128 0x2
 10912 26ba 74       		.byte	0x74
ARM GAS  C:\Users\FRANKL~1\AppData\Local\Temp\ccPy0viy.s 			page 226


 10913 26bb 00       		.sleb128 0
 10914 26bc 19       		.uleb128 0x19
 10915 26bd 01       		.uleb128 0x1
 10916 26be 52       		.byte	0x52
 10917 26bf 01       		.uleb128 0x1
 10918 26c0 3A       		.byte	0x3a
 10919 26c1 00       		.byte	0
 10920 26c2 1A       		.uleb128 0x1a
 10921 26c3 00050000 		.4byte	.LVL751
 10922 26c7 72350000 		.4byte	0x3572
 10923 26cb DB260000 		.4byte	0x26db
 10924 26cf 19       		.uleb128 0x19
 10925 26d0 01       		.uleb128 0x1
 10926 26d1 51       		.byte	0x51
 10927 26d2 02       		.uleb128 0x2
 10928 26d3 74       		.byte	0x74
 10929 26d4 00       		.sleb128 0
 10930 26d5 19       		.uleb128 0x19
 10931 26d6 01       		.uleb128 0x1
 10932 26d7 52       		.byte	0x52
 10933 26d8 01       		.uleb128 0x1
 10934 26d9 3A       		.byte	0x3a
 10935 26da 00       		.byte	0
 10936 26db 1A       		.uleb128 0x1a
 10937 26dc 0C050000 		.4byte	.LVL753
 10938 26e0 8E1D0000 		.4byte	0x1d8e
 10939 26e4 F9260000 		.4byte	0x26f9
 10940 26e8 19       		.uleb128 0x19
 10941 26e9 01       		.uleb128 0x1
 10942 26ea 50       		.byte	0x50
 10943 26eb 02       		.uleb128 0x2
 10944 26ec 76       		.byte	0x76
 10945 26ed 00       		.sleb128 0
 10946 26ee 19       		.uleb128 0x19
 10947 26ef 01       		.uleb128 0x1
 10948 26f0 52       		.byte	0x52
 10949 26f1 01       		.uleb128 0x1
 10950 26f2 31       		.byte	0x31
 10951 26f3 19       		.uleb128 0x19
 10952 26f4 01       		.uleb128 0x1
 10953 26f5 53       		.byte	0x53
 10954 26f6 01       		.uleb128 0x1
 10955 26f7 31       		.byte	0x31
 10956 26f8 00       		.byte	0
 10957 26f9 1A       		.uleb128 0x1a
 10958 26fa 34050000 		.4byte	.LVL755
 10959 26fe 66340000 		.4byte	0x3466
 10960 2702 0D270000 		.4byte	0x270d
 10961 2706 19       		.uleb128 0x19
 10962 2707 01       		.uleb128 0x1
 10963 2708 50       		.byte	0x50
 10964 2709 02       		.uleb128 0x2
 10965 270a 74       		.byte	0x74
 10966 270b 00       		.sleb128 0
 10967 270c 00       		.byte	0
 10968 270d 1A       		.uleb128 0x1a
 10969 270e 3C050000 		.4byte	.LVL756
ARM GAS  C:\Users\FRANKL~1\AppData\Local\Temp\ccPy0viy.s 			page 227


 10970 2712 80030000 		.4byte	0x380
 10971 2716 21270000 		.4byte	0x2721
 10972 271a 19       		.uleb128 0x19
 10973 271b 01       		.uleb128 0x1
 10974 271c 50       		.byte	0x50
 10975 271d 02       		.uleb128 0x2
 10976 271e 74       		.byte	0x74
 10977 271f 00       		.sleb128 0
 10978 2720 00       		.byte	0
 10979 2721 18       		.uleb128 0x18
 10980 2722 42050000 		.4byte	.LVL757
 10981 2726 7C340000 		.4byte	0x347c
 10982 272a 19       		.uleb128 0x19
 10983 272b 01       		.uleb128 0x1
 10984 272c 50       		.byte	0x50
 10985 272d 02       		.uleb128 0x2
 10986 272e 74       		.byte	0x74
 10987 272f 00       		.sleb128 0
 10988 2730 00       		.byte	0
 10989 2731 00       		.byte	0
 10990 2732 13       		.uleb128 0x13
 10991 2733 50050000 		.4byte	.LBB77
 10992 2737 4E000000 		.4byte	.LBE77-.LBB77
 10993 273b 36280000 		.4byte	0x2836
 10994 273f 14       		.uleb128 0x14
 10995 2740 70090000 		.4byte	.LASF149
 10996 2744 02       		.byte	0x2
 10997 2745 FD03     		.2byte	0x3fd
 10998 2747 92000000 		.4byte	0x92
 10999 274b 02       		.uleb128 0x2
 11000 274c 91       		.byte	0x91
 11001 274d 64       		.sleb128 -28
 11002 274e 15       		.uleb128 0x15
 11003 274f 02020000 		.4byte	.LASF69
 11004 2753 02       		.byte	0x2
 11005 2754 FE03     		.2byte	0x3fe
 11006 2756 B5000000 		.4byte	0xb5
 11007 275a EF160000 		.4byte	.LLST157
 11008 275e 15       		.uleb128 0x15
 11009 275f E50B0000 		.4byte	.LASF67
 11010 2763 02       		.byte	0x2
 11011 2764 FF03     		.2byte	0x3ff
 11012 2766 B5000000 		.4byte	0xb5
 11013 276a 02170000 		.4byte	.LLST158
 11014 276e 1A       		.uleb128 0x1a
 11015 276f 58050000 		.4byte	.LVL760
 11016 2773 63350000 		.4byte	0x3563
 11017 2777 88270000 		.4byte	0x2788
 11018 277b 19       		.uleb128 0x19
 11019 277c 01       		.uleb128 0x1
 11020 277d 50       		.byte	0x50
 11021 277e 02       		.uleb128 0x2
 11022 277f 74       		.byte	0x74
 11023 2780 00       		.sleb128 0
 11024 2781 19       		.uleb128 0x19
 11025 2782 01       		.uleb128 0x1
 11026 2783 51       		.byte	0x51
ARM GAS  C:\Users\FRANKL~1\AppData\Local\Temp\ccPy0viy.s 			page 228


 11027 2784 02       		.uleb128 0x2
 11028 2785 08       		.byte	0x8
 11029 2786 20       		.byte	0x20
 11030 2787 00       		.byte	0
 11031 2788 1A       		.uleb128 0x1a
 11032 2789 66050000 		.4byte	.LVL762
 11033 278d 72350000 		.4byte	0x3572
 11034 2791 A1270000 		.4byte	0x27a1
 11035 2795 19       		.uleb128 0x19
 11036 2796 01       		.uleb128 0x1
 11037 2797 51       		.byte	0x51
 11038 2798 02       		.uleb128 0x2
 11039 2799 74       		.byte	0x74
 11040 279a 00       		.sleb128 0
 11041 279b 19       		.uleb128 0x19
 11042 279c 01       		.uleb128 0x1
 11043 279d 52       		.byte	0x52
 11044 279e 01       		.uleb128 0x1
 11045 279f 3A       		.byte	0x3a
 11046 27a0 00       		.byte	0
 11047 27a1 1A       		.uleb128 0x1a
 11048 27a2 72050000 		.4byte	.LVL764
 11049 27a6 72350000 		.4byte	0x3572
 11050 27aa BA270000 		.4byte	0x27ba
 11051 27ae 19       		.uleb128 0x19
 11052 27af 01       		.uleb128 0x1
 11053 27b0 51       		.byte	0x51
 11054 27b1 02       		.uleb128 0x2
 11055 27b2 74       		.byte	0x74
 11056 27b3 00       		.sleb128 0
 11057 27b4 19       		.uleb128 0x19
 11058 27b5 01       		.uleb128 0x1
 11059 27b6 52       		.byte	0x52
 11060 27b7 01       		.uleb128 0x1
 11061 27b8 3A       		.byte	0x3a
 11062 27b9 00       		.byte	0
 11063 27ba 1A       		.uleb128 0x1a
 11064 27bb 7C050000 		.4byte	.LVL766
 11065 27bf D50B0000 		.4byte	0xbd5
 11066 27c3 D4270000 		.4byte	0x27d4
 11067 27c7 19       		.uleb128 0x19
 11068 27c8 01       		.uleb128 0x1
 11069 27c9 50       		.byte	0x50
 11070 27ca 02       		.uleb128 0x2
 11071 27cb 75       		.byte	0x75
 11072 27cc 00       		.sleb128 0
 11073 27cd 19       		.uleb128 0x19
 11074 27ce 01       		.uleb128 0x1
 11075 27cf 51       		.byte	0x51
 11076 27d0 02       		.uleb128 0x2
 11077 27d1 76       		.byte	0x76
 11078 27d2 00       		.sleb128 0
 11079 27d3 00       		.byte	0
 11080 27d4 1A       		.uleb128 0x1a
 11081 27d5 8A050000 		.4byte	.LVL767
 11082 27d9 9D340000 		.4byte	0x349d
 11083 27dd FD270000 		.4byte	0x27fd
ARM GAS  C:\Users\FRANKL~1\AppData\Local\Temp\ccPy0viy.s 			page 229


 11084 27e1 19       		.uleb128 0x19
 11085 27e2 01       		.uleb128 0x1
 11086 27e3 50       		.byte	0x50
 11087 27e4 02       		.uleb128 0x2
 11088 27e5 74       		.byte	0x74
 11089 27e6 00       		.sleb128 0
 11090 27e7 19       		.uleb128 0x19
 11091 27e8 01       		.uleb128 0x1
 11092 27e9 51       		.byte	0x51
 11093 27ea 05       		.uleb128 0x5
 11094 27eb 03       		.byte	0x3
 11095 27ec 14030000 		.4byte	.LC44
 11096 27f0 19       		.uleb128 0x19
 11097 27f1 01       		.uleb128 0x1
 11098 27f2 52       		.byte	0x52
 11099 27f3 02       		.uleb128 0x2
 11100 27f4 75       		.byte	0x75
 11101 27f5 00       		.sleb128 0
 11102 27f6 19       		.uleb128 0x19
 11103 27f7 01       		.uleb128 0x1
 11104 27f8 53       		.byte	0x53
 11105 27f9 02       		.uleb128 0x2
 11106 27fa 76       		.byte	0x76
 11107 27fb 00       		.sleb128 0
 11108 27fc 00       		.byte	0
 11109 27fd 1A       		.uleb128 0x1a
 11110 27fe 90050000 		.4byte	.LVL768
 11111 2802 66340000 		.4byte	0x3466
 11112 2806 11280000 		.4byte	0x2811
 11113 280a 19       		.uleb128 0x19
 11114 280b 01       		.uleb128 0x1
 11115 280c 50       		.byte	0x50
 11116 280d 02       		.uleb128 0x2
 11117 280e 74       		.byte	0x74
 11118 280f 00       		.sleb128 0
 11119 2810 00       		.byte	0
 11120 2811 1A       		.uleb128 0x1a
 11121 2812 98050000 		.4byte	.LVL769
 11122 2816 80030000 		.4byte	0x380
 11123 281a 25280000 		.4byte	0x2825
 11124 281e 19       		.uleb128 0x19
 11125 281f 01       		.uleb128 0x1
 11126 2820 50       		.byte	0x50
 11127 2821 02       		.uleb128 0x2
 11128 2822 74       		.byte	0x74
 11129 2823 00       		.sleb128 0
 11130 2824 00       		.byte	0
 11131 2825 18       		.uleb128 0x18
 11132 2826 9E050000 		.4byte	.LVL770
 11133 282a 7C340000 		.4byte	0x347c
 11134 282e 19       		.uleb128 0x19
 11135 282f 01       		.uleb128 0x1
 11136 2830 50       		.byte	0x50
 11137 2831 02       		.uleb128 0x2
 11138 2832 74       		.byte	0x74
 11139 2833 00       		.sleb128 0
 11140 2834 00       		.byte	0
ARM GAS  C:\Users\FRANKL~1\AppData\Local\Temp\ccPy0viy.s 			page 230


 11141 2835 00       		.byte	0
 11142 2836 13       		.uleb128 0x13
 11143 2837 AC050000 		.4byte	.LBB78
 11144 283b 4E000000 		.4byte	.LBE78-.LBB78
 11145 283f 3A290000 		.4byte	0x293a
 11146 2843 14       		.uleb128 0x14
 11147 2844 70090000 		.4byte	.LASF149
 11148 2848 02       		.byte	0x2
 11149 2849 0704     		.2byte	0x407
 11150 284b 92000000 		.4byte	0x92
 11151 284f 02       		.uleb128 0x2
 11152 2850 91       		.byte	0x91
 11153 2851 64       		.sleb128 -28
 11154 2852 15       		.uleb128 0x15
 11155 2853 060C0000 		.4byte	.LASF66
 11156 2857 02       		.byte	0x2
 11157 2858 0804     		.2byte	0x408
 11158 285a B5000000 		.4byte	0xb5
 11159 285e 15170000 		.4byte	.LLST159
 11160 2862 15       		.uleb128 0x15
 11161 2863 E50B0000 		.4byte	.LASF67
 11162 2867 02       		.byte	0x2
 11163 2868 0904     		.2byte	0x409
 11164 286a B5000000 		.4byte	0xb5
 11165 286e 28170000 		.4byte	.LLST160
 11166 2872 1A       		.uleb128 0x1a
 11167 2873 B4050000 		.4byte	.LVL773
 11168 2877 63350000 		.4byte	0x3563
 11169 287b 8C280000 		.4byte	0x288c
 11170 287f 19       		.uleb128 0x19
 11171 2880 01       		.uleb128 0x1
 11172 2881 50       		.byte	0x50
 11173 2882 02       		.uleb128 0x2
 11174 2883 74       		.byte	0x74
 11175 2884 00       		.sleb128 0
 11176 2885 19       		.uleb128 0x19
 11177 2886 01       		.uleb128 0x1
 11178 2887 51       		.byte	0x51
 11179 2888 02       		.uleb128 0x2
 11180 2889 08       		.byte	0x8
 11181 288a 20       		.byte	0x20
 11182 288b 00       		.byte	0
 11183 288c 1A       		.uleb128 0x1a
 11184 288d C2050000 		.4byte	.LVL775
 11185 2891 72350000 		.4byte	0x3572
 11186 2895 A5280000 		.4byte	0x28a5
 11187 2899 19       		.uleb128 0x19
 11188 289a 01       		.uleb128 0x1
 11189 289b 51       		.byte	0x51
 11190 289c 02       		.uleb128 0x2
 11191 289d 74       		.byte	0x74
 11192 289e 00       		.sleb128 0
 11193 289f 19       		.uleb128 0x19
 11194 28a0 01       		.uleb128 0x1
 11195 28a1 52       		.byte	0x52
 11196 28a2 01       		.uleb128 0x1
 11197 28a3 3A       		.byte	0x3a
ARM GAS  C:\Users\FRANKL~1\AppData\Local\Temp\ccPy0viy.s 			page 231


 11198 28a4 00       		.byte	0
 11199 28a5 1A       		.uleb128 0x1a
 11200 28a6 CE050000 		.4byte	.LVL777
 11201 28aa 72350000 		.4byte	0x3572
 11202 28ae BE280000 		.4byte	0x28be
 11203 28b2 19       		.uleb128 0x19
 11204 28b3 01       		.uleb128 0x1
 11205 28b4 51       		.byte	0x51
 11206 28b5 02       		.uleb128 0x2
 11207 28b6 74       		.byte	0x74
 11208 28b7 00       		.sleb128 0
 11209 28b8 19       		.uleb128 0x19
 11210 28b9 01       		.uleb128 0x1
 11211 28ba 52       		.byte	0x52
 11212 28bb 01       		.uleb128 0x1
 11213 28bc 3A       		.byte	0x3a
 11214 28bd 00       		.byte	0
 11215 28be 1A       		.uleb128 0x1a
 11216 28bf D8050000 		.4byte	.LVL779
 11217 28c3 980B0000 		.4byte	0xb98
 11218 28c7 D8280000 		.4byte	0x28d8
 11219 28cb 19       		.uleb128 0x19
 11220 28cc 01       		.uleb128 0x1
 11221 28cd 50       		.byte	0x50
 11222 28ce 02       		.uleb128 0x2
 11223 28cf 75       		.byte	0x75
 11224 28d0 00       		.sleb128 0
 11225 28d1 19       		.uleb128 0x19
 11226 28d2 01       		.uleb128 0x1
 11227 28d3 51       		.byte	0x51
 11228 28d4 02       		.uleb128 0x2
 11229 28d5 76       		.byte	0x76
 11230 28d6 00       		.sleb128 0
 11231 28d7 00       		.byte	0
 11232 28d8 1A       		.uleb128 0x1a
 11233 28d9 E6050000 		.4byte	.LVL780
 11234 28dd 9D340000 		.4byte	0x349d
 11235 28e1 01290000 		.4byte	0x2901
 11236 28e5 19       		.uleb128 0x19
 11237 28e6 01       		.uleb128 0x1
 11238 28e7 50       		.byte	0x50
 11239 28e8 02       		.uleb128 0x2
 11240 28e9 74       		.byte	0x74
 11241 28ea 00       		.sleb128 0
 11242 28eb 19       		.uleb128 0x19
 11243 28ec 01       		.uleb128 0x1
 11244 28ed 51       		.byte	0x51
 11245 28ee 05       		.uleb128 0x5
 11246 28ef 03       		.byte	0x3
 11247 28f0 38030000 		.4byte	.LC46
 11248 28f4 19       		.uleb128 0x19
 11249 28f5 01       		.uleb128 0x1
 11250 28f6 52       		.byte	0x52
 11251 28f7 02       		.uleb128 0x2
 11252 28f8 75       		.byte	0x75
 11253 28f9 00       		.sleb128 0
 11254 28fa 19       		.uleb128 0x19
ARM GAS  C:\Users\FRANKL~1\AppData\Local\Temp\ccPy0viy.s 			page 232


 11255 28fb 01       		.uleb128 0x1
 11256 28fc 53       		.byte	0x53
 11257 28fd 02       		.uleb128 0x2
 11258 28fe 76       		.byte	0x76
 11259 28ff 00       		.sleb128 0
 11260 2900 00       		.byte	0
 11261 2901 1A       		.uleb128 0x1a
 11262 2902 EC050000 		.4byte	.LVL781
 11263 2906 66340000 		.4byte	0x3466
 11264 290a 15290000 		.4byte	0x2915
 11265 290e 19       		.uleb128 0x19
 11266 290f 01       		.uleb128 0x1
 11267 2910 50       		.byte	0x50
 11268 2911 02       		.uleb128 0x2
 11269 2912 74       		.byte	0x74
 11270 2913 00       		.sleb128 0
 11271 2914 00       		.byte	0
 11272 2915 1A       		.uleb128 0x1a
 11273 2916 F4050000 		.4byte	.LVL782
 11274 291a 80030000 		.4byte	0x380
 11275 291e 29290000 		.4byte	0x2929
 11276 2922 19       		.uleb128 0x19
 11277 2923 01       		.uleb128 0x1
 11278 2924 50       		.byte	0x50
 11279 2925 02       		.uleb128 0x2
 11280 2926 74       		.byte	0x74
 11281 2927 00       		.sleb128 0
 11282 2928 00       		.byte	0
 11283 2929 18       		.uleb128 0x18
 11284 292a FA050000 		.4byte	.LVL783
 11285 292e 7C340000 		.4byte	0x347c
 11286 2932 19       		.uleb128 0x19
 11287 2933 01       		.uleb128 0x1
 11288 2934 50       		.byte	0x50
 11289 2935 02       		.uleb128 0x2
 11290 2936 74       		.byte	0x74
 11291 2937 00       		.sleb128 0
 11292 2938 00       		.byte	0
 11293 2939 00       		.byte	0
 11294 293a 13       		.uleb128 0x13
 11295 293b 08060000 		.4byte	.LBB79
 11296 293f 4E000000 		.4byte	.LBE79-.LBB79
 11297 2943 3E2A0000 		.4byte	0x2a3e
 11298 2947 14       		.uleb128 0x14
 11299 2948 70090000 		.4byte	.LASF149
 11300 294c 02       		.byte	0x2
 11301 294d 1104     		.2byte	0x411
 11302 294f 92000000 		.4byte	0x92
 11303 2953 02       		.uleb128 0x2
 11304 2954 91       		.byte	0x91
 11305 2955 64       		.sleb128 -28
 11306 2956 15       		.uleb128 0x15
 11307 2957 02020000 		.4byte	.LASF69
 11308 295b 02       		.byte	0x2
 11309 295c 1204     		.2byte	0x412
 11310 295e B5000000 		.4byte	0xb5
 11311 2962 3B170000 		.4byte	.LLST161
ARM GAS  C:\Users\FRANKL~1\AppData\Local\Temp\ccPy0viy.s 			page 233


 11312 2966 15       		.uleb128 0x15
 11313 2967 E50B0000 		.4byte	.LASF67
 11314 296b 02       		.byte	0x2
 11315 296c 1304     		.2byte	0x413
 11316 296e B5000000 		.4byte	0xb5
 11317 2972 4E170000 		.4byte	.LLST162
 11318 2976 1A       		.uleb128 0x1a
 11319 2977 10060000 		.4byte	.LVL786
 11320 297b 63350000 		.4byte	0x3563
 11321 297f 90290000 		.4byte	0x2990
 11322 2983 19       		.uleb128 0x19
 11323 2984 01       		.uleb128 0x1
 11324 2985 50       		.byte	0x50
 11325 2986 02       		.uleb128 0x2
 11326 2987 74       		.byte	0x74
 11327 2988 00       		.sleb128 0
 11328 2989 19       		.uleb128 0x19
 11329 298a 01       		.uleb128 0x1
 11330 298b 51       		.byte	0x51
 11331 298c 02       		.uleb128 0x2
 11332 298d 08       		.byte	0x8
 11333 298e 20       		.byte	0x20
 11334 298f 00       		.byte	0
 11335 2990 1A       		.uleb128 0x1a
 11336 2991 1E060000 		.4byte	.LVL788
 11337 2995 72350000 		.4byte	0x3572
 11338 2999 A9290000 		.4byte	0x29a9
 11339 299d 19       		.uleb128 0x19
 11340 299e 01       		.uleb128 0x1
 11341 299f 51       		.byte	0x51
 11342 29a0 02       		.uleb128 0x2
 11343 29a1 74       		.byte	0x74
 11344 29a2 00       		.sleb128 0
 11345 29a3 19       		.uleb128 0x19
 11346 29a4 01       		.uleb128 0x1
 11347 29a5 52       		.byte	0x52
 11348 29a6 01       		.uleb128 0x1
 11349 29a7 3A       		.byte	0x3a
 11350 29a8 00       		.byte	0
 11351 29a9 1A       		.uleb128 0x1a
 11352 29aa 2A060000 		.4byte	.LVL790
 11353 29ae 72350000 		.4byte	0x3572
 11354 29b2 C2290000 		.4byte	0x29c2
 11355 29b6 19       		.uleb128 0x19
 11356 29b7 01       		.uleb128 0x1
 11357 29b8 51       		.byte	0x51
 11358 29b9 02       		.uleb128 0x2
 11359 29ba 74       		.byte	0x74
 11360 29bb 00       		.sleb128 0
 11361 29bc 19       		.uleb128 0x19
 11362 29bd 01       		.uleb128 0x1
 11363 29be 52       		.byte	0x52
 11364 29bf 01       		.uleb128 0x1
 11365 29c0 3A       		.byte	0x3a
 11366 29c1 00       		.byte	0
 11367 29c2 1A       		.uleb128 0x1a
 11368 29c3 34060000 		.4byte	.LVL792
ARM GAS  C:\Users\FRANKL~1\AppData\Local\Temp\ccPy0viy.s 			page 234


 11369 29c7 210C0000 		.4byte	0xc21
 11370 29cb DC290000 		.4byte	0x29dc
 11371 29cf 19       		.uleb128 0x19
 11372 29d0 01       		.uleb128 0x1
 11373 29d1 50       		.byte	0x50
 11374 29d2 02       		.uleb128 0x2
 11375 29d3 75       		.byte	0x75
 11376 29d4 00       		.sleb128 0
 11377 29d5 19       		.uleb128 0x19
 11378 29d6 01       		.uleb128 0x1
 11379 29d7 51       		.byte	0x51
 11380 29d8 02       		.uleb128 0x2
 11381 29d9 76       		.byte	0x76
 11382 29da 00       		.sleb128 0
 11383 29db 00       		.byte	0
 11384 29dc 1A       		.uleb128 0x1a
 11385 29dd 42060000 		.4byte	.LVL793
 11386 29e1 9D340000 		.4byte	0x349d
 11387 29e5 052A0000 		.4byte	0x2a05
 11388 29e9 19       		.uleb128 0x19
 11389 29ea 01       		.uleb128 0x1
 11390 29eb 50       		.byte	0x50
 11391 29ec 02       		.uleb128 0x2
 11392 29ed 74       		.byte	0x74
 11393 29ee 00       		.sleb128 0
 11394 29ef 19       		.uleb128 0x19
 11395 29f0 01       		.uleb128 0x1
 11396 29f1 51       		.byte	0x51
 11397 29f2 05       		.uleb128 0x5
 11398 29f3 03       		.byte	0x3
 11399 29f4 64030000 		.4byte	.LC48
 11400 29f8 19       		.uleb128 0x19
 11401 29f9 01       		.uleb128 0x1
 11402 29fa 52       		.byte	0x52
 11403 29fb 02       		.uleb128 0x2
 11404 29fc 75       		.byte	0x75
 11405 29fd 00       		.sleb128 0
 11406 29fe 19       		.uleb128 0x19
 11407 29ff 01       		.uleb128 0x1
 11408 2a00 53       		.byte	0x53
 11409 2a01 02       		.uleb128 0x2
 11410 2a02 76       		.byte	0x76
 11411 2a03 00       		.sleb128 0
 11412 2a04 00       		.byte	0
 11413 2a05 1A       		.uleb128 0x1a
 11414 2a06 48060000 		.4byte	.LVL794
 11415 2a0a 66340000 		.4byte	0x3466
 11416 2a0e 192A0000 		.4byte	0x2a19
 11417 2a12 19       		.uleb128 0x19
 11418 2a13 01       		.uleb128 0x1
 11419 2a14 50       		.byte	0x50
 11420 2a15 02       		.uleb128 0x2
 11421 2a16 74       		.byte	0x74
 11422 2a17 00       		.sleb128 0
 11423 2a18 00       		.byte	0
 11424 2a19 1A       		.uleb128 0x1a
 11425 2a1a 50060000 		.4byte	.LVL795
ARM GAS  C:\Users\FRANKL~1\AppData\Local\Temp\ccPy0viy.s 			page 235


 11426 2a1e 80030000 		.4byte	0x380
 11427 2a22 2D2A0000 		.4byte	0x2a2d
 11428 2a26 19       		.uleb128 0x19
 11429 2a27 01       		.uleb128 0x1
 11430 2a28 50       		.byte	0x50
 11431 2a29 02       		.uleb128 0x2
 11432 2a2a 74       		.byte	0x74
 11433 2a2b 00       		.sleb128 0
 11434 2a2c 00       		.byte	0
 11435 2a2d 18       		.uleb128 0x18
 11436 2a2e 56060000 		.4byte	.LVL796
 11437 2a32 7C340000 		.4byte	0x347c
 11438 2a36 19       		.uleb128 0x19
 11439 2a37 01       		.uleb128 0x1
 11440 2a38 50       		.byte	0x50
 11441 2a39 02       		.uleb128 0x2
 11442 2a3a 74       		.byte	0x74
 11443 2a3b 00       		.sleb128 0
 11444 2a3c 00       		.byte	0
 11445 2a3d 00       		.byte	0
 11446 2a3e 13       		.uleb128 0x13
 11447 2a3f 64060000 		.4byte	.LBB80
 11448 2a43 3C000000 		.4byte	.LBE80-.LBB80
 11449 2a47 0D2B0000 		.4byte	0x2b0d
 11450 2a4b 14       		.uleb128 0x14
 11451 2a4c 70090000 		.4byte	.LASF149
 11452 2a50 02       		.byte	0x2
 11453 2a51 1B04     		.2byte	0x41b
 11454 2a53 92000000 		.4byte	0x92
 11455 2a57 02       		.uleb128 0x2
 11456 2a58 91       		.byte	0x91
 11457 2a59 64       		.sleb128 -28
 11458 2a5a 15       		.uleb128 0x15
 11459 2a5b E50B0000 		.4byte	.LASF67
 11460 2a5f 02       		.byte	0x2
 11461 2a60 1C04     		.2byte	0x41c
 11462 2a62 B5000000 		.4byte	0xb5
 11463 2a66 61170000 		.4byte	.LLST163
 11464 2a6a 1A       		.uleb128 0x1a
 11465 2a6b 6C060000 		.4byte	.LVL799
 11466 2a6f 63350000 		.4byte	0x3563
 11467 2a73 842A0000 		.4byte	0x2a84
 11468 2a77 19       		.uleb128 0x19
 11469 2a78 01       		.uleb128 0x1
 11470 2a79 50       		.byte	0x50
 11471 2a7a 02       		.uleb128 0x2
 11472 2a7b 74       		.byte	0x74
 11473 2a7c 00       		.sleb128 0
 11474 2a7d 19       		.uleb128 0x19
 11475 2a7e 01       		.uleb128 0x1
 11476 2a7f 51       		.byte	0x51
 11477 2a80 02       		.uleb128 0x2
 11478 2a81 08       		.byte	0x8
 11479 2a82 20       		.byte	0x20
 11480 2a83 00       		.byte	0
 11481 2a84 1A       		.uleb128 0x1a
 11482 2a85 78060000 		.4byte	.LVL800
ARM GAS  C:\Users\FRANKL~1\AppData\Local\Temp\ccPy0viy.s 			page 236


 11483 2a89 72350000 		.4byte	0x3572
 11484 2a8d 9D2A0000 		.4byte	0x2a9d
 11485 2a91 19       		.uleb128 0x19
 11486 2a92 01       		.uleb128 0x1
 11487 2a93 51       		.byte	0x51
 11488 2a94 02       		.uleb128 0x2
 11489 2a95 91       		.byte	0x91
 11490 2a96 64       		.sleb128 -28
 11491 2a97 19       		.uleb128 0x19
 11492 2a98 01       		.uleb128 0x1
 11493 2a99 52       		.byte	0x52
 11494 2a9a 01       		.uleb128 0x1
 11495 2a9b 3A       		.byte	0x3a
 11496 2a9c 00       		.byte	0
 11497 2a9d 1A       		.uleb128 0x1a
 11498 2a9e 80060000 		.4byte	.LVL802
 11499 2aa2 2F0D0000 		.4byte	0xd2f
 11500 2aa6 B12A0000 		.4byte	0x2ab1
 11501 2aaa 19       		.uleb128 0x19
 11502 2aab 01       		.uleb128 0x1
 11503 2aac 50       		.byte	0x50
 11504 2aad 02       		.uleb128 0x2
 11505 2aae 75       		.byte	0x75
 11506 2aaf 00       		.sleb128 0
 11507 2ab0 00       		.byte	0
 11508 2ab1 1A       		.uleb128 0x1a
 11509 2ab2 8C060000 		.4byte	.LVL804
 11510 2ab6 9D340000 		.4byte	0x349d
 11511 2aba D42A0000 		.4byte	0x2ad4
 11512 2abe 19       		.uleb128 0x19
 11513 2abf 01       		.uleb128 0x1
 11514 2ac0 50       		.byte	0x50
 11515 2ac1 02       		.uleb128 0x2
 11516 2ac2 74       		.byte	0x74
 11517 2ac3 00       		.sleb128 0
 11518 2ac4 19       		.uleb128 0x19
 11519 2ac5 01       		.uleb128 0x1
 11520 2ac6 51       		.byte	0x51
 11521 2ac7 05       		.uleb128 0x5
 11522 2ac8 03       		.byte	0x3
 11523 2ac9 98030000 		.4byte	.LC50
 11524 2acd 19       		.uleb128 0x19
 11525 2ace 01       		.uleb128 0x1
 11526 2acf 52       		.byte	0x52
 11527 2ad0 02       		.uleb128 0x2
 11528 2ad1 75       		.byte	0x75
 11529 2ad2 00       		.sleb128 0
 11530 2ad3 00       		.byte	0
 11531 2ad4 1A       		.uleb128 0x1a
 11532 2ad5 92060000 		.4byte	.LVL805
 11533 2ad9 66340000 		.4byte	0x3466
 11534 2add E82A0000 		.4byte	0x2ae8
 11535 2ae1 19       		.uleb128 0x19
 11536 2ae2 01       		.uleb128 0x1
 11537 2ae3 50       		.byte	0x50
 11538 2ae4 02       		.uleb128 0x2
 11539 2ae5 74       		.byte	0x74
ARM GAS  C:\Users\FRANKL~1\AppData\Local\Temp\ccPy0viy.s 			page 237


 11540 2ae6 00       		.sleb128 0
 11541 2ae7 00       		.byte	0
 11542 2ae8 1A       		.uleb128 0x1a
 11543 2ae9 9A060000 		.4byte	.LVL806
 11544 2aed 80030000 		.4byte	0x380
 11545 2af1 FC2A0000 		.4byte	0x2afc
 11546 2af5 19       		.uleb128 0x19
 11547 2af6 01       		.uleb128 0x1
 11548 2af7 50       		.byte	0x50
 11549 2af8 02       		.uleb128 0x2
 11550 2af9 74       		.byte	0x74
 11551 2afa 00       		.sleb128 0
 11552 2afb 00       		.byte	0
 11553 2afc 18       		.uleb128 0x18
 11554 2afd A0060000 		.4byte	.LVL807
 11555 2b01 7C340000 		.4byte	0x347c
 11556 2b05 19       		.uleb128 0x19
 11557 2b06 01       		.uleb128 0x1
 11558 2b07 50       		.byte	0x50
 11559 2b08 02       		.uleb128 0x2
 11560 2b09 74       		.byte	0x74
 11561 2b0a 00       		.sleb128 0
 11562 2b0b 00       		.byte	0
 11563 2b0c 00       		.byte	0
 11564 2b0d 13       		.uleb128 0x13
 11565 2b0e 38070000 		.4byte	.LBB81
 11566 2b12 3C000000 		.4byte	.LBE81-.LBB81
 11567 2b16 DC2B0000 		.4byte	0x2bdc
 11568 2b1a 14       		.uleb128 0x14
 11569 2b1b 70090000 		.4byte	.LASF149
 11570 2b1f 02       		.byte	0x2
 11571 2b20 2B04     		.2byte	0x42b
 11572 2b22 92000000 		.4byte	0x92
 11573 2b26 02       		.uleb128 0x2
 11574 2b27 91       		.byte	0x91
 11575 2b28 64       		.sleb128 -28
 11576 2b29 15       		.uleb128 0x15
 11577 2b2a 02020000 		.4byte	.LASF69
 11578 2b2e 02       		.byte	0x2
 11579 2b2f 2C04     		.2byte	0x42c
 11580 2b31 B5000000 		.4byte	0xb5
 11581 2b35 74170000 		.4byte	.LLST164
 11582 2b39 1A       		.uleb128 0x1a
 11583 2b3a 40070000 		.4byte	.LVL817
 11584 2b3e 63350000 		.4byte	0x3563
 11585 2b42 532B0000 		.4byte	0x2b53
 11586 2b46 19       		.uleb128 0x19
 11587 2b47 01       		.uleb128 0x1
 11588 2b48 50       		.byte	0x50
 11589 2b49 02       		.uleb128 0x2
 11590 2b4a 74       		.byte	0x74
 11591 2b4b 00       		.sleb128 0
 11592 2b4c 19       		.uleb128 0x19
 11593 2b4d 01       		.uleb128 0x1
 11594 2b4e 51       		.byte	0x51
 11595 2b4f 02       		.uleb128 0x2
 11596 2b50 08       		.byte	0x8
ARM GAS  C:\Users\FRANKL~1\AppData\Local\Temp\ccPy0viy.s 			page 238


 11597 2b51 20       		.byte	0x20
 11598 2b52 00       		.byte	0
 11599 2b53 1A       		.uleb128 0x1a
 11600 2b54 4C070000 		.4byte	.LVL818
 11601 2b58 72350000 		.4byte	0x3572
 11602 2b5c 6C2B0000 		.4byte	0x2b6c
 11603 2b60 19       		.uleb128 0x19
 11604 2b61 01       		.uleb128 0x1
 11605 2b62 51       		.byte	0x51
 11606 2b63 02       		.uleb128 0x2
 11607 2b64 91       		.byte	0x91
 11608 2b65 64       		.sleb128 -28
 11609 2b66 19       		.uleb128 0x19
 11610 2b67 01       		.uleb128 0x1
 11611 2b68 52       		.byte	0x52
 11612 2b69 01       		.uleb128 0x1
 11613 2b6a 3A       		.byte	0x3a
 11614 2b6b 00       		.byte	0
 11615 2b6c 1A       		.uleb128 0x1a
 11616 2b6d 54070000 		.4byte	.LVL820
 11617 2b71 6D0C0000 		.4byte	0xc6d
 11618 2b75 802B0000 		.4byte	0x2b80
 11619 2b79 19       		.uleb128 0x19
 11620 2b7a 01       		.uleb128 0x1
 11621 2b7b 50       		.byte	0x50
 11622 2b7c 02       		.uleb128 0x2
 11623 2b7d 75       		.byte	0x75
 11624 2b7e 00       		.sleb128 0
 11625 2b7f 00       		.byte	0
 11626 2b80 1A       		.uleb128 0x1a
 11627 2b81 60070000 		.4byte	.LVL822
 11628 2b85 9D340000 		.4byte	0x349d
 11629 2b89 A32B0000 		.4byte	0x2ba3
 11630 2b8d 19       		.uleb128 0x19
 11631 2b8e 01       		.uleb128 0x1
 11632 2b8f 50       		.byte	0x50
 11633 2b90 02       		.uleb128 0x2
 11634 2b91 74       		.byte	0x74
 11635 2b92 00       		.sleb128 0
 11636 2b93 19       		.uleb128 0x19
 11637 2b94 01       		.uleb128 0x1
 11638 2b95 51       		.byte	0x51
 11639 2b96 05       		.uleb128 0x5
 11640 2b97 03       		.byte	0x3
 11641 2b98 0C040000 		.4byte	.LC54
 11642 2b9c 19       		.uleb128 0x19
 11643 2b9d 01       		.uleb128 0x1
 11644 2b9e 52       		.byte	0x52
 11645 2b9f 02       		.uleb128 0x2
 11646 2ba0 75       		.byte	0x75
 11647 2ba1 00       		.sleb128 0
 11648 2ba2 00       		.byte	0
 11649 2ba3 1A       		.uleb128 0x1a
 11650 2ba4 66070000 		.4byte	.LVL823
 11651 2ba8 66340000 		.4byte	0x3466
 11652 2bac B72B0000 		.4byte	0x2bb7
 11653 2bb0 19       		.uleb128 0x19
ARM GAS  C:\Users\FRANKL~1\AppData\Local\Temp\ccPy0viy.s 			page 239


 11654 2bb1 01       		.uleb128 0x1
 11655 2bb2 50       		.byte	0x50
 11656 2bb3 02       		.uleb128 0x2
 11657 2bb4 74       		.byte	0x74
 11658 2bb5 00       		.sleb128 0
 11659 2bb6 00       		.byte	0
 11660 2bb7 1A       		.uleb128 0x1a
 11661 2bb8 6E070000 		.4byte	.LVL824
 11662 2bbc 80030000 		.4byte	0x380
 11663 2bc0 CB2B0000 		.4byte	0x2bcb
 11664 2bc4 19       		.uleb128 0x19
 11665 2bc5 01       		.uleb128 0x1
 11666 2bc6 50       		.byte	0x50
 11667 2bc7 02       		.uleb128 0x2
 11668 2bc8 74       		.byte	0x74
 11669 2bc9 00       		.sleb128 0
 11670 2bca 00       		.byte	0
 11671 2bcb 18       		.uleb128 0x18
 11672 2bcc 74070000 		.4byte	.LVL825
 11673 2bd0 7C340000 		.4byte	0x347c
 11674 2bd4 19       		.uleb128 0x19
 11675 2bd5 01       		.uleb128 0x1
 11676 2bd6 50       		.byte	0x50
 11677 2bd7 02       		.uleb128 0x2
 11678 2bd8 74       		.byte	0x74
 11679 2bd9 00       		.sleb128 0
 11680 2bda 00       		.byte	0
 11681 2bdb 00       		.byte	0
 11682 2bdc 13       		.uleb128 0x13
 11683 2bdd 82070000 		.4byte	.LBB82
 11684 2be1 3C000000 		.4byte	.LBE82-.LBB82
 11685 2be5 AB2C0000 		.4byte	0x2cab
 11686 2be9 14       		.uleb128 0x14
 11687 2bea 70090000 		.4byte	.LASF149
 11688 2bee 02       		.byte	0x2
 11689 2bef 3404     		.2byte	0x434
 11690 2bf1 92000000 		.4byte	0x92
 11691 2bf5 02       		.uleb128 0x2
 11692 2bf6 91       		.byte	0x91
 11693 2bf7 64       		.sleb128 -28
 11694 2bf8 15       		.uleb128 0x15
 11695 2bf9 E50B0000 		.4byte	.LASF67
 11696 2bfd 02       		.byte	0x2
 11697 2bfe 3504     		.2byte	0x435
 11698 2c00 B5000000 		.4byte	0xb5
 11699 2c04 87170000 		.4byte	.LLST165
 11700 2c08 1A       		.uleb128 0x1a
 11701 2c09 8A070000 		.4byte	.LVL828
 11702 2c0d 63350000 		.4byte	0x3563
 11703 2c11 222C0000 		.4byte	0x2c22
 11704 2c15 19       		.uleb128 0x19
 11705 2c16 01       		.uleb128 0x1
 11706 2c17 50       		.byte	0x50
 11707 2c18 02       		.uleb128 0x2
 11708 2c19 74       		.byte	0x74
 11709 2c1a 00       		.sleb128 0
 11710 2c1b 19       		.uleb128 0x19
ARM GAS  C:\Users\FRANKL~1\AppData\Local\Temp\ccPy0viy.s 			page 240


 11711 2c1c 01       		.uleb128 0x1
 11712 2c1d 51       		.byte	0x51
 11713 2c1e 02       		.uleb128 0x2
 11714 2c1f 08       		.byte	0x8
 11715 2c20 20       		.byte	0x20
 11716 2c21 00       		.byte	0
 11717 2c22 1A       		.uleb128 0x1a
 11718 2c23 96070000 		.4byte	.LVL829
 11719 2c27 72350000 		.4byte	0x3572
 11720 2c2b 3B2C0000 		.4byte	0x2c3b
 11721 2c2f 19       		.uleb128 0x19
 11722 2c30 01       		.uleb128 0x1
 11723 2c31 51       		.byte	0x51
 11724 2c32 02       		.uleb128 0x2
 11725 2c33 91       		.byte	0x91
 11726 2c34 64       		.sleb128 -28
 11727 2c35 19       		.uleb128 0x19
 11728 2c36 01       		.uleb128 0x1
 11729 2c37 52       		.byte	0x52
 11730 2c38 01       		.uleb128 0x1
 11731 2c39 3A       		.byte	0x3a
 11732 2c3a 00       		.byte	0
 11733 2c3b 1A       		.uleb128 0x1a
 11734 2c3c 9E070000 		.4byte	.LVL831
 11735 2c40 7D0D0000 		.4byte	0xd7d
 11736 2c44 4F2C0000 		.4byte	0x2c4f
 11737 2c48 19       		.uleb128 0x19
 11738 2c49 01       		.uleb128 0x1
 11739 2c4a 50       		.byte	0x50
 11740 2c4b 02       		.uleb128 0x2
 11741 2c4c 75       		.byte	0x75
 11742 2c4d 00       		.sleb128 0
 11743 2c4e 00       		.byte	0
 11744 2c4f 1A       		.uleb128 0x1a
 11745 2c50 AA070000 		.4byte	.LVL833
 11746 2c54 9D340000 		.4byte	0x349d
 11747 2c58 722C0000 		.4byte	0x2c72
 11748 2c5c 19       		.uleb128 0x19
 11749 2c5d 01       		.uleb128 0x1
 11750 2c5e 50       		.byte	0x50
 11751 2c5f 02       		.uleb128 0x2
 11752 2c60 74       		.byte	0x74
 11753 2c61 00       		.sleb128 0
 11754 2c62 19       		.uleb128 0x19
 11755 2c63 01       		.uleb128 0x1
 11756 2c64 51       		.byte	0x51
 11757 2c65 05       		.uleb128 0x5
 11758 2c66 03       		.byte	0x3
 11759 2c67 44040000 		.4byte	.LC56
 11760 2c6b 19       		.uleb128 0x19
 11761 2c6c 01       		.uleb128 0x1
 11762 2c6d 52       		.byte	0x52
 11763 2c6e 02       		.uleb128 0x2
 11764 2c6f 75       		.byte	0x75
 11765 2c70 00       		.sleb128 0
 11766 2c71 00       		.byte	0
 11767 2c72 1A       		.uleb128 0x1a
ARM GAS  C:\Users\FRANKL~1\AppData\Local\Temp\ccPy0viy.s 			page 241


 11768 2c73 B0070000 		.4byte	.LVL834
 11769 2c77 66340000 		.4byte	0x3466
 11770 2c7b 862C0000 		.4byte	0x2c86
 11771 2c7f 19       		.uleb128 0x19
 11772 2c80 01       		.uleb128 0x1
 11773 2c81 50       		.byte	0x50
 11774 2c82 02       		.uleb128 0x2
 11775 2c83 74       		.byte	0x74
 11776 2c84 00       		.sleb128 0
 11777 2c85 00       		.byte	0
 11778 2c86 1A       		.uleb128 0x1a
 11779 2c87 B8070000 		.4byte	.LVL835
 11780 2c8b 80030000 		.4byte	0x380
 11781 2c8f 9A2C0000 		.4byte	0x2c9a
 11782 2c93 19       		.uleb128 0x19
 11783 2c94 01       		.uleb128 0x1
 11784 2c95 50       		.byte	0x50
 11785 2c96 02       		.uleb128 0x2
 11786 2c97 74       		.byte	0x74
 11787 2c98 00       		.sleb128 0
 11788 2c99 00       		.byte	0
 11789 2c9a 18       		.uleb128 0x18
 11790 2c9b BE070000 		.4byte	.LVL836
 11791 2c9f 7C340000 		.4byte	0x347c
 11792 2ca3 19       		.uleb128 0x19
 11793 2ca4 01       		.uleb128 0x1
 11794 2ca5 50       		.byte	0x50
 11795 2ca6 02       		.uleb128 0x2
 11796 2ca7 74       		.byte	0x74
 11797 2ca8 00       		.sleb128 0
 11798 2ca9 00       		.byte	0
 11799 2caa 00       		.byte	0
 11800 2cab 13       		.uleb128 0x13
 11801 2cac 08080000 		.4byte	.LBB83
 11802 2cb0 54000000 		.4byte	.LBE83-.LBB83
 11803 2cb4 432D0000 		.4byte	0x2d43
 11804 2cb8 14       		.uleb128 0x14
 11805 2cb9 70090000 		.4byte	.LASF149
 11806 2cbd 02       		.byte	0x2
 11807 2cbe 4404     		.2byte	0x444
 11808 2cc0 92000000 		.4byte	0x92
 11809 2cc4 02       		.uleb128 0x2
 11810 2cc5 91       		.byte	0x91
 11811 2cc6 64       		.sleb128 -28
 11812 2cc7 15       		.uleb128 0x15
 11813 2cc8 F4090000 		.4byte	.LASF49
 11814 2ccc 02       		.byte	0x2
 11815 2ccd 4504     		.2byte	0x445
 11816 2ccf CD000000 		.4byte	0xcd
 11817 2cd3 9A170000 		.4byte	.LLST166
 11818 2cd7 1A       		.uleb128 0x1a
 11819 2cd8 10080000 		.4byte	.LVL846
 11820 2cdc 63350000 		.4byte	0x3563
 11821 2ce0 F12C0000 		.4byte	0x2cf1
 11822 2ce4 19       		.uleb128 0x19
 11823 2ce5 01       		.uleb128 0x1
 11824 2ce6 50       		.byte	0x50
ARM GAS  C:\Users\FRANKL~1\AppData\Local\Temp\ccPy0viy.s 			page 242


 11825 2ce7 02       		.uleb128 0x2
 11826 2ce8 74       		.byte	0x74
 11827 2ce9 00       		.sleb128 0
 11828 2cea 19       		.uleb128 0x19
 11829 2ceb 01       		.uleb128 0x1
 11830 2cec 51       		.byte	0x51
 11831 2ced 02       		.uleb128 0x2
 11832 2cee 08       		.byte	0x8
 11833 2cef 20       		.byte	0x20
 11834 2cf0 00       		.byte	0
 11835 2cf1 1A       		.uleb128 0x1a
 11836 2cf2 1C080000 		.4byte	.LVL847
 11837 2cf6 72350000 		.4byte	0x3572
 11838 2cfa 0A2D0000 		.4byte	0x2d0a
 11839 2cfe 19       		.uleb128 0x19
 11840 2cff 01       		.uleb128 0x1
 11841 2d00 51       		.byte	0x51
 11842 2d01 02       		.uleb128 0x2
 11843 2d02 91       		.byte	0x91
 11844 2d03 64       		.sleb128 -28
 11845 2d04 19       		.uleb128 0x19
 11846 2d05 01       		.uleb128 0x1
 11847 2d06 52       		.byte	0x52
 11848 2d07 01       		.uleb128 0x1
 11849 2d08 3A       		.byte	0x3a
 11850 2d09 00       		.byte	0
 11851 2d0a 1A       		.uleb128 0x1a
 11852 2d0b 4E080000 		.4byte	.LVL850
 11853 2d0f 66340000 		.4byte	0x3466
 11854 2d13 1E2D0000 		.4byte	0x2d1e
 11855 2d17 19       		.uleb128 0x19
 11856 2d18 01       		.uleb128 0x1
 11857 2d19 50       		.byte	0x50
 11858 2d1a 02       		.uleb128 0x2
 11859 2d1b 74       		.byte	0x74
 11860 2d1c 00       		.sleb128 0
 11861 2d1d 00       		.byte	0
 11862 2d1e 1A       		.uleb128 0x1a
 11863 2d1f 56080000 		.4byte	.LVL851
 11864 2d23 80030000 		.4byte	0x380
 11865 2d27 322D0000 		.4byte	0x2d32
 11866 2d2b 19       		.uleb128 0x19
 11867 2d2c 01       		.uleb128 0x1
 11868 2d2d 50       		.byte	0x50
 11869 2d2e 02       		.uleb128 0x2
 11870 2d2f 74       		.byte	0x74
 11871 2d30 00       		.sleb128 0
 11872 2d31 00       		.byte	0
 11873 2d32 18       		.uleb128 0x18
 11874 2d33 5C080000 		.4byte	.LVL852
 11875 2d37 7C340000 		.4byte	0x347c
 11876 2d3b 19       		.uleb128 0x19
 11877 2d3c 01       		.uleb128 0x1
 11878 2d3d 50       		.byte	0x50
 11879 2d3e 02       		.uleb128 0x2
 11880 2d3f 74       		.byte	0x74
 11881 2d40 00       		.sleb128 0
ARM GAS  C:\Users\FRANKL~1\AppData\Local\Temp\ccPy0viy.s 			page 243


 11882 2d41 00       		.byte	0
 11883 2d42 00       		.byte	0
 11884 2d43 1A       		.uleb128 0x1a
 11885 2d44 94000000 		.4byte	.LVL641
 11886 2d48 0E340000 		.4byte	0x340e
 11887 2d4c 602D0000 		.4byte	0x2d60
 11888 2d50 19       		.uleb128 0x19
 11889 2d51 01       		.uleb128 0x1
 11890 2d52 50       		.byte	0x50
 11891 2d53 02       		.uleb128 0x2
 11892 2d54 74       		.byte	0x74
 11893 2d55 00       		.sleb128 0
 11894 2d56 19       		.uleb128 0x19
 11895 2d57 01       		.uleb128 0x1
 11896 2d58 51       		.byte	0x51
 11897 2d59 05       		.uleb128 0x5
 11898 2d5a 03       		.byte	0x3
 11899 2d5b DC000000 		.4byte	.LC15
 11900 2d5f 00       		.byte	0
 11901 2d60 10       		.uleb128 0x10
 11902 2d61 9C000000 		.4byte	.LVL642
 11903 2d65 25150000 		.4byte	0x1525
 11904 2d69 1A       		.uleb128 0x1a
 11905 2d6a A6000000 		.4byte	.LVL643
 11906 2d6e 0E340000 		.4byte	0x340e
 11907 2d72 862D0000 		.4byte	0x2d86
 11908 2d76 19       		.uleb128 0x19
 11909 2d77 01       		.uleb128 0x1
 11910 2d78 50       		.byte	0x50
 11911 2d79 02       		.uleb128 0x2
 11912 2d7a 74       		.byte	0x74
 11913 2d7b 00       		.sleb128 0
 11914 2d7c 19       		.uleb128 0x19
 11915 2d7d 01       		.uleb128 0x1
 11916 2d7e 51       		.byte	0x51
 11917 2d7f 05       		.uleb128 0x5
 11918 2d80 03       		.byte	0x3
 11919 2d81 E8000000 		.4byte	.LC16
 11920 2d85 00       		.byte	0
 11921 2d86 1A       		.uleb128 0x1a
 11922 2d87 CC000000 		.4byte	.LVL647
 11923 2d8b 0E340000 		.4byte	0x340e
 11924 2d8f A32D0000 		.4byte	0x2da3
 11925 2d93 19       		.uleb128 0x19
 11926 2d94 01       		.uleb128 0x1
 11927 2d95 50       		.byte	0x50
 11928 2d96 02       		.uleb128 0x2
 11929 2d97 74       		.byte	0x74
 11930 2d98 00       		.sleb128 0
 11931 2d99 19       		.uleb128 0x19
 11932 2d9a 01       		.uleb128 0x1
 11933 2d9b 51       		.byte	0x51
 11934 2d9c 05       		.uleb128 0x5
 11935 2d9d 03       		.byte	0x3
 11936 2d9e FC000000 		.4byte	.LC17
 11937 2da2 00       		.byte	0
 11938 2da3 10       		.uleb128 0x10
ARM GAS  C:\Users\FRANKL~1\AppData\Local\Temp\ccPy0viy.s 			page 244


 11939 2da4 D4000000 		.4byte	.LVL648
 11940 2da8 4A0A0000 		.4byte	0xa4a
 11941 2dac 1A       		.uleb128 0x1a
 11942 2dad DE000000 		.4byte	.LVL649
 11943 2db1 0E340000 		.4byte	0x340e
 11944 2db5 C92D0000 		.4byte	0x2dc9
 11945 2db9 19       		.uleb128 0x19
 11946 2dba 01       		.uleb128 0x1
 11947 2dbb 50       		.byte	0x50
 11948 2dbc 02       		.uleb128 0x2
 11949 2dbd 74       		.byte	0x74
 11950 2dbe 00       		.sleb128 0
 11951 2dbf 19       		.uleb128 0x19
 11952 2dc0 01       		.uleb128 0x1
 11953 2dc1 51       		.byte	0x51
 11954 2dc2 05       		.uleb128 0x5
 11955 2dc3 03       		.byte	0x3
 11956 2dc4 0C010000 		.4byte	.LC18
 11957 2dc8 00       		.byte	0
 11958 2dc9 1A       		.uleb128 0x1a
 11959 2dca E8000000 		.4byte	.LVL650
 11960 2dce B7170000 		.4byte	0x17b7
 11961 2dd2 DC2D0000 		.4byte	0x2ddc
 11962 2dd6 19       		.uleb128 0x19
 11963 2dd7 01       		.uleb128 0x1
 11964 2dd8 50       		.byte	0x50
 11965 2dd9 01       		.uleb128 0x1
 11966 2dda 30       		.byte	0x30
 11967 2ddb 00       		.byte	0
 11968 2ddc 1A       		.uleb128 0x1a
 11969 2ddd F2000000 		.4byte	.LVL651
 11970 2de1 0E340000 		.4byte	0x340e
 11971 2de5 F92D0000 		.4byte	0x2df9
 11972 2de9 19       		.uleb128 0x19
 11973 2dea 01       		.uleb128 0x1
 11974 2deb 50       		.byte	0x50
 11975 2dec 02       		.uleb128 0x2
 11976 2ded 74       		.byte	0x74
 11977 2dee 00       		.sleb128 0
 11978 2def 19       		.uleb128 0x19
 11979 2df0 01       		.uleb128 0x1
 11980 2df1 51       		.byte	0x51
 11981 2df2 05       		.uleb128 0x5
 11982 2df3 03       		.byte	0x3
 11983 2df4 20010000 		.4byte	.LC19
 11984 2df8 00       		.byte	0
 11985 2df9 1A       		.uleb128 0x1a
 11986 2dfa FC000000 		.4byte	.LVL652
 11987 2dfe B7170000 		.4byte	0x17b7
 11988 2e02 0C2E0000 		.4byte	0x2e0c
 11989 2e06 19       		.uleb128 0x19
 11990 2e07 01       		.uleb128 0x1
 11991 2e08 50       		.byte	0x50
 11992 2e09 01       		.uleb128 0x1
 11993 2e0a 31       		.byte	0x31
 11994 2e0b 00       		.byte	0
 11995 2e0c 1A       		.uleb128 0x1a
ARM GAS  C:\Users\FRANKL~1\AppData\Local\Temp\ccPy0viy.s 			page 245


 11996 2e0d 06010000 		.4byte	.LVL653
 11997 2e11 0E340000 		.4byte	0x340e
 11998 2e15 292E0000 		.4byte	0x2e29
 11999 2e19 19       		.uleb128 0x19
 12000 2e1a 01       		.uleb128 0x1
 12001 2e1b 50       		.byte	0x50
 12002 2e1c 02       		.uleb128 0x2
 12003 2e1d 74       		.byte	0x74
 12004 2e1e 00       		.sleb128 0
 12005 2e1f 19       		.uleb128 0x19
 12006 2e20 01       		.uleb128 0x1
 12007 2e21 51       		.byte	0x51
 12008 2e22 05       		.uleb128 0x5
 12009 2e23 03       		.byte	0x3
 12010 2e24 3C010000 		.4byte	.LC20
 12011 2e28 00       		.byte	0
 12012 2e29 1A       		.uleb128 0x1a
 12013 2e2a 2E010000 		.4byte	.LVL657
 12014 2e2e 0E340000 		.4byte	0x340e
 12015 2e32 462E0000 		.4byte	0x2e46
 12016 2e36 19       		.uleb128 0x19
 12017 2e37 01       		.uleb128 0x1
 12018 2e38 50       		.byte	0x50
 12019 2e39 02       		.uleb128 0x2
 12020 2e3a 74       		.byte	0x74
 12021 2e3b 00       		.sleb128 0
 12022 2e3c 19       		.uleb128 0x19
 12023 2e3d 01       		.uleb128 0x1
 12024 2e3e 51       		.byte	0x51
 12025 2e3f 05       		.uleb128 0x5
 12026 2e40 03       		.byte	0x3
 12027 2e41 4C010000 		.4byte	.LC21
 12028 2e45 00       		.byte	0
 12029 2e46 1A       		.uleb128 0x1a
 12030 2e47 56010000 		.4byte	.LVL661
 12031 2e4b 0E340000 		.4byte	0x340e
 12032 2e4f 632E0000 		.4byte	0x2e63
 12033 2e53 19       		.uleb128 0x19
 12034 2e54 01       		.uleb128 0x1
 12035 2e55 50       		.byte	0x50
 12036 2e56 02       		.uleb128 0x2
 12037 2e57 74       		.byte	0x74
 12038 2e58 00       		.sleb128 0
 12039 2e59 19       		.uleb128 0x19
 12040 2e5a 01       		.uleb128 0x1
 12041 2e5b 51       		.byte	0x51
 12042 2e5c 05       		.uleb128 0x5
 12043 2e5d 03       		.byte	0x3
 12044 2e5e 5C010000 		.4byte	.LC22
 12045 2e62 00       		.byte	0
 12046 2e63 1A       		.uleb128 0x1a
 12047 2e64 7E010000 		.4byte	.LVL665
 12048 2e68 0E340000 		.4byte	0x340e
 12049 2e6c 802E0000 		.4byte	0x2e80
 12050 2e70 19       		.uleb128 0x19
 12051 2e71 01       		.uleb128 0x1
 12052 2e72 50       		.byte	0x50
ARM GAS  C:\Users\FRANKL~1\AppData\Local\Temp\ccPy0viy.s 			page 246


 12053 2e73 02       		.uleb128 0x2
 12054 2e74 74       		.byte	0x74
 12055 2e75 00       		.sleb128 0
 12056 2e76 19       		.uleb128 0x19
 12057 2e77 01       		.uleb128 0x1
 12058 2e78 51       		.byte	0x51
 12059 2e79 05       		.uleb128 0x5
 12060 2e7a 03       		.byte	0x3
 12061 2e7b 6C010000 		.4byte	.LC23
 12062 2e7f 00       		.byte	0
 12063 2e80 1A       		.uleb128 0x1a
 12064 2e81 A6010000 		.4byte	.LVL669
 12065 2e85 0E340000 		.4byte	0x340e
 12066 2e89 9D2E0000 		.4byte	0x2e9d
 12067 2e8d 19       		.uleb128 0x19
 12068 2e8e 01       		.uleb128 0x1
 12069 2e8f 50       		.byte	0x50
 12070 2e90 02       		.uleb128 0x2
 12071 2e91 74       		.byte	0x74
 12072 2e92 00       		.sleb128 0
 12073 2e93 19       		.uleb128 0x19
 12074 2e94 01       		.uleb128 0x1
 12075 2e95 51       		.byte	0x51
 12076 2e96 05       		.uleb128 0x5
 12077 2e97 03       		.byte	0x3
 12078 2e98 7C010000 		.4byte	.LC24
 12079 2e9c 00       		.byte	0
 12080 2e9d 1A       		.uleb128 0x1a
 12081 2e9e D0010000 		.4byte	.LVL673
 12082 2ea2 0E340000 		.4byte	0x340e
 12083 2ea6 BA2E0000 		.4byte	0x2eba
 12084 2eaa 19       		.uleb128 0x19
 12085 2eab 01       		.uleb128 0x1
 12086 2eac 50       		.byte	0x50
 12087 2ead 02       		.uleb128 0x2
 12088 2eae 74       		.byte	0x74
 12089 2eaf 00       		.sleb128 0
 12090 2eb0 19       		.uleb128 0x19
 12091 2eb1 01       		.uleb128 0x1
 12092 2eb2 51       		.byte	0x51
 12093 2eb3 05       		.uleb128 0x5
 12094 2eb4 03       		.byte	0x3
 12095 2eb5 8C010000 		.4byte	.LC26
 12096 2eb9 00       		.byte	0
 12097 2eba 1A       		.uleb128 0x1a
 12098 2ebb FA010000 		.4byte	.LVL677
 12099 2ebf 0E340000 		.4byte	0x340e
 12100 2ec3 D72E0000 		.4byte	0x2ed7
 12101 2ec7 19       		.uleb128 0x19
 12102 2ec8 01       		.uleb128 0x1
 12103 2ec9 50       		.byte	0x50
 12104 2eca 02       		.uleb128 0x2
 12105 2ecb 74       		.byte	0x74
 12106 2ecc 00       		.sleb128 0
 12107 2ecd 19       		.uleb128 0x19
 12108 2ece 01       		.uleb128 0x1
 12109 2ecf 51       		.byte	0x51
ARM GAS  C:\Users\FRANKL~1\AppData\Local\Temp\ccPy0viy.s 			page 247


 12110 2ed0 05       		.uleb128 0x5
 12111 2ed1 03       		.byte	0x3
 12112 2ed2 98010000 		.4byte	.LC27
 12113 2ed6 00       		.byte	0
 12114 2ed7 1A       		.uleb128 0x1a
 12115 2ed8 4E020000 		.4byte	.LVL690
 12116 2edc 0E340000 		.4byte	0x340e
 12117 2ee0 F42E0000 		.4byte	0x2ef4
 12118 2ee4 19       		.uleb128 0x19
 12119 2ee5 01       		.uleb128 0x1
 12120 2ee6 50       		.byte	0x50
 12121 2ee7 02       		.uleb128 0x2
 12122 2ee8 74       		.byte	0x74
 12123 2ee9 00       		.sleb128 0
 12124 2eea 19       		.uleb128 0x19
 12125 2eeb 01       		.uleb128 0x1
 12126 2eec 51       		.byte	0x51
 12127 2eed 05       		.uleb128 0x5
 12128 2eee 03       		.byte	0x3
 12129 2eef BC010000 		.4byte	.LC29
 12130 2ef3 00       		.byte	0
 12131 2ef4 1A       		.uleb128 0x1a
 12132 2ef5 A2020000 		.4byte	.LVL703
 12133 2ef9 0E340000 		.4byte	0x340e
 12134 2efd 112F0000 		.4byte	0x2f11
 12135 2f01 19       		.uleb128 0x19
 12136 2f02 01       		.uleb128 0x1
 12137 2f03 50       		.byte	0x50
 12138 2f04 02       		.uleb128 0x2
 12139 2f05 74       		.byte	0x74
 12140 2f06 00       		.sleb128 0
 12141 2f07 19       		.uleb128 0x19
 12142 2f08 01       		.uleb128 0x1
 12143 2f09 51       		.byte	0x51
 12144 2f0a 05       		.uleb128 0x5
 12145 2f0b 03       		.byte	0x3
 12146 2f0c E0010000 		.4byte	.LC31
 12147 2f10 00       		.byte	0
 12148 2f11 1A       		.uleb128 0x1a
 12149 2f12 BE020000 		.4byte	.LVL705
 12150 2f16 66340000 		.4byte	0x3466
 12151 2f1a 252F0000 		.4byte	0x2f25
 12152 2f1e 19       		.uleb128 0x19
 12153 2f1f 01       		.uleb128 0x1
 12154 2f20 50       		.byte	0x50
 12155 2f21 02       		.uleb128 0x2
 12156 2f22 74       		.byte	0x74
 12157 2f23 00       		.sleb128 0
 12158 2f24 00       		.byte	0
 12159 2f25 1A       		.uleb128 0x1a
 12160 2f26 C6020000 		.4byte	.LVL706
 12161 2f2a 80030000 		.4byte	0x380
 12162 2f2e 392F0000 		.4byte	0x2f39
 12163 2f32 19       		.uleb128 0x19
 12164 2f33 01       		.uleb128 0x1
 12165 2f34 50       		.byte	0x50
 12166 2f35 02       		.uleb128 0x2
ARM GAS  C:\Users\FRANKL~1\AppData\Local\Temp\ccPy0viy.s 			page 248


 12167 2f36 74       		.byte	0x74
 12168 2f37 00       		.sleb128 0
 12169 2f38 00       		.byte	0
 12170 2f39 1A       		.uleb128 0x1a
 12171 2f3a CC020000 		.4byte	.LVL707
 12172 2f3e 7C340000 		.4byte	0x347c
 12173 2f42 4D2F0000 		.4byte	0x2f4d
 12174 2f46 19       		.uleb128 0x19
 12175 2f47 01       		.uleb128 0x1
 12176 2f48 50       		.byte	0x50
 12177 2f49 02       		.uleb128 0x2
 12178 2f4a 74       		.byte	0x74
 12179 2f4b 00       		.sleb128 0
 12180 2f4c 00       		.byte	0
 12181 2f4d 1A       		.uleb128 0x1a
 12182 2f4e D4020000 		.4byte	.LVL708
 12183 2f52 231C0000 		.4byte	0x1c23
 12184 2f56 652F0000 		.4byte	0x2f65
 12185 2f5a 19       		.uleb128 0x19
 12186 2f5b 01       		.uleb128 0x1
 12187 2f5c 50       		.byte	0x50
 12188 2f5d 01       		.uleb128 0x1
 12189 2f5e 30       		.byte	0x30
 12190 2f5f 19       		.uleb128 0x19
 12191 2f60 01       		.uleb128 0x1
 12192 2f61 51       		.byte	0x51
 12193 2f62 01       		.uleb128 0x1
 12194 2f63 30       		.byte	0x30
 12195 2f64 00       		.byte	0
 12196 2f65 1A       		.uleb128 0x1a
 12197 2f66 EA020000 		.4byte	.LVL709
 12198 2f6a 66340000 		.4byte	0x3466
 12199 2f6e 792F0000 		.4byte	0x2f79
 12200 2f72 19       		.uleb128 0x19
 12201 2f73 01       		.uleb128 0x1
 12202 2f74 50       		.byte	0x50
 12203 2f75 02       		.uleb128 0x2
 12204 2f76 74       		.byte	0x74
 12205 2f77 00       		.sleb128 0
 12206 2f78 00       		.byte	0
 12207 2f79 1A       		.uleb128 0x1a
 12208 2f7a F2020000 		.4byte	.LVL710
 12209 2f7e 80030000 		.4byte	0x380
 12210 2f82 8D2F0000 		.4byte	0x2f8d
 12211 2f86 19       		.uleb128 0x19
 12212 2f87 01       		.uleb128 0x1
 12213 2f88 50       		.byte	0x50
 12214 2f89 02       		.uleb128 0x2
 12215 2f8a 74       		.byte	0x74
 12216 2f8b 00       		.sleb128 0
 12217 2f8c 00       		.byte	0
 12218 2f8d 1A       		.uleb128 0x1a
 12219 2f8e F8020000 		.4byte	.LVL711
 12220 2f92 7C340000 		.4byte	0x347c
 12221 2f96 A12F0000 		.4byte	0x2fa1
 12222 2f9a 19       		.uleb128 0x19
 12223 2f9b 01       		.uleb128 0x1
ARM GAS  C:\Users\FRANKL~1\AppData\Local\Temp\ccPy0viy.s 			page 249


 12224 2f9c 50       		.byte	0x50
 12225 2f9d 02       		.uleb128 0x2
 12226 2f9e 74       		.byte	0x74
 12227 2f9f 00       		.sleb128 0
 12228 2fa0 00       		.byte	0
 12229 2fa1 1A       		.uleb128 0x1a
 12230 2fa2 74030000 		.4byte	.LVL713
 12231 2fa6 0E340000 		.4byte	0x340e
 12232 2faa BE2F0000 		.4byte	0x2fbe
 12233 2fae 19       		.uleb128 0x19
 12234 2faf 01       		.uleb128 0x1
 12235 2fb0 50       		.byte	0x50
 12236 2fb1 02       		.uleb128 0x2
 12237 2fb2 74       		.byte	0x74
 12238 2fb3 00       		.sleb128 0
 12239 2fb4 19       		.uleb128 0x19
 12240 2fb5 01       		.uleb128 0x1
 12241 2fb6 51       		.byte	0x51
 12242 2fb7 05       		.uleb128 0x5
 12243 2fb8 03       		.byte	0x3
 12244 2fb9 10020000 		.4byte	.LC34
 12245 2fbd 00       		.byte	0
 12246 2fbe 1A       		.uleb128 0x1a
 12247 2fbf 06040000 		.4byte	.LVL728
 12248 2fc3 0E340000 		.4byte	0x340e
 12249 2fc7 DB2F0000 		.4byte	0x2fdb
 12250 2fcb 19       		.uleb128 0x19
 12251 2fcc 01       		.uleb128 0x1
 12252 2fcd 50       		.byte	0x50
 12253 2fce 02       		.uleb128 0x2
 12254 2fcf 74       		.byte	0x74
 12255 2fd0 00       		.sleb128 0
 12256 2fd1 19       		.uleb128 0x19
 12257 2fd2 01       		.uleb128 0x1
 12258 2fd3 51       		.byte	0x51
 12259 2fd4 05       		.uleb128 0x5
 12260 2fd5 03       		.byte	0x3
 12261 2fd6 54020000 		.4byte	.LC37
 12262 2fda 00       		.byte	0
 12263 2fdb 1A       		.uleb128 0x1a
 12264 2fdc A4040000 		.4byte	.LVL743
 12265 2fe0 0E340000 		.4byte	0x340e
 12266 2fe4 F82F0000 		.4byte	0x2ff8
 12267 2fe8 19       		.uleb128 0x19
 12268 2fe9 01       		.uleb128 0x1
 12269 2fea 50       		.byte	0x50
 12270 2feb 02       		.uleb128 0x2
 12271 2fec 74       		.byte	0x74
 12272 2fed 00       		.sleb128 0
 12273 2fee 19       		.uleb128 0x19
 12274 2fef 01       		.uleb128 0x1
 12275 2ff0 51       		.byte	0x51
 12276 2ff1 05       		.uleb128 0x5
 12277 2ff2 03       		.byte	0x3
 12278 2ff3 A8020000 		.4byte	.LC40
 12279 2ff7 00       		.byte	0
 12280 2ff8 1A       		.uleb128 0x1a
ARM GAS  C:\Users\FRANKL~1\AppData\Local\Temp\ccPy0viy.s 			page 250


 12281 2ff9 4C050000 		.4byte	.LVL759
 12282 2ffd 0E340000 		.4byte	0x340e
 12283 3001 15300000 		.4byte	0x3015
 12284 3005 19       		.uleb128 0x19
 12285 3006 01       		.uleb128 0x1
 12286 3007 50       		.byte	0x50
 12287 3008 02       		.uleb128 0x2
 12288 3009 74       		.byte	0x74
 12289 300a 00       		.sleb128 0
 12290 300b 19       		.uleb128 0x19
 12291 300c 01       		.uleb128 0x1
 12292 300d 51       		.byte	0x51
 12293 300e 05       		.uleb128 0x5
 12294 300f 03       		.byte	0x3
 12295 3010 08030000 		.4byte	.LC43
 12296 3014 00       		.byte	0
 12297 3015 1A       		.uleb128 0x1a
 12298 3016 A8050000 		.4byte	.LVL772
 12299 301a 0E340000 		.4byte	0x340e
 12300 301e 32300000 		.4byte	0x3032
 12301 3022 19       		.uleb128 0x19
 12302 3023 01       		.uleb128 0x1
 12303 3024 50       		.byte	0x50
 12304 3025 02       		.uleb128 0x2
 12305 3026 74       		.byte	0x74
 12306 3027 00       		.sleb128 0
 12307 3028 19       		.uleb128 0x19
 12308 3029 01       		.uleb128 0x1
 12309 302a 51       		.byte	0x51
 12310 302b 05       		.uleb128 0x5
 12311 302c 03       		.byte	0x3
 12312 302d 2C030000 		.4byte	.LC45
 12313 3031 00       		.byte	0
 12314 3032 1A       		.uleb128 0x1a
 12315 3033 04060000 		.4byte	.LVL785
 12316 3037 0E340000 		.4byte	0x340e
 12317 303b 4F300000 		.4byte	0x304f
 12318 303f 19       		.uleb128 0x19
 12319 3040 01       		.uleb128 0x1
 12320 3041 50       		.byte	0x50
 12321 3042 02       		.uleb128 0x2
 12322 3043 74       		.byte	0x74
 12323 3044 00       		.sleb128 0
 12324 3045 19       		.uleb128 0x19
 12325 3046 01       		.uleb128 0x1
 12326 3047 51       		.byte	0x51
 12327 3048 05       		.uleb128 0x5
 12328 3049 03       		.byte	0x3
 12329 304a 58030000 		.4byte	.LC47
 12330 304e 00       		.byte	0
 12331 304f 1A       		.uleb128 0x1a
 12332 3050 60060000 		.4byte	.LVL798
 12333 3054 0E340000 		.4byte	0x340e
 12334 3058 6C300000 		.4byte	0x306c
 12335 305c 19       		.uleb128 0x19
 12336 305d 01       		.uleb128 0x1
 12337 305e 50       		.byte	0x50
ARM GAS  C:\Users\FRANKL~1\AppData\Local\Temp\ccPy0viy.s 			page 251


 12338 305f 02       		.uleb128 0x2
 12339 3060 74       		.byte	0x74
 12340 3061 00       		.sleb128 0
 12341 3062 19       		.uleb128 0x19
 12342 3063 01       		.uleb128 0x1
 12343 3064 51       		.byte	0x51
 12344 3065 05       		.uleb128 0x5
 12345 3066 03       		.byte	0x3
 12346 3067 80030000 		.4byte	.LC49
 12347 306b 00       		.byte	0
 12348 306c 1A       		.uleb128 0x1a
 12349 306d F4060000 		.4byte	.LVL809
 12350 3071 0E340000 		.4byte	0x340e
 12351 3075 89300000 		.4byte	0x3089
 12352 3079 19       		.uleb128 0x19
 12353 307a 01       		.uleb128 0x1
 12354 307b 50       		.byte	0x50
 12355 307c 02       		.uleb128 0x2
 12356 307d 74       		.byte	0x74
 12357 307e 00       		.sleb128 0
 12358 307f 19       		.uleb128 0x19
 12359 3080 01       		.uleb128 0x1
 12360 3081 51       		.byte	0x51
 12361 3082 05       		.uleb128 0x5
 12362 3083 03       		.byte	0x3
 12363 3084 B8030000 		.4byte	.LC51
 12364 3088 00       		.byte	0
 12365 3089 10       		.uleb128 0x10
 12366 308a FC060000 		.4byte	.LVL810
 12367 308e D40C0000 		.4byte	0xcd4
 12368 3092 1A       		.uleb128 0x1a
 12369 3093 1C070000 		.4byte	.LVL812
 12370 3097 66340000 		.4byte	0x3466
 12371 309b A6300000 		.4byte	0x30a6
 12372 309f 19       		.uleb128 0x19
 12373 30a0 01       		.uleb128 0x1
 12374 30a1 50       		.byte	0x50
 12375 30a2 02       		.uleb128 0x2
 12376 30a3 75       		.byte	0x75
 12377 30a4 00       		.sleb128 0
 12378 30a5 00       		.byte	0
 12379 30a6 1A       		.uleb128 0x1a
 12380 30a7 24070000 		.4byte	.LVL813
 12381 30ab 80030000 		.4byte	0x380
 12382 30af BA300000 		.4byte	0x30ba
 12383 30b3 19       		.uleb128 0x19
 12384 30b4 01       		.uleb128 0x1
 12385 30b5 50       		.byte	0x50
 12386 30b6 02       		.uleb128 0x2
 12387 30b7 75       		.byte	0x75
 12388 30b8 00       		.sleb128 0
 12389 30b9 00       		.byte	0
 12390 30ba 1A       		.uleb128 0x1a
 12391 30bb 2A070000 		.4byte	.LVL814
 12392 30bf 7C340000 		.4byte	0x347c
 12393 30c3 CE300000 		.4byte	0x30ce
 12394 30c7 19       		.uleb128 0x19
ARM GAS  C:\Users\FRANKL~1\AppData\Local\Temp\ccPy0viy.s 			page 252


 12395 30c8 01       		.uleb128 0x1
 12396 30c9 50       		.byte	0x50
 12397 30ca 02       		.uleb128 0x2
 12398 30cb 75       		.byte	0x75
 12399 30cc 00       		.sleb128 0
 12400 30cd 00       		.byte	0
 12401 30ce 1A       		.uleb128 0x1a
 12402 30cf 34070000 		.4byte	.LVL816
 12403 30d3 0E340000 		.4byte	0x340e
 12404 30d7 EB300000 		.4byte	0x30eb
 12405 30db 19       		.uleb128 0x19
 12406 30dc 01       		.uleb128 0x1
 12407 30dd 50       		.byte	0x50
 12408 30de 02       		.uleb128 0x2
 12409 30df 74       		.byte	0x74
 12410 30e0 00       		.sleb128 0
 12411 30e1 19       		.uleb128 0x19
 12412 30e2 01       		.uleb128 0x1
 12413 30e3 51       		.byte	0x51
 12414 30e4 05       		.uleb128 0x5
 12415 30e5 03       		.byte	0x3
 12416 30e6 F4030000 		.4byte	.LC53
 12417 30ea 00       		.byte	0
 12418 30eb 1A       		.uleb128 0x1a
 12419 30ec 7E070000 		.4byte	.LVL827
 12420 30f0 0E340000 		.4byte	0x340e
 12421 30f4 08310000 		.4byte	0x3108
 12422 30f8 19       		.uleb128 0x19
 12423 30f9 01       		.uleb128 0x1
 12424 30fa 50       		.byte	0x50
 12425 30fb 02       		.uleb128 0x2
 12426 30fc 74       		.byte	0x74
 12427 30fd 00       		.sleb128 0
 12428 30fe 19       		.uleb128 0x19
 12429 30ff 01       		.uleb128 0x1
 12430 3100 51       		.byte	0x51
 12431 3101 05       		.uleb128 0x5
 12432 3102 03       		.byte	0x3
 12433 3103 2C040000 		.4byte	.LC55
 12434 3107 00       		.byte	0
 12435 3108 1A       		.uleb128 0x1a
 12436 3109 C8070000 		.4byte	.LVL838
 12437 310d 0E340000 		.4byte	0x340e
 12438 3111 25310000 		.4byte	0x3125
 12439 3115 19       		.uleb128 0x19
 12440 3116 01       		.uleb128 0x1
 12441 3117 50       		.byte	0x50
 12442 3118 02       		.uleb128 0x2
 12443 3119 74       		.byte	0x74
 12444 311a 00       		.sleb128 0
 12445 311b 19       		.uleb128 0x19
 12446 311c 01       		.uleb128 0x1
 12447 311d 51       		.byte	0x51
 12448 311e 05       		.uleb128 0x5
 12449 311f 03       		.byte	0x3
 12450 3120 64040000 		.4byte	.LC57
 12451 3124 00       		.byte	0
ARM GAS  C:\Users\FRANKL~1\AppData\Local\Temp\ccPy0viy.s 			page 253


 12452 3125 10       		.uleb128 0x10
 12453 3126 D0070000 		.4byte	.LVL839
 12454 312a 040E0000 		.4byte	0xe04
 12455 312e 1A       		.uleb128 0x1a
 12456 312f EC070000 		.4byte	.LVL841
 12457 3133 66340000 		.4byte	0x3466
 12458 3137 42310000 		.4byte	0x3142
 12459 313b 19       		.uleb128 0x19
 12460 313c 01       		.uleb128 0x1
 12461 313d 50       		.byte	0x50
 12462 313e 02       		.uleb128 0x2
 12463 313f 75       		.byte	0x75
 12464 3140 00       		.sleb128 0
 12465 3141 00       		.byte	0
 12466 3142 1A       		.uleb128 0x1a
 12467 3143 F4070000 		.4byte	.LVL842
 12468 3147 80030000 		.4byte	0x380
 12469 314b 56310000 		.4byte	0x3156
 12470 314f 19       		.uleb128 0x19
 12471 3150 01       		.uleb128 0x1
 12472 3151 50       		.byte	0x50
 12473 3152 02       		.uleb128 0x2
 12474 3153 75       		.byte	0x75
 12475 3154 00       		.sleb128 0
 12476 3155 00       		.byte	0
 12477 3156 1A       		.uleb128 0x1a
 12478 3157 FA070000 		.4byte	.LVL843
 12479 315b 7C340000 		.4byte	0x347c
 12480 315f 6A310000 		.4byte	0x316a
 12481 3163 19       		.uleb128 0x19
 12482 3164 01       		.uleb128 0x1
 12483 3165 50       		.byte	0x50
 12484 3166 02       		.uleb128 0x2
 12485 3167 75       		.byte	0x75
 12486 3168 00       		.sleb128 0
 12487 3169 00       		.byte	0
 12488 316a 1A       		.uleb128 0x1a
 12489 316b 04080000 		.4byte	.LVL845
 12490 316f 0E340000 		.4byte	0x340e
 12491 3173 87310000 		.4byte	0x3187
 12492 3177 19       		.uleb128 0x19
 12493 3178 01       		.uleb128 0x1
 12494 3179 50       		.byte	0x50
 12495 317a 02       		.uleb128 0x2
 12496 317b 74       		.byte	0x74
 12497 317c 00       		.sleb128 0
 12498 317d 19       		.uleb128 0x19
 12499 317e 01       		.uleb128 0x1
 12500 317f 51       		.byte	0x51
 12501 3180 05       		.uleb128 0x5
 12502 3181 03       		.byte	0x3
 12503 3182 98040000 		.4byte	.LC59
 12504 3186 00       		.byte	0
 12505 3187 1A       		.uleb128 0x1a
 12506 3188 6A080000 		.4byte	.LVL854
 12507 318c 9D340000 		.4byte	0x349d
 12508 3190 AA310000 		.4byte	0x31aa
ARM GAS  C:\Users\FRANKL~1\AppData\Local\Temp\ccPy0viy.s 			page 254


 12509 3194 19       		.uleb128 0x19
 12510 3195 01       		.uleb128 0x1
 12511 3196 50       		.byte	0x50
 12512 3197 02       		.uleb128 0x2
 12513 3198 75       		.byte	0x75
 12514 3199 00       		.sleb128 0
 12515 319a 19       		.uleb128 0x19
 12516 319b 01       		.uleb128 0x1
 12517 319c 51       		.byte	0x51
 12518 319d 05       		.uleb128 0x5
 12519 319e 03       		.byte	0x3
 12520 319f EC040000 		.4byte	.LC61
 12521 31a3 19       		.uleb128 0x19
 12522 31a4 01       		.uleb128 0x1
 12523 31a5 52       		.byte	0x52
 12524 31a6 02       		.uleb128 0x2
 12525 31a7 74       		.byte	0x74
 12526 31a8 00       		.sleb128 0
 12527 31a9 00       		.byte	0
 12528 31aa 1A       		.uleb128 0x1a
 12529 31ab 70080000 		.4byte	.LVL855
 12530 31af 66340000 		.4byte	0x3466
 12531 31b3 BE310000 		.4byte	0x31be
 12532 31b7 19       		.uleb128 0x19
 12533 31b8 01       		.uleb128 0x1
 12534 31b9 50       		.byte	0x50
 12535 31ba 02       		.uleb128 0x2
 12536 31bb 75       		.byte	0x75
 12537 31bc 00       		.sleb128 0
 12538 31bd 00       		.byte	0
 12539 31be 1A       		.uleb128 0x1a
 12540 31bf 78080000 		.4byte	.LVL856
 12541 31c3 80030000 		.4byte	0x380
 12542 31c7 D2310000 		.4byte	0x31d2
 12543 31cb 19       		.uleb128 0x19
 12544 31cc 01       		.uleb128 0x1
 12545 31cd 50       		.byte	0x50
 12546 31ce 02       		.uleb128 0x2
 12547 31cf 75       		.byte	0x75
 12548 31d0 00       		.sleb128 0
 12549 31d1 00       		.byte	0
 12550 31d2 18       		.uleb128 0x18
 12551 31d3 7E080000 		.4byte	.LVL857
 12552 31d7 7C340000 		.4byte	0x347c
 12553 31db 19       		.uleb128 0x19
 12554 31dc 01       		.uleb128 0x1
 12555 31dd 50       		.byte	0x50
 12556 31de 02       		.uleb128 0x2
 12557 31df 75       		.byte	0x75
 12558 31e0 00       		.sleb128 0
 12559 31e1 00       		.byte	0
 12560 31e2 00       		.byte	0
 12561 31e3 10       		.uleb128 0x10
 12562 31e4 0A000000 		.4byte	.LVL623
 12563 31e8 500B0000 		.4byte	0xb50
 12564 31ec 1A       		.uleb128 0x1a
 12565 31ed 12000000 		.4byte	.LVL624
ARM GAS  C:\Users\FRANKL~1\AppData\Local\Temp\ccPy0viy.s 			page 255


 12566 31f1 88350000 		.4byte	0x3588
 12567 31f5 04320000 		.4byte	0x3204
 12568 31f9 19       		.uleb128 0x19
 12569 31fa 01       		.uleb128 0x1
 12570 31fb 50       		.byte	0x50
 12571 31fc 01       		.uleb128 0x1
 12572 31fd 30       		.byte	0x30
 12573 31fe 19       		.uleb128 0x19
 12574 31ff 01       		.uleb128 0x1
 12575 3200 51       		.byte	0x51
 12576 3201 01       		.uleb128 0x1
 12577 3202 31       		.byte	0x31
 12578 3203 00       		.byte	0
 12579 3204 10       		.uleb128 0x10
 12580 3205 16000000 		.4byte	.LVL625
 12581 3209 94350000 		.4byte	0x3594
 12582 320d 10       		.uleb128 0x10
 12583 320e 1A000000 		.4byte	.LVL626
 12584 3212 9F350000 		.4byte	0x359f
 12585 3216 10       		.uleb128 0x10
 12586 3217 1E000000 		.4byte	.LVL627
 12587 321b AA350000 		.4byte	0x35aa
 12588 321f 10       		.uleb128 0x10
 12589 3220 22000000 		.4byte	.LVL628
 12590 3224 B5350000 		.4byte	0x35b5
 12591 3228 10       		.uleb128 0x10
 12592 3229 26000000 		.4byte	.LVL629
 12593 322d C0350000 		.4byte	0x35c0
 12594 3231 10       		.uleb128 0x10
 12595 3232 2A000000 		.4byte	.LVL630
 12596 3236 CB350000 		.4byte	0x35cb
 12597 323a 10       		.uleb128 0x10
 12598 323b 2E000000 		.4byte	.LVL631
 12599 323f 92340000 		.4byte	0x3492
 12600 3243 10       		.uleb128 0x10
 12601 3244 32000000 		.4byte	.LVL632
 12602 3248 D6350000 		.4byte	0x35d6
 12603 324c 10       		.uleb128 0x10
 12604 324d 36000000 		.4byte	.LVL633
 12605 3251 E1350000 		.4byte	0x35e1
 12606 3255 1A       		.uleb128 0x1a
 12607 3256 3E000000 		.4byte	.LVL634
 12608 325a EC350000 		.4byte	0x35ec
 12609 325e 6A320000 		.4byte	0x326a
 12610 3262 19       		.uleb128 0x19
 12611 3263 01       		.uleb128 0x1
 12612 3264 50       		.byte	0x50
 12613 3265 03       		.uleb128 0x3
 12614 3266 0A       		.byte	0xa
 12615 3267 E803     		.2byte	0x3e8
 12616 3269 00       		.byte	0
 12617 326a 1A       		.uleb128 0x1a
 12618 326b 44000000 		.4byte	.LVL635
 12619 326f 7C340000 		.4byte	0x347c
 12620 3273 81320000 		.4byte	0x3281
 12621 3277 19       		.uleb128 0x19
 12622 3278 01       		.uleb128 0x1
ARM GAS  C:\Users\FRANKL~1\AppData\Local\Temp\ccPy0viy.s 			page 256


 12623 3279 50       		.byte	0x50
 12624 327a 05       		.uleb128 0x5
 12625 327b 03       		.byte	0x3
 12626 327c CC000000 		.4byte	.LC14
 12627 3280 00       		.byte	0
 12628 3281 10       		.uleb128 0x10
 12629 3282 48000000 		.4byte	.LVL636
 12630 3286 040E0000 		.4byte	0xe04
 12631 328a 10       		.uleb128 0x10
 12632 328b 5A000000 		.4byte	.LVL637
 12633 328f F7350000 		.4byte	0x35f7
 12634 3293 18       		.uleb128 0x18
 12635 3294 60000000 		.4byte	.LVL638
 12636 3298 02360000 		.4byte	0x3602
 12637 329c 19       		.uleb128 0x19
 12638 329d 01       		.uleb128 0x1
 12639 329e 50       		.byte	0x50
 12640 329f 05       		.uleb128 0x5
 12641 32a0 03       		.byte	0x3
 12642 32a1 00000000 		.4byte	CommunicationHandlerISR
 12643 32a5 00       		.byte	0
 12644 32a6 00       		.byte	0
 12645 32a7 2F       		.uleb128 0x2f
 12646 32a8 62010000 		.4byte	.LASF155
 12647 32ac 06       		.byte	0x6
 12648 32ad 1207     		.2byte	0x712
 12649 32af B3320000 		.4byte	0x32b3
 12650 32b3 08       		.uleb128 0x8
 12651 32b4 AA000000 		.4byte	0xaa
 12652 32b8 0B       		.uleb128 0xb
 12653 32b9 60010000 		.4byte	0x160
 12654 32bd C8320000 		.4byte	0x32c8
 12655 32c1 0C       		.uleb128 0xc
 12656 32c2 8B000000 		.4byte	0x8b
 12657 32c6 03       		.byte	0x3
 12658 32c7 00       		.byte	0
 12659 32c8 30       		.uleb128 0x30
 12660 32c9 5E000000 		.4byte	.LASF156
 12661 32cd 02       		.byte	0x2
 12662 32ce 1D       		.byte	0x1d
 12663 32cf B8320000 		.4byte	0x32b8
 12664 32d3 05       		.uleb128 0x5
 12665 32d4 03       		.byte	0x3
 12666 32d5 00000000 		.4byte	selectors
 12667 32d9 30       		.uleb128 0x30
 12668 32da D40A0000 		.4byte	.LASF157
 12669 32de 02       		.byte	0x2
 12670 32df 1E       		.byte	0x1e
 12671 32e0 70030000 		.4byte	0x370
 12672 32e4 05       		.uleb128 0x5
 12673 32e5 03       		.byte	0x3
 12674 32e6 00000000 		.4byte	TransmitBuffer
 12675 32ea 30       		.uleb128 0x30
 12676 32eb B4090000 		.4byte	.LASF158
 12677 32ef 02       		.byte	0x2
 12678 32f0 20       		.byte	0x20
 12679 32f1 09010000 		.4byte	0x109
ARM GAS  C:\Users\FRANKL~1\AppData\Local\Temp\ccPy0viy.s 			page 257


 12680 32f5 05       		.uleb128 0x5
 12681 32f6 03       		.byte	0x3
 12682 32f7 00000000 		.4byte	newData
 12683 32fb 30       		.uleb128 0x30
 12684 32fc 6A0A0000 		.4byte	.LASF159
 12685 3300 02       		.byte	0x2
 12686 3301 21       		.byte	0x21
 12687 3302 09010000 		.4byte	0x109
 12688 3306 05       		.uleb128 0x5
 12689 3307 03       		.byte	0x3
 12690 3308 00000000 		.4byte	G_Stop
 12691 330c 30       		.uleb128 0x30
 12692 330d CC0A0000 		.4byte	.LASF160
 12693 3311 02       		.byte	0x2
 12694 3312 22       		.byte	0x22
 12695 3313 09010000 		.4byte	0x109
 12696 3317 05       		.uleb128 0x5
 12697 3318 03       		.byte	0x3
 12698 3319 00000000 		.4byte	G_Break
 12699 331d 30       		.uleb128 0x30
 12700 331e C8040000 		.4byte	.LASF161
 12701 3322 02       		.byte	0x2
 12702 3323 23       		.byte	0x23
 12703 3324 09010000 		.4byte	0x109
 12704 3328 05       		.uleb128 0x5
 12705 3329 03       		.byte	0x3
 12706 332a 00000000 		.4byte	G_Pause
 12707 332e 0B       		.uleb128 0xb
 12708 332f 3E330000 		.4byte	0x333e
 12709 3333 3E330000 		.4byte	0x333e
 12710 3337 0C       		.uleb128 0xc
 12711 3338 8B000000 		.4byte	0x8b
 12712 333c 3F       		.byte	0x3f
 12713 333d 00       		.byte	0
 12714 333e 08       		.uleb128 0x8
 12715 333f 98000000 		.4byte	0x98
 12716 3343 30       		.uleb128 0x30
 12717 3344 760C0000 		.4byte	.LASF162
 12718 3348 02       		.byte	0x2
 12719 3349 25       		.byte	0x25
 12720 334a 54330000 		.4byte	0x3354
 12721 334e 05       		.uleb128 0x5
 12722 334f 03       		.byte	0x3
 12723 3350 00000000 		.4byte	UART_Receive_Buffer
 12724 3354 08       		.uleb128 0x8
 12725 3355 2E330000 		.4byte	0x332e
 12726 3359 30       		.uleb128 0x30
 12727 335a 72020000 		.4byte	.LASF163
 12728 335e 02       		.byte	0x2
 12729 335f 26       		.byte	0x26
 12730 3360 09010000 		.4byte	0x109
 12731 3364 05       		.uleb128 0x5
 12732 3365 03       		.byte	0x3
 12733 3366 00000000 		.4byte	UART_Rx_Position
 12734 336a 30       		.uleb128 0x30
 12735 336b 18070000 		.4byte	.LASF164
 12736 336f 02       		.byte	0x2
ARM GAS  C:\Users\FRANKL~1\AppData\Local\Temp\ccPy0viy.s 			page 258


 12737 3370 28       		.byte	0x28
 12738 3371 7B330000 		.4byte	0x337b
 12739 3375 05       		.uleb128 0x5
 12740 3376 03       		.byte	0x3
 12741 3377 00000000 		.4byte	USBUART_Receive_Buffer
 12742 337b 08       		.uleb128 0x8
 12743 337c 2E330000 		.4byte	0x332e
 12744 3380 30       		.uleb128 0x30
 12745 3381 1D0D0000 		.4byte	.LASF165
 12746 3385 02       		.byte	0x2
 12747 3386 29       		.byte	0x29
 12748 3387 09010000 		.4byte	0x109
 12749 338b 05       		.uleb128 0x5
 12750 338c 03       		.byte	0x3
 12751 338d 00000000 		.4byte	USBUART_Rx_Position
 12752 3391 30       		.uleb128 0x30
 12753 3392 AE0C0000 		.4byte	.LASF166
 12754 3396 02       		.byte	0x2
 12755 3397 2B       		.byte	0x2b
 12756 3398 B5000000 		.4byte	0xb5
 12757 339c 05       		.uleb128 0x5
 12758 339d 03       		.byte	0x3
 12759 339e 00000000 		.4byte	Compliance_Reached
 12760 33a2 30       		.uleb128 0x30
 12761 33a3 3E080000 		.4byte	.LASF167
 12762 33a7 02       		.byte	0x2
 12763 33a8 2C       		.byte	0x2c
 12764 33a9 E5000000 		.4byte	0xe5
 12765 33ad 05       		.uleb128 0x5
 12766 33ae 03       		.byte	0x3
 12767 33af 00000000 		.4byte	Vgs_Index_Goal_Relative
 12768 33b3 30       		.uleb128 0x30
 12769 33b4 DD060000 		.4byte	.LASF168
 12770 33b8 02       		.byte	0x2
 12771 33b9 2D       		.byte	0x2d
 12772 33ba E5000000 		.4byte	0xe5
 12773 33be 05       		.uleb128 0x5
 12774 33bf 03       		.byte	0x3
 12775 33c0 00000000 		.4byte	Vds_Index_Goal_Relative
 12776 33c4 30       		.uleb128 0x30
 12777 33c5 B0050000 		.4byte	.LASF169
 12778 33c9 02       		.byte	0x2
 12779 33ca 2F       		.byte	0x2f
 12780 33cb CD000000 		.4byte	0xcd
 12781 33cf 05       		.uleb128 0x5
 12782 33d0 03       		.byte	0x3
 12783 33d1 00000000 		.4byte	Current_Measurement_Sample_Count
 12784 33d5 31       		.uleb128 0x31
 12785 33d6 64030000 		.4byte	.LASF170
 12786 33da 64030000 		.4byte	.LASF170
 12787 33de 07       		.byte	0x7
 12788 33df 2E01     		.2byte	0x12e
 12789 33e1 31       		.uleb128 0x31
 12790 33e2 8B010000 		.4byte	.LASF171
 12791 33e6 8B010000 		.4byte	.LASF171
 12792 33ea 07       		.byte	0x7
 12793 33eb 2D01     		.2byte	0x12d
ARM GAS  C:\Users\FRANKL~1\AppData\Local\Temp\ccPy0viy.s 			page 259


 12794 33ed 32       		.uleb128 0x32
 12795 33ee 5F090000 		.4byte	.LASF172
 12796 33f2 5F090000 		.4byte	.LASF172
 12797 33f6 08       		.byte	0x8
 12798 33f7 22       		.byte	0x22
 12799 33f8 32       		.uleb128 0x32
 12800 33f9 36040000 		.4byte	.LASF173
 12801 33fd 36040000 		.4byte	.LASF173
 12802 3401 08       		.byte	0x8
 12803 3402 29       		.byte	0x29
 12804 3403 32       		.uleb128 0x32
 12805 3404 FF040000 		.4byte	.LASF174
 12806 3408 FF040000 		.4byte	.LASF174
 12807 340c 08       		.byte	0x8
 12808 340d 2B       		.byte	0x2b
 12809 340e 32       		.uleb128 0x32
 12810 340f 68000000 		.4byte	.LASF175
 12811 3413 68000000 		.4byte	.LASF175
 12812 3417 09       		.byte	0x9
 12813 3418 28       		.byte	0x28
 12814 3419 32       		.uleb128 0x32
 12815 341a 01080000 		.4byte	.LASF176
 12816 341e 01080000 		.4byte	.LASF176
 12817 3422 0A       		.byte	0xa
 12818 3423 73       		.byte	0x73
 12819 3424 32       		.uleb128 0x32
 12820 3425 13030000 		.4byte	.LASF177
 12821 3429 13030000 		.4byte	.LASF177
 12822 342d 0A       		.byte	0xa
 12823 342e 71       		.byte	0x71
 12824 342f 32       		.uleb128 0x32
 12825 3430 610D0000 		.4byte	.LASF178
 12826 3434 610D0000 		.4byte	.LASF178
 12827 3438 0B       		.byte	0xb
 12828 3439 28       		.byte	0x28
 12829 343a 32       		.uleb128 0x32
 12830 343b 5C070000 		.4byte	.LASF179
 12831 343f 5C070000 		.4byte	.LASF179
 12832 3443 0C       		.byte	0xc
 12833 3444 5E       		.byte	0x5e
 12834 3445 32       		.uleb128 0x32
 12835 3446 18080000 		.4byte	.LASF180
 12836 344a 18080000 		.4byte	.LASF180
 12837 344e 08       		.byte	0x8
 12838 344f 28       		.byte	0x28
 12839 3450 32       		.uleb128 0x32
 12840 3451 CB020000 		.4byte	.LASF181
 12841 3455 CB020000 		.4byte	.LASF181
 12842 3459 08       		.byte	0x8
 12843 345a 23       		.byte	0x23
 12844 345b 32       		.uleb128 0x32
 12845 345c 11020000 		.4byte	.LASF182
 12846 3460 11020000 		.4byte	.LASF182
 12847 3464 08       		.byte	0x8
 12848 3465 2C       		.byte	0x2c
 12849 3466 32       		.uleb128 0x32
 12850 3467 4A040000 		.4byte	.LASF183
ARM GAS  C:\Users\FRANKL~1\AppData\Local\Temp\ccPy0viy.s 			page 260


 12851 346b 4A040000 		.4byte	.LASF183
 12852 346f 09       		.byte	0x9
 12853 3470 21       		.byte	0x21
 12854 3471 32       		.uleb128 0x32
 12855 3472 850D0000 		.4byte	.LASF184
 12856 3476 850D0000 		.4byte	.LASF184
 12857 347a 0D       		.byte	0xd
 12858 347b A3       		.byte	0xa3
 12859 347c 32       		.uleb128 0x32
 12860 347d 35070000 		.4byte	.LASF185
 12861 3481 35070000 		.4byte	.LASF185
 12862 3485 0A       		.byte	0xa
 12863 3486 8B       		.byte	0x8b
 12864 3487 32       		.uleb128 0x32
 12865 3488 B3020000 		.4byte	.LASF186
 12866 348c B3020000 		.4byte	.LASF186
 12867 3490 0D       		.byte	0xd
 12868 3491 94       		.byte	0x94
 12869 3492 32       		.uleb128 0x32
 12870 3493 AE040000 		.4byte	.LASF187
 12871 3497 AE040000 		.4byte	.LASF187
 12872 349b 0D       		.byte	0xd
 12873 349c 93       		.byte	0x93
 12874 349d 32       		.uleb128 0x32
 12875 349e 38000000 		.4byte	.LASF188
 12876 34a2 38000000 		.4byte	.LASF188
 12877 34a6 0E       		.byte	0xe
 12878 34a7 E7       		.byte	0xe7
 12879 34a8 32       		.uleb128 0x32
 12880 34a9 0E050000 		.4byte	.LASF189
 12881 34ad 0E050000 		.4byte	.LASF189
 12882 34b1 0D       		.byte	0xd
 12883 34b2 A4       		.byte	0xa4
 12884 34b3 32       		.uleb128 0x32
 12885 34b4 79040000 		.4byte	.LASF190
 12886 34b8 79040000 		.4byte	.LASF190
 12887 34bc 0D       		.byte	0xd
 12888 34bd A7       		.byte	0xa7
 12889 34be 32       		.uleb128 0x32
 12890 34bf 38090000 		.4byte	.LASF191
 12891 34c3 38090000 		.4byte	.LASF191
 12892 34c7 0F       		.byte	0xf
 12893 34c8 3D       		.byte	0x3d
 12894 34c9 32       		.uleb128 0x32
 12895 34ca E30A0000 		.4byte	.LASF192
 12896 34ce E30A0000 		.4byte	.LASF192
 12897 34d2 0F       		.byte	0xf
 12898 34d3 3F       		.byte	0x3f
 12899 34d4 32       		.uleb128 0x32
 12900 34d5 85090000 		.4byte	.LASF193
 12901 34d9 85090000 		.4byte	.LASF193
 12902 34dd 0F       		.byte	0xf
 12903 34de 42       		.byte	0x42
 12904 34df 32       		.uleb128 0x32
 12905 34e0 53060000 		.4byte	.LASF194
 12906 34e4 53060000 		.4byte	.LASF194
 12907 34e8 0F       		.byte	0xf
ARM GAS  C:\Users\FRANKL~1\AppData\Local\Temp\ccPy0viy.s 			page 261


 12908 34e9 48       		.byte	0x48
 12909 34ea 32       		.uleb128 0x32
 12910 34eb F00C0000 		.4byte	.LASF195
 12911 34ef F00C0000 		.4byte	.LASF195
 12912 34f3 10       		.byte	0x10
 12913 34f4 D1       		.byte	0xd1
 12914 34f5 32       		.uleb128 0x32
 12915 34f6 BD0B0000 		.4byte	.LASF196
 12916 34fa BD0B0000 		.4byte	.LASF196
 12917 34fe 10       		.byte	0x10
 12918 34ff 39       		.byte	0x39
 12919 3500 32       		.uleb128 0x32
 12920 3501 22090000 		.4byte	.LASF197
 12921 3505 22090000 		.4byte	.LASF197
 12922 3509 10       		.byte	0x10
 12923 350a 3B       		.byte	0x3b
 12924 350b 32       		.uleb128 0x32
 12925 350c 310D0000 		.4byte	.LASF198
 12926 3510 310D0000 		.4byte	.LASF198
 12927 3514 10       		.byte	0x10
 12928 3515 41       		.byte	0x41
 12929 3516 32       		.uleb128 0x32
 12930 3517 350A0000 		.4byte	.LASF199
 12931 351b 350A0000 		.4byte	.LASF199
 12932 351f 11       		.byte	0x11
 12933 3520 D1       		.byte	0xd1
 12934 3521 32       		.uleb128 0x32
 12935 3522 95060000 		.4byte	.LASF200
 12936 3526 95060000 		.4byte	.LASF200
 12937 352a 11       		.byte	0x11
 12938 352b 39       		.byte	0x39
 12939 352c 32       		.uleb128 0x32
 12940 352d 070D0000 		.4byte	.LASF201
 12941 3531 070D0000 		.4byte	.LASF201
 12942 3535 11       		.byte	0x11
 12943 3536 3B       		.byte	0x3b
 12944 3537 32       		.uleb128 0x32
 12945 3538 4B030000 		.4byte	.LASF202
 12946 353c 4B030000 		.4byte	.LASF202
 12947 3540 11       		.byte	0x11
 12948 3541 41       		.byte	0x41
 12949 3542 32       		.uleb128 0x32
 12950 3543 710A0000 		.4byte	.LASF203
 12951 3547 710A0000 		.4byte	.LASF203
 12952 354b 12       		.byte	0x12
 12953 354c 37       		.byte	0x37
 12954 354d 32       		.uleb128 0x32
 12955 354e F8030000 		.4byte	.LASF204
 12956 3552 F8030000 		.4byte	.LASF204
 12957 3556 13       		.byte	0x13
 12958 3557 37       		.byte	0x37
 12959 3558 32       		.uleb128 0x32
 12960 3559 41020000 		.4byte	.LASF205
 12961 355d 41020000 		.4byte	.LASF205
 12962 3561 14       		.byte	0x14
 12963 3562 37       		.byte	0x37
 12964 3563 33       		.uleb128 0x33
ARM GAS  C:\Users\FRANKL~1\AppData\Local\Temp\ccPy0viy.s 			page 262


 12965 3564 FB010000 		.4byte	.LASF225
 12966 3568 07070000 		.4byte	.LASF226
 12967 356c 18       		.byte	0x18
 12968 356d 00       		.byte	0
 12969 356e FB010000 		.4byte	.LASF225
 12970 3572 32       		.uleb128 0x32
 12971 3573 AC020000 		.4byte	.LASF206
 12972 3577 AC020000 		.4byte	.LASF206
 12973 357b 15       		.byte	0x15
 12974 357c A2       		.byte	0xa2
 12975 357d 32       		.uleb128 0x32
 12976 357e 44060000 		.4byte	.LASF207
 12977 3582 44060000 		.4byte	.LASF207
 12978 3586 0E       		.byte	0xe
 12979 3587 BF       		.byte	0xbf
 12980 3588 31       		.uleb128 0x31
 12981 3589 E1020000 		.4byte	.LASF208
 12982 358d E1020000 		.4byte	.LASF208
 12983 3591 07       		.byte	0x7
 12984 3592 2A01     		.2byte	0x12a
 12985 3594 32       		.uleb128 0x32
 12986 3595 BE020000 		.4byte	.LASF209
 12987 3599 BE020000 		.4byte	.LASF209
 12988 359d 0A       		.byte	0xa
 12989 359e 54       		.byte	0x54
 12990 359f 32       		.uleb128 0x32
 12991 35a0 10000000 		.4byte	.LASF210
 12992 35a4 10000000 		.4byte	.LASF210
 12993 35a8 13       		.byte	0x13
 12994 35a9 33       		.byte	0x33
 12995 35aa 32       		.uleb128 0x32
 12996 35ab 0C010000 		.4byte	.LASF211
 12997 35af 0C010000 		.4byte	.LASF211
 12998 35b3 12       		.byte	0x12
 12999 35b4 33       		.byte	0x33
 13000 35b5 32       		.uleb128 0x32
 13001 35b6 53010000 		.4byte	.LASF212
 13002 35ba 53010000 		.4byte	.LASF212
 13003 35be 14       		.byte	0x14
 13004 35bf 33       		.byte	0x33
 13005 35c0 32       		.uleb128 0x32
 13006 35c1 22030000 		.4byte	.LASF213
 13007 35c5 22030000 		.4byte	.LASF213
 13008 35c9 0F       		.byte	0xf
 13009 35ca 3A       		.byte	0x3a
 13010 35cb 32       		.uleb128 0x32
 13011 35cc 2A040000 		.4byte	.LASF214
 13012 35d0 2A040000 		.4byte	.LASF214
 13013 35d4 16       		.byte	0x16
 13014 35d5 3D       		.byte	0x3d
 13015 35d6 32       		.uleb128 0x32
 13016 35d7 C6060000 		.4byte	.LASF215
 13017 35db C6060000 		.4byte	.LASF215
 13018 35df 10       		.byte	0x10
 13019 35e0 34       		.byte	0x34
 13020 35e1 32       		.uleb128 0x32
 13021 35e2 A3000000 		.4byte	.LASF216
ARM GAS  C:\Users\FRANKL~1\AppData\Local\Temp\ccPy0viy.s 			page 263


 13022 35e6 A3000000 		.4byte	.LASF216
 13023 35ea 11       		.byte	0x11
 13024 35eb 34       		.byte	0x34
 13025 35ec 32       		.uleb128 0x32
 13026 35ed 620A0000 		.4byte	.LASF217
 13027 35f1 620A0000 		.4byte	.LASF217
 13028 35f5 17       		.byte	0x17
 13029 35f6 76       		.byte	0x76
 13030 35f7 32       		.uleb128 0x32
 13031 35f8 59020000 		.4byte	.LASF218
 13032 35fc 59020000 		.4byte	.LASF218
 13033 3600 0C       		.byte	0xc
 13034 3601 5A       		.byte	0x5a
 13035 3602 32       		.uleb128 0x32
 13036 3603 56080000 		.4byte	.LASF219
 13037 3607 56080000 		.4byte	.LASF219
 13038 360b 0B       		.byte	0xb
 13039 360c 18       		.byte	0x18
 13040 360d 00       		.byte	0
 13041              		.section	.debug_abbrev,"",%progbits
 13042              	.Ldebug_abbrev0:
 13043 0000 01       		.uleb128 0x1
 13044 0001 11       		.uleb128 0x11
 13045 0002 01       		.byte	0x1
 13046 0003 25       		.uleb128 0x25
 13047 0004 0E       		.uleb128 0xe
 13048 0005 13       		.uleb128 0x13
 13049 0006 0B       		.uleb128 0xb
 13050 0007 03       		.uleb128 0x3
 13051 0008 0E       		.uleb128 0xe
 13052 0009 1B       		.uleb128 0x1b
 13053 000a 0E       		.uleb128 0xe
 13054 000b 55       		.uleb128 0x55
 13055 000c 17       		.uleb128 0x17
 13056 000d 11       		.uleb128 0x11
 13057 000e 01       		.uleb128 0x1
 13058 000f 10       		.uleb128 0x10
 13059 0010 17       		.uleb128 0x17
 13060 0011 00       		.byte	0
 13061 0012 00       		.byte	0
 13062 0013 02       		.uleb128 0x2
 13063 0014 24       		.uleb128 0x24
 13064 0015 00       		.byte	0
 13065 0016 0B       		.uleb128 0xb
 13066 0017 0B       		.uleb128 0xb
 13067 0018 3E       		.uleb128 0x3e
 13068 0019 0B       		.uleb128 0xb
 13069 001a 03       		.uleb128 0x3
 13070 001b 0E       		.uleb128 0xe
 13071 001c 00       		.byte	0
 13072 001d 00       		.byte	0
 13073 001e 03       		.uleb128 0x3
 13074 001f 24       		.uleb128 0x24
 13075 0020 00       		.byte	0
 13076 0021 0B       		.uleb128 0xb
 13077 0022 0B       		.uleb128 0xb
 13078 0023 3E       		.uleb128 0x3e
ARM GAS  C:\Users\FRANKL~1\AppData\Local\Temp\ccPy0viy.s 			page 264


 13079 0024 0B       		.uleb128 0xb
 13080 0025 03       		.uleb128 0x3
 13081 0026 08       		.uleb128 0x8
 13082 0027 00       		.byte	0
 13083 0028 00       		.byte	0
 13084 0029 04       		.uleb128 0x4
 13085 002a 16       		.uleb128 0x16
 13086 002b 00       		.byte	0
 13087 002c 03       		.uleb128 0x3
 13088 002d 0E       		.uleb128 0xe
 13089 002e 3A       		.uleb128 0x3a
 13090 002f 0B       		.uleb128 0xb
 13091 0030 3B       		.uleb128 0x3b
 13092 0031 0B       		.uleb128 0xb
 13093 0032 49       		.uleb128 0x49
 13094 0033 13       		.uleb128 0x13
 13095 0034 00       		.byte	0
 13096 0035 00       		.byte	0
 13097 0036 05       		.uleb128 0x5
 13098 0037 0F       		.uleb128 0xf
 13099 0038 00       		.byte	0
 13100 0039 0B       		.uleb128 0xb
 13101 003a 0B       		.uleb128 0xb
 13102 003b 49       		.uleb128 0x49
 13103 003c 13       		.uleb128 0x13
 13104 003d 00       		.byte	0
 13105 003e 00       		.byte	0
 13106 003f 06       		.uleb128 0x6
 13107 0040 26       		.uleb128 0x26
 13108 0041 00       		.byte	0
 13109 0042 49       		.uleb128 0x49
 13110 0043 13       		.uleb128 0x13
 13111 0044 00       		.byte	0
 13112 0045 00       		.byte	0
 13113 0046 07       		.uleb128 0x7
 13114 0047 16       		.uleb128 0x16
 13115 0048 00       		.byte	0
 13116 0049 03       		.uleb128 0x3
 13117 004a 0E       		.uleb128 0xe
 13118 004b 3A       		.uleb128 0x3a
 13119 004c 0B       		.uleb128 0xb
 13120 004d 3B       		.uleb128 0x3b
 13121 004e 05       		.uleb128 0x5
 13122 004f 49       		.uleb128 0x49
 13123 0050 13       		.uleb128 0x13
 13124 0051 00       		.byte	0
 13125 0052 00       		.byte	0
 13126 0053 08       		.uleb128 0x8
 13127 0054 35       		.uleb128 0x35
 13128 0055 00       		.byte	0
 13129 0056 49       		.uleb128 0x49
 13130 0057 13       		.uleb128 0x13
 13131 0058 00       		.byte	0
 13132 0059 00       		.byte	0
 13133 005a 09       		.uleb128 0x9
 13134 005b 13       		.uleb128 0x13
 13135 005c 01       		.byte	0x1
ARM GAS  C:\Users\FRANKL~1\AppData\Local\Temp\ccPy0viy.s 			page 265


 13136 005d 0B       		.uleb128 0xb
 13137 005e 0B       		.uleb128 0xb
 13138 005f 3A       		.uleb128 0x3a
 13139 0060 0B       		.uleb128 0xb
 13140 0061 3B       		.uleb128 0x3b
 13141 0062 0B       		.uleb128 0xb
 13142 0063 01       		.uleb128 0x1
 13143 0064 13       		.uleb128 0x13
 13144 0065 00       		.byte	0
 13145 0066 00       		.byte	0
 13146 0067 0A       		.uleb128 0xa
 13147 0068 0D       		.uleb128 0xd
 13148 0069 00       		.byte	0
 13149 006a 03       		.uleb128 0x3
 13150 006b 0E       		.uleb128 0xe
 13151 006c 3A       		.uleb128 0x3a
 13152 006d 0B       		.uleb128 0xb
 13153 006e 3B       		.uleb128 0x3b
 13154 006f 0B       		.uleb128 0xb
 13155 0070 49       		.uleb128 0x49
 13156 0071 13       		.uleb128 0x13
 13157 0072 38       		.uleb128 0x38
 13158 0073 0B       		.uleb128 0xb
 13159 0074 00       		.byte	0
 13160 0075 00       		.byte	0
 13161 0076 0B       		.uleb128 0xb
 13162 0077 01       		.uleb128 0x1
 13163 0078 01       		.byte	0x1
 13164 0079 49       		.uleb128 0x49
 13165 007a 13       		.uleb128 0x13
 13166 007b 01       		.uleb128 0x1
 13167 007c 13       		.uleb128 0x13
 13168 007d 00       		.byte	0
 13169 007e 00       		.byte	0
 13170 007f 0C       		.uleb128 0xc
 13171 0080 21       		.uleb128 0x21
 13172 0081 00       		.byte	0
 13173 0082 49       		.uleb128 0x49
 13174 0083 13       		.uleb128 0x13
 13175 0084 2F       		.uleb128 0x2f
 13176 0085 0B       		.uleb128 0xb
 13177 0086 00       		.byte	0
 13178 0087 00       		.byte	0
 13179 0088 0D       		.uleb128 0xd
 13180 0089 13       		.uleb128 0x13
 13181 008a 01       		.byte	0x1
 13182 008b 03       		.uleb128 0x3
 13183 008c 0E       		.uleb128 0xe
 13184 008d 0B       		.uleb128 0xb
 13185 008e 0B       		.uleb128 0xb
 13186 008f 3A       		.uleb128 0x3a
 13187 0090 0B       		.uleb128 0xb
 13188 0091 3B       		.uleb128 0x3b
 13189 0092 0B       		.uleb128 0xb
 13190 0093 01       		.uleb128 0x1
 13191 0094 13       		.uleb128 0x13
 13192 0095 00       		.byte	0
ARM GAS  C:\Users\FRANKL~1\AppData\Local\Temp\ccPy0viy.s 			page 266


 13193 0096 00       		.byte	0
 13194 0097 0E       		.uleb128 0xe
 13195 0098 2E       		.uleb128 0x2e
 13196 0099 01       		.byte	0x1
 13197 009a 3F       		.uleb128 0x3f
 13198 009b 19       		.uleb128 0x19
 13199 009c 03       		.uleb128 0x3
 13200 009d 0E       		.uleb128 0xe
 13201 009e 3A       		.uleb128 0x3a
 13202 009f 0B       		.uleb128 0xb
 13203 00a0 3B       		.uleb128 0x3b
 13204 00a1 0B       		.uleb128 0xb
 13205 00a2 11       		.uleb128 0x11
 13206 00a3 01       		.uleb128 0x1
 13207 00a4 12       		.uleb128 0x12
 13208 00a5 06       		.uleb128 0x6
 13209 00a6 40       		.uleb128 0x40
 13210 00a7 18       		.uleb128 0x18
 13211 00a8 9742     		.uleb128 0x2117
 13212 00aa 19       		.uleb128 0x19
 13213 00ab 01       		.uleb128 0x1
 13214 00ac 13       		.uleb128 0x13
 13215 00ad 00       		.byte	0
 13216 00ae 00       		.byte	0
 13217 00af 0F       		.uleb128 0xf
 13218 00b0 34       		.uleb128 0x34
 13219 00b1 00       		.byte	0
 13220 00b2 03       		.uleb128 0x3
 13221 00b3 0E       		.uleb128 0xe
 13222 00b4 3A       		.uleb128 0x3a
 13223 00b5 0B       		.uleb128 0xb
 13224 00b6 3B       		.uleb128 0x3b
 13225 00b7 0B       		.uleb128 0xb
 13226 00b8 49       		.uleb128 0x49
 13227 00b9 13       		.uleb128 0x13
 13228 00ba 02       		.uleb128 0x2
 13229 00bb 17       		.uleb128 0x17
 13230 00bc 00       		.byte	0
 13231 00bd 00       		.byte	0
 13232 00be 10       		.uleb128 0x10
 13233 00bf 898201   		.uleb128 0x4109
 13234 00c2 00       		.byte	0
 13235 00c3 11       		.uleb128 0x11
 13236 00c4 01       		.uleb128 0x1
 13237 00c5 31       		.uleb128 0x31
 13238 00c6 13       		.uleb128 0x13
 13239 00c7 00       		.byte	0
 13240 00c8 00       		.byte	0
 13241 00c9 11       		.uleb128 0x11
 13242 00ca 2E       		.uleb128 0x2e
 13243 00cb 01       		.byte	0x1
 13244 00cc 3F       		.uleb128 0x3f
 13245 00cd 19       		.uleb128 0x19
 13246 00ce 03       		.uleb128 0x3
 13247 00cf 0E       		.uleb128 0xe
 13248 00d0 3A       		.uleb128 0x3a
 13249 00d1 0B       		.uleb128 0xb
ARM GAS  C:\Users\FRANKL~1\AppData\Local\Temp\ccPy0viy.s 			page 267


 13250 00d2 3B       		.uleb128 0x3b
 13251 00d3 0B       		.uleb128 0xb
 13252 00d4 49       		.uleb128 0x49
 13253 00d5 13       		.uleb128 0x13
 13254 00d6 11       		.uleb128 0x11
 13255 00d7 01       		.uleb128 0x1
 13256 00d8 12       		.uleb128 0x12
 13257 00d9 06       		.uleb128 0x6
 13258 00da 40       		.uleb128 0x40
 13259 00db 18       		.uleb128 0x18
 13260 00dc 9742     		.uleb128 0x2117
 13261 00de 19       		.uleb128 0x19
 13262 00df 01       		.uleb128 0x1
 13263 00e0 13       		.uleb128 0x13
 13264 00e1 00       		.byte	0
 13265 00e2 00       		.byte	0
 13266 00e3 12       		.uleb128 0x12
 13267 00e4 2E       		.uleb128 0x2e
 13268 00e5 01       		.byte	0x1
 13269 00e6 3F       		.uleb128 0x3f
 13270 00e7 19       		.uleb128 0x19
 13271 00e8 03       		.uleb128 0x3
 13272 00e9 0E       		.uleb128 0xe
 13273 00ea 3A       		.uleb128 0x3a
 13274 00eb 0B       		.uleb128 0xb
 13275 00ec 3B       		.uleb128 0x3b
 13276 00ed 05       		.uleb128 0x5
 13277 00ee 27       		.uleb128 0x27
 13278 00ef 19       		.uleb128 0x19
 13279 00f0 11       		.uleb128 0x11
 13280 00f1 01       		.uleb128 0x1
 13281 00f2 12       		.uleb128 0x12
 13282 00f3 06       		.uleb128 0x6
 13283 00f4 40       		.uleb128 0x40
 13284 00f5 18       		.uleb128 0x18
 13285 00f6 9742     		.uleb128 0x2117
 13286 00f8 19       		.uleb128 0x19
 13287 00f9 01       		.uleb128 0x1
 13288 00fa 13       		.uleb128 0x13
 13289 00fb 00       		.byte	0
 13290 00fc 00       		.byte	0
 13291 00fd 13       		.uleb128 0x13
 13292 00fe 0B       		.uleb128 0xb
 13293 00ff 01       		.byte	0x1
 13294 0100 11       		.uleb128 0x11
 13295 0101 01       		.uleb128 0x1
 13296 0102 12       		.uleb128 0x12
 13297 0103 06       		.uleb128 0x6
 13298 0104 01       		.uleb128 0x1
 13299 0105 13       		.uleb128 0x13
 13300 0106 00       		.byte	0
 13301 0107 00       		.byte	0
 13302 0108 14       		.uleb128 0x14
 13303 0109 34       		.uleb128 0x34
 13304 010a 00       		.byte	0
 13305 010b 03       		.uleb128 0x3
 13306 010c 0E       		.uleb128 0xe
ARM GAS  C:\Users\FRANKL~1\AppData\Local\Temp\ccPy0viy.s 			page 268


 13307 010d 3A       		.uleb128 0x3a
 13308 010e 0B       		.uleb128 0xb
 13309 010f 3B       		.uleb128 0x3b
 13310 0110 05       		.uleb128 0x5
 13311 0111 49       		.uleb128 0x49
 13312 0112 13       		.uleb128 0x13
 13313 0113 02       		.uleb128 0x2
 13314 0114 18       		.uleb128 0x18
 13315 0115 00       		.byte	0
 13316 0116 00       		.byte	0
 13317 0117 15       		.uleb128 0x15
 13318 0118 34       		.uleb128 0x34
 13319 0119 00       		.byte	0
 13320 011a 03       		.uleb128 0x3
 13321 011b 0E       		.uleb128 0xe
 13322 011c 3A       		.uleb128 0x3a
 13323 011d 0B       		.uleb128 0xb
 13324 011e 3B       		.uleb128 0x3b
 13325 011f 05       		.uleb128 0x5
 13326 0120 49       		.uleb128 0x49
 13327 0121 13       		.uleb128 0x13
 13328 0122 02       		.uleb128 0x2
 13329 0123 17       		.uleb128 0x17
 13330 0124 00       		.byte	0
 13331 0125 00       		.byte	0
 13332 0126 16       		.uleb128 0x16
 13333 0127 34       		.uleb128 0x34
 13334 0128 00       		.byte	0
 13335 0129 03       		.uleb128 0x3
 13336 012a 08       		.uleb128 0x8
 13337 012b 3A       		.uleb128 0x3a
 13338 012c 0B       		.uleb128 0xb
 13339 012d 3B       		.uleb128 0x3b
 13340 012e 05       		.uleb128 0x5
 13341 012f 49       		.uleb128 0x49
 13342 0130 13       		.uleb128 0x13
 13343 0131 02       		.uleb128 0x2
 13344 0132 17       		.uleb128 0x17
 13345 0133 00       		.byte	0
 13346 0134 00       		.byte	0
 13347 0135 17       		.uleb128 0x17
 13348 0136 0B       		.uleb128 0xb
 13349 0137 01       		.byte	0x1
 13350 0138 11       		.uleb128 0x11
 13351 0139 01       		.uleb128 0x1
 13352 013a 12       		.uleb128 0x12
 13353 013b 06       		.uleb128 0x6
 13354 013c 00       		.byte	0
 13355 013d 00       		.byte	0
 13356 013e 18       		.uleb128 0x18
 13357 013f 898201   		.uleb128 0x4109
 13358 0142 01       		.byte	0x1
 13359 0143 11       		.uleb128 0x11
 13360 0144 01       		.uleb128 0x1
 13361 0145 31       		.uleb128 0x31
 13362 0146 13       		.uleb128 0x13
 13363 0147 00       		.byte	0
ARM GAS  C:\Users\FRANKL~1\AppData\Local\Temp\ccPy0viy.s 			page 269


 13364 0148 00       		.byte	0
 13365 0149 19       		.uleb128 0x19
 13366 014a 8A8201   		.uleb128 0x410a
 13367 014d 00       		.byte	0
 13368 014e 02       		.uleb128 0x2
 13369 014f 18       		.uleb128 0x18
 13370 0150 9142     		.uleb128 0x2111
 13371 0152 18       		.uleb128 0x18
 13372 0153 00       		.byte	0
 13373 0154 00       		.byte	0
 13374 0155 1A       		.uleb128 0x1a
 13375 0156 898201   		.uleb128 0x4109
 13376 0159 01       		.byte	0x1
 13377 015a 11       		.uleb128 0x11
 13378 015b 01       		.uleb128 0x1
 13379 015c 31       		.uleb128 0x31
 13380 015d 13       		.uleb128 0x13
 13381 015e 01       		.uleb128 0x1
 13382 015f 13       		.uleb128 0x13
 13383 0160 00       		.byte	0
 13384 0161 00       		.byte	0
 13385 0162 1B       		.uleb128 0x1b
 13386 0163 2E       		.uleb128 0x2e
 13387 0164 01       		.byte	0x1
 13388 0165 3F       		.uleb128 0x3f
 13389 0166 19       		.uleb128 0x19
 13390 0167 03       		.uleb128 0x3
 13391 0168 0E       		.uleb128 0xe
 13392 0169 3A       		.uleb128 0x3a
 13393 016a 0B       		.uleb128 0xb
 13394 016b 3B       		.uleb128 0x3b
 13395 016c 0B       		.uleb128 0xb
 13396 016d 27       		.uleb128 0x27
 13397 016e 19       		.uleb128 0x19
 13398 016f 49       		.uleb128 0x49
 13399 0170 13       		.uleb128 0x13
 13400 0171 11       		.uleb128 0x11
 13401 0172 01       		.uleb128 0x1
 13402 0173 12       		.uleb128 0x12
 13403 0174 06       		.uleb128 0x6
 13404 0175 40       		.uleb128 0x40
 13405 0176 18       		.uleb128 0x18
 13406 0177 9742     		.uleb128 0x2117
 13407 0179 19       		.uleb128 0x19
 13408 017a 01       		.uleb128 0x1
 13409 017b 13       		.uleb128 0x13
 13410 017c 00       		.byte	0
 13411 017d 00       		.byte	0
 13412 017e 1C       		.uleb128 0x1c
 13413 017f 05       		.uleb128 0x5
 13414 0180 00       		.byte	0
 13415 0181 03       		.uleb128 0x3
 13416 0182 0E       		.uleb128 0xe
 13417 0183 3A       		.uleb128 0x3a
 13418 0184 0B       		.uleb128 0xb
 13419 0185 3B       		.uleb128 0x3b
 13420 0186 0B       		.uleb128 0xb
ARM GAS  C:\Users\FRANKL~1\AppData\Local\Temp\ccPy0viy.s 			page 270


 13421 0187 49       		.uleb128 0x49
 13422 0188 13       		.uleb128 0x13
 13423 0189 02       		.uleb128 0x2
 13424 018a 17       		.uleb128 0x17
 13425 018b 00       		.byte	0
 13426 018c 00       		.byte	0
 13427 018d 1D       		.uleb128 0x1d
 13428 018e 0B       		.uleb128 0xb
 13429 018f 01       		.byte	0x1
 13430 0190 55       		.uleb128 0x55
 13431 0191 17       		.uleb128 0x17
 13432 0192 01       		.uleb128 0x1
 13433 0193 13       		.uleb128 0x13
 13434 0194 00       		.byte	0
 13435 0195 00       		.byte	0
 13436 0196 1E       		.uleb128 0x1e
 13437 0197 34       		.uleb128 0x34
 13438 0198 00       		.byte	0
 13439 0199 03       		.uleb128 0x3
 13440 019a 08       		.uleb128 0x8
 13441 019b 3A       		.uleb128 0x3a
 13442 019c 0B       		.uleb128 0xb
 13443 019d 3B       		.uleb128 0x3b
 13444 019e 0B       		.uleb128 0xb
 13445 019f 49       		.uleb128 0x49
 13446 01a0 13       		.uleb128 0x13
 13447 01a1 02       		.uleb128 0x2
 13448 01a2 17       		.uleb128 0x17
 13449 01a3 00       		.byte	0
 13450 01a4 00       		.byte	0
 13451 01a5 1F       		.uleb128 0x1f
 13452 01a6 2E       		.uleb128 0x2e
 13453 01a7 01       		.byte	0x1
 13454 01a8 3F       		.uleb128 0x3f
 13455 01a9 19       		.uleb128 0x19
 13456 01aa 03       		.uleb128 0x3
 13457 01ab 0E       		.uleb128 0xe
 13458 01ac 3A       		.uleb128 0x3a
 13459 01ad 0B       		.uleb128 0xb
 13460 01ae 3B       		.uleb128 0x3b
 13461 01af 0B       		.uleb128 0xb
 13462 01b0 27       		.uleb128 0x27
 13463 01b1 19       		.uleb128 0x19
 13464 01b2 11       		.uleb128 0x11
 13465 01b3 01       		.uleb128 0x1
 13466 01b4 12       		.uleb128 0x12
 13467 01b5 06       		.uleb128 0x6
 13468 01b6 40       		.uleb128 0x40
 13469 01b7 18       		.uleb128 0x18
 13470 01b8 9742     		.uleb128 0x2117
 13471 01ba 19       		.uleb128 0x19
 13472 01bb 01       		.uleb128 0x1
 13473 01bc 13       		.uleb128 0x13
 13474 01bd 00       		.byte	0
 13475 01be 00       		.byte	0
 13476 01bf 20       		.uleb128 0x20
 13477 01c0 05       		.uleb128 0x5
ARM GAS  C:\Users\FRANKL~1\AppData\Local\Temp\ccPy0viy.s 			page 271


 13478 01c1 00       		.byte	0
 13479 01c2 03       		.uleb128 0x3
 13480 01c3 0E       		.uleb128 0xe
 13481 01c4 3A       		.uleb128 0x3a
 13482 01c5 0B       		.uleb128 0xb
 13483 01c6 3B       		.uleb128 0x3b
 13484 01c7 0B       		.uleb128 0xb
 13485 01c8 49       		.uleb128 0x49
 13486 01c9 13       		.uleb128 0x13
 13487 01ca 02       		.uleb128 0x2
 13488 01cb 18       		.uleb128 0x18
 13489 01cc 00       		.byte	0
 13490 01cd 00       		.byte	0
 13491 01ce 21       		.uleb128 0x21
 13492 01cf 2E       		.uleb128 0x2e
 13493 01d0 01       		.byte	0x1
 13494 01d1 3F       		.uleb128 0x3f
 13495 01d2 19       		.uleb128 0x19
 13496 01d3 03       		.uleb128 0x3
 13497 01d4 0E       		.uleb128 0xe
 13498 01d5 3A       		.uleb128 0x3a
 13499 01d6 0B       		.uleb128 0xb
 13500 01d7 3B       		.uleb128 0x3b
 13501 01d8 0B       		.uleb128 0xb
 13502 01d9 27       		.uleb128 0x27
 13503 01da 19       		.uleb128 0x19
 13504 01db 11       		.uleb128 0x11
 13505 01dc 01       		.uleb128 0x1
 13506 01dd 12       		.uleb128 0x12
 13507 01de 06       		.uleb128 0x6
 13508 01df 40       		.uleb128 0x40
 13509 01e0 18       		.uleb128 0x18
 13510 01e1 9642     		.uleb128 0x2116
 13511 01e3 19       		.uleb128 0x19
 13512 01e4 01       		.uleb128 0x1
 13513 01e5 13       		.uleb128 0x13
 13514 01e6 00       		.byte	0
 13515 01e7 00       		.byte	0
 13516 01e8 22       		.uleb128 0x22
 13517 01e9 0B       		.uleb128 0xb
 13518 01ea 01       		.byte	0x1
 13519 01eb 55       		.uleb128 0x55
 13520 01ec 17       		.uleb128 0x17
 13521 01ed 00       		.byte	0
 13522 01ee 00       		.byte	0
 13523 01ef 23       		.uleb128 0x23
 13524 01f0 34       		.uleb128 0x34
 13525 01f1 00       		.byte	0
 13526 01f2 03       		.uleb128 0x3
 13527 01f3 0E       		.uleb128 0xe
 13528 01f4 3A       		.uleb128 0x3a
 13529 01f5 0B       		.uleb128 0xb
 13530 01f6 3B       		.uleb128 0x3b
 13531 01f7 0B       		.uleb128 0xb
 13532 01f8 49       		.uleb128 0x49
 13533 01f9 13       		.uleb128 0x13
 13534 01fa 02       		.uleb128 0x2
ARM GAS  C:\Users\FRANKL~1\AppData\Local\Temp\ccPy0viy.s 			page 272


 13535 01fb 18       		.uleb128 0x18
 13536 01fc 00       		.byte	0
 13537 01fd 00       		.byte	0
 13538 01fe 24       		.uleb128 0x24
 13539 01ff 2E       		.uleb128 0x2e
 13540 0200 01       		.byte	0x1
 13541 0201 3F       		.uleb128 0x3f
 13542 0202 19       		.uleb128 0x19
 13543 0203 03       		.uleb128 0x3
 13544 0204 0E       		.uleb128 0xe
 13545 0205 3A       		.uleb128 0x3a
 13546 0206 0B       		.uleb128 0xb
 13547 0207 3B       		.uleb128 0x3b
 13548 0208 05       		.uleb128 0x5
 13549 0209 11       		.uleb128 0x11
 13550 020a 01       		.uleb128 0x1
 13551 020b 12       		.uleb128 0x12
 13552 020c 06       		.uleb128 0x6
 13553 020d 40       		.uleb128 0x40
 13554 020e 18       		.uleb128 0x18
 13555 020f 9742     		.uleb128 0x2117
 13556 0211 19       		.uleb128 0x19
 13557 0212 01       		.uleb128 0x1
 13558 0213 13       		.uleb128 0x13
 13559 0214 00       		.byte	0
 13560 0215 00       		.byte	0
 13561 0216 25       		.uleb128 0x25
 13562 0217 05       		.uleb128 0x5
 13563 0218 00       		.byte	0
 13564 0219 03       		.uleb128 0x3
 13565 021a 0E       		.uleb128 0xe
 13566 021b 3A       		.uleb128 0x3a
 13567 021c 0B       		.uleb128 0xb
 13568 021d 3B       		.uleb128 0x3b
 13569 021e 05       		.uleb128 0x5
 13570 021f 49       		.uleb128 0x49
 13571 0220 13       		.uleb128 0x13
 13572 0221 02       		.uleb128 0x2
 13573 0222 17       		.uleb128 0x17
 13574 0223 00       		.byte	0
 13575 0224 00       		.byte	0
 13576 0225 26       		.uleb128 0x26
 13577 0226 2E       		.uleb128 0x2e
 13578 0227 01       		.byte	0x1
 13579 0228 3F       		.uleb128 0x3f
 13580 0229 19       		.uleb128 0x19
 13581 022a 03       		.uleb128 0x3
 13582 022b 0E       		.uleb128 0xe
 13583 022c 3A       		.uleb128 0x3a
 13584 022d 0B       		.uleb128 0xb
 13585 022e 3B       		.uleb128 0x3b
 13586 022f 05       		.uleb128 0x5
 13587 0230 27       		.uleb128 0x27
 13588 0231 19       		.uleb128 0x19
 13589 0232 11       		.uleb128 0x11
 13590 0233 01       		.uleb128 0x1
 13591 0234 12       		.uleb128 0x12
ARM GAS  C:\Users\FRANKL~1\AppData\Local\Temp\ccPy0viy.s 			page 273


 13592 0235 06       		.uleb128 0x6
 13593 0236 40       		.uleb128 0x40
 13594 0237 18       		.uleb128 0x18
 13595 0238 9642     		.uleb128 0x2116
 13596 023a 19       		.uleb128 0x19
 13597 023b 01       		.uleb128 0x1
 13598 023c 13       		.uleb128 0x13
 13599 023d 00       		.byte	0
 13600 023e 00       		.byte	0
 13601 023f 27       		.uleb128 0x27
 13602 0240 34       		.uleb128 0x34
 13603 0241 00       		.byte	0
 13604 0242 03       		.uleb128 0x3
 13605 0243 0E       		.uleb128 0xe
 13606 0244 3A       		.uleb128 0x3a
 13607 0245 0B       		.uleb128 0xb
 13608 0246 3B       		.uleb128 0x3b
 13609 0247 05       		.uleb128 0x5
 13610 0248 49       		.uleb128 0x49
 13611 0249 13       		.uleb128 0x13
 13612 024a 1C       		.uleb128 0x1c
 13613 024b 0A       		.uleb128 0xa
 13614 024c 00       		.byte	0
 13615 024d 00       		.byte	0
 13616 024e 28       		.uleb128 0x28
 13617 024f 2E       		.uleb128 0x2e
 13618 0250 01       		.byte	0x1
 13619 0251 3F       		.uleb128 0x3f
 13620 0252 19       		.uleb128 0x19
 13621 0253 03       		.uleb128 0x3
 13622 0254 0E       		.uleb128 0xe
 13623 0255 3A       		.uleb128 0x3a
 13624 0256 0B       		.uleb128 0xb
 13625 0257 3B       		.uleb128 0x3b
 13626 0258 05       		.uleb128 0x5
 13627 0259 49       		.uleb128 0x49
 13628 025a 13       		.uleb128 0x13
 13629 025b 11       		.uleb128 0x11
 13630 025c 01       		.uleb128 0x1
 13631 025d 12       		.uleb128 0x12
 13632 025e 06       		.uleb128 0x6
 13633 025f 40       		.uleb128 0x40
 13634 0260 18       		.uleb128 0x18
 13635 0261 9642     		.uleb128 0x2116
 13636 0263 19       		.uleb128 0x19
 13637 0264 01       		.uleb128 0x1
 13638 0265 13       		.uleb128 0x13
 13639 0266 00       		.byte	0
 13640 0267 00       		.byte	0
 13641 0268 29       		.uleb128 0x29
 13642 0269 05       		.uleb128 0x5
 13643 026a 00       		.byte	0
 13644 026b 03       		.uleb128 0x3
 13645 026c 08       		.uleb128 0x8
 13646 026d 3A       		.uleb128 0x3a
 13647 026e 0B       		.uleb128 0xb
 13648 026f 3B       		.uleb128 0x3b
ARM GAS  C:\Users\FRANKL~1\AppData\Local\Temp\ccPy0viy.s 			page 274


 13649 0270 05       		.uleb128 0x5
 13650 0271 49       		.uleb128 0x49
 13651 0272 13       		.uleb128 0x13
 13652 0273 02       		.uleb128 0x2
 13653 0274 17       		.uleb128 0x17
 13654 0275 00       		.byte	0
 13655 0276 00       		.byte	0
 13656 0277 2A       		.uleb128 0x2a
 13657 0278 2E       		.uleb128 0x2e
 13658 0279 01       		.byte	0x1
 13659 027a 3F       		.uleb128 0x3f
 13660 027b 19       		.uleb128 0x19
 13661 027c 03       		.uleb128 0x3
 13662 027d 0E       		.uleb128 0xe
 13663 027e 3A       		.uleb128 0x3a
 13664 027f 0B       		.uleb128 0xb
 13665 0280 3B       		.uleb128 0x3b
 13666 0281 05       		.uleb128 0x5
 13667 0282 11       		.uleb128 0x11
 13668 0283 01       		.uleb128 0x1
 13669 0284 12       		.uleb128 0x12
 13670 0285 06       		.uleb128 0x6
 13671 0286 40       		.uleb128 0x40
 13672 0287 18       		.uleb128 0x18
 13673 0288 9642     		.uleb128 0x2116
 13674 028a 19       		.uleb128 0x19
 13675 028b 01       		.uleb128 0x1
 13676 028c 13       		.uleb128 0x13
 13677 028d 00       		.byte	0
 13678 028e 00       		.byte	0
 13679 028f 2B       		.uleb128 0x2b
 13680 0290 34       		.uleb128 0x34
 13681 0291 00       		.byte	0
 13682 0292 03       		.uleb128 0x3
 13683 0293 0E       		.uleb128 0xe
 13684 0294 3A       		.uleb128 0x3a
 13685 0295 0B       		.uleb128 0xb
 13686 0296 3B       		.uleb128 0x3b
 13687 0297 05       		.uleb128 0x5
 13688 0298 49       		.uleb128 0x49
 13689 0299 13       		.uleb128 0x13
 13690 029a 1C       		.uleb128 0x1c
 13691 029b 0B       		.uleb128 0xb
 13692 029c 00       		.byte	0
 13693 029d 00       		.byte	0
 13694 029e 2C       		.uleb128 0x2c
 13695 029f 34       		.uleb128 0x34
 13696 02a0 00       		.byte	0
 13697 02a1 03       		.uleb128 0x3
 13698 02a2 0E       		.uleb128 0xe
 13699 02a3 3A       		.uleb128 0x3a
 13700 02a4 0B       		.uleb128 0xb
 13701 02a5 3B       		.uleb128 0x3b
 13702 02a6 05       		.uleb128 0x5
 13703 02a7 49       		.uleb128 0x49
 13704 02a8 13       		.uleb128 0x13
 13705 02a9 00       		.byte	0
ARM GAS  C:\Users\FRANKL~1\AppData\Local\Temp\ccPy0viy.s 			page 275


 13706 02aa 00       		.byte	0
 13707 02ab 2D       		.uleb128 0x2d
 13708 02ac 2E       		.uleb128 0x2e
 13709 02ad 01       		.byte	0x1
 13710 02ae 3F       		.uleb128 0x3f
 13711 02af 19       		.uleb128 0x19
 13712 02b0 03       		.uleb128 0x3
 13713 02b1 0E       		.uleb128 0xe
 13714 02b2 3A       		.uleb128 0x3a
 13715 02b3 0B       		.uleb128 0xb
 13716 02b4 3B       		.uleb128 0x3b
 13717 02b5 05       		.uleb128 0x5
 13718 02b6 27       		.uleb128 0x27
 13719 02b7 19       		.uleb128 0x19
 13720 02b8 49       		.uleb128 0x49
 13721 02b9 13       		.uleb128 0x13
 13722 02ba 8701     		.uleb128 0x87
 13723 02bc 19       		.uleb128 0x19
 13724 02bd 11       		.uleb128 0x11
 13725 02be 01       		.uleb128 0x1
 13726 02bf 12       		.uleb128 0x12
 13727 02c0 06       		.uleb128 0x6
 13728 02c1 40       		.uleb128 0x40
 13729 02c2 18       		.uleb128 0x18
 13730 02c3 9642     		.uleb128 0x2116
 13731 02c5 19       		.uleb128 0x19
 13732 02c6 01       		.uleb128 0x1
 13733 02c7 13       		.uleb128 0x13
 13734 02c8 00       		.byte	0
 13735 02c9 00       		.byte	0
 13736 02ca 2E       		.uleb128 0x2e
 13737 02cb 34       		.uleb128 0x34
 13738 02cc 00       		.byte	0
 13739 02cd 03       		.uleb128 0x3
 13740 02ce 08       		.uleb128 0x8
 13741 02cf 3A       		.uleb128 0x3a
 13742 02d0 0B       		.uleb128 0xb
 13743 02d1 3B       		.uleb128 0x3b
 13744 02d2 05       		.uleb128 0x5
 13745 02d3 49       		.uleb128 0x49
 13746 02d4 13       		.uleb128 0x13
 13747 02d5 02       		.uleb128 0x2
 13748 02d6 18       		.uleb128 0x18
 13749 02d7 00       		.byte	0
 13750 02d8 00       		.byte	0
 13751 02d9 2F       		.uleb128 0x2f
 13752 02da 34       		.uleb128 0x34
 13753 02db 00       		.byte	0
 13754 02dc 03       		.uleb128 0x3
 13755 02dd 0E       		.uleb128 0xe
 13756 02de 3A       		.uleb128 0x3a
 13757 02df 0B       		.uleb128 0xb
 13758 02e0 3B       		.uleb128 0x3b
 13759 02e1 05       		.uleb128 0x5
 13760 02e2 49       		.uleb128 0x49
 13761 02e3 13       		.uleb128 0x13
 13762 02e4 3F       		.uleb128 0x3f
ARM GAS  C:\Users\FRANKL~1\AppData\Local\Temp\ccPy0viy.s 			page 276


 13763 02e5 19       		.uleb128 0x19
 13764 02e6 3C       		.uleb128 0x3c
 13765 02e7 19       		.uleb128 0x19
 13766 02e8 00       		.byte	0
 13767 02e9 00       		.byte	0
 13768 02ea 30       		.uleb128 0x30
 13769 02eb 34       		.uleb128 0x34
 13770 02ec 00       		.byte	0
 13771 02ed 03       		.uleb128 0x3
 13772 02ee 0E       		.uleb128 0xe
 13773 02ef 3A       		.uleb128 0x3a
 13774 02f0 0B       		.uleb128 0xb
 13775 02f1 3B       		.uleb128 0x3b
 13776 02f2 0B       		.uleb128 0xb
 13777 02f3 49       		.uleb128 0x49
 13778 02f4 13       		.uleb128 0x13
 13779 02f5 3F       		.uleb128 0x3f
 13780 02f6 19       		.uleb128 0x19
 13781 02f7 02       		.uleb128 0x2
 13782 02f8 18       		.uleb128 0x18
 13783 02f9 00       		.byte	0
 13784 02fa 00       		.byte	0
 13785 02fb 31       		.uleb128 0x31
 13786 02fc 2E       		.uleb128 0x2e
 13787 02fd 00       		.byte	0
 13788 02fe 3F       		.uleb128 0x3f
 13789 02ff 19       		.uleb128 0x19
 13790 0300 3C       		.uleb128 0x3c
 13791 0301 19       		.uleb128 0x19
 13792 0302 6E       		.uleb128 0x6e
 13793 0303 0E       		.uleb128 0xe
 13794 0304 03       		.uleb128 0x3
 13795 0305 0E       		.uleb128 0xe
 13796 0306 3A       		.uleb128 0x3a
 13797 0307 0B       		.uleb128 0xb
 13798 0308 3B       		.uleb128 0x3b
 13799 0309 05       		.uleb128 0x5
 13800 030a 00       		.byte	0
 13801 030b 00       		.byte	0
 13802 030c 32       		.uleb128 0x32
 13803 030d 2E       		.uleb128 0x2e
 13804 030e 00       		.byte	0
 13805 030f 3F       		.uleb128 0x3f
 13806 0310 19       		.uleb128 0x19
 13807 0311 3C       		.uleb128 0x3c
 13808 0312 19       		.uleb128 0x19
 13809 0313 6E       		.uleb128 0x6e
 13810 0314 0E       		.uleb128 0xe
 13811 0315 03       		.uleb128 0x3
 13812 0316 0E       		.uleb128 0xe
 13813 0317 3A       		.uleb128 0x3a
 13814 0318 0B       		.uleb128 0xb
 13815 0319 3B       		.uleb128 0x3b
 13816 031a 0B       		.uleb128 0xb
 13817 031b 00       		.byte	0
 13818 031c 00       		.byte	0
 13819 031d 33       		.uleb128 0x33
ARM GAS  C:\Users\FRANKL~1\AppData\Local\Temp\ccPy0viy.s 			page 277


 13820 031e 2E       		.uleb128 0x2e
 13821 031f 00       		.byte	0
 13822 0320 3F       		.uleb128 0x3f
 13823 0321 19       		.uleb128 0x19
 13824 0322 3C       		.uleb128 0x3c
 13825 0323 19       		.uleb128 0x19
 13826 0324 6E       		.uleb128 0x6e
 13827 0325 0E       		.uleb128 0xe
 13828 0326 03       		.uleb128 0x3
 13829 0327 0E       		.uleb128 0xe
 13830 0328 3A       		.uleb128 0x3a
 13831 0329 0B       		.uleb128 0xb
 13832 032a 3B       		.uleb128 0x3b
 13833 032b 0B       		.uleb128 0xb
 13834 032c 6E       		.uleb128 0x6e
 13835 032d 0E       		.uleb128 0xe
 13836 032e 00       		.byte	0
 13837 032f 00       		.byte	0
 13838 0330 00       		.byte	0
 13839              		.section	.debug_loc,"",%progbits
 13840              	.Ldebug_loc0:
 13841              	.LLST0:
 13842 0000 02000000 		.4byte	.LVL0
 13843 0004 12000000 		.4byte	.LVL3
 13844 0008 0200     		.2byte	0x2
 13845 000a 30       		.byte	0x30
 13846 000b 9F       		.byte	0x9f
 13847 000c 12000000 		.4byte	.LVL3
 13848 0010 18000000 		.4byte	.LFE64
 13849 0014 0200     		.2byte	0x2
 13850 0016 31       		.byte	0x31
 13851 0017 9F       		.byte	0x9f
 13852 0018 00000000 		.4byte	0
 13853 001c 00000000 		.4byte	0
 13854              	.LLST1:
 13855 0020 14000000 		.4byte	.LVL10
 13856 0024 7C000000 		.4byte	.LVL18
 13857 0028 0100     		.2byte	0x1
 13858 002a 50       		.byte	0x50
 13859 002b 00000000 		.4byte	0
 13860 002f 00000000 		.4byte	0
 13861              	.LLST2:
 13862 0033 14000000 		.4byte	.LVL10
 13863 0037 18000000 		.4byte	.LVL11
 13864 003b 0200     		.2byte	0x2
 13865 003d 30       		.byte	0x30
 13866 003e 9F       		.byte	0x9f
 13867 003f 18000000 		.4byte	.LVL11
 13868 0043 74000000 		.4byte	.LVL16
 13869 0047 0100     		.2byte	0x1
 13870 0049 53       		.byte	0x53
 13871 004a 76000000 		.4byte	.LVL17
 13872 004e 7C000000 		.4byte	.LVL18
 13873 0052 0100     		.2byte	0x1
 13874 0054 53       		.byte	0x53
 13875 0055 00000000 		.4byte	0
 13876 0059 00000000 		.4byte	0
ARM GAS  C:\Users\FRANKL~1\AppData\Local\Temp\ccPy0viy.s 			page 278


 13877              	.LLST3:
 13878 005d 20000000 		.4byte	.LVL12
 13879 0061 3A000000 		.4byte	.LVL13
 13880 0065 0100     		.2byte	0x1
 13881 0067 52       		.byte	0x52
 13882 0068 3A000000 		.4byte	.LVL13
 13883 006c 58000000 		.4byte	.LVL14
 13884 0070 0800     		.2byte	0x8
 13885 0072 91       		.byte	0x91
 13886 0073 00       		.sleb128 0
 13887 0074 73       		.byte	0x73
 13888 0075 00       		.sleb128 0
 13889 0076 22       		.byte	0x22
 13890 0077 08       		.byte	0x8
 13891 0078 50       		.byte	0x50
 13892 0079 1C       		.byte	0x1c
 13893 007a 58000000 		.4byte	.LVL14
 13894 007e 5C000000 		.4byte	.LVL15
 13895 0082 0100     		.2byte	0x1
 13896 0084 52       		.byte	0x52
 13897 0085 5C000000 		.4byte	.LVL15
 13898 0089 74000000 		.4byte	.LVL16
 13899 008d 0800     		.2byte	0x8
 13900 008f 91       		.byte	0x91
 13901 0090 00       		.sleb128 0
 13902 0091 73       		.byte	0x73
 13903 0092 00       		.sleb128 0
 13904 0093 22       		.byte	0x22
 13905 0094 08       		.byte	0x8
 13906 0095 50       		.byte	0x50
 13907 0096 1C       		.byte	0x1c
 13908 0097 74000000 		.4byte	.LVL16
 13909 009b 76000000 		.4byte	.LVL17
 13910 009f 0800     		.2byte	0x8
 13911 00a1 91       		.byte	0x91
 13912 00a2 00       		.sleb128 0
 13913 00a3 73       		.byte	0x73
 13914 00a4 00       		.sleb128 0
 13915 00a5 22       		.byte	0x22
 13916 00a6 08       		.byte	0x8
 13917 00a7 51       		.byte	0x51
 13918 00a8 1C       		.byte	0x1c
 13919 00a9 00000000 		.4byte	0
 13920 00ad 00000000 		.4byte	0
 13921              	.LLST4:
 13922 00b1 FC000000 		.4byte	.LVL21
 13923 00b5 0C010000 		.4byte	.LVL22
 13924 00b9 0600     		.2byte	0x6
 13925 00bb 03       		.byte	0x3
 13926 00bc 00000000 		.4byte	USBUART_Receive_Buffer
 13927 00c0 9F       		.byte	0x9f
 13928 00c1 0C010000 		.4byte	.LVL22
 13929 00c5 7C010000 		.4byte	.LVL28
 13930 00c9 0100     		.2byte	0x1
 13931 00cb 54       		.byte	0x54
 13932 00cc 00000000 		.4byte	0
 13933 00d0 00000000 		.4byte	0
ARM GAS  C:\Users\FRANKL~1\AppData\Local\Temp\ccPy0viy.s 			page 279


 13934              	.LLST5:
 13935 00d4 00000000 		.4byte	.LVL31
 13936 00d8 06000000 		.4byte	.LVL32
 13937 00dc 0100     		.2byte	0x1
 13938 00de 50       		.byte	0x50
 13939 00df 06000000 		.4byte	.LVL32
 13940 00e3 08000000 		.4byte	.LVL33
 13941 00e7 0400     		.2byte	0x4
 13942 00e9 F3       		.byte	0xf3
 13943 00ea 01       		.uleb128 0x1
 13944 00eb 50       		.byte	0x50
 13945 00ec 9F       		.byte	0x9f
 13946 00ed 08000000 		.4byte	.LVL33
 13947 00f1 16000000 		.4byte	.LVL37
 13948 00f5 0100     		.2byte	0x1
 13949 00f7 56       		.byte	0x56
 13950 00f8 16000000 		.4byte	.LVL37
 13951 00fc 1E000000 		.4byte	.LVL38
 13952 0100 0100     		.2byte	0x1
 13953 0102 50       		.byte	0x50
 13954 0103 1E000000 		.4byte	.LVL38
 13955 0107 50000000 		.4byte	.LFE66
 13956 010b 0100     		.2byte	0x1
 13957 010d 56       		.byte	0x56
 13958 010e 00000000 		.4byte	0
 13959 0112 00000000 		.4byte	0
 13960              	.LLST6:
 13961 0116 00000000 		.4byte	.LVL31
 13962 011a 08000000 		.4byte	.LVL33
 13963 011e 0100     		.2byte	0x1
 13964 0120 51       		.byte	0x51
 13965 0121 08000000 		.4byte	.LVL33
 13966 0125 16000000 		.4byte	.LVL37
 13967 0129 0400     		.2byte	0x4
 13968 012b F3       		.byte	0xf3
 13969 012c 01       		.uleb128 0x1
 13970 012d 51       		.byte	0x51
 13971 012e 9F       		.byte	0x9f
 13972 012f 16000000 		.4byte	.LVL37
 13973 0133 1E000000 		.4byte	.LVL38
 13974 0137 0100     		.2byte	0x1
 13975 0139 51       		.byte	0x51
 13976 013a 1E000000 		.4byte	.LVL38
 13977 013e 50000000 		.4byte	.LFE66
 13978 0142 0400     		.2byte	0x4
 13979 0144 F3       		.byte	0xf3
 13980 0145 01       		.uleb128 0x1
 13981 0146 51       		.byte	0x51
 13982 0147 9F       		.byte	0x9f
 13983 0148 00000000 		.4byte	0
 13984 014c 00000000 		.4byte	0
 13985              	.LLST7:
 13986 0150 08000000 		.4byte	.LVL33
 13987 0154 16000000 		.4byte	.LVL37
 13988 0158 0100     		.2byte	0x1
 13989 015a 54       		.byte	0x54
 13990 015b 1E000000 		.4byte	.LVL38
ARM GAS  C:\Users\FRANKL~1\AppData\Local\Temp\ccPy0viy.s 			page 280


 13991 015f 50000000 		.4byte	.LFE66
 13992 0163 0100     		.2byte	0x1
 13993 0165 54       		.byte	0x54
 13994 0166 00000000 		.4byte	0
 13995 016a 00000000 		.4byte	0
 13996              	.LLST8:
 13997 016e 00000000 		.4byte	.LVL43
 13998 0172 08000000 		.4byte	.LVL44
 13999 0176 0100     		.2byte	0x1
 14000 0178 50       		.byte	0x50
 14001 0179 08000000 		.4byte	.LVL44
 14002 017d 24000000 		.4byte	.LFE67
 14003 0181 0100     		.2byte	0x1
 14004 0183 54       		.byte	0x54
 14005 0184 00000000 		.4byte	0
 14006 0188 00000000 		.4byte	0
 14007              	.LLST9:
 14008 018c 00000000 		.4byte	.LVL43
 14009 0190 08000000 		.4byte	.LVL44
 14010 0194 0100     		.2byte	0x1
 14011 0196 51       		.byte	0x51
 14012 0197 08000000 		.4byte	.LVL44
 14013 019b 24000000 		.4byte	.LFE67
 14014 019f 0100     		.2byte	0x1
 14015 01a1 55       		.byte	0x55
 14016 01a2 00000000 		.4byte	0
 14017 01a6 00000000 		.4byte	0
 14018              	.LLST10:
 14019 01aa 00000000 		.4byte	.LVL51
 14020 01ae 1E000000 		.4byte	.LVL56
 14021 01b2 0100     		.2byte	0x1
 14022 01b4 50       		.byte	0x50
 14023 01b5 1E000000 		.4byte	.LVL56
 14024 01b9 58000000 		.4byte	.LFE69
 14025 01bd 0100     		.2byte	0x1
 14026 01bf 55       		.byte	0x55
 14027 01c0 00000000 		.4byte	0
 14028 01c4 00000000 		.4byte	0
 14029              	.LLST11:
 14030 01c8 00000000 		.4byte	.LVL51
 14031 01cc 1E000000 		.4byte	.LVL56
 14032 01d0 0100     		.2byte	0x1
 14033 01d2 51       		.byte	0x51
 14034 01d3 1E000000 		.4byte	.LVL56
 14035 01d7 58000000 		.4byte	.LFE69
 14036 01db 0400     		.2byte	0x4
 14037 01dd F3       		.byte	0xf3
 14038 01de 01       		.uleb128 0x1
 14039 01df 51       		.byte	0x51
 14040 01e0 9F       		.byte	0x9f
 14041 01e1 00000000 		.4byte	0
 14042 01e5 00000000 		.4byte	0
 14043              	.LLST12:
 14044 01e9 00000000 		.4byte	.LVL51
 14045 01ed 0E000000 		.4byte	.LVL53
 14046 01f1 0100     		.2byte	0x1
 14047 01f3 52       		.byte	0x52
ARM GAS  C:\Users\FRANKL~1\AppData\Local\Temp\ccPy0viy.s 			page 281


 14048 01f4 0E000000 		.4byte	.LVL53
 14049 01f8 58000000 		.4byte	.LFE69
 14050 01fc 0100     		.2byte	0x1
 14051 01fe 57       		.byte	0x57
 14052 01ff 00000000 		.4byte	0
 14053 0203 00000000 		.4byte	0
 14054              	.LLST13:
 14055 0207 0A000000 		.4byte	.LVL52
 14056 020b 0E000000 		.4byte	.LVL53
 14057 020f 0200     		.2byte	0x2
 14058 0211 30       		.byte	0x30
 14059 0212 9F       		.byte	0x9f
 14060 0213 0E000000 		.4byte	.LVL53
 14061 0217 14000000 		.4byte	.LVL54
 14062 021b 0100     		.2byte	0x1
 14063 021d 53       		.byte	0x53
 14064 021e 16000000 		.4byte	.LVL55
 14065 0222 1E000000 		.4byte	.LVL56
 14066 0226 0100     		.2byte	0x1
 14067 0228 53       		.byte	0x53
 14068 0229 00000000 		.4byte	0
 14069 022d 00000000 		.4byte	0
 14070              	.LLST14:
 14071 0231 1E000000 		.4byte	.LVL56
 14072 0235 4A000000 		.4byte	.LVL61
 14073 0239 0100     		.2byte	0x1
 14074 023b 54       		.byte	0x54
 14075 023c 4C000000 		.4byte	.LVL62
 14076 0240 58000000 		.4byte	.LFE69
 14077 0244 0100     		.2byte	0x1
 14078 0246 54       		.byte	0x54
 14079 0247 00000000 		.4byte	0
 14080 024b 00000000 		.4byte	0
 14081              	.LLST15:
 14082 024f 0A000000 		.4byte	.LVL64
 14083 0253 0E000000 		.4byte	.LVL65
 14084 0257 0200     		.2byte	0x2
 14085 0259 30       		.byte	0x30
 14086 025a 9F       		.byte	0x9f
 14087 025b 0E000000 		.4byte	.LVL65
 14088 025f 16000000 		.4byte	.LVL66
 14089 0263 0100     		.2byte	0x1
 14090 0265 53       		.byte	0x53
 14091 0266 18000000 		.4byte	.LVL67
 14092 026a 1E000000 		.4byte	.LVL68
 14093 026e 0100     		.2byte	0x1
 14094 0270 53       		.byte	0x53
 14095 0271 00000000 		.4byte	0
 14096 0275 00000000 		.4byte	0
 14097              	.LLST16:
 14098 0279 20000000 		.4byte	.LVL69
 14099 027d 2A000000 		.4byte	.LVL70
 14100 0281 0100     		.2byte	0x1
 14101 0283 53       		.byte	0x53
 14102 0284 2C000000 		.4byte	.LVL71
 14103 0288 32000000 		.4byte	.LFE70
 14104 028c 0100     		.2byte	0x1
ARM GAS  C:\Users\FRANKL~1\AppData\Local\Temp\ccPy0viy.s 			page 282


 14105 028e 53       		.byte	0x53
 14106 028f 00000000 		.4byte	0
 14107 0293 00000000 		.4byte	0
 14108              	.LLST17:
 14109 0297 00000000 		.4byte	.LVL72
 14110 029b 12000000 		.4byte	.LVL73
 14111 029f 0100     		.2byte	0x1
 14112 02a1 50       		.byte	0x50
 14113 02a2 12000000 		.4byte	.LVL73
 14114 02a6 90010000 		.4byte	.LFE71
 14115 02aa 0400     		.2byte	0x4
 14116 02ac F3       		.byte	0xf3
 14117 02ad 01       		.uleb128 0x1
 14118 02ae 50       		.byte	0x50
 14119 02af 9F       		.byte	0x9f
 14120 02b0 00000000 		.4byte	0
 14121 02b4 00000000 		.4byte	0
 14122              	.LLST18:
 14123 02b8 2A000000 		.4byte	.LVL77
 14124 02bc 32000000 		.4byte	.LVL79
 14125 02c0 0C00     		.2byte	0xc
 14126 02c2 74       		.byte	0x74
 14127 02c3 00       		.sleb128 0
 14128 02c4 08       		.byte	0x8
 14129 02c5 FF       		.byte	0xff
 14130 02c6 1E       		.byte	0x1e
 14131 02c7 03       		.byte	0x3
 14132 02c8 00000000 		.4byte	selectors
 14133 02cc 22       		.byte	0x22
 14134 02cd 9F       		.byte	0x9f
 14135 02ce 32000000 		.4byte	.LVL79
 14136 02d2 5C010000 		.4byte	.LVL108
 14137 02d6 0C00     		.2byte	0xc
 14138 02d8 78       		.byte	0x78
 14139 02d9 7F       		.sleb128 -1
 14140 02da 08       		.byte	0x8
 14141 02db FF       		.byte	0xff
 14142 02dc 1E       		.byte	0x1e
 14143 02dd 03       		.byte	0x3
 14144 02de 00000000 		.4byte	selectors
 14145 02e2 22       		.byte	0x22
 14146 02e3 9F       		.byte	0x9f
 14147 02e4 00000000 		.4byte	0
 14148 02e8 00000000 		.4byte	0
 14149              	.LLST19:
 14150 02ec 44000000 		.4byte	.LVL80
 14151 02f0 48000000 		.4byte	.LVL81
 14152 02f4 0200     		.2byte	0x2
 14153 02f6 30       		.byte	0x30
 14154 02f7 9F       		.byte	0x9f
 14155 02f8 48000000 		.4byte	.LVL81
 14156 02fc C6000000 		.4byte	.LVL93
 14157 0300 0100     		.2byte	0x1
 14158 0302 54       		.byte	0x54
 14159 0303 00000000 		.4byte	0
 14160 0307 00000000 		.4byte	0
 14161              	.LLST20:
ARM GAS  C:\Users\FRANKL~1\AppData\Local\Temp\ccPy0viy.s 			page 283


 14162 030b 00000000 		.4byte	.LVL109
 14163 030f 16000000 		.4byte	.LVL111
 14164 0313 0100     		.2byte	0x1
 14165 0315 50       		.byte	0x50
 14166 0316 16000000 		.4byte	.LVL111
 14167 031a B2000000 		.4byte	.LVL139
 14168 031e 0200     		.2byte	0x2
 14169 0320 7D       		.byte	0x7d
 14170 0321 00       		.sleb128 0
 14171 0322 B2000000 		.4byte	.LVL139
 14172 0326 B6000000 		.4byte	.LFE72
 14173 032a 0200     		.2byte	0x2
 14174 032c 91       		.byte	0x91
 14175 032d 50       		.sleb128 -48
 14176 032e 00000000 		.4byte	0
 14177 0332 00000000 		.4byte	0
 14178              	.LLST21:
 14179 0336 00000000 		.4byte	.LVL109
 14180 033a 16000000 		.4byte	.LVL111
 14181 033e 0100     		.2byte	0x1
 14182 0340 51       		.byte	0x51
 14183 0341 16000000 		.4byte	.LVL111
 14184 0345 B6000000 		.4byte	.LFE72
 14185 0349 0200     		.2byte	0x2
 14186 034b 91       		.byte	0x91
 14187 034c 54       		.sleb128 -44
 14188 034d 00000000 		.4byte	0
 14189 0351 00000000 		.4byte	0
 14190              	.LLST22:
 14191 0355 00000000 		.4byte	.LVL109
 14192 0359 16000000 		.4byte	.LVL111
 14193 035d 0100     		.2byte	0x1
 14194 035f 52       		.byte	0x52
 14195 0360 16000000 		.4byte	.LVL111
 14196 0364 B6000000 		.4byte	.LFE72
 14197 0368 0100     		.2byte	0x1
 14198 036a 5B       		.byte	0x5b
 14199 036b 00000000 		.4byte	0
 14200 036f 00000000 		.4byte	0
 14201              	.LLST23:
 14202 0373 0C000000 		.4byte	.LVL110
 14203 0377 16000000 		.4byte	.LVL111
 14204 037b 0200     		.2byte	0x2
 14205 037d 30       		.byte	0x30
 14206 037e 9F       		.byte	0x9f
 14207 037f 16000000 		.4byte	.LVL111
 14208 0383 84000000 		.4byte	.LVL132
 14209 0387 0100     		.2byte	0x1
 14210 0389 55       		.byte	0x55
 14211 038a A0000000 		.4byte	.LVL137
 14212 038e A2000000 		.4byte	.LVL138
 14213 0392 0100     		.2byte	0x1
 14214 0394 50       		.byte	0x50
 14215 0395 A2000000 		.4byte	.LVL138
 14216 0399 B6000000 		.4byte	.LFE72
 14217 039d 0100     		.2byte	0x1
 14218 039f 55       		.byte	0x55
ARM GAS  C:\Users\FRANKL~1\AppData\Local\Temp\ccPy0viy.s 			page 284


 14219 03a0 00000000 		.4byte	0
 14220 03a4 00000000 		.4byte	0
 14221              	.LLST24:
 14222 03a8 0C000000 		.4byte	.LVL110
 14223 03ac 16000000 		.4byte	.LVL111
 14224 03b0 0200     		.2byte	0x2
 14225 03b2 30       		.byte	0x30
 14226 03b3 9F       		.byte	0x9f
 14227 03b4 16000000 		.4byte	.LVL111
 14228 03b8 74000000 		.4byte	.LVL127
 14229 03bc 0100     		.2byte	0x1
 14230 03be 59       		.byte	0x59
 14231 03bf 74000000 		.4byte	.LVL127
 14232 03c3 76000000 		.4byte	.LVL128
 14233 03c7 0100     		.2byte	0x1
 14234 03c9 50       		.byte	0x50
 14235 03ca 76000000 		.4byte	.LVL128
 14236 03ce B6000000 		.4byte	.LFE72
 14237 03d2 0100     		.2byte	0x1
 14238 03d4 59       		.byte	0x59
 14239 03d5 00000000 		.4byte	0
 14240 03d9 00000000 		.4byte	0
 14241              	.LLST25:
 14242 03dd 0C000000 		.4byte	.LVL110
 14243 03e1 16000000 		.4byte	.LVL111
 14244 03e5 0200     		.2byte	0x2
 14245 03e7 31       		.byte	0x31
 14246 03e8 9F       		.byte	0x9f
 14247 03e9 16000000 		.4byte	.LVL111
 14248 03ed B6000000 		.4byte	.LFE72
 14249 03f1 0100     		.2byte	0x1
 14250 03f3 54       		.byte	0x54
 14251 03f4 00000000 		.4byte	0
 14252 03f8 00000000 		.4byte	0
 14253              	.LLST26:
 14254 03fc 2E000000 		.4byte	.LVL116
 14255 0400 30000000 		.4byte	.LVL117
 14256 0404 0100     		.2byte	0x1
 14257 0406 50       		.byte	0x50
 14258 0407 30000000 		.4byte	.LVL117
 14259 040b 7C000000 		.4byte	.LVL130
 14260 040f 0100     		.2byte	0x1
 14261 0411 57       		.byte	0x57
 14262 0412 00000000 		.4byte	0
 14263 0416 00000000 		.4byte	0
 14264              	.LLST27:
 14265 041a 00000000 		.4byte	.LVL140
 14266 041e 16000000 		.4byte	.LVL142
 14267 0422 0100     		.2byte	0x1
 14268 0424 50       		.byte	0x50
 14269 0425 16000000 		.4byte	.LVL142
 14270 0429 94000000 		.4byte	.LFE73
 14271 042d 0100     		.2byte	0x1
 14272 042f 5B       		.byte	0x5b
 14273 0430 00000000 		.4byte	0
 14274 0434 00000000 		.4byte	0
 14275              	.LLST28:
ARM GAS  C:\Users\FRANKL~1\AppData\Local\Temp\ccPy0viy.s 			page 285


 14276 0438 00000000 		.4byte	.LVL140
 14277 043c 16000000 		.4byte	.LVL142
 14278 0440 0100     		.2byte	0x1
 14279 0442 51       		.byte	0x51
 14280 0443 16000000 		.4byte	.LVL142
 14281 0447 94000000 		.4byte	.LFE73
 14282 044b 0200     		.2byte	0x2
 14283 044d 91       		.byte	0x91
 14284 044e 54       		.sleb128 -44
 14285 044f 00000000 		.4byte	0
 14286 0453 00000000 		.4byte	0
 14287              	.LLST29:
 14288 0457 00000000 		.4byte	.LVL140
 14289 045b 16000000 		.4byte	.LVL142
 14290 045f 0100     		.2byte	0x1
 14291 0461 52       		.byte	0x52
 14292 0462 16000000 		.4byte	.LVL142
 14293 0466 94000000 		.4byte	.LFE73
 14294 046a 0100     		.2byte	0x1
 14295 046c 5A       		.byte	0x5a
 14296 046d 00000000 		.4byte	0
 14297 0471 00000000 		.4byte	0
 14298              	.LLST30:
 14299 0475 0C000000 		.4byte	.LVL141
 14300 0479 16000000 		.4byte	.LVL142
 14301 047d 0600     		.2byte	0x6
 14302 047f 9E       		.byte	0x9e
 14303 0480 04       		.uleb128 0x4
 14304 0481 00000000 		.4byte	0
 14305 0485 16000000 		.4byte	.LVL142
 14306 0489 7E000000 		.4byte	.LVL161
 14307 048d 0100     		.2byte	0x1
 14308 048f 56       		.byte	0x56
 14309 0490 7E000000 		.4byte	.LVL161
 14310 0494 80000000 		.4byte	.LVL162
 14311 0498 0100     		.2byte	0x1
 14312 049a 50       		.byte	0x50
 14313 049b 80000000 		.4byte	.LVL162
 14314 049f 94000000 		.4byte	.LFE73
 14315 04a3 0100     		.2byte	0x1
 14316 04a5 56       		.byte	0x56
 14317 04a6 00000000 		.4byte	0
 14318 04aa 00000000 		.4byte	0
 14319              	.LLST31:
 14320 04ae 0C000000 		.4byte	.LVL141
 14321 04b2 16000000 		.4byte	.LVL142
 14322 04b6 0600     		.2byte	0x6
 14323 04b8 9E       		.byte	0x9e
 14324 04b9 04       		.uleb128 0x4
 14325 04ba 00000000 		.4byte	0
 14326 04be 16000000 		.4byte	.LVL142
 14327 04c2 6C000000 		.4byte	.LVL157
 14328 04c6 0100     		.2byte	0x1
 14329 04c8 58       		.byte	0x58
 14330 04c9 6C000000 		.4byte	.LVL157
 14331 04cd 70000000 		.4byte	.LVL158
 14332 04d1 0100     		.2byte	0x1
ARM GAS  C:\Users\FRANKL~1\AppData\Local\Temp\ccPy0viy.s 			page 286


 14333 04d3 50       		.byte	0x50
 14334 04d4 70000000 		.4byte	.LVL158
 14335 04d8 94000000 		.4byte	.LFE73
 14336 04dc 0100     		.2byte	0x1
 14337 04de 58       		.byte	0x58
 14338 04df 00000000 		.4byte	0
 14339 04e3 00000000 		.4byte	0
 14340              	.LLST32:
 14341 04e7 0C000000 		.4byte	.LVL141
 14342 04eb 16000000 		.4byte	.LVL142
 14343 04ef 0200     		.2byte	0x2
 14344 04f1 31       		.byte	0x31
 14345 04f2 9F       		.byte	0x9f
 14346 04f3 16000000 		.4byte	.LVL142
 14347 04f7 94000000 		.4byte	.LFE73
 14348 04fb 0100     		.2byte	0x1
 14349 04fd 54       		.byte	0x54
 14350 04fe 00000000 		.4byte	0
 14351 0502 00000000 		.4byte	0
 14352              	.LLST33:
 14353 0506 2E000000 		.4byte	.LVL147
 14354 050a 30000000 		.4byte	.LVL148
 14355 050e 0100     		.2byte	0x1
 14356 0510 50       		.byte	0x50
 14357 0511 30000000 		.4byte	.LVL148
 14358 0515 52000000 		.4byte	.LVL153
 14359 0519 0100     		.2byte	0x1
 14360 051b 55       		.byte	0x55
 14361 051c 00000000 		.4byte	0
 14362 0520 00000000 		.4byte	0
 14363              	.LLST34:
 14364 0524 00000000 		.4byte	.LVL163
 14365 0528 16000000 		.4byte	.LVL165
 14366 052c 0100     		.2byte	0x1
 14367 052e 50       		.byte	0x50
 14368 052f 16000000 		.4byte	.LVL165
 14369 0533 94000000 		.4byte	.LFE74
 14370 0537 0100     		.2byte	0x1
 14371 0539 5B       		.byte	0x5b
 14372 053a 00000000 		.4byte	0
 14373 053e 00000000 		.4byte	0
 14374              	.LLST35:
 14375 0542 00000000 		.4byte	.LVL163
 14376 0546 16000000 		.4byte	.LVL165
 14377 054a 0100     		.2byte	0x1
 14378 054c 51       		.byte	0x51
 14379 054d 16000000 		.4byte	.LVL165
 14380 0551 94000000 		.4byte	.LFE74
 14381 0555 0200     		.2byte	0x2
 14382 0557 91       		.byte	0x91
 14383 0558 54       		.sleb128 -44
 14384 0559 00000000 		.4byte	0
 14385 055d 00000000 		.4byte	0
 14386              	.LLST36:
 14387 0561 00000000 		.4byte	.LVL163
 14388 0565 16000000 		.4byte	.LVL165
 14389 0569 0100     		.2byte	0x1
ARM GAS  C:\Users\FRANKL~1\AppData\Local\Temp\ccPy0viy.s 			page 287


 14390 056b 52       		.byte	0x52
 14391 056c 16000000 		.4byte	.LVL165
 14392 0570 94000000 		.4byte	.LFE74
 14393 0574 0100     		.2byte	0x1
 14394 0576 5A       		.byte	0x5a
 14395 0577 00000000 		.4byte	0
 14396 057b 00000000 		.4byte	0
 14397              	.LLST37:
 14398 057f 0C000000 		.4byte	.LVL164
 14399 0583 16000000 		.4byte	.LVL165
 14400 0587 0600     		.2byte	0x6
 14401 0589 9E       		.byte	0x9e
 14402 058a 04       		.uleb128 0x4
 14403 058b 00000000 		.4byte	0
 14404 058f 16000000 		.4byte	.LVL165
 14405 0593 7E000000 		.4byte	.LVL184
 14406 0597 0100     		.2byte	0x1
 14407 0599 56       		.byte	0x56
 14408 059a 7E000000 		.4byte	.LVL184
 14409 059e 80000000 		.4byte	.LVL185
 14410 05a2 0100     		.2byte	0x1
 14411 05a4 50       		.byte	0x50
 14412 05a5 80000000 		.4byte	.LVL185
 14413 05a9 94000000 		.4byte	.LFE74
 14414 05ad 0100     		.2byte	0x1
 14415 05af 56       		.byte	0x56
 14416 05b0 00000000 		.4byte	0
 14417 05b4 00000000 		.4byte	0
 14418              	.LLST38:
 14419 05b8 0C000000 		.4byte	.LVL164
 14420 05bc 16000000 		.4byte	.LVL165
 14421 05c0 0600     		.2byte	0x6
 14422 05c2 9E       		.byte	0x9e
 14423 05c3 04       		.uleb128 0x4
 14424 05c4 00000000 		.4byte	0
 14425 05c8 16000000 		.4byte	.LVL165
 14426 05cc 6C000000 		.4byte	.LVL180
 14427 05d0 0100     		.2byte	0x1
 14428 05d2 58       		.byte	0x58
 14429 05d3 6C000000 		.4byte	.LVL180
 14430 05d7 70000000 		.4byte	.LVL181
 14431 05db 0100     		.2byte	0x1
 14432 05dd 50       		.byte	0x50
 14433 05de 70000000 		.4byte	.LVL181
 14434 05e2 94000000 		.4byte	.LFE74
 14435 05e6 0100     		.2byte	0x1
 14436 05e8 58       		.byte	0x58
 14437 05e9 00000000 		.4byte	0
 14438 05ed 00000000 		.4byte	0
 14439              	.LLST39:
 14440 05f1 0C000000 		.4byte	.LVL164
 14441 05f5 16000000 		.4byte	.LVL165
 14442 05f9 0200     		.2byte	0x2
 14443 05fb 31       		.byte	0x31
 14444 05fc 9F       		.byte	0x9f
 14445 05fd 16000000 		.4byte	.LVL165
 14446 0601 94000000 		.4byte	.LFE74
ARM GAS  C:\Users\FRANKL~1\AppData\Local\Temp\ccPy0viy.s 			page 288


 14447 0605 0100     		.2byte	0x1
 14448 0607 54       		.byte	0x54
 14449 0608 00000000 		.4byte	0
 14450 060c 00000000 		.4byte	0
 14451              	.LLST40:
 14452 0610 2E000000 		.4byte	.LVL170
 14453 0614 30000000 		.4byte	.LVL171
 14454 0618 0100     		.2byte	0x1
 14455 061a 50       		.byte	0x50
 14456 061b 30000000 		.4byte	.LVL171
 14457 061f 52000000 		.4byte	.LVL176
 14458 0623 0100     		.2byte	0x1
 14459 0625 55       		.byte	0x55
 14460 0626 00000000 		.4byte	0
 14461 062a 00000000 		.4byte	0
 14462              	.LLST41:
 14463 062e 10000000 		.4byte	.LVL187
 14464 0632 14000000 		.4byte	.LVL188
 14465 0636 0200     		.2byte	0x2
 14466 0638 30       		.byte	0x30
 14467 0639 9F       		.byte	0x9f
 14468 063a 14000000 		.4byte	.LVL188
 14469 063e 50000000 		.4byte	.LVL195
 14470 0642 0100     		.2byte	0x1
 14471 0644 54       		.byte	0x54
 14472 0645 52000000 		.4byte	.LVL196
 14473 0649 5A000000 		.4byte	.LVL197
 14474 064d 0100     		.2byte	0x1
 14475 064f 54       		.byte	0x54
 14476 0650 00000000 		.4byte	0
 14477 0654 00000000 		.4byte	0
 14478              	.LLST42:
 14479 0658 02000000 		.4byte	.LVL198
 14480 065c 06000000 		.4byte	.LVL199
 14481 0660 0200     		.2byte	0x2
 14482 0662 30       		.byte	0x30
 14483 0663 9F       		.byte	0x9f
 14484 0664 06000000 		.4byte	.LVL199
 14485 0668 14000000 		.4byte	.LVL201
 14486 066c 0100     		.2byte	0x1
 14487 066e 54       		.byte	0x54
 14488 066f 16000000 		.4byte	.LVL202
 14489 0673 36000000 		.4byte	.LVL203
 14490 0677 0100     		.2byte	0x1
 14491 0679 54       		.byte	0x54
 14492 067a 00000000 		.4byte	0
 14493 067e 00000000 		.4byte	0
 14494              	.LLST43:
 14495 0682 00000000 		.4byte	.LVL204
 14496 0686 04000000 		.4byte	.LVL205
 14497 068a 0100     		.2byte	0x1
 14498 068c 50       		.byte	0x50
 14499 068d 04000000 		.4byte	.LVL205
 14500 0691 06000000 		.4byte	.LVL206
 14501 0695 0400     		.2byte	0x4
 14502 0697 F3       		.byte	0xf3
 14503 0698 01       		.uleb128 0x1
ARM GAS  C:\Users\FRANKL~1\AppData\Local\Temp\ccPy0viy.s 			page 289


 14504 0699 50       		.byte	0x50
 14505 069a 9F       		.byte	0x9f
 14506 069b 06000000 		.4byte	.LVL206
 14507 069f 1C000000 		.4byte	.LVL208
 14508 06a3 0100     		.2byte	0x1
 14509 06a5 53       		.byte	0x53
 14510 06a6 00000000 		.4byte	0
 14511 06aa 00000000 		.4byte	0
 14512              	.LLST44:
 14513 06ae 00000000 		.4byte	.LVL204
 14514 06b2 06000000 		.4byte	.LVL206
 14515 06b6 0100     		.2byte	0x1
 14516 06b8 51       		.byte	0x51
 14517 06b9 06000000 		.4byte	.LVL206
 14518 06bd 0C000000 		.4byte	.LVL207
 14519 06c1 0300     		.2byte	0x3
 14520 06c3 71       		.byte	0x71
 14521 06c4 7F       		.sleb128 -1
 14522 06c5 9F       		.byte	0x9f
 14523 06c6 0C000000 		.4byte	.LVL207
 14524 06ca 2C000000 		.4byte	.LFE77
 14525 06ce 0600     		.2byte	0x6
 14526 06d0 F3       		.byte	0xf3
 14527 06d1 01       		.uleb128 0x1
 14528 06d2 51       		.byte	0x51
 14529 06d3 31       		.byte	0x31
 14530 06d4 1C       		.byte	0x1c
 14531 06d5 9F       		.byte	0x9f
 14532 06d6 00000000 		.4byte	0
 14533 06da 00000000 		.4byte	0
 14534              	.LLST45:
 14535 06de 00000000 		.4byte	.LVL210
 14536 06e2 02000000 		.4byte	.LVL211
 14537 06e6 0100     		.2byte	0x1
 14538 06e8 50       		.byte	0x50
 14539 06e9 02000000 		.4byte	.LVL211
 14540 06ed 04000000 		.4byte	.LVL212
 14541 06f1 0400     		.2byte	0x4
 14542 06f3 F3       		.byte	0xf3
 14543 06f4 01       		.uleb128 0x1
 14544 06f5 50       		.byte	0x50
 14545 06f6 9F       		.byte	0x9f
 14546 06f7 04000000 		.4byte	.LVL212
 14547 06fb 26000000 		.4byte	.LVL217
 14548 06ff 0100     		.2byte	0x1
 14549 0701 50       		.byte	0x50
 14550 0702 30000000 		.4byte	.LVL219
 14551 0706 32000000 		.4byte	.LFE78
 14552 070a 0100     		.2byte	0x1
 14553 070c 50       		.byte	0x50
 14554 070d 00000000 		.4byte	0
 14555 0711 00000000 		.4byte	0
 14556              	.LLST46:
 14557 0715 00000000 		.4byte	.LVL210
 14558 0719 04000000 		.4byte	.LVL212
 14559 071d 0100     		.2byte	0x1
 14560 071f 51       		.byte	0x51
ARM GAS  C:\Users\FRANKL~1\AppData\Local\Temp\ccPy0viy.s 			page 290


 14561 0720 04000000 		.4byte	.LVL212
 14562 0724 2D000000 		.4byte	.LVL218-1
 14563 0728 0300     		.2byte	0x3
 14564 072a 71       		.byte	0x71
 14565 072b 7F       		.sleb128 -1
 14566 072c 9F       		.byte	0x9f
 14567 072d 2D000000 		.4byte	.LVL218-1
 14568 0731 30000000 		.4byte	.LVL219
 14569 0735 0600     		.2byte	0x6
 14570 0737 F3       		.byte	0xf3
 14571 0738 01       		.uleb128 0x1
 14572 0739 51       		.byte	0x51
 14573 073a 31       		.byte	0x31
 14574 073b 1C       		.byte	0x1c
 14575 073c 9F       		.byte	0x9f
 14576 073d 30000000 		.4byte	.LVL219
 14577 0741 32000000 		.4byte	.LFE78
 14578 0745 0300     		.2byte	0x3
 14579 0747 71       		.byte	0x71
 14580 0748 7F       		.sleb128 -1
 14581 0749 9F       		.byte	0x9f
 14582 074a 00000000 		.4byte	0
 14583 074e 00000000 		.4byte	0
 14584              	.LLST47:
 14585 0752 12000000 		.4byte	.LVL213
 14586 0756 16000000 		.4byte	.LVL214
 14587 075a 0200     		.2byte	0x2
 14588 075c 30       		.byte	0x30
 14589 075d 9F       		.byte	0x9f
 14590 075e 16000000 		.4byte	.LVL214
 14591 0762 1E000000 		.4byte	.LVL215
 14592 0766 0300     		.2byte	0x3
 14593 0768 08       		.byte	0x8
 14594 0769 20       		.byte	0x20
 14595 076a 9F       		.byte	0x9f
 14596 076b 1E000000 		.4byte	.LVL215
 14597 076f 24000000 		.4byte	.LVL216
 14598 0773 0200     		.2byte	0x2
 14599 0775 30       		.byte	0x30
 14600 0776 9F       		.byte	0x9f
 14601 0777 24000000 		.4byte	.LVL216
 14602 077b 2D000000 		.4byte	.LVL218-1
 14603 077f 0100     		.2byte	0x1
 14604 0781 53       		.byte	0x53
 14605 0782 00000000 		.4byte	0
 14606 0786 00000000 		.4byte	0
 14607              	.LLST48:
 14608 078a 00000000 		.4byte	.LVL220
 14609 078e 04000000 		.4byte	.LVL221
 14610 0792 0100     		.2byte	0x1
 14611 0794 50       		.byte	0x50
 14612 0795 04000000 		.4byte	.LVL221
 14613 0799 06000000 		.4byte	.LVL222
 14614 079d 0400     		.2byte	0x4
 14615 079f F3       		.byte	0xf3
 14616 07a0 01       		.uleb128 0x1
 14617 07a1 50       		.byte	0x50
ARM GAS  C:\Users\FRANKL~1\AppData\Local\Temp\ccPy0viy.s 			page 291


 14618 07a2 9F       		.byte	0x9f
 14619 07a3 06000000 		.4byte	.LVL222
 14620 07a7 26000000 		.4byte	.LVL228
 14621 07ab 0100     		.2byte	0x1
 14622 07ad 53       		.byte	0x53
 14623 07ae 00000000 		.4byte	0
 14624 07b2 00000000 		.4byte	0
 14625              	.LLST49:
 14626 07b6 00000000 		.4byte	.LVL220
 14627 07ba 06000000 		.4byte	.LVL222
 14628 07be 0100     		.2byte	0x1
 14629 07c0 51       		.byte	0x51
 14630 07c1 06000000 		.4byte	.LVL222
 14631 07c5 0C000000 		.4byte	.LVL223
 14632 07c9 0300     		.2byte	0x3
 14633 07cb 71       		.byte	0x71
 14634 07cc 7F       		.sleb128 -1
 14635 07cd 9F       		.byte	0x9f
 14636 07ce 0C000000 		.4byte	.LVL223
 14637 07d2 40000000 		.4byte	.LFE79
 14638 07d6 0600     		.2byte	0x6
 14639 07d8 F3       		.byte	0xf3
 14640 07d9 01       		.uleb128 0x1
 14641 07da 51       		.byte	0x51
 14642 07db 31       		.byte	0x31
 14643 07dc 1C       		.byte	0x1c
 14644 07dd 9F       		.byte	0x9f
 14645 07de 00000000 		.4byte	0
 14646 07e2 00000000 		.4byte	0
 14647              	.LLST50:
 14648 07e6 12000000 		.4byte	.LVL224
 14649 07ea 16000000 		.4byte	.LVL225
 14650 07ee 0200     		.2byte	0x2
 14651 07f0 30       		.byte	0x30
 14652 07f1 9F       		.byte	0x9f
 14653 07f2 16000000 		.4byte	.LVL225
 14654 07f6 1E000000 		.4byte	.LVL226
 14655 07fa 0300     		.2byte	0x3
 14656 07fc 08       		.byte	0x8
 14657 07fd 20       		.byte	0x20
 14658 07fe 9F       		.byte	0x9f
 14659 07ff 1E000000 		.4byte	.LVL226
 14660 0803 24000000 		.4byte	.LVL227
 14661 0807 0200     		.2byte	0x2
 14662 0809 30       		.byte	0x30
 14663 080a 9F       		.byte	0x9f
 14664 080b 24000000 		.4byte	.LVL227
 14665 080f 2A000000 		.4byte	.LVL229
 14666 0813 0100     		.2byte	0x1
 14667 0815 52       		.byte	0x52
 14668 0816 00000000 		.4byte	0
 14669 081a 00000000 		.4byte	0
 14670              	.LLST51:
 14671 081e 00000000 		.4byte	.LVL231
 14672 0822 04000000 		.4byte	.LVL232
 14673 0826 0100     		.2byte	0x1
 14674 0828 50       		.byte	0x50
ARM GAS  C:\Users\FRANKL~1\AppData\Local\Temp\ccPy0viy.s 			page 292


 14675 0829 04000000 		.4byte	.LVL232
 14676 082d 06000000 		.4byte	.LVL233
 14677 0831 0400     		.2byte	0x4
 14678 0833 F3       		.byte	0xf3
 14679 0834 01       		.uleb128 0x1
 14680 0835 50       		.byte	0x50
 14681 0836 9F       		.byte	0x9f
 14682 0837 06000000 		.4byte	.LVL233
 14683 083b 3C000000 		.4byte	.LVL242
 14684 083f 0100     		.2byte	0x1
 14685 0841 55       		.byte	0x55
 14686 0842 00000000 		.4byte	0
 14687 0846 00000000 		.4byte	0
 14688              	.LLST52:
 14689 084a 06000000 		.4byte	.LVL233
 14690 084e 0A000000 		.4byte	.LVL234
 14691 0852 0200     		.2byte	0x2
 14692 0854 30       		.byte	0x30
 14693 0855 9F       		.byte	0x9f
 14694 0856 0A000000 		.4byte	.LVL234
 14695 085a 34000000 		.4byte	.LVL240
 14696 085e 0100     		.2byte	0x1
 14697 0860 54       		.byte	0x54
 14698 0861 36000000 		.4byte	.LVL241
 14699 0865 3C000000 		.4byte	.LVL242
 14700 0869 0100     		.2byte	0x1
 14701 086b 54       		.byte	0x54
 14702 086c 00000000 		.4byte	0
 14703 0870 00000000 		.4byte	0
 14704              	.LLST53:
 14705 0874 0A000000 		.4byte	.LVL234
 14706 0878 0E000000 		.4byte	.LVL235
 14707 087c 0200     		.2byte	0x2
 14708 087e 30       		.byte	0x30
 14709 087f 9F       		.byte	0x9f
 14710 0880 0E000000 		.4byte	.LVL235
 14711 0884 16000000 		.4byte	.LVL236
 14712 0888 0300     		.2byte	0x3
 14713 088a 08       		.byte	0x8
 14714 088b 20       		.byte	0x20
 14715 088c 9F       		.byte	0x9f
 14716 088d 16000000 		.4byte	.LVL236
 14717 0891 1C000000 		.4byte	.LVL237
 14718 0895 0200     		.2byte	0x2
 14719 0897 30       		.byte	0x30
 14720 0898 9F       		.byte	0x9f
 14721 0899 1C000000 		.4byte	.LVL237
 14722 089d 22000000 		.4byte	.LVL238
 14723 08a1 0100     		.2byte	0x1
 14724 08a3 53       		.byte	0x53
 14725 08a4 00000000 		.4byte	0
 14726 08a8 00000000 		.4byte	0
 14727              	.LLST54:
 14728 08ac 02000000 		.4byte	.LVL243
 14729 08b0 06000000 		.4byte	.LVL244
 14730 08b4 0200     		.2byte	0x2
 14731 08b6 30       		.byte	0x30
ARM GAS  C:\Users\FRANKL~1\AppData\Local\Temp\ccPy0viy.s 			page 293


 14732 08b7 9F       		.byte	0x9f
 14733 08b8 06000000 		.4byte	.LVL244
 14734 08bc 28000000 		.4byte	.LVL250
 14735 08c0 0100     		.2byte	0x1
 14736 08c2 54       		.byte	0x54
 14737 08c3 2A000000 		.4byte	.LVL251
 14738 08c7 30000000 		.4byte	.LVL252
 14739 08cb 0100     		.2byte	0x1
 14740 08cd 54       		.byte	0x54
 14741 08ce 00000000 		.4byte	0
 14742 08d2 00000000 		.4byte	0
 14743              	.LLST55:
 14744 08d6 06000000 		.4byte	.LVL244
 14745 08da 16000000 		.4byte	.LVL245
 14746 08de 0100     		.2byte	0x1
 14747 08e0 53       		.byte	0x53
 14748 08e1 18000000 		.4byte	.LVL246
 14749 08e5 1A000000 		.4byte	.LVL247
 14750 08e9 0100     		.2byte	0x1
 14751 08eb 53       		.byte	0x53
 14752 08ec 1C000000 		.4byte	.LVL248
 14753 08f0 25000000 		.4byte	.LVL249-1
 14754 08f4 0100     		.2byte	0x1
 14755 08f6 53       		.byte	0x53
 14756 08f7 00000000 		.4byte	0
 14757 08fb 00000000 		.4byte	0
 14758              	.LLST56:
 14759 08ff 00000000 		.4byte	.LVL253
 14760 0903 04000000 		.4byte	.LVL254
 14761 0907 0100     		.2byte	0x1
 14762 0909 50       		.byte	0x50
 14763 090a 04000000 		.4byte	.LVL254
 14764 090e 06000000 		.4byte	.LVL255
 14765 0912 0400     		.2byte	0x4
 14766 0914 F3       		.byte	0xf3
 14767 0915 01       		.uleb128 0x1
 14768 0916 50       		.byte	0x50
 14769 0917 9F       		.byte	0x9f
 14770 0918 06000000 		.4byte	.LVL255
 14771 091c 23000000 		.4byte	.LVL259-1
 14772 0920 0100     		.2byte	0x1
 14773 0922 50       		.byte	0x50
 14774 0923 00000000 		.4byte	0
 14775 0927 00000000 		.4byte	0
 14776              	.LLST57:
 14777 092b 06000000 		.4byte	.LVL255
 14778 092f 0A000000 		.4byte	.LVL256
 14779 0933 0200     		.2byte	0x2
 14780 0935 30       		.byte	0x30
 14781 0936 9F       		.byte	0x9f
 14782 0937 0A000000 		.4byte	.LVL256
 14783 093b 1A000000 		.4byte	.LVL257
 14784 093f 0100     		.2byte	0x1
 14785 0941 53       		.byte	0x53
 14786 0942 1C000000 		.4byte	.LVL258
 14787 0946 23000000 		.4byte	.LVL259-1
 14788 094a 0100     		.2byte	0x1
ARM GAS  C:\Users\FRANKL~1\AppData\Local\Temp\ccPy0viy.s 			page 294


 14789 094c 53       		.byte	0x53
 14790 094d 00000000 		.4byte	0
 14791 0951 00000000 		.4byte	0
 14792              	.LLST58:
 14793 0955 00000000 		.4byte	.LVL260
 14794 0959 04000000 		.4byte	.LVL261
 14795 095d 0100     		.2byte	0x1
 14796 095f 50       		.byte	0x50
 14797 0960 04000000 		.4byte	.LVL261
 14798 0964 38000000 		.4byte	.LFE83
 14799 0968 0400     		.2byte	0x4
 14800 096a F3       		.byte	0xf3
 14801 096b 01       		.uleb128 0x1
 14802 096c 50       		.byte	0x50
 14803 096d 9F       		.byte	0x9f
 14804 096e 00000000 		.4byte	0
 14805 0972 00000000 		.4byte	0
 14806              	.LLST59:
 14807 0976 02000000 		.4byte	.LVL266
 14808 097a 06000000 		.4byte	.LVL267
 14809 097e 0200     		.2byte	0x2
 14810 0980 31       		.byte	0x31
 14811 0981 9F       		.byte	0x9f
 14812 0982 06000000 		.4byte	.LVL267
 14813 0986 0E000000 		.4byte	.LVL269
 14814 098a 0100     		.2byte	0x1
 14815 098c 54       		.byte	0x54
 14816 098d 10000000 		.4byte	.LVL270
 14817 0991 16000000 		.4byte	.LFE84
 14818 0995 0100     		.2byte	0x1
 14819 0997 54       		.byte	0x54
 14820 0998 00000000 		.4byte	0
 14821 099c 00000000 		.4byte	0
 14822              	.LLST60:
 14823 09a0 00000000 		.4byte	.LVL271
 14824 09a4 1E000000 		.4byte	.LVL275
 14825 09a8 0100     		.2byte	0x1
 14826 09aa 50       		.byte	0x50
 14827 09ab 1E000000 		.4byte	.LVL275
 14828 09af FE000000 		.4byte	.LVL303
 14829 09b3 0200     		.2byte	0x2
 14830 09b5 91       		.byte	0x91
 14831 09b6 48       		.sleb128 -56
 14832 09b7 FE000000 		.4byte	.LVL303
 14833 09bb 14010000 		.4byte	.LFE85
 14834 09bf 0200     		.2byte	0x2
 14835 09c1 7D       		.byte	0x7d
 14836 09c2 48       		.sleb128 -56
 14837 09c3 00000000 		.4byte	0
 14838 09c7 00000000 		.4byte	0
 14839              	.LLST61:
 14840 09cb 00000000 		.4byte	.LVL271
 14841 09cf 16000000 		.4byte	.LVL273
 14842 09d3 0100     		.2byte	0x1
 14843 09d5 51       		.byte	0x51
 14844 09d6 16000000 		.4byte	.LVL273
 14845 09da FE000000 		.4byte	.LVL303
ARM GAS  C:\Users\FRANKL~1\AppData\Local\Temp\ccPy0viy.s 			page 295


 14846 09de 0200     		.2byte	0x2
 14847 09e0 91       		.byte	0x91
 14848 09e1 4C       		.sleb128 -52
 14849 09e2 FE000000 		.4byte	.LVL303
 14850 09e6 14010000 		.4byte	.LFE85
 14851 09ea 0200     		.2byte	0x2
 14852 09ec 7D       		.byte	0x7d
 14853 09ed 4C       		.sleb128 -52
 14854 09ee 00000000 		.4byte	0
 14855 09f2 00000000 		.4byte	0
 14856              	.LLST62:
 14857 09f6 00000000 		.4byte	.LVL271
 14858 09fa 10000000 		.4byte	.LVL272
 14859 09fe 0100     		.2byte	0x1
 14860 0a00 52       		.byte	0x52
 14861 0a01 10000000 		.4byte	.LVL272
 14862 0a05 FE000000 		.4byte	.LVL303
 14863 0a09 0100     		.2byte	0x1
 14864 0a0b 5B       		.byte	0x5b
 14865 0a0c FE000000 		.4byte	.LVL303
 14866 0a10 14010000 		.4byte	.LFE85
 14867 0a14 0400     		.2byte	0x4
 14868 0a16 F3       		.byte	0xf3
 14869 0a17 01       		.uleb128 0x1
 14870 0a18 52       		.byte	0x52
 14871 0a19 9F       		.byte	0x9f
 14872 0a1a 00000000 		.4byte	0
 14873 0a1e 00000000 		.4byte	0
 14874              	.LLST63:
 14875 0a22 1A000000 		.4byte	.LVL274
 14876 0a26 2C000000 		.4byte	.LVL277
 14877 0a2a 0600     		.2byte	0x6
 14878 0a2c 9E       		.byte	0x9e
 14879 0a2d 04       		.uleb128 0x4
 14880 0a2e 00000000 		.4byte	0
 14881 0a32 44000000 		.4byte	.LVL281
 14882 0a36 47000000 		.4byte	.LVL282-1
 14883 0a3a 0100     		.2byte	0x1
 14884 0a3c 50       		.byte	0x50
 14885 0a3d 47000000 		.4byte	.LVL282-1
 14886 0a41 9C000000 		.4byte	.LVL290
 14887 0a45 0100     		.2byte	0x1
 14888 0a47 55       		.byte	0x55
 14889 0a48 00000000 		.4byte	0
 14890 0a4c 00000000 		.4byte	0
 14891              	.LLST64:
 14892 0a50 1A000000 		.4byte	.LVL274
 14893 0a54 2C000000 		.4byte	.LVL277
 14894 0a58 0600     		.2byte	0x6
 14895 0a5a 9E       		.byte	0x9e
 14896 0a5b 04       		.uleb128 0x4
 14897 0a5c 00000000 		.4byte	0
 14898 0a60 2C000000 		.4byte	.LVL277
 14899 0a64 E6000000 		.4byte	.LVL301
 14900 0a68 0100     		.2byte	0x1
 14901 0a6a 59       		.byte	0x59
 14902 0a6b E6000000 		.4byte	.LVL301
ARM GAS  C:\Users\FRANKL~1\AppData\Local\Temp\ccPy0viy.s 			page 296


 14903 0a6f E8000000 		.4byte	.LVL302
 14904 0a73 0100     		.2byte	0x1
 14905 0a75 50       		.byte	0x50
 14906 0a76 E8000000 		.4byte	.LVL302
 14907 0a7a FE000000 		.4byte	.LVL303
 14908 0a7e 0100     		.2byte	0x1
 14909 0a80 59       		.byte	0x59
 14910 0a81 00000000 		.4byte	0
 14911 0a85 00000000 		.4byte	0
 14912              	.LLST65:
 14913 0a89 1A000000 		.4byte	.LVL274
 14914 0a8d 2C000000 		.4byte	.LVL277
 14915 0a91 0600     		.2byte	0x6
 14916 0a93 9E       		.byte	0x9e
 14917 0a94 04       		.uleb128 0x4
 14918 0a95 00000000 		.4byte	0
 14919 0a99 2C000000 		.4byte	.LVL277
 14920 0a9d D4000000 		.4byte	.LVL297
 14921 0aa1 0100     		.2byte	0x1
 14922 0aa3 58       		.byte	0x58
 14923 0aa4 D4000000 		.4byte	.LVL297
 14924 0aa8 D8000000 		.4byte	.LVL298
 14925 0aac 0100     		.2byte	0x1
 14926 0aae 50       		.byte	0x50
 14927 0aaf D8000000 		.4byte	.LVL298
 14928 0ab3 FE000000 		.4byte	.LVL303
 14929 0ab7 0100     		.2byte	0x1
 14930 0ab9 58       		.byte	0x58
 14931 0aba FE000000 		.4byte	.LVL303
 14932 0abe 14010000 		.4byte	.LFE85
 14933 0ac2 0200     		.2byte	0x2
 14934 0ac4 73       		.byte	0x73
 14935 0ac5 00       		.sleb128 0
 14936 0ac6 00000000 		.4byte	0
 14937 0aca 00000000 		.4byte	0
 14938              	.LLST66:
 14939 0ace 22000000 		.4byte	.LVL276
 14940 0ad2 2C000000 		.4byte	.LVL277
 14941 0ad6 0200     		.2byte	0x2
 14942 0ad8 31       		.byte	0x31
 14943 0ad9 9F       		.byte	0x9f
 14944 0ada 2C000000 		.4byte	.LVL277
 14945 0ade FE000000 		.4byte	.LVL303
 14946 0ae2 0100     		.2byte	0x1
 14947 0ae4 54       		.byte	0x54
 14948 0ae5 00000000 		.4byte	0
 14949 0ae9 00000000 		.4byte	0
 14950              	.LLST67:
 14951 0aed 08000000 		.4byte	.LVL308
 14952 0af1 1C000000 		.4byte	.LVL311
 14953 0af5 0100     		.2byte	0x1
 14954 0af7 54       		.byte	0x54
 14955 0af8 36000000 		.4byte	.LVL317
 14956 0afc 4A000000 		.4byte	.LVL321
 14957 0b00 0100     		.2byte	0x1
 14958 0b02 54       		.byte	0x54
 14959 0b03 00000000 		.4byte	0
ARM GAS  C:\Users\FRANKL~1\AppData\Local\Temp\ccPy0viy.s 			page 297


 14960 0b07 00000000 		.4byte	0
 14961              	.LLST68:
 14962 0b0b 0E000000 		.4byte	.LVL309
 14963 0b0f 3A000000 		.4byte	.LVL318
 14964 0b13 0100     		.2byte	0x1
 14965 0b15 55       		.byte	0x55
 14966 0b16 3C000000 		.4byte	.LVL319
 14967 0b1a 60000000 		.4byte	.LVL327
 14968 0b1e 0100     		.2byte	0x1
 14969 0b20 55       		.byte	0x55
 14970 0b21 00000000 		.4byte	0
 14971 0b25 00000000 		.4byte	0
 14972              	.LLST69:
 14973 0b29 0E000000 		.4byte	.LVL309
 14974 0b2d 1A000000 		.4byte	.LVL310
 14975 0b31 0200     		.2byte	0x2
 14976 0b33 31       		.byte	0x31
 14977 0b34 9F       		.byte	0x9f
 14978 0b35 1A000000 		.4byte	.LVL310
 14979 0b39 1C000000 		.4byte	.LVL311
 14980 0b3d 0100     		.2byte	0x1
 14981 0b3f 56       		.byte	0x56
 14982 0b40 3C000000 		.4byte	.LVL319
 14983 0b44 48000000 		.4byte	.LVL320
 14984 0b48 0200     		.2byte	0x2
 14985 0b4a 31       		.byte	0x31
 14986 0b4b 9F       		.byte	0x9f
 14987 0b4c 48000000 		.4byte	.LVL320
 14988 0b50 4A000000 		.4byte	.LVL321
 14989 0b54 0100     		.2byte	0x1
 14990 0b56 56       		.byte	0x56
 14991 0b57 00000000 		.4byte	0
 14992 0b5b 00000000 		.4byte	0
 14993              	.LLST70:
 14994 0b5f 1A000000 		.4byte	.LVL310
 14995 0b63 2A000000 		.4byte	.LVL314
 14996 0b67 0100     		.2byte	0x1
 14997 0b69 54       		.byte	0x54
 14998 0b6a 2C000000 		.4byte	.LVL315
 14999 0b6e 34000000 		.4byte	.LVL316
 15000 0b72 0100     		.2byte	0x1
 15001 0b74 54       		.byte	0x54
 15002 0b75 00000000 		.4byte	0
 15003 0b79 00000000 		.4byte	0
 15004              	.LLST71:
 15005 0b7d 48000000 		.4byte	.LVL320
 15006 0b81 58000000 		.4byte	.LVL324
 15007 0b85 0100     		.2byte	0x1
 15008 0b87 54       		.byte	0x54
 15009 0b88 5A000000 		.4byte	.LVL325
 15010 0b8c 5E000000 		.4byte	.LVL326
 15011 0b90 0100     		.2byte	0x1
 15012 0b92 54       		.byte	0x54
 15013 0b93 00000000 		.4byte	0
 15014 0b97 00000000 		.4byte	0
 15015              	.LLST72:
 15016 0b9b 00000000 		.4byte	.LVL328
ARM GAS  C:\Users\FRANKL~1\AppData\Local\Temp\ccPy0viy.s 			page 298


 15017 0b9f 26000000 		.4byte	.LVL331
 15018 0ba3 0100     		.2byte	0x1
 15019 0ba5 50       		.byte	0x50
 15020 0ba6 26000000 		.4byte	.LVL331
 15021 0baa 74000000 		.4byte	.LFE88
 15022 0bae 0400     		.2byte	0x4
 15023 0bb0 F3       		.byte	0xf3
 15024 0bb1 01       		.uleb128 0x1
 15025 0bb2 50       		.byte	0x50
 15026 0bb3 9F       		.byte	0x9f
 15027 0bb4 00000000 		.4byte	0
 15028 0bb8 00000000 		.4byte	0
 15029              	.LLST73:
 15030 0bbc 16000000 		.4byte	.LVL329
 15031 0bc0 66000000 		.4byte	.LVL346
 15032 0bc4 0100     		.2byte	0x1
 15033 0bc6 55       		.byte	0x55
 15034 0bc7 00000000 		.4byte	0
 15035 0bcb 00000000 		.4byte	0
 15036              	.LLST74:
 15037 0bcf 16000000 		.4byte	.LVL329
 15038 0bd3 22000000 		.4byte	.LVL330
 15039 0bd7 0200     		.2byte	0x2
 15040 0bd9 31       		.byte	0x31
 15041 0bda 9F       		.byte	0x9f
 15042 0bdb 22000000 		.4byte	.LVL330
 15043 0bdf 66000000 		.4byte	.LVL346
 15044 0be3 0100     		.2byte	0x1
 15045 0be5 56       		.byte	0x56
 15046 0be6 00000000 		.4byte	0
 15047 0bea 00000000 		.4byte	0
 15048              	.LLST75:
 15049 0bee 22000000 		.4byte	.LVL330
 15050 0bf2 26000000 		.4byte	.LVL331
 15051 0bf6 0200     		.2byte	0x2
 15052 0bf8 30       		.byte	0x30
 15053 0bf9 9F       		.byte	0x9f
 15054 0bfa 26000000 		.4byte	.LVL331
 15055 0bfe 5C000000 		.4byte	.LVL344
 15056 0c02 0100     		.2byte	0x1
 15057 0c04 57       		.byte	0x57
 15058 0c05 5E000000 		.4byte	.LVL345
 15059 0c09 66000000 		.4byte	.LVL346
 15060 0c0d 0100     		.2byte	0x1
 15061 0c0f 57       		.byte	0x57
 15062 0c10 00000000 		.4byte	0
 15063 0c14 00000000 		.4byte	0
 15064              	.LLST76:
 15065 0c18 2E000000 		.4byte	.LVL333
 15066 0c1c 3C000000 		.4byte	.LVL336
 15067 0c20 0100     		.2byte	0x1
 15068 0c22 54       		.byte	0x54
 15069 0c23 3E000000 		.4byte	.LVL337
 15070 0c27 40000000 		.4byte	.LVL338
 15071 0c2b 0100     		.2byte	0x1
 15072 0c2d 54       		.byte	0x54
 15073 0c2e 42000000 		.4byte	.LVL339
ARM GAS  C:\Users\FRANKL~1\AppData\Local\Temp\ccPy0viy.s 			page 299


 15074 0c32 54000000 		.4byte	.LVL342
 15075 0c36 0100     		.2byte	0x1
 15076 0c38 54       		.byte	0x54
 15077 0c39 00000000 		.4byte	0
 15078 0c3d 00000000 		.4byte	0
 15079              	.LLST77:
 15080 0c41 00000000 		.4byte	.LVL347
 15081 0c45 26000000 		.4byte	.LVL351
 15082 0c49 0100     		.2byte	0x1
 15083 0c4b 50       		.byte	0x50
 15084 0c4c 26000000 		.4byte	.LVL351
 15085 0c50 74000000 		.4byte	.LFE89
 15086 0c54 0400     		.2byte	0x4
 15087 0c56 F3       		.byte	0xf3
 15088 0c57 01       		.uleb128 0x1
 15089 0c58 50       		.byte	0x50
 15090 0c59 9F       		.byte	0x9f
 15091 0c5a 00000000 		.4byte	0
 15092 0c5e 00000000 		.4byte	0
 15093              	.LLST78:
 15094 0c62 10000000 		.4byte	.LVL348
 15095 0c66 22000000 		.4byte	.LVL350
 15096 0c6a 0200     		.2byte	0x2
 15097 0c6c 31       		.byte	0x31
 15098 0c6d 9F       		.byte	0x9f
 15099 0c6e 22000000 		.4byte	.LVL350
 15100 0c72 66000000 		.4byte	.LVL366
 15101 0c76 0100     		.2byte	0x1
 15102 0c78 56       		.byte	0x56
 15103 0c79 00000000 		.4byte	0
 15104 0c7d 00000000 		.4byte	0
 15105              	.LLST79:
 15106 0c81 16000000 		.4byte	.LVL349
 15107 0c85 66000000 		.4byte	.LVL366
 15108 0c89 0100     		.2byte	0x1
 15109 0c8b 55       		.byte	0x55
 15110 0c8c 00000000 		.4byte	0
 15111 0c90 00000000 		.4byte	0
 15112              	.LLST80:
 15113 0c94 22000000 		.4byte	.LVL350
 15114 0c98 26000000 		.4byte	.LVL351
 15115 0c9c 0100     		.2byte	0x1
 15116 0c9e 55       		.byte	0x55
 15117 0c9f 26000000 		.4byte	.LVL351
 15118 0ca3 5C000000 		.4byte	.LVL364
 15119 0ca7 0100     		.2byte	0x1
 15120 0ca9 57       		.byte	0x57
 15121 0caa 5E000000 		.4byte	.LVL365
 15122 0cae 66000000 		.4byte	.LVL366
 15123 0cb2 0100     		.2byte	0x1
 15124 0cb4 57       		.byte	0x57
 15125 0cb5 00000000 		.4byte	0
 15126 0cb9 00000000 		.4byte	0
 15127              	.LLST81:
 15128 0cbd 2E000000 		.4byte	.LVL353
 15129 0cc1 3C000000 		.4byte	.LVL356
 15130 0cc5 0100     		.2byte	0x1
ARM GAS  C:\Users\FRANKL~1\AppData\Local\Temp\ccPy0viy.s 			page 300


 15131 0cc7 54       		.byte	0x54
 15132 0cc8 3E000000 		.4byte	.LVL357
 15133 0ccc 40000000 		.4byte	.LVL358
 15134 0cd0 0100     		.2byte	0x1
 15135 0cd2 54       		.byte	0x54
 15136 0cd3 42000000 		.4byte	.LVL359
 15137 0cd7 54000000 		.4byte	.LVL362
 15138 0cdb 0100     		.2byte	0x1
 15139 0cdd 54       		.byte	0x54
 15140 0cde 00000000 		.4byte	0
 15141 0ce2 00000000 		.4byte	0
 15142              	.LLST82:
 15143 0ce6 00000000 		.4byte	.LVL367
 15144 0cea 22000000 		.4byte	.LVL371
 15145 0cee 0100     		.2byte	0x1
 15146 0cf0 50       		.byte	0x50
 15147 0cf1 22000000 		.4byte	.LVL371
 15148 0cf5 7C000000 		.4byte	.LFE90
 15149 0cf9 0400     		.2byte	0x4
 15150 0cfb F3       		.byte	0xf3
 15151 0cfc 01       		.uleb128 0x1
 15152 0cfd 50       		.byte	0x50
 15153 0cfe 9F       		.byte	0x9f
 15154 0cff 00000000 		.4byte	0
 15155 0d03 00000000 		.4byte	0
 15156              	.LLST83:
 15157 0d07 06000000 		.4byte	.LVL368
 15158 0d0b 1A000000 		.4byte	.LVL369
 15159 0d0f 0200     		.2byte	0x2
 15160 0d11 31       		.byte	0x31
 15161 0d12 9F       		.byte	0x9f
 15162 0d13 1A000000 		.4byte	.LVL369
 15163 0d17 70000000 		.4byte	.LVL384
 15164 0d1b 0100     		.2byte	0x1
 15165 0d1d 58       		.byte	0x58
 15166 0d1e 00000000 		.4byte	0
 15167 0d22 00000000 		.4byte	0
 15168              	.LLST84:
 15169 0d26 20000000 		.4byte	.LVL370
 15170 0d2a 66000000 		.4byte	.LVL382
 15171 0d2e 0100     		.2byte	0x1
 15172 0d30 56       		.byte	0x56
 15173 0d31 68000000 		.4byte	.LVL383
 15174 0d35 70000000 		.4byte	.LVL384
 15175 0d39 0100     		.2byte	0x1
 15176 0d3b 56       		.byte	0x56
 15177 0d3c 00000000 		.4byte	0
 15178 0d40 00000000 		.4byte	0
 15179              	.LLST85:
 15180 0d44 32000000 		.4byte	.LVL373
 15181 0d48 68000000 		.4byte	.LVL383
 15182 0d4c 0100     		.2byte	0x1
 15183 0d4e 55       		.byte	0x55
 15184 0d4f 00000000 		.4byte	0
 15185 0d53 00000000 		.4byte	0
 15186              	.LLST86:
 15187 0d57 3A000000 		.4byte	.LVL374
ARM GAS  C:\Users\FRANKL~1\AppData\Local\Temp\ccPy0viy.s 			page 301


 15188 0d5b 68000000 		.4byte	.LVL383
 15189 0d5f 0100     		.2byte	0x1
 15190 0d61 54       		.byte	0x54
 15191 0d62 00000000 		.4byte	0
 15192 0d66 00000000 		.4byte	0
 15193              	.LLST87:
 15194 0d6a 00000000 		.4byte	.LVL385
 15195 0d6e 0A000000 		.4byte	.LVL386
 15196 0d72 0100     		.2byte	0x1
 15197 0d74 50       		.byte	0x50
 15198 0d75 0A000000 		.4byte	.LVL386
 15199 0d79 5C000000 		.4byte	.LVL400
 15200 0d7d 0100     		.2byte	0x1
 15201 0d7f 54       		.byte	0x54
 15202 0d80 5C000000 		.4byte	.LVL400
 15203 0d84 64000000 		.4byte	.LFE91
 15204 0d88 0500     		.2byte	0x5
 15205 0d8a 03       		.byte	0x3
 15206 0d8b 00000000 		.4byte	Vds_Index_Goal_Relative
 15207 0d8f 00000000 		.4byte	0
 15208 0d93 00000000 		.4byte	0
 15209              	.LLST88:
 15210 0d97 1E000000 		.4byte	.LVL388
 15211 0d9b 24000000 		.4byte	.LVL389
 15212 0d9f 0100     		.2byte	0x1
 15213 0da1 53       		.byte	0x53
 15214 0da2 24000000 		.4byte	.LVL389
 15215 0da6 28000000 		.4byte	.LVL390
 15216 0daa 0100     		.2byte	0x1
 15217 0dac 50       		.byte	0x50
 15218 0dad 38000000 		.4byte	.LVL393
 15219 0db1 3E000000 		.4byte	.LVL394
 15220 0db5 0100     		.2byte	0x1
 15221 0db7 53       		.byte	0x53
 15222 0db8 3E000000 		.4byte	.LVL394
 15223 0dbc 42000000 		.4byte	.LVL395
 15224 0dc0 0100     		.2byte	0x1
 15225 0dc2 50       		.byte	0x50
 15226 0dc3 50000000 		.4byte	.LVL398
 15227 0dc7 55000000 		.4byte	.LVL399-1
 15228 0dcb 0100     		.2byte	0x1
 15229 0dcd 53       		.byte	0x53
 15230 0dce 00000000 		.4byte	0
 15231 0dd2 00000000 		.4byte	0
 15232              	.LLST89:
 15233 0dd6 00000000 		.4byte	.LVL401
 15234 0dda 0A000000 		.4byte	.LVL402
 15235 0dde 0100     		.2byte	0x1
 15236 0de0 50       		.byte	0x50
 15237 0de1 0A000000 		.4byte	.LVL402
 15238 0de5 5C000000 		.4byte	.LVL416
 15239 0de9 0100     		.2byte	0x1
 15240 0deb 54       		.byte	0x54
 15241 0dec 5C000000 		.4byte	.LVL416
 15242 0df0 64000000 		.4byte	.LFE92
 15243 0df4 0500     		.2byte	0x5
 15244 0df6 03       		.byte	0x3
ARM GAS  C:\Users\FRANKL~1\AppData\Local\Temp\ccPy0viy.s 			page 302


 15245 0df7 00000000 		.4byte	Vgs_Index_Goal_Relative
 15246 0dfb 00000000 		.4byte	0
 15247 0dff 00000000 		.4byte	0
 15248              	.LLST90:
 15249 0e03 1E000000 		.4byte	.LVL404
 15250 0e07 24000000 		.4byte	.LVL405
 15251 0e0b 0100     		.2byte	0x1
 15252 0e0d 53       		.byte	0x53
 15253 0e0e 24000000 		.4byte	.LVL405
 15254 0e12 28000000 		.4byte	.LVL406
 15255 0e16 0100     		.2byte	0x1
 15256 0e18 50       		.byte	0x50
 15257 0e19 38000000 		.4byte	.LVL409
 15258 0e1d 3E000000 		.4byte	.LVL410
 15259 0e21 0100     		.2byte	0x1
 15260 0e23 53       		.byte	0x53
 15261 0e24 3E000000 		.4byte	.LVL410
 15262 0e28 42000000 		.4byte	.LVL411
 15263 0e2c 0100     		.2byte	0x1
 15264 0e2e 50       		.byte	0x50
 15265 0e2f 50000000 		.4byte	.LVL414
 15266 0e33 55000000 		.4byte	.LVL415-1
 15267 0e37 0100     		.2byte	0x1
 15268 0e39 53       		.byte	0x53
 15269 0e3a 00000000 		.4byte	0
 15270 0e3e 00000000 		.4byte	0
 15271              	.LLST91:
 15272 0e42 00000000 		.4byte	.LVL417
 15273 0e46 05000000 		.4byte	.LVL418-1
 15274 0e4a 0100     		.2byte	0x1
 15275 0e4c 50       		.byte	0x50
 15276 0e4d 05000000 		.4byte	.LVL418-1
 15277 0e51 38000000 		.4byte	.LFE93
 15278 0e55 0600     		.2byte	0x6
 15279 0e57 F3       		.byte	0xf3
 15280 0e58 03       		.uleb128 0x3
 15281 0e59 F5       		.byte	0xf5
 15282 0e5a 00       		.uleb128 0
 15283 0e5b 25       		.uleb128 0x25
 15284 0e5c 9F       		.byte	0x9f
 15285 0e5d 00000000 		.4byte	0
 15286 0e61 00000000 		.4byte	0
 15287              	.LLST92:
 15288 0e65 00000000 		.4byte	.LVL423
 15289 0e69 05000000 		.4byte	.LVL424-1
 15290 0e6d 0100     		.2byte	0x1
 15291 0e6f 50       		.byte	0x50
 15292 0e70 05000000 		.4byte	.LVL424-1
 15293 0e74 38000000 		.4byte	.LFE94
 15294 0e78 0600     		.2byte	0x6
 15295 0e7a F3       		.byte	0xf3
 15296 0e7b 03       		.uleb128 0x3
 15297 0e7c F5       		.byte	0xf5
 15298 0e7d 00       		.uleb128 0
 15299 0e7e 25       		.uleb128 0x25
 15300 0e7f 9F       		.byte	0x9f
 15301 0e80 00000000 		.4byte	0
ARM GAS  C:\Users\FRANKL~1\AppData\Local\Temp\ccPy0viy.s 			page 303


 15302 0e84 00000000 		.4byte	0
 15303              	.LLST93:
 15304 0e88 00000000 		.4byte	.LVL429
 15305 0e8c 07000000 		.4byte	.LVL430-1
 15306 0e90 0100     		.2byte	0x1
 15307 0e92 50       		.byte	0x50
 15308 0e93 07000000 		.4byte	.LVL430-1
 15309 0e97 14000000 		.4byte	.LFE95
 15310 0e9b 0600     		.2byte	0x6
 15311 0e9d F3       		.byte	0xf3
 15312 0e9e 03       		.uleb128 0x3
 15313 0e9f F5       		.byte	0xf5
 15314 0ea0 00       		.uleb128 0
 15315 0ea1 25       		.uleb128 0x25
 15316 0ea2 9F       		.byte	0x9f
 15317 0ea3 00000000 		.4byte	0
 15318 0ea7 00000000 		.4byte	0
 15319              	.LLST94:
 15320 0eab 00000000 		.4byte	.LVL432
 15321 0eaf 07000000 		.4byte	.LVL433-1
 15322 0eb3 0100     		.2byte	0x1
 15323 0eb5 50       		.byte	0x50
 15324 0eb6 07000000 		.4byte	.LVL433-1
 15325 0eba 14000000 		.4byte	.LFE96
 15326 0ebe 0600     		.2byte	0x6
 15327 0ec0 F3       		.byte	0xf3
 15328 0ec1 03       		.uleb128 0x3
 15329 0ec2 F5       		.byte	0xf5
 15330 0ec3 00       		.uleb128 0
 15331 0ec4 25       		.uleb128 0x25
 15332 0ec5 9F       		.byte	0x9f
 15333 0ec6 00000000 		.4byte	0
 15334 0eca 00000000 		.4byte	0
 15335              	.LLST95:
 15336 0ece 2E000000 		.4byte	.LVL458
 15337 0ed2 3E000000 		.4byte	.LVL459
 15338 0ed6 0100     		.2byte	0x1
 15339 0ed8 50       		.byte	0x50
 15340 0ed9 3E000000 		.4byte	.LVL459
 15341 0edd 6C000000 		.4byte	.LVL467
 15342 0ee1 0100     		.2byte	0x1
 15343 0ee3 54       		.byte	0x54
 15344 0ee4 00000000 		.4byte	0
 15345 0ee8 00000000 		.4byte	0
 15346              	.LLST96:
 15347 0eec 50000000 		.4byte	.LVL462
 15348 0ef0 BA000000 		.4byte	.LVL476
 15349 0ef4 0100     		.2byte	0x1
 15350 0ef6 59       		.byte	0x59
 15351 0ef7 00000000 		.4byte	0
 15352 0efb 00000000 		.4byte	0
 15353              	.LLST97:
 15354 0eff 54000000 		.4byte	.LVL463
 15355 0f03 BA000000 		.4byte	.LVL476
 15356 0f07 0100     		.2byte	0x1
 15357 0f09 5A       		.byte	0x5a
 15358 0f0a 00000000 		.4byte	0
ARM GAS  C:\Users\FRANKL~1\AppData\Local\Temp\ccPy0viy.s 			page 304


 15359 0f0e 00000000 		.4byte	0
 15360              	.LLST98:
 15361 0f12 00000000 		.4byte	.LVL477
 15362 0f16 08000000 		.4byte	.LVL479
 15363 0f1a 0100     		.2byte	0x1
 15364 0f1c 50       		.byte	0x50
 15365 0f1d 08000000 		.4byte	.LVL479
 15366 0f21 14000000 		.4byte	.LFE102
 15367 0f25 0100     		.2byte	0x1
 15368 0f27 55       		.byte	0x55
 15369 0f28 00000000 		.4byte	0
 15370 0f2c 00000000 		.4byte	0
 15371              	.LLST99:
 15372 0f30 04000000 		.4byte	.LVL478
 15373 0f34 08000000 		.4byte	.LVL479
 15374 0f38 0200     		.2byte	0x2
 15375 0f3a 30       		.byte	0x30
 15376 0f3b 9F       		.byte	0x9f
 15377 0f3c 08000000 		.4byte	.LVL479
 15378 0f40 14000000 		.4byte	.LFE102
 15379 0f44 0100     		.2byte	0x1
 15380 0f46 54       		.byte	0x54
 15381 0f47 00000000 		.4byte	0
 15382 0f4b 00000000 		.4byte	0
 15383              	.LLST100:
 15384 0f4f 04000000 		.4byte	.LVL482
 15385 0f53 10000000 		.4byte	.LVL483
 15386 0f57 0200     		.2byte	0x2
 15387 0f59 31       		.byte	0x31
 15388 0f5a 9F       		.byte	0x9f
 15389 0f5b 10000000 		.4byte	.LVL483
 15390 0f5f 40000000 		.4byte	.LVL488
 15391 0f63 0100     		.2byte	0x1
 15392 0f65 54       		.byte	0x54
 15393 0f66 40000000 		.4byte	.LVL488
 15394 0f6a 7E000000 		.4byte	.LVL496
 15395 0f6e 0100     		.2byte	0x1
 15396 0f70 58       		.byte	0x58
 15397 0f71 7E000000 		.4byte	.LVL496
 15398 0f75 88000000 		.4byte	.LVL497
 15399 0f79 0100     		.2byte	0x1
 15400 0f7b 54       		.byte	0x54
 15401 0f7c 00000000 		.4byte	0
 15402 0f80 00000000 		.4byte	0
 15403              	.LLST101:
 15404 0f84 04000000 		.4byte	.LVL482
 15405 0f88 10000000 		.4byte	.LVL483
 15406 0f8c 0200     		.2byte	0x2
 15407 0f8e 30       		.byte	0x30
 15408 0f8f 9F       		.byte	0x9f
 15409 0f90 10000000 		.4byte	.LVL483
 15410 0f94 60000000 		.4byte	.LVL492
 15411 0f98 0100     		.2byte	0x1
 15412 0f9a 55       		.byte	0x55
 15413 0f9b 62000000 		.4byte	.LVL493
 15414 0f9f 8C000000 		.4byte	.LVL498
 15415 0fa3 0100     		.2byte	0x1
ARM GAS  C:\Users\FRANKL~1\AppData\Local\Temp\ccPy0viy.s 			page 305


 15416 0fa5 55       		.byte	0x55
 15417 0fa6 00000000 		.4byte	0
 15418 0faa 00000000 		.4byte	0
 15419              	.LLST102:
 15420 0fae 04000000 		.4byte	.LVL482
 15421 0fb2 10000000 		.4byte	.LVL483
 15422 0fb6 0200     		.2byte	0x2
 15423 0fb8 30       		.byte	0x30
 15424 0fb9 9F       		.byte	0x9f
 15425 0fba 10000000 		.4byte	.LVL483
 15426 0fbe 30000000 		.4byte	.LVL486
 15427 0fc2 0100     		.2byte	0x1
 15428 0fc4 59       		.byte	0x59
 15429 0fc5 34000000 		.4byte	.LVL487
 15430 0fc9 8C000000 		.4byte	.LVL498
 15431 0fcd 0100     		.2byte	0x1
 15432 0fcf 59       		.byte	0x59
 15433 0fd0 00000000 		.4byte	0
 15434 0fd4 00000000 		.4byte	0
 15435              	.LLST103:
 15436 0fd8 04000000 		.4byte	.LVL482
 15437 0fdc 10000000 		.4byte	.LVL483
 15438 0fe0 0200     		.2byte	0x2
 15439 0fe2 30       		.byte	0x30
 15440 0fe3 9F       		.byte	0x9f
 15441 0fe4 10000000 		.4byte	.LVL483
 15442 0fe8 66000000 		.4byte	.LVL494
 15443 0fec 0100     		.2byte	0x1
 15444 0fee 56       		.byte	0x56
 15445 0fef 68000000 		.4byte	.LVL495
 15446 0ff3 8C000000 		.4byte	.LVL498
 15447 0ff7 0100     		.2byte	0x1
 15448 0ff9 56       		.byte	0x56
 15449 0ffa 00000000 		.4byte	0
 15450 0ffe 00000000 		.4byte	0
 15451              	.LLST104:
 15452 1002 04000000 		.4byte	.LVL482
 15453 1006 10000000 		.4byte	.LVL483
 15454 100a 0200     		.2byte	0x2
 15455 100c 30       		.byte	0x30
 15456 100d 9F       		.byte	0x9f
 15457 100e 10000000 		.4byte	.LVL483
 15458 1012 1E000000 		.4byte	.LVL484
 15459 1016 0100     		.2byte	0x1
 15460 1018 57       		.byte	0x57
 15461 1019 20000000 		.4byte	.LVL485
 15462 101d 8C000000 		.4byte	.LVL498
 15463 1021 0100     		.2byte	0x1
 15464 1023 57       		.byte	0x57
 15465 1024 00000000 		.4byte	0
 15466 1028 00000000 		.4byte	0
 15467              	.LLST105:
 15468 102c 00000000 		.4byte	.LVL499
 15469 1030 16000000 		.4byte	.LVL500
 15470 1034 0100     		.2byte	0x1
 15471 1036 50       		.byte	0x50
 15472 1037 16000000 		.4byte	.LVL500
ARM GAS  C:\Users\FRANKL~1\AppData\Local\Temp\ccPy0viy.s 			page 306


 15473 103b 22000000 		.4byte	.LVL502
 15474 103f 0400     		.2byte	0x4
 15475 1041 F3       		.byte	0xf3
 15476 1042 01       		.uleb128 0x1
 15477 1043 50       		.byte	0x50
 15478 1044 9F       		.byte	0x9f
 15479 1045 22000000 		.4byte	.LVL502
 15480 1049 24000000 		.4byte	.LVL503
 15481 104d 0100     		.2byte	0x1
 15482 104f 50       		.byte	0x50
 15483 1050 24000000 		.4byte	.LVL503
 15484 1054 80010000 		.4byte	.LFE104
 15485 1058 0400     		.2byte	0x4
 15486 105a F3       		.byte	0xf3
 15487 105b 01       		.uleb128 0x1
 15488 105c 50       		.byte	0x50
 15489 105d 9F       		.byte	0x9f
 15490 105e 00000000 		.4byte	0
 15491 1062 00000000 		.4byte	0
 15492              	.LLST106:
 15493 1066 2A000000 		.4byte	.LVL505
 15494 106a 62010000 		.4byte	.LVL545
 15495 106e 0200     		.2byte	0x2
 15496 1070 91       		.byte	0x91
 15497 1071 48       		.sleb128 -56
 15498 1072 62010000 		.4byte	.LVL545
 15499 1076 80010000 		.4byte	.LFE104
 15500 107a 0200     		.2byte	0x2
 15501 107c 7D       		.byte	0x7d
 15502 107d 48       		.sleb128 -56
 15503 107e 00000000 		.4byte	0
 15504 1082 00000000 		.4byte	0
 15505              	.LLST107:
 15506 1086 2A000000 		.4byte	.LVL505
 15507 108a 4C000000 		.4byte	.LVL506
 15508 108e 0200     		.2byte	0x2
 15509 1090 40       		.byte	0x40
 15510 1091 9F       		.byte	0x9f
 15511 1092 4C000000 		.4byte	.LVL506
 15512 1096 54000000 		.4byte	.LVL509
 15513 109a 0100     		.2byte	0x1
 15514 109c 56       		.byte	0x56
 15515 109d 00000000 		.4byte	0
 15516 10a1 00000000 		.4byte	0
 15517              	.LLST108:
 15518 10a5 2A000000 		.4byte	.LVL505
 15519 10a9 4C000000 		.4byte	.LVL506
 15520 10ad 0200     		.2byte	0x2
 15521 10af 30       		.byte	0x30
 15522 10b0 9F       		.byte	0x9f
 15523 10b1 4C000000 		.4byte	.LVL506
 15524 10b5 50000000 		.4byte	.LVL507
 15525 10b9 0100     		.2byte	0x1
 15526 10bb 57       		.byte	0x57
 15527 10bc 50000000 		.4byte	.LVL507
 15528 10c0 54000000 		.4byte	.LVL509
 15529 10c4 0100     		.2byte	0x1
ARM GAS  C:\Users\FRANKL~1\AppData\Local\Temp\ccPy0viy.s 			page 307


 15530 10c6 53       		.byte	0x53
 15531 10c7 00000000 		.4byte	0
 15532 10cb 00000000 		.4byte	0
 15533              	.LLST109:
 15534 10cf 2A000000 		.4byte	.LVL505
 15535 10d3 4C000000 		.4byte	.LVL506
 15536 10d7 0300     		.2byte	0x3
 15537 10d9 09       		.byte	0x9
 15538 10da F0       		.byte	0xf0
 15539 10db 9F       		.byte	0x9f
 15540 10dc 4C000000 		.4byte	.LVL506
 15541 10e0 52000000 		.4byte	.LVL508
 15542 10e4 0100     		.2byte	0x1
 15543 10e6 58       		.byte	0x58
 15544 10e7 52000000 		.4byte	.LVL508
 15545 10eb 54000000 		.4byte	.LVL509
 15546 10ef 0100     		.2byte	0x1
 15547 10f1 57       		.byte	0x57
 15548 10f2 00000000 		.4byte	0
 15549 10f6 00000000 		.4byte	0
 15550              	.LLST110:
 15551 10fa 4C000000 		.4byte	.LVL506
 15552 10fe 50000000 		.4byte	.LVL507
 15553 1102 0100     		.2byte	0x1
 15554 1104 57       		.byte	0x57
 15555 1105 50000000 		.4byte	.LVL507
 15556 1109 54000000 		.4byte	.LVL509
 15557 110d 0100     		.2byte	0x1
 15558 110f 53       		.byte	0x53
 15559 1110 54000000 		.4byte	.LVL509
 15560 1114 52010000 		.4byte	.LVL544
 15561 1118 0100     		.2byte	0x1
 15562 111a 58       		.byte	0x58
 15563 111b 00000000 		.4byte	0
 15564 111f 00000000 		.4byte	0
 15565              	.LLST111:
 15566 1123 54000000 		.4byte	.LVL509
 15567 1127 34010000 		.4byte	.LVL539
 15568 112b 0100     		.2byte	0x1
 15569 112d 54       		.byte	0x54
 15570 112e 36010000 		.4byte	.LVL540
 15571 1132 38010000 		.4byte	.LVL541
 15572 1136 0100     		.2byte	0x1
 15573 1138 54       		.byte	0x54
 15574 1139 3A010000 		.4byte	.LVL542
 15575 113d 46010000 		.4byte	.LVL543
 15576 1141 0100     		.2byte	0x1
 15577 1143 54       		.byte	0x54
 15578 1144 00000000 		.4byte	0
 15579 1148 00000000 		.4byte	0
 15580              	.LLST112:
 15581 114c 8E000000 		.4byte	.LVL516
 15582 1150 91000000 		.4byte	.LVL517-1
 15583 1154 0100     		.2byte	0x1
 15584 1156 50       		.byte	0x50
 15585 1157 91000000 		.4byte	.LVL517-1
 15586 115b D6000000 		.4byte	.LVL530
ARM GAS  C:\Users\FRANKL~1\AppData\Local\Temp\ccPy0viy.s 			page 308


 15587 115f 0100     		.2byte	0x1
 15588 1161 55       		.byte	0x55
 15589 1162 00000000 		.4byte	0
 15590 1166 00000000 		.4byte	0
 15591              	.LLST113:
 15592 116a B4000000 		.4byte	.LVL523
 15593 116e B7000000 		.4byte	.LVL524-1
 15594 1172 0100     		.2byte	0x1
 15595 1174 50       		.byte	0x50
 15596 1175 B7000000 		.4byte	.LVL524-1
 15597 1179 38010000 		.4byte	.LVL541
 15598 117d 0100     		.2byte	0x1
 15599 117f 5A       		.byte	0x5a
 15600 1180 00000000 		.4byte	0
 15601 1184 00000000 		.4byte	0
 15602              	.LLST114:
 15603 1188 BE000000 		.4byte	.LVL526
 15604 118c C1000000 		.4byte	.LVL527-1
 15605 1190 0100     		.2byte	0x1
 15606 1192 50       		.byte	0x50
 15607 1193 C1000000 		.4byte	.LVL527-1
 15608 1197 38010000 		.4byte	.LVL541
 15609 119b 0100     		.2byte	0x1
 15610 119d 5B       		.byte	0x5b
 15611 119e 00000000 		.4byte	0
 15612 11a2 00000000 		.4byte	0
 15613              	.LLST115:
 15614 11a6 00000000 		.4byte	.LVL546
 15615 11aa 0A000000 		.4byte	.LVL547
 15616 11ae 0100     		.2byte	0x1
 15617 11b0 50       		.byte	0x50
 15618 11b1 0A000000 		.4byte	.LVL547
 15619 11b5 64010000 		.4byte	.LFE105
 15620 11b9 0400     		.2byte	0x4
 15621 11bb F3       		.byte	0xf3
 15622 11bc 01       		.uleb128 0x1
 15623 11bd 50       		.byte	0x50
 15624 11be 9F       		.byte	0x9f
 15625 11bf 00000000 		.4byte	0
 15626 11c3 00000000 		.4byte	0
 15627              	.LLST116:
 15628 11c7 0E000000 		.4byte	.LVL548
 15629 11cb 14000000 		.4byte	.LVL549
 15630 11cf 0200     		.2byte	0x2
 15631 11d1 30       		.byte	0x30
 15632 11d2 9F       		.byte	0x9f
 15633 11d3 14000000 		.4byte	.LVL549
 15634 11d7 4C010000 		.4byte	.LVL589
 15635 11db 0200     		.2byte	0x2
 15636 11dd 91       		.byte	0x91
 15637 11de 48       		.sleb128 -56
 15638 11df 4C010000 		.4byte	.LVL589
 15639 11e3 64010000 		.4byte	.LFE105
 15640 11e7 0200     		.2byte	0x2
 15641 11e9 7D       		.byte	0x7d
 15642 11ea 48       		.sleb128 -56
 15643 11eb 00000000 		.4byte	0
ARM GAS  C:\Users\FRANKL~1\AppData\Local\Temp\ccPy0viy.s 			page 309


 15644 11ef 00000000 		.4byte	0
 15645              	.LLST117:
 15646 11f3 14000000 		.4byte	.LVL549
 15647 11f7 36000000 		.4byte	.LVL550
 15648 11fb 0200     		.2byte	0x2
 15649 11fd 40       		.byte	0x40
 15650 11fe 9F       		.byte	0x9f
 15651 11ff 36000000 		.4byte	.LVL550
 15652 1203 3E000000 		.4byte	.LVL553
 15653 1207 0100     		.2byte	0x1
 15654 1209 56       		.byte	0x56
 15655 120a 00000000 		.4byte	0
 15656 120e 00000000 		.4byte	0
 15657              	.LLST118:
 15658 1212 14000000 		.4byte	.LVL549
 15659 1216 36000000 		.4byte	.LVL550
 15660 121a 0200     		.2byte	0x2
 15661 121c 30       		.byte	0x30
 15662 121d 9F       		.byte	0x9f
 15663 121e 36000000 		.4byte	.LVL550
 15664 1222 3A000000 		.4byte	.LVL551
 15665 1226 0100     		.2byte	0x1
 15666 1228 57       		.byte	0x57
 15667 1229 3A000000 		.4byte	.LVL551
 15668 122d 3E000000 		.4byte	.LVL553
 15669 1231 0100     		.2byte	0x1
 15670 1233 53       		.byte	0x53
 15671 1234 00000000 		.4byte	0
 15672 1238 00000000 		.4byte	0
 15673              	.LLST119:
 15674 123c 14000000 		.4byte	.LVL549
 15675 1240 36000000 		.4byte	.LVL550
 15676 1244 0300     		.2byte	0x3
 15677 1246 09       		.byte	0x9
 15678 1247 F0       		.byte	0xf0
 15679 1248 9F       		.byte	0x9f
 15680 1249 36000000 		.4byte	.LVL550
 15681 124d 3C000000 		.4byte	.LVL552
 15682 1251 0100     		.2byte	0x1
 15683 1253 58       		.byte	0x58
 15684 1254 3C000000 		.4byte	.LVL552
 15685 1258 3E000000 		.4byte	.LVL553
 15686 125c 0100     		.2byte	0x1
 15687 125e 57       		.byte	0x57
 15688 125f 00000000 		.4byte	0
 15689 1263 00000000 		.4byte	0
 15690              	.LLST120:
 15691 1267 36000000 		.4byte	.LVL550
 15692 126b 3A000000 		.4byte	.LVL551
 15693 126f 0100     		.2byte	0x1
 15694 1271 57       		.byte	0x57
 15695 1272 3A000000 		.4byte	.LVL551
 15696 1276 3E000000 		.4byte	.LVL553
 15697 127a 0100     		.2byte	0x1
 15698 127c 53       		.byte	0x53
 15699 127d 3E000000 		.4byte	.LVL553
 15700 1281 3C010000 		.4byte	.LVL588
ARM GAS  C:\Users\FRANKL~1\AppData\Local\Temp\ccPy0viy.s 			page 310


 15701 1285 0100     		.2byte	0x1
 15702 1287 58       		.byte	0x58
 15703 1288 00000000 		.4byte	0
 15704 128c 00000000 		.4byte	0
 15705              	.LLST121:
 15706 1290 3E000000 		.4byte	.LVL553
 15707 1294 1E010000 		.4byte	.LVL583
 15708 1298 0100     		.2byte	0x1
 15709 129a 54       		.byte	0x54
 15710 129b 20010000 		.4byte	.LVL584
 15711 129f 22010000 		.4byte	.LVL585
 15712 12a3 0100     		.2byte	0x1
 15713 12a5 54       		.byte	0x54
 15714 12a6 24010000 		.4byte	.LVL586
 15715 12aa 30010000 		.4byte	.LVL587
 15716 12ae 0100     		.2byte	0x1
 15717 12b0 54       		.byte	0x54
 15718 12b1 00000000 		.4byte	0
 15719 12b5 00000000 		.4byte	0
 15720              	.LLST122:
 15721 12b9 78000000 		.4byte	.LVL560
 15722 12bd 7B000000 		.4byte	.LVL561-1
 15723 12c1 0100     		.2byte	0x1
 15724 12c3 50       		.byte	0x50
 15725 12c4 7B000000 		.4byte	.LVL561-1
 15726 12c8 C0000000 		.4byte	.LVL574
 15727 12cc 0100     		.2byte	0x1
 15728 12ce 55       		.byte	0x55
 15729 12cf 00000000 		.4byte	0
 15730 12d3 00000000 		.4byte	0
 15731              	.LLST123:
 15732 12d7 9E000000 		.4byte	.LVL567
 15733 12db A1000000 		.4byte	.LVL568-1
 15734 12df 0100     		.2byte	0x1
 15735 12e1 50       		.byte	0x50
 15736 12e2 A1000000 		.4byte	.LVL568-1
 15737 12e6 22010000 		.4byte	.LVL585
 15738 12ea 0100     		.2byte	0x1
 15739 12ec 5A       		.byte	0x5a
 15740 12ed 00000000 		.4byte	0
 15741 12f1 00000000 		.4byte	0
 15742              	.LLST124:
 15743 12f5 A8000000 		.4byte	.LVL570
 15744 12f9 AB000000 		.4byte	.LVL571-1
 15745 12fd 0100     		.2byte	0x1
 15746 12ff 50       		.byte	0x50
 15747 1300 AB000000 		.4byte	.LVL571-1
 15748 1304 22010000 		.4byte	.LVL585
 15749 1308 0100     		.2byte	0x1
 15750 130a 5B       		.byte	0x5b
 15751 130b 00000000 		.4byte	0
 15752 130f 00000000 		.4byte	0
 15753              	.LLST125:
 15754 1313 00000000 		.4byte	.LVL590
 15755 1317 0C000000 		.4byte	.LVL592
 15756 131b 0100     		.2byte	0x1
 15757 131d 50       		.byte	0x50
ARM GAS  C:\Users\FRANKL~1\AppData\Local\Temp\ccPy0viy.s 			page 311


 15758 131e 0C000000 		.4byte	.LVL592
 15759 1322 90000000 		.4byte	.LFE106
 15760 1326 0400     		.2byte	0x4
 15761 1328 F3       		.byte	0xf3
 15762 1329 01       		.uleb128 0x1
 15763 132a 50       		.byte	0x50
 15764 132b 9F       		.byte	0x9f
 15765 132c 00000000 		.4byte	0
 15766 1330 00000000 		.4byte	0
 15767              	.LLST126:
 15768 1334 00000000 		.4byte	.LVL590
 15769 1338 0C000000 		.4byte	.LVL592
 15770 133c 0100     		.2byte	0x1
 15771 133e 51       		.byte	0x51
 15772 133f 0C000000 		.4byte	.LVL592
 15773 1343 90000000 		.4byte	.LFE106
 15774 1347 0400     		.2byte	0x4
 15775 1349 F3       		.byte	0xf3
 15776 134a 01       		.uleb128 0x1
 15777 134b 51       		.byte	0x51
 15778 134c 9F       		.byte	0x9f
 15779 134d 00000000 		.4byte	0
 15780 1351 00000000 		.4byte	0
 15781              	.LLST127:
 15782 1355 08000000 		.4byte	.LVL591
 15783 1359 0C000000 		.4byte	.LVL592
 15784 135d 0200     		.2byte	0x2
 15785 135f 31       		.byte	0x31
 15786 1360 9F       		.byte	0x9f
 15787 1361 0C000000 		.4byte	.LVL592
 15788 1365 84000000 		.4byte	.LVL606
 15789 1369 0100     		.2byte	0x1
 15790 136b 54       		.byte	0x54
 15791 136c 00000000 		.4byte	0
 15792 1370 00000000 		.4byte	0
 15793              	.LLST128:
 15794 1374 0C000000 		.4byte	.LVL592
 15795 1378 7C000000 		.4byte	.LVL605
 15796 137c 0100     		.2byte	0x1
 15797 137e 54       		.byte	0x54
 15798 137f 00000000 		.4byte	0
 15799 1383 00000000 		.4byte	0
 15800              	.LLST129:
 15801 1387 10000000 		.4byte	.LVL593
 15802 138b 7C000000 		.4byte	.LVL605
 15803 138f 0100     		.2byte	0x1
 15804 1391 56       		.byte	0x56
 15805 1392 00000000 		.4byte	0
 15806 1396 00000000 		.4byte	0
 15807              	.LLST130:
 15808 139a 10000000 		.4byte	.LVL593
 15809 139e 7C000000 		.4byte	.LVL605
 15810 13a2 0200     		.2byte	0x2
 15811 13a4 31       		.byte	0x31
 15812 13a5 9F       		.byte	0x9f
 15813 13a6 00000000 		.4byte	0
 15814 13aa 00000000 		.4byte	0
ARM GAS  C:\Users\FRANKL~1\AppData\Local\Temp\ccPy0viy.s 			page 312


 15815              	.LLST131:
 15816 13ae 10000000 		.4byte	.LVL593
 15817 13b2 7C000000 		.4byte	.LVL605
 15818 13b6 0200     		.2byte	0x2
 15819 13b8 32       		.byte	0x32
 15820 13b9 9F       		.byte	0x9f
 15821 13ba 00000000 		.4byte	0
 15822 13be 00000000 		.4byte	0
 15823              	.LLST132:
 15824 13c2 00000000 		.4byte	.LVL607
 15825 13c6 18000000 		.4byte	.LVL608
 15826 13ca 0100     		.2byte	0x1
 15827 13cc 50       		.byte	0x50
 15828 13cd 18000000 		.4byte	.LVL608
 15829 13d1 94000000 		.4byte	.LVL622
 15830 13d5 0400     		.2byte	0x4
 15831 13d7 F3       		.byte	0xf3
 15832 13d8 01       		.uleb128 0x1
 15833 13d9 50       		.byte	0x50
 15834 13da 9F       		.byte	0x9f
 15835 13db 94000000 		.4byte	.LVL622
 15836 13df A4000000 		.4byte	.LFE107
 15837 13e3 0100     		.2byte	0x1
 15838 13e5 50       		.byte	0x50
 15839 13e6 00000000 		.4byte	0
 15840 13ea 00000000 		.4byte	0
 15841              	.LLST133:
 15842 13ee 00000000 		.4byte	.LVL607
 15843 13f2 18000000 		.4byte	.LVL608
 15844 13f6 0100     		.2byte	0x1
 15845 13f8 51       		.byte	0x51
 15846 13f9 18000000 		.4byte	.LVL608
 15847 13fd 94000000 		.4byte	.LVL622
 15848 1401 0400     		.2byte	0x4
 15849 1403 F3       		.byte	0xf3
 15850 1404 01       		.uleb128 0x1
 15851 1405 51       		.byte	0x51
 15852 1406 9F       		.byte	0x9f
 15853 1407 94000000 		.4byte	.LVL622
 15854 140b A4000000 		.4byte	.LFE107
 15855 140f 0100     		.2byte	0x1
 15856 1411 51       		.byte	0x51
 15857 1412 00000000 		.4byte	0
 15858 1416 00000000 		.4byte	0
 15859              	.LLST134:
 15860 141a 00000000 		.4byte	.LVL607
 15861 141e 18000000 		.4byte	.LVL608
 15862 1422 0100     		.2byte	0x1
 15863 1424 52       		.byte	0x52
 15864 1425 18000000 		.4byte	.LVL608
 15865 1429 94000000 		.4byte	.LVL622
 15866 142d 0400     		.2byte	0x4
 15867 142f F3       		.byte	0xf3
 15868 1430 01       		.uleb128 0x1
 15869 1431 52       		.byte	0x52
 15870 1432 9F       		.byte	0x9f
 15871 1433 94000000 		.4byte	.LVL622
ARM GAS  C:\Users\FRANKL~1\AppData\Local\Temp\ccPy0viy.s 			page 313


 15872 1437 A4000000 		.4byte	.LFE107
 15873 143b 0100     		.2byte	0x1
 15874 143d 52       		.byte	0x52
 15875 143e 00000000 		.4byte	0
 15876 1442 00000000 		.4byte	0
 15877              	.LLST135:
 15878 1446 00000000 		.4byte	.LVL607
 15879 144a 18000000 		.4byte	.LVL608
 15880 144e 0100     		.2byte	0x1
 15881 1450 53       		.byte	0x53
 15882 1451 18000000 		.4byte	.LVL608
 15883 1455 94000000 		.4byte	.LVL622
 15884 1459 0400     		.2byte	0x4
 15885 145b F3       		.byte	0xf3
 15886 145c 01       		.uleb128 0x1
 15887 145d 53       		.byte	0x53
 15888 145e 9F       		.byte	0x9f
 15889 145f 94000000 		.4byte	.LVL622
 15890 1463 A4000000 		.4byte	.LFE107
 15891 1467 0100     		.2byte	0x1
 15892 1469 53       		.byte	0x53
 15893 146a 00000000 		.4byte	0
 15894 146e 00000000 		.4byte	0
 15895              	.LLST136:
 15896 1472 18000000 		.4byte	.LVL608
 15897 1476 94000000 		.4byte	.LVL622
 15898 147a 0100     		.2byte	0x1
 15899 147c 54       		.byte	0x54
 15900 147d 00000000 		.4byte	0
 15901 1481 00000000 		.4byte	0
 15902              	.LLST137:
 15903 1485 18000000 		.4byte	.LVL608
 15904 1489 8C000000 		.4byte	.LVL621
 15905 148d 0100     		.2byte	0x1
 15906 148f 54       		.byte	0x54
 15907 1490 00000000 		.4byte	0
 15908 1494 00000000 		.4byte	0
 15909              	.LLST138:
 15910 1498 1C000000 		.4byte	.LVL609
 15911 149c 8C000000 		.4byte	.LVL621
 15912 14a0 0100     		.2byte	0x1
 15913 14a2 56       		.byte	0x56
 15914 14a3 00000000 		.4byte	0
 15915 14a7 00000000 		.4byte	0
 15916              	.LLST139:
 15917 14ab 1C000000 		.4byte	.LVL609
 15918 14af 8C000000 		.4byte	.LVL621
 15919 14b3 0200     		.2byte	0x2
 15920 14b5 31       		.byte	0x31
 15921 14b6 9F       		.byte	0x9f
 15922 14b7 00000000 		.4byte	0
 15923 14bb 00000000 		.4byte	0
 15924              	.LLST140:
 15925 14bf 1C000000 		.4byte	.LVL609
 15926 14c3 8C000000 		.4byte	.LVL621
 15927 14c7 0200     		.2byte	0x2
 15928 14c9 32       		.byte	0x32
ARM GAS  C:\Users\FRANKL~1\AppData\Local\Temp\ccPy0viy.s 			page 314


 15929 14ca 9F       		.byte	0x9f
 15930 14cb 00000000 		.4byte	0
 15931 14cf 00000000 		.4byte	0
 15932              	.LLST141:
 15933 14d3 76000000 		.4byte	.LVL639
 15934 14d7 86000000 		.4byte	.LVL640
 15935 14db 0600     		.2byte	0x6
 15936 14dd 03       		.byte	0x3
 15937 14de 00000000 		.4byte	USBUART_Receive_Buffer
 15938 14e2 9F       		.byte	0x9f
 15939 14e3 86000000 		.4byte	.LVL640
 15940 14e7 18020000 		.4byte	.LVL681
 15941 14eb 0100     		.2byte	0x1
 15942 14ed 54       		.byte	0x54
 15943 14ee 46020000 		.4byte	.LVL689
 15944 14f2 6C020000 		.4byte	.LVL694
 15945 14f6 0100     		.2byte	0x1
 15946 14f8 54       		.byte	0x54
 15947 14f9 9A020000 		.4byte	.LVL702
 15948 14fd A8020000 		.4byte	.LVL704
 15949 1501 0100     		.2byte	0x1
 15950 1503 54       		.byte	0x54
 15951 1504 6C030000 		.4byte	.LVL712
 15952 1508 AE030000 		.4byte	.LVL718
 15953 150c 0100     		.2byte	0x1
 15954 150e 54       		.byte	0x54
 15955 150f FE030000 		.4byte	.LVL727
 15956 1513 46040000 		.4byte	.LVL733
 15957 1517 0100     		.2byte	0x1
 15958 1519 54       		.byte	0x54
 15959 151a 9C040000 		.4byte	.LVL742
 15960 151e E8040000 		.4byte	.LVL748
 15961 1522 0100     		.2byte	0x1
 15962 1524 54       		.byte	0x54
 15963 1525 44050000 		.4byte	.LVL758
 15964 1529 5A050000 		.4byte	.LVL761
 15965 152d 0100     		.2byte	0x1
 15966 152f 54       		.byte	0x54
 15967 1530 A0050000 		.4byte	.LVL771
 15968 1534 B6050000 		.4byte	.LVL774
 15969 1538 0100     		.2byte	0x1
 15970 153a 54       		.byte	0x54
 15971 153b FC050000 		.4byte	.LVL784
 15972 153f 12060000 		.4byte	.LVL787
 15973 1543 0100     		.2byte	0x1
 15974 1545 54       		.byte	0x54
 15975 1546 58060000 		.4byte	.LVL797
 15976 154a 82060000 		.4byte	.LVL803
 15977 154e 0100     		.2byte	0x1
 15978 1550 54       		.byte	0x54
 15979 1551 EC060000 		.4byte	.LVL808
 15980 1555 00070000 		.4byte	.LVL811
 15981 1559 0100     		.2byte	0x1
 15982 155b 54       		.byte	0x54
 15983 155c 2C070000 		.4byte	.LVL815
 15984 1560 56070000 		.4byte	.LVL821
 15985 1564 0100     		.2byte	0x1
ARM GAS  C:\Users\FRANKL~1\AppData\Local\Temp\ccPy0viy.s 			page 315


 15986 1566 54       		.byte	0x54
 15987 1567 76070000 		.4byte	.LVL826
 15988 156b A0070000 		.4byte	.LVL832
 15989 156f 0100     		.2byte	0x1
 15990 1571 54       		.byte	0x54
 15991 1572 C0070000 		.4byte	.LVL837
 15992 1576 D4070000 		.4byte	.LVL840
 15993 157a 0100     		.2byte	0x1
 15994 157c 54       		.byte	0x54
 15995 157d FC070000 		.4byte	.LVL844
 15996 1581 22080000 		.4byte	.LVL848
 15997 1585 0100     		.2byte	0x1
 15998 1587 54       		.byte	0x54
 15999 1588 5E080000 		.4byte	.LVL853
 16000 158c B8080000 		.4byte	.LFE109
 16001 1590 0100     		.2byte	0x1
 16002 1592 54       		.byte	0x54
 16003 1593 00000000 		.4byte	0
 16004 1597 00000000 		.4byte	0
 16005              	.LLST142:
 16006 159b BE000000 		.4byte	.LVL645
 16007 159f C1000000 		.4byte	.LVL646-1
 16008 15a3 0100     		.2byte	0x1
 16009 15a5 50       		.byte	0x50
 16010 15a6 00000000 		.4byte	0
 16011 15aa 00000000 		.4byte	0
 16012              	.LLST143:
 16013 15ae 1E010000 		.4byte	.LVL655
 16014 15b2 23010000 		.4byte	.LVL656-1
 16015 15b6 0100     		.2byte	0x1
 16016 15b8 50       		.byte	0x50
 16017 15b9 00000000 		.4byte	0
 16018 15bd 00000000 		.4byte	0
 16019              	.LLST144:
 16020 15c1 46010000 		.4byte	.LVL659
 16021 15c5 4B010000 		.4byte	.LVL660-1
 16022 15c9 0100     		.2byte	0x1
 16023 15cb 50       		.byte	0x50
 16024 15cc 00000000 		.4byte	0
 16025 15d0 00000000 		.4byte	0
 16026              	.LLST145:
 16027 15d4 6E010000 		.4byte	.LVL663
 16028 15d8 73010000 		.4byte	.LVL664-1
 16029 15dc 0100     		.2byte	0x1
 16030 15de 50       		.byte	0x50
 16031 15df 00000000 		.4byte	0
 16032 15e3 00000000 		.4byte	0
 16033              	.LLST146:
 16034 15e7 96010000 		.4byte	.LVL667
 16035 15eb 9B010000 		.4byte	.LVL668-1
 16036 15ef 0100     		.2byte	0x1
 16037 15f1 50       		.byte	0x50
 16038 15f2 00000000 		.4byte	0
 16039 15f6 00000000 		.4byte	0
 16040              	.LLST147:
 16041 15fa B2010000 		.4byte	.LVL670
 16042 15fe BF010000 		.4byte	.LVL671-1
ARM GAS  C:\Users\FRANKL~1\AppData\Local\Temp\ccPy0viy.s 			page 316


 16043 1602 0100     		.2byte	0x1
 16044 1604 50       		.byte	0x50
 16045 1605 00000000 		.4byte	0
 16046 1609 00000000 		.4byte	0
 16047              	.LLST148:
 16048 160d DC010000 		.4byte	.LVL674
 16049 1611 E9010000 		.4byte	.LVL675-1
 16050 1615 0100     		.2byte	0x1
 16051 1617 50       		.byte	0x50
 16052 1618 00000000 		.4byte	0
 16053 161c 00000000 		.4byte	0
 16054              	.LLST149:
 16055 1620 18020000 		.4byte	.LVL681
 16056 1624 1B020000 		.4byte	.LVL682-1
 16057 1628 0100     		.2byte	0x1
 16058 162a 50       		.byte	0x50
 16059 162b 1B020000 		.4byte	.LVL682-1
 16060 162f 24020000 		.4byte	.LVL684
 16061 1633 0100     		.2byte	0x1
 16062 1635 54       		.byte	0x54
 16063 1636 00000000 		.4byte	0
 16064 163a 00000000 		.4byte	0
 16065              	.LLST150:
 16066 163e 6C020000 		.4byte	.LVL694
 16067 1642 6F020000 		.4byte	.LVL695-1
 16068 1646 0100     		.2byte	0x1
 16069 1648 50       		.byte	0x50
 16070 1649 6F020000 		.4byte	.LVL695-1
 16071 164d 78020000 		.4byte	.LVL697
 16072 1651 0100     		.2byte	0x1
 16073 1653 54       		.byte	0x54
 16074 1654 00000000 		.4byte	0
 16075 1658 00000000 		.4byte	0
 16076              	.LLST151:
 16077 165c BC030000 		.4byte	.LVL720
 16078 1660 FE030000 		.4byte	.LVL727
 16079 1664 0100     		.2byte	0x1
 16080 1666 56       		.byte	0x56
 16081 1667 00000000 		.4byte	0
 16082 166b 00000000 		.4byte	0
 16083              	.LLST152:
 16084 166f C6030000 		.4byte	.LVL721
 16085 1673 CE030000 		.4byte	.LVL722
 16086 1677 0100     		.2byte	0x1
 16087 1679 50       		.byte	0x50
 16088 167a CE030000 		.4byte	.LVL722
 16089 167e D1030000 		.4byte	.LVL723-1
 16090 1682 0100     		.2byte	0x1
 16091 1684 51       		.byte	0x51
 16092 1685 00000000 		.4byte	0
 16093 1689 00000000 		.4byte	0
 16094              	.LLST153:
 16095 168d 54040000 		.4byte	.LVL735
 16096 1691 9C040000 		.4byte	.LVL742
 16097 1695 0100     		.2byte	0x1
 16098 1697 56       		.byte	0x56
 16099 1698 00000000 		.4byte	0
ARM GAS  C:\Users\FRANKL~1\AppData\Local\Temp\ccPy0viy.s 			page 317


 16100 169c 00000000 		.4byte	0
 16101              	.LLST154:
 16102 16a0 5E040000 		.4byte	.LVL736
 16103 16a4 66040000 		.4byte	.LVL737
 16104 16a8 0100     		.2byte	0x1
 16105 16aa 50       		.byte	0x50
 16106 16ab 66040000 		.4byte	.LVL737
 16107 16af 69040000 		.4byte	.LVL738-1
 16108 16b3 0100     		.2byte	0x1
 16109 16b5 51       		.byte	0x51
 16110 16b6 00000000 		.4byte	0
 16111 16ba 00000000 		.4byte	0
 16112              	.LLST155:
 16113 16be F6040000 		.4byte	.LVL750
 16114 16c2 0E050000 		.4byte	.LVL754
 16115 16c6 0100     		.2byte	0x1
 16116 16c8 56       		.byte	0x56
 16117 16c9 00000000 		.4byte	0
 16118 16cd 00000000 		.4byte	0
 16119              	.LLST156:
 16120 16d1 00050000 		.4byte	.LVL751
 16121 16d5 08050000 		.4byte	.LVL752
 16122 16d9 0100     		.2byte	0x1
 16123 16db 50       		.byte	0x50
 16124 16dc 08050000 		.4byte	.LVL752
 16125 16e0 0B050000 		.4byte	.LVL753-1
 16126 16e4 0100     		.2byte	0x1
 16127 16e6 51       		.byte	0x51
 16128 16e7 00000000 		.4byte	0
 16129 16eb 00000000 		.4byte	0
 16130              	.LLST157:
 16131 16ef 68050000 		.4byte	.LVL763
 16132 16f3 A0050000 		.4byte	.LVL771
 16133 16f7 0100     		.2byte	0x1
 16134 16f9 55       		.byte	0x55
 16135 16fa 00000000 		.4byte	0
 16136 16fe 00000000 		.4byte	0
 16137              	.LLST158:
 16138 1702 74050000 		.4byte	.LVL765
 16139 1706 A0050000 		.4byte	.LVL771
 16140 170a 0100     		.2byte	0x1
 16141 170c 56       		.byte	0x56
 16142 170d 00000000 		.4byte	0
 16143 1711 00000000 		.4byte	0
 16144              	.LLST159:
 16145 1715 C4050000 		.4byte	.LVL776
 16146 1719 FC050000 		.4byte	.LVL784
 16147 171d 0100     		.2byte	0x1
 16148 171f 55       		.byte	0x55
 16149 1720 00000000 		.4byte	0
 16150 1724 00000000 		.4byte	0
 16151              	.LLST160:
 16152 1728 D0050000 		.4byte	.LVL778
 16153 172c FC050000 		.4byte	.LVL784
 16154 1730 0100     		.2byte	0x1
 16155 1732 56       		.byte	0x56
 16156 1733 00000000 		.4byte	0
ARM GAS  C:\Users\FRANKL~1\AppData\Local\Temp\ccPy0viy.s 			page 318


 16157 1737 00000000 		.4byte	0
 16158              	.LLST161:
 16159 173b 20060000 		.4byte	.LVL789
 16160 173f 58060000 		.4byte	.LVL797
 16161 1743 0100     		.2byte	0x1
 16162 1745 55       		.byte	0x55
 16163 1746 00000000 		.4byte	0
 16164 174a 00000000 		.4byte	0
 16165              	.LLST162:
 16166 174e 2C060000 		.4byte	.LVL791
 16167 1752 58060000 		.4byte	.LVL797
 16168 1756 0100     		.2byte	0x1
 16169 1758 56       		.byte	0x56
 16170 1759 00000000 		.4byte	0
 16171 175d 00000000 		.4byte	0
 16172              	.LLST163:
 16173 1761 7A060000 		.4byte	.LVL801
 16174 1765 EC060000 		.4byte	.LVL808
 16175 1769 0100     		.2byte	0x1
 16176 176b 55       		.byte	0x55
 16177 176c 00000000 		.4byte	0
 16178 1770 00000000 		.4byte	0
 16179              	.LLST164:
 16180 1774 4E070000 		.4byte	.LVL819
 16181 1778 76070000 		.4byte	.LVL826
 16182 177c 0100     		.2byte	0x1
 16183 177e 55       		.byte	0x55
 16184 177f 00000000 		.4byte	0
 16185 1783 00000000 		.4byte	0
 16186              	.LLST165:
 16187 1787 98070000 		.4byte	.LVL830
 16188 178b C0070000 		.4byte	.LVL837
 16189 178f 0100     		.2byte	0x1
 16190 1791 55       		.byte	0x55
 16191 1792 00000000 		.4byte	0
 16192 1796 00000000 		.4byte	0
 16193              	.LLST166:
 16194 179a 1C080000 		.4byte	.LVL847
 16195 179e 28080000 		.4byte	.LVL849
 16196 17a2 0100     		.2byte	0x1
 16197 17a4 50       		.byte	0x50
 16198 17a5 00000000 		.4byte	0
 16199 17a9 00000000 		.4byte	0
 16200              		.section	.debug_aranges,"",%progbits
 16201 0000 84010000 		.4byte	0x184
 16202 0004 0200     		.2byte	0x2
 16203 0006 00000000 		.4byte	.Ldebug_info0
 16204 000a 04       		.byte	0x4
 16205 000b 00       		.byte	0
 16206 000c 0000     		.2byte	0
 16207 000e 0000     		.2byte	0
 16208 0010 00000000 		.4byte	.LFB64
 16209 0014 18000000 		.4byte	.LFE64-.LFB64
 16210 0018 00000000 		.4byte	.LFB65
 16211 001c 1E000000 		.4byte	.LFE65-.LFB65
 16212 0020 00000000 		.4byte	.LFB108
 16213 0024 B0010000 		.4byte	.LFE108-.LFB108
ARM GAS  C:\Users\FRANKL~1\AppData\Local\Temp\ccPy0viy.s 			page 319


 16214 0028 00000000 		.4byte	.LFB66
 16215 002c 50000000 		.4byte	.LFE66-.LFB66
 16216 0030 00000000 		.4byte	.LFB67
 16217 0034 24000000 		.4byte	.LFE67-.LFB67
 16218 0038 00000000 		.4byte	.LFB68
 16219 003c 16000000 		.4byte	.LFE68-.LFB68
 16220 0040 00000000 		.4byte	.LFB69
 16221 0044 58000000 		.4byte	.LFE69-.LFB69
 16222 0048 00000000 		.4byte	.LFB70
 16223 004c 32000000 		.4byte	.LFE70-.LFB70
 16224 0050 00000000 		.4byte	.LFB71
 16225 0054 90010000 		.4byte	.LFE71-.LFB71
 16226 0058 00000000 		.4byte	.LFB72
 16227 005c B6000000 		.4byte	.LFE72-.LFB72
 16228 0060 00000000 		.4byte	.LFB73
 16229 0064 94000000 		.4byte	.LFE73-.LFB73
 16230 0068 00000000 		.4byte	.LFB74
 16231 006c 94000000 		.4byte	.LFE74-.LFB74
 16232 0070 00000000 		.4byte	.LFB75
 16233 0074 64000000 		.4byte	.LFE75-.LFB75
 16234 0078 00000000 		.4byte	.LFB76
 16235 007c 3C000000 		.4byte	.LFE76-.LFB76
 16236 0080 00000000 		.4byte	.LFB77
 16237 0084 2C000000 		.4byte	.LFE77-.LFB77
 16238 0088 00000000 		.4byte	.LFB78
 16239 008c 32000000 		.4byte	.LFE78-.LFB78
 16240 0090 00000000 		.4byte	.LFB79
 16241 0094 40000000 		.4byte	.LFE79-.LFB79
 16242 0098 00000000 		.4byte	.LFB80
 16243 009c 40000000 		.4byte	.LFE80-.LFB80
 16244 00a0 00000000 		.4byte	.LFB81
 16245 00a4 34000000 		.4byte	.LFE81-.LFB81
 16246 00a8 00000000 		.4byte	.LFB82
 16247 00ac 2C000000 		.4byte	.LFE82-.LFB82
 16248 00b0 00000000 		.4byte	.LFB83
 16249 00b4 38000000 		.4byte	.LFE83-.LFB83
 16250 00b8 00000000 		.4byte	.LFB84
 16251 00bc 16000000 		.4byte	.LFE84-.LFB84
 16252 00c0 00000000 		.4byte	.LFB85
 16253 00c4 14010000 		.4byte	.LFE85-.LFB85
 16254 00c8 00000000 		.4byte	.LFB86
 16255 00cc 54000000 		.4byte	.LFE86-.LFB86
 16256 00d0 00000000 		.4byte	.LFB87
 16257 00d4 68000000 		.4byte	.LFE87-.LFB87
 16258 00d8 00000000 		.4byte	.LFB88
 16259 00dc 74000000 		.4byte	.LFE88-.LFB88
 16260 00e0 00000000 		.4byte	.LFB89
 16261 00e4 74000000 		.4byte	.LFE89-.LFB89
 16262 00e8 00000000 		.4byte	.LFB90
 16263 00ec 7C000000 		.4byte	.LFE90-.LFB90
 16264 00f0 00000000 		.4byte	.LFB91
 16265 00f4 64000000 		.4byte	.LFE91-.LFB91
 16266 00f8 00000000 		.4byte	.LFB92
 16267 00fc 64000000 		.4byte	.LFE92-.LFB92
 16268 0100 00000000 		.4byte	.LFB93
 16269 0104 38000000 		.4byte	.LFE93-.LFB93
 16270 0108 00000000 		.4byte	.LFB94
ARM GAS  C:\Users\FRANKL~1\AppData\Local\Temp\ccPy0viy.s 			page 320


 16271 010c 38000000 		.4byte	.LFE94-.LFB94
 16272 0110 00000000 		.4byte	.LFB95
 16273 0114 14000000 		.4byte	.LFE95-.LFB95
 16274 0118 00000000 		.4byte	.LFB96
 16275 011c 14000000 		.4byte	.LFE96-.LFB96
 16276 0120 00000000 		.4byte	.LFB97
 16277 0124 30000000 		.4byte	.LFE97-.LFB97
 16278 0128 00000000 		.4byte	.LFB98
 16279 012c 48000000 		.4byte	.LFE98-.LFB98
 16280 0130 00000000 		.4byte	.LFB99
 16281 0134 48000000 		.4byte	.LFE99-.LFB99
 16282 0138 00000000 		.4byte	.LFB100
 16283 013c 1C000000 		.4byte	.LFE100-.LFB100
 16284 0140 00000000 		.4byte	.LFB101
 16285 0144 D0000000 		.4byte	.LFE101-.LFB101
 16286 0148 00000000 		.4byte	.LFB102
 16287 014c 14000000 		.4byte	.LFE102-.LFB102
 16288 0150 00000000 		.4byte	.LFB103
 16289 0154 90000000 		.4byte	.LFE103-.LFB103
 16290 0158 00000000 		.4byte	.LFB104
 16291 015c 80010000 		.4byte	.LFE104-.LFB104
 16292 0160 00000000 		.4byte	.LFB105
 16293 0164 64010000 		.4byte	.LFE105-.LFB105
 16294 0168 00000000 		.4byte	.LFB106
 16295 016c 90000000 		.4byte	.LFE106-.LFB106
 16296 0170 00000000 		.4byte	.LFB107
 16297 0174 A4000000 		.4byte	.LFE107-.LFB107
 16298 0178 00000000 		.4byte	.LFB109
 16299 017c B8080000 		.4byte	.LFE109-.LFB109
 16300 0180 00000000 		.4byte	0
 16301 0184 00000000 		.4byte	0
 16302              		.section	.debug_ranges,"",%progbits
 16303              	.Ldebug_ranges0:
 16304 0000 08000000 		.4byte	.LBB6
 16305 0004 16000000 		.4byte	.LBE6
 16306 0008 1E000000 		.4byte	.LBB7
 16307 000c 22000000 		.4byte	.LBE7
 16308 0010 00000000 		.4byte	0
 16309 0014 00000000 		.4byte	0
 16310 0018 0C000000 		.4byte	.LBB13
 16311 001c 0E000000 		.4byte	.LBE13
 16312 0020 14000000 		.4byte	.LBB15
 16313 0024 A6000000 		.4byte	.LBE15
 16314 0028 00000000 		.4byte	0
 16315 002c 00000000 		.4byte	0
 16316 0030 0C000000 		.4byte	.LBB16
 16317 0034 0E000000 		.4byte	.LBE16
 16318 0038 14000000 		.4byte	.LBB18
 16319 003c 84000000 		.4byte	.LBE18
 16320 0040 00000000 		.4byte	0
 16321 0044 00000000 		.4byte	0
 16322 0048 0C000000 		.4byte	.LBB19
 16323 004c 0E000000 		.4byte	.LBE19
 16324 0050 14000000 		.4byte	.LBB21
 16325 0054 84000000 		.4byte	.LBE21
 16326 0058 00000000 		.4byte	0
 16327 005c 00000000 		.4byte	0
ARM GAS  C:\Users\FRANKL~1\AppData\Local\Temp\ccPy0viy.s 			page 321


 16328 0060 06000000 		.4byte	.LBB28
 16329 0064 1A000000 		.4byte	.LBE28
 16330 0068 1C000000 		.4byte	.LBB29
 16331 006c 20000000 		.4byte	.LBE29
 16332 0070 00000000 		.4byte	0
 16333 0074 00000000 		.4byte	0
 16334 0078 22000000 		.4byte	.LBB32
 16335 007c 24000000 		.4byte	.LBE32
 16336 0080 2A000000 		.4byte	.LBB33
 16337 0084 EC000000 		.4byte	.LBE33
 16338 0088 00000000 		.4byte	0
 16339 008c 00000000 		.4byte	0
 16340 0090 2E000000 		.4byte	.LBB37
 16341 0094 40000000 		.4byte	.LBE37
 16342 0098 42000000 		.4byte	.LBB38
 16343 009c 46000000 		.4byte	.LBE38
 16344 00a0 00000000 		.4byte	0
 16345 00a4 00000000 		.4byte	0
 16346 00a8 2E000000 		.4byte	.LBB40
 16347 00ac 40000000 		.4byte	.LBE40
 16348 00b0 42000000 		.4byte	.LBB41
 16349 00b4 46000000 		.4byte	.LBE41
 16350 00b8 00000000 		.4byte	0
 16351 00bc 00000000 		.4byte	0
 16352 00c0 1C000000 		.4byte	.LBB45
 16353 00c4 22000000 		.4byte	.LBE45
 16354 00c8 2A000000 		.4byte	.LBB53
 16355 00cc 5C010000 		.4byte	.LBE53
 16356 00d0 00000000 		.4byte	0
 16357 00d4 00000000 		.4byte	0
 16358 00d8 1C000000 		.4byte	.LBB46
 16359 00dc 22000000 		.4byte	.LBE46
 16360 00e0 2A000000 		.4byte	.LBB52
 16361 00e4 4A010000 		.4byte	.LBE52
 16362 00e8 00000000 		.4byte	0
 16363 00ec 00000000 		.4byte	0
 16364 00f0 1C000000 		.4byte	.LBB47
 16365 00f4 22000000 		.4byte	.LBE47
 16366 00f8 52000000 		.4byte	.LBB51
 16367 00fc 4A010000 		.4byte	.LBE51
 16368 0100 00000000 		.4byte	0
 16369 0104 00000000 		.4byte	0
 16370 0108 54000000 		.4byte	.LBB48
 16371 010c 38010000 		.4byte	.LBE48
 16372 0110 3A010000 		.4byte	.LBB50
 16373 0114 3E010000 		.4byte	.LBE50
 16374 0118 00000000 		.4byte	0
 16375 011c 00000000 		.4byte	0
 16376 0120 3E000000 		.4byte	.LBB57
 16377 0124 22010000 		.4byte	.LBE57
 16378 0128 24010000 		.4byte	.LBB59
 16379 012c 28010000 		.4byte	.LBE59
 16380 0130 00000000 		.4byte	0
 16381 0134 00000000 		.4byte	0
 16382 0138 00000000 		.4byte	.LFB64
 16383 013c 18000000 		.4byte	.LFE64
 16384 0140 00000000 		.4byte	.LFB65
ARM GAS  C:\Users\FRANKL~1\AppData\Local\Temp\ccPy0viy.s 			page 322


 16385 0144 1E000000 		.4byte	.LFE65
 16386 0148 00000000 		.4byte	.LFB108
 16387 014c B0010000 		.4byte	.LFE108
 16388 0150 00000000 		.4byte	.LFB66
 16389 0154 50000000 		.4byte	.LFE66
 16390 0158 00000000 		.4byte	.LFB67
 16391 015c 24000000 		.4byte	.LFE67
 16392 0160 00000000 		.4byte	.LFB68
 16393 0164 16000000 		.4byte	.LFE68
 16394 0168 00000000 		.4byte	.LFB69
 16395 016c 58000000 		.4byte	.LFE69
 16396 0170 00000000 		.4byte	.LFB70
 16397 0174 32000000 		.4byte	.LFE70
 16398 0178 00000000 		.4byte	.LFB71
 16399 017c 90010000 		.4byte	.LFE71
 16400 0180 00000000 		.4byte	.LFB72
 16401 0184 B6000000 		.4byte	.LFE72
 16402 0188 00000000 		.4byte	.LFB73
 16403 018c 94000000 		.4byte	.LFE73
 16404 0190 00000000 		.4byte	.LFB74
 16405 0194 94000000 		.4byte	.LFE74
 16406 0198 00000000 		.4byte	.LFB75
 16407 019c 64000000 		.4byte	.LFE75
 16408 01a0 00000000 		.4byte	.LFB76
 16409 01a4 3C000000 		.4byte	.LFE76
 16410 01a8 00000000 		.4byte	.LFB77
 16411 01ac 2C000000 		.4byte	.LFE77
 16412 01b0 00000000 		.4byte	.LFB78
 16413 01b4 32000000 		.4byte	.LFE78
 16414 01b8 00000000 		.4byte	.LFB79
 16415 01bc 40000000 		.4byte	.LFE79
 16416 01c0 00000000 		.4byte	.LFB80
 16417 01c4 40000000 		.4byte	.LFE80
 16418 01c8 00000000 		.4byte	.LFB81
 16419 01cc 34000000 		.4byte	.LFE81
 16420 01d0 00000000 		.4byte	.LFB82
 16421 01d4 2C000000 		.4byte	.LFE82
 16422 01d8 00000000 		.4byte	.LFB83
 16423 01dc 38000000 		.4byte	.LFE83
 16424 01e0 00000000 		.4byte	.LFB84
 16425 01e4 16000000 		.4byte	.LFE84
 16426 01e8 00000000 		.4byte	.LFB85
 16427 01ec 14010000 		.4byte	.LFE85
 16428 01f0 00000000 		.4byte	.LFB86
 16429 01f4 54000000 		.4byte	.LFE86
 16430 01f8 00000000 		.4byte	.LFB87
 16431 01fc 68000000 		.4byte	.LFE87
 16432 0200 00000000 		.4byte	.LFB88
 16433 0204 74000000 		.4byte	.LFE88
 16434 0208 00000000 		.4byte	.LFB89
 16435 020c 74000000 		.4byte	.LFE89
 16436 0210 00000000 		.4byte	.LFB90
 16437 0214 7C000000 		.4byte	.LFE90
 16438 0218 00000000 		.4byte	.LFB91
 16439 021c 64000000 		.4byte	.LFE91
 16440 0220 00000000 		.4byte	.LFB92
 16441 0224 64000000 		.4byte	.LFE92
ARM GAS  C:\Users\FRANKL~1\AppData\Local\Temp\ccPy0viy.s 			page 323


 16442 0228 00000000 		.4byte	.LFB93
 16443 022c 38000000 		.4byte	.LFE93
 16444 0230 00000000 		.4byte	.LFB94
 16445 0234 38000000 		.4byte	.LFE94
 16446 0238 00000000 		.4byte	.LFB95
 16447 023c 14000000 		.4byte	.LFE95
 16448 0240 00000000 		.4byte	.LFB96
 16449 0244 14000000 		.4byte	.LFE96
 16450 0248 00000000 		.4byte	.LFB97
 16451 024c 30000000 		.4byte	.LFE97
 16452 0250 00000000 		.4byte	.LFB98
 16453 0254 48000000 		.4byte	.LFE98
 16454 0258 00000000 		.4byte	.LFB99
 16455 025c 48000000 		.4byte	.LFE99
 16456 0260 00000000 		.4byte	.LFB100
 16457 0264 1C000000 		.4byte	.LFE100
 16458 0268 00000000 		.4byte	.LFB101
 16459 026c D0000000 		.4byte	.LFE101
 16460 0270 00000000 		.4byte	.LFB102
 16461 0274 14000000 		.4byte	.LFE102
 16462 0278 00000000 		.4byte	.LFB103
 16463 027c 90000000 		.4byte	.LFE103
 16464 0280 00000000 		.4byte	.LFB104
 16465 0284 80010000 		.4byte	.LFE104
 16466 0288 00000000 		.4byte	.LFB105
 16467 028c 64010000 		.4byte	.LFE105
 16468 0290 00000000 		.4byte	.LFB106
 16469 0294 90000000 		.4byte	.LFE106
 16470 0298 00000000 		.4byte	.LFB107
 16471 029c A4000000 		.4byte	.LFE107
 16472 02a0 00000000 		.4byte	.LFB109
 16473 02a4 B8080000 		.4byte	.LFE109
 16474 02a8 00000000 		.4byte	0
 16475 02ac 00000000 		.4byte	0
 16476              		.section	.debug_line,"",%progbits
 16477              	.Ldebug_line0:
 16478 0000 580D0000 		.section	.debug_str,"MS",%progbits,1
 16478      0200D302 
 16478      00000201 
 16478      FB0E0D00 
 16478      01010101 
 16479              	.LASF93:
 16480 0000 696E6372 		.ascii	"increment\000"
 16480      656D656E 
 16480      7400
 16481              	.LASF35:
 16482 000a 636F756E 		.ascii	"count\000"
 16482      7400
 16483              	.LASF210:
 16484 0010 56444143 		.ascii	"VDAC_Vds_Start\000"
 16484      5F566473 
 16484      5F537461 
 16484      727400
 16485              	.LASF33:
 16486 001f 52656365 		.ascii	"ReceiveBuffer\000"
 16486      69766542 
 16486      75666665 
ARM GAS  C:\Users\FRANKL~1\AppData\Local\Temp\ccPy0viy.s 			page 324


 16486      7200
 16487              	.LASF148:
 16488 002d 73746F70 		.ascii	"stopDevice\000"
 16488      44657669 
 16488      636500
 16489              	.LASF188:
 16490 0038 73707269 		.ascii	"sprintf\000"
 16490      6E746600 
 16491              	.LASF115:
 16492 0040 53415231 		.ascii	"SAR1_SD\000"
 16492      5F534400 
 16493              	.LASF100:
 16494 0048 5365745F 		.ascii	"Set_Vds_Rel\000"
 16494      5664735F 
 16494      52656C00 
 16495              	.LASF151:
 16496 0054 76647369 		.ascii	"vdsi\000"
 16496      00
 16497              	.LASF140:
 16498 0059 77696465 		.ascii	"wide\000"
 16498      00
 16499              	.LASF156:
 16500 005e 73656C65 		.ascii	"selectors\000"
 16500      63746F72 
 16500      7300
 16501              	.LASF175:
 16502 0068 73747273 		.ascii	"strstr\000"
 16502      747200
 16503              	.LASF129:
 16504 006f 73746172 		.ascii	"startGateIndex\000"
 16504      74476174 
 16504      65496E64 
 16504      657800
 16505              	.LASF135:
 16506 007e 64697265 		.ascii	"direction\000"
 16506      6374696F 
 16506      6E00
 16507              	.LASF56:
 16508 0088 53415231 		.ascii	"SAR1_Result_Current\000"
 16508      5F526573 
 16508      756C745F 
 16508      43757272 
 16508      656E7400 
 16509              	.LASF91:
 16510 009c 69737461 		.ascii	"istart\000"
 16510      727400
 16511              	.LASF216:
 16512 00a3 4144435F 		.ascii	"ADC_SAR_2_Start\000"
 16512      5341525F 
 16512      325F5374 
 16512      61727400 
 16513              	.LASF114:
 16514 00b3 53415231 		.ascii	"SAR1_Average\000"
 16514      5F417665 
 16514      72616765 
 16514      00
 16515              	.LASF75:
ARM GAS  C:\Users\FRANKL~1\AppData\Local\Temp\ccPy0viy.s 			page 325


 16516 00c0 436F6E6E 		.ascii	"Connect_Intermediate\000"
 16516      6563745F 
 16516      496E7465 
 16516      726D6564 
 16516      69617465 
 16517              	.LASF11:
 16518 00d5 6C6F6E67 		.ascii	"long long unsigned int\000"
 16518      206C6F6E 
 16518      6720756E 
 16518      7369676E 
 16518      65642069 
 16519              	.LASF65:
 16520 00ec 436F6E6E 		.ascii	"Connect_Channel_On_Intermediate\000"
 16520      6563745F 
 16520      4368616E 
 16520      6E656C5F 
 16520      4F6E5F49 
 16521              	.LASF211:
 16522 010c 56444143 		.ascii	"VDAC_Vgs_Start\000"
 16522      5F566773 
 16522      5F537461 
 16522      727400
 16523              	.LASF68:
 16524 011b 436F6E6E 		.ascii	"Connect_Contact_To_Intermediate\000"
 16524      6563745F 
 16524      436F6E74 
 16524      6163745F 
 16524      546F5F49 
 16525              	.LASF98:
 16526 013b 6E65775F 		.ascii	"new_Vgs\000"
 16526      56677300 
 16527              	.LASF80:
 16528 0143 766F6C74 		.ascii	"voltage\000"
 16528      61676500 
 16529              	.LASF109:
 16530 014b 4765745F 		.ascii	"Get_Vgs\000"
 16530      56677300 
 16531              	.LASF212:
 16532 0153 56444143 		.ascii	"VDAC_Ref_Start\000"
 16532      5F526566 
 16532      5F537461 
 16532      727400
 16533              	.LASF155:
 16534 0162 49544D5F 		.ascii	"ITM_RxBuffer\000"
 16534      52784275 
 16534      66666572 
 16534      00
 16535              	.LASF44:
 16536 016f 55706461 		.ascii	"Update_Selector\000"
 16536      74655F53 
 16536      656C6563 
 16536      746F7200 
 16537              	.LASF147:
 16538 017f 73746172 		.ascii	"startDevice\000"
 16538      74446576 
 16538      69636500 
 16539              	.LASF171:
ARM GAS  C:\Users\FRANKL~1\AppData\Local\Temp\ccPy0viy.s 			page 326


 16540 018b 55534255 		.ascii	"USBUART_GetConfiguration\000"
 16540      4152545F 
 16540      47657443 
 16540      6F6E6669 
 16540      67757261 
 16541              	.LASF121:
 16542 01a4 4D656173 		.ascii	"Measure_Gate_Sweep_New\000"
 16542      7572655F 
 16542      47617465 
 16542      5F537765 
 16542      65705F4E 
 16543              	.LASF132:
 16544 01bb 67617465 		.ascii	"gateArrived\000"
 16544      41727269 
 16544      76656400 
 16545              	.LASF141:
 16546 01c7 64657669 		.ascii	"device\000"
 16546      636500
 16547              	.LASF52:
 16548 01ce 4144435F 		.ascii	"ADC_Result_Current\000"
 16548      52657375 
 16548      6C745F43 
 16548      75727265 
 16548      6E7400
 16549              	.LASF3:
 16550 01e1 6C6F6E67 		.ascii	"long long int\000"
 16550      206C6F6E 
 16550      6720696E 
 16550      7400
 16551              	.LASF5:
 16552 01ef 7369676E 		.ascii	"signed char\000"
 16552      65642063 
 16552      68617200 
 16553              	.LASF225:
 16554 01fb 73747263 		.ascii	"strchr\000"
 16554      687200
 16555              	.LASF69:
 16556 0202 636F6E74 		.ascii	"contact\000"
 16556      61637400 
 16557              	.LASF153:
 16558 020a 5667735F 		.ascii	"Vgs_mV\000"
 16558      6D5600
 16559              	.LASF182:
 16560 0211 55534255 		.ascii	"USBUART_GetChar\000"
 16560      4152545F 
 16560      47657443 
 16560      68617200 
 16561              	.LASF59:
 16562 0221 55534255 		.ascii	"USBUARTH_Maintain_Configuration\000"
 16562      41525448 
 16562      5F4D6169 
 16562      6E746169 
 16562      6E5F436F 
 16563              	.LASF205:
 16564 0241 56444143 		.ascii	"VDAC_Ref_SetValue\000"
 16564      5F526566 
 16564      5F536574 
ARM GAS  C:\Users\FRANKL~1\AppData\Local\Temp\ccPy0viy.s 			page 327


 16564      56616C75 
 16564      6500
 16565              	.LASF21:
 16566 0253 696E7433 		.ascii	"int32\000"
 16566      3200
 16567              	.LASF218:
 16568 0259 436F6D6D 		.ascii	"CommunicationTimer_Start\000"
 16568      756E6963 
 16568      6174696F 
 16568      6E54696D 
 16568      65725F53 
 16569              	.LASF163:
 16570 0272 55415254 		.ascii	"UART_Rx_Position\000"
 16570      5F52785F 
 16570      506F7369 
 16570      74696F6E 
 16570      00
 16571              	.LASF86:
 16572 0283 756E6974 		.ascii	"unitConversion\000"
 16572      436F6E76 
 16572      65727369 
 16572      6F6E00
 16573              	.LASF138:
 16574 0292 74656D70 		.ascii	"temp\000"
 16574      00
 16575              	.LASF9:
 16576 0297 6C6F6E67 		.ascii	"long int\000"
 16576      20696E74 
 16576      00
 16577              	.LASF96:
 16578 02a0 5365745F 		.ascii	"Set_Vgs_Raw\000"
 16578      5667735F 
 16578      52617700 
 16579              	.LASF206:
 16580 02ac 73747274 		.ascii	"strtol\000"
 16580      6F6C00
 16581              	.LASF186:
 16582 02b3 4932435F 		.ascii	"I2C_1_Stop\000"
 16582      315F5374 
 16582      6F7000
 16583              	.LASF209:
 16584 02be 55415254 		.ascii	"UART_1_Start\000"
 16584      5F315F53 
 16584      74617274 
 16584      00
 16585              	.LASF181:
 16586 02cb 55534255 		.ascii	"USBUART_PutData\000"
 16586      4152545F 
 16586      50757444 
 16586      61746100 
 16587              	.LASF16:
 16588 02db 75696E74 		.ascii	"uint8\000"
 16588      3800
 16589              	.LASF208:
 16590 02e1 55534255 		.ascii	"USBUART_Start\000"
 16590      4152545F 
 16590      53746172 
ARM GAS  C:\Users\FRANKL~1\AppData\Local\Temp\ccPy0viy.s 			page 328


 16590      7400
 16591              	.LASF48:
 16592 02ef 7374616E 		.ascii	"standardDeviation\000"
 16592      64617264 
 16592      44657669 
 16592      6174696F 
 16592      6E00
 16593              	.LASF1:
 16594 0301 646F7562 		.ascii	"double\000"
 16594      6C6500
 16595              	.LASF82:
 16596 0308 63757272 		.ascii	"currentNow\000"
 16596      656E744E 
 16596      6F7700
 16597              	.LASF177:
 16598 0313 55415254 		.ascii	"UART_1_GetChar\000"
 16598      5F315F47 
 16598      65744368 
 16598      617200
 16599              	.LASF213:
 16600 0322 4144435F 		.ascii	"ADC_DelSig_1_Start\000"
 16600      44656C53 
 16600      69675F31 
 16600      5F537461 
 16600      727400
 16601              	.LASF18:
 16602 0335 75696E74 		.ascii	"uint32\000"
 16602      333200
 16603              	.LASF154:
 16604 033c 5664735F 		.ascii	"Vds_mV\000"
 16604      6D5600
 16605              	.LASF47:
 16606 0343 61766572 		.ascii	"average\000"
 16606      61676500 
 16607              	.LASF202:
 16608 034b 4144435F 		.ascii	"ADC_SAR_2_CountsTo_Volts\000"
 16608      5341525F 
 16608      325F436F 
 16608      756E7473 
 16608      546F5F56 
 16609              	.LASF170:
 16610 0364 55534255 		.ascii	"USBUART_IsConfigurationChanged\000"
 16610      4152545F 
 16610      4973436F 
 16610      6E666967 
 16610      75726174 
 16611              	.LASF72:
 16612 0383 44697363 		.ascii	"Disconnect_Contact_From_All_Intermediates\000"
 16612      6F6E6E65 
 16612      63745F43 
 16612      6F6E7461 
 16612      63745F46 
 16613              	.LASF17:
 16614 03ad 75696E74 		.ascii	"uint16\000"
 16614      313600
 16615              	.LASF27:
 16616 03b4 62757341 		.ascii	"busAddress\000"
ARM GAS  C:\Users\FRANKL~1\AppData\Local\Temp\ccPy0viy.s 			page 329


 16616      64647265 
 16616      737300
 16617              	.LASF42:
 16618 03bf 53657475 		.ascii	"Setup_Selector_I2C_Struct\000"
 16618      705F5365 
 16618      6C656374 
 16618      6F725F49 
 16618      32435F53 
 16619              	.LASF51:
 16620 03d9 4144435F 		.ascii	"ADC_SD\000"
 16620      534400
 16621              	.LASF95:
 16622 03e0 76616C75 		.ascii	"value\000"
 16622      6500
 16623              	.LASF81:
 16624 03e6 766F6C74 		.ascii	"voltageSD\000"
 16624      61676553 
 16624      4400
 16625              	.LASF104:
 16626 03f0 5365745F 		.ascii	"Set_Vds\000"
 16626      56647300 
 16627              	.LASF204:
 16628 03f8 56444143 		.ascii	"VDAC_Vds_SetValue\000"
 16628      5F566473 
 16628      5F536574 
 16628      56616C75 
 16628      6500
 16629              	.LASF2:
 16630 040a 756E7369 		.ascii	"unsigned int\000"
 16630      676E6564 
 16630      20696E74 
 16630      00
 16631              	.LASF133:
 16632 0417 4D656173 		.ascii	"Measure_Gate_Sweep\000"
 16632      7572655F 
 16632      47617465 
 16632      5F537765 
 16632      657000
 16633              	.LASF214:
 16634 042a 5449415F 		.ascii	"TIA_1_Start\000"
 16634      315F5374 
 16634      61727400 
 16635              	.LASF173:
 16636 0436 55534255 		.ascii	"USBUART_DataIsReady\000"
 16636      4152545F 
 16636      44617461 
 16636      49735265 
 16636      61647900 
 16637              	.LASF183:
 16638 044a 7374726C 		.ascii	"strlen\000"
 16638      656E00
 16639              	.LASF111:
 16640 0451 5A65726F 		.ascii	"Zero_All_DACs\000"
 16640      5F416C6C 
 16640      5F444143 
 16640      7300
 16641              	.LASF134:
ARM GAS  C:\Users\FRANKL~1\AppData\Local\Temp\ccPy0viy.s 			page 330


 16642 045f 6C6F6F70 		.ascii	"loop\000"
 16642      00
 16643              	.LASF63:
 16644 0464 49647353 		.ascii	"IdsStandardDeviation\000"
 16644      74616E64 
 16644      61726444 
 16644      65766961 
 16644      74696F6E 
 16645              	.LASF190:
 16646 0479 4932435F 		.ascii	"I2C_1_MasterWriteBuf\000"
 16646      315F4D61 
 16646      73746572 
 16646      57726974 
 16646      65427566 
 16647              	.LASF10:
 16648 048e 6C6F6E67 		.ascii	"long unsigned int\000"
 16648      20756E73 
 16648      69676E65 
 16648      6420696E 
 16648      7400
 16649              	.LASF124:
 16650 04a0 73746172 		.ascii	"startRefIndex\000"
 16650      74526566 
 16650      496E6465 
 16650      7800
 16651              	.LASF187:
 16652 04ae 4932435F 		.ascii	"I2C_1_Start\000"
 16652      315F5374 
 16652      61727400 
 16653              	.LASF36:
 16654 04ba 55534255 		.ascii	"USBUARTH_Send\000"
 16654      41525448 
 16654      5F53656E 
 16654      6400
 16655              	.LASF161:
 16656 04c8 475F5061 		.ascii	"G_Pause\000"
 16656      75736500 
 16657              	.LASF143:
 16658 04d0 636F6E74 		.ascii	"contact2\000"
 16658      61637432 
 16658      00
 16659              	.LASF24:
 16660 04d9 64617461 		.ascii	"data\000"
 16660      00
 16661              	.LASF8:
 16662 04de 73686F72 		.ascii	"short unsigned int\000"
 16662      7420756E 
 16662      7369676E 
 16662      65642069 
 16662      6E7400
 16663              	.LASF101:
 16664 04f1 6162736F 		.ascii	"absolute\000"
 16664      6C757465 
 16664      00
 16665              	.LASF19:
 16666 04fa 696E7438 		.ascii	"int8\000"
 16666      00
ARM GAS  C:\Users\FRANKL~1\AppData\Local\Temp\ccPy0viy.s 			page 331


 16667              	.LASF174:
 16668 04ff 55534255 		.ascii	"USBUART_GetAll\000"
 16668      4152545F 
 16668      47657441 
 16668      6C6C00
 16669              	.LASF189:
 16670 050e 4932435F 		.ascii	"I2C_1_MasterClearStatus\000"
 16670      315F4D61 
 16670      73746572 
 16670      436C6561 
 16670      72537461 
 16671              	.LASF139:
 16672 0526 5363616E 		.ascii	"Scan\000"
 16672      00
 16673              	.LASF97:
 16674 052b 5365745F 		.ascii	"Set_Ref_Raw\000"
 16674      5265665F 
 16674      52617700 
 16675              	.LASF76:
 16676 0537 436F6E6E 		.ascii	"Connect_Intermediates\000"
 16676      6563745F 
 16676      496E7465 
 16676      726D6564 
 16676      69617465 
 16677              	.LASF127:
 16678 054d 72656641 		.ascii	"refArrived\000"
 16678      72726976 
 16678      656400
 16679              	.LASF46:
 16680 0558 4144435F 		.ascii	"ADC_Measure_uV\000"
 16680      4D656173 
 16680      7572655F 
 16680      755600
 16681              	.LASF7:
 16682 0567 73686F72 		.ascii	"short int\000"
 16682      7420696E 
 16682      7400
 16683              	.LASF14:
 16684 0571 5F5F696E 		.ascii	"__int32_t\000"
 16684      7433325F 
 16684      7400
 16685              	.LASF39:
 16686 057b 55534255 		.ascii	"USBUARTH_Receive_Until\000"
 16686      41525448 
 16686      5F526563 
 16686      65697665 
 16686      5F556E74 
 16687              	.LASF58:
 16688 0592 53415232 		.ascii	"SAR2_Result_Current\000"
 16688      5F526573 
 16688      756C745F 
 16688      43757272 
 16688      656E7400 
 16689              	.LASF118:
 16690 05a6 53415231 		.ascii	"SAR1\000"
 16690      00
 16691              	.LASF119:
ARM GAS  C:\Users\FRANKL~1\AppData\Local\Temp\ccPy0viy.s 			page 332


 16692 05ab 53415232 		.ascii	"SAR2\000"
 16692      00
 16693              	.LASF169:
 16694 05b0 43757272 		.ascii	"Current_Measurement_Sample_Count\000"
 16694      656E745F 
 16694      4D656173 
 16694      7572656D 
 16694      656E745F 
 16695              	.LASF25:
 16696 05d1 77726974 		.ascii	"write\000"
 16696      6500
 16697              	.LASF144:
 16698 05d7 696E7465 		.ascii	"intermediate1\000"
 16698      726D6564 
 16698      69617465 
 16698      3100
 16699              	.LASF145:
 16700 05e5 696E7465 		.ascii	"intermediate2\000"
 16700      726D6564 
 16700      69617465 
 16700      3200
 16701              	.LASF136:
 16702 05f3 4D656173 		.ascii	"Measure_Wide_Gate_Sweep\000"
 16702      7572655F 
 16702      57696465 
 16702      5F476174 
 16702      655F5377 
 16703              	.LASF53:
 16704 060b 53415231 		.ascii	"SAR1_Measure_V\000"
 16704      5F4D6561 
 16704      73757265 
 16704      5F5600
 16705              	.LASF128:
 16706 061a 67617465 		.ascii	"gateIncrement\000"
 16706      496E6372 
 16706      656D656E 
 16706      7400
 16707              	.LASF12:
 16708 0628 73697A65 		.ascii	"sizetype\000"
 16708      74797065 
 16708      00
 16709              	.LASF150:
 16710 0631 76677369 		.ascii	"vgsi\000"
 16710      00
 16711              	.LASF87:
 16712 0636 41745F43 		.ascii	"At_Compliance\000"
 16712      6F6D706C 
 16712      69616E63 
 16712      6500
 16713              	.LASF207:
 16714 0644 73736361 		.ascii	"sscanf\000"
 16714      6E6600
 16715              	.LASF122:
 16716 064b 72656654 		.ascii	"refTurn\000"
 16716      75726E00 
 16717              	.LASF194:
 16718 0653 4144435F 		.ascii	"ADC_DelSig_1_CountsTo_uVolts\000"
ARM GAS  C:\Users\FRANKL~1\AppData\Local\Temp\ccPy0viy.s 			page 333


 16718      44656C53 
 16718      69675F31 
 16718      5F436F75 
 16718      6E747354 
 16719              	.LASF89:
 16720 0670 63757272 		.ascii	"currentSD\000"
 16720      656E7453 
 16720      4400
 16721              	.LASF23:
 16722 067a 73756241 		.ascii	"subAddress\000"
 16722      64647265 
 16722      737300
 16723              	.LASF79:
 16724 0685 63757272 		.ascii	"currentStdDevIn\000"
 16724      656E7453 
 16724      74644465 
 16724      76496E00 
 16725              	.LASF200:
 16726 0695 4144435F 		.ascii	"ADC_SAR_2_IsEndConversion\000"
 16726      5341525F 
 16726      325F4973 
 16726      456E6443 
 16726      6F6E7665 
 16727              	.LASF152:
 16728 06af 73756363 		.ascii	"success\000"
 16728      65737300 
 16729              	.LASF83:
 16730 06b7 63757272 		.ascii	"currentAverage\000"
 16730      656E7441 
 16730      76657261 
 16730      676500
 16731              	.LASF215:
 16732 06c6 4144435F 		.ascii	"ADC_SAR_1_Start\000"
 16732      5341525F 
 16732      315F5374 
 16732      61727400 
 16733              	.LASF221:
 16734 06d6 6D61696E 		.ascii	"main.c\000"
 16734      2E6300
 16735              	.LASF168:
 16736 06dd 5664735F 		.ascii	"Vds_Index_Goal_Relative\000"
 16736      496E6465 
 16736      785F476F 
 16736      616C5F52 
 16736      656C6174 
 16737              	.LASF88:
 16738 06f5 63757272 		.ascii	"current\000"
 16738      656E7400 
 16739              	.LASF131:
 16740 06fd 67617465 		.ascii	"gateIndex\000"
 16740      496E6465 
 16740      7800
 16741              	.LASF226:
 16742 0707 5F5F6275 		.ascii	"__builtin_strchr\000"
 16742      696C7469 
 16742      6E5F7374 
 16742      72636872 
ARM GAS  C:\Users\FRANKL~1\AppData\Local\Temp\ccPy0viy.s 			page 334


 16742      00
 16743              	.LASF164:
 16744 0718 55534255 		.ascii	"USBUART_Receive_Buffer\000"
 16744      4152545F 
 16744      52656365 
 16744      6976655F 
 16744      42756666 
 16745              	.LASF0:
 16746 072f 666C6F61 		.ascii	"float\000"
 16746      7400
 16747              	.LASF185:
 16748 0735 55415254 		.ascii	"UART_1_PutString\000"
 16748      5F315F50 
 16748      75745374 
 16748      72696E67 
 16748      00
 16749              	.LASF142:
 16750 0746 636F6E74 		.ascii	"contact1\000"
 16750      61637431 
 16750      00
 16751              	.LASF123:
 16752 074f 72656649 		.ascii	"refIncrement\000"
 16752      6E637265 
 16752      6D656E74 
 16752      00
 16753              	.LASF179:
 16754 075c 436F6D6D 		.ascii	"CommunicationTimer_ReadStatusRegister\000"
 16754      756E6963 
 16754      6174696F 
 16754      6E54696D 
 16754      65725F52 
 16755              	.LASF130:
 16756 0782 656E6447 		.ascii	"endGateIndex\000"
 16756      61746549 
 16756      6E646578 
 16756      00
 16757              	.LASF22:
 16758 078f 72656738 		.ascii	"reg8\000"
 16758      00
 16759              	.LASF126:
 16760 0794 72656649 		.ascii	"refIndex\000"
 16760      6E646578 
 16760      00
 16761              	.LASF92:
 16762 079d 6973746F 		.ascii	"istop\000"
 16762      7000
 16763              	.LASF15:
 16764 07a3 696E7433 		.ascii	"int32_t\000"
 16764      325F7400 
 16765              	.LASF6:
 16766 07ab 756E7369 		.ascii	"unsigned char\000"
 16766      676E6564 
 16766      20636861 
 16766      7200
 16767              	.LASF30:
 16768 07b9 74726965 		.ascii	"tries\000"
 16768      7300
ARM GAS  C:\Users\FRANKL~1\AppData\Local\Temp\ccPy0viy.s 			page 335


 16769              	.LASF38:
 16770 07bf 55534255 		.ascii	"USBUARTH_GetChar\000"
 16770      41525448 
 16770      5F476574 
 16770      43686172 
 16770      00
 16771              	.LASF71:
 16772 07d0 44697363 		.ascii	"Disconnect_Contact_From_Intermediate\000"
 16772      6F6E6E65 
 16772      63745F43 
 16772      6F6E7461 
 16772      63745F46 
 16773              	.LASF41:
 16774 07f5 7465726D 		.ascii	"termination\000"
 16774      696E6174 
 16774      696F6E00 
 16775              	.LASF176:
 16776 0801 55415254 		.ascii	"UART_1_GetRxBufferSize\000"
 16776      5F315F47 
 16776      65745278 
 16776      42756666 
 16776      65725369 
 16777              	.LASF180:
 16778 0818 55534255 		.ascii	"USBUART_CDCIsReady\000"
 16778      4152545F 
 16778      43444349 
 16778      73526561 
 16778      647900
 16779              	.LASF107:
 16780 082b 4765745F 		.ascii	"Get_Ref\000"
 16780      52656600 
 16781              	.LASF105:
 16782 0833 5365745F 		.ascii	"Set_Vgs_mV\000"
 16782      5667735F 
 16782      6D5600
 16783              	.LASF167:
 16784 083e 5667735F 		.ascii	"Vgs_Index_Goal_Relative\000"
 16784      496E6465 
 16784      785F476F 
 16784      616C5F52 
 16784      656C6174 
 16785              	.LASF219:
 16786 0856 436F6D6D 		.ascii	"CommunicationInterrupt_StartEx\000"
 16786      756E6963 
 16786      6174696F 
 16786      6E496E74 
 16786      65727275 
 16787              	.LASF220:
 16788 0875 474E5520 		.ascii	"GNU C11 5.4.1 20160609 (release) [ARM/embedded-5-br"
 16788      43313120 
 16788      352E342E 
 16788      31203230 
 16788      31363036 
 16789 08a8 616E6368 		.ascii	"anch revision 237715] -mcpu=cortex-m3 -mthumb -g -O"
 16789      20726576 
 16789      6973696F 
 16789      6E203233 
ARM GAS  C:\Users\FRANKL~1\AppData\Local\Temp\ccPy0viy.s 			page 336


 16789      37373135 
 16790 08db 67202D66 		.ascii	"g -ffunction-sections -ffat-lto-objects\000"
 16790      66756E63 
 16790      74696F6E 
 16790      2D736563 
 16790      74696F6E 
 16791              	.LASF62:
 16792 0903 49647341 		.ascii	"IdsAverage\000"
 16792      76657261 
 16792      676500
 16793              	.LASF102:
 16794 090e 5365745F 		.ascii	"Set_Vgs_Rel\000"
 16794      5667735F 
 16794      52656C00 
 16795              	.LASF99:
 16796 091a 6E65775F 		.ascii	"new_Vds\000"
 16796      56647300 
 16797              	.LASF197:
 16798 0922 4144435F 		.ascii	"ADC_SAR_1_GetResult16\000"
 16798      5341525F 
 16798      315F4765 
 16798      74526573 
 16798      756C7431 
 16799              	.LASF191:
 16800 0938 4144435F 		.ascii	"ADC_DelSig_1_StartConvert\000"
 16800      44656C53 
 16800      69675F31 
 16800      5F537461 
 16800      7274436F 
 16801              	.LASF103:
 16802 0952 5365745F 		.ascii	"Set_Vgs\000"
 16802      56677300 
 16803              	.LASF61:
 16804 095a 56677369 		.ascii	"Vgsi\000"
 16804      00
 16805              	.LASF172:
 16806 095f 55534255 		.ascii	"USBUART_CDC_Init\000"
 16806      4152545F 
 16806      4344435F 
 16806      496E6974 
 16806      00
 16807              	.LASF149:
 16808 0970 6C6F6361 		.ascii	"location\000"
 16808      74696F6E 
 16808      00
 16809              	.LASF4:
 16810 0979 6C6F6E67 		.ascii	"long double\000"
 16810      20646F75 
 16810      626C6500 
 16811              	.LASF193:
 16812 0985 4144435F 		.ascii	"ADC_DelSig_1_GetResult32\000"
 16812      44656C53 
 16812      69675F31 
 16812      5F476574 
 16812      52657375 
 16813              	.LASF78:
 16814 099e 63757272 		.ascii	"currentAverageIn\000"
ARM GAS  C:\Users\FRANKL~1\AppData\Local\Temp\ccPy0viy.s 			page 337


 16814      656E7441 
 16814      76657261 
 16814      6765496E 
 16814      00
 16815              	.LASF13:
 16816 09af 63686172 		.ascii	"char\000"
 16816      00
 16817              	.LASF158:
 16818 09b4 6E657744 		.ascii	"newData\000"
 16818      61746100 
 16819              	.LASF29:
 16820 09bc 436F6D6D 		.ascii	"CommunicationHandlerISR\000"
 16820      756E6963 
 16820      6174696F 
 16820      6E48616E 
 16820      646C6572 
 16821              	.LASF55:
 16822 09d4 5341525F 		.ascii	"SAR_SD\000"
 16822      534400
 16823              	.LASF94:
 16824 09db 5365745F 		.ascii	"Set_Vds_Raw\000"
 16824      5664735F 
 16824      52617700 
 16825              	.LASF116:
 16826 09e7 53415232 		.ascii	"SAR2_Average\000"
 16826      5F417665 
 16826      72616765 
 16826      00
 16827              	.LASF49:
 16828 09f4 73616D70 		.ascii	"sampleCount\000"
 16828      6C65436F 
 16828      756E7400 
 16829              	.LASF223:
 16830 0a00 53656C65 		.ascii	"Selector_I2C_Struct\000"
 16830      63746F72 
 16830      5F493243 
 16830      5F537472 
 16830      75637400 
 16831              	.LASF106:
 16832 0a14 5365745F 		.ascii	"Set_Vds_mV\000"
 16832      5664735F 
 16832      6D5600
 16833              	.LASF34:
 16834 0a1f 62756666 		.ascii	"buffer\000"
 16834      657200
 16835              	.LASF113:
 16836 0a26 49647341 		.ascii	"IdsAverageAmps\000"
 16836      76657261 
 16836      6765416D 
 16836      707300
 16837              	.LASF199:
 16838 0a35 4144435F 		.ascii	"ADC_SAR_2_StartConvert\000"
 16838      5341525F 
 16838      325F5374 
 16838      61727443 
 16838      6F6E7665 
 16839              	.LASF85:
ARM GAS  C:\Users\FRANKL~1\AppData\Local\Temp\ccPy0viy.s 			page 338


 16840 0a4c 5449415F 		.ascii	"TIA_Feedback_R\000"
 16840      46656564 
 16840      6261636B 
 16840      5F5200
 16841              	.LASF70:
 16842 0a5b 6F666673 		.ascii	"offset\000"
 16842      657400
 16843              	.LASF217:
 16844 0a62 43794465 		.ascii	"CyDelay\000"
 16844      6C617900 
 16845              	.LASF159:
 16846 0a6a 475F5374 		.ascii	"G_Stop\000"
 16846      6F7000
 16847              	.LASF203:
 16848 0a71 56444143 		.ascii	"VDAC_Vgs_SetValue\000"
 16848      5F566773 
 16848      5F536574 
 16848      56616C75 
 16848      6500
 16849              	.LASF120:
 16850 0a83 4D656173 		.ascii	"Measure_Multiple\000"
 16850      7572655F 
 16850      4D756C74 
 16850      69706C65 
 16850      00
 16851              	.LASF31:
 16852 0a94 74656D70 		.ascii	"temp_buffer\000"
 16852      5F627566 
 16852      66657200 
 16853              	.LASF77:
 16854 0aa0 4D656173 		.ascii	"Measure_Current_Vss\000"
 16854      7572655F 
 16854      43757272 
 16854      656E745F 
 16854      56737300 
 16855              	.LASF110:
 16856 0ab4 4765745F 		.ascii	"Get_Vds\000"
 16856      56647300 
 16857              	.LASF64:
 16858 0abc 53657475 		.ascii	"Setup_Selectors\000"
 16858      705F5365 
 16858      6C656374 
 16858      6F727300 
 16859              	.LASF160:
 16860 0acc 475F4272 		.ascii	"G_Break\000"
 16860      65616B00 
 16861              	.LASF157:
 16862 0ad4 5472616E 		.ascii	"TransmitBuffer\000"
 16862      736D6974 
 16862      42756666 
 16862      657200
 16863              	.LASF192:
 16864 0ae3 4144435F 		.ascii	"ADC_DelSig_1_IsEndConversion\000"
 16864      44656C53 
 16864      69675F31 
 16864      5F497345 
 16864      6E64436F 
ARM GAS  C:\Users\FRANKL~1\AppData\Local\Temp\ccPy0viy.s 			page 339


 16865              	.LASF37:
 16866 0b00 55534255 		.ascii	"USBUARTH_Receive\000"
 16866      41525448 
 16866      5F526563 
 16866      65697665 
 16866      00
 16867              	.LASF74:
 16868 0b11 44697363 		.ascii	"Disconnect_All_Contacts_From_Intermediate\000"
 16868      6F6E6E65 
 16868      63745F41 
 16868      6C6C5F43 
 16868      6F6E7461 
 16869              	.LASF222:
 16870 0b3b 433A5C55 		.ascii	"C:\\Users\\FranklinLab_PC_1\\Documents\\Python Scri"
 16870      73657273 
 16870      5C467261 
 16870      6E6B6C69 
 16870      6E4C6162 
 16871 0b6a 7074735C 		.ascii	"pts\\CNT_IV\\PSoC\\Layout 2_14\\Version 3\\Master\\"
 16871      434E545F 
 16871      49565C50 
 16871      536F435C 
 16871      4C61796F 
 16872 0b97 4D617374 		.ascii	"Master 1\\Design01.cydsn\000"
 16872      65722031 
 16872      5C446573 
 16872      69676E30 
 16872      312E6379 
 16873              	.LASF60:
 16874 0baf 4D656173 		.ascii	"Measure_Sweep\000"
 16874      7572655F 
 16874      53776565 
 16874      7000
 16875              	.LASF196:
 16876 0bbd 4144435F 		.ascii	"ADC_SAR_1_IsEndConversion\000"
 16876      5341525F 
 16876      315F4973 
 16876      456E6443 
 16876      6F6E7665 
 16877              	.LASF84:
 16878 0bd7 63757272 		.ascii	"currentStdDev\000"
 16878      656E7453 
 16878      74644465 
 16878      7600
 16879              	.LASF67:
 16880 0be5 696E7465 		.ascii	"intermediate\000"
 16880      726D6564 
 16880      69617465 
 16880      00
 16881              	.LASF43:
 16882 0bf2 73656C65 		.ascii	"selector\000"
 16882      63746F72 
 16882      00
 16883              	.LASF50:
 16884 0bfb 4144435F 		.ascii	"ADC_Result\000"
 16884      52657375 
 16884      6C7400
ARM GAS  C:\Users\FRANKL~1\AppData\Local\Temp\ccPy0viy.s 			page 340


 16885              	.LASF66:
 16886 0c06 6368616E 		.ascii	"channel\000"
 16886      6E656C00 
 16887              	.LASF40:
 16888 0c0e 6D61784C 		.ascii	"maxLength\000"
 16888      656E6774 
 16888      6800
 16889              	.LASF32:
 16890 0c18 74656D70 		.ascii	"temp_count\000"
 16890      5F636F75 
 16890      6E7400
 16891              	.LASF20:
 16892 0c23 696E7431 		.ascii	"int16\000"
 16892      3600
 16893              	.LASF146:
 16894 0c29 5363616E 		.ascii	"Scan_Range\000"
 16894      5F52616E 
 16894      676500
 16895              	.LASF117:
 16896 0c34 53415232 		.ascii	"SAR2_SD\000"
 16896      5F534400 
 16897              	.LASF26:
 16898 0c3c 72656164 		.ascii	"read\000"
 16898      00
 16899              	.LASF137:
 16900 0c41 73706565 		.ascii	"speed\000"
 16900      6400
 16901              	.LASF125:
 16902 0c47 656E6452 		.ascii	"endRefIndex\000"
 16902      6566496E 
 16902      64657800 
 16903              	.LASF90:
 16904 0c53 48616E64 		.ascii	"Handle_Compliance_Breach\000"
 16904      6C655F43 
 16904      6F6D706C 
 16904      69616E63 
 16904      655F4272 
 16905              	.LASF45:
 16906 0c6c 73656C65 		.ascii	"selectori\000"
 16906      63746F72 
 16906      6900
 16907              	.LASF162:
 16908 0c76 55415254 		.ascii	"UART_Receive_Buffer\000"
 16908      5F526563 
 16908      65697665 
 16908      5F427566 
 16908      66657200 
 16909              	.LASF28:
 16910 0c8a 55534255 		.ascii	"USBUARTH_DataIsReady\000"
 16910      41525448 
 16910      5F446174 
 16910      61497352 
 16910      65616479 
 16911              	.LASF57:
 16912 0c9f 53415232 		.ascii	"SAR2_Measure_V\000"
 16912      5F4D6561 
 16912      73757265 
ARM GAS  C:\Users\FRANKL~1\AppData\Local\Temp\ccPy0viy.s 			page 341


 16912      5F5600
 16913              	.LASF166:
 16914 0cae 436F6D70 		.ascii	"Compliance_Reached\000"
 16914      6C69616E 
 16914      63655F52 
 16914      65616368 
 16914      656400
 16915              	.LASF73:
 16916 0cc1 44697363 		.ascii	"Disconnect_All_Contacts_From_All_Intermediates\000"
 16916      6F6E6E65 
 16916      63745F41 
 16916      6C6C5F43 
 16916      6F6E7461 
 16917              	.LASF195:
 16918 0cf0 4144435F 		.ascii	"ADC_SAR_1_StartConvert\000"
 16918      5341525F 
 16918      315F5374 
 16918      61727443 
 16918      6F6E7665 
 16919              	.LASF201:
 16920 0d07 4144435F 		.ascii	"ADC_SAR_2_GetResult16\000"
 16920      5341525F 
 16920      325F4765 
 16920      74526573 
 16920      756C7431 
 16921              	.LASF165:
 16922 0d1d 55534255 		.ascii	"USBUART_Rx_Position\000"
 16922      4152545F 
 16922      52785F50 
 16922      6F736974 
 16922      696F6E00 
 16923              	.LASF198:
 16924 0d31 4144435F 		.ascii	"ADC_SAR_1_CountsTo_Volts\000"
 16924      5341525F 
 16924      315F436F 
 16924      756E7473 
 16924      546F5F56 
 16925              	.LASF224:
 16926 0d4a 6D61696E 		.ascii	"main\000"
 16926      00
 16927              	.LASF54:
 16928 0d4f 5341525F 		.ascii	"SAR_Result\000"
 16928      52657375 
 16928      6C7400
 16929              	.LASF108:
 16930 0d5a 72657375 		.ascii	"result\000"
 16930      6C7400
 16931              	.LASF178:
 16932 0d61 436F6D6D 		.ascii	"CommunicationInterrupt_ClearPending\000"
 16932      756E6963 
 16932      6174696F 
 16932      6E496E74 
 16932      65727275 
 16933              	.LASF184:
 16934 0d85 4932435F 		.ascii	"I2C_1_MasterStatus\000"
 16934      315F4D61 
 16934      73746572 
ARM GAS  C:\Users\FRANKL~1\AppData\Local\Temp\ccPy0viy.s 			page 342


 16934      53746174 
 16934      757300
 16935              	.LASF112:
 16936 0d98 4D656173 		.ascii	"Measure\000"
 16936      75726500 
 16937              		.ident	"GCC: (GNU Tools for ARM Embedded Processors) 5.4.1 20160609 (release) [ARM/embedded-5-bran
