ARM GAS  C:\Users\FRANKL~1\AppData\Local\Temp\ccPy0viy.s 			page 1


   1              		.syntax unified
   2              		.cpu cortex-m3
   3              		.fpu softvfp
   4              		.eabi_attribute 20, 1
   5              		.eabi_attribute 21, 1
   6              		.eabi_attribute 23, 3
   7              		.eabi_attribute 24, 1
   8              		.eabi_attribute 25, 1
   9              		.eabi_attribute 26, 1
  10              		.eabi_attribute 30, 1
  11              		.eabi_attribute 34, 1
  12              		.eabi_attribute 18, 4
  13              		.thumb
  14              		.syntax unified
  15              		.file	"main.c"
  16              		.text
  17              	.Ltext0:
  18              		.cfi_sections	.debug_frame
  19              		.syntax unified
  20              		.global _printf_float
  21              		.thumb
  22              		.syntax unified
  23              		.section	.text.USBUARTH_Maintain_Configuration,"ax",%progbits
  24              		.align	2
  25              		.global	USBUARTH_Maintain_Configuration
  26              		.thumb
  27              		.thumb_func
  28              		.type	USBUARTH_Maintain_Configuration, %function
  29              	USBUARTH_Maintain_Configuration:
  30              	.LFB64:
  31              		.file 1 "USBUART_Helpers.h"
   1:USBUART_Helpers.h **** #include "project.h"
   2:USBUART_Helpers.h **** #include "stdio.h"
   3:USBUART_Helpers.h **** 
   4:USBUART_Helpers.h **** #if defined (__GNUC__)
   5:USBUART_Helpers.h **** 	/* Add an explicit reference to the floating point printf library */
   6:USBUART_Helpers.h **** 	/* to allow usage of the floating point conversion specifiers. */
   7:USBUART_Helpers.h **** 	/* This is not linked in by default with the newlib-nano library. */
   8:USBUART_Helpers.h **** 	asm (".global _printf_float");
   9:USBUART_Helpers.h **** #endif
  10:USBUART_Helpers.h **** 
  11:USBUART_Helpers.h **** // The buffer size is equal to the maximum packet size of the IN and OUT bulk endpoints.
  12:USBUART_Helpers.h **** #define USBUART_BUFFER_SIZE	(64u)
  13:USBUART_Helpers.h **** #define LINE_STR_LENGTH		(20u)
  14:USBUART_Helpers.h **** 
  15:USBUART_Helpers.h **** 
  16:USBUART_Helpers.h **** void USBUARTH_Maintain_Configuration() {
  32              		.loc 1 16 0
  33              		.cfi_startproc
  34              		@ args = 0, pretend = 0, frame = 0
  35              		@ frame_needed = 0, uses_anonymous_args = 0
  36 0000 08B5     		push	{r3, lr}
  37              		.cfi_def_cfa_offset 8
  38              		.cfi_offset 3, -8
  39              		.cfi_offset 14, -4
  40              	.LVL0:
  17:USBUART_Helpers.h **** 	unsigned long tries = 0;
ARM GAS  C:\Users\FRANKL~1\AppData\Local\Temp\ccPy0viy.s 			page 2


  18:USBUART_Helpers.h **** 	
  19:USBUART_Helpers.h **** 	do {
  20:USBUART_Helpers.h **** 		// Host can send double SET_INTERFACE request.
  21:USBUART_Helpers.h **** 		if (USBUART_IsConfigurationChanged()) {
  41              		.loc 1 21 0
  42 0002 FFF7FEFF 		bl	USBUART_IsConfigurationChanged
  43              	.LVL1:
  44 0006 20B1     		cbz	r0, .L2
  22:USBUART_Helpers.h **** 			// Initialize IN endpoints when device is configured.
  23:USBUART_Helpers.h **** 			if (USBUART_GetConfiguration()) {
  45              		.loc 1 23 0
  46 0008 FFF7FEFF 		bl	USBUART_GetConfiguration
  47              	.LVL2:
  48 000c 08B1     		cbz	r0, .L2
  24:USBUART_Helpers.h **** 				// Enumeration is done, enable OUT endpoint to receive data from host.
  25:USBUART_Helpers.h **** 				USBUART_CDC_Init();
  49              		.loc 1 25 0
  50 000e FFF7FEFF 		bl	USBUART_CDC_Init
  51              	.LVL3:
  52              	.L2:
  26:USBUART_Helpers.h **** 			}
  27:USBUART_Helpers.h **** 		}
  28:USBUART_Helpers.h **** 		
  29:USBUART_Helpers.h **** 		tries++;
  30:USBUART_Helpers.h **** 	// Keep trying until USB CDC device is configured
  31:USBUART_Helpers.h **** 	} while (!USBUART_GetConfiguration() && tries < 1);
  53              		.loc 1 31 0
  54 0012 FFF7FEFF 		bl	USBUART_GetConfiguration
  55              	.LVL4:
  56 0016 08BD     		pop	{r3, pc}
  57              		.cfi_endproc
  58              	.LFE64:
  59              		.size	USBUARTH_Maintain_Configuration, .-USBUARTH_Maintain_Configuration
  60              		.section	.text.USBUARTH_DataIsReady,"ax",%progbits
  61              		.align	2
  62              		.global	USBUARTH_DataIsReady
  63              		.thumb
  64              		.thumb_func
  65              		.type	USBUARTH_DataIsReady, %function
  66              	USBUARTH_DataIsReady:
  67              	.LFB65:
  32:USBUART_Helpers.h **** }
  33:USBUART_Helpers.h **** 
  34:USBUART_Helpers.h **** uint8 USBUARTH_DataIsReady() {
  68              		.loc 1 34 0
  69              		.cfi_startproc
  70              		@ args = 0, pretend = 0, frame = 0
  71              		@ frame_needed = 0, uses_anonymous_args = 0
  72 0000 08B5     		push	{r3, lr}
  73              		.cfi_def_cfa_offset 8
  74              		.cfi_offset 3, -8
  75              		.cfi_offset 14, -4
  35:USBUART_Helpers.h **** 	USBUARTH_Maintain_Configuration();
  76              		.loc 1 35 0
  77 0002 FFF7FEFF 		bl	USBUARTH_Maintain_Configuration
  78              	.LVL5:
  36:USBUART_Helpers.h **** 	
ARM GAS  C:\Users\FRANKL~1\AppData\Local\Temp\ccPy0viy.s 			page 3


  37:USBUART_Helpers.h **** 	return USBUART_GetConfiguration() && USBUART_DataIsReady();
  79              		.loc 1 37 0
  80 0006 FFF7FEFF 		bl	USBUART_GetConfiguration
  81              	.LVL6:
  82 000a 20B1     		cbz	r0, .L6
  83              		.loc 1 37 0 is_stmt 0 discriminator 1
  84 000c FFF7FEFF 		bl	USBUART_DataIsReady
  85              	.LVL7:
  86 0010 18B1     		cbz	r0, .L7
  87              		.loc 1 37 0
  88 0012 0120     		movs	r0, #1
  89 0014 08BD     		pop	{r3, pc}
  90              	.L6:
  91 0016 0020     		movs	r0, #0
  92 0018 08BD     		pop	{r3, pc}
  93              	.L7:
  94 001a 0020     		movs	r0, #0
  38:USBUART_Helpers.h **** }
  95              		.loc 1 38 0 is_stmt 1
  96 001c 08BD     		pop	{r3, pc}
  97              		.cfi_endproc
  98              	.LFE65:
  99              		.size	USBUARTH_DataIsReady, .-USBUARTH_DataIsReady
 100 001e 00BF     		.section	.text.CommunicationHandlerISR,"ax",%progbits
 101              		.align	2
 102              		.global	CommunicationHandlerISR
 103              		.thumb
 104              		.thumb_func
 105              		.type	CommunicationHandlerISR, %function
 106              	CommunicationHandlerISR:
 107              	.LFB108:
 108              		.file 2 "main.c"
   1:main.c        **** #include <stdlib.h>
   2:main.c        **** #include <stdio.h>
   3:main.c        **** #include "project.h"
   4:main.c        **** #include "USBUART_Helpers.h"
   5:main.c        **** 
   6:main.c        **** 
   7:main.c        **** struct Selector_I2C_Struct {
   8:main.c        **** 	struct {
   9:main.c        **** 		uint8 subAddress;
  10:main.c        **** 		uint8 data[126];
  11:main.c        **** 	} write;
  12:main.c        **** 	struct {
  13:main.c        **** 		uint8 subAddress;
  14:main.c        **** 		uint8 data[126];
  15:main.c        **** 	} read;
  16:main.c        **** 	uint8 busAddress;
  17:main.c        **** };
  18:main.c        **** 
  19:main.c        **** 
  20:main.c        **** // Globals ----------------------------------------------
  21:main.c        **** #define SELECTOR_COUNT (4u)
  22:main.c        **** #define INTERMEDIATE_COUNT (4u)
  23:main.c        **** #define CONTACT_COUNT (64u)
  24:main.c        **** #define CHANNEL_COUNT (34u)
  25:main.c        **** #define CONTACT_CONNECT_CODE (0xC0u)
ARM GAS  C:\Users\FRANKL~1\AppData\Local\Temp\ccPy0viy.s 			page 4


  26:main.c        **** #define CONTACT_DISCONNECT_CODE (0xD1u)
  27:main.c        **** #define COMPLIANCE_CURRENT_LIMIT (10e-6)
  28:main.c        **** 
  29:main.c        **** struct Selector_I2C_Struct selectors[SELECTOR_COUNT];
  30:main.c        **** char TransmitBuffer[USBUART_BUFFER_SIZE];
  31:main.c        **** 
  32:main.c        **** volatile uint8 newData = 0;
  33:main.c        **** volatile uint8 G_Stop = 0;
  34:main.c        **** volatile uint8 G_Break = 0;
  35:main.c        **** volatile uint8 G_Pause = 0;
  36:main.c        **** 
  37:main.c        **** volatile char UART_Receive_Buffer[USBUART_BUFFER_SIZE];
  38:main.c        **** volatile uint8 UART_Rx_Position;
  39:main.c        **** 
  40:main.c        **** volatile char USBUART_Receive_Buffer[USBUART_BUFFER_SIZE];
  41:main.c        **** volatile uint8 USBUART_Rx_Position;
  42:main.c        **** 
  43:main.c        **** uint8 Compliance_Reached;
  44:main.c        **** int16 Vgs_Index_Goal_Relative;
  45:main.c        **** int16 Vds_Index_Goal_Relative;
  46:main.c        **** 
  47:main.c        **** uint32 Current_Measurement_Sample_Count;
  48:main.c        **** 
  49:main.c        **** void Setup_Selector_I2C_Struct(struct Selector_I2C_Struct *selector) {
  50:main.c        **** 	selector->write.subAddress = 1;
  51:main.c        **** 	selector->read.subAddress = sizeof(selector->write) + 1;
  52:main.c        **** 	
  53:main.c        **** 	for (uint16 i = 0; i < sizeof(selector->write.data); i++) {
  54:main.c        **** 		selector->write.data[i] = i + 6;
  55:main.c        **** 	}
  56:main.c        **** 	for (uint16 i = 0; i < sizeof(selector->read.data); i++) {
  57:main.c        **** 		selector->read.data[i] = 0xbe;
  58:main.c        **** 	}
  59:main.c        **** }
  60:main.c        **** 
  61:main.c        **** void Update_Selector(uint8 selectori) {
  62:main.c        **** 	sprintf(TransmitBuffer, "Updating Selector %u\r\n", selectori + 1);
  63:main.c        **** 	USBUARTH_Send(TransmitBuffer, strlen(TransmitBuffer));
  64:main.c        **** 	UART_1_PutString(TransmitBuffer);
  65:main.c        **** 	
  66:main.c        **** 	struct Selector_I2C_Struct* selector = &selectors[selectori];
  67:main.c        **** 	
  68:main.c        **** 	I2C_1_MasterClearStatus();
  69:main.c        **** 	I2C_1_MasterWriteBuf(selector->busAddress, (uint8 *) &selector->write, sizeof(selector->write), I2
  70:main.c        **** 	for (uint32 i = 0; i < 4e5; i++) {
  71:main.c        **** 		if ((I2C_1_MasterStatus() & I2C_1_MSTAT_WR_CMPLT)) break;
  72:main.c        **** 		if (i >= 4e5 - 1) {
  73:main.c        **** 			sprintf(TransmitBuffer, "I2C Transfer Error! Type: Timeout\r\n");
  74:main.c        **** 			USBUARTH_Send(TransmitBuffer, strlen(TransmitBuffer));
  75:main.c        **** 			UART_1_PutString(TransmitBuffer);
  76:main.c        **** 			I2C_1_Stop();
  77:main.c        **** 			I2C_1_Start();
  78:main.c        **** 		}
  79:main.c        **** 	}
  80:main.c        **** 	
  81:main.c        **** 	// I2C_1_MasterClearStatus();
  82:main.c        **** 	// I2C_1_MasterWriteBuf(selector->busAddress, (uint8 *) &selector->read.subAddress, 1, I2C_1_MODE_
ARM GAS  C:\Users\FRANKL~1\AppData\Local\Temp\ccPy0viy.s 			page 5


  83:main.c        **** 	// for (uint32 i - 0; i < 4e5; i++) {
  84:main.c        **** 	// 	if ((I2C_1_MasterStatus() & I2C_1_MSTAT_WR_CMPLT)) break;
  85:main.c        **** 	// }
  86:main.c        **** 	
  87:main.c        **** 	// I2C_1_MasterReadBuf(selector->busAddress, (uint8 *) &selector->read.data, sizeof(selector->read
  88:main.c        **** 	// for (uint32 i - 0; i < 4e5; i++) {
  89:main.c        **** 	// 	if ((I2C_1_MasterStatus() & I2C_1_MSTAT_RD_CMPLT)) break;
  90:main.c        **** 	// }
  91:main.c        **** 	
  92:main.c        **** 	if (I2C_1_MasterStatus() & I2C_1_MSTAT_ERR_XFER) {
  93:main.c        **** 		sprintf(TransmitBuffer, "I2C Transfer Error! ");
  94:main.c        **** 		USBUARTH_Send(TransmitBuffer, strlen(TransmitBuffer));
  95:main.c        **** 		UART_1_PutString(TransmitBuffer);
  96:main.c        **** 		
  97:main.c        **** 		if (I2C_1_MasterStatus() & I2C_1_MSTAT_ERR_ADDR_NAK) {
  98:main.c        **** 			sprintf(TransmitBuffer, "Type: NAK");
  99:main.c        **** 			USBUARTH_Send(TransmitBuffer, strlen(TransmitBuffer));
 100:main.c        **** 			UART_1_PutString(TransmitBuffer);
 101:main.c        **** 		}
 102:main.c        **** 		
 103:main.c        **** 		sprintf(TransmitBuffer, "\r\n");
 104:main.c        **** 		USBUARTH_Send(TransmitBuffer, strlen(TransmitBuffer));
 105:main.c        **** 		UART_1_PutString(TransmitBuffer);
 106:main.c        **** 	}
 107:main.c        **** 	
 108:main.c        **** 	sprintf(TransmitBuffer, "Updated Selector %u\r\n", selectori + 1);
 109:main.c        **** 	USBUARTH_Send(TransmitBuffer, strlen(TransmitBuffer));
 110:main.c        **** 	UART_1_PutString(TransmitBuffer);
 111:main.c        **** }
 112:main.c        **** 
 113:main.c        **** 
 114:main.c        **** void ADC_Measure_uV(int32* average, int32* standardDeviation, uint32 sampleCount) {
 115:main.c        **** 	int32 ADC_Result = 0;
 116:main.c        **** 	int32 ADC_SD = 0;
 117:main.c        **** 	
 118:main.c        **** 	for (uint32 i = 1; i < sampleCount; i++) {
 119:main.c        **** 		ADC_DelSig_1_StartConvert();
 120:main.c        **** 		while (!ADC_DelSig_1_IsEndConversion(ADC_DelSig_1_RETURN_STATUS));
 121:main.c        **** 		//int16 ADC_Result = ADC_DelSig_1_CountsTo_mVolts(ADC_DelSig_1_GetResult16());
 122:main.c        **** 		int32 ADC_Result_Current = ADC_DelSig_1_CountsTo_uVolts(ADC_DelSig_1_GetResult32());
 123:main.c        **** 		
 124:main.c        **** 		ADC_SD += (float)(i-1)/(float)(i)*(ADC_Result_Current - ADC_Result)*(ADC_Result_Current - ADC_Res
 125:main.c        **** 		ADC_Result += ((float)ADC_Result_Current - (float)ADC_Result)/(float)i;
 126:main.c        **** 	}
 127:main.c        **** 	
 128:main.c        **** 	*average = ADC_Result;
 129:main.c        **** 	*standardDeviation = ADC_SD;
 130:main.c        **** }
 131:main.c        **** 
 132:main.c        **** void SAR1_Measure_V(float* average, float* standardDeviation, uint32 sampleCount) {
 133:main.c        **** 	float SAR_Result = 0;
 134:main.c        **** 	float SAR_SD = 0;
 135:main.c        **** 	
 136:main.c        **** 	for (uint32 i = 1; i < sampleCount; i++) {
 137:main.c        **** 		ADC_SAR_1_StartConvert();
 138:main.c        **** 		while (!ADC_SAR_1_IsEndConversion(ADC_SAR_1_RETURN_STATUS));
 139:main.c        **** 		
ARM GAS  C:\Users\FRANKL~1\AppData\Local\Temp\ccPy0viy.s 			page 6


 140:main.c        **** 		float SAR1_Result_Current = ADC_SAR_1_CountsTo_Volts(ADC_SAR_1_GetResult16());
 141:main.c        **** 		
 142:main.c        **** 		SAR_SD += (float)(i-1)/(float)(i)*(SAR1_Result_Current - SAR_Result)*(SAR1_Result_Current - SAR_R
 143:main.c        **** 		SAR_Result += ((float)SAR1_Result_Current - (float)SAR_Result)/(float)i;
 144:main.c        **** 	}
 145:main.c        **** 	
 146:main.c        **** 	*average = SAR_Result;
 147:main.c        **** 	*standardDeviation = SAR_SD;
 148:main.c        **** }
 149:main.c        **** 
 150:main.c        **** void SAR2_Measure_V(float* average, float* standardDeviation, uint32 sampleCount) {
 151:main.c        **** 	float SAR_Result = 0;
 152:main.c        **** 	float SAR_SD = 0;
 153:main.c        **** 	
 154:main.c        **** 	for (uint32 i = 1; i < sampleCount; i++) {
 155:main.c        **** 		ADC_SAR_2_StartConvert();
 156:main.c        **** 		while (!ADC_SAR_2_IsEndConversion(ADC_SAR_2_RETURN_STATUS));
 157:main.c        **** 		
 158:main.c        **** 		float SAR2_Result_Current = ADC_SAR_2_CountsTo_Volts(ADC_SAR_2_GetResult16());
 159:main.c        **** 		
 160:main.c        **** 		SAR_SD += (float)(i-1)/(float)(i)*(SAR2_Result_Current - SAR_Result)*(SAR2_Result_Current - SAR_R
 161:main.c        **** 		SAR_Result += ((float)SAR2_Result_Current - (float)SAR_Result)/(float)i;
 162:main.c        **** 	}
 163:main.c        **** 	
 164:main.c        **** 	*average = SAR_Result;
 165:main.c        **** 	*standardDeviation = SAR_SD;
 166:main.c        **** }
 167:main.c        **** 
 168:main.c        **** void Measure_Sweep() {
 169:main.c        **** 	VDAC_Vds_SetValue(90);
 170:main.c        **** 	VDAC_Vgs_SetValue(254);
 171:main.c        **** 	
 172:main.c        **** 	for (uint16 Vgsi = 0; Vgsi < 256; Vgsi++) {
 173:main.c        **** 		int32 IdsAverage = 0;
 174:main.c        **** 		int32 IdsStandardDeviation = 0;
 175:main.c        **** 		
 176:main.c        **** 		VDAC_Vgs_SetValue(Vgsi);
 177:main.c        **** 		
 178:main.c        **** 		ADC_Measure_uV(&IdsAverage, &IdsStandardDeviation, 100);
 179:main.c        **** 		
 180:main.c        **** 		// Send the collected data
 181:main.c        **** 		//sprintf(TransmitBuffer, "[%d, %lu, %lu]\r\n", Vgsi, IdsAverage, IdsStandardDeviation);
 182:main.c        **** 		sprintf(TransmitBuffer, "%lu,", IdsAverage);
 183:main.c        **** 		USBUARTH_Send(TransmitBuffer, strlen(TransmitBuffer));
 184:main.c        **** 		UART_1_PutString(TransmitBuffer);
 185:main.c        **** 	}
 186:main.c        **** }
 187:main.c        **** 
 188:main.c        **** void Setup_Selectors() {
 189:main.c        **** 	for (uint8 i = 0; i < SELECTOR_COUNT; i++) Setup_Selector_I2C_Struct(&selectors[i]);
 190:main.c        **** 	
 191:main.c        **** 	selectors[0].busAddress = 0x66;
 192:main.c        **** 	selectors[1].busAddress = 0x11;
 193:main.c        **** 	selectors[2].busAddress = 0x44;
 194:main.c        **** 	selectors[3].busAddress = 0x22;
 195:main.c        **** }
 196:main.c        **** 
ARM GAS  C:\Users\FRANKL~1\AppData\Local\Temp\ccPy0viy.s 			page 7


 197:main.c        **** void Connect_Channel_On_Intermediate(uint8 channel, uint8 intermediate) {
 198:main.c        **** 	channel--;
 199:main.c        **** 	intermediate--;
 200:main.c        **** 	
 201:main.c        **** 	if (channel >= CHANNEL_COUNT) return;
 202:main.c        **** 	if (intermediate >= INTERMEDIATE_COUNT) return;
 203:main.c        **** 	
 204:main.c        **** 	selectors[intermediate].write.data[channel] = CONTACT_CONNECT_CODE;
 205:main.c        **** 	Update_Selector(intermediate);
 206:main.c        **** }
 207:main.c        **** 
 208:main.c        **** void Connect_Contact_To_Intermediate(uint8 contact, uint8 intermediate) {
 209:main.c        **** 	contact--;
 210:main.c        **** 	intermediate--;
 211:main.c        **** 	
 212:main.c        **** 	if (contact >= CONTACT_COUNT) return;
 213:main.c        **** 	if (intermediate >= INTERMEDIATE_COUNT) return;
 214:main.c        **** 	
 215:main.c        **** 	uint8 offset = 0;
 216:main.c        **** 	if (intermediate >= INTERMEDIATE_COUNT/2) {
 217:main.c        **** 		offset = CONTACT_COUNT/2;
 218:main.c        **** 		if (contact < CONTACT_COUNT/2) return;
 219:main.c        **** 	} else {
 220:main.c        **** 		if (contact >= CONTACT_COUNT/2) return;
 221:main.c        **** 	}
 222:main.c        **** 	
 223:main.c        **** 	Connect_Channel_On_Intermediate(contact - offset + 1, intermediate + 1);
 224:main.c        **** }
 225:main.c        **** 
 226:main.c        **** void Disconnect_Contact_From_Intermediate(uint8 contact, uint8 intermediate) {
 227:main.c        **** 	contact--;
 228:main.c        **** 	intermediate--;
 229:main.c        **** 	
 230:main.c        **** 	if (contact >= CONTACT_COUNT) return;
 231:main.c        **** 	if (intermediate >= INTERMEDIATE_COUNT) return;
 232:main.c        **** 	
 233:main.c        **** 	uint8 offset = 0;
 234:main.c        **** 	if (intermediate >= INTERMEDIATE_COUNT/2) {
 235:main.c        **** 		offset = CONTACT_COUNT/2;
 236:main.c        **** 		if (contact < CONTACT_COUNT/2) return;
 237:main.c        **** 	} else {
 238:main.c        **** 		if (contact >= CONTACT_COUNT/2) return;
 239:main.c        **** 	}
 240:main.c        **** 	
 241:main.c        **** 	selectors[intermediate].write.data[contact - offset] = CONTACT_DISCONNECT_CODE;
 242:main.c        **** 	
 243:main.c        **** 	Update_Selector(intermediate);
 244:main.c        **** }
 245:main.c        **** 
 246:main.c        **** void Disconnect_Contact_From_All_Intermediates(uint8 contact) {
 247:main.c        **** 	contact--;
 248:main.c        **** 	
 249:main.c        **** 	for (uint8 intermediate = 0; intermediate < INTERMEDIATE_COUNT; intermediate++) {
 250:main.c        **** 		
 251:main.c        **** 		uint8 offset = 0;
 252:main.c        **** 		if (intermediate >= INTERMEDIATE_COUNT/2) {
 253:main.c        **** 			offset = CONTACT_COUNT/2;
ARM GAS  C:\Users\FRANKL~1\AppData\Local\Temp\ccPy0viy.s 			page 8


 254:main.c        **** 			if (contact < CONTACT_COUNT/2) continue;
 255:main.c        **** 		} else {
 256:main.c        **** 			if (contact >= CONTACT_COUNT/2) continue;
 257:main.c        **** 		}
 258:main.c        **** 		
 259:main.c        **** 		selectors[intermediate].write.data[contact - offset] = CONTACT_DISCONNECT_CODE;
 260:main.c        **** 		
 261:main.c        **** 		Update_Selector(intermediate);
 262:main.c        **** 	}
 263:main.c        **** }
 264:main.c        **** 
 265:main.c        **** void Disconnect_All_Contacts_From_All_Intermediates() {
 266:main.c        **** 	for (uint8 intermediate = 0; intermediate < INTERMEDIATE_COUNT/**//2; intermediate++) {
 267:main.c        **** 		for (uint8 contact = 0; contact < CONTACT_COUNT/2; contact++) {
 268:main.c        **** 			selectors[intermediate].write.data[contact] = CONTACT_DISCONNECT_CODE;
 269:main.c        **** 		}
 270:main.c        **** 		
 271:main.c        **** 		Update_Selector(intermediate);
 272:main.c        **** 	}
 273:main.c        **** }
 274:main.c        **** 
 275:main.c        **** void Disconnect_All_Contacts_From_Intermediate(uint8 intermediate) {
 276:main.c        **** 	intermediate--;
 277:main.c        **** 	
 278:main.c        **** 	for (uint8 contact = 0; contact < CONTACT_COUNT/2; contact++) {
 279:main.c        **** 		selectors[intermediate].write.data[contact] = CONTACT_DISCONNECT_CODE;
 280:main.c        **** 	}
 281:main.c        **** 	
 282:main.c        **** 	Update_Selector(intermediate);
 283:main.c        **** }
 284:main.c        **** 
 285:main.c        **** void Connect_Intermediate(uint8 intermediate) {
 286:main.c        **** 	switch (intermediate) {
 287:main.c        **** 		case 1: Connect_Channel_On_Intermediate(33, 1); break;
 288:main.c        **** 		case 2: Connect_Channel_On_Intermediate(33, 2); break;
 289:main.c        **** 		case 3: Connect_Channel_On_Intermediate(33, 3); break;
 290:main.c        **** 		case 4: Connect_Channel_On_Intermediate(33, 4); break;
 291:main.c        **** 		default: return;
 292:main.c        **** 	}
 293:main.c        **** }
 294:main.c        **** 
 295:main.c        **** void Connect_Intermediates() {
 296:main.c        **** 	for (uint8 i = 1; i <= INTERMEDIATE_COUNT/**//2; i++) {
 297:main.c        **** 		Connect_Intermediate(i);
 298:main.c        **** 	}
 299:main.c        **** }
 300:main.c        **** 
 301:main.c        **** void Measure_Current_Vss(float* currentAverageIn, float* currentStdDevIn, uint32 sampleCount) {
 302:main.c        **** 	Compliance_Reached = 0;
 303:main.c        **** 	
 304:main.c        **** 	// Voltage and its standard deviation (in uV)
 305:main.c        **** 	int32 voltage = 0;
 306:main.c        **** 	int32 voltageSD = 0;
 307:main.c        **** 	
 308:main.c        **** 	// Current and its standard deviation (in A)
 309:main.c        **** 	float currentNow = 0;
 310:main.c        **** 	
ARM GAS  C:\Users\FRANKL~1\AppData\Local\Temp\ccPy0viy.s 			page 9


 311:main.c        **** 	float currentAverage = 0;
 312:main.c        **** 	float currentStdDev = 0;
 313:main.c        **** 	
 314:main.c        **** 	float TIA_Feedback_R = 20e3;
 315:main.c        **** 	float unitConversion = -1.0e-6/TIA_Feedback_R;
 316:main.c        **** 	
 317:main.c        **** 	// Allow for the first measurement (normally not correct) to take place
 318:main.c        **** 	ADC_Measure_uV(&voltage, &voltageSD, 3);
 319:main.c        **** 	
 320:main.c        **** 	// Now take the real measurement
 321:main.c        **** 	for (uint32 i = 1; i <= sampleCount; i++) {
 322:main.c        **** 		ADC_Measure_uV(&voltage, &voltageSD, 1);
 323:main.c        **** 		
 324:main.c        **** 		currentNow = unitConversion*voltage;
 325:main.c        **** 		
 326:main.c        **** 		if (abs(currentNow) > COMPLIANCE_CURRENT_LIMIT) {
 327:main.c        **** 			Compliance_Reached += 1;
 328:main.c        **** 			break;
 329:main.c        **** 		} else {
 330:main.c        **** 			Compliance_Reached = 0;
 331:main.c        **** 		}
 332:main.c        **** 		
 333:main.c        **** 		currentStdDev += ((float)i-1.0)/(float)(i)*(currentNow - currentAverage)*(currentNow - currentAve
 334:main.c        **** 		currentAverage += (currentNow - currentAverage)/(float)i;
 335:main.c        **** 	}
 336:main.c        **** 	
 337:main.c        **** 	*currentAverageIn = currentAverage;
 338:main.c        **** 	*currentStdDevIn = currentStdDev;
 339:main.c        **** }
 340:main.c        **** 
 341:main.c        **** uint8 At_Compliance() {
 342:main.c        **** 	Compliance_Reached = 0;
 343:main.c        **** 	
 344:main.c        **** 	float current = 0;
 345:main.c        **** 	float currentSD = 0;
 346:main.c        **** 	
 347:main.c        **** 	Measure_Current_Vss(&current, &currentSD, 3);
 348:main.c        **** 	
 349:main.c        **** 	if (abs(current) > COMPLIANCE_CURRENT_LIMIT) {
 350:main.c        **** 		Compliance_Reached = 1;
 351:main.c        **** 		return 1;
 352:main.c        **** 	}
 353:main.c        **** 	
 354:main.c        **** 	return 0;
 355:main.c        **** }
 356:main.c        **** 
 357:main.c        **** void Handle_Compliance_Breach() {
 358:main.c        **** 	uint8 istart = VDAC_Vds_Data;
 359:main.c        **** 	uint8 istop = VDAC_Ref_Data;
 360:main.c        **** 	int8 increment = 1;
 361:main.c        **** 	if (istart < istop) increment = -1;
 362:main.c        **** 	
 363:main.c        **** 	for (uint8 i = istart; i != istop; i += increment) {
 364:main.c        **** 		VDAC_Vds_SetValue(i);
 365:main.c        **** 		
 366:main.c        **** 		if (!At_Compliance()) return;
 367:main.c        **** 	}
ARM GAS  C:\Users\FRANKL~1\AppData\Local\Temp\ccPy0viy.s 			page 10


 368:main.c        **** 	
 369:main.c        **** 	istart = VDAC_Vgs_Data;
 370:main.c        **** 	istop = VDAC_Ref_Data;
 371:main.c        **** 	increment = 1;
 372:main.c        **** 	if (istart < istop) increment = -1;
 373:main.c        **** 	
 374:main.c        **** 	for (uint8 i = istart; i != istop; i += increment) {
 375:main.c        **** 		VDAC_Vgs_SetValue(i);
 376:main.c        **** 		
 377:main.c        **** 		if (!At_Compliance()) return;
 378:main.c        **** 	}
 379:main.c        **** 	
 380:main.c        **** 	// To do: Should disconnect something or take some other action at this point since still at compl
 381:main.c        **** }
 382:main.c        **** 
 383:main.c        **** void Set_Vds_Raw(uint8 value) {
 384:main.c        **** 	Vds_Index_Goal_Relative = (int16)value - (int16)VDAC_Ref_Data;
 385:main.c        **** 	
 386:main.c        **** 	uint8 istart = VDAC_Vds_Data;
 387:main.c        **** 	int8 increment = 1;
 388:main.c        **** 	if (istart > value) increment = -1;
 389:main.c        **** 	
 390:main.c        **** 	for (uint8 i = 0; i != value; i += increment) {
 391:main.c        **** 		if (At_Compliance()) {
 392:main.c        **** 			for (uint8 j = i; j != istart; j -= increment) {
 393:main.c        **** 				VDAC_Vds_SetValue(j);
 394:main.c        **** 				
 395:main.c        **** 				if (!At_Compliance()) return;
 396:main.c        **** 			}
 397:main.c        **** 			if (At_Compliance()) {
 398:main.c        **** 				Handle_Compliance_Breach();
 399:main.c        **** 				return;
 400:main.c        **** 			}
 401:main.c        **** 		}
 402:main.c        **** 		
 403:main.c        **** 		VDAC_Vds_SetValue(i);
 404:main.c        **** 	}
 405:main.c        **** }
 406:main.c        **** 
 407:main.c        **** void Set_Vgs_Raw(uint8 value) {
 408:main.c        **** 	Vgs_Index_Goal_Relative = (int16)value - (int16)VDAC_Ref_Data;
 409:main.c        **** 	
 410:main.c        **** 	int8 increment = 1;
 411:main.c        **** 	uint8 istart = VDAC_Vgs_Data;
 412:main.c        **** 	if (value < istart) increment = -1;
 413:main.c        **** 	
 414:main.c        **** 	for (uint8 i = istart; i != value; i += increment) {
 415:main.c        **** 		if (At_Compliance()) {
 416:main.c        **** 			for (uint8 j = i; j != istart; j -= increment) {
 417:main.c        **** 				VDAC_Vgs_SetValue(j);
 418:main.c        **** 				
 419:main.c        **** 				if (!At_Compliance()) return;
 420:main.c        **** 			}
 421:main.c        **** 			if (At_Compliance()) {
 422:main.c        **** 				Handle_Compliance_Breach();
 423:main.c        **** 				return;
 424:main.c        **** 			}
ARM GAS  C:\Users\FRANKL~1\AppData\Local\Temp\ccPy0viy.s 			page 11


 425:main.c        **** 		}
 426:main.c        **** 		
 427:main.c        **** 		VDAC_Vgs_SetValue(i);
 428:main.c        **** 	}
 429:main.c        **** }
 430:main.c        **** 
 431:main.c        **** void Set_Ref_Raw(uint8 value) {
 432:main.c        **** 	int8 increment = 1;
 433:main.c        **** 	if (value < VDAC_Ref_Data) increment = -1;
 434:main.c        **** 	
 435:main.c        **** 	for (uint8 i = VDAC_Ref_Data; i != value; i += increment) {
 436:main.c        **** 		
 437:main.c        **** 		if (At_Compliance()) return;
 438:main.c        **** 		
 439:main.c        **** 		int16 new_Vgs = (int16)i + Vgs_Index_Goal_Relative;
 440:main.c        **** 		int16 new_Vds = (int16)i + Vds_Index_Goal_Relative;
 441:main.c        **** 		
 442:main.c        **** 		if (new_Vgs > 255) new_Vgs = 255;
 443:main.c        **** 		if (new_Vds > 255) new_Vds = 255;
 444:main.c        **** 		
 445:main.c        **** 		if (new_Vgs < 0) new_Vgs = 0;
 446:main.c        **** 		if (new_Vds < 0) new_Vds = 0;
 447:main.c        **** 		
 448:main.c        **** 		VDAC_Ref_SetValue(i);
 449:main.c        **** 		VDAC_Vgs_SetValue(new_Vgs);
 450:main.c        **** 		VDAC_Vds_SetValue(new_Vds);
 451:main.c        **** 	}
 452:main.c        **** }
 453:main.c        **** 
 454:main.c        **** void Set_Vds_Rel(int16 value) {
 455:main.c        **** 	if (value > 255) value = 255;
 456:main.c        **** 	if (value < -255) value = -255;
 457:main.c        **** 	
 458:main.c        **** 	int16 absolute = (int16)value + (int16)VDAC_Ref_Data;
 459:main.c        **** 	
 460:main.c        **** 	if (absolute > 255) {
 461:main.c        **** 		Set_Ref_Raw(VDAC_Ref_Data - (absolute - 255));
 462:main.c        **** 		Set_Vds_Raw(255);
 463:main.c        **** 	} else if (absolute < 0) {
 464:main.c        **** 		Set_Ref_Raw(VDAC_Ref_Data - absolute);
 465:main.c        **** 		Set_Vds_Raw(0);
 466:main.c        **** 	} else {
 467:main.c        **** 		Set_Vds_Raw(absolute);
 468:main.c        **** 	}
 469:main.c        **** 	
 470:main.c        **** 	Vds_Index_Goal_Relative = (int16)value;
 471:main.c        **** }
 472:main.c        **** 
 473:main.c        **** void Set_Vgs_Rel(int16 value) {
 474:main.c        **** 	if (value > 255) value = 255;
 475:main.c        **** 	if (value < -255) value = -255;
 476:main.c        **** 	
 477:main.c        **** 	int16 absolute = (int16)value + (int16)VDAC_Ref_Data;
 478:main.c        **** 	
 479:main.c        **** 	if (absolute > 255) {
 480:main.c        **** 		Set_Ref_Raw(VDAC_Ref_Data - (absolute - 255));
 481:main.c        **** 		Set_Vgs_Raw(255);
ARM GAS  C:\Users\FRANKL~1\AppData\Local\Temp\ccPy0viy.s 			page 12


 482:main.c        **** 	} else if (absolute < 0) {
 483:main.c        **** 		Set_Ref_Raw(VDAC_Ref_Data - absolute);
 484:main.c        **** 		Set_Vgs_Raw(0);
 485:main.c        **** 	} else {
 486:main.c        **** 		Set_Vgs_Raw(absolute);
 487:main.c        **** 	}
 488:main.c        **** 	
 489:main.c        **** 	Vgs_Index_Goal_Relative = (int16)value;
 490:main.c        **** }
 491:main.c        **** 
 492:main.c        **** void Set_Vgs(float voltage) {
 493:main.c        **** 	Set_Vgs_Rel((voltage/4.080)*255.0);
 494:main.c        **** }
 495:main.c        **** 
 496:main.c        **** void Set_Vds(float voltage) {
 497:main.c        **** 	Set_Vds_Rel((voltage/4.080)*255.0);
 498:main.c        **** }
 499:main.c        **** 
 500:main.c        **** void Set_Vgs_mV(float mV) {
 501:main.c        **** 	Set_Vgs(mV/1000.0);
 502:main.c        **** }
 503:main.c        **** 
 504:main.c        **** void Set_Vds_mV(float mV) {
 505:main.c        **** 	Set_Vds(mV/1000.0);
 506:main.c        **** }
 507:main.c        **** 
 508:main.c        **** float Get_Ref() {
 509:main.c        **** 	float result = 4.080/255.0*VDAC_Ref_Data;
 510:main.c        **** 	if (VDAC_Ref_CR0 & (VDAC_Ref_RANGE_1V & VDAC_Ref_RANGE_MASK)) {
 511:main.c        **** 		result = 1.020/255.0*VDAC_Ref_Data;
 512:main.c        **** 	}
 513:main.c        **** 	return result;
 514:main.c        **** }
 515:main.c        **** 
 516:main.c        **** float Get_Vgs() {
 517:main.c        **** 	float result = 4.080/255.0*VDAC_Vgs_Data - Get_Ref();
 518:main.c        **** 	if (VDAC_Vgs_CR0 & (VDAC_Vgs_RANGE_1V & VDAC_Vgs_RANGE_MASK)) {
 519:main.c        **** 		result = 1.020/255.0*VDAC_Vgs_Data - Get_Ref();
 520:main.c        **** 	}
 521:main.c        **** 	return result;
 522:main.c        **** }
 523:main.c        **** 
 524:main.c        **** float Get_Vds() {
 525:main.c        **** 	float result = 4.080/255.0*VDAC_Vds_Data - Get_Ref();
 526:main.c        **** 	if (VDAC_Vds_CR0 & (VDAC_Vds_RANGE_1V & VDAC_Vds_RANGE_MASK)) {
 527:main.c        **** 		result = 1.020/255.0*VDAC_Vds_Data - Get_Ref();
 528:main.c        **** 	}
 529:main.c        **** 	return result;
 530:main.c        **** }
 531:main.c        **** 
 532:main.c        **** void Zero_All_DACs() {
 533:main.c        **** 	Set_Vds_Raw(0);
 534:main.c        **** 	Set_Vgs_Raw(0);
 535:main.c        **** 	
 536:main.c        **** 	VDAC_Vds_SetValue(0);
 537:main.c        **** 	VDAC_Vgs_SetValue(0);
 538:main.c        **** }
ARM GAS  C:\Users\FRANKL~1\AppData\Local\Temp\ccPy0viy.s 			page 13


 539:main.c        **** 
 540:main.c        **** void Measure() {
 541:main.c        **** 	int32 IdsAverage = 0;
 542:main.c        **** 	int32 IdsStandardDeviation = 0;
 543:main.c        **** 	
 544:main.c        **** 	ADC_Measure_uV(&IdsAverage, &IdsStandardDeviation, 100);
 545:main.c        **** 	
 546:main.c        **** 	float IdsAverageAmps = -1e-6/20e3*IdsAverage;
 547:main.c        **** 	
 548:main.c        **** 	//ADC_SAR_1_StartConvert();
 549:main.c        **** 	//ADC_SAR_2_StartConvert();
 550:main.c        **** 	//while (!ADC_SAR_1_IsEndConversion(ADC_SAR_1_RETURN_STATUS));
 551:main.c        **** 	//while (!ADC_SAR_2_IsEndConversion(ADC_SAR_2_RETURN_STATUS));
 552:main.c        **** 	
 553:main.c        **** 	//float SAR1 = ADC_SAR_1_CountsTo_Volts(ADC_SAR_1_GetResult16());
 554:main.c        **** 	//float SAR2 = ADC_SAR_2_CountsTo_Volts(ADC_SAR_2_GetResult16());
 555:main.c        **** 	
 556:main.c        **** 	float SAR1_Average = 0;
 557:main.c        **** 	float SAR1_SD = 0;
 558:main.c        **** 	float SAR2_Average = 0;
 559:main.c        **** 	float SAR2_SD = 0;
 560:main.c        **** 
 561:main.c        **** 	SAR1_Measure_V(&SAR1_Average, &SAR1_SD, 2);
 562:main.c        **** 	SAR2_Measure_V(&SAR2_Average, &SAR2_SD, 10);
 563:main.c        **** 
 564:main.c        **** 	float SAR1 = SAR1_Average;
 565:main.c        **** 	float SAR2 = SAR2_Average;
 566:main.c        **** 
 567:main.c        **** 	sprintf(TransmitBuffer, "[%e,%f,%f,%f,%f]\r\n", IdsAverageAmps, Get_Vgs(), Get_Vds(), SAR1, SAR2);
 568:main.c        **** 	USBUARTH_Send(TransmitBuffer, strlen(TransmitBuffer));
 569:main.c        **** 	UART_1_PutString(TransmitBuffer);
 570:main.c        **** }
 571:main.c        **** 
 572:main.c        **** void Measure_Multiple(uint32 n) {
 573:main.c        **** 	for (uint32 i = 0; i < n; i++) {
 574:main.c        **** 		Measure();
 575:main.c        **** 	}
 576:main.c        **** }
 577:main.c        **** 
 578:main.c        **** void Measure_Gate_Sweep_New() {
 579:main.c        **** 	uint8 refTurn = 1;
 580:main.c        **** 	int8 refIncrement = 1;
 581:main.c        **** 	uint8 startRefIndex = 0;
 582:main.c        **** 	uint8 endRefIndex = 0;
 583:main.c        **** 	uint8 refIndex = startRefIndex;
 584:main.c        **** 	uint8 refArrived = 0;
 585:main.c        **** 	
 586:main.c        **** 	int8 gateIncrement = 1;
 587:main.c        **** 	uint8 startGateIndex = 0;
 588:main.c        **** 	uint8 endGateIndex = 0;
 589:main.c        **** 	uint8 gateIndex = startGateIndex;
 590:main.c        **** 	uint8 gateArrived = 0;
 591:main.c        **** 	
 592:main.c        **** 	
 593:main.c        **** 	while (!gateArrived || !refArrived) {
 594:main.c        **** 		gateArrived = abs(gateIndex-endGateIndex) < abs(gateIncrement);
 595:main.c        **** 		refArrived = abs(refIndex-endRefIndex) < abs(refIncrement);
ARM GAS  C:\Users\FRANKL~1\AppData\Local\Temp\ccPy0viy.s 			page 14


 596:main.c        **** 		
 597:main.c        **** 		refTurn = !refTurn;
 598:main.c        **** 		
 599:main.c        **** 		if (refTurn && refArrived) continue;
 600:main.c        **** 		if (!refTurn && gateArrived) continue;
 601:main.c        **** 		
 602:main.c        **** 		Set_Ref_Raw(refIndex);
 603:main.c        **** 		Set_Vgs_Raw(gateIndex);
 604:main.c        **** 		
 605:main.c        **** 		Measure();
 606:main.c        **** 		
 607:main.c        **** 		if (refTurn) {
 608:main.c        **** 			refIndex += refIncrement;
 609:main.c        **** 		} else {
 610:main.c        **** 			gateIndex += gateIncrement;
 611:main.c        **** 		}
 612:main.c        **** 		
 613:main.c        **** 		if (G_Stop) break;
 614:main.c        **** 		while (G_Pause);
 615:main.c        **** 	}
 616:main.c        **** }
 617:main.c        **** 
 618:main.c        **** void Measure_Gate_Sweep(uint8 loop) {
 619:main.c        **** 	
 620:main.c        **** 	if (Vds_Index_Goal_Relative > 0) {
 621:main.c        **** 		Set_Ref_Raw(254 - Vds_Index_Goal_Relative);
 622:main.c        **** 	} else {
 623:main.c        **** 		Set_Ref_Raw(254);
 624:main.c        **** 	}
 625:main.c        **** 	
 626:main.c        **** 	int8 speed = 16;
 627:main.c        **** 	
 628:main.c        **** 	for (uint8 l = 0; l <= loop; l++) {
 629:main.c        **** 		int8 direction = 1*speed;
 630:main.c        **** 		uint8 istart = 0;
 631:main.c        **** 		if (Vds_Index_Goal_Relative < 0) {
 632:main.c        **** 			uint8 istart = -Vds_Index_Goal_Relative;
 633:main.c        **** 		}
 634:main.c        **** 		
 635:main.c        **** 		uint8 istop = 256-speed;
 636:main.c        **** 		
 637:main.c        **** 		if (l%2 == 1) {
 638:main.c        **** 			direction = -1*speed;
 639:main.c        **** 			istart = 256-speed;
 640:main.c        **** 			istop = 0;
 641:main.c        **** 		}
 642:main.c        **** 		
 643:main.c        **** 		for (uint8 i = istart; i != istop; i += direction) {
 644:main.c        **** 			for (uint8 j = 0; j <= 1; j++) {
 645:main.c        **** 				int32 IdsAverage = 0;
 646:main.c        **** 				int32 IdsStandardDeviation = 0;
 647:main.c        **** 				
 648:main.c        **** 				if (j == 1) Set_Ref_Raw(254 - i + 1);
 649:main.c        **** 				Set_Vgs_Raw(i);
 650:main.c        **** 				
 651:main.c        **** 				ADC_Measure_uV(&IdsAverage, &IdsStandardDeviation, 33);
 652:main.c        **** 				
ARM GAS  C:\Users\FRANKL~1\AppData\Local\Temp\ccPy0viy.s 			page 15


 653:main.c        **** 				float IdsAverageAmps = -1e-6/20e3*IdsAverage;
 654:main.c        **** 				
 655:main.c        **** 				ADC_SAR_1_StartConvert();
 656:main.c        **** 				ADC_SAR_2_StartConvert();
 657:main.c        **** 				while (!ADC_SAR_1_IsEndConversion(ADC_SAR_1_RETURN_STATUS));
 658:main.c        **** 				while (!ADC_SAR_2_IsEndConversion(ADC_SAR_2_RETURN_STATUS));
 659:main.c        **** 				
 660:main.c        **** 				float SAR1 = ADC_SAR_1_CountsTo_Volts(ADC_SAR_1_GetResult16());
 661:main.c        **** 				float SAR2 = ADC_SAR_2_CountsTo_Volts(ADC_SAR_2_GetResult16());
 662:main.c        **** 				
 663:main.c        **** 				sprintf(TransmitBuffer, "[%e,%f,%f,%f,%f]\r\n", IdsAverageAmps, Get_Vgs(), Get_Vds(), SAR1, SAR
 664:main.c        **** 				USBUARTH_Send(TransmitBuffer, strlen(TransmitBuffer));
 665:main.c        **** 				UART_1_PutString(TransmitBuffer);
 666:main.c        **** 				
 667:main.c        **** 				if (G_Stop) break;
 668:main.c        **** 				while (G_Pause);
 669:main.c        **** 			}
 670:main.c        **** 		}
 671:main.c        **** 	}
 672:main.c        **** }
 673:main.c        **** 
 674:main.c        **** void Measure_Wide_Gate_Sweep(uint8 loop) {
 675:main.c        **** 	Set_Ref_Raw(254);
 676:main.c        **** 	
 677:main.c        **** 	int8 speed = 16;
 678:main.c        **** 	
 679:main.c        **** 	for (uint8 l = 0; l <= loop; l++) {
 680:main.c        **** 		int8 direction = 1*speed;
 681:main.c        **** 		uint8 istart = 0;
 682:main.c        **** 		uint8 istop = 256-speed;
 683:main.c        **** 		
 684:main.c        **** 		if (l%2 == 1) {
 685:main.c        **** 			direction = -1*speed;
 686:main.c        **** 			istart = 256-speed;
 687:main.c        **** 			istop = 0;
 688:main.c        **** 		}
 689:main.c        **** 		
 690:main.c        **** 		for (uint8 i = istart; i != istop; i += direction) {
 691:main.c        **** 			for (uint8 j = 0; j <= 1; j++) {
 692:main.c        **** 				int32 IdsAverage = 0;
 693:main.c        **** 				int32 IdsStandardDeviation = 0;
 694:main.c        **** 				
 695:main.c        **** 				if (j == 1) Set_Ref_Raw(254 - i + 1);
 696:main.c        **** 				Set_Vgs_Raw(i);
 697:main.c        **** 				
 698:main.c        **** 				ADC_Measure_uV(&IdsAverage, &IdsStandardDeviation, 33);
 699:main.c        **** 				
 700:main.c        **** 				float temp = -1e-6/20e3*IdsAverage;
 701:main.c        **** 				
 702:main.c        **** 				ADC_SAR_1_StartConvert();
 703:main.c        **** 				ADC_SAR_2_StartConvert();
 704:main.c        **** 				while (!ADC_SAR_1_IsEndConversion(ADC_SAR_1_RETURN_STATUS));
 705:main.c        **** 				while (!ADC_SAR_2_IsEndConversion(ADC_SAR_2_RETURN_STATUS));
 706:main.c        **** 				
 707:main.c        **** 				float SAR1 = ADC_SAR_1_CountsTo_Volts(ADC_SAR_1_GetResult16());
 708:main.c        **** 				float SAR2 = ADC_SAR_2_CountsTo_Volts(ADC_SAR_2_GetResult16());
 709:main.c        **** 				
ARM GAS  C:\Users\FRANKL~1\AppData\Local\Temp\ccPy0viy.s 			page 16


 710:main.c        **** 				sprintf(TransmitBuffer, "[%e,%f,%f,%f,%f]\r\n", temp, Get_Vgs(), Get_Vds(), SAR1, SAR2);
 711:main.c        **** 				USBUARTH_Send(TransmitBuffer, strlen(TransmitBuffer));
 712:main.c        **** 				UART_1_PutString(TransmitBuffer);
 713:main.c        **** 				
 714:main.c        **** 				if (G_Stop) break;
 715:main.c        **** 				while (G_Pause);
 716:main.c        **** 			}
 717:main.c        **** 		}
 718:main.c        **** 	}
 719:main.c        **** }
 720:main.c        **** 
 721:main.c        **** void Scan(uint8 wide, uint8 loop) {
 722:main.c        **** 	for (uint8 device = 1; device <= CONTACT_COUNT/**//2; device++) {
 723:main.c        **** 		uint8 contact1 = device;
 724:main.c        **** 		uint8 contact2 = device + 1;
 725:main.c        **** 		uint8 intermediate1 = 1;
 726:main.c        **** 		uint8 intermediate2 = 2;
 727:main.c        **** 		
 728:main.c        **** 		Disconnect_All_Contacts_From_All_Intermediates();
 729:main.c        **** 		Zero_All_DACs();
 730:main.c        **** 		Connect_Intermediates();
 731:main.c        **** 		Connect_Contact_To_Intermediate(contact1, intermediate1);
 732:main.c        **** 		Connect_Contact_To_Intermediate(contact2, intermediate2);
 733:main.c        **** 		
 734:main.c        **** 		sprintf(TransmitBuffer, "\r\n%u\r\n", device);
 735:main.c        **** 		USBUARTH_Send(TransmitBuffer, strlen(TransmitBuffer));
 736:main.c        **** 		UART_1_PutString(TransmitBuffer);
 737:main.c        **** 		
 738:main.c        **** 		if (wide) {
 739:main.c        **** 			Measure_Wide_Gate_Sweep(loop);
 740:main.c        **** 		} else {
 741:main.c        **** 			Measure_Gate_Sweep(loop);
 742:main.c        **** 		}
 743:main.c        **** 		
 744:main.c        **** 		if (G_Break || G_Stop) break;
 745:main.c        **** 		while (G_Pause);
 746:main.c        **** 	}
 747:main.c        **** }
 748:main.c        **** 
 749:main.c        **** void Scan_Range(uint8 startDevice, uint8 stopDevice, uint8 wide, uint8 loop) {
 750:main.c        **** 	if (startDevice >= CONTACT_COUNT) return;
 751:main.c        **** 	if (stopDevice >= CONTACT_COUNT) return;
 752:main.c        **** 	
 753:main.c        **** 	for (uint8 device = startDevice; device <= stopDevice; device++) {
 754:main.c        **** 		uint8 contact1 = device;
 755:main.c        **** 		uint8 contact2 = device + 1;
 756:main.c        **** 		uint8 intermediate1 = 1;
 757:main.c        **** 		uint8 intermediate2 = 2;
 758:main.c        **** 		
 759:main.c        **** 		Disconnect_All_Contacts_From_All_Intermediates();
 760:main.c        **** 		Zero_All_DACs();
 761:main.c        **** 		Connect_Intermediates();
 762:main.c        **** 		Connect_Contact_To_Intermediate(contact1, intermediate1);
 763:main.c        **** 		Connect_Contact_To_Intermediate(contact2, intermediate2);
 764:main.c        **** 		
 765:main.c        **** 		sprintf(TransmitBuffer, "\r\n%u\r\n", device);
 766:main.c        **** 		USBUARTH_Send(TransmitBuffer, strlen(TransmitBuffer));
ARM GAS  C:\Users\FRANKL~1\AppData\Local\Temp\ccPy0viy.s 			page 17


 767:main.c        **** 		UART_1_PutString(TransmitBuffer);
 768:main.c        **** 		
 769:main.c        **** 		if (wide) {
 770:main.c        **** 			Measure_Wide_Gate_Sweep(loop);
 771:main.c        **** 		} else {
 772:main.c        **** 			Measure_Gate_Sweep(loop);
 773:main.c        **** 		}
 774:main.c        **** 		
 775:main.c        **** 		if (G_Break || G_Stop) break;
 776:main.c        **** 		while (G_Pause);
 777:main.c        **** 	}
 778:main.c        **** }
 779:main.c        **** 
 780:main.c        **** CY_ISR (CommunicationHandlerISR) {
 109              		.loc 2 780 0
 110              		.cfi_startproc
 111              		@ args = 0, pretend = 0, frame = 64
 112              		@ frame_needed = 0, uses_anonymous_args = 0
 113 0000 30B5     		push	{r4, r5, lr}
 114              		.cfi_def_cfa_offset 12
 115              		.cfi_offset 4, -12
 116              		.cfi_offset 5, -8
 117              		.cfi_offset 14, -4
 118 0002 91B0     		sub	sp, sp, #68
 119              		.cfi_def_cfa_offset 80
 781:main.c        **** 	if (USBUARTH_DataIsReady()) {
 120              		.loc 2 781 0
 121 0004 FFF7FEFF 		bl	USBUARTH_DataIsReady
 122              	.LVL8:
 123 0008 0028     		cmp	r0, #0
 124 000a 37D0     		beq	.L10
 125              	.LBB2:
 782:main.c        **** 		// USBUARTH_Receive_Until(UART_Receive_Buffer, USBUART_BUFFER_SIZE, "\r");
 783:main.c        **** 		
 784:main.c        **** 		char temp_buffer[USBUART_BUFFER_SIZE];
 785:main.c        **** 		uint8 temp_count = USBUART_GetAll((uint8*) temp_buffer);
 126              		.loc 2 785 0
 127 000c 6846     		mov	r0, sp
 128 000e FFF7FEFF 		bl	USBUART_GetAll
 129              	.LVL9:
 130 0012 C0B2     		uxtb	r0, r0
 131              	.LVL10:
 132              	.LBB3:
 786:main.c        **** 		
 787:main.c        **** 		for (uint8 i = 0; i < temp_count; i++) {
 133              		.loc 2 787 0
 134 0014 0023     		movs	r3, #0
 135 0016 2EE0     		b	.L11
 136              	.LVL11:
 137              	.L17:
 138              	.LBB4:
 788:main.c        **** 			char c = temp_buffer[i];
 139              		.loc 2 788 0
 140 0018 10AA     		add	r2, sp, #64
 141 001a 1A44     		add	r2, r2, r3
 142 001c 12F8402C 		ldrb	r2, [r2, #-64]	@ zero_extendqisi2
 143              	.LVL12:
ARM GAS  C:\Users\FRANKL~1\AppData\Local\Temp\ccPy0viy.s 			page 18


 789:main.c        **** 			
 790:main.c        **** 			USBUART_Receive_Buffer[USBUART_Rx_Position] = c;
 144              		.loc 2 790 0
 145 0020 5949     		ldr	r1, .L31
 146 0022 0978     		ldrb	r1, [r1]	@ zero_extendqisi2
 147 0024 C9B2     		uxtb	r1, r1
 148 0026 594C     		ldr	r4, .L31+4
 149 0028 6254     		strb	r2, [r4, r1]
 791:main.c        **** 			
 792:main.c        **** 			// sprintf(TransmitBuffer, "USB: %c\r\n", USBUART_Receive_Buffer[USBUART_Rx_Position]);
 793:main.c        **** 			// UART_1_PutString(TransmitBuffer);
 794:main.c        **** 			
 795:main.c        **** 			if (c == '\r' || c == '\n' || c == '!') {
 150              		.loc 2 795 0
 151 002a 0D2A     		cmp	r2, #13
 152 002c 03D0     		beq	.L12
 153              		.loc 2 795 0 is_stmt 0 discriminator 1
 154 002e 0A2A     		cmp	r2, #10
 155 0030 01D0     		beq	.L12
 156              		.loc 2 795 0 discriminator 2
 157 0032 212A     		cmp	r2, #33
 158 0034 10D1     		bne	.L13
 159              	.L12:
 796:main.c        **** 				USBUART_Receive_Buffer[USBUART_Rx_Position] = 0;
 160              		.loc 2 796 0 is_stmt 1
 161 0036 5449     		ldr	r1, .L31
 162 0038 0A78     		ldrb	r2, [r1]	@ zero_extendqisi2
 163              	.LVL13:
 164 003a D2B2     		uxtb	r2, r2
 165 003c 0025     		movs	r5, #0
 166 003e 534C     		ldr	r4, .L31+4
 167 0040 A554     		strb	r5, [r4, r2]
 797:main.c        **** 				if (USBUART_Rx_Position) newData = 1;
 168              		.loc 2 797 0
 169 0042 0A78     		ldrb	r2, [r1]	@ zero_extendqisi2
 170 0044 12F0FF0F 		tst	r2, #255
 171 0048 02D0     		beq	.L14
 172              		.loc 2 797 0 is_stmt 0 discriminator 1
 173 004a 0121     		movs	r1, #1
 174 004c 504A     		ldr	r2, .L31+8
 175 004e 1170     		strb	r1, [r2]
 176              	.L14:
 798:main.c        **** 				USBUART_Rx_Position = 0;
 177              		.loc 2 798 0 is_stmt 1
 178 0050 0021     		movs	r1, #0
 179 0052 4D4A     		ldr	r2, .L31
 180 0054 1170     		strb	r1, [r2]
 181 0056 04E0     		b	.L15
 182              	.LVL14:
 183              	.L13:
 799:main.c        **** 			} else {
 800:main.c        **** 				USBUART_Rx_Position++;
 184              		.loc 2 800 0
 185 0058 4B49     		ldr	r1, .L31
 186 005a 0A78     		ldrb	r2, [r1]	@ zero_extendqisi2
 187              	.LVL15:
 188 005c 0132     		adds	r2, r2, #1
ARM GAS  C:\Users\FRANKL~1\AppData\Local\Temp\ccPy0viy.s 			page 19


 189 005e D2B2     		uxtb	r2, r2
 190 0060 0A70     		strb	r2, [r1]
 191              	.L15:
 801:main.c        **** 			}
 802:main.c        **** 			
 803:main.c        **** 			if (USBUART_Rx_Position >= USBUART_BUFFER_SIZE) USBUART_Rx_Position = 0;
 192              		.loc 2 803 0
 193 0062 494A     		ldr	r2, .L31
 194 0064 1278     		ldrb	r2, [r2]	@ zero_extendqisi2
 195 0066 D2B2     		uxtb	r2, r2
 196 0068 3F2A     		cmp	r2, #63
 197 006a 02D9     		bls	.L16
 198              		.loc 2 803 0 is_stmt 0 discriminator 1
 199 006c 0021     		movs	r1, #0
 200 006e 464A     		ldr	r2, .L31
 201 0070 1170     		strb	r1, [r2]
 202              	.L16:
 203              	.LBE4:
 787:main.c        **** 			char c = temp_buffer[i];
 204              		.loc 2 787 0 is_stmt 1 discriminator 2
 205 0072 0133     		adds	r3, r3, #1
 206              	.LVL16:
 207 0074 DBB2     		uxtb	r3, r3
 208              	.LVL17:
 209              	.L11:
 787:main.c        **** 			char c = temp_buffer[i];
 210              		.loc 2 787 0 is_stmt 0 discriminator 1
 211 0076 8342     		cmp	r3, r0
 212 0078 CED3     		bcc	.L17
 213 007a 3AE0     		b	.L18
 214              	.LVL18:
 215              	.L10:
 216              	.LBE3:
 217              	.LBE2:
 804:main.c        **** 		}
 805:main.c        **** 	} else
 806:main.c        **** 	if (UART_1_GetRxBufferSize()) {
 218              		.loc 2 806 0 is_stmt 1
 219 007c FFF7FEFF 		bl	UART_1_GetRxBufferSize
 220              	.LVL19:
 221 0080 0028     		cmp	r0, #0
 222 0082 36D0     		beq	.L18
 807:main.c        **** 		UART_Receive_Buffer[UART_Rx_Position] = UART_1_GetChar();
 223              		.loc 2 807 0
 224 0084 434D     		ldr	r5, .L31+12
 225 0086 2C78     		ldrb	r4, [r5]	@ zero_extendqisi2
 226 0088 E4B2     		uxtb	r4, r4
 227 008a FFF7FEFF 		bl	UART_1_GetChar
 228              	.LVL20:
 229 008e 424A     		ldr	r2, .L31+16
 230 0090 1055     		strb	r0, [r2, r4]
 808:main.c        **** 		
 809:main.c        **** 		if (UART_Receive_Buffer[UART_Rx_Position] == '\r' || UART_Receive_Buffer[UART_Rx_Position] == '\n
 231              		.loc 2 809 0
 232 0092 2B78     		ldrb	r3, [r5]	@ zero_extendqisi2
 233 0094 DBB2     		uxtb	r3, r3
 234 0096 D35C     		ldrb	r3, [r2, r3]	@ zero_extendqisi2
ARM GAS  C:\Users\FRANKL~1\AppData\Local\Temp\ccPy0viy.s 			page 20


 235 0098 DBB2     		uxtb	r3, r3
 236 009a 0D2B     		cmp	r3, #13
 237 009c 0BD0     		beq	.L19
 238              		.loc 2 809 0 is_stmt 0 discriminator 1
 239 009e 2B78     		ldrb	r3, [r5]	@ zero_extendqisi2
 240 00a0 DBB2     		uxtb	r3, r3
 241 00a2 D35C     		ldrb	r3, [r2, r3]	@ zero_extendqisi2
 242 00a4 DBB2     		uxtb	r3, r3
 243 00a6 0A2B     		cmp	r3, #10
 244 00a8 05D0     		beq	.L19
 245              		.loc 2 809 0 discriminator 2
 246 00aa 2B78     		ldrb	r3, [r5]	@ zero_extendqisi2
 247 00ac DBB2     		uxtb	r3, r3
 248 00ae D35C     		ldrb	r3, [r2, r3]	@ zero_extendqisi2
 249 00b0 DBB2     		uxtb	r3, r3
 250 00b2 212B     		cmp	r3, #33
 251 00b4 10D1     		bne	.L20
 252              	.L19:
 810:main.c        **** 			UART_Receive_Buffer[UART_Rx_Position] = 0;
 253              		.loc 2 810 0 is_stmt 1
 254 00b6 374A     		ldr	r2, .L31+12
 255 00b8 1378     		ldrb	r3, [r2]	@ zero_extendqisi2
 256 00ba DBB2     		uxtb	r3, r3
 257 00bc 0020     		movs	r0, #0
 258 00be 3649     		ldr	r1, .L31+16
 259 00c0 C854     		strb	r0, [r1, r3]
 811:main.c        **** 			if (UART_Rx_Position) newData = 2;
 260              		.loc 2 811 0
 261 00c2 1378     		ldrb	r3, [r2]	@ zero_extendqisi2
 262 00c4 13F0FF0F 		tst	r3, #255
 263 00c8 02D0     		beq	.L21
 264              		.loc 2 811 0 is_stmt 0 discriminator 1
 265 00ca 0222     		movs	r2, #2
 266 00cc 304B     		ldr	r3, .L31+8
 267 00ce 1A70     		strb	r2, [r3]
 268              	.L21:
 812:main.c        **** 			UART_Rx_Position = 0;
 269              		.loc 2 812 0 is_stmt 1
 270 00d0 0022     		movs	r2, #0
 271 00d2 304B     		ldr	r3, .L31+12
 272 00d4 1A70     		strb	r2, [r3]
 273 00d6 04E0     		b	.L22
 274              	.L20:
 813:main.c        **** 		} else {
 814:main.c        **** 			UART_Rx_Position++;
 275              		.loc 2 814 0
 276 00d8 2E4A     		ldr	r2, .L31+12
 277 00da 1378     		ldrb	r3, [r2]	@ zero_extendqisi2
 278 00dc 0133     		adds	r3, r3, #1
 279 00de DBB2     		uxtb	r3, r3
 280 00e0 1370     		strb	r3, [r2]
 281              	.L22:
 815:main.c        **** 		}
 816:main.c        **** 		
 817:main.c        **** 		if (UART_Rx_Position >= USBUART_BUFFER_SIZE) UART_Rx_Position = 0;
 282              		.loc 2 817 0
 283 00e2 2C4B     		ldr	r3, .L31+12
ARM GAS  C:\Users\FRANKL~1\AppData\Local\Temp\ccPy0viy.s 			page 21


 284 00e4 1B78     		ldrb	r3, [r3]	@ zero_extendqisi2
 285 00e6 DBB2     		uxtb	r3, r3
 286 00e8 3F2B     		cmp	r3, #63
 287 00ea 02D9     		bls	.L18
 288              		.loc 2 817 0 is_stmt 0 discriminator 1
 289 00ec 0022     		movs	r2, #0
 290 00ee 294B     		ldr	r3, .L31+12
 291 00f0 1A70     		strb	r2, [r3]
 292              	.L18:
 818:main.c        **** 	}
 819:main.c        **** 	
 820:main.c        **** 	if (newData) {
 293              		.loc 2 820 0 is_stmt 1
 294 00f2 274B     		ldr	r3, .L31+8
 295 00f4 1B78     		ldrb	r3, [r3]	@ zero_extendqisi2
 296 00f6 13F0FF0F 		tst	r3, #255
 297 00fa 3FD0     		beq	.L23
 298              	.LVL21:
 299              	.LBB5:
 821:main.c        **** 		char* ReceiveBuffer = &USBUART_Receive_Buffer[0];
 822:main.c        **** 		if (newData == 2) ReceiveBuffer = &UART_Receive_Buffer[0];
 300              		.loc 2 822 0
 301 00fc 244B     		ldr	r3, .L31+8
 302 00fe 1B78     		ldrb	r3, [r3]	@ zero_extendqisi2
 303 0100 DBB2     		uxtb	r3, r3
 304 0102 022B     		cmp	r3, #2
 305 0104 01D0     		beq	.L29
 821:main.c        **** 		char* ReceiveBuffer = &USBUART_Receive_Buffer[0];
 306              		.loc 2 821 0
 307 0106 214C     		ldr	r4, .L31+4
 308 0108 00E0     		b	.L24
 309              	.L29:
 310              		.loc 2 822 0
 311 010a 234C     		ldr	r4, .L31+16
 312              	.L24:
 313              	.LVL22:
 823:main.c        **** 		
 824:main.c        **** 		if (strstr(ReceiveBuffer, "stop ") == &ReceiveBuffer[0]) {
 314              		.loc 2 824 0
 315 010c 2349     		ldr	r1, .L31+20
 316 010e 2046     		mov	r0, r4
 317 0110 FFF7FEFF 		bl	strstr
 318              	.LVL23:
 319 0114 8442     		cmp	r4, r0
 320 0116 05D1     		bne	.L25
 825:main.c        **** 			G_Stop = 1;
 321              		.loc 2 825 0
 322 0118 1D4B     		ldr	r3, .L31+8
 323 011a 0122     		movs	r2, #1
 324 011c 5A70     		strb	r2, [r3, #1]
 826:main.c        **** 			newData = 0;
 325              		.loc 2 826 0
 326 011e 0022     		movs	r2, #0
 327 0120 1A70     		strb	r2, [r3]
 328 0122 2BE0     		b	.L23
 329              	.L25:
 827:main.c        **** 		} else 
ARM GAS  C:\Users\FRANKL~1\AppData\Local\Temp\ccPy0viy.s 			page 22


 828:main.c        **** 		if (strstr(ReceiveBuffer, "break ") == &ReceiveBuffer[0]) {
 330              		.loc 2 828 0
 331 0124 1E49     		ldr	r1, .L31+24
 332 0126 2046     		mov	r0, r4
 333 0128 FFF7FEFF 		bl	strstr
 334              	.LVL24:
 335 012c 8442     		cmp	r4, r0
 336 012e 05D1     		bne	.L26
 829:main.c        **** 			G_Break = 1;
 337              		.loc 2 829 0
 338 0130 174B     		ldr	r3, .L31+8
 339 0132 0122     		movs	r2, #1
 340 0134 9A70     		strb	r2, [r3, #2]
 830:main.c        **** 			newData = 0;
 341              		.loc 2 830 0
 342 0136 0022     		movs	r2, #0
 343 0138 1A70     		strb	r2, [r3]
 344 013a 1FE0     		b	.L23
 345              	.L26:
 831:main.c        **** 		} else 
 832:main.c        **** 		if (strstr(ReceiveBuffer, "pause ") == &ReceiveBuffer[0]) {
 346              		.loc 2 832 0
 347 013c 1949     		ldr	r1, .L31+28
 348 013e 2046     		mov	r0, r4
 349 0140 FFF7FEFF 		bl	strstr
 350              	.LVL25:
 351 0144 8442     		cmp	r4, r0
 352 0146 05D1     		bne	.L27
 833:main.c        **** 			G_Pause = 1;
 353              		.loc 2 833 0
 354 0148 114B     		ldr	r3, .L31+8
 355 014a 0122     		movs	r2, #1
 356 014c DA70     		strb	r2, [r3, #3]
 834:main.c        **** 			newData = 0;
 357              		.loc 2 834 0
 358 014e 0022     		movs	r2, #0
 359 0150 1A70     		strb	r2, [r3]
 360 0152 13E0     		b	.L23
 361              	.L27:
 835:main.c        **** 		} else 
 836:main.c        **** 		if (strstr(ReceiveBuffer, "resume ") == &ReceiveBuffer[0]) {
 362              		.loc 2 836 0
 363 0154 1449     		ldr	r1, .L31+32
 364 0156 2046     		mov	r0, r4
 365 0158 FFF7FEFF 		bl	strstr
 366              	.LVL26:
 367 015c 8442     		cmp	r4, r0
 368 015e 04D1     		bne	.L28
 837:main.c        **** 			G_Pause = 0;
 369              		.loc 2 837 0
 370 0160 0B4B     		ldr	r3, .L31+8
 371 0162 0022     		movs	r2, #0
 372 0164 DA70     		strb	r2, [r3, #3]
 838:main.c        **** 			newData = 0;
 373              		.loc 2 838 0
 374 0166 1A70     		strb	r2, [r3]
 375 0168 08E0     		b	.L23
ARM GAS  C:\Users\FRANKL~1\AppData\Local\Temp\ccPy0viy.s 			page 23


 376              	.L28:
 839:main.c        **** 		} else 
 840:main.c        **** 		if (strstr(ReceiveBuffer, "tristate ") == &ReceiveBuffer[0]) {
 377              		.loc 2 840 0
 378 016a 1049     		ldr	r1, .L31+36
 379 016c 2046     		mov	r0, r4
 380 016e FFF7FEFF 		bl	strstr
 381              	.LVL27:
 382 0172 8442     		cmp	r4, r0
 383 0174 02D1     		bne	.L23
 841:main.c        **** 			// To do
 842:main.c        **** 			newData = 0;
 384              		.loc 2 842 0
 385 0176 0022     		movs	r2, #0
 386 0178 054B     		ldr	r3, .L31+8
 387 017a 1A70     		strb	r2, [r3]
 388              	.LVL28:
 389              	.L23:
 390              	.LBE5:
 843:main.c        **** 		}
 844:main.c        **** 	}
 845:main.c        **** 	
 846:main.c        **** 	CommunicationInterrupt_ClearPending();
 391              		.loc 2 846 0
 392 017c FFF7FEFF 		bl	CommunicationInterrupt_ClearPending
 393              	.LVL29:
 847:main.c        **** 	CommunicationTimer_ReadStatusRegister();
 394              		.loc 2 847 0
 395 0180 FFF7FEFF 		bl	CommunicationTimer_ReadStatusRegister
 396              	.LVL30:
 848:main.c        **** }
 397              		.loc 2 848 0
 398 0184 11B0     		add	sp, sp, #68
 399              		.cfi_def_cfa_offset 12
 400              		@ sp needed
 401 0186 30BD     		pop	{r4, r5, pc}
 402              	.L32:
 403              		.align	2
 404              	.L31:
 405 0188 00000000 		.word	USBUART_Rx_Position
 406 018c 00000000 		.word	USBUART_Receive_Buffer
 407 0190 00000000 		.word	.LANCHOR0
 408 0194 00000000 		.word	UART_Rx_Position
 409 0198 00000000 		.word	UART_Receive_Buffer
 410 019c 00000000 		.word	.LC0
 411 01a0 08000000 		.word	.LC1
 412 01a4 10000000 		.word	.LC2
 413 01a8 18000000 		.word	.LC3
 414 01ac 20000000 		.word	.LC4
 415              		.cfi_endproc
 416              	.LFE108:
 417              		.size	CommunicationHandlerISR, .-CommunicationHandlerISR
 418              		.section	.text.USBUARTH_Send,"ax",%progbits
 419              		.align	2
 420              		.global	USBUARTH_Send
 421              		.thumb
 422              		.thumb_func
ARM GAS  C:\Users\FRANKL~1\AppData\Local\Temp\ccPy0viy.s 			page 24


 423              		.type	USBUARTH_Send, %function
 424              	USBUARTH_Send:
 425              	.LFB66:
  39:USBUART_Helpers.h **** 
  40:USBUART_Helpers.h **** 
  41:USBUART_Helpers.h **** uint8 USBUARTH_Send(char* buffer, uint16 count) {
 426              		.loc 1 41 0
 427              		.cfi_startproc
 428              		@ args = 0, pretend = 0, frame = 0
 429              		@ frame_needed = 0, uses_anonymous_args = 0
 430              	.LVL31:
  42:USBUART_Helpers.h **** 	if (count > 0) {
 431              		.loc 1 42 0
 432 0000 49B9     		cbnz	r1, .L39
  43:USBUART_Helpers.h **** 		// Wait until component is ready to send data to host.
  44:USBUART_Helpers.h **** 		for (uint32 tries = 0; tries < 10; tries++) {
  45:USBUART_Helpers.h **** 			USBUARTH_Maintain_Configuration();
  46:USBUART_Helpers.h **** 			if (USBUART_CDCIsReady()) break;
  47:USBUART_Helpers.h **** 		}
  48:USBUART_Helpers.h ****         
  49:USBUART_Helpers.h **** 		if (!USBUART_CDCIsReady()) return 0;
  50:USBUART_Helpers.h **** 		
  51:USBUART_Helpers.h **** 		// Send data to host
  52:USBUART_Helpers.h **** 		USBUART_PutData((uint8*) buffer, count);
  53:USBUART_Helpers.h **** 		
  54:USBUART_Helpers.h **** 		/* If the last sent packet is exactly the maximum packet 
  55:USBUART_Helpers.h **** 		*  size, it is followed by a zero-length packet to assure
  56:USBUART_Helpers.h **** 		*  that the end of the segment is properly identified by 
  57:USBUART_Helpers.h **** 		*  the terminal.
  58:USBUART_Helpers.h **** 		*/
  59:USBUART_Helpers.h **** 		if (USBUART_BUFFER_SIZE == count) {
  60:USBUART_Helpers.h **** 			// Wait until component is ready to send data to PC.
  61:USBUART_Helpers.h **** 			while (!USBUART_CDCIsReady());
  62:USBUART_Helpers.h ****             
  63:USBUART_Helpers.h **** 			// Send zero-length packet to PC.
  64:USBUART_Helpers.h **** 			USBUART_PutData(NULL, 0);
  65:USBUART_Helpers.h **** 		}
  66:USBUART_Helpers.h **** 	}
  67:USBUART_Helpers.h **** 	
  68:USBUART_Helpers.h **** 	return 1;
 433              		.loc 1 68 0
 434 0002 0123     		movs	r3, #1
  69:USBUART_Helpers.h **** }
 435              		.loc 1 69 0
 436 0004 1846     		mov	r0, r3
 437              	.LVL32:
 438 0006 7047     		bx	lr
 439              	.LVL33:
 440              	.L37:
 441              		.cfi_def_cfa_offset 16
 442              		.cfi_offset 4, -16
 443              		.cfi_offset 5, -12
 444              		.cfi_offset 6, -8
 445              		.cfi_offset 14, -4
 446              	.LBB6:
  45:USBUART_Helpers.h **** 			if (USBUART_CDCIsReady()) break;
 447              		.loc 1 45 0
ARM GAS  C:\Users\FRANKL~1\AppData\Local\Temp\ccPy0viy.s 			page 25


 448 0008 FFF7FEFF 		bl	USBUARTH_Maintain_Configuration
 449              	.LVL34:
  46:USBUART_Helpers.h **** 		}
 450              		.loc 1 46 0
 451 000c FFF7FEFF 		bl	USBUART_CDCIsReady
 452              	.LVL35:
 453 0010 38B9     		cbnz	r0, .L36
  44:USBUART_Helpers.h **** 			USBUARTH_Maintain_Configuration();
 454              		.loc 1 44 0 discriminator 2
 455 0012 0134     		adds	r4, r4, #1
 456              	.LVL36:
 457 0014 03E0     		b	.L34
 458              	.LVL37:
 459              	.L39:
 460              		.cfi_def_cfa_offset 0
 461              		.cfi_restore 4
 462              		.cfi_restore 5
 463              		.cfi_restore 6
 464              		.cfi_restore 14
 465              	.LBE6:
  41:USBUART_Helpers.h **** 	if (count > 0) {
 466              		.loc 1 41 0
 467 0016 70B5     		push	{r4, r5, r6, lr}
 468              		.cfi_def_cfa_offset 16
 469              		.cfi_offset 4, -16
 470              		.cfi_offset 5, -12
 471              		.cfi_offset 6, -8
 472              		.cfi_offset 14, -4
 473 0018 0D46     		mov	r5, r1
 474 001a 0646     		mov	r6, r0
 475 001c 0024     		movs	r4, #0
 476              	.LVL38:
 477              	.L34:
 478              	.LBB7:
  44:USBUART_Helpers.h **** 			USBUARTH_Maintain_Configuration();
 479              		.loc 1 44 0 discriminator 1
 480 001e 092C     		cmp	r4, #9
 481 0020 F2D9     		bls	.L37
 482              	.L36:
 483              	.LBE7:
  49:USBUART_Helpers.h **** 		
 484              		.loc 1 49 0
 485 0022 FFF7FEFF 		bl	USBUART_CDCIsReady
 486              	.LVL39:
 487 0026 0346     		mov	r3, r0
 488 0028 80B1     		cbz	r0, .L35
  52:USBUART_Helpers.h **** 		
 489              		.loc 1 52 0
 490 002a 2946     		mov	r1, r5
 491 002c 3046     		mov	r0, r6
 492 002e FFF7FEFF 		bl	USBUART_PutData
 493              	.LVL40:
  59:USBUART_Helpers.h **** 			// Wait until component is ready to send data to PC.
 494              		.loc 1 59 0
 495 0032 402D     		cmp	r5, #64
 496 0034 09D1     		bne	.L40
 497              	.L38:
ARM GAS  C:\Users\FRANKL~1\AppData\Local\Temp\ccPy0viy.s 			page 26


  61:USBUART_Helpers.h ****             
 498              		.loc 1 61 0 discriminator 1
 499 0036 FFF7FEFF 		bl	USBUART_CDCIsReady
 500              	.LVL41:
 501 003a 0028     		cmp	r0, #0
 502 003c FBD0     		beq	.L38
  64:USBUART_Helpers.h **** 		}
 503              		.loc 1 64 0
 504 003e 0021     		movs	r1, #0
 505 0040 0846     		mov	r0, r1
 506 0042 FFF7FEFF 		bl	USBUART_PutData
 507              	.LVL42:
  68:USBUART_Helpers.h **** }
 508              		.loc 1 68 0
 509 0046 0123     		movs	r3, #1
 510 0048 00E0     		b	.L35
 511              	.L40:
 512 004a 0123     		movs	r3, #1
 513              	.L35:
 514              		.loc 1 69 0
 515 004c 1846     		mov	r0, r3
 516 004e 70BD     		pop	{r4, r5, r6, pc}
 517              		.cfi_endproc
 518              	.LFE66:
 519              		.size	USBUARTH_Send, .-USBUARTH_Send
 520              		.section	.text.USBUARTH_Receive,"ax",%progbits
 521              		.align	2
 522              		.global	USBUARTH_Receive
 523              		.thumb
 524              		.thumb_func
 525              		.type	USBUARTH_Receive, %function
 526              	USBUARTH_Receive:
 527              	.LFB67:
  70:USBUART_Helpers.h **** 
  71:USBUART_Helpers.h **** uint8 USBUARTH_Receive(char* buffer, uint16* count) {
 528              		.loc 1 71 0
 529              		.cfi_startproc
 530              		@ args = 0, pretend = 0, frame = 0
 531              		@ frame_needed = 0, uses_anonymous_args = 0
 532              	.LVL43:
 533 0000 38B5     		push	{r3, r4, r5, lr}
 534              		.cfi_def_cfa_offset 16
 535              		.cfi_offset 3, -16
 536              		.cfi_offset 4, -12
 537              		.cfi_offset 5, -8
 538              		.cfi_offset 14, -4
 539 0002 0446     		mov	r4, r0
 540 0004 0D46     		mov	r5, r1
  72:USBUART_Helpers.h **** 	// Wait for input data from host
  73:USBUART_Helpers.h **** 	while (!USBUART_DataIsReady()) USBUARTH_Maintain_Configuration();
 541              		.loc 1 73 0
 542 0006 01E0     		b	.L43
 543              	.LVL44:
 544              	.L44:
 545              		.loc 1 73 0 is_stmt 0 discriminator 2
 546 0008 FFF7FEFF 		bl	USBUARTH_Maintain_Configuration
 547              	.LVL45:
ARM GAS  C:\Users\FRANKL~1\AppData\Local\Temp\ccPy0viy.s 			page 27


 548              	.L43:
 549              		.loc 1 73 0 discriminator 1
 550 000c FFF7FEFF 		bl	USBUART_DataIsReady
 551              	.LVL46:
 552 0010 0028     		cmp	r0, #0
 553 0012 F9D0     		beq	.L44
  74:USBUART_Helpers.h **** 	
  75:USBUART_Helpers.h **** 	// Read received data and re-enable OUT endpoint.
  76:USBUART_Helpers.h **** 	*count = USBUART_GetAll((uint8*) buffer);
 554              		.loc 1 76 0 is_stmt 1
 555 0014 2046     		mov	r0, r4
 556 0016 FFF7FEFF 		bl	USBUART_GetAll
 557              	.LVL47:
 558 001a 2880     		strh	r0, [r5]	@ movhi
  77:USBUART_Helpers.h **** 	
  78:USBUART_Helpers.h **** 	buffer[*count] = 0;
 559              		.loc 1 78 0
 560 001c 0023     		movs	r3, #0
 561 001e 2354     		strb	r3, [r4, r0]
  79:USBUART_Helpers.h **** 	
  80:USBUART_Helpers.h **** 	return 1u;
  81:USBUART_Helpers.h **** }
 562              		.loc 1 81 0
 563 0020 0120     		movs	r0, #1
 564 0022 38BD     		pop	{r3, r4, r5, pc}
 565              		.cfi_endproc
 566              	.LFE67:
 567              		.size	USBUARTH_Receive, .-USBUARTH_Receive
 568              		.section	.text.USBUARTH_GetChar,"ax",%progbits
 569              		.align	2
 570              		.global	USBUARTH_GetChar
 571              		.thumb
 572              		.thumb_func
 573              		.type	USBUARTH_GetChar, %function
 574              	USBUARTH_GetChar:
 575              	.LFB68:
  82:USBUART_Helpers.h **** 
  83:USBUART_Helpers.h **** char USBUARTH_GetChar() {
 576              		.loc 1 83 0
 577              		.cfi_startproc
 578              		@ args = 0, pretend = 0, frame = 0
 579              		@ frame_needed = 0, uses_anonymous_args = 0
 580 0000 08B5     		push	{r3, lr}
 581              		.cfi_def_cfa_offset 8
 582              		.cfi_offset 3, -8
 583              		.cfi_offset 14, -4
  84:USBUART_Helpers.h **** 	while (!USBUART_DataIsReady()) USBUARTH_Maintain_Configuration();
 584              		.loc 1 84 0
 585 0002 01E0     		b	.L47
 586              	.L48:
 587              		.loc 1 84 0 is_stmt 0 discriminator 2
 588 0004 FFF7FEFF 		bl	USBUARTH_Maintain_Configuration
 589              	.LVL48:
 590              	.L47:
 591              		.loc 1 84 0 discriminator 1
 592 0008 FFF7FEFF 		bl	USBUART_DataIsReady
 593              	.LVL49:
ARM GAS  C:\Users\FRANKL~1\AppData\Local\Temp\ccPy0viy.s 			page 28


 594 000c 0028     		cmp	r0, #0
 595 000e F9D0     		beq	.L48
  85:USBUART_Helpers.h **** 	
  86:USBUART_Helpers.h **** 	return USBUART_GetChar();
 596              		.loc 1 86 0 is_stmt 1
 597 0010 FFF7FEFF 		bl	USBUART_GetChar
 598              	.LVL50:
  87:USBUART_Helpers.h **** }
 599              		.loc 1 87 0
 600 0014 08BD     		pop	{r3, pc}
 601              		.cfi_endproc
 602              	.LFE68:
 603              		.size	USBUARTH_GetChar, .-USBUARTH_GetChar
 604 0016 00BF     		.section	.text.USBUARTH_Receive_Until,"ax",%progbits
 605              		.align	2
 606              		.global	USBUARTH_Receive_Until
 607              		.thumb
 608              		.thumb_func
 609              		.type	USBUARTH_Receive_Until, %function
 610              	USBUARTH_Receive_Until:
 611              	.LFB69:
  88:USBUART_Helpers.h **** 
  89:USBUART_Helpers.h **** uint8 USBUARTH_Receive_Until(char* buffer, uint16 maxLength, const char* termination) {
 612              		.loc 1 89 0
 613              		.cfi_startproc
 614              		@ args = 0, pretend = 0, frame = 0
 615              		@ frame_needed = 0, uses_anonymous_args = 0
 616              	.LVL51:
 617 0000 2DE9F041 		push	{r4, r5, r6, r7, r8, lr}
 618              		.cfi_def_cfa_offset 24
 619              		.cfi_offset 4, -24
 620              		.cfi_offset 5, -20
 621              		.cfi_offset 6, -16
 622              		.cfi_offset 7, -12
 623              		.cfi_offset 8, -8
 624              		.cfi_offset 14, -4
 625 0004 0546     		mov	r5, r0
 626 0006 0E46     		mov	r6, r1
 627 0008 1746     		mov	r7, r2
 628              	.LVL52:
 629              	.LBB8:
  90:USBUART_Helpers.h **** 	for (uint16 i = 0; i < maxLength; i++) {
 630              		.loc 1 90 0
 631 000a 0023     		movs	r3, #0
 632 000c 03E0     		b	.L51
 633              	.LVL53:
 634              	.L52:
  91:USBUART_Helpers.h **** 		buffer[i] = 0;
 635              		.loc 1 91 0 discriminator 3
 636 000e 0022     		movs	r2, #0
 637 0010 EA54     		strb	r2, [r5, r3]
  90:USBUART_Helpers.h **** 	for (uint16 i = 0; i < maxLength; i++) {
 638              		.loc 1 90 0 discriminator 3
 639 0012 0133     		adds	r3, r3, #1
 640              	.LVL54:
 641 0014 9BB2     		uxth	r3, r3
 642              	.LVL55:
ARM GAS  C:\Users\FRANKL~1\AppData\Local\Temp\ccPy0viy.s 			page 29


 643              	.L51:
  90:USBUART_Helpers.h **** 	for (uint16 i = 0; i < maxLength; i++) {
 644              		.loc 1 90 0 is_stmt 0 discriminator 1
 645 0016 B342     		cmp	r3, r6
 646 0018 F9D3     		bcc	.L52
 647 001a 0024     		movs	r4, #0
 648 001c 16E0     		b	.L53
 649              	.LVL56:
 650              	.L56:
 651              	.LBE8:
 652              	.LBB9:
  92:USBUART_Helpers.h **** 	}
  93:USBUART_Helpers.h **** 	
  94:USBUART_Helpers.h **** 	for (uint16 i = 0; i < maxLength - 1; i++) {
  95:USBUART_Helpers.h **** 		buffer[i] = USBUARTH_GetChar();
 653              		.loc 1 95 0 is_stmt 1
 654 001e FFF7FEFF 		bl	USBUARTH_GetChar
 655              	.LVL57:
 656 0022 2855     		strb	r0, [r5, r4]
  96:USBUART_Helpers.h **** 		buffer[i+1] = 0;
 657              		.loc 1 96 0
 658 0024 631C     		adds	r3, r4, #1
 659 0026 0022     		movs	r2, #0
 660 0028 EA54     		strb	r2, [r5, r3]
  97:USBUART_Helpers.h **** 		
  98:USBUART_Helpers.h **** 		if (strstr(buffer, termination)) {
 661              		.loc 1 98 0
 662 002a 3946     		mov	r1, r7
 663 002c 2846     		mov	r0, r5
 664 002e FFF7FEFF 		bl	strstr
 665              	.LVL58:
 666 0032 48B1     		cbz	r0, .L54
  99:USBUART_Helpers.h **** 			buffer[i + 1 - strlen(termination)] = 0;
 667              		.loc 1 99 0
 668 0034 3846     		mov	r0, r7
 669 0036 FFF7FEFF 		bl	strlen
 670              	.LVL59:
 671 003a 201A     		subs	r0, r4, r0
 672 003c 0130     		adds	r0, r0, #1
 673 003e 0023     		movs	r3, #0
 674 0040 2B54     		strb	r3, [r5, r0]
 100:USBUART_Helpers.h **** 			return 1;
 675              		.loc 1 100 0
 676 0042 0120     		movs	r0, #1
 677 0044 BDE8F081 		pop	{r4, r5, r6, r7, r8, pc}
 678              	.LVL60:
 679              	.L54:
  94:USBUART_Helpers.h **** 		buffer[i] = USBUARTH_GetChar();
 680              		.loc 1 94 0 discriminator 2
 681 0048 0134     		adds	r4, r4, #1
 682              	.LVL61:
 683 004a A4B2     		uxth	r4, r4
 684              	.LVL62:
 685              	.L53:
  94:USBUART_Helpers.h **** 		buffer[i] = USBUARTH_GetChar();
 686              		.loc 1 94 0 is_stmt 0 discriminator 1
 687 004c 731E     		subs	r3, r6, #1
ARM GAS  C:\Users\FRANKL~1\AppData\Local\Temp\ccPy0viy.s 			page 30


 688 004e 9C42     		cmp	r4, r3
 689 0050 E5DB     		blt	.L56
 690              	.LBE9:
 101:USBUART_Helpers.h **** 		}
 102:USBUART_Helpers.h **** 	}
 103:USBUART_Helpers.h **** 	
 104:USBUART_Helpers.h **** 	return 0;
 691              		.loc 1 104 0 is_stmt 1
 692 0052 0020     		movs	r0, #0
 105:USBUART_Helpers.h **** }
 693              		.loc 1 105 0
 694 0054 BDE8F081 		pop	{r4, r5, r6, r7, r8, pc}
 695              		.cfi_endproc
 696              	.LFE69:
 697              		.size	USBUARTH_Receive_Until, .-USBUARTH_Receive_Until
 698              		.section	.text.Setup_Selector_I2C_Struct,"ax",%progbits
 699              		.align	2
 700              		.global	Setup_Selector_I2C_Struct
 701              		.thumb
 702              		.thumb_func
 703              		.type	Setup_Selector_I2C_Struct, %function
 704              	Setup_Selector_I2C_Struct:
 705              	.LFB70:
  49:main.c        **** 	selector->write.subAddress = 1;
 706              		.loc 2 49 0
 707              		.cfi_startproc
 708              		@ args = 0, pretend = 0, frame = 0
 709              		@ frame_needed = 0, uses_anonymous_args = 0
 710              		@ link register save eliminated.
 711              	.LVL63:
  50:main.c        **** 	selector->read.subAddress = sizeof(selector->write) + 1;
 712              		.loc 2 50 0
 713 0000 0123     		movs	r3, #1
 714 0002 0370     		strb	r3, [r0]
  51:main.c        **** 	
 715              		.loc 2 51 0
 716 0004 8023     		movs	r3, #128
 717 0006 80F87F30 		strb	r3, [r0, #127]
 718              	.LVL64:
 719              	.LBB10:
  53:main.c        **** 		selector->write.data[i] = i + 6;
 720              		.loc 2 53 0
 721 000a 0023     		movs	r3, #0
 722 000c 04E0     		b	.L59
 723              	.LVL65:
 724              	.L60:
  54:main.c        **** 	}
 725              		.loc 2 54 0 discriminator 3
 726 000e C218     		adds	r2, r0, r3
 727 0010 991D     		adds	r1, r3, #6
 728 0012 5170     		strb	r1, [r2, #1]
  53:main.c        **** 		selector->write.data[i] = i + 6;
 729              		.loc 2 53 0 discriminator 3
 730 0014 0133     		adds	r3, r3, #1
 731              	.LVL66:
 732 0016 9BB2     		uxth	r3, r3
 733              	.LVL67:
ARM GAS  C:\Users\FRANKL~1\AppData\Local\Temp\ccPy0viy.s 			page 31


 734              	.L59:
  53:main.c        **** 		selector->write.data[i] = i + 6;
 735              		.loc 2 53 0 is_stmt 0 discriminator 1
 736 0018 7D2B     		cmp	r3, #125
 737 001a F8D9     		bls	.L60
 738 001c 0023     		movs	r3, #0
 739              	.LVL68:
 740 001e 05E0     		b	.L61
 741              	.LVL69:
 742              	.L62:
 743              	.LBE10:
 744              	.LBB11:
  57:main.c        **** 	}
 745              		.loc 2 57 0 is_stmt 1 discriminator 3
 746 0020 C218     		adds	r2, r0, r3
 747 0022 BE21     		movs	r1, #190
 748 0024 82F88010 		strb	r1, [r2, #128]
  56:main.c        **** 		selector->read.data[i] = 0xbe;
 749              		.loc 2 56 0 discriminator 3
 750 0028 0133     		adds	r3, r3, #1
 751              	.LVL70:
 752 002a 9BB2     		uxth	r3, r3
 753              	.LVL71:
 754              	.L61:
  56:main.c        **** 		selector->read.data[i] = 0xbe;
 755              		.loc 2 56 0 is_stmt 0 discriminator 1
 756 002c 7D2B     		cmp	r3, #125
 757 002e F7D9     		bls	.L62
 758              	.LBE11:
  59:main.c        **** 
 759              		.loc 2 59 0 is_stmt 1
 760 0030 7047     		bx	lr
 761              		.cfi_endproc
 762              	.LFE70:
 763              		.size	Setup_Selector_I2C_Struct, .-Setup_Selector_I2C_Struct
 764              		.global	__aeabi_dcmpge
 765              		.global	__aeabi_ui2d
 766              		.global	__aeabi_dcmplt
 767 0032 00BF     		.section	.text.Update_Selector,"ax",%progbits
 768              		.align	2
 769              		.global	Update_Selector
 770              		.thumb
 771              		.thumb_func
 772              		.type	Update_Selector, %function
 773              	Update_Selector:
 774              	.LFB71:
  61:main.c        **** 	sprintf(TransmitBuffer, "Updating Selector %u\r\n", selectori + 1);
 775              		.loc 2 61 0
 776              		.cfi_startproc
 777              		@ args = 0, pretend = 0, frame = 0
 778              		@ frame_needed = 0, uses_anonymous_args = 0
 779              	.LVL72:
 780 0000 2DE9F041 		push	{r4, r5, r6, r7, r8, lr}
 781              		.cfi_def_cfa_offset 24
 782              		.cfi_offset 4, -24
 783              		.cfi_offset 5, -20
 784              		.cfi_offset 6, -16
ARM GAS  C:\Users\FRANKL~1\AppData\Local\Temp\ccPy0viy.s 			page 32


 785              		.cfi_offset 7, -12
 786              		.cfi_offset 8, -8
 787              		.cfi_offset 14, -4
 788 0004 0446     		mov	r4, r0
  62:main.c        **** 	USBUARTH_Send(TransmitBuffer, strlen(TransmitBuffer));
 789              		.loc 2 62 0
 790 0006 00F10108 		add	r8, r0, #1
 791 000a 594D     		ldr	r5, .L74+16
 792 000c 4246     		mov	r2, r8
 793 000e 5949     		ldr	r1, .L74+20
 794 0010 2846     		mov	r0, r5
 795              	.LVL73:
 796 0012 FFF7FEFF 		bl	sprintf
 797              	.LVL74:
  63:main.c        **** 	UART_1_PutString(TransmitBuffer);
 798              		.loc 2 63 0
 799 0016 2846     		mov	r0, r5
 800 0018 FFF7FEFF 		bl	strlen
 801              	.LVL75:
 802 001c 81B2     		uxth	r1, r0
 803 001e 2846     		mov	r0, r5
 804 0020 FFF7FEFF 		bl	USBUARTH_Send
 805              	.LVL76:
  64:main.c        **** 	
 806              		.loc 2 64 0
 807 0024 2846     		mov	r0, r5
 808 0026 FFF7FEFF 		bl	UART_1_PutString
 809              	.LVL77:
  68:main.c        **** 	I2C_1_MasterWriteBuf(selector->busAddress, (uint8 *) &selector->write, sizeof(selector->write), I2
 810              		.loc 2 68 0
 811 002a FFF7FEFF 		bl	I2C_1_MasterClearStatus
 812              	.LVL78:
  69:main.c        **** 	for (uint32 i = 0; i < 4e5; i++) {
 813              		.loc 2 69 0
 814 002e C4EB0424 		rsb	r4, r4, r4, lsl #8
 815              	.LVL79:
 816 0032 514B     		ldr	r3, .L74+24
 817 0034 1C44     		add	r4, r4, r3
 818 0036 0023     		movs	r3, #0
 819 0038 7F22     		movs	r2, #127
 820 003a 2146     		mov	r1, r4
 821 003c 94F8FE00 		ldrb	r0, [r4, #254]	@ zero_extendqisi2
 822 0040 FFF7FEFF 		bl	I2C_1_MasterWriteBuf
 823              	.LVL80:
 824              	.LBB12:
  70:main.c        **** 		if ((I2C_1_MasterStatus() & I2C_1_MSTAT_WR_CMPLT)) break;
 825              		.loc 2 70 0
 826 0044 0024     		movs	r4, #0
 827 0046 2CE0     		b	.L64
 828              	.LVL81:
 829              	.L69:
  71:main.c        **** 		if (i >= 4e5 - 1) {
 830              		.loc 2 71 0
 831 0048 FFF7FEFF 		bl	I2C_1_MasterStatus
 832              	.LVL82:
 833 004c 10F0020F 		tst	r0, #2
 834 0050 33D1     		bne	.L65
ARM GAS  C:\Users\FRANKL~1\AppData\Local\Temp\ccPy0viy.s 			page 33


  72:main.c        **** 			sprintf(TransmitBuffer, "I2C Transfer Error! Type: Timeout\r\n");
 835              		.loc 2 72 0
 836 0052 43A3     		adr	r3, .L74
 837 0054 D3E90023 		ldrd	r2, [r3]
 838 0058 3046     		mov	r0, r6
 839 005a 3946     		mov	r1, r7
 840 005c FFF7FEFF 		bl	__aeabi_dcmpge
 841              	.LVL83:
 842 0060 F0B1     		cbz	r0, .L66
  73:main.c        **** 			USBUARTH_Send(TransmitBuffer, strlen(TransmitBuffer));
 843              		.loc 2 73 0
 844 0062 464F     		ldr	r7, .L74+28
 845 0064 424D     		ldr	r5, .L74+16
 846 0066 07F1200E 		add	lr, r7, #32
 847              	.L68:
 848 006a 3E46     		mov	r6, r7
 849 006c 0FCE     		ldmia	r6!, {r0, r1, r2, r3}
 850 006e 2860     		str	r0, [r5]	@ unaligned
 851 0070 6960     		str	r1, [r5, #4]	@ unaligned
 852 0072 AA60     		str	r2, [r5, #8]	@ unaligned
 853 0074 EB60     		str	r3, [r5, #12]	@ unaligned
 854 0076 3746     		mov	r7, r6
 855 0078 1035     		adds	r5, r5, #16
 856 007a 7645     		cmp	r6, lr
 857 007c F5D1     		bne	.L68
 858 007e 3068     		ldr	r0, [r6]	@ unaligned
 859 0080 2860     		str	r0, [r5]	@ unaligned
  74:main.c        **** 			UART_1_PutString(TransmitBuffer);
 860              		.loc 2 74 0
 861 0082 3B4D     		ldr	r5, .L74+16
 862 0084 2846     		mov	r0, r5
 863 0086 FFF7FEFF 		bl	strlen
 864              	.LVL84:
 865 008a 81B2     		uxth	r1, r0
 866 008c 2846     		mov	r0, r5
 867 008e FFF7FEFF 		bl	USBUARTH_Send
 868              	.LVL85:
  75:main.c        **** 			I2C_1_Stop();
 869              		.loc 2 75 0
 870 0092 2846     		mov	r0, r5
 871 0094 FFF7FEFF 		bl	UART_1_PutString
 872              	.LVL86:
  76:main.c        **** 			I2C_1_Start();
 873              		.loc 2 76 0
 874 0098 FFF7FEFF 		bl	I2C_1_Stop
 875              	.LVL87:
  77:main.c        **** 		}
 876              		.loc 2 77 0
 877 009c FFF7FEFF 		bl	I2C_1_Start
 878              	.LVL88:
 879              	.L66:
  70:main.c        **** 		if ((I2C_1_MasterStatus() & I2C_1_MSTAT_WR_CMPLT)) break;
 880              		.loc 2 70 0 discriminator 2
 881 00a0 0134     		adds	r4, r4, #1
 882              	.LVL89:
 883              	.L64:
  70:main.c        **** 		if ((I2C_1_MasterStatus() & I2C_1_MSTAT_WR_CMPLT)) break;
ARM GAS  C:\Users\FRANKL~1\AppData\Local\Temp\ccPy0viy.s 			page 34


 884              		.loc 2 70 0 is_stmt 0 discriminator 1
 885 00a2 2046     		mov	r0, r4
 886 00a4 FFF7FEFF 		bl	__aeabi_ui2d
 887              	.LVL90:
 888 00a8 0646     		mov	r6, r0
 889 00aa 0F46     		mov	r7, r1
 890 00ac 2EA3     		adr	r3, .L74+8
 891 00ae D3E90023 		ldrd	r2, [r3]
 892 00b2 FFF7FEFF 		bl	__aeabi_dcmplt
 893              	.LVL91:
 894 00b6 0028     		cmp	r0, #0
 895 00b8 C6D1     		bne	.L69
 896              	.L65:
 897              	.LBE12:
  92:main.c        **** 		sprintf(TransmitBuffer, "I2C Transfer Error! ");
 898              		.loc 2 92 0 is_stmt 1
 899 00ba FFF7FEFF 		bl	I2C_1_MasterStatus
 900              	.LVL92:
 901 00be 10F0800F 		tst	r0, #128
 902 00c2 39D0     		beq	.L70
  93:main.c        **** 		USBUARTH_Send(TransmitBuffer, strlen(TransmitBuffer));
 903              		.loc 2 93 0
 904 00c4 2A4C     		ldr	r4, .L74+16
 905              	.LVL93:
 906 00c6 2E4D     		ldr	r5, .L74+32
 907 00c8 0FCD     		ldmia	r5!, {r0, r1, r2, r3}
 908 00ca 2060     		str	r0, [r4]	@ unaligned
 909 00cc 6160     		str	r1, [r4, #4]	@ unaligned
 910 00ce A260     		str	r2, [r4, #8]	@ unaligned
 911 00d0 E360     		str	r3, [r4, #12]	@ unaligned
 912 00d2 2868     		ldr	r0, [r5]	@ unaligned
 913 00d4 2061     		str	r0, [r4, #16]	@ unaligned
 914 00d6 2B79     		ldrb	r3, [r5, #4]	@ zero_extendqisi2
 915 00d8 2375     		strb	r3, [r4, #20]
  94:main.c        **** 		UART_1_PutString(TransmitBuffer);
 916              		.loc 2 94 0
 917 00da 2046     		mov	r0, r4
 918 00dc FFF7FEFF 		bl	strlen
 919              	.LVL94:
 920 00e0 81B2     		uxth	r1, r0
 921 00e2 2046     		mov	r0, r4
 922 00e4 FFF7FEFF 		bl	USBUARTH_Send
 923              	.LVL95:
  95:main.c        **** 		
 924              		.loc 2 95 0
 925 00e8 2046     		mov	r0, r4
 926 00ea FFF7FEFF 		bl	UART_1_PutString
 927              	.LVL96:
  97:main.c        **** 			sprintf(TransmitBuffer, "Type: NAK");
 928              		.loc 2 97 0
 929 00ee FFF7FEFF 		bl	I2C_1_MasterStatus
 930              	.LVL97:
 931 00f2 10F0200F 		tst	r0, #32
 932 00f6 0FD0     		beq	.L71
  98:main.c        **** 			USBUARTH_Send(TransmitBuffer, strlen(TransmitBuffer));
 933              		.loc 2 98 0
 934 00f8 224B     		ldr	r3, .L74+36
ARM GAS  C:\Users\FRANKL~1\AppData\Local\Temp\ccPy0viy.s 			page 35


 935 00fa 03CB     		ldmia	r3!, {r0, r1}
 936 00fc 2060     		str	r0, [r4]	@ unaligned
 937 00fe 6160     		str	r1, [r4, #4]	@ unaligned
 938 0100 1B88     		ldrh	r3, [r3]	@ unaligned
 939 0102 2381     		strh	r3, [r4, #8]	@ unaligned
  99:main.c        **** 			UART_1_PutString(TransmitBuffer);
 940              		.loc 2 99 0
 941 0104 2046     		mov	r0, r4
 942 0106 FFF7FEFF 		bl	strlen
 943              	.LVL98:
 944 010a 81B2     		uxth	r1, r0
 945 010c 2046     		mov	r0, r4
 946 010e FFF7FEFF 		bl	USBUARTH_Send
 947              	.LVL99:
 100:main.c        **** 		}
 948              		.loc 2 100 0
 949 0112 2046     		mov	r0, r4
 950 0114 FFF7FEFF 		bl	UART_1_PutString
 951              	.LVL100:
 952              	.L71:
 103:main.c        **** 		USBUARTH_Send(TransmitBuffer, strlen(TransmitBuffer));
 953              		.loc 2 103 0
 954 0118 154C     		ldr	r4, .L74+16
 955 011a 1B4B     		ldr	r3, .L74+40
 956 011c 1A88     		ldrh	r2, [r3]	@ unaligned
 957 011e 9B78     		ldrb	r3, [r3, #2]	@ zero_extendqisi2
 958 0120 2280     		strh	r2, [r4]	@ unaligned
 959 0122 A370     		strb	r3, [r4, #2]
 104:main.c        **** 		UART_1_PutString(TransmitBuffer);
 960              		.loc 2 104 0
 961 0124 2046     		mov	r0, r4
 962 0126 FFF7FEFF 		bl	strlen
 963              	.LVL101:
 964 012a 81B2     		uxth	r1, r0
 965 012c 2046     		mov	r0, r4
 966 012e FFF7FEFF 		bl	USBUARTH_Send
 967              	.LVL102:
 105:main.c        **** 	}
 968              		.loc 2 105 0
 969 0132 2046     		mov	r0, r4
 970 0134 FFF7FEFF 		bl	UART_1_PutString
 971              	.LVL103:
 972              	.L70:
 108:main.c        **** 	USBUARTH_Send(TransmitBuffer, strlen(TransmitBuffer));
 973              		.loc 2 108 0
 974 0138 0D4C     		ldr	r4, .L74+16
 975 013a 4246     		mov	r2, r8
 976 013c 1349     		ldr	r1, .L74+44
 977 013e 2046     		mov	r0, r4
 978 0140 FFF7FEFF 		bl	sprintf
 979              	.LVL104:
 109:main.c        **** 	UART_1_PutString(TransmitBuffer);
 980              		.loc 2 109 0
 981 0144 2046     		mov	r0, r4
 982 0146 FFF7FEFF 		bl	strlen
 983              	.LVL105:
 984 014a 81B2     		uxth	r1, r0
ARM GAS  C:\Users\FRANKL~1\AppData\Local\Temp\ccPy0viy.s 			page 36


 985 014c 2046     		mov	r0, r4
 986 014e FFF7FEFF 		bl	USBUARTH_Send
 987              	.LVL106:
 110:main.c        **** }
 988              		.loc 2 110 0
 989 0152 2046     		mov	r0, r4
 990 0154 FFF7FEFF 		bl	UART_1_PutString
 991              	.LVL107:
 992 0158 BDE8F081 		pop	{r4, r5, r6, r7, r8, pc}
 993              	.LVL108:
 994              	.L75:
 995 015c AFF30080 		.align	3
 996              	.L74:
 997 0160 00000000 		.word	0
 998 0164 FC691841 		.word	1092119036
 999 0168 00000000 		.word	0
 1000 016c 006A1841 		.word	1092119040
 1001 0170 00000000 		.word	TransmitBuffer
 1002 0174 2C000000 		.word	.LC5
 1003 0178 00000000 		.word	selectors
 1004 017c 44000000 		.word	.LC6
 1005 0180 68000000 		.word	.LC7
 1006 0184 80000000 		.word	.LC8
 1007 0188 8C000000 		.word	.LC9
 1008 018c 90000000 		.word	.LC10
 1009              		.cfi_endproc
 1010              	.LFE71:
 1011              		.size	Update_Selector, .-Update_Selector
 1012              		.global	__aeabi_ui2f
 1013              		.global	__aeabi_fdiv
 1014              		.global	__aeabi_i2f
 1015              		.global	__aeabi_fmul
 1016              		.global	__aeabi_fadd
 1017              		.global	__aeabi_f2iz
 1018              		.global	__aeabi_fsub
 1019              		.section	.text.ADC_Measure_uV,"ax",%progbits
 1020              		.align	2
 1021              		.global	ADC_Measure_uV
 1022              		.thumb
 1023              		.thumb_func
 1024              		.type	ADC_Measure_uV, %function
 1025              	ADC_Measure_uV:
 1026              	.LFB72:
 114:main.c        **** 	int32 ADC_Result = 0;
 1027              		.loc 2 114 0
 1028              		.cfi_startproc
 1029              		@ args = 0, pretend = 0, frame = 8
 1030              		@ frame_needed = 0, uses_anonymous_args = 0
 1031              	.LVL109:
 1032 0000 2DE9F04F 		push	{r4, r5, r6, r7, r8, r9, r10, fp, lr}
 1033              		.cfi_def_cfa_offset 36
 1034              		.cfi_offset 4, -36
 1035              		.cfi_offset 5, -32
 1036              		.cfi_offset 6, -28
 1037              		.cfi_offset 7, -24
 1038              		.cfi_offset 8, -20
 1039              		.cfi_offset 9, -16
ARM GAS  C:\Users\FRANKL~1\AppData\Local\Temp\ccPy0viy.s 			page 37


 1040              		.cfi_offset 10, -12
 1041              		.cfi_offset 11, -8
 1042              		.cfi_offset 14, -4
 1043 0004 83B0     		sub	sp, sp, #12
 1044              		.cfi_def_cfa_offset 48
 1045 0006 0090     		str	r0, [sp]
 1046 0008 0191     		str	r1, [sp, #4]
 1047 000a 9346     		mov	fp, r2
 1048              	.LVL110:
 1049              	.LBB13:
 118:main.c        **** 		ADC_DelSig_1_StartConvert();
 1050              		.loc 2 118 0
 1051 000c 0124     		movs	r4, #1
 1052              	.LBE13:
 116:main.c        **** 	
 1053              		.loc 2 116 0
 1054 000e 4FF00009 		mov	r9, #0
 115:main.c        **** 	int32 ADC_SD = 0;
 1055              		.loc 2 115 0
 1056 0012 4D46     		mov	r5, r9
 1057              	.LBB15:
 118:main.c        **** 		ADC_DelSig_1_StartConvert();
 1058              		.loc 2 118 0
 1059 0014 45E0     		b	.L77
 1060              	.LVL111:
 1061              	.L79:
 1062              	.LBB14:
 119:main.c        **** 		while (!ADC_DelSig_1_IsEndConversion(ADC_DelSig_1_RETURN_STATUS));
 1063              		.loc 2 119 0
 1064 0016 FFF7FEFF 		bl	ADC_DelSig_1_StartConvert
 1065              	.LVL112:
 1066              	.L78:
 120:main.c        **** 		//int16 ADC_Result = ADC_DelSig_1_CountsTo_mVolts(ADC_DelSig_1_GetResult16());
 1067              		.loc 2 120 0 discriminator 1
 1068 001a 0120     		movs	r0, #1
 1069 001c FFF7FEFF 		bl	ADC_DelSig_1_IsEndConversion
 1070              	.LVL113:
 1071 0020 0028     		cmp	r0, #0
 1072 0022 FAD0     		beq	.L78
 122:main.c        **** 		
 1073              		.loc 2 122 0 discriminator 2
 1074 0024 FFF7FEFF 		bl	ADC_DelSig_1_GetResult32
 1075              	.LVL114:
 1076 0028 FFF7FEFF 		bl	ADC_DelSig_1_CountsTo_uVolts
 1077              	.LVL115:
 1078 002c 0746     		mov	r7, r0
 1079              	.LVL116:
 124:main.c        **** 		ADC_Result += ((float)ADC_Result_Current - (float)ADC_Result)/(float)i;
 1080              		.loc 2 124 0 discriminator 2
 1081 002e 601E     		subs	r0, r4, #1
 1082              	.LVL117:
 1083 0030 FFF7FEFF 		bl	__aeabi_ui2f
 1084              	.LVL118:
 1085 0034 8046     		mov	r8, r0
 1086 0036 2046     		mov	r0, r4
 1087 0038 FFF7FEFF 		bl	__aeabi_ui2f
 1088              	.LVL119:
ARM GAS  C:\Users\FRANKL~1\AppData\Local\Temp\ccPy0viy.s 			page 38


 1089 003c 0646     		mov	r6, r0
 1090 003e 0146     		mov	r1, r0
 1091 0040 4046     		mov	r0, r8
 1092 0042 FFF7FEFF 		bl	__aeabi_fdiv
 1093              	.LVL120:
 1094 0046 8246     		mov	r10, r0
 1095 0048 781B     		subs	r0, r7, r5
 1096 004a FFF7FEFF 		bl	__aeabi_i2f
 1097              	.LVL121:
 1098 004e 8046     		mov	r8, r0
 1099 0050 0146     		mov	r1, r0
 1100 0052 5046     		mov	r0, r10
 1101 0054 FFF7FEFF 		bl	__aeabi_fmul
 1102              	.LVL122:
 1103 0058 0146     		mov	r1, r0
 1104 005a 4046     		mov	r0, r8
 1105 005c FFF7FEFF 		bl	__aeabi_fmul
 1106              	.LVL123:
 1107 0060 8046     		mov	r8, r0
 1108 0062 4846     		mov	r0, r9
 1109 0064 FFF7FEFF 		bl	__aeabi_i2f
 1110              	.LVL124:
 1111 0068 4146     		mov	r1, r8
 1112 006a FFF7FEFF 		bl	__aeabi_fadd
 1113              	.LVL125:
 1114 006e FFF7FEFF 		bl	__aeabi_f2iz
 1115              	.LVL126:
 1116 0072 8146     		mov	r9, r0
 1117              	.LVL127:
 125:main.c        **** 	}
 1118              		.loc 2 125 0 discriminator 2
 1119 0074 3846     		mov	r0, r7
 1120              	.LVL128:
 1121 0076 FFF7FEFF 		bl	__aeabi_i2f
 1122              	.LVL129:
 1123 007a 0746     		mov	r7, r0
 1124              	.LVL130:
 1125 007c 2846     		mov	r0, r5
 1126 007e FFF7FEFF 		bl	__aeabi_i2f
 1127              	.LVL131:
 1128 0082 0546     		mov	r5, r0
 1129              	.LVL132:
 1130 0084 0146     		mov	r1, r0
 1131 0086 3846     		mov	r0, r7
 1132 0088 FFF7FEFF 		bl	__aeabi_fsub
 1133              	.LVL133:
 1134 008c 3146     		mov	r1, r6
 1135 008e FFF7FEFF 		bl	__aeabi_fdiv
 1136              	.LVL134:
 1137 0092 0146     		mov	r1, r0
 1138 0094 2846     		mov	r0, r5
 1139 0096 FFF7FEFF 		bl	__aeabi_fadd
 1140              	.LVL135:
 1141 009a FFF7FEFF 		bl	__aeabi_f2iz
 1142              	.LVL136:
 1143 009e 0546     		mov	r5, r0
 1144              	.LVL137:
ARM GAS  C:\Users\FRANKL~1\AppData\Local\Temp\ccPy0viy.s 			page 39


 1145              	.LBE14:
 118:main.c        **** 		ADC_DelSig_1_StartConvert();
 1146              		.loc 2 118 0 discriminator 2
 1147 00a0 0134     		adds	r4, r4, #1
 1148              	.LVL138:
 1149              	.L77:
 118:main.c        **** 		ADC_DelSig_1_StartConvert();
 1150              		.loc 2 118 0 is_stmt 0 discriminator 1
 1151 00a2 5C45     		cmp	r4, fp
 1152 00a4 B7D3     		bcc	.L79
 1153              	.LBE15:
 128:main.c        **** 	*standardDeviation = ADC_SD;
 1154              		.loc 2 128 0 is_stmt 1
 1155 00a6 009B     		ldr	r3, [sp]
 1156 00a8 1D60     		str	r5, [r3]
 129:main.c        **** }
 1157              		.loc 2 129 0
 1158 00aa 019B     		ldr	r3, [sp, #4]
 1159 00ac C3F80090 		str	r9, [r3]
 130:main.c        **** 
 1160              		.loc 2 130 0
 1161 00b0 03B0     		add	sp, sp, #12
 1162              		.cfi_def_cfa_offset 36
 1163              	.LVL139:
 1164              		@ sp needed
 1165 00b2 BDE8F08F 		pop	{r4, r5, r6, r7, r8, r9, r10, fp, pc}
 1166              		.cfi_endproc
 1167              	.LFE72:
 1168              		.size	ADC_Measure_uV, .-ADC_Measure_uV
 1169 00b6 00BF     		.section	.text.SAR1_Measure_V,"ax",%progbits
 1170              		.align	2
 1171              		.global	SAR1_Measure_V
 1172              		.thumb
 1173              		.thumb_func
 1174              		.type	SAR1_Measure_V, %function
 1175              	SAR1_Measure_V:
 1176              	.LFB73:
 132:main.c        **** 	float SAR_Result = 0;
 1177              		.loc 2 132 0
 1178              		.cfi_startproc
 1179              		@ args = 0, pretend = 0, frame = 8
 1180              		@ frame_needed = 0, uses_anonymous_args = 0
 1181              	.LVL140:
 1182 0000 2DE9F04F 		push	{r4, r5, r6, r7, r8, r9, r10, fp, lr}
 1183              		.cfi_def_cfa_offset 36
 1184              		.cfi_offset 4, -36
 1185              		.cfi_offset 5, -32
 1186              		.cfi_offset 6, -28
 1187              		.cfi_offset 7, -24
 1188              		.cfi_offset 8, -20
 1189              		.cfi_offset 9, -16
 1190              		.cfi_offset 10, -12
 1191              		.cfi_offset 11, -8
 1192              		.cfi_offset 14, -4
 1193 0004 83B0     		sub	sp, sp, #12
 1194              		.cfi_def_cfa_offset 48
 1195 0006 8346     		mov	fp, r0
ARM GAS  C:\Users\FRANKL~1\AppData\Local\Temp\ccPy0viy.s 			page 40


 1196 0008 0191     		str	r1, [sp, #4]
 1197 000a 9246     		mov	r10, r2
 1198              	.LVL141:
 1199              	.LBB16:
 136:main.c        **** 		ADC_SAR_1_StartConvert();
 1200              		.loc 2 136 0
 1201 000c 0124     		movs	r4, #1
 1202              	.LBE16:
 134:main.c        **** 	
 1203              		.loc 2 134 0
 1204 000e 4FF00008 		mov	r8, #0
 133:main.c        **** 	float SAR_SD = 0;
 1205              		.loc 2 133 0
 1206 0012 4646     		mov	r6, r8
 1207              	.LBB18:
 136:main.c        **** 		ADC_SAR_1_StartConvert();
 1208              		.loc 2 136 0
 1209 0014 34E0     		b	.L82
 1210              	.LVL142:
 1211              	.L84:
 1212              	.LBB17:
 137:main.c        **** 		while (!ADC_SAR_1_IsEndConversion(ADC_SAR_1_RETURN_STATUS));
 1213              		.loc 2 137 0
 1214 0016 FFF7FEFF 		bl	ADC_SAR_1_StartConvert
 1215              	.LVL143:
 1216              	.L83:
 138:main.c        **** 		
 1217              		.loc 2 138 0 discriminator 1
 1218 001a 0120     		movs	r0, #1
 1219 001c FFF7FEFF 		bl	ADC_SAR_1_IsEndConversion
 1220              	.LVL144:
 1221 0020 0028     		cmp	r0, #0
 1222 0022 FAD0     		beq	.L83
 140:main.c        **** 		
 1223              		.loc 2 140 0 discriminator 2
 1224 0024 FFF7FEFF 		bl	ADC_SAR_1_GetResult16
 1225              	.LVL145:
 1226 0028 FFF7FEFF 		bl	ADC_SAR_1_CountsTo_Volts
 1227              	.LVL146:
 1228 002c 0546     		mov	r5, r0
 1229              	.LVL147:
 142:main.c        **** 		SAR_Result += ((float)SAR1_Result_Current - (float)SAR_Result)/(float)i;
 1230              		.loc 2 142 0 discriminator 2
 1231 002e 601E     		subs	r0, r4, #1
 1232              	.LVL148:
 1233 0030 FFF7FEFF 		bl	__aeabi_ui2f
 1234              	.LVL149:
 1235 0034 8146     		mov	r9, r0
 1236 0036 2046     		mov	r0, r4
 1237 0038 FFF7FEFF 		bl	__aeabi_ui2f
 1238              	.LVL150:
 1239 003c 0746     		mov	r7, r0
 1240 003e 0146     		mov	r1, r0
 1241 0040 4846     		mov	r0, r9
 1242 0042 FFF7FEFF 		bl	__aeabi_fdiv
 1243              	.LVL151:
 1244 0046 8146     		mov	r9, r0
ARM GAS  C:\Users\FRANKL~1\AppData\Local\Temp\ccPy0viy.s 			page 41


 1245 0048 3146     		mov	r1, r6
 1246 004a 2846     		mov	r0, r5
 1247 004c FFF7FEFF 		bl	__aeabi_fsub
 1248              	.LVL152:
 1249 0050 0546     		mov	r5, r0
 1250              	.LVL153:
 1251 0052 0146     		mov	r1, r0
 1252 0054 4846     		mov	r0, r9
 1253 0056 FFF7FEFF 		bl	__aeabi_fmul
 1254              	.LVL154:
 1255 005a 0146     		mov	r1, r0
 1256 005c 2846     		mov	r0, r5
 1257 005e FFF7FEFF 		bl	__aeabi_fmul
 1258              	.LVL155:
 1259 0062 0146     		mov	r1, r0
 1260 0064 4046     		mov	r0, r8
 1261 0066 FFF7FEFF 		bl	__aeabi_fadd
 1262              	.LVL156:
 1263 006a 8046     		mov	r8, r0
 1264              	.LVL157:
 143:main.c        **** 	}
 1265              		.loc 2 143 0 discriminator 2
 1266 006c 3946     		mov	r1, r7
 1267 006e 2846     		mov	r0, r5
 1268              	.LVL158:
 1269 0070 FFF7FEFF 		bl	__aeabi_fdiv
 1270              	.LVL159:
 1271 0074 0146     		mov	r1, r0
 1272 0076 3046     		mov	r0, r6
 1273 0078 FFF7FEFF 		bl	__aeabi_fadd
 1274              	.LVL160:
 1275 007c 0646     		mov	r6, r0
 1276              	.LVL161:
 1277              	.LBE17:
 136:main.c        **** 		ADC_SAR_1_StartConvert();
 1278              		.loc 2 136 0 discriminator 2
 1279 007e 0134     		adds	r4, r4, #1
 1280              	.LVL162:
 1281              	.L82:
 136:main.c        **** 		ADC_SAR_1_StartConvert();
 1282              		.loc 2 136 0 is_stmt 0 discriminator 1
 1283 0080 5445     		cmp	r4, r10
 1284 0082 C8D3     		bcc	.L84
 1285              	.LBE18:
 146:main.c        **** 	*standardDeviation = SAR_SD;
 1286              		.loc 2 146 0 is_stmt 1
 1287 0084 CBF80060 		str	r6, [fp]	@ float
 147:main.c        **** }
 1288              		.loc 2 147 0
 1289 0088 019B     		ldr	r3, [sp, #4]
 1290 008a C3F80080 		str	r8, [r3]	@ float
 148:main.c        **** 
 1291              		.loc 2 148 0
 1292 008e 03B0     		add	sp, sp, #12
 1293              		.cfi_def_cfa_offset 36
 1294              		@ sp needed
 1295 0090 BDE8F08F 		pop	{r4, r5, r6, r7, r8, r9, r10, fp, pc}
ARM GAS  C:\Users\FRANKL~1\AppData\Local\Temp\ccPy0viy.s 			page 42


 1296              		.cfi_endproc
 1297              	.LFE73:
 1298              		.size	SAR1_Measure_V, .-SAR1_Measure_V
 1299              		.section	.text.SAR2_Measure_V,"ax",%progbits
 1300              		.align	2
 1301              		.global	SAR2_Measure_V
 1302              		.thumb
 1303              		.thumb_func
 1304              		.type	SAR2_Measure_V, %function
 1305              	SAR2_Measure_V:
 1306              	.LFB74:
 150:main.c        **** 	float SAR_Result = 0;
 1307              		.loc 2 150 0
 1308              		.cfi_startproc
 1309              		@ args = 0, pretend = 0, frame = 8
 1310              		@ frame_needed = 0, uses_anonymous_args = 0
 1311              	.LVL163:
 1312 0000 2DE9F04F 		push	{r4, r5, r6, r7, r8, r9, r10, fp, lr}
 1313              		.cfi_def_cfa_offset 36
 1314              		.cfi_offset 4, -36
 1315              		.cfi_offset 5, -32
 1316              		.cfi_offset 6, -28
 1317              		.cfi_offset 7, -24
 1318              		.cfi_offset 8, -20
 1319              		.cfi_offset 9, -16
 1320              		.cfi_offset 10, -12
 1321              		.cfi_offset 11, -8
 1322              		.cfi_offset 14, -4
 1323 0004 83B0     		sub	sp, sp, #12
 1324              		.cfi_def_cfa_offset 48
 1325 0006 8346     		mov	fp, r0
 1326 0008 0191     		str	r1, [sp, #4]
 1327 000a 9246     		mov	r10, r2
 1328              	.LVL164:
 1329              	.LBB19:
 154:main.c        **** 		ADC_SAR_2_StartConvert();
 1330              		.loc 2 154 0
 1331 000c 0124     		movs	r4, #1
 1332              	.LBE19:
 152:main.c        **** 	
 1333              		.loc 2 152 0
 1334 000e 4FF00008 		mov	r8, #0
 151:main.c        **** 	float SAR_SD = 0;
 1335              		.loc 2 151 0
 1336 0012 4646     		mov	r6, r8
 1337              	.LBB21:
 154:main.c        **** 		ADC_SAR_2_StartConvert();
 1338              		.loc 2 154 0
 1339 0014 34E0     		b	.L87
 1340              	.LVL165:
 1341              	.L89:
 1342              	.LBB20:
 155:main.c        **** 		while (!ADC_SAR_2_IsEndConversion(ADC_SAR_2_RETURN_STATUS));
 1343              		.loc 2 155 0
 1344 0016 FFF7FEFF 		bl	ADC_SAR_2_StartConvert
 1345              	.LVL166:
 1346              	.L88:
ARM GAS  C:\Users\FRANKL~1\AppData\Local\Temp\ccPy0viy.s 			page 43


 156:main.c        **** 		
 1347              		.loc 2 156 0 discriminator 1
 1348 001a 0120     		movs	r0, #1
 1349 001c FFF7FEFF 		bl	ADC_SAR_2_IsEndConversion
 1350              	.LVL167:
 1351 0020 0028     		cmp	r0, #0
 1352 0022 FAD0     		beq	.L88
 158:main.c        **** 		
 1353              		.loc 2 158 0 discriminator 2
 1354 0024 FFF7FEFF 		bl	ADC_SAR_2_GetResult16
 1355              	.LVL168:
 1356 0028 FFF7FEFF 		bl	ADC_SAR_2_CountsTo_Volts
 1357              	.LVL169:
 1358 002c 0546     		mov	r5, r0
 1359              	.LVL170:
 160:main.c        **** 		SAR_Result += ((float)SAR2_Result_Current - (float)SAR_Result)/(float)i;
 1360              		.loc 2 160 0 discriminator 2
 1361 002e 601E     		subs	r0, r4, #1
 1362              	.LVL171:
 1363 0030 FFF7FEFF 		bl	__aeabi_ui2f
 1364              	.LVL172:
 1365 0034 8146     		mov	r9, r0
 1366 0036 2046     		mov	r0, r4
 1367 0038 FFF7FEFF 		bl	__aeabi_ui2f
 1368              	.LVL173:
 1369 003c 0746     		mov	r7, r0
 1370 003e 0146     		mov	r1, r0
 1371 0040 4846     		mov	r0, r9
 1372 0042 FFF7FEFF 		bl	__aeabi_fdiv
 1373              	.LVL174:
 1374 0046 8146     		mov	r9, r0
 1375 0048 3146     		mov	r1, r6
 1376 004a 2846     		mov	r0, r5
 1377 004c FFF7FEFF 		bl	__aeabi_fsub
 1378              	.LVL175:
 1379 0050 0546     		mov	r5, r0
 1380              	.LVL176:
 1381 0052 0146     		mov	r1, r0
 1382 0054 4846     		mov	r0, r9
 1383 0056 FFF7FEFF 		bl	__aeabi_fmul
 1384              	.LVL177:
 1385 005a 0146     		mov	r1, r0
 1386 005c 2846     		mov	r0, r5
 1387 005e FFF7FEFF 		bl	__aeabi_fmul
 1388              	.LVL178:
 1389 0062 0146     		mov	r1, r0
 1390 0064 4046     		mov	r0, r8
 1391 0066 FFF7FEFF 		bl	__aeabi_fadd
 1392              	.LVL179:
 1393 006a 8046     		mov	r8, r0
 1394              	.LVL180:
 161:main.c        **** 	}
 1395              		.loc 2 161 0 discriminator 2
 1396 006c 3946     		mov	r1, r7
 1397 006e 2846     		mov	r0, r5
 1398              	.LVL181:
 1399 0070 FFF7FEFF 		bl	__aeabi_fdiv
ARM GAS  C:\Users\FRANKL~1\AppData\Local\Temp\ccPy0viy.s 			page 44


 1400              	.LVL182:
 1401 0074 0146     		mov	r1, r0
 1402 0076 3046     		mov	r0, r6
 1403 0078 FFF7FEFF 		bl	__aeabi_fadd
 1404              	.LVL183:
 1405 007c 0646     		mov	r6, r0
 1406              	.LVL184:
 1407              	.LBE20:
 154:main.c        **** 		ADC_SAR_2_StartConvert();
 1408              		.loc 2 154 0 discriminator 2
 1409 007e 0134     		adds	r4, r4, #1
 1410              	.LVL185:
 1411              	.L87:
 154:main.c        **** 		ADC_SAR_2_StartConvert();
 1412              		.loc 2 154 0 is_stmt 0 discriminator 1
 1413 0080 5445     		cmp	r4, r10
 1414 0082 C8D3     		bcc	.L89
 1415              	.LBE21:
 164:main.c        **** 	*standardDeviation = SAR_SD;
 1416              		.loc 2 164 0 is_stmt 1
 1417 0084 CBF80060 		str	r6, [fp]	@ float
 165:main.c        **** }
 1418              		.loc 2 165 0
 1419 0088 019B     		ldr	r3, [sp, #4]
 1420 008a C3F80080 		str	r8, [r3]	@ float
 166:main.c        **** 
 1421              		.loc 2 166 0
 1422 008e 03B0     		add	sp, sp, #12
 1423              		.cfi_def_cfa_offset 36
 1424              		@ sp needed
 1425 0090 BDE8F08F 		pop	{r4, r5, r6, r7, r8, r9, r10, fp, pc}
 1426              		.cfi_endproc
 1427              	.LFE74:
 1428              		.size	SAR2_Measure_V, .-SAR2_Measure_V
 1429              		.section	.text.Measure_Sweep,"ax",%progbits
 1430              		.align	2
 1431              		.global	Measure_Sweep
 1432              		.thumb
 1433              		.thumb_func
 1434              		.type	Measure_Sweep, %function
 1435              	Measure_Sweep:
 1436              	.LFB75:
 168:main.c        **** 	VDAC_Vds_SetValue(90);
 1437              		.loc 2 168 0
 1438              		.cfi_startproc
 1439              		@ args = 0, pretend = 0, frame = 8
 1440              		@ frame_needed = 0, uses_anonymous_args = 0
 1441 0000 30B5     		push	{r4, r5, lr}
 1442              		.cfi_def_cfa_offset 12
 1443              		.cfi_offset 4, -12
 1444              		.cfi_offset 5, -8
 1445              		.cfi_offset 14, -4
 1446 0002 83B0     		sub	sp, sp, #12
 1447              		.cfi_def_cfa_offset 24
 169:main.c        **** 	VDAC_Vgs_SetValue(254);
 1448              		.loc 2 169 0
 1449 0004 5A20     		movs	r0, #90
ARM GAS  C:\Users\FRANKL~1\AppData\Local\Temp\ccPy0viy.s 			page 45


 1450 0006 FFF7FEFF 		bl	VDAC_Vds_SetValue
 1451              	.LVL186:
 170:main.c        **** 	
 1452              		.loc 2 170 0
 1453 000a FE20     		movs	r0, #254
 1454 000c FFF7FEFF 		bl	VDAC_Vgs_SetValue
 1455              	.LVL187:
 1456              	.LBB22:
 172:main.c        **** 		int32 IdsAverage = 0;
 1457              		.loc 2 172 0
 1458 0010 0024     		movs	r4, #0
 1459 0012 1EE0     		b	.L92
 1460              	.LVL188:
 1461              	.L93:
 1462              	.LBB23:
 173:main.c        **** 		int32 IdsStandardDeviation = 0;
 1463              		.loc 2 173 0 discriminator 3
 1464 0014 0023     		movs	r3, #0
 1465 0016 0093     		str	r3, [sp]
 174:main.c        **** 		
 1466              		.loc 2 174 0 discriminator 3
 1467 0018 02AD     		add	r5, sp, #8
 1468 001a 45F8043D 		str	r3, [r5, #-4]!
 176:main.c        **** 		
 1469              		.loc 2 176 0 discriminator 3
 1470 001e E0B2     		uxtb	r0, r4
 1471 0020 FFF7FEFF 		bl	VDAC_Vgs_SetValue
 1472              	.LVL189:
 178:main.c        **** 		
 1473              		.loc 2 178 0 discriminator 3
 1474 0024 6422     		movs	r2, #100
 1475 0026 2946     		mov	r1, r5
 1476 0028 6846     		mov	r0, sp
 1477 002a FFF7FEFF 		bl	ADC_Measure_uV
 1478              	.LVL190:
 182:main.c        **** 		USBUARTH_Send(TransmitBuffer, strlen(TransmitBuffer));
 1479              		.loc 2 182 0 discriminator 3
 1480 002e 0B4D     		ldr	r5, .L95
 1481 0030 009A     		ldr	r2, [sp]
 1482 0032 0B49     		ldr	r1, .L95+4
 1483 0034 2846     		mov	r0, r5
 1484 0036 FFF7FEFF 		bl	sprintf
 1485              	.LVL191:
 183:main.c        **** 		UART_1_PutString(TransmitBuffer);
 1486              		.loc 2 183 0 discriminator 3
 1487 003a 2846     		mov	r0, r5
 1488 003c FFF7FEFF 		bl	strlen
 1489              	.LVL192:
 1490 0040 81B2     		uxth	r1, r0
 1491 0042 2846     		mov	r0, r5
 1492 0044 FFF7FEFF 		bl	USBUARTH_Send
 1493              	.LVL193:
 184:main.c        **** 	}
 1494              		.loc 2 184 0 discriminator 3
 1495 0048 2846     		mov	r0, r5
 1496 004a FFF7FEFF 		bl	UART_1_PutString
 1497              	.LVL194:
ARM GAS  C:\Users\FRANKL~1\AppData\Local\Temp\ccPy0viy.s 			page 46


 1498              	.LBE23:
 172:main.c        **** 		int32 IdsAverage = 0;
 1499              		.loc 2 172 0 discriminator 3
 1500 004e 0134     		adds	r4, r4, #1
 1501              	.LVL195:
 1502 0050 A4B2     		uxth	r4, r4
 1503              	.LVL196:
 1504              	.L92:
 172:main.c        **** 		int32 IdsAverage = 0;
 1505              		.loc 2 172 0 is_stmt 0 discriminator 1
 1506 0052 FF2C     		cmp	r4, #255
 1507 0054 DED9     		bls	.L93
 1508              	.LBE22:
 186:main.c        **** 
 1509              		.loc 2 186 0 is_stmt 1
 1510 0056 03B0     		add	sp, sp, #12
 1511              		.cfi_def_cfa_offset 12
 1512              		@ sp needed
 1513 0058 30BD     		pop	{r4, r5, pc}
 1514              	.LVL197:
 1515              	.L96:
 1516 005a 00BF     		.align	2
 1517              	.L95:
 1518 005c 00000000 		.word	TransmitBuffer
 1519 0060 A8000000 		.word	.LC11
 1520              		.cfi_endproc
 1521              	.LFE75:
 1522              		.size	Measure_Sweep, .-Measure_Sweep
 1523              		.section	.text.Setup_Selectors,"ax",%progbits
 1524              		.align	2
 1525              		.global	Setup_Selectors
 1526              		.thumb
 1527              		.thumb_func
 1528              		.type	Setup_Selectors, %function
 1529              	Setup_Selectors:
 1530              	.LFB76:
 188:main.c        **** 	for (uint8 i = 0; i < SELECTOR_COUNT; i++) Setup_Selector_I2C_Struct(&selectors[i]);
 1531              		.loc 2 188 0
 1532              		.cfi_startproc
 1533              		@ args = 0, pretend = 0, frame = 0
 1534              		@ frame_needed = 0, uses_anonymous_args = 0
 1535 0000 10B5     		push	{r4, lr}
 1536              		.cfi_def_cfa_offset 8
 1537              		.cfi_offset 4, -8
 1538              		.cfi_offset 14, -4
 1539              	.LVL198:
 1540              	.LBB24:
 189:main.c        **** 	
 1541              		.loc 2 189 0
 1542 0002 0024     		movs	r4, #0
 1543 0004 07E0     		b	.L98
 1544              	.LVL199:
 1545              	.L99:
 189:main.c        **** 	
 1546              		.loc 2 189 0 is_stmt 0 discriminator 3
 1547 0006 C4EB0423 		rsb	r3, r4, r4, lsl #8
 1548 000a 0B48     		ldr	r0, .L101
ARM GAS  C:\Users\FRANKL~1\AppData\Local\Temp\ccPy0viy.s 			page 47


 1549 000c 1844     		add	r0, r0, r3
 1550 000e FFF7FEFF 		bl	Setup_Selector_I2C_Struct
 1551              	.LVL200:
 1552 0012 0134     		adds	r4, r4, #1
 1553              	.LVL201:
 1554 0014 E4B2     		uxtb	r4, r4
 1555              	.LVL202:
 1556              	.L98:
 189:main.c        **** 	
 1557              		.loc 2 189 0 discriminator 1
 1558 0016 032C     		cmp	r4, #3
 1559 0018 F5D9     		bls	.L99
 1560              	.LBE24:
 191:main.c        **** 	selectors[1].busAddress = 0x11;
 1561              		.loc 2 191 0 is_stmt 1
 1562 001a 074B     		ldr	r3, .L101
 1563 001c 6622     		movs	r2, #102
 1564 001e 83F8FE20 		strb	r2, [r3, #254]
 192:main.c        **** 	selectors[2].busAddress = 0x44;
 1565              		.loc 2 192 0
 1566 0022 1122     		movs	r2, #17
 1567 0024 83F8FD21 		strb	r2, [r3, #509]
 193:main.c        **** 	selectors[3].busAddress = 0x22;
 1568              		.loc 2 193 0
 1569 0028 4422     		movs	r2, #68
 1570 002a 83F8FC22 		strb	r2, [r3, #764]
 194:main.c        **** }
 1571              		.loc 2 194 0
 1572 002e 2222     		movs	r2, #34
 1573 0030 83F8FB23 		strb	r2, [r3, #1019]
 1574 0034 10BD     		pop	{r4, pc}
 1575              	.LVL203:
 1576              	.L102:
 1577 0036 00BF     		.align	2
 1578              	.L101:
 1579 0038 00000000 		.word	selectors
 1580              		.cfi_endproc
 1581              	.LFE76:
 1582              		.size	Setup_Selectors, .-Setup_Selectors
 1583              		.section	.text.Connect_Channel_On_Intermediate,"ax",%progbits
 1584              		.align	2
 1585              		.global	Connect_Channel_On_Intermediate
 1586              		.thumb
 1587              		.thumb_func
 1588              		.type	Connect_Channel_On_Intermediate, %function
 1589              	Connect_Channel_On_Intermediate:
 1590              	.LFB77:
 197:main.c        **** 	channel--;
 1591              		.loc 2 197 0
 1592              		.cfi_startproc
 1593              		@ args = 0, pretend = 0, frame = 0
 1594              		@ frame_needed = 0, uses_anonymous_args = 0
 1595              	.LVL204:
 1596 0000 08B5     		push	{r3, lr}
 1597              		.cfi_def_cfa_offset 8
 1598              		.cfi_offset 3, -8
 1599              		.cfi_offset 14, -4
ARM GAS  C:\Users\FRANKL~1\AppData\Local\Temp\ccPy0viy.s 			page 48


 198:main.c        **** 	intermediate--;
 1600              		.loc 2 198 0
 1601 0002 0138     		subs	r0, r0, #1
 1602              	.LVL205:
 1603 0004 C3B2     		uxtb	r3, r0
 1604              	.LVL206:
 201:main.c        **** 	if (intermediate >= INTERMEDIATE_COUNT) return;
 1605              		.loc 2 201 0
 1606 0006 212B     		cmp	r3, #33
 1607 0008 0CD8     		bhi	.L103
 1608 000a 0139     		subs	r1, r1, #1
 1609              	.LVL207:
 1610 000c C8B2     		uxtb	r0, r1
 202:main.c        **** 	
 1611              		.loc 2 202 0
 1612 000e 0328     		cmp	r0, #3
 1613 0010 08D8     		bhi	.L103
 204:main.c        **** 	Update_Selector(intermediate);
 1614              		.loc 2 204 0
 1615 0012 C0EB0022 		rsb	r2, r0, r0, lsl #8
 1616 0016 0449     		ldr	r1, .L106
 1617 0018 0A44     		add	r2, r2, r1
 1618 001a 1344     		add	r3, r3, r2
 1619              	.LVL208:
 1620 001c C022     		movs	r2, #192
 1621 001e 5A70     		strb	r2, [r3, #1]
 205:main.c        **** }
 1622              		.loc 2 205 0
 1623 0020 FFF7FEFF 		bl	Update_Selector
 1624              	.LVL209:
 1625              	.L103:
 1626 0024 08BD     		pop	{r3, pc}
 1627              	.L107:
 1628 0026 00BF     		.align	2
 1629              	.L106:
 1630 0028 00000000 		.word	selectors
 1631              		.cfi_endproc
 1632              	.LFE77:
 1633              		.size	Connect_Channel_On_Intermediate, .-Connect_Channel_On_Intermediate
 1634              		.section	.text.Connect_Contact_To_Intermediate,"ax",%progbits
 1635              		.align	2
 1636              		.global	Connect_Contact_To_Intermediate
 1637              		.thumb
 1638              		.thumb_func
 1639              		.type	Connect_Contact_To_Intermediate, %function
 1640              	Connect_Contact_To_Intermediate:
 1641              	.LFB78:
 208:main.c        **** 	contact--;
 1642              		.loc 2 208 0
 1643              		.cfi_startproc
 1644              		@ args = 0, pretend = 0, frame = 0
 1645              		@ frame_needed = 0, uses_anonymous_args = 0
 1646              	.LVL210:
 209:main.c        **** 	intermediate--;
 1647              		.loc 2 209 0
 1648 0000 0138     		subs	r0, r0, #1
 1649              	.LVL211:
ARM GAS  C:\Users\FRANKL~1\AppData\Local\Temp\ccPy0viy.s 			page 49


 1650 0002 C0B2     		uxtb	r0, r0
 1651              	.LVL212:
 212:main.c        **** 	if (intermediate >= INTERMEDIATE_COUNT) return;
 1652              		.loc 2 212 0
 1653 0004 3F28     		cmp	r0, #63
 1654 0006 13D8     		bhi	.L113
 208:main.c        **** 	contact--;
 1655              		.loc 2 208 0
 1656 0008 08B5     		push	{r3, lr}
 1657              		.cfi_def_cfa_offset 8
 1658              		.cfi_offset 3, -8
 1659              		.cfi_offset 14, -4
 1660 000a 4B1E     		subs	r3, r1, #1
 1661 000c DBB2     		uxtb	r3, r3
 213:main.c        **** 	
 1662              		.loc 2 213 0
 1663 000e 032B     		cmp	r3, #3
 1664 0010 0DD8     		bhi	.L108
 1665              	.LVL213:
 216:main.c        **** 		offset = CONTACT_COUNT/2;
 1666              		.loc 2 216 0
 1667 0012 012B     		cmp	r3, #1
 1668 0014 03D9     		bls	.L110
 1669              	.LVL214:
 218:main.c        **** 	} else {
 1670              		.loc 2 218 0
 1671 0016 1F28     		cmp	r0, #31
 1672 0018 09D9     		bls	.L108
 217:main.c        **** 		if (contact < CONTACT_COUNT/2) return;
 1673              		.loc 2 217 0
 1674 001a 2023     		movs	r3, #32
 1675 001c 02E0     		b	.L111
 1676              	.LVL215:
 1677              	.L110:
 220:main.c        **** 	}
 1678              		.loc 2 220 0
 1679 001e 1F28     		cmp	r0, #31
 1680 0020 05D8     		bhi	.L108
 215:main.c        **** 	if (intermediate >= INTERMEDIATE_COUNT/2) {
 1681              		.loc 2 215 0
 1682 0022 0023     		movs	r3, #0
 1683              	.LVL216:
 1684              	.L111:
 223:main.c        **** }
 1685              		.loc 2 223 0
 1686 0024 C01A     		subs	r0, r0, r3
 1687              	.LVL217:
 1688 0026 0130     		adds	r0, r0, #1
 1689 0028 C0B2     		uxtb	r0, r0
 1690 002a FFF7FEFF 		bl	Connect_Channel_On_Intermediate
 1691              	.LVL218:
 1692              	.L108:
 1693 002e 08BD     		pop	{r3, pc}
 1694              	.LVL219:
 1695              	.L113:
 1696              		.cfi_def_cfa_offset 0
 1697              		.cfi_restore 3
ARM GAS  C:\Users\FRANKL~1\AppData\Local\Temp\ccPy0viy.s 			page 50


 1698              		.cfi_restore 14
 1699 0030 7047     		bx	lr
 1700              		.cfi_endproc
 1701              	.LFE78:
 1702              		.size	Connect_Contact_To_Intermediate, .-Connect_Contact_To_Intermediate
 1703 0032 00BF     		.section	.text.Disconnect_Contact_From_Intermediate,"ax",%progbits
 1704              		.align	2
 1705              		.global	Disconnect_Contact_From_Intermediate
 1706              		.thumb
 1707              		.thumb_func
 1708              		.type	Disconnect_Contact_From_Intermediate, %function
 1709              	Disconnect_Contact_From_Intermediate:
 1710              	.LFB79:
 226:main.c        **** 	contact--;
 1711              		.loc 2 226 0
 1712              		.cfi_startproc
 1713              		@ args = 0, pretend = 0, frame = 0
 1714              		@ frame_needed = 0, uses_anonymous_args = 0
 1715              	.LVL220:
 1716 0000 08B5     		push	{r3, lr}
 1717              		.cfi_def_cfa_offset 8
 1718              		.cfi_offset 3, -8
 1719              		.cfi_offset 14, -4
 227:main.c        **** 	intermediate--;
 1720              		.loc 2 227 0
 1721 0002 0138     		subs	r0, r0, #1
 1722              	.LVL221:
 1723 0004 C3B2     		uxtb	r3, r0
 1724              	.LVL222:
 230:main.c        **** 	if (intermediate >= INTERMEDIATE_COUNT) return;
 1725              		.loc 2 230 0
 1726 0006 3F2B     		cmp	r3, #63
 1727 0008 16D8     		bhi	.L114
 1728 000a 0139     		subs	r1, r1, #1
 1729              	.LVL223:
 1730 000c C8B2     		uxtb	r0, r1
 231:main.c        **** 	
 1731              		.loc 2 231 0
 1732 000e 0328     		cmp	r0, #3
 1733 0010 12D8     		bhi	.L114
 1734              	.LVL224:
 234:main.c        **** 		offset = CONTACT_COUNT/2;
 1735              		.loc 2 234 0
 1736 0012 0128     		cmp	r0, #1
 1737 0014 03D9     		bls	.L116
 1738              	.LVL225:
 236:main.c        **** 	} else {
 1739              		.loc 2 236 0
 1740 0016 1F2B     		cmp	r3, #31
 1741 0018 0ED9     		bls	.L114
 235:main.c        **** 		if (contact < CONTACT_COUNT/2) return;
 1742              		.loc 2 235 0
 1743 001a 2022     		movs	r2, #32
 1744 001c 02E0     		b	.L117
 1745              	.LVL226:
 1746              	.L116:
 238:main.c        **** 	}
ARM GAS  C:\Users\FRANKL~1\AppData\Local\Temp\ccPy0viy.s 			page 51


 1747              		.loc 2 238 0
 1748 001e 1F2B     		cmp	r3, #31
 1749 0020 0AD8     		bhi	.L114
 233:main.c        **** 	if (intermediate >= INTERMEDIATE_COUNT/2) {
 1750              		.loc 2 233 0
 1751 0022 0022     		movs	r2, #0
 1752              	.LVL227:
 1753              	.L117:
 241:main.c        **** 	
 1754              		.loc 2 241 0
 1755 0024 9B1A     		subs	r3, r3, r2
 1756              	.LVL228:
 1757 0026 C0EB0022 		rsb	r2, r0, r0, lsl #8
 1758              	.LVL229:
 1759 002a 0449     		ldr	r1, .L119
 1760 002c 0A44     		add	r2, r2, r1
 1761 002e 1344     		add	r3, r3, r2
 1762 0030 D122     		movs	r2, #209
 1763 0032 5A70     		strb	r2, [r3, #1]
 243:main.c        **** }
 1764              		.loc 2 243 0
 1765 0034 FFF7FEFF 		bl	Update_Selector
 1766              	.LVL230:
 1767              	.L114:
 1768 0038 08BD     		pop	{r3, pc}
 1769              	.L120:
 1770 003a 00BF     		.align	2
 1771              	.L119:
 1772 003c 00000000 		.word	selectors
 1773              		.cfi_endproc
 1774              	.LFE79:
 1775              		.size	Disconnect_Contact_From_Intermediate, .-Disconnect_Contact_From_Intermediate
 1776              		.section	.text.Disconnect_Contact_From_All_Intermediates,"ax",%progbits
 1777              		.align	2
 1778              		.global	Disconnect_Contact_From_All_Intermediates
 1779              		.thumb
 1780              		.thumb_func
 1781              		.type	Disconnect_Contact_From_All_Intermediates, %function
 1782              	Disconnect_Contact_From_All_Intermediates:
 1783              	.LFB80:
 246:main.c        **** 	contact--;
 1784              		.loc 2 246 0
 1785              		.cfi_startproc
 1786              		@ args = 0, pretend = 0, frame = 0
 1787              		@ frame_needed = 0, uses_anonymous_args = 0
 1788              	.LVL231:
 1789 0000 38B5     		push	{r3, r4, r5, lr}
 1790              		.cfi_def_cfa_offset 16
 1791              		.cfi_offset 3, -16
 1792              		.cfi_offset 4, -12
 1793              		.cfi_offset 5, -8
 1794              		.cfi_offset 14, -4
 247:main.c        **** 	
 1795              		.loc 2 247 0
 1796 0002 0138     		subs	r0, r0, #1
 1797              	.LVL232:
 1798 0004 C5B2     		uxtb	r5, r0
ARM GAS  C:\Users\FRANKL~1\AppData\Local\Temp\ccPy0viy.s 			page 52


 1799              	.LVL233:
 1800              	.LBB25:
 249:main.c        **** 		
 1801              		.loc 2 249 0
 1802 0006 0024     		movs	r4, #0
 1803 0008 15E0     		b	.L122
 1804              	.LVL234:
 1805              	.L126:
 1806              	.LBB26:
 252:main.c        **** 			offset = CONTACT_COUNT/2;
 1807              		.loc 2 252 0
 1808 000a 012C     		cmp	r4, #1
 1809 000c 03D9     		bls	.L123
 1810              	.LVL235:
 254:main.c        **** 		} else {
 1811              		.loc 2 254 0
 1812 000e 1F2D     		cmp	r5, #31
 1813 0010 0FD9     		bls	.L124
 253:main.c        **** 			if (contact < CONTACT_COUNT/2) continue;
 1814              		.loc 2 253 0
 1815 0012 2023     		movs	r3, #32
 1816 0014 02E0     		b	.L125
 1817              	.LVL236:
 1818              	.L123:
 256:main.c        **** 		}
 1819              		.loc 2 256 0
 1820 0016 1F2D     		cmp	r5, #31
 1821 0018 0BD8     		bhi	.L124
 251:main.c        **** 		if (intermediate >= INTERMEDIATE_COUNT/2) {
 1822              		.loc 2 251 0
 1823 001a 0023     		movs	r3, #0
 1824              	.LVL237:
 1825              	.L125:
 259:main.c        **** 		
 1826              		.loc 2 259 0
 1827 001c EA1A     		subs	r2, r5, r3
 1828 001e C4EB0423 		rsb	r3, r4, r4, lsl #8
 1829              	.LVL238:
 1830 0022 0649     		ldr	r1, .L128
 1831 0024 0B44     		add	r3, r3, r1
 1832 0026 1344     		add	r3, r3, r2
 1833 0028 D122     		movs	r2, #209
 1834 002a 5A70     		strb	r2, [r3, #1]
 261:main.c        **** 	}
 1835              		.loc 2 261 0
 1836 002c 2046     		mov	r0, r4
 1837 002e FFF7FEFF 		bl	Update_Selector
 1838              	.LVL239:
 1839              	.L124:
 1840              	.LBE26:
 249:main.c        **** 		
 1841              		.loc 2 249 0 discriminator 2
 1842 0032 0134     		adds	r4, r4, #1
 1843              	.LVL240:
 1844 0034 E4B2     		uxtb	r4, r4
 1845              	.LVL241:
 1846              	.L122:
ARM GAS  C:\Users\FRANKL~1\AppData\Local\Temp\ccPy0viy.s 			page 53


 249:main.c        **** 		
 1847              		.loc 2 249 0 is_stmt 0 discriminator 1
 1848 0036 032C     		cmp	r4, #3
 1849 0038 E7D9     		bls	.L126
 1850              	.LBE25:
 263:main.c        **** 
 1851              		.loc 2 263 0 is_stmt 1
 1852 003a 38BD     		pop	{r3, r4, r5, pc}
 1853              	.LVL242:
 1854              	.L129:
 1855              		.align	2
 1856              	.L128:
 1857 003c 00000000 		.word	selectors
 1858              		.cfi_endproc
 1859              	.LFE80:
 1860              		.size	Disconnect_Contact_From_All_Intermediates, .-Disconnect_Contact_From_All_Intermediates
 1861              		.section	.text.Disconnect_All_Contacts_From_All_Intermediates,"ax",%progbits
 1862              		.align	2
 1863              		.global	Disconnect_All_Contacts_From_All_Intermediates
 1864              		.thumb
 1865              		.thumb_func
 1866              		.type	Disconnect_All_Contacts_From_All_Intermediates, %function
 1867              	Disconnect_All_Contacts_From_All_Intermediates:
 1868              	.LFB81:
 265:main.c        **** 	for (uint8 intermediate = 0; intermediate < INTERMEDIATE_COUNT/**//2; intermediate++) {
 1869              		.loc 2 265 0
 1870              		.cfi_startproc
 1871              		@ args = 0, pretend = 0, frame = 0
 1872              		@ frame_needed = 0, uses_anonymous_args = 0
 1873 0000 10B5     		push	{r4, lr}
 1874              		.cfi_def_cfa_offset 8
 1875              		.cfi_offset 4, -8
 1876              		.cfi_offset 14, -4
 1877              	.LVL243:
 1878              	.LBB27:
 266:main.c        **** 		for (uint8 contact = 0; contact < CONTACT_COUNT/2; contact++) {
 1879              		.loc 2 266 0
 1880 0002 0024     		movs	r4, #0
 1881 0004 11E0     		b	.L131
 1882              	.LVL244:
 1883              	.L132:
 1884              	.LBB28:
 268:main.c        **** 		}
 1885              		.loc 2 268 0 discriminator 3
 1886 0006 C4EB0422 		rsb	r2, r4, r4, lsl #8
 1887 000a 0949     		ldr	r1, .L136
 1888 000c 0A44     		add	r2, r2, r1
 1889 000e 1A44     		add	r2, r2, r3
 1890 0010 D121     		movs	r1, #209
 1891 0012 5170     		strb	r1, [r2, #1]
 267:main.c        **** 			selectors[intermediate].write.data[contact] = CONTACT_DISCONNECT_CODE;
 1892              		.loc 2 267 0 discriminator 3
 1893 0014 0133     		adds	r3, r3, #1
 1894              	.LVL245:
 1895 0016 DBB2     		uxtb	r3, r3
 1896              	.LVL246:
 1897 0018 00E0     		b	.L133
ARM GAS  C:\Users\FRANKL~1\AppData\Local\Temp\ccPy0viy.s 			page 54


 1898              	.LVL247:
 1899              	.L134:
 1900              	.LBE28:
 1901 001a 0023     		movs	r3, #0
 1902              	.L133:
 1903              	.LVL248:
 1904              	.LBB29:
 267:main.c        **** 			selectors[intermediate].write.data[contact] = CONTACT_DISCONNECT_CODE;
 1905              		.loc 2 267 0 is_stmt 0 discriminator 1
 1906 001c 1F2B     		cmp	r3, #31
 1907 001e F2D9     		bls	.L132
 1908              	.LBE29:
 271:main.c        **** 	}
 1909              		.loc 2 271 0 is_stmt 1 discriminator 2
 1910 0020 2046     		mov	r0, r4
 1911 0022 FFF7FEFF 		bl	Update_Selector
 1912              	.LVL249:
 266:main.c        **** 		for (uint8 contact = 0; contact < CONTACT_COUNT/2; contact++) {
 1913              		.loc 2 266 0 discriminator 2
 1914 0026 0134     		adds	r4, r4, #1
 1915              	.LVL250:
 1916 0028 E4B2     		uxtb	r4, r4
 1917              	.LVL251:
 1918              	.L131:
 266:main.c        **** 		for (uint8 contact = 0; contact < CONTACT_COUNT/2; contact++) {
 1919              		.loc 2 266 0 is_stmt 0 discriminator 1
 1920 002a 012C     		cmp	r4, #1
 1921 002c F5D9     		bls	.L134
 1922              	.LBE27:
 273:main.c        **** 
 1923              		.loc 2 273 0 is_stmt 1
 1924 002e 10BD     		pop	{r4, pc}
 1925              	.LVL252:
 1926              	.L137:
 1927              		.align	2
 1928              	.L136:
 1929 0030 00000000 		.word	selectors
 1930              		.cfi_endproc
 1931              	.LFE81:
 1932              		.size	Disconnect_All_Contacts_From_All_Intermediates, .-Disconnect_All_Contacts_From_All_Intermedi
 1933              		.section	.text.Disconnect_All_Contacts_From_Intermediate,"ax",%progbits
 1934              		.align	2
 1935              		.global	Disconnect_All_Contacts_From_Intermediate
 1936              		.thumb
 1937              		.thumb_func
 1938              		.type	Disconnect_All_Contacts_From_Intermediate, %function
 1939              	Disconnect_All_Contacts_From_Intermediate:
 1940              	.LFB82:
 275:main.c        **** 	intermediate--;
 1941              		.loc 2 275 0
 1942              		.cfi_startproc
 1943              		@ args = 0, pretend = 0, frame = 0
 1944              		@ frame_needed = 0, uses_anonymous_args = 0
 1945              	.LVL253:
 1946 0000 08B5     		push	{r3, lr}
 1947              		.cfi_def_cfa_offset 8
 1948              		.cfi_offset 3, -8
ARM GAS  C:\Users\FRANKL~1\AppData\Local\Temp\ccPy0viy.s 			page 55


 1949              		.cfi_offset 14, -4
 276:main.c        **** 	
 1950              		.loc 2 276 0
 1951 0002 0138     		subs	r0, r0, #1
 1952              	.LVL254:
 1953 0004 C0B2     		uxtb	r0, r0
 1954              	.LVL255:
 1955              	.LBB30:
 278:main.c        **** 		selectors[intermediate].write.data[contact] = CONTACT_DISCONNECT_CODE;
 1956              		.loc 2 278 0
 1957 0006 0023     		movs	r3, #0
 1958 0008 08E0     		b	.L139
 1959              	.LVL256:
 1960              	.L140:
 279:main.c        **** 	}
 1961              		.loc 2 279 0 discriminator 3
 1962 000a C0EB0022 		rsb	r2, r0, r0, lsl #8
 1963 000e 0649     		ldr	r1, .L142
 1964 0010 0A44     		add	r2, r2, r1
 1965 0012 1A44     		add	r2, r2, r3
 1966 0014 D121     		movs	r1, #209
 1967 0016 5170     		strb	r1, [r2, #1]
 278:main.c        **** 		selectors[intermediate].write.data[contact] = CONTACT_DISCONNECT_CODE;
 1968              		.loc 2 278 0 discriminator 3
 1969 0018 0133     		adds	r3, r3, #1
 1970              	.LVL257:
 1971 001a DBB2     		uxtb	r3, r3
 1972              	.LVL258:
 1973              	.L139:
 278:main.c        **** 		selectors[intermediate].write.data[contact] = CONTACT_DISCONNECT_CODE;
 1974              		.loc 2 278 0 is_stmt 0 discriminator 1
 1975 001c 1F2B     		cmp	r3, #31
 1976 001e F4D9     		bls	.L140
 1977              	.LBE30:
 282:main.c        **** }
 1978              		.loc 2 282 0 is_stmt 1
 1979 0020 FFF7FEFF 		bl	Update_Selector
 1980              	.LVL259:
 1981 0024 08BD     		pop	{r3, pc}
 1982              	.L143:
 1983 0026 00BF     		.align	2
 1984              	.L142:
 1985 0028 00000000 		.word	selectors
 1986              		.cfi_endproc
 1987              	.LFE82:
 1988              		.size	Disconnect_All_Contacts_From_Intermediate, .-Disconnect_All_Contacts_From_Intermediate
 1989              		.section	.text.Connect_Intermediate,"ax",%progbits
 1990              		.align	2
 1991              		.global	Connect_Intermediate
 1992              		.thumb
 1993              		.thumb_func
 1994              		.type	Connect_Intermediate, %function
 1995              	Connect_Intermediate:
 1996              	.LFB83:
 285:main.c        **** 	switch (intermediate) {
 1997              		.loc 2 285 0
 1998              		.cfi_startproc
ARM GAS  C:\Users\FRANKL~1\AppData\Local\Temp\ccPy0viy.s 			page 56


 1999              		@ args = 0, pretend = 0, frame = 0
 2000              		@ frame_needed = 0, uses_anonymous_args = 0
 2001              	.LVL260:
 2002 0000 08B5     		push	{r3, lr}
 2003              		.cfi_def_cfa_offset 8
 2004              		.cfi_offset 3, -8
 2005              		.cfi_offset 14, -4
 286:main.c        **** 		case 1: Connect_Channel_On_Intermediate(33, 1); break;
 2006              		.loc 2 286 0
 2007 0002 0138     		subs	r0, r0, #1
 2008              	.LVL261:
 2009 0004 0328     		cmp	r0, #3
 2010 0006 16D8     		bhi	.L144
 2011 0008 DFE800F0 		tbb	[pc, r0]
 2012              	.L147:
 2013 000c 02       		.byte	(.L146-.L147)/2
 2014 000d 07       		.byte	(.L148-.L147)/2
 2015 000e 0C       		.byte	(.L149-.L147)/2
 2016 000f 11       		.byte	(.L150-.L147)/2
 2017              		.p2align 1
 2018              	.L146:
 287:main.c        **** 		case 2: Connect_Channel_On_Intermediate(33, 2); break;
 2019              		.loc 2 287 0
 2020 0010 0121     		movs	r1, #1
 2021 0012 2120     		movs	r0, #33
 2022 0014 FFF7FEFF 		bl	Connect_Channel_On_Intermediate
 2023              	.LVL262:
 2024 0018 08BD     		pop	{r3, pc}
 2025              	.L148:
 288:main.c        **** 		case 3: Connect_Channel_On_Intermediate(33, 3); break;
 2026              		.loc 2 288 0
 2027 001a 0221     		movs	r1, #2
 2028 001c 2120     		movs	r0, #33
 2029 001e FFF7FEFF 		bl	Connect_Channel_On_Intermediate
 2030              	.LVL263:
 2031 0022 08BD     		pop	{r3, pc}
 2032              	.L149:
 289:main.c        **** 		case 4: Connect_Channel_On_Intermediate(33, 4); break;
 2033              		.loc 2 289 0
 2034 0024 0321     		movs	r1, #3
 2035 0026 2120     		movs	r0, #33
 2036 0028 FFF7FEFF 		bl	Connect_Channel_On_Intermediate
 2037              	.LVL264:
 2038 002c 08BD     		pop	{r3, pc}
 2039              	.L150:
 290:main.c        **** 		default: return;
 2040              		.loc 2 290 0
 2041 002e 0421     		movs	r1, #4
 2042 0030 2120     		movs	r0, #33
 2043 0032 FFF7FEFF 		bl	Connect_Channel_On_Intermediate
 2044              	.LVL265:
 2045              	.L144:
 2046 0036 08BD     		pop	{r3, pc}
 2047              		.cfi_endproc
 2048              	.LFE83:
 2049              		.size	Connect_Intermediate, .-Connect_Intermediate
 2050              		.section	.text.Connect_Intermediates,"ax",%progbits
ARM GAS  C:\Users\FRANKL~1\AppData\Local\Temp\ccPy0viy.s 			page 57


 2051              		.align	2
 2052              		.global	Connect_Intermediates
 2053              		.thumb
 2054              		.thumb_func
 2055              		.type	Connect_Intermediates, %function
 2056              	Connect_Intermediates:
 2057              	.LFB84:
 295:main.c        **** 	for (uint8 i = 1; i <= INTERMEDIATE_COUNT/**//2; i++) {
 2058              		.loc 2 295 0
 2059              		.cfi_startproc
 2060              		@ args = 0, pretend = 0, frame = 0
 2061              		@ frame_needed = 0, uses_anonymous_args = 0
 2062 0000 10B5     		push	{r4, lr}
 2063              		.cfi_def_cfa_offset 8
 2064              		.cfi_offset 4, -8
 2065              		.cfi_offset 14, -4
 2066              	.LVL266:
 2067              	.LBB31:
 296:main.c        **** 		Connect_Intermediate(i);
 2068              		.loc 2 296 0
 2069 0002 0124     		movs	r4, #1
 2070 0004 04E0     		b	.L153
 2071              	.LVL267:
 2072              	.L154:
 297:main.c        **** 	}
 2073              		.loc 2 297 0 discriminator 3
 2074 0006 2046     		mov	r0, r4
 2075 0008 FFF7FEFF 		bl	Connect_Intermediate
 2076              	.LVL268:
 296:main.c        **** 		Connect_Intermediate(i);
 2077              		.loc 2 296 0 discriminator 3
 2078 000c 0134     		adds	r4, r4, #1
 2079              	.LVL269:
 2080 000e E4B2     		uxtb	r4, r4
 2081              	.LVL270:
 2082              	.L153:
 296:main.c        **** 		Connect_Intermediate(i);
 2083              		.loc 2 296 0 is_stmt 0 discriminator 1
 2084 0010 022C     		cmp	r4, #2
 2085 0012 F8D9     		bls	.L154
 2086              	.LBE31:
 299:main.c        **** 
 2087              		.loc 2 299 0 is_stmt 1
 2088 0014 10BD     		pop	{r4, pc}
 2089              		.cfi_endproc
 2090              	.LFE84:
 2091              		.size	Connect_Intermediates, .-Connect_Intermediates
 2092              		.global	__aeabi_i2d
 2093              		.global	__aeabi_dcmpgt
 2094              		.global	__aeabi_f2d
 2095              		.global	__aeabi_dsub
 2096              		.global	__aeabi_ddiv
 2097              		.global	__aeabi_dmul
 2098              		.global	__aeabi_dadd
 2099              		.global	__aeabi_d2f
 2100 0016 00BF     		.section	.text.Measure_Current_Vss,"ax",%progbits
 2101              		.align	2
ARM GAS  C:\Users\FRANKL~1\AppData\Local\Temp\ccPy0viy.s 			page 58


 2102              		.global	Measure_Current_Vss
 2103              		.thumb
 2104              		.thumb_func
 2105              		.type	Measure_Current_Vss, %function
 2106              	Measure_Current_Vss:
 2107              	.LFB85:
 301:main.c        **** 	Compliance_Reached = 0;
 2108              		.loc 2 301 0
 2109              		.cfi_startproc
 2110              		@ args = 0, pretend = 0, frame = 24
 2111              		@ frame_needed = 0, uses_anonymous_args = 0
 2112              	.LVL271:
 2113 0000 2DE9F04F 		push	{r4, r5, r6, r7, r8, r9, r10, fp, lr}
 2114              		.cfi_def_cfa_offset 36
 2115              		.cfi_offset 4, -36
 2116              		.cfi_offset 5, -32
 2117              		.cfi_offset 6, -28
 2118              		.cfi_offset 7, -24
 2119              		.cfi_offset 8, -20
 2120              		.cfi_offset 9, -16
 2121              		.cfi_offset 10, -12
 2122              		.cfi_offset 11, -8
 2123              		.cfi_offset 14, -4
 2124 0004 87B0     		sub	sp, sp, #28
 2125              		.cfi_def_cfa_offset 64
 2126 0006 0290     		str	r0, [sp, #8]
 2127 0008 0391     		str	r1, [sp, #12]
 2128 000a 9346     		mov	fp, r2
 302:main.c        **** 	
 2129              		.loc 2 302 0
 2130 000c 0023     		movs	r3, #0
 2131 000e 3E4A     		ldr	r2, .L165+8
 2132              	.LVL272:
 2133 0010 1370     		strb	r3, [r2]
 305:main.c        **** 	int32 voltageSD = 0;
 2134              		.loc 2 305 0
 2135 0012 0593     		str	r3, [sp, #20]
 306:main.c        **** 	
 2136              		.loc 2 306 0
 2137 0014 06A9     		add	r1, sp, #24
 2138              	.LVL273:
 2139 0016 41F8083D 		str	r3, [r1, #-8]!
 2140              	.LVL274:
 318:main.c        **** 	
 2141              		.loc 2 318 0
 2142 001a 0322     		movs	r2, #3
 2143 001c 05A8     		add	r0, sp, #20
 2144              	.LVL275:
 2145 001e FFF7FEFF 		bl	ADC_Measure_uV
 2146              	.LVL276:
 2147              	.LBB32:
 321:main.c        **** 		ADC_Measure_uV(&voltage, &voltageSD, 1);
 2148              		.loc 2 321 0
 2149 0022 0124     		movs	r4, #1
 2150              	.LBE32:
 312:main.c        **** 	
 2151              		.loc 2 312 0
ARM GAS  C:\Users\FRANKL~1\AppData\Local\Temp\ccPy0viy.s 			page 59


 2152 0024 4FF00008 		mov	r8, #0
 311:main.c        **** 	float currentStdDev = 0;
 2153              		.loc 2 311 0
 2154 0028 C146     		mov	r9, r8
 2155              	.LBB33:
 321:main.c        **** 		ADC_Measure_uV(&voltage, &voltageSD, 1);
 2156              		.loc 2 321 0
 2157 002a 5DE0     		b	.L157
 2158              	.LVL277:
 2159              	.L161:
 322:main.c        **** 		
 2160              		.loc 2 322 0
 2161 002c 0122     		movs	r2, #1
 2162 002e 04A9     		add	r1, sp, #16
 2163 0030 05A8     		add	r0, sp, #20
 2164 0032 FFF7FEFF 		bl	ADC_Measure_uV
 2165              	.LVL278:
 324:main.c        **** 		
 2166              		.loc 2 324 0
 2167 0036 0598     		ldr	r0, [sp, #20]
 2168 0038 FFF7FEFF 		bl	__aeabi_i2f
 2169              	.LVL279:
 2170 003c 3349     		ldr	r1, .L165+12
 2171 003e FFF7FEFF 		bl	__aeabi_fmul
 2172              	.LVL280:
 2173 0042 0546     		mov	r5, r0
 2174              	.LVL281:
 326:main.c        **** 			Compliance_Reached += 1;
 2175              		.loc 2 326 0
 2176 0044 FFF7FEFF 		bl	__aeabi_f2iz
 2177              	.LVL282:
 2178 0048 0028     		cmp	r0, #0
 2179 004a B8BF     		it	lt
 2180 004c 4042     		rsblt	r0, r0, #0
 2181 004e FFF7FEFF 		bl	__aeabi_i2d
 2182              	.LVL283:
 2183 0052 2BA3     		adr	r3, .L165
 2184 0054 D3E90023 		ldrd	r2, [r3]
 2185 0058 FFF7FEFF 		bl	__aeabi_dcmpgt
 2186              	.LVL284:
 2187 005c 20B1     		cbz	r0, .L163
 327:main.c        **** 			break;
 2188              		.loc 2 327 0
 2189 005e 2A4A     		ldr	r2, .L165+8
 2190 0060 1378     		ldrb	r3, [r2]	@ zero_extendqisi2
 2191 0062 0133     		adds	r3, r3, #1
 2192 0064 1370     		strb	r3, [r2]
 328:main.c        **** 		} else {
 2193              		.loc 2 328 0
 2194 0066 41E0     		b	.L160
 2195              	.L163:
 330:main.c        **** 		}
 2196              		.loc 2 330 0 discriminator 2
 2197 0068 0022     		movs	r2, #0
 2198 006a 274B     		ldr	r3, .L165+8
 2199 006c 1A70     		strb	r2, [r3]
 333:main.c        **** 		currentAverage += (currentNow - currentAverage)/(float)i;
ARM GAS  C:\Users\FRANKL~1\AppData\Local\Temp\ccPy0viy.s 			page 60


 2200              		.loc 2 333 0 discriminator 2
 2201 006e 2046     		mov	r0, r4
 2202 0070 FFF7FEFF 		bl	__aeabi_ui2f
 2203              	.LVL285:
 2204 0074 8246     		mov	r10, r0
 2205 0076 FFF7FEFF 		bl	__aeabi_f2d
 2206              	.LVL286:
 2207 007a 0646     		mov	r6, r0
 2208 007c 0F46     		mov	r7, r1
 2209 007e 0022     		movs	r2, #0
 2210 0080 234B     		ldr	r3, .L165+16
 2211 0082 FFF7FEFF 		bl	__aeabi_dsub
 2212              	.LVL287:
 2213 0086 3246     		mov	r2, r6
 2214 0088 3B46     		mov	r3, r7
 2215 008a FFF7FEFF 		bl	__aeabi_ddiv
 2216              	.LVL288:
 2217 008e CDE90001 		strd	r0, [sp]
 2218 0092 4946     		mov	r1, r9
 2219 0094 2846     		mov	r0, r5
 2220 0096 FFF7FEFF 		bl	__aeabi_fsub
 2221              	.LVL289:
 2222 009a 0546     		mov	r5, r0
 2223              	.LVL290:
 2224 009c FFF7FEFF 		bl	__aeabi_f2d
 2225              	.LVL291:
 2226 00a0 0646     		mov	r6, r0
 2227 00a2 0F46     		mov	r7, r1
 2228 00a4 0246     		mov	r2, r0
 2229 00a6 0B46     		mov	r3, r1
 2230 00a8 DDE90001 		ldrd	r0, [sp]
 2231 00ac FFF7FEFF 		bl	__aeabi_dmul
 2232              	.LVL292:
 2233 00b0 0246     		mov	r2, r0
 2234 00b2 0B46     		mov	r3, r1
 2235 00b4 3046     		mov	r0, r6
 2236 00b6 3946     		mov	r1, r7
 2237 00b8 FFF7FEFF 		bl	__aeabi_dmul
 2238              	.LVL293:
 2239 00bc 0646     		mov	r6, r0
 2240 00be 0F46     		mov	r7, r1
 2241 00c0 4046     		mov	r0, r8
 2242 00c2 FFF7FEFF 		bl	__aeabi_f2d
 2243              	.LVL294:
 2244 00c6 3246     		mov	r2, r6
 2245 00c8 3B46     		mov	r3, r7
 2246 00ca FFF7FEFF 		bl	__aeabi_dadd
 2247              	.LVL295:
 2248 00ce FFF7FEFF 		bl	__aeabi_d2f
 2249              	.LVL296:
 2250 00d2 8046     		mov	r8, r0
 2251              	.LVL297:
 334:main.c        **** 	}
 2252              		.loc 2 334 0 discriminator 2
 2253 00d4 5146     		mov	r1, r10
 2254 00d6 2846     		mov	r0, r5
 2255              	.LVL298:
ARM GAS  C:\Users\FRANKL~1\AppData\Local\Temp\ccPy0viy.s 			page 61


 2256 00d8 FFF7FEFF 		bl	__aeabi_fdiv
 2257              	.LVL299:
 2258 00dc 0146     		mov	r1, r0
 2259 00de 4846     		mov	r0, r9
 2260 00e0 FFF7FEFF 		bl	__aeabi_fadd
 2261              	.LVL300:
 2262 00e4 8146     		mov	r9, r0
 2263              	.LVL301:
 321:main.c        **** 		ADC_Measure_uV(&voltage, &voltageSD, 1);
 2264              		.loc 2 321 0 discriminator 2
 2265 00e6 0134     		adds	r4, r4, #1
 2266              	.LVL302:
 2267              	.L157:
 321:main.c        **** 		ADC_Measure_uV(&voltage, &voltageSD, 1);
 2268              		.loc 2 321 0 is_stmt 0 discriminator 1
 2269 00e8 5C45     		cmp	r4, fp
 2270 00ea 9FD9     		bls	.L161
 2271              	.L160:
 2272              	.LBE33:
 337:main.c        **** 	*currentStdDevIn = currentStdDev;
 2273              		.loc 2 337 0 is_stmt 1
 2274 00ec 029B     		ldr	r3, [sp, #8]
 2275 00ee C3F80090 		str	r9, [r3]	@ float
 338:main.c        **** }
 2276              		.loc 2 338 0
 2277 00f2 039B     		ldr	r3, [sp, #12]
 2278 00f4 C3F80080 		str	r8, [r3]	@ float
 339:main.c        **** 
 2279              		.loc 2 339 0
 2280 00f8 07B0     		add	sp, sp, #28
 2281              		.cfi_def_cfa_offset 36
 2282              		@ sp needed
 2283 00fa BDE8F08F 		pop	{r4, r5, r6, r7, r8, r9, r10, fp, pc}
 2284              	.LVL303:
 2285              	.L166:
 2286 00fe 00BF     		.align	3
 2287              	.L165:
 2288 0100 F168E388 		.word	-1998362383
 2289 0104 B5F8E43E 		.word	1055193269
 2290 0108 00000000 		.word	Compliance_Reached
 2291 010c FFE65BAE 		.word	-1369708801
 2292 0110 0000F03F 		.word	1072693248
 2293              		.cfi_endproc
 2294              	.LFE85:
 2295              		.size	Measure_Current_Vss, .-Measure_Current_Vss
 2296              		.section	.text.At_Compliance,"ax",%progbits
 2297              		.align	2
 2298              		.global	At_Compliance
 2299              		.thumb
 2300              		.thumb_func
 2301              		.type	At_Compliance, %function
 2302              	At_Compliance:
 2303              	.LFB86:
 341:main.c        **** 	Compliance_Reached = 0;
 2304              		.loc 2 341 0
 2305              		.cfi_startproc
 2306              		@ args = 0, pretend = 0, frame = 8
ARM GAS  C:\Users\FRANKL~1\AppData\Local\Temp\ccPy0viy.s 			page 62


 2307              		@ frame_needed = 0, uses_anonymous_args = 0
 2308 0000 00B5     		push	{lr}
 2309              		.cfi_def_cfa_offset 4
 2310              		.cfi_offset 14, -4
 2311 0002 83B0     		sub	sp, sp, #12
 2312              		.cfi_def_cfa_offset 16
 342:main.c        **** 	
 2313              		.loc 2 342 0
 2314 0004 0022     		movs	r2, #0
 2315 0006 124B     		ldr	r3, .L174+8
 2316 0008 1A70     		strb	r2, [r3]
 344:main.c        **** 	float currentSD = 0;
 2317              		.loc 2 344 0
 2318 000a 0023     		movs	r3, #0
 2319 000c 0193     		str	r3, [sp, #4]	@ float
 345:main.c        **** 	
 2320              		.loc 2 345 0
 2321 000e 02A9     		add	r1, sp, #8
 2322 0010 41F8083D 		str	r3, [r1, #-8]!	@ float
 347:main.c        **** 	
 2323              		.loc 2 347 0
 2324 0014 0322     		movs	r2, #3
 2325 0016 01A8     		add	r0, sp, #4
 2326 0018 FFF7FEFF 		bl	Measure_Current_Vss
 2327              	.LVL304:
 349:main.c        **** 		Compliance_Reached = 1;
 2328              		.loc 2 349 0
 2329 001c 0198     		ldr	r0, [sp, #4]	@ float
 2330 001e FFF7FEFF 		bl	__aeabi_f2iz
 2331              	.LVL305:
 2332 0022 0028     		cmp	r0, #0
 2333 0024 B8BF     		it	lt
 2334 0026 4042     		rsblt	r0, r0, #0
 2335 0028 FFF7FEFF 		bl	__aeabi_i2d
 2336              	.LVL306:
 2337 002c 06A3     		adr	r3, .L174
 2338 002e D3E90023 		ldrd	r2, [r3]
 2339 0032 FFF7FEFF 		bl	__aeabi_dcmpgt
 2340              	.LVL307:
 2341 0036 18B1     		cbz	r0, .L172
 350:main.c        **** 		return 1;
 2342              		.loc 2 350 0
 2343 0038 0120     		movs	r0, #1
 2344 003a 054B     		ldr	r3, .L174+8
 2345 003c 1870     		strb	r0, [r3]
 351:main.c        **** 	}
 2346              		.loc 2 351 0
 2347 003e 00E0     		b	.L168
 2348              	.L172:
 354:main.c        **** }
 2349              		.loc 2 354 0
 2350 0040 0020     		movs	r0, #0
 2351              	.L168:
 355:main.c        **** 
 2352              		.loc 2 355 0
 2353 0042 03B0     		add	sp, sp, #12
 2354              		.cfi_def_cfa_offset 4
ARM GAS  C:\Users\FRANKL~1\AppData\Local\Temp\ccPy0viy.s 			page 63


 2355              		@ sp needed
 2356 0044 5DF804FB 		ldr	pc, [sp], #4
 2357              	.L175:
 2358              		.align	3
 2359              	.L174:
 2360 0048 F168E388 		.word	-1998362383
 2361 004c B5F8E43E 		.word	1055193269
 2362 0050 00000000 		.word	Compliance_Reached
 2363              		.cfi_endproc
 2364              	.LFE86:
 2365              		.size	At_Compliance, .-At_Compliance
 2366              		.section	.text.Handle_Compliance_Breach,"ax",%progbits
 2367              		.align	2
 2368              		.global	Handle_Compliance_Breach
 2369              		.thumb
 2370              		.thumb_func
 2371              		.type	Handle_Compliance_Breach, %function
 2372              	Handle_Compliance_Breach:
 2373              	.LFB87:
 357:main.c        **** 	uint8 istart = VDAC_Vds_Data;
 2374              		.loc 2 357 0
 2375              		.cfi_startproc
 2376              		@ args = 0, pretend = 0, frame = 0
 2377              		@ frame_needed = 0, uses_anonymous_args = 0
 2378 0000 70B5     		push	{r4, r5, r6, lr}
 2379              		.cfi_def_cfa_offset 16
 2380              		.cfi_offset 4, -16
 2381              		.cfi_offset 5, -12
 2382              		.cfi_offset 6, -8
 2383              		.cfi_offset 14, -4
 358:main.c        **** 	uint8 istop = VDAC_Ref_Data;
 2384              		.loc 2 358 0
 2385 0002 174B     		ldr	r3, .L187
 2386 0004 1C78     		ldrb	r4, [r3]	@ zero_extendqisi2
 2387 0006 E4B2     		uxtb	r4, r4
 2388              	.LVL308:
 359:main.c        **** 	int8 increment = 1;
 2389              		.loc 2 359 0
 2390 0008 023B     		subs	r3, r3, #2
 2391 000a 1D78     		ldrb	r5, [r3]	@ zero_extendqisi2
 2392 000c EDB2     		uxtb	r5, r5
 2393              	.LVL309:
 361:main.c        **** 	
 2394              		.loc 2 361 0
 2395 000e AC42     		cmp	r4, r5
 2396 0010 01D3     		bcc	.L184
 360:main.c        **** 	if (istart < istop) increment = -1;
 2397              		.loc 2 360 0
 2398 0012 0126     		movs	r6, #1
 2399 0014 0AE0     		b	.L178
 2400              	.L184:
 361:main.c        **** 	
 2401              		.loc 2 361 0
 2402 0016 4FF0FF36 		mov	r6, #-1
 2403              	.LVL310:
 2404              	.LBB34:
 363:main.c        **** 		VDAC_Vds_SetValue(i);
ARM GAS  C:\Users\FRANKL~1\AppData\Local\Temp\ccPy0viy.s 			page 64


 2405              		.loc 2 363 0
 2406 001a 07E0     		b	.L178
 2407              	.LVL311:
 2408              	.L180:
 364:main.c        **** 		
 2409              		.loc 2 364 0
 2410 001c 2046     		mov	r0, r4
 2411 001e FFF7FEFF 		bl	VDAC_Vds_SetValue
 2412              	.LVL312:
 366:main.c        **** 	}
 2413              		.loc 2 366 0
 2414 0022 FFF7FEFF 		bl	At_Compliance
 2415              	.LVL313:
 2416 0026 D0B1     		cbz	r0, .L176
 363:main.c        **** 		VDAC_Vds_SetValue(i);
 2417              		.loc 2 363 0 discriminator 2
 2418 0028 3444     		add	r4, r4, r6
 2419              	.LVL314:
 2420 002a E4B2     		uxtb	r4, r4
 2421              	.LVL315:
 2422              	.L178:
 363:main.c        **** 		VDAC_Vds_SetValue(i);
 2423              		.loc 2 363 0 is_stmt 0 discriminator 1
 2424 002c AC42     		cmp	r4, r5
 2425 002e F5D1     		bne	.L180
 2426              	.LBE34:
 369:main.c        **** 	istop = VDAC_Ref_Data;
 2427              		.loc 2 369 0 is_stmt 1
 2428 0030 0C4B     		ldr	r3, .L187+4
 2429 0032 1C78     		ldrb	r4, [r3]	@ zero_extendqisi2
 2430              	.LVL316:
 2431 0034 E4B2     		uxtb	r4, r4
 2432              	.LVL317:
 370:main.c        **** 	increment = 1;
 2433              		.loc 2 370 0
 2434 0036 033B     		subs	r3, r3, #3
 2435 0038 1D78     		ldrb	r5, [r3]	@ zero_extendqisi2
 2436              	.LVL318:
 2437 003a EDB2     		uxtb	r5, r5
 2438              	.LVL319:
 372:main.c        **** 	
 2439              		.loc 2 372 0
 2440 003c AC42     		cmp	r4, r5
 2441 003e 01D3     		bcc	.L185
 371:main.c        **** 	if (istart < istop) increment = -1;
 2442              		.loc 2 371 0
 2443 0040 0126     		movs	r6, #1
 2444 0042 0AE0     		b	.L182
 2445              	.L185:
 372:main.c        **** 	
 2446              		.loc 2 372 0
 2447 0044 4FF0FF36 		mov	r6, #-1
 2448              	.LVL320:
 2449              	.LBB35:
 374:main.c        **** 		VDAC_Vgs_SetValue(i);
 2450              		.loc 2 374 0
 2451 0048 07E0     		b	.L182
ARM GAS  C:\Users\FRANKL~1\AppData\Local\Temp\ccPy0viy.s 			page 65


 2452              	.LVL321:
 2453              	.L183:
 375:main.c        **** 		
 2454              		.loc 2 375 0
 2455 004a 2046     		mov	r0, r4
 2456 004c FFF7FEFF 		bl	VDAC_Vgs_SetValue
 2457              	.LVL322:
 377:main.c        **** 	}
 2458              		.loc 2 377 0
 2459 0050 FFF7FEFF 		bl	At_Compliance
 2460              	.LVL323:
 2461 0054 18B1     		cbz	r0, .L176
 374:main.c        **** 		VDAC_Vgs_SetValue(i);
 2462              		.loc 2 374 0 discriminator 2
 2463 0056 3444     		add	r4, r4, r6
 2464              	.LVL324:
 2465 0058 E4B2     		uxtb	r4, r4
 2466              	.LVL325:
 2467              	.L182:
 374:main.c        **** 		VDAC_Vgs_SetValue(i);
 2468              		.loc 2 374 0 is_stmt 0 discriminator 1
 2469 005a AC42     		cmp	r4, r5
 2470 005c F5D1     		bne	.L183
 2471              	.LVL326:
 2472              	.L176:
 2473 005e 70BD     		pop	{r4, r5, r6, pc}
 2474              	.LVL327:
 2475              	.L188:
 2476              		.align	2
 2477              	.L187:
 2478 0060 825B0040 		.word	1073765250
 2479 0064 835B0040 		.word	1073765251
 2480              	.LBE35:
 2481              		.cfi_endproc
 2482              	.LFE87:
 2483              		.size	Handle_Compliance_Breach, .-Handle_Compliance_Breach
 2484              		.section	.text.Set_Vds_Raw,"ax",%progbits
 2485              		.align	2
 2486              		.global	Set_Vds_Raw
 2487              		.thumb
 2488              		.thumb_func
 2489              		.type	Set_Vds_Raw, %function
 2490              	Set_Vds_Raw:
 2491              	.LFB88:
 383:main.c        **** 	Vds_Index_Goal_Relative = (int16)value - (int16)VDAC_Ref_Data;
 2492              		.loc 2 383 0 is_stmt 1
 2493              		.cfi_startproc
 2494              		@ args = 0, pretend = 0, frame = 0
 2495              		@ frame_needed = 0, uses_anonymous_args = 0
 2496              	.LVL328:
 2497 0000 2DE9F041 		push	{r4, r5, r6, r7, r8, lr}
 2498              		.cfi_def_cfa_offset 24
 2499              		.cfi_offset 4, -24
 2500              		.cfi_offset 5, -20
 2501              		.cfi_offset 6, -16
 2502              		.cfi_offset 7, -12
 2503              		.cfi_offset 8, -8
ARM GAS  C:\Users\FRANKL~1\AppData\Local\Temp\ccPy0viy.s 			page 66


 2504              		.cfi_offset 14, -4
 2505 0004 8046     		mov	r8, r0
 384:main.c        **** 	
 2506              		.loc 2 384 0
 2507 0006 184B     		ldr	r3, .L200
 2508 0008 1B78     		ldrb	r3, [r3]	@ zero_extendqisi2
 2509 000a C31A     		subs	r3, r0, r3
 2510 000c 174A     		ldr	r2, .L200+4
 2511 000e 1380     		strh	r3, [r2]	@ movhi
 386:main.c        **** 	int8 increment = 1;
 2512              		.loc 2 386 0
 2513 0010 174B     		ldr	r3, .L200+8
 2514 0012 1D78     		ldrb	r5, [r3]	@ zero_extendqisi2
 2515 0014 EDB2     		uxtb	r5, r5
 2516              	.LVL329:
 388:main.c        **** 	
 2517              		.loc 2 388 0
 2518 0016 A842     		cmp	r0, r5
 2519 0018 01D3     		bcc	.L197
 387:main.c        **** 	if (istart > value) increment = -1;
 2520              		.loc 2 387 0
 2521 001a 0126     		movs	r6, #1
 2522 001c 01E0     		b	.L190
 2523              	.L197:
 388:main.c        **** 	
 2524              		.loc 2 388 0
 2525 001e 4FF0FF36 		mov	r6, #-1
 2526              	.L190:
 2527              	.LVL330:
 2528              	.LBB36:
 390:main.c        **** 		if (At_Compliance()) {
 2529              		.loc 2 390 0
 2530 0022 0027     		movs	r7, #0
 2531 0024 1BE0     		b	.L191
 2532              	.LVL331:
 2533              	.L196:
 391:main.c        **** 			for (uint8 j = i; j != istart; j -= increment) {
 2534              		.loc 2 391 0
 2535 0026 FFF7FEFF 		bl	At_Compliance
 2536              	.LVL332:
 2537 002a 48B9     		cbnz	r0, .L198
 2538 002c 12E0     		b	.L193
 2539              	.LVL333:
 2540              	.L195:
 2541              	.LBB37:
 393:main.c        **** 				
 2542              		.loc 2 393 0
 2543 002e 2046     		mov	r0, r4
 2544 0030 FFF7FEFF 		bl	VDAC_Vds_SetValue
 2545              	.LVL334:
 395:main.c        **** 			}
 2546              		.loc 2 395 0
 2547 0034 FFF7FEFF 		bl	At_Compliance
 2548              	.LVL335:
 2549 0038 98B1     		cbz	r0, .L189
 392:main.c        **** 				VDAC_Vds_SetValue(j);
 2550              		.loc 2 392 0 discriminator 2
ARM GAS  C:\Users\FRANKL~1\AppData\Local\Temp\ccPy0viy.s 			page 67


 2551 003a A41B     		subs	r4, r4, r6
 2552              	.LVL336:
 2553 003c E4B2     		uxtb	r4, r4
 2554              	.LVL337:
 2555 003e 00E0     		b	.L192
 2556              	.LVL338:
 2557              	.L198:
 2558              	.LBE37:
 2559 0040 3C46     		mov	r4, r7
 2560              	.L192:
 2561              	.LVL339:
 2562              	.LBB38:
 392:main.c        **** 				VDAC_Vds_SetValue(j);
 2563              		.loc 2 392 0 is_stmt 0 discriminator 1
 2564 0042 AC42     		cmp	r4, r5
 2565 0044 F3D1     		bne	.L195
 2566              	.LBE38:
 397:main.c        **** 				Handle_Compliance_Breach();
 2567              		.loc 2 397 0 is_stmt 1
 2568 0046 FFF7FEFF 		bl	At_Compliance
 2569              	.LVL340:
 2570 004a 18B1     		cbz	r0, .L193
 398:main.c        **** 				return;
 2571              		.loc 2 398 0
 2572 004c FFF7FEFF 		bl	Handle_Compliance_Breach
 2573              	.LVL341:
 399:main.c        **** 			}
 2574              		.loc 2 399 0
 2575 0050 BDE8F081 		pop	{r4, r5, r6, r7, r8, pc}
 2576              	.LVL342:
 2577              	.L193:
 403:main.c        **** 	}
 2578              		.loc 2 403 0 discriminator 2
 2579 0054 3846     		mov	r0, r7
 2580 0056 FFF7FEFF 		bl	VDAC_Vds_SetValue
 2581              	.LVL343:
 390:main.c        **** 		if (At_Compliance()) {
 2582              		.loc 2 390 0 discriminator 2
 2583 005a 3744     		add	r7, r7, r6
 2584              	.LVL344:
 2585 005c FFB2     		uxtb	r7, r7
 2586              	.LVL345:
 2587              	.L191:
 390:main.c        **** 		if (At_Compliance()) {
 2588              		.loc 2 390 0 is_stmt 0 discriminator 1
 2589 005e 4745     		cmp	r7, r8
 2590 0060 E1D1     		bne	.L196
 2591              	.L189:
 2592 0062 BDE8F081 		pop	{r4, r5, r6, r7, r8, pc}
 2593              	.LVL346:
 2594              	.L201:
 2595 0066 00BF     		.align	2
 2596              	.L200:
 2597 0068 805B0040 		.word	1073765248
 2598 006c 00000000 		.word	Vds_Index_Goal_Relative
 2599 0070 825B0040 		.word	1073765250
 2600              	.LBE36:
ARM GAS  C:\Users\FRANKL~1\AppData\Local\Temp\ccPy0viy.s 			page 68


 2601              		.cfi_endproc
 2602              	.LFE88:
 2603              		.size	Set_Vds_Raw, .-Set_Vds_Raw
 2604              		.section	.text.Set_Vgs_Raw,"ax",%progbits
 2605              		.align	2
 2606              		.global	Set_Vgs_Raw
 2607              		.thumb
 2608              		.thumb_func
 2609              		.type	Set_Vgs_Raw, %function
 2610              	Set_Vgs_Raw:
 2611              	.LFB89:
 407:main.c        **** 	Vgs_Index_Goal_Relative = (int16)value - (int16)VDAC_Ref_Data;
 2612              		.loc 2 407 0 is_stmt 1
 2613              		.cfi_startproc
 2614              		@ args = 0, pretend = 0, frame = 0
 2615              		@ frame_needed = 0, uses_anonymous_args = 0
 2616              	.LVL347:
 2617 0000 2DE9F041 		push	{r4, r5, r6, r7, r8, lr}
 2618              		.cfi_def_cfa_offset 24
 2619              		.cfi_offset 4, -24
 2620              		.cfi_offset 5, -20
 2621              		.cfi_offset 6, -16
 2622              		.cfi_offset 7, -12
 2623              		.cfi_offset 8, -8
 2624              		.cfi_offset 14, -4
 2625 0004 8046     		mov	r8, r0
 408:main.c        **** 	
 2626              		.loc 2 408 0
 2627 0006 184B     		ldr	r3, .L213
 2628 0008 1B78     		ldrb	r3, [r3]	@ zero_extendqisi2
 2629 000a C31A     		subs	r3, r0, r3
 2630 000c 174A     		ldr	r2, .L213+4
 2631 000e 1380     		strh	r3, [r2]	@ movhi
 2632              	.LVL348:
 411:main.c        **** 	if (value < istart) increment = -1;
 2633              		.loc 2 411 0
 2634 0010 174B     		ldr	r3, .L213+8
 2635 0012 1D78     		ldrb	r5, [r3]	@ zero_extendqisi2
 2636 0014 EDB2     		uxtb	r5, r5
 2637              	.LVL349:
 412:main.c        **** 	
 2638              		.loc 2 412 0
 2639 0016 A842     		cmp	r0, r5
 2640 0018 01D3     		bcc	.L210
 410:main.c        **** 	uint8 istart = VDAC_Vgs_Data;
 2641              		.loc 2 410 0
 2642 001a 0126     		movs	r6, #1
 2643 001c 01E0     		b	.L203
 2644              	.L210:
 412:main.c        **** 	
 2645              		.loc 2 412 0
 2646 001e 4FF0FF36 		mov	r6, #-1
 2647              	.L203:
 2648              	.LVL350:
 2649              	.LBB39:
 414:main.c        **** 		if (At_Compliance()) {
 2650              		.loc 2 414 0
ARM GAS  C:\Users\FRANKL~1\AppData\Local\Temp\ccPy0viy.s 			page 69


 2651 0022 2F46     		mov	r7, r5
 2652 0024 1BE0     		b	.L204
 2653              	.LVL351:
 2654              	.L209:
 415:main.c        **** 			for (uint8 j = i; j != istart; j -= increment) {
 2655              		.loc 2 415 0
 2656 0026 FFF7FEFF 		bl	At_Compliance
 2657              	.LVL352:
 2658 002a 48B9     		cbnz	r0, .L211
 2659 002c 12E0     		b	.L206
 2660              	.LVL353:
 2661              	.L208:
 2662              	.LBB40:
 417:main.c        **** 				
 2663              		.loc 2 417 0
 2664 002e 2046     		mov	r0, r4
 2665 0030 FFF7FEFF 		bl	VDAC_Vgs_SetValue
 2666              	.LVL354:
 419:main.c        **** 			}
 2667              		.loc 2 419 0
 2668 0034 FFF7FEFF 		bl	At_Compliance
 2669              	.LVL355:
 2670 0038 98B1     		cbz	r0, .L202
 416:main.c        **** 				VDAC_Vgs_SetValue(j);
 2671              		.loc 2 416 0 discriminator 2
 2672 003a A41B     		subs	r4, r4, r6
 2673              	.LVL356:
 2674 003c E4B2     		uxtb	r4, r4
 2675              	.LVL357:
 2676 003e 00E0     		b	.L205
 2677              	.LVL358:
 2678              	.L211:
 2679              	.LBE40:
 2680 0040 3C46     		mov	r4, r7
 2681              	.L205:
 2682              	.LVL359:
 2683              	.LBB41:
 416:main.c        **** 				VDAC_Vgs_SetValue(j);
 2684              		.loc 2 416 0 is_stmt 0 discriminator 1
 2685 0042 AC42     		cmp	r4, r5
 2686 0044 F3D1     		bne	.L208
 2687              	.LBE41:
 421:main.c        **** 				Handle_Compliance_Breach();
 2688              		.loc 2 421 0 is_stmt 1
 2689 0046 FFF7FEFF 		bl	At_Compliance
 2690              	.LVL360:
 2691 004a 18B1     		cbz	r0, .L206
 422:main.c        **** 				return;
 2692              		.loc 2 422 0
 2693 004c FFF7FEFF 		bl	Handle_Compliance_Breach
 2694              	.LVL361:
 423:main.c        **** 			}
 2695              		.loc 2 423 0
 2696 0050 BDE8F081 		pop	{r4, r5, r6, r7, r8, pc}
 2697              	.LVL362:
 2698              	.L206:
 427:main.c        **** 	}
ARM GAS  C:\Users\FRANKL~1\AppData\Local\Temp\ccPy0viy.s 			page 70


 2699              		.loc 2 427 0 discriminator 2
 2700 0054 3846     		mov	r0, r7
 2701 0056 FFF7FEFF 		bl	VDAC_Vgs_SetValue
 2702              	.LVL363:
 414:main.c        **** 		if (At_Compliance()) {
 2703              		.loc 2 414 0 discriminator 2
 2704 005a 3744     		add	r7, r7, r6
 2705              	.LVL364:
 2706 005c FFB2     		uxtb	r7, r7
 2707              	.LVL365:
 2708              	.L204:
 414:main.c        **** 		if (At_Compliance()) {
 2709              		.loc 2 414 0 is_stmt 0 discriminator 1
 2710 005e 4745     		cmp	r7, r8
 2711 0060 E1D1     		bne	.L209
 2712              	.L202:
 2713 0062 BDE8F081 		pop	{r4, r5, r6, r7, r8, pc}
 2714              	.LVL366:
 2715              	.L214:
 2716 0066 00BF     		.align	2
 2717              	.L213:
 2718 0068 805B0040 		.word	1073765248
 2719 006c 00000000 		.word	Vgs_Index_Goal_Relative
 2720 0070 835B0040 		.word	1073765251
 2721              	.LBE39:
 2722              		.cfi_endproc
 2723              	.LFE89:
 2724              		.size	Set_Vgs_Raw, .-Set_Vgs_Raw
 2725              		.section	.text.Set_Ref_Raw,"ax",%progbits
 2726              		.align	2
 2727              		.global	Set_Ref_Raw
 2728              		.thumb
 2729              		.thumb_func
 2730              		.type	Set_Ref_Raw, %function
 2731              	Set_Ref_Raw:
 2732              	.LFB90:
 431:main.c        **** 	int8 increment = 1;
 2733              		.loc 2 431 0 is_stmt 1
 2734              		.cfi_startproc
 2735              		@ args = 0, pretend = 0, frame = 0
 2736              		@ frame_needed = 0, uses_anonymous_args = 0
 2737              	.LVL367:
 2738 0000 2DE9F041 		push	{r4, r5, r6, r7, r8, lr}
 2739              		.cfi_def_cfa_offset 24
 2740              		.cfi_offset 4, -24
 2741              		.cfi_offset 5, -20
 2742              		.cfi_offset 6, -16
 2743              		.cfi_offset 7, -12
 2744              		.cfi_offset 8, -8
 2745              		.cfi_offset 14, -4
 2746 0004 0746     		mov	r7, r0
 2747              	.LVL368:
 433:main.c        **** 	
 2748              		.loc 2 433 0
 2749 0006 1A4B     		ldr	r3, .L230
 2750 0008 1B78     		ldrb	r3, [r3]	@ zero_extendqisi2
 2751 000a DBB2     		uxtb	r3, r3
ARM GAS  C:\Users\FRANKL~1\AppData\Local\Temp\ccPy0viy.s 			page 71


 2752 000c 8342     		cmp	r3, r0
 2753 000e 02D8     		bhi	.L224
 432:main.c        **** 	if (value < VDAC_Ref_Data) increment = -1;
 2754              		.loc 2 432 0
 2755 0010 4FF00108 		mov	r8, #1
 2756 0014 01E0     		b	.L216
 2757              	.L224:
 433:main.c        **** 	
 2758              		.loc 2 433 0
 2759 0016 4FF0FF38 		mov	r8, #-1
 2760              	.L216:
 2761              	.LVL369:
 2762              	.LBB42:
 435:main.c        **** 		
 2763              		.loc 2 435 0
 2764 001a 154B     		ldr	r3, .L230
 2765 001c 1E78     		ldrb	r6, [r3]	@ zero_extendqisi2
 2766 001e F6B2     		uxtb	r6, r6
 2767              	.LVL370:
 2768 0020 22E0     		b	.L217
 2769              	.LVL371:
 2770              	.L223:
 2771              	.LBB43:
 437:main.c        **** 		
 2772              		.loc 2 437 0
 2773 0022 FFF7FEFF 		bl	At_Compliance
 2774              	.LVL372:
 2775 0026 08BB     		cbnz	r0, .L215
 439:main.c        **** 		int16 new_Vds = (int16)i + Vds_Index_Goal_Relative;
 2776              		.loc 2 439 0
 2777 0028 B4B2     		uxth	r4, r6
 2778 002a 124B     		ldr	r3, .L230+4
 2779 002c 1D88     		ldrh	r5, [r3]
 2780 002e 2544     		add	r5, r5, r4
 2781 0030 2DB2     		sxth	r5, r5
 2782              	.LVL373:
 440:main.c        **** 		
 2783              		.loc 2 440 0
 2784 0032 114B     		ldr	r3, .L230+8
 2785 0034 1B88     		ldrh	r3, [r3]
 2786 0036 1C44     		add	r4, r4, r3
 2787 0038 24B2     		sxth	r4, r4
 2788              	.LVL374:
 442:main.c        **** 		if (new_Vds > 255) new_Vds = 255;
 2789              		.loc 2 442 0
 2790 003a FF2D     		cmp	r5, #255
 2791 003c 00DD     		ble	.L219
 2792 003e FF25     		movs	r5, #255
 2793              	.LVL375:
 2794              	.L219:
 443:main.c        **** 		
 2795              		.loc 2 443 0
 2796 0040 FF2C     		cmp	r4, #255
 2797 0042 00DD     		ble	.L220
 2798 0044 FF24     		movs	r4, #255
 2799              	.LVL376:
 2800              	.L220:
ARM GAS  C:\Users\FRANKL~1\AppData\Local\Temp\ccPy0viy.s 			page 72


 445:main.c        **** 		if (new_Vds < 0) new_Vds = 0;
 2801              		.loc 2 445 0
 2802 0046 002D     		cmp	r5, #0
 2803 0048 00DA     		bge	.L221
 2804 004a 0025     		movs	r5, #0
 2805              	.LVL377:
 2806              	.L221:
 446:main.c        **** 		
 2807              		.loc 2 446 0
 2808 004c 002C     		cmp	r4, #0
 2809 004e 00DA     		bge	.L222
 2810 0050 0024     		movs	r4, #0
 2811              	.LVL378:
 2812              	.L222:
 448:main.c        **** 		VDAC_Vgs_SetValue(new_Vgs);
 2813              		.loc 2 448 0 discriminator 2
 2814 0052 3046     		mov	r0, r6
 2815 0054 FFF7FEFF 		bl	VDAC_Ref_SetValue
 2816              	.LVL379:
 449:main.c        **** 		VDAC_Vds_SetValue(new_Vds);
 2817              		.loc 2 449 0 discriminator 2
 2818 0058 E8B2     		uxtb	r0, r5
 2819 005a FFF7FEFF 		bl	VDAC_Vgs_SetValue
 2820              	.LVL380:
 450:main.c        **** 	}
 2821              		.loc 2 450 0 discriminator 2
 2822 005e E0B2     		uxtb	r0, r4
 2823 0060 FFF7FEFF 		bl	VDAC_Vds_SetValue
 2824              	.LVL381:
 2825              	.LBE43:
 435:main.c        **** 		
 2826              		.loc 2 435 0 discriminator 2
 2827 0064 4644     		add	r6, r6, r8
 2828              	.LVL382:
 2829 0066 F6B2     		uxtb	r6, r6
 2830              	.LVL383:
 2831              	.L217:
 435:main.c        **** 		
 2832              		.loc 2 435 0 is_stmt 0 discriminator 1
 2833 0068 BE42     		cmp	r6, r7
 2834 006a DAD1     		bne	.L223
 2835              	.L215:
 2836 006c BDE8F081 		pop	{r4, r5, r6, r7, r8, pc}
 2837              	.LVL384:
 2838              	.L231:
 2839              		.align	2
 2840              	.L230:
 2841 0070 805B0040 		.word	1073765248
 2842 0074 00000000 		.word	Vgs_Index_Goal_Relative
 2843 0078 00000000 		.word	Vds_Index_Goal_Relative
 2844              	.LBE42:
 2845              		.cfi_endproc
 2846              	.LFE90:
 2847              		.size	Set_Ref_Raw, .-Set_Ref_Raw
 2848              		.section	.text.Set_Vds_Rel,"ax",%progbits
 2849              		.align	2
 2850              		.global	Set_Vds_Rel
ARM GAS  C:\Users\FRANKL~1\AppData\Local\Temp\ccPy0viy.s 			page 73


 2851              		.thumb
 2852              		.thumb_func
 2853              		.type	Set_Vds_Rel, %function
 2854              	Set_Vds_Rel:
 2855              	.LFB91:
 454:main.c        **** 	if (value > 255) value = 255;
 2856              		.loc 2 454 0 is_stmt 1
 2857              		.cfi_startproc
 2858              		@ args = 0, pretend = 0, frame = 0
 2859              		@ frame_needed = 0, uses_anonymous_args = 0
 2860              	.LVL385:
 2861 0000 10B5     		push	{r4, lr}
 2862              		.cfi_def_cfa_offset 8
 2863              		.cfi_offset 4, -8
 2864              		.cfi_offset 14, -4
 2865 0002 0446     		mov	r4, r0
 455:main.c        **** 	if (value < -255) value = -255;
 2866              		.loc 2 455 0
 2867 0004 FF28     		cmp	r0, #255
 2868 0006 00DD     		ble	.L233
 2869 0008 FF24     		movs	r4, #255
 2870              	.L233:
 2871              	.LVL386:
 456:main.c        **** 	
 2872              		.loc 2 456 0
 2873 000a 14F1FF0F 		cmn	r4, #255
 2874 000e 01DA     		bge	.L234
 2875 0010 6FF0FE04 		mvn	r4, #254
 2876              	.LVL387:
 2877              	.L234:
 458:main.c        **** 	
 2878              		.loc 2 458 0
 2879 0014 114B     		ldr	r3, .L241
 2880 0016 1878     		ldrb	r0, [r3]	@ zero_extendqisi2
 2881 0018 2044     		add	r0, r0, r4
 2882 001a 80B2     		uxth	r0, r0
 2883 001c 03B2     		sxth	r3, r0
 2884              	.LVL388:
 460:main.c        **** 		Set_Ref_Raw(VDAC_Ref_Data - (absolute - 255));
 2885              		.loc 2 460 0
 2886 001e FF2B     		cmp	r3, #255
 2887 0020 0ADD     		ble	.L235
 461:main.c        **** 		Set_Vds_Raw(255);
 2888              		.loc 2 461 0
 2889 0022 0E4B     		ldr	r3, .L241
 2890              	.LVL389:
 2891 0024 1B78     		ldrb	r3, [r3]	@ zero_extendqisi2
 2892 0026 181A     		subs	r0, r3, r0
 2893              	.LVL390:
 2894 0028 0138     		subs	r0, r0, #1
 2895 002a C0B2     		uxtb	r0, r0
 2896 002c FFF7FEFF 		bl	Set_Ref_Raw
 2897              	.LVL391:
 462:main.c        **** 	} else if (absolute < 0) {
 2898              		.loc 2 462 0
 2899 0030 FF20     		movs	r0, #255
 2900 0032 FFF7FEFF 		bl	Set_Vds_Raw
ARM GAS  C:\Users\FRANKL~1\AppData\Local\Temp\ccPy0viy.s 			page 74


 2901              	.LVL392:
 2902 0036 0EE0     		b	.L236
 2903              	.LVL393:
 2904              	.L235:
 463:main.c        **** 		Set_Ref_Raw(VDAC_Ref_Data - absolute);
 2905              		.loc 2 463 0
 2906 0038 002B     		cmp	r3, #0
 2907 003a 09DA     		bge	.L237
 464:main.c        **** 		Set_Vds_Raw(0);
 2908              		.loc 2 464 0
 2909 003c 074B     		ldr	r3, .L241
 2910              	.LVL394:
 2911 003e 1B78     		ldrb	r3, [r3]	@ zero_extendqisi2
 2912 0040 181A     		subs	r0, r3, r0
 2913              	.LVL395:
 2914 0042 C0B2     		uxtb	r0, r0
 2915 0044 FFF7FEFF 		bl	Set_Ref_Raw
 2916              	.LVL396:
 465:main.c        **** 	} else {
 2917              		.loc 2 465 0
 2918 0048 0020     		movs	r0, #0
 2919 004a FFF7FEFF 		bl	Set_Vds_Raw
 2920              	.LVL397:
 2921 004e 02E0     		b	.L236
 2922              	.LVL398:
 2923              	.L237:
 467:main.c        **** 	}
 2924              		.loc 2 467 0
 2925 0050 C0B2     		uxtb	r0, r0
 2926 0052 FFF7FEFF 		bl	Set_Vds_Raw
 2927              	.LVL399:
 2928              	.L236:
 470:main.c        **** }
 2929              		.loc 2 470 0
 2930 0056 024B     		ldr	r3, .L241+4
 2931 0058 1C80     		strh	r4, [r3]	@ movhi
 2932 005a 10BD     		pop	{r4, pc}
 2933              	.LVL400:
 2934              	.L242:
 2935              		.align	2
 2936              	.L241:
 2937 005c 805B0040 		.word	1073765248
 2938 0060 00000000 		.word	Vds_Index_Goal_Relative
 2939              		.cfi_endproc
 2940              	.LFE91:
 2941              		.size	Set_Vds_Rel, .-Set_Vds_Rel
 2942              		.section	.text.Set_Vgs_Rel,"ax",%progbits
 2943              		.align	2
 2944              		.global	Set_Vgs_Rel
 2945              		.thumb
 2946              		.thumb_func
 2947              		.type	Set_Vgs_Rel, %function
 2948              	Set_Vgs_Rel:
 2949              	.LFB92:
 473:main.c        **** 	if (value > 255) value = 255;
 2950              		.loc 2 473 0
 2951              		.cfi_startproc
ARM GAS  C:\Users\FRANKL~1\AppData\Local\Temp\ccPy0viy.s 			page 75


 2952              		@ args = 0, pretend = 0, frame = 0
 2953              		@ frame_needed = 0, uses_anonymous_args = 0
 2954              	.LVL401:
 2955 0000 10B5     		push	{r4, lr}
 2956              		.cfi_def_cfa_offset 8
 2957              		.cfi_offset 4, -8
 2958              		.cfi_offset 14, -4
 2959 0002 0446     		mov	r4, r0
 474:main.c        **** 	if (value < -255) value = -255;
 2960              		.loc 2 474 0
 2961 0004 FF28     		cmp	r0, #255
 2962 0006 00DD     		ble	.L244
 2963 0008 FF24     		movs	r4, #255
 2964              	.L244:
 2965              	.LVL402:
 475:main.c        **** 	
 2966              		.loc 2 475 0
 2967 000a 14F1FF0F 		cmn	r4, #255
 2968 000e 01DA     		bge	.L245
 2969 0010 6FF0FE04 		mvn	r4, #254
 2970              	.LVL403:
 2971              	.L245:
 477:main.c        **** 	
 2972              		.loc 2 477 0
 2973 0014 114B     		ldr	r3, .L252
 2974 0016 1878     		ldrb	r0, [r3]	@ zero_extendqisi2
 2975 0018 2044     		add	r0, r0, r4
 2976 001a 80B2     		uxth	r0, r0
 2977 001c 03B2     		sxth	r3, r0
 2978              	.LVL404:
 479:main.c        **** 		Set_Ref_Raw(VDAC_Ref_Data - (absolute - 255));
 2979              		.loc 2 479 0
 2980 001e FF2B     		cmp	r3, #255
 2981 0020 0ADD     		ble	.L246
 480:main.c        **** 		Set_Vgs_Raw(255);
 2982              		.loc 2 480 0
 2983 0022 0E4B     		ldr	r3, .L252
 2984              	.LVL405:
 2985 0024 1B78     		ldrb	r3, [r3]	@ zero_extendqisi2
 2986 0026 181A     		subs	r0, r3, r0
 2987              	.LVL406:
 2988 0028 0138     		subs	r0, r0, #1
 2989 002a C0B2     		uxtb	r0, r0
 2990 002c FFF7FEFF 		bl	Set_Ref_Raw
 2991              	.LVL407:
 481:main.c        **** 	} else if (absolute < 0) {
 2992              		.loc 2 481 0
 2993 0030 FF20     		movs	r0, #255
 2994 0032 FFF7FEFF 		bl	Set_Vgs_Raw
 2995              	.LVL408:
 2996 0036 0EE0     		b	.L247
 2997              	.LVL409:
 2998              	.L246:
 482:main.c        **** 		Set_Ref_Raw(VDAC_Ref_Data - absolute);
 2999              		.loc 2 482 0
 3000 0038 002B     		cmp	r3, #0
 3001 003a 09DA     		bge	.L248
ARM GAS  C:\Users\FRANKL~1\AppData\Local\Temp\ccPy0viy.s 			page 76


 483:main.c        **** 		Set_Vgs_Raw(0);
 3002              		.loc 2 483 0
 3003 003c 074B     		ldr	r3, .L252
 3004              	.LVL410:
 3005 003e 1B78     		ldrb	r3, [r3]	@ zero_extendqisi2
 3006 0040 181A     		subs	r0, r3, r0
 3007              	.LVL411:
 3008 0042 C0B2     		uxtb	r0, r0
 3009 0044 FFF7FEFF 		bl	Set_Ref_Raw
 3010              	.LVL412:
 484:main.c        **** 	} else {
 3011              		.loc 2 484 0
 3012 0048 0020     		movs	r0, #0
 3013 004a FFF7FEFF 		bl	Set_Vgs_Raw
 3014              	.LVL413:
 3015 004e 02E0     		b	.L247
 3016              	.LVL414:
 3017              	.L248:
 486:main.c        **** 	}
 3018              		.loc 2 486 0
 3019 0050 C0B2     		uxtb	r0, r0
 3020 0052 FFF7FEFF 		bl	Set_Vgs_Raw
 3021              	.LVL415:
 3022              	.L247:
 489:main.c        **** }
 3023              		.loc 2 489 0
 3024 0056 024B     		ldr	r3, .L252+4
 3025 0058 1C80     		strh	r4, [r3]	@ movhi
 3026 005a 10BD     		pop	{r4, pc}
 3027              	.LVL416:
 3028              	.L253:
 3029              		.align	2
 3030              	.L252:
 3031 005c 805B0040 		.word	1073765248
 3032 0060 00000000 		.word	Vgs_Index_Goal_Relative
 3033              		.cfi_endproc
 3034              	.LFE92:
 3035              		.size	Set_Vgs_Rel, .-Set_Vgs_Rel
 3036              		.global	__aeabi_d2iz
 3037              		.section	.text.Set_Vgs,"ax",%progbits
 3038              		.align	2
 3039              		.global	Set_Vgs
 3040              		.thumb
 3041              		.thumb_func
 3042              		.type	Set_Vgs, %function
 3043              	Set_Vgs:
 3044              	.LFB93:
 492:main.c        **** 	Set_Vgs_Rel((voltage/4.080)*255.0);
 3045              		.loc 2 492 0
 3046              		.cfi_startproc
 3047              		@ args = 0, pretend = 0, frame = 0
 3048              		@ frame_needed = 0, uses_anonymous_args = 0
 3049              	.LVL417:
 3050 0000 08B5     		push	{r3, lr}
 3051              		.cfi_def_cfa_offset 8
 3052              		.cfi_offset 3, -8
 3053              		.cfi_offset 14, -4
ARM GAS  C:\Users\FRANKL~1\AppData\Local\Temp\ccPy0viy.s 			page 77


 493:main.c        **** }
 3054              		.loc 2 493 0
 3055 0002 FFF7FEFF 		bl	__aeabi_f2d
 3056              	.LVL418:
 3057 0006 08A3     		adr	r3, .L256
 3058 0008 D3E90023 		ldrd	r2, [r3]
 3059 000c FFF7FEFF 		bl	__aeabi_ddiv
 3060              	.LVL419:
 3061 0010 07A3     		adr	r3, .L256+8
 3062 0012 D3E90023 		ldrd	r2, [r3]
 3063 0016 FFF7FEFF 		bl	__aeabi_dmul
 3064              	.LVL420:
 3065 001a FFF7FEFF 		bl	__aeabi_d2iz
 3066              	.LVL421:
 3067 001e 00B2     		sxth	r0, r0
 3068 0020 FFF7FEFF 		bl	Set_Vgs_Rel
 3069              	.LVL422:
 3070 0024 08BD     		pop	{r3, pc}
 3071              	.L257:
 3072 0026 00BF     		.align	3
 3073              	.L256:
 3074 0028 52B81E85 		.word	-2061584302
 3075 002c EB511040 		.word	1074811371
 3076 0030 00000000 		.word	0
 3077 0034 00E06F40 		.word	1081073664
 3078              		.cfi_endproc
 3079              	.LFE93:
 3080              		.size	Set_Vgs, .-Set_Vgs
 3081              		.section	.text.Set_Vds,"ax",%progbits
 3082              		.align	2
 3083              		.global	Set_Vds
 3084              		.thumb
 3085              		.thumb_func
 3086              		.type	Set_Vds, %function
 3087              	Set_Vds:
 3088              	.LFB94:
 496:main.c        **** 	Set_Vds_Rel((voltage/4.080)*255.0);
 3089              		.loc 2 496 0
 3090              		.cfi_startproc
 3091              		@ args = 0, pretend = 0, frame = 0
 3092              		@ frame_needed = 0, uses_anonymous_args = 0
 3093              	.LVL423:
 3094 0000 08B5     		push	{r3, lr}
 3095              		.cfi_def_cfa_offset 8
 3096              		.cfi_offset 3, -8
 3097              		.cfi_offset 14, -4
 497:main.c        **** }
 3098              		.loc 2 497 0
 3099 0002 FFF7FEFF 		bl	__aeabi_f2d
 3100              	.LVL424:
 3101 0006 08A3     		adr	r3, .L260
 3102 0008 D3E90023 		ldrd	r2, [r3]
 3103 000c FFF7FEFF 		bl	__aeabi_ddiv
 3104              	.LVL425:
 3105 0010 07A3     		adr	r3, .L260+8
 3106 0012 D3E90023 		ldrd	r2, [r3]
 3107 0016 FFF7FEFF 		bl	__aeabi_dmul
ARM GAS  C:\Users\FRANKL~1\AppData\Local\Temp\ccPy0viy.s 			page 78


 3108              	.LVL426:
 3109 001a FFF7FEFF 		bl	__aeabi_d2iz
 3110              	.LVL427:
 3111 001e 00B2     		sxth	r0, r0
 3112 0020 FFF7FEFF 		bl	Set_Vds_Rel
 3113              	.LVL428:
 3114 0024 08BD     		pop	{r3, pc}
 3115              	.L261:
 3116 0026 00BF     		.align	3
 3117              	.L260:
 3118 0028 52B81E85 		.word	-2061584302
 3119 002c EB511040 		.word	1074811371
 3120 0030 00000000 		.word	0
 3121 0034 00E06F40 		.word	1081073664
 3122              		.cfi_endproc
 3123              	.LFE94:
 3124              		.size	Set_Vds, .-Set_Vds
 3125              		.section	.text.Set_Vgs_mV,"ax",%progbits
 3126              		.align	2
 3127              		.global	Set_Vgs_mV
 3128              		.thumb
 3129              		.thumb_func
 3130              		.type	Set_Vgs_mV, %function
 3131              	Set_Vgs_mV:
 3132              	.LFB95:
 500:main.c        **** 	Set_Vgs(mV/1000.0);
 3133              		.loc 2 500 0
 3134              		.cfi_startproc
 3135              		@ args = 0, pretend = 0, frame = 0
 3136              		@ frame_needed = 0, uses_anonymous_args = 0
 3137              	.LVL429:
 3138 0000 08B5     		push	{r3, lr}
 3139              		.cfi_def_cfa_offset 8
 3140              		.cfi_offset 3, -8
 3141              		.cfi_offset 14, -4
 501:main.c        **** }
 3142              		.loc 2 501 0
 3143 0002 0349     		ldr	r1, .L264
 3144 0004 FFF7FEFF 		bl	__aeabi_fdiv
 3145              	.LVL430:
 3146 0008 FFF7FEFF 		bl	Set_Vgs
 3147              	.LVL431:
 3148 000c 08BD     		pop	{r3, pc}
 3149              	.L265:
 3150 000e 00BF     		.align	2
 3151              	.L264:
 3152 0010 00007A44 		.word	1148846080
 3153              		.cfi_endproc
 3154              	.LFE95:
 3155              		.size	Set_Vgs_mV, .-Set_Vgs_mV
 3156              		.section	.text.Set_Vds_mV,"ax",%progbits
 3157              		.align	2
 3158              		.global	Set_Vds_mV
 3159              		.thumb
 3160              		.thumb_func
 3161              		.type	Set_Vds_mV, %function
 3162              	Set_Vds_mV:
ARM GAS  C:\Users\FRANKL~1\AppData\Local\Temp\ccPy0viy.s 			page 79


 3163              	.LFB96:
 504:main.c        **** 	Set_Vds(mV/1000.0);
 3164              		.loc 2 504 0
 3165              		.cfi_startproc
 3166              		@ args = 0, pretend = 0, frame = 0
 3167              		@ frame_needed = 0, uses_anonymous_args = 0
 3168              	.LVL432:
 3169 0000 08B5     		push	{r3, lr}
 3170              		.cfi_def_cfa_offset 8
 3171              		.cfi_offset 3, -8
 3172              		.cfi_offset 14, -4
 505:main.c        **** }
 3173              		.loc 2 505 0
 3174 0002 0349     		ldr	r1, .L268
 3175 0004 FFF7FEFF 		bl	__aeabi_fdiv
 3176              	.LVL433:
 3177 0008 FFF7FEFF 		bl	Set_Vds
 3178              	.LVL434:
 3179 000c 08BD     		pop	{r3, pc}
 3180              	.L269:
 3181 000e 00BF     		.align	2
 3182              	.L268:
 3183 0010 00007A44 		.word	1148846080
 3184              		.cfi_endproc
 3185              	.LFE96:
 3186              		.size	Set_Vds_mV, .-Set_Vds_mV
 3187              		.section	.text.Get_Ref,"ax",%progbits
 3188              		.align	2
 3189              		.global	Get_Ref
 3190              		.thumb
 3191              		.thumb_func
 3192              		.type	Get_Ref, %function
 3193              	Get_Ref:
 3194              	.LFB97:
 508:main.c        **** 	float result = 4.080/255.0*VDAC_Ref_Data;
 3195              		.loc 2 508 0
 3196              		.cfi_startproc
 3197              		@ args = 0, pretend = 0, frame = 0
 3198              		@ frame_needed = 0, uses_anonymous_args = 0
 3199 0000 08B5     		push	{r3, lr}
 3200              		.cfi_def_cfa_offset 8
 3201              		.cfi_offset 3, -8
 3202              		.cfi_offset 14, -4
 509:main.c        **** 	if (VDAC_Ref_CR0 & (VDAC_Ref_RANGE_1V & VDAC_Ref_RANGE_MASK)) {
 3203              		.loc 2 509 0
 3204 0002 094B     		ldr	r3, .L272+8
 3205 0004 1878     		ldrb	r0, [r3]	@ zero_extendqisi2
 3206 0006 FFF7FEFF 		bl	__aeabi_i2d
 3207              	.LVL435:
 3208 000a 05A3     		adr	r3, .L272
 3209 000c D3E90023 		ldrd	r2, [r3]
 3210 0010 FFF7FEFF 		bl	__aeabi_dmul
 3211              	.LVL436:
 3212 0014 FFF7FEFF 		bl	__aeabi_d2f
 3213              	.LVL437:
 510:main.c        **** 		result = 1.020/255.0*VDAC_Ref_Data;
 3214              		.loc 2 510 0
ARM GAS  C:\Users\FRANKL~1\AppData\Local\Temp\ccPy0viy.s 			page 80


 3215 0018 044B     		ldr	r3, .L272+12
 3216 001a 1B78     		ldrb	r3, [r3]	@ zero_extendqisi2
 514:main.c        **** 
 3217              		.loc 2 514 0
 3218 001c 08BD     		pop	{r3, pc}
 3219              	.L273:
 3220 001e 00BF     		.align	3
 3221              	.L272:
 3222 0020 FCA9F1D2 		.word	-755914244
 3223 0024 4D62903F 		.word	1066426957
 3224 0028 805B0040 		.word	1073765248
 3225 002c 20580040 		.word	1073764384
 3226              		.cfi_endproc
 3227              	.LFE97:
 3228              		.size	Get_Ref, .-Get_Ref
 3229              		.section	.text.Get_Vgs,"ax",%progbits
 3230              		.align	2
 3231              		.global	Get_Vgs
 3232              		.thumb
 3233              		.thumb_func
 3234              		.type	Get_Vgs, %function
 3235              	Get_Vgs:
 3236              	.LFB98:
 516:main.c        **** 	float result = 4.080/255.0*VDAC_Vgs_Data - Get_Ref();
 3237              		.loc 2 516 0
 3238              		.cfi_startproc
 3239              		@ args = 0, pretend = 0, frame = 0
 3240              		@ frame_needed = 0, uses_anonymous_args = 0
 3241 0000 38B5     		push	{r3, r4, r5, lr}
 3242              		.cfi_def_cfa_offset 16
 3243              		.cfi_offset 3, -16
 3244              		.cfi_offset 4, -12
 3245              		.cfi_offset 5, -8
 3246              		.cfi_offset 14, -4
 517:main.c        **** 	if (VDAC_Vgs_CR0 & (VDAC_Vgs_RANGE_1V & VDAC_Vgs_RANGE_MASK)) {
 3247              		.loc 2 517 0
 3248 0002 0F4B     		ldr	r3, .L276+8
 3249 0004 1878     		ldrb	r0, [r3]	@ zero_extendqisi2
 3250 0006 FFF7FEFF 		bl	__aeabi_i2d
 3251              	.LVL438:
 3252 000a 0BA3     		adr	r3, .L276
 3253 000c D3E90023 		ldrd	r2, [r3]
 3254 0010 FFF7FEFF 		bl	__aeabi_dmul
 3255              	.LVL439:
 3256 0014 0446     		mov	r4, r0
 3257 0016 0D46     		mov	r5, r1
 3258 0018 FFF7FEFF 		bl	Get_Ref
 3259              	.LVL440:
 3260 001c FFF7FEFF 		bl	__aeabi_f2d
 3261              	.LVL441:
 3262 0020 0246     		mov	r2, r0
 3263 0022 0B46     		mov	r3, r1
 3264 0024 2046     		mov	r0, r4
 3265 0026 2946     		mov	r1, r5
 3266 0028 FFF7FEFF 		bl	__aeabi_dsub
 3267              	.LVL442:
 3268 002c FFF7FEFF 		bl	__aeabi_d2f
ARM GAS  C:\Users\FRANKL~1\AppData\Local\Temp\ccPy0viy.s 			page 81


 3269              	.LVL443:
 518:main.c        **** 		result = 1.020/255.0*VDAC_Vgs_Data - Get_Ref();
 3270              		.loc 2 518 0
 3271 0030 044B     		ldr	r3, .L276+12
 3272 0032 1B78     		ldrb	r3, [r3]	@ zero_extendqisi2
 522:main.c        **** 
 3273              		.loc 2 522 0
 3274 0034 38BD     		pop	{r3, r4, r5, pc}
 3275              	.L277:
 3276 0036 00BF     		.align	3
 3277              	.L276:
 3278 0038 FCA9F1D2 		.word	-755914244
 3279 003c 4D62903F 		.word	1066426957
 3280 0040 835B0040 		.word	1073765251
 3281 0044 2C580040 		.word	1073764396
 3282              		.cfi_endproc
 3283              	.LFE98:
 3284              		.size	Get_Vgs, .-Get_Vgs
 3285              		.section	.text.Get_Vds,"ax",%progbits
 3286              		.align	2
 3287              		.global	Get_Vds
 3288              		.thumb
 3289              		.thumb_func
 3290              		.type	Get_Vds, %function
 3291              	Get_Vds:
 3292              	.LFB99:
 524:main.c        **** 	float result = 4.080/255.0*VDAC_Vds_Data - Get_Ref();
 3293              		.loc 2 524 0
 3294              		.cfi_startproc
 3295              		@ args = 0, pretend = 0, frame = 0
 3296              		@ frame_needed = 0, uses_anonymous_args = 0
 3297 0000 38B5     		push	{r3, r4, r5, lr}
 3298              		.cfi_def_cfa_offset 16
 3299              		.cfi_offset 3, -16
 3300              		.cfi_offset 4, -12
 3301              		.cfi_offset 5, -8
 3302              		.cfi_offset 14, -4
 525:main.c        **** 	if (VDAC_Vds_CR0 & (VDAC_Vds_RANGE_1V & VDAC_Vds_RANGE_MASK)) {
 3303              		.loc 2 525 0
 3304 0002 0F4B     		ldr	r3, .L280+8
 3305 0004 1878     		ldrb	r0, [r3]	@ zero_extendqisi2
 3306 0006 FFF7FEFF 		bl	__aeabi_i2d
 3307              	.LVL444:
 3308 000a 0BA3     		adr	r3, .L280
 3309 000c D3E90023 		ldrd	r2, [r3]
 3310 0010 FFF7FEFF 		bl	__aeabi_dmul
 3311              	.LVL445:
 3312 0014 0446     		mov	r4, r0
 3313 0016 0D46     		mov	r5, r1
 3314 0018 FFF7FEFF 		bl	Get_Ref
 3315              	.LVL446:
 3316 001c FFF7FEFF 		bl	__aeabi_f2d
 3317              	.LVL447:
 3318 0020 0246     		mov	r2, r0
 3319 0022 0B46     		mov	r3, r1
 3320 0024 2046     		mov	r0, r4
 3321 0026 2946     		mov	r1, r5
ARM GAS  C:\Users\FRANKL~1\AppData\Local\Temp\ccPy0viy.s 			page 82


 3322 0028 FFF7FEFF 		bl	__aeabi_dsub
 3323              	.LVL448:
 3324 002c FFF7FEFF 		bl	__aeabi_d2f
 3325              	.LVL449:
 526:main.c        **** 		result = 1.020/255.0*VDAC_Vds_Data - Get_Ref();
 3326              		.loc 2 526 0
 3327 0030 044B     		ldr	r3, .L280+12
 3328 0032 1B78     		ldrb	r3, [r3]	@ zero_extendqisi2
 530:main.c        **** 
 3329              		.loc 2 530 0
 3330 0034 38BD     		pop	{r3, r4, r5, pc}
 3331              	.L281:
 3332 0036 00BF     		.align	3
 3333              	.L280:
 3334 0038 FCA9F1D2 		.word	-755914244
 3335 003c 4D62903F 		.word	1066426957
 3336 0040 825B0040 		.word	1073765250
 3337 0044 28580040 		.word	1073764392
 3338              		.cfi_endproc
 3339              	.LFE99:
 3340              		.size	Get_Vds, .-Get_Vds
 3341              		.section	.text.Zero_All_DACs,"ax",%progbits
 3342              		.align	2
 3343              		.global	Zero_All_DACs
 3344              		.thumb
 3345              		.thumb_func
 3346              		.type	Zero_All_DACs, %function
 3347              	Zero_All_DACs:
 3348              	.LFB100:
 532:main.c        **** 	Set_Vds_Raw(0);
 3349              		.loc 2 532 0
 3350              		.cfi_startproc
 3351              		@ args = 0, pretend = 0, frame = 0
 3352              		@ frame_needed = 0, uses_anonymous_args = 0
 3353 0000 08B5     		push	{r3, lr}
 3354              		.cfi_def_cfa_offset 8
 3355              		.cfi_offset 3, -8
 3356              		.cfi_offset 14, -4
 533:main.c        **** 	Set_Vgs_Raw(0);
 3357              		.loc 2 533 0
 3358 0002 0020     		movs	r0, #0
 3359 0004 FFF7FEFF 		bl	Set_Vds_Raw
 3360              	.LVL450:
 534:main.c        **** 	
 3361              		.loc 2 534 0
 3362 0008 0020     		movs	r0, #0
 3363 000a FFF7FEFF 		bl	Set_Vgs_Raw
 3364              	.LVL451:
 536:main.c        **** 	VDAC_Vgs_SetValue(0);
 3365              		.loc 2 536 0
 3366 000e 0020     		movs	r0, #0
 3367 0010 FFF7FEFF 		bl	VDAC_Vds_SetValue
 3368              	.LVL452:
 537:main.c        **** }
 3369              		.loc 2 537 0
 3370 0014 0020     		movs	r0, #0
 3371 0016 FFF7FEFF 		bl	VDAC_Vgs_SetValue
ARM GAS  C:\Users\FRANKL~1\AppData\Local\Temp\ccPy0viy.s 			page 83


 3372              	.LVL453:
 3373 001a 08BD     		pop	{r3, pc}
 3374              		.cfi_endproc
 3375              	.LFE100:
 3376              		.size	Zero_All_DACs, .-Zero_All_DACs
 3377              		.section	.text.Measure,"ax",%progbits
 3378              		.align	2
 3379              		.global	Measure
 3380              		.thumb
 3381              		.thumb_func
 3382              		.type	Measure, %function
 3383              	Measure:
 3384              	.LFB101:
 540:main.c        **** 	int32 IdsAverage = 0;
 3385              		.loc 2 540 0
 3386              		.cfi_startproc
 3387              		@ args = 0, pretend = 0, frame = 24
 3388              		@ frame_needed = 0, uses_anonymous_args = 0
 3389 0000 2DE9F047 		push	{r4, r5, r6, r7, r8, r9, r10, lr}
 3390              		.cfi_def_cfa_offset 32
 3391              		.cfi_offset 4, -32
 3392              		.cfi_offset 5, -28
 3393              		.cfi_offset 6, -24
 3394              		.cfi_offset 7, -20
 3395              		.cfi_offset 8, -16
 3396              		.cfi_offset 9, -12
 3397              		.cfi_offset 10, -8
 3398              		.cfi_offset 14, -4
 3399 0004 8EB0     		sub	sp, sp, #56
 3400              		.cfi_def_cfa_offset 88
 541:main.c        **** 	int32 IdsStandardDeviation = 0;
 3401              		.loc 2 541 0
 3402 0006 0023     		movs	r3, #0
 3403 0008 0D93     		str	r3, [sp, #52]
 542:main.c        **** 	
 3404              		.loc 2 542 0
 3405 000a 0EA9     		add	r1, sp, #56
 3406 000c 41F8083D 		str	r3, [r1, #-8]!
 544:main.c        **** 	
 3407              		.loc 2 544 0
 3408 0010 6422     		movs	r2, #100
 3409 0012 0DA8     		add	r0, sp, #52
 3410 0014 FFF7FEFF 		bl	ADC_Measure_uV
 3411              	.LVL454:
 546:main.c        **** 	
 3412              		.loc 2 546 0
 3413 0018 0D98     		ldr	r0, [sp, #52]
 3414 001a FFF7FEFF 		bl	__aeabi_i2d
 3415              	.LVL455:
 3416 001e 28A3     		adr	r3, .L286
 3417 0020 D3E90023 		ldrd	r2, [r3]
 3418 0024 FFF7FEFF 		bl	__aeabi_dmul
 3419              	.LVL456:
 3420 0028 FFF7FEFF 		bl	__aeabi_d2f
 3421              	.LVL457:
 3422 002c 0446     		mov	r4, r0
 3423              	.LVL458:
ARM GAS  C:\Users\FRANKL~1\AppData\Local\Temp\ccPy0viy.s 			page 84


 556:main.c        **** 	float SAR1_SD = 0;
 3424              		.loc 2 556 0
 3425 002e 0023     		movs	r3, #0
 3426 0030 0B93     		str	r3, [sp, #44]	@ float
 557:main.c        **** 	float SAR2_Average = 0;
 3427              		.loc 2 557 0
 3428 0032 0A93     		str	r3, [sp, #40]	@ float
 558:main.c        **** 	float SAR2_SD = 0;
 3429              		.loc 2 558 0
 3430 0034 0993     		str	r3, [sp, #36]	@ float
 559:main.c        **** 
 3431              		.loc 2 559 0
 3432 0036 0893     		str	r3, [sp, #32]	@ float
 561:main.c        **** 	SAR2_Measure_V(&SAR2_Average, &SAR2_SD, 10);
 3433              		.loc 2 561 0
 3434 0038 0222     		movs	r2, #2
 3435 003a 0AA9     		add	r1, sp, #40
 3436 003c 0BA8     		add	r0, sp, #44
 3437              	.LVL459:
 3438 003e FFF7FEFF 		bl	SAR1_Measure_V
 3439              	.LVL460:
 562:main.c        **** 
 3440              		.loc 2 562 0
 3441 0042 0A22     		movs	r2, #10
 3442 0044 08A9     		add	r1, sp, #32
 3443 0046 09A8     		add	r0, sp, #36
 3444 0048 FFF7FEFF 		bl	SAR2_Measure_V
 3445              	.LVL461:
 564:main.c        **** 	float SAR2 = SAR2_Average;
 3446              		.loc 2 564 0
 3447 004c DDF82C90 		ldr	r9, [sp, #44]	@ float
 3448              	.LVL462:
 565:main.c        **** 
 3449              		.loc 2 565 0
 3450 0050 DDF824A0 		ldr	r10, [sp, #36]	@ float
 3451              	.LVL463:
 567:main.c        **** 	USBUARTH_Send(TransmitBuffer, strlen(TransmitBuffer));
 3452              		.loc 2 567 0
 3453 0054 FFF7FEFF 		bl	Get_Vgs
 3454              	.LVL464:
 3455 0058 0546     		mov	r5, r0
 3456 005a FFF7FEFF 		bl	Get_Vds
 3457              	.LVL465:
 3458 005e 8046     		mov	r8, r0
 3459 0060 2046     		mov	r0, r4
 3460 0062 FFF7FEFF 		bl	__aeabi_f2d
 3461              	.LVL466:
 3462 0066 0646     		mov	r6, r0
 3463 0068 0F46     		mov	r7, r1
 3464 006a 174C     		ldr	r4, .L286+8
 3465              	.LVL467:
 3466 006c 5046     		mov	r0, r10
 3467 006e FFF7FEFF 		bl	__aeabi_f2d
 3468              	.LVL468:
 3469 0072 CDE90601 		strd	r0, [sp, #24]
 3470 0076 4846     		mov	r0, r9
 3471 0078 FFF7FEFF 		bl	__aeabi_f2d
ARM GAS  C:\Users\FRANKL~1\AppData\Local\Temp\ccPy0viy.s 			page 85


 3472              	.LVL469:
 3473 007c CDE90401 		strd	r0, [sp, #16]
 3474 0080 4046     		mov	r0, r8
 3475 0082 FFF7FEFF 		bl	__aeabi_f2d
 3476              	.LVL470:
 3477 0086 CDE90201 		strd	r0, [sp, #8]
 3478 008a 2846     		mov	r0, r5
 3479 008c FFF7FEFF 		bl	__aeabi_f2d
 3480              	.LVL471:
 3481 0090 CDE90001 		strd	r0, [sp]
 3482 0094 3246     		mov	r2, r6
 3483 0096 3B46     		mov	r3, r7
 3484 0098 0C49     		ldr	r1, .L286+12
 3485 009a 2046     		mov	r0, r4
 3486 009c FFF7FEFF 		bl	sprintf
 3487              	.LVL472:
 568:main.c        **** 	UART_1_PutString(TransmitBuffer);
 3488              		.loc 2 568 0
 3489 00a0 2046     		mov	r0, r4
 3490 00a2 FFF7FEFF 		bl	strlen
 3491              	.LVL473:
 3492 00a6 81B2     		uxth	r1, r0
 3493 00a8 2046     		mov	r0, r4
 3494 00aa FFF7FEFF 		bl	USBUARTH_Send
 3495              	.LVL474:
 569:main.c        **** }
 3496              		.loc 2 569 0
 3497 00ae 2046     		mov	r0, r4
 3498 00b0 FFF7FEFF 		bl	UART_1_PutString
 3499              	.LVL475:
 570:main.c        **** 
 3500              		.loc 2 570 0
 3501 00b4 0EB0     		add	sp, sp, #56
 3502              		.cfi_def_cfa_offset 32
 3503              		@ sp needed
 3504 00b6 BDE8F087 		pop	{r4, r5, r6, r7, r8, r9, r10, pc}
 3505              	.LVL476:
 3506              	.L287:
 3507 00ba 00BFAFF3 		.align	3
 3507      0080
 3508              	.L286:
 3509 00c0 BABDD7D9 		.word	-640172614
 3510 00c4 DF7CCBBD 		.word	-1110737697
 3511 00c8 00000000 		.word	TransmitBuffer
 3512 00cc B0000000 		.word	.LC12
 3513              		.cfi_endproc
 3514              	.LFE101:
 3515              		.size	Measure, .-Measure
 3516              		.section	.text.Measure_Multiple,"ax",%progbits
 3517              		.align	2
 3518              		.global	Measure_Multiple
 3519              		.thumb
 3520              		.thumb_func
 3521              		.type	Measure_Multiple, %function
 3522              	Measure_Multiple:
 3523              	.LFB102:
 572:main.c        **** 	for (uint32 i = 0; i < n; i++) {
ARM GAS  C:\Users\FRANKL~1\AppData\Local\Temp\ccPy0viy.s 			page 86


 3524              		.loc 2 572 0
 3525              		.cfi_startproc
 3526              		@ args = 0, pretend = 0, frame = 0
 3527              		@ frame_needed = 0, uses_anonymous_args = 0
 3528              	.LVL477:
 3529 0000 38B5     		push	{r3, r4, r5, lr}
 3530              		.cfi_def_cfa_offset 16
 3531              		.cfi_offset 3, -16
 3532              		.cfi_offset 4, -12
 3533              		.cfi_offset 5, -8
 3534              		.cfi_offset 14, -4
 3535 0002 0546     		mov	r5, r0
 3536              	.LVL478:
 3537              	.LBB44:
 573:main.c        **** 		Measure();
 3538              		.loc 2 573 0
 3539 0004 0024     		movs	r4, #0
 3540 0006 02E0     		b	.L289
 3541              	.LVL479:
 3542              	.L290:
 574:main.c        **** 	}
 3543              		.loc 2 574 0 discriminator 3
 3544 0008 FFF7FEFF 		bl	Measure
 3545              	.LVL480:
 573:main.c        **** 		Measure();
 3546              		.loc 2 573 0 discriminator 3
 3547 000c 0134     		adds	r4, r4, #1
 3548              	.LVL481:
 3549              	.L289:
 573:main.c        **** 		Measure();
 3550              		.loc 2 573 0 is_stmt 0 discriminator 1
 3551 000e AC42     		cmp	r4, r5
 3552 0010 FAD3     		bcc	.L290
 3553              	.LBE44:
 576:main.c        **** 
 3554              		.loc 2 576 0 is_stmt 1
 3555 0012 38BD     		pop	{r3, r4, r5, pc}
 3556              		.cfi_endproc
 3557              	.LFE102:
 3558              		.size	Measure_Multiple, .-Measure_Multiple
 3559              		.section	.text.Measure_Gate_Sweep_New,"ax",%progbits
 3560              		.align	2
 3561              		.global	Measure_Gate_Sweep_New
 3562              		.thumb
 3563              		.thumb_func
 3564              		.type	Measure_Gate_Sweep_New, %function
 3565              	Measure_Gate_Sweep_New:
 3566              	.LFB103:
 578:main.c        **** 	uint8 refTurn = 1;
 3567              		.loc 2 578 0
 3568              		.cfi_startproc
 3569              		@ args = 0, pretend = 0, frame = 0
 3570              		@ frame_needed = 0, uses_anonymous_args = 0
 3571 0000 2DE9F843 		push	{r3, r4, r5, r6, r7, r8, r9, lr}
 3572              		.cfi_def_cfa_offset 32
 3573              		.cfi_offset 3, -32
 3574              		.cfi_offset 4, -28
ARM GAS  C:\Users\FRANKL~1\AppData\Local\Temp\ccPy0viy.s 			page 87


 3575              		.cfi_offset 5, -24
 3576              		.cfi_offset 6, -20
 3577              		.cfi_offset 7, -16
 3578              		.cfi_offset 8, -12
 3579              		.cfi_offset 9, -8
 3580              		.cfi_offset 14, -4
 3581              	.LVL482:
 590:main.c        **** 	
 3582              		.loc 2 590 0
 3583 0004 0027     		movs	r7, #0
 589:main.c        **** 	uint8 gateArrived = 0;
 3584              		.loc 2 589 0
 3585 0006 3E46     		mov	r6, r7
 584:main.c        **** 	
 3586              		.loc 2 584 0
 3587 0008 B946     		mov	r9, r7
 583:main.c        **** 	uint8 refArrived = 0;
 3588              		.loc 2 583 0
 3589 000a 3D46     		mov	r5, r7
 579:main.c        **** 	int8 refIncrement = 1;
 3590              		.loc 2 579 0
 3591 000c 0124     		movs	r4, #1
 593:main.c        **** 		gateArrived = abs(gateIndex-endGateIndex) < abs(gateIncrement);
 3592              		.loc 2 593 0
 3593 000e 36E0     		b	.L293
 3594              	.LVL483:
 3595              	.L301:
 594:main.c        **** 		refArrived = abs(refIndex-endRefIndex) < abs(refIncrement);
 3596              		.loc 2 594 0
 3597 0010 86EAE673 		eor	r3, r6, r6, asr #31
 3598 0014 A3EBE673 		sub	r3, r3, r6, asr #31
 3599 0018 002B     		cmp	r3, #0
 3600 001a CCBF     		ite	gt
 3601 001c 0027     		movgt	r7, #0
 3602              	.LVL484:
 3603 001e 0127     		movle	r7, #1
 3604              	.LVL485:
 595:main.c        **** 		
 3605              		.loc 2 595 0
 3606 0020 85EAE572 		eor	r2, r5, r5, asr #31
 3607 0024 A2EBE572 		sub	r2, r2, r5, asr #31
 3608 0028 002A     		cmp	r2, #0
 3609 002a CCBF     		ite	gt
 3610 002c 4FF00009 		movgt	r9, #0
 3611              	.LVL486:
 3612 0030 4FF00109 		movle	r9, #1
 3613              	.LVL487:
 597:main.c        **** 		
 3614              		.loc 2 597 0
 3615 0034 002C     		cmp	r4, #0
 3616 0036 0CBF     		ite	eq
 3617 0038 4FF00108 		moveq	r8, #1
 3618 003c 4FF00008 		movne	r8, #0
 3619              	.LVL488:
 599:main.c        **** 		if (!refTurn && gateArrived) continue;
 3620              		.loc 2 599 0
 3621 0040 01D1     		bne	.L294
ARM GAS  C:\Users\FRANKL~1\AppData\Local\Temp\ccPy0viy.s 			page 88


 599:main.c        **** 		if (!refTurn && gateArrived) continue;
 3622              		.loc 2 599 0 is_stmt 0 discriminator 1
 3623 0042 002A     		cmp	r2, #0
 3624 0044 1ADD     		ble	.L295
 3625              	.L294:
 600:main.c        **** 		
 3626              		.loc 2 600 0 is_stmt 1
 3627 0046 0CB1     		cbz	r4, .L296
 600:main.c        **** 		
 3628              		.loc 2 600 0 is_stmt 0 discriminator 1
 3629 0048 002B     		cmp	r3, #0
 3630 004a 17DD     		ble	.L295
 3631              	.L296:
 602:main.c        **** 		Set_Vgs_Raw(gateIndex);
 3632              		.loc 2 602 0 is_stmt 1
 3633 004c 2846     		mov	r0, r5
 3634 004e FFF7FEFF 		bl	Set_Ref_Raw
 3635              	.LVL489:
 603:main.c        **** 		
 3636              		.loc 2 603 0
 3637 0052 3046     		mov	r0, r6
 3638 0054 FFF7FEFF 		bl	Set_Vgs_Raw
 3639              	.LVL490:
 605:main.c        **** 		
 3640              		.loc 2 605 0
 3641 0058 FFF7FEFF 		bl	Measure
 3642              	.LVL491:
 607:main.c        **** 			refIndex += refIncrement;
 3643              		.loc 2 607 0
 3644 005c 14B9     		cbnz	r4, .L297
 608:main.c        **** 		} else {
 3645              		.loc 2 608 0
 3646 005e 0135     		adds	r5, r5, #1
 3647              	.LVL492:
 3648 0060 EDB2     		uxtb	r5, r5
 3649              	.LVL493:
 3650 0062 01E0     		b	.L298
 3651              	.L297:
 610:main.c        **** 		}
 3652              		.loc 2 610 0
 3653 0064 0136     		adds	r6, r6, #1
 3654              	.LVL494:
 3655 0066 F6B2     		uxtb	r6, r6
 3656              	.LVL495:
 3657              	.L298:
 613:main.c        **** 		while (G_Pause);
 3658              		.loc 2 613 0
 3659 0068 084B     		ldr	r3, .L303
 3660 006a 5B78     		ldrb	r3, [r3, #1]	@ zero_extendqisi2
 3661 006c 13F0FF0F 		tst	r3, #255
 3662 0070 0AD1     		bne	.L292
 3663              	.L300:
 614:main.c        **** 	}
 3664              		.loc 2 614 0 discriminator 1
 3665 0072 064B     		ldr	r3, .L303
 3666 0074 DB78     		ldrb	r3, [r3, #3]	@ zero_extendqisi2
 3667 0076 13F0FF0F 		tst	r3, #255
ARM GAS  C:\Users\FRANKL~1\AppData\Local\Temp\ccPy0viy.s 			page 89


 3668 007a FAD1     		bne	.L300
 3669              	.L295:
 578:main.c        **** 	uint8 refTurn = 1;
 3670              		.loc 2 578 0
 3671 007c 4446     		mov	r4, r8
 3672              	.LVL496:
 3673              	.L293:
 593:main.c        **** 		gateArrived = abs(gateIndex-endGateIndex) < abs(gateIncrement);
 3674              		.loc 2 593 0
 3675 007e 002F     		cmp	r7, #0
 3676 0080 C6D0     		beq	.L301
 593:main.c        **** 		gateArrived = abs(gateIndex-endGateIndex) < abs(gateIncrement);
 3677              		.loc 2 593 0 is_stmt 0 discriminator 1
 3678 0082 B9F1000F 		cmp	r9, #0
 3679 0086 C3D0     		beq	.L301
 3680              	.LVL497:
 3681              	.L292:
 3682 0088 BDE8F883 		pop	{r3, r4, r5, r6, r7, r8, r9, pc}
 3683              	.LVL498:
 3684              	.L304:
 3685              		.align	2
 3686              	.L303:
 3687 008c 00000000 		.word	.LANCHOR0
 3688              		.cfi_endproc
 3689              	.LFE103:
 3690              		.size	Measure_Gate_Sweep_New, .-Measure_Gate_Sweep_New
 3691              		.section	.text.Measure_Gate_Sweep,"ax",%progbits
 3692              		.align	2
 3693              		.global	Measure_Gate_Sweep
 3694              		.thumb
 3695              		.thumb_func
 3696              		.type	Measure_Gate_Sweep, %function
 3697              	Measure_Gate_Sweep:
 3698              	.LFB104:
 618:main.c        **** 	
 3699              		.loc 2 618 0 is_stmt 1
 3700              		.cfi_startproc
 3701              		@ args = 0, pretend = 0, frame = 32
 3702              		@ frame_needed = 0, uses_anonymous_args = 0
 3703              	.LVL499:
 3704 0000 2DE9F04F 		push	{r4, r5, r6, r7, r8, r9, r10, fp, lr}
 3705              		.cfi_def_cfa_offset 36
 3706              		.cfi_offset 4, -36
 3707              		.cfi_offset 5, -32
 3708              		.cfi_offset 6, -28
 3709              		.cfi_offset 7, -24
 3710              		.cfi_offset 8, -20
 3711              		.cfi_offset 9, -16
 3712              		.cfi_offset 10, -12
 3713              		.cfi_offset 11, -8
 3714              		.cfi_offset 14, -4
 3715 0004 91B0     		sub	sp, sp, #68
 3716              		.cfi_def_cfa_offset 104
 3717 0006 0D90     		str	r0, [sp, #52]
 620:main.c        **** 		Set_Ref_Raw(254 - Vds_Index_Goal_Relative);
 3718              		.loc 2 620 0
 3719 0008 594B     		ldr	r3, .L323+8
ARM GAS  C:\Users\FRANKL~1\AppData\Local\Temp\ccPy0viy.s 			page 90


 3720 000a B3F90030 		ldrsh	r3, [r3]
 3721 000e 002B     		cmp	r3, #0
 3722 0010 07DD     		ble	.L306
 621:main.c        **** 	} else {
 3723              		.loc 2 621 0
 3724 0012 C3F1FE00 		rsb	r0, r3, #254
 3725              	.LVL500:
 3726 0016 C0B2     		uxtb	r0, r0
 3727 0018 FFF7FEFF 		bl	Set_Ref_Raw
 3728              	.LVL501:
 3729              	.L308:
 3730              	.LBB45:
 3731              	.LBB46:
 3732              	.LBB47:
 3733 001c 0023     		movs	r3, #0
 3734 001e 0C93     		str	r3, [sp, #48]
 3735 0020 97E0     		b	.L307
 3736              	.LVL502:
 3737              	.L306:
 3738              	.LBE47:
 3739              	.LBE46:
 3740              	.LBE45:
 623:main.c        **** 	}
 3741              		.loc 2 623 0
 3742 0022 FE20     		movs	r0, #254
 3743              	.LVL503:
 3744 0024 FFF7FEFF 		bl	Set_Ref_Raw
 3745              	.LVL504:
 3746 0028 F8E7     		b	.L308
 3747              	.LVL505:
 3748              	.L319:
 3749              	.LBB53:
 3750              	.LBB52:
 637:main.c        **** 			direction = -1*speed;
 3751              		.loc 2 637 0
 3752 002a 0C9B     		ldr	r3, [sp, #48]
 3753 002c 13F0010F 		tst	r3, #1
 3754 0030 07D1     		bne	.L320
 635:main.c        **** 		
 3755              		.loc 2 635 0
 3756 0032 4FF0F008 		mov	r8, #240
 630:main.c        **** 		if (Vds_Index_Goal_Relative < 0) {
 3757              		.loc 2 630 0
 3758 0036 0027     		movs	r7, #0
 629:main.c        **** 		uint8 istart = 0;
 3759              		.loc 2 629 0
 3760 0038 1026     		movs	r6, #16
 3761 003a 3B46     		mov	r3, r7
 3762 003c 4746     		mov	r7, r8
 3763 003e 9846     		mov	r8, r3
 3764 0040 81E0     		b	.L310
 3765              	.L320:
 640:main.c        **** 		}
 3766              		.loc 2 640 0
 3767 0042 4FF00008 		mov	r8, #0
 639:main.c        **** 			istop = 0;
 3768              		.loc 2 639 0
ARM GAS  C:\Users\FRANKL~1\AppData\Local\Temp\ccPy0viy.s 			page 91


 3769 0046 F027     		movs	r7, #240
 638:main.c        **** 			istart = 256-speed;
 3770              		.loc 2 638 0
 3771 0048 6FF00F06 		mvn	r6, #15
 3772              	.LVL506:
 3773 004c 3B46     		mov	r3, r7
 3774 004e 4746     		mov	r7, r8
 3775              	.LVL507:
 3776 0050 9846     		mov	r8, r3
 3777              	.LVL508:
 3778              	.LBB51:
 643:main.c        **** 			for (uint8 j = 0; j <= 1; j++) {
 3779              		.loc 2 643 0
 3780 0052 78E0     		b	.L310
 3781              	.LVL509:
 3782              	.L318:
 3783              	.LBB48:
 3784              	.LBB49:
 645:main.c        **** 				int32 IdsStandardDeviation = 0;
 3785              		.loc 2 645 0
 3786 0054 0023     		movs	r3, #0
 3787 0056 0E93     		str	r3, [sp, #56]
 646:main.c        **** 				
 3788              		.loc 2 646 0
 3789 0058 0F93     		str	r3, [sp, #60]
 648:main.c        **** 				Set_Vgs_Raw(i);
 3790              		.loc 2 648 0
 3791 005a 012C     		cmp	r4, #1
 3792 005c 04D1     		bne	.L311
 648:main.c        **** 				Set_Vgs_Raw(i);
 3793              		.loc 2 648 0 is_stmt 0 discriminator 1
 3794 005e 6FEA0800 		mvn	r0, r8
 3795 0062 C0B2     		uxtb	r0, r0
 3796 0064 FFF7FEFF 		bl	Set_Ref_Raw
 3797              	.LVL510:
 3798              	.L311:
 649:main.c        **** 				
 3799              		.loc 2 649 0 is_stmt 1
 3800 0068 4046     		mov	r0, r8
 3801 006a FFF7FEFF 		bl	Set_Vgs_Raw
 3802              	.LVL511:
 651:main.c        **** 				
 3803              		.loc 2 651 0
 3804 006e 2122     		movs	r2, #33
 3805 0070 0FA9     		add	r1, sp, #60
 3806 0072 0EA8     		add	r0, sp, #56
 3807 0074 FFF7FEFF 		bl	ADC_Measure_uV
 3808              	.LVL512:
 653:main.c        **** 				
 3809              		.loc 2 653 0
 3810 0078 0E98     		ldr	r0, [sp, #56]
 3811 007a FFF7FEFF 		bl	__aeabi_i2d
 3812              	.LVL513:
 3813 007e 3AA3     		adr	r3, .L323
 3814 0080 D3E90023 		ldrd	r2, [r3]
 3815 0084 FFF7FEFF 		bl	__aeabi_dmul
 3816              	.LVL514:
ARM GAS  C:\Users\FRANKL~1\AppData\Local\Temp\ccPy0viy.s 			page 92


 3817 0088 FFF7FEFF 		bl	__aeabi_d2f
 3818              	.LVL515:
 3819 008c 0546     		mov	r5, r0
 3820              	.LVL516:
 655:main.c        **** 				ADC_SAR_2_StartConvert();
 3821              		.loc 2 655 0
 3822 008e FFF7FEFF 		bl	ADC_SAR_1_StartConvert
 3823              	.LVL517:
 656:main.c        **** 				while (!ADC_SAR_1_IsEndConversion(ADC_SAR_1_RETURN_STATUS));
 3824              		.loc 2 656 0
 3825 0092 FFF7FEFF 		bl	ADC_SAR_2_StartConvert
 3826              	.LVL518:
 3827              	.L312:
 657:main.c        **** 				while (!ADC_SAR_2_IsEndConversion(ADC_SAR_2_RETURN_STATUS));
 3828              		.loc 2 657 0 discriminator 1
 3829 0096 0120     		movs	r0, #1
 3830 0098 FFF7FEFF 		bl	ADC_SAR_1_IsEndConversion
 3831              	.LVL519:
 3832 009c 0028     		cmp	r0, #0
 3833 009e FAD0     		beq	.L312
 3834              	.L313:
 658:main.c        **** 				
 3835              		.loc 2 658 0 discriminator 1
 3836 00a0 0120     		movs	r0, #1
 3837 00a2 FFF7FEFF 		bl	ADC_SAR_2_IsEndConversion
 3838              	.LVL520:
 3839 00a6 0028     		cmp	r0, #0
 3840 00a8 FAD0     		beq	.L313
 660:main.c        **** 				float SAR2 = ADC_SAR_2_CountsTo_Volts(ADC_SAR_2_GetResult16());
 3841              		.loc 2 660 0
 3842 00aa FFF7FEFF 		bl	ADC_SAR_1_GetResult16
 3843              	.LVL521:
 3844 00ae FFF7FEFF 		bl	ADC_SAR_1_CountsTo_Volts
 3845              	.LVL522:
 3846 00b2 8246     		mov	r10, r0
 3847              	.LVL523:
 661:main.c        **** 				
 3848              		.loc 2 661 0
 3849 00b4 FFF7FEFF 		bl	ADC_SAR_2_GetResult16
 3850              	.LVL524:
 3851 00b8 FFF7FEFF 		bl	ADC_SAR_2_CountsTo_Volts
 3852              	.LVL525:
 3853 00bc 8346     		mov	fp, r0
 3854              	.LVL526:
 663:main.c        **** 				USBUARTH_Send(TransmitBuffer, strlen(TransmitBuffer));
 3855              		.loc 2 663 0
 3856 00be FFF7FEFF 		bl	Get_Vgs
 3857              	.LVL527:
 3858 00c2 0990     		str	r0, [sp, #36]	@ float
 3859 00c4 FFF7FEFF 		bl	Get_Vds
 3860              	.LVL528:
 3861 00c8 8146     		mov	r9, r0
 3862 00ca 2846     		mov	r0, r5
 3863 00cc FFF7FEFF 		bl	__aeabi_f2d
 3864              	.LVL529:
 3865 00d0 CDE90A01 		strd	r0, [sp, #40]
 3866 00d4 274D     		ldr	r5, .L323+12
ARM GAS  C:\Users\FRANKL~1\AppData\Local\Temp\ccPy0viy.s 			page 93


 3867              	.LVL530:
 3868 00d6 5846     		mov	r0, fp
 3869 00d8 FFF7FEFF 		bl	__aeabi_f2d
 3870              	.LVL531:
 3871 00dc CDE90601 		strd	r0, [sp, #24]
 3872 00e0 5046     		mov	r0, r10
 3873 00e2 FFF7FEFF 		bl	__aeabi_f2d
 3874              	.LVL532:
 3875 00e6 CDE90401 		strd	r0, [sp, #16]
 3876 00ea 4846     		mov	r0, r9
 3877 00ec FFF7FEFF 		bl	__aeabi_f2d
 3878              	.LVL533:
 3879 00f0 CDE90201 		strd	r0, [sp, #8]
 3880 00f4 0998     		ldr	r0, [sp, #36]	@ float
 3881 00f6 FFF7FEFF 		bl	__aeabi_f2d
 3882              	.LVL534:
 3883 00fa CDE90001 		strd	r0, [sp]
 3884 00fe DDE90A23 		ldrd	r2, [sp, #40]
 3885 0102 1D49     		ldr	r1, .L323+16
 3886 0104 2846     		mov	r0, r5
 3887 0106 FFF7FEFF 		bl	sprintf
 3888              	.LVL535:
 664:main.c        **** 				UART_1_PutString(TransmitBuffer);
 3889              		.loc 2 664 0
 3890 010a 2846     		mov	r0, r5
 3891 010c FFF7FEFF 		bl	strlen
 3892              	.LVL536:
 3893 0110 81B2     		uxth	r1, r0
 3894 0112 2846     		mov	r0, r5
 3895 0114 FFF7FEFF 		bl	USBUARTH_Send
 3896              	.LVL537:
 665:main.c        **** 				
 3897              		.loc 2 665 0
 3898 0118 2846     		mov	r0, r5
 3899 011a FFF7FEFF 		bl	UART_1_PutString
 3900              	.LVL538:
 667:main.c        **** 				while (G_Pause);
 3901              		.loc 2 667 0
 3902 011e 174B     		ldr	r3, .L323+20
 3903 0120 5B78     		ldrb	r3, [r3, #1]	@ zero_extendqisi2
 3904 0122 13F0FF0F 		tst	r3, #255
 3905 0126 0AD1     		bne	.L317
 3906              	.L315:
 668:main.c        **** 			}
 3907              		.loc 2 668 0 discriminator 1
 3908 0128 144B     		ldr	r3, .L323+20
 3909 012a DB78     		ldrb	r3, [r3, #3]	@ zero_extendqisi2
 3910 012c 13F0FF0F 		tst	r3, #255
 3911 0130 FAD1     		bne	.L315
 3912              	.LBE49:
 644:main.c        **** 				int32 IdsAverage = 0;
 3913              		.loc 2 644 0
 3914 0132 0134     		adds	r4, r4, #1
 3915              	.LVL539:
 3916 0134 E4B2     		uxtb	r4, r4
 3917              	.LVL540:
 3918 0136 00E0     		b	.L316
ARM GAS  C:\Users\FRANKL~1\AppData\Local\Temp\ccPy0viy.s 			page 94


 3919              	.LVL541:
 3920              	.L321:
 3921              	.LBE48:
 3922 0138 0024     		movs	r4, #0
 3923              	.L316:
 3924              	.LVL542:
 3925              	.LBB50:
 644:main.c        **** 				int32 IdsAverage = 0;
 3926              		.loc 2 644 0 is_stmt 0 discriminator 1
 3927 013a 012C     		cmp	r4, #1
 3928 013c 8AD9     		bls	.L318
 3929              	.L317:
 3930              	.LBE50:
 643:main.c        **** 			for (uint8 j = 0; j <= 1; j++) {
 3931              		.loc 2 643 0 is_stmt 1 discriminator 2
 3932 013e 08EB0603 		add	r3, r8, r6
 3933 0142 5FFA83F8 		uxtb	r8, r3
 3934              	.LVL543:
 3935              	.L310:
 643:main.c        **** 			for (uint8 j = 0; j <= 1; j++) {
 3936              		.loc 2 643 0 is_stmt 0 discriminator 1
 3937 0146 4745     		cmp	r7, r8
 3938 0148 F6D1     		bne	.L321
 3939              	.LBE51:
 3940              	.LBE52:
 628:main.c        **** 		int8 direction = 1*speed;
 3941              		.loc 2 628 0 is_stmt 1 discriminator 2
 3942 014a 0C9B     		ldr	r3, [sp, #48]
 3943 014c 0133     		adds	r3, r3, #1
 3944 014e DBB2     		uxtb	r3, r3
 3945 0150 0C93     		str	r3, [sp, #48]
 3946              	.LVL544:
 3947              	.L307:
 628:main.c        **** 		int8 direction = 1*speed;
 3948              		.loc 2 628 0 is_stmt 0 discriminator 1
 3949 0152 0C9B     		ldr	r3, [sp, #48]
 3950 0154 0D9A     		ldr	r2, [sp, #52]
 3951 0156 9342     		cmp	r3, r2
 3952 0158 7FF667AF 		bls	.L319
 3953              	.LBE53:
 672:main.c        **** 
 3954              		.loc 2 672 0 is_stmt 1
 3955 015c 11B0     		add	sp, sp, #68
 3956              		.cfi_def_cfa_offset 36
 3957              		@ sp needed
 3958 015e BDE8F08F 		pop	{r4, r5, r6, r7, r8, r9, r10, fp, pc}
 3959              	.LVL545:
 3960              	.L324:
 3961 0162 00BFAFF3 		.align	3
 3961      0080
 3962              	.L323:
 3963 0168 BABDD7D9 		.word	-640172614
 3964 016c DF7CCBBD 		.word	-1110737697
 3965 0170 00000000 		.word	Vds_Index_Goal_Relative
 3966 0174 00000000 		.word	TransmitBuffer
 3967 0178 B0000000 		.word	.LC12
 3968 017c 00000000 		.word	.LANCHOR0
ARM GAS  C:\Users\FRANKL~1\AppData\Local\Temp\ccPy0viy.s 			page 95


 3969              		.cfi_endproc
 3970              	.LFE104:
 3971              		.size	Measure_Gate_Sweep, .-Measure_Gate_Sweep
 3972              		.section	.text.Measure_Wide_Gate_Sweep,"ax",%progbits
 3973              		.align	2
 3974              		.global	Measure_Wide_Gate_Sweep
 3975              		.thumb
 3976              		.thumb_func
 3977              		.type	Measure_Wide_Gate_Sweep, %function
 3978              	Measure_Wide_Gate_Sweep:
 3979              	.LFB105:
 674:main.c        **** 	Set_Ref_Raw(254);
 3980              		.loc 2 674 0
 3981              		.cfi_startproc
 3982              		@ args = 0, pretend = 0, frame = 32
 3983              		@ frame_needed = 0, uses_anonymous_args = 0
 3984              	.LVL546:
 3985 0000 2DE9F04F 		push	{r4, r5, r6, r7, r8, r9, r10, fp, lr}
 3986              		.cfi_def_cfa_offset 36
 3987              		.cfi_offset 4, -36
 3988              		.cfi_offset 5, -32
 3989              		.cfi_offset 6, -28
 3990              		.cfi_offset 7, -24
 3991              		.cfi_offset 8, -20
 3992              		.cfi_offset 9, -16
 3993              		.cfi_offset 10, -12
 3994              		.cfi_offset 11, -8
 3995              		.cfi_offset 14, -4
 3996 0004 91B0     		sub	sp, sp, #68
 3997              		.cfi_def_cfa_offset 104
 3998 0006 0D90     		str	r0, [sp, #52]
 675:main.c        **** 	
 3999              		.loc 2 675 0
 4000 0008 FE20     		movs	r0, #254
 4001              	.LVL547:
 4002 000a FFF7FEFF 		bl	Set_Ref_Raw
 4003              	.LVL548:
 4004              	.LBB54:
 679:main.c        **** 		int8 direction = 1*speed;
 4005              		.loc 2 679 0
 4006 000e 0023     		movs	r3, #0
 4007 0010 0C93     		str	r3, [sp, #48]
 4008 0012 93E0     		b	.L326
 4009              	.LVL549:
 4010              	.L337:
 4011              	.LBB55:
 684:main.c        **** 			direction = -1*speed;
 4012              		.loc 2 684 0
 4013 0014 0C9B     		ldr	r3, [sp, #48]
 4014 0016 13F0010F 		tst	r3, #1
 4015 001a 07D1     		bne	.L338
 682:main.c        **** 		
 4016              		.loc 2 682 0
 4017 001c 4FF0F008 		mov	r8, #240
 681:main.c        **** 		uint8 istop = 256-speed;
 4018              		.loc 2 681 0
 4019 0020 0027     		movs	r7, #0
ARM GAS  C:\Users\FRANKL~1\AppData\Local\Temp\ccPy0viy.s 			page 96


 680:main.c        **** 		uint8 istart = 0;
 4020              		.loc 2 680 0
 4021 0022 1026     		movs	r6, #16
 4022 0024 3B46     		mov	r3, r7
 4023 0026 4746     		mov	r7, r8
 4024 0028 9846     		mov	r8, r3
 4025 002a 81E0     		b	.L328
 4026              	.L338:
 687:main.c        **** 		}
 4027              		.loc 2 687 0
 4028 002c 4FF00008 		mov	r8, #0
 686:main.c        **** 			istop = 0;
 4029              		.loc 2 686 0
 4030 0030 F027     		movs	r7, #240
 685:main.c        **** 			istart = 256-speed;
 4031              		.loc 2 685 0
 4032 0032 6FF00F06 		mvn	r6, #15
 4033              	.LVL550:
 4034 0036 3B46     		mov	r3, r7
 4035 0038 4746     		mov	r7, r8
 4036              	.LVL551:
 4037 003a 9846     		mov	r8, r3
 4038              	.LVL552:
 4039              	.LBB56:
 690:main.c        **** 			for (uint8 j = 0; j <= 1; j++) {
 4040              		.loc 2 690 0
 4041 003c 78E0     		b	.L328
 4042              	.LVL553:
 4043              	.L336:
 4044              	.LBB57:
 4045              	.LBB58:
 692:main.c        **** 				int32 IdsStandardDeviation = 0;
 4046              		.loc 2 692 0
 4047 003e 0023     		movs	r3, #0
 4048 0040 0E93     		str	r3, [sp, #56]
 693:main.c        **** 				
 4049              		.loc 2 693 0
 4050 0042 0F93     		str	r3, [sp, #60]
 695:main.c        **** 				Set_Vgs_Raw(i);
 4051              		.loc 2 695 0
 4052 0044 012C     		cmp	r4, #1
 4053 0046 04D1     		bne	.L329
 695:main.c        **** 				Set_Vgs_Raw(i);
 4054              		.loc 2 695 0 is_stmt 0 discriminator 1
 4055 0048 6FEA0800 		mvn	r0, r8
 4056 004c C0B2     		uxtb	r0, r0
 4057 004e FFF7FEFF 		bl	Set_Ref_Raw
 4058              	.LVL554:
 4059              	.L329:
 696:main.c        **** 				
 4060              		.loc 2 696 0 is_stmt 1
 4061 0052 4046     		mov	r0, r8
 4062 0054 FFF7FEFF 		bl	Set_Vgs_Raw
 4063              	.LVL555:
 698:main.c        **** 				
 4064              		.loc 2 698 0
 4065 0058 2122     		movs	r2, #33
ARM GAS  C:\Users\FRANKL~1\AppData\Local\Temp\ccPy0viy.s 			page 97


 4066 005a 0FA9     		add	r1, sp, #60
 4067 005c 0EA8     		add	r0, sp, #56
 4068 005e FFF7FEFF 		bl	ADC_Measure_uV
 4069              	.LVL556:
 700:main.c        **** 				
 4070              		.loc 2 700 0
 4071 0062 0E98     		ldr	r0, [sp, #56]
 4072 0064 FFF7FEFF 		bl	__aeabi_i2d
 4073              	.LVL557:
 4074 0068 39A3     		adr	r3, .L341
 4075 006a D3E90023 		ldrd	r2, [r3]
 4076 006e FFF7FEFF 		bl	__aeabi_dmul
 4077              	.LVL558:
 4078 0072 FFF7FEFF 		bl	__aeabi_d2f
 4079              	.LVL559:
 4080 0076 0546     		mov	r5, r0
 4081              	.LVL560:
 702:main.c        **** 				ADC_SAR_2_StartConvert();
 4082              		.loc 2 702 0
 4083 0078 FFF7FEFF 		bl	ADC_SAR_1_StartConvert
 4084              	.LVL561:
 703:main.c        **** 				while (!ADC_SAR_1_IsEndConversion(ADC_SAR_1_RETURN_STATUS));
 4085              		.loc 2 703 0
 4086 007c FFF7FEFF 		bl	ADC_SAR_2_StartConvert
 4087              	.LVL562:
 4088              	.L330:
 704:main.c        **** 				while (!ADC_SAR_2_IsEndConversion(ADC_SAR_2_RETURN_STATUS));
 4089              		.loc 2 704 0 discriminator 1
 4090 0080 0120     		movs	r0, #1
 4091 0082 FFF7FEFF 		bl	ADC_SAR_1_IsEndConversion
 4092              	.LVL563:
 4093 0086 0028     		cmp	r0, #0
 4094 0088 FAD0     		beq	.L330
 4095              	.L331:
 705:main.c        **** 				
 4096              		.loc 2 705 0 discriminator 1
 4097 008a 0120     		movs	r0, #1
 4098 008c FFF7FEFF 		bl	ADC_SAR_2_IsEndConversion
 4099              	.LVL564:
 4100 0090 0028     		cmp	r0, #0
 4101 0092 FAD0     		beq	.L331
 707:main.c        **** 				float SAR2 = ADC_SAR_2_CountsTo_Volts(ADC_SAR_2_GetResult16());
 4102              		.loc 2 707 0
 4103 0094 FFF7FEFF 		bl	ADC_SAR_1_GetResult16
 4104              	.LVL565:
 4105 0098 FFF7FEFF 		bl	ADC_SAR_1_CountsTo_Volts
 4106              	.LVL566:
 4107 009c 8246     		mov	r10, r0
 4108              	.LVL567:
 708:main.c        **** 				
 4109              		.loc 2 708 0
 4110 009e FFF7FEFF 		bl	ADC_SAR_2_GetResult16
 4111              	.LVL568:
 4112 00a2 FFF7FEFF 		bl	ADC_SAR_2_CountsTo_Volts
 4113              	.LVL569:
 4114 00a6 8346     		mov	fp, r0
 4115              	.LVL570:
ARM GAS  C:\Users\FRANKL~1\AppData\Local\Temp\ccPy0viy.s 			page 98


 710:main.c        **** 				USBUARTH_Send(TransmitBuffer, strlen(TransmitBuffer));
 4116              		.loc 2 710 0
 4117 00a8 FFF7FEFF 		bl	Get_Vgs
 4118              	.LVL571:
 4119 00ac 0990     		str	r0, [sp, #36]	@ float
 4120 00ae FFF7FEFF 		bl	Get_Vds
 4121              	.LVL572:
 4122 00b2 8146     		mov	r9, r0
 4123 00b4 2846     		mov	r0, r5
 4124 00b6 FFF7FEFF 		bl	__aeabi_f2d
 4125              	.LVL573:
 4126 00ba CDE90A01 		strd	r0, [sp, #40]
 4127 00be 264D     		ldr	r5, .L341+8
 4128              	.LVL574:
 4129 00c0 5846     		mov	r0, fp
 4130 00c2 FFF7FEFF 		bl	__aeabi_f2d
 4131              	.LVL575:
 4132 00c6 CDE90601 		strd	r0, [sp, #24]
 4133 00ca 5046     		mov	r0, r10
 4134 00cc FFF7FEFF 		bl	__aeabi_f2d
 4135              	.LVL576:
 4136 00d0 CDE90401 		strd	r0, [sp, #16]
 4137 00d4 4846     		mov	r0, r9
 4138 00d6 FFF7FEFF 		bl	__aeabi_f2d
 4139              	.LVL577:
 4140 00da CDE90201 		strd	r0, [sp, #8]
 4141 00de 0998     		ldr	r0, [sp, #36]	@ float
 4142 00e0 FFF7FEFF 		bl	__aeabi_f2d
 4143              	.LVL578:
 4144 00e4 CDE90001 		strd	r0, [sp]
 4145 00e8 DDE90A23 		ldrd	r2, [sp, #40]
 4146 00ec 1B49     		ldr	r1, .L341+12
 4147 00ee 2846     		mov	r0, r5
 4148 00f0 FFF7FEFF 		bl	sprintf
 4149              	.LVL579:
 711:main.c        **** 				UART_1_PutString(TransmitBuffer);
 4150              		.loc 2 711 0
 4151 00f4 2846     		mov	r0, r5
 4152 00f6 FFF7FEFF 		bl	strlen
 4153              	.LVL580:
 4154 00fa 81B2     		uxth	r1, r0
 4155 00fc 2846     		mov	r0, r5
 4156 00fe FFF7FEFF 		bl	USBUARTH_Send
 4157              	.LVL581:
 712:main.c        **** 				
 4158              		.loc 2 712 0
 4159 0102 2846     		mov	r0, r5
 4160 0104 FFF7FEFF 		bl	UART_1_PutString
 4161              	.LVL582:
 714:main.c        **** 				while (G_Pause);
 4162              		.loc 2 714 0
 4163 0108 154B     		ldr	r3, .L341+16
 4164 010a 5B78     		ldrb	r3, [r3, #1]	@ zero_extendqisi2
 4165 010c 13F0FF0F 		tst	r3, #255
 4166 0110 0AD1     		bne	.L335
 4167              	.L333:
 715:main.c        **** 			}
ARM GAS  C:\Users\FRANKL~1\AppData\Local\Temp\ccPy0viy.s 			page 99


 4168              		.loc 2 715 0 discriminator 1
 4169 0112 134B     		ldr	r3, .L341+16
 4170 0114 DB78     		ldrb	r3, [r3, #3]	@ zero_extendqisi2
 4171 0116 13F0FF0F 		tst	r3, #255
 4172 011a FAD1     		bne	.L333
 4173              	.LBE58:
 691:main.c        **** 				int32 IdsAverage = 0;
 4174              		.loc 2 691 0
 4175 011c 0134     		adds	r4, r4, #1
 4176              	.LVL583:
 4177 011e E4B2     		uxtb	r4, r4
 4178              	.LVL584:
 4179 0120 00E0     		b	.L334
 4180              	.LVL585:
 4181              	.L339:
 4182              	.LBE57:
 4183 0122 0024     		movs	r4, #0
 4184              	.L334:
 4185              	.LVL586:
 4186              	.LBB59:
 691:main.c        **** 				int32 IdsAverage = 0;
 4187              		.loc 2 691 0 is_stmt 0 discriminator 1
 4188 0124 012C     		cmp	r4, #1
 4189 0126 8AD9     		bls	.L336
 4190              	.L335:
 4191              	.LBE59:
 690:main.c        **** 			for (uint8 j = 0; j <= 1; j++) {
 4192              		.loc 2 690 0 is_stmt 1 discriminator 2
 4193 0128 08EB0603 		add	r3, r8, r6
 4194 012c 5FFA83F8 		uxtb	r8, r3
 4195              	.LVL587:
 4196              	.L328:
 690:main.c        **** 			for (uint8 j = 0; j <= 1; j++) {
 4197              		.loc 2 690 0 is_stmt 0 discriminator 1
 4198 0130 4745     		cmp	r7, r8
 4199 0132 F6D1     		bne	.L339
 4200              	.LBE56:
 4201              	.LBE55:
 679:main.c        **** 		int8 direction = 1*speed;
 4202              		.loc 2 679 0 is_stmt 1 discriminator 2
 4203 0134 0C9B     		ldr	r3, [sp, #48]
 4204 0136 0133     		adds	r3, r3, #1
 4205 0138 DBB2     		uxtb	r3, r3
 4206 013a 0C93     		str	r3, [sp, #48]
 4207              	.LVL588:
 4208              	.L326:
 679:main.c        **** 		int8 direction = 1*speed;
 4209              		.loc 2 679 0 is_stmt 0 discriminator 1
 4210 013c 0C9B     		ldr	r3, [sp, #48]
 4211 013e 0D9A     		ldr	r2, [sp, #52]
 4212 0140 9342     		cmp	r3, r2
 4213 0142 7FF667AF 		bls	.L337
 4214              	.LBE54:
 719:main.c        **** 
 4215              		.loc 2 719 0 is_stmt 1
 4216 0146 11B0     		add	sp, sp, #68
 4217              		.cfi_def_cfa_offset 36
ARM GAS  C:\Users\FRANKL~1\AppData\Local\Temp\ccPy0viy.s 			page 100


 4218              		@ sp needed
 4219 0148 BDE8F08F 		pop	{r4, r5, r6, r7, r8, r9, r10, fp, pc}
 4220              	.LVL589:
 4221              	.L342:
 4222 014c AFF30080 		.align	3
 4223              	.L341:
 4224 0150 BABDD7D9 		.word	-640172614
 4225 0154 DF7CCBBD 		.word	-1110737697
 4226 0158 00000000 		.word	TransmitBuffer
 4227 015c B0000000 		.word	.LC12
 4228 0160 00000000 		.word	.LANCHOR0
 4229              		.cfi_endproc
 4230              	.LFE105:
 4231              		.size	Measure_Wide_Gate_Sweep, .-Measure_Wide_Gate_Sweep
 4232              		.section	.text.Scan,"ax",%progbits
 4233              		.align	2
 4234              		.global	Scan
 4235              		.thumb
 4236              		.thumb_func
 4237              		.type	Scan, %function
 4238              	Scan:
 4239              	.LFB106:
 721:main.c        **** 	for (uint8 device = 1; device <= CONTACT_COUNT/**//2; device++) {
 4240              		.loc 2 721 0
 4241              		.cfi_startproc
 4242              		@ args = 0, pretend = 0, frame = 0
 4243              		@ frame_needed = 0, uses_anonymous_args = 0
 4244              	.LVL590:
 4245 0000 2DE9F041 		push	{r4, r5, r6, r7, r8, lr}
 4246              		.cfi_def_cfa_offset 24
 4247              		.cfi_offset 4, -24
 4248              		.cfi_offset 5, -20
 4249              		.cfi_offset 6, -16
 4250              		.cfi_offset 7, -12
 4251              		.cfi_offset 8, -8
 4252              		.cfi_offset 14, -4
 4253 0004 0746     		mov	r7, r0
 4254 0006 8846     		mov	r8, r1
 4255              	.LVL591:
 4256              	.LBB60:
 722:main.c        **** 		uint8 contact1 = device;
 4257              		.loc 2 722 0
 4258 0008 0124     		movs	r4, #1
 4259 000a 37E0     		b	.L344
 4260              	.LVL592:
 4261              	.L349:
 4262              	.LBB61:
 724:main.c        **** 		uint8 intermediate1 = 1;
 4263              		.loc 2 724 0
 4264 000c 661C     		adds	r6, r4, #1
 4265 000e F6B2     		uxtb	r6, r6
 4266              	.LVL593:
 728:main.c        **** 		Zero_All_DACs();
 4267              		.loc 2 728 0
 4268 0010 FFF7FEFF 		bl	Disconnect_All_Contacts_From_All_Intermediates
 4269              	.LVL594:
 729:main.c        **** 		Connect_Intermediates();
ARM GAS  C:\Users\FRANKL~1\AppData\Local\Temp\ccPy0viy.s 			page 101


 4270              		.loc 2 729 0
 4271 0014 FFF7FEFF 		bl	Zero_All_DACs
 4272              	.LVL595:
 730:main.c        **** 		Connect_Contact_To_Intermediate(contact1, intermediate1);
 4273              		.loc 2 730 0
 4274 0018 FFF7FEFF 		bl	Connect_Intermediates
 4275              	.LVL596:
 731:main.c        **** 		Connect_Contact_To_Intermediate(contact2, intermediate2);
 4276              		.loc 2 731 0
 4277 001c 0121     		movs	r1, #1
 4278 001e 2046     		mov	r0, r4
 4279 0020 FFF7FEFF 		bl	Connect_Contact_To_Intermediate
 4280              	.LVL597:
 732:main.c        **** 		
 4281              		.loc 2 732 0
 4282 0024 0221     		movs	r1, #2
 4283 0026 3046     		mov	r0, r6
 4284 0028 FFF7FEFF 		bl	Connect_Contact_To_Intermediate
 4285              	.LVL598:
 734:main.c        **** 		USBUARTH_Send(TransmitBuffer, strlen(TransmitBuffer));
 4286              		.loc 2 734 0
 4287 002c 154D     		ldr	r5, .L351
 4288 002e 2246     		mov	r2, r4
 4289 0030 1549     		ldr	r1, .L351+4
 4290 0032 2846     		mov	r0, r5
 4291 0034 FFF7FEFF 		bl	sprintf
 4292              	.LVL599:
 735:main.c        **** 		UART_1_PutString(TransmitBuffer);
 4293              		.loc 2 735 0
 4294 0038 2846     		mov	r0, r5
 4295 003a FFF7FEFF 		bl	strlen
 4296              	.LVL600:
 4297 003e 81B2     		uxth	r1, r0
 4298 0040 2846     		mov	r0, r5
 4299 0042 FFF7FEFF 		bl	USBUARTH_Send
 4300              	.LVL601:
 736:main.c        **** 		
 4301              		.loc 2 736 0
 4302 0046 2846     		mov	r0, r5
 4303 0048 FFF7FEFF 		bl	UART_1_PutString
 4304              	.LVL602:
 738:main.c        **** 			Measure_Wide_Gate_Sweep(loop);
 4305              		.loc 2 738 0
 4306 004c 1FB1     		cbz	r7, .L345
 739:main.c        **** 		} else {
 4307              		.loc 2 739 0
 4308 004e 4046     		mov	r0, r8
 4309 0050 FFF7FEFF 		bl	Measure_Wide_Gate_Sweep
 4310              	.LVL603:
 4311 0054 02E0     		b	.L346
 4312              	.L345:
 741:main.c        **** 		}
 4313              		.loc 2 741 0
 4314 0056 4046     		mov	r0, r8
 4315 0058 FFF7FEFF 		bl	Measure_Gate_Sweep
 4316              	.LVL604:
 4317              	.L346:
ARM GAS  C:\Users\FRANKL~1\AppData\Local\Temp\ccPy0viy.s 			page 102


 744:main.c        **** 		while (G_Pause);
 4318              		.loc 2 744 0
 4319 005c 0B4B     		ldr	r3, .L351+8
 4320 005e 9B78     		ldrb	r3, [r3, #2]	@ zero_extendqisi2
 4321 0060 13F0FF0F 		tst	r3, #255
 4322 0064 0CD1     		bne	.L343
 744:main.c        **** 		while (G_Pause);
 4323              		.loc 2 744 0 is_stmt 0 discriminator 1
 4324 0066 094B     		ldr	r3, .L351+8
 4325 0068 5B78     		ldrb	r3, [r3, #1]	@ zero_extendqisi2
 4326 006a 13F0FF0F 		tst	r3, #255
 4327 006e 07D1     		bne	.L343
 4328              	.L348:
 745:main.c        **** 	}
 4329              		.loc 2 745 0 is_stmt 1 discriminator 1
 4330 0070 064B     		ldr	r3, .L351+8
 4331 0072 DB78     		ldrb	r3, [r3, #3]	@ zero_extendqisi2
 4332 0074 13F0FF0F 		tst	r3, #255
 4333 0078 FAD1     		bne	.L348
 4334              	.LBE61:
 722:main.c        **** 		uint8 contact1 = device;
 4335              		.loc 2 722 0
 4336 007a 3446     		mov	r4, r6
 4337              	.LVL605:
 4338              	.L344:
 722:main.c        **** 		uint8 contact1 = device;
 4339              		.loc 2 722 0 is_stmt 0 discriminator 1
 4340 007c 202C     		cmp	r4, #32
 4341 007e C5D9     		bls	.L349
 4342              	.L343:
 4343 0080 BDE8F081 		pop	{r4, r5, r6, r7, r8, pc}
 4344              	.LVL606:
 4345              	.L352:
 4346              		.align	2
 4347              	.L351:
 4348 0084 00000000 		.word	TransmitBuffer
 4349 0088 C4000000 		.word	.LC13
 4350 008c 00000000 		.word	.LANCHOR0
 4351              	.LBE60:
 4352              		.cfi_endproc
 4353              	.LFE106:
 4354              		.size	Scan, .-Scan
 4355              		.section	.text.Scan_Range,"ax",%progbits
 4356              		.align	2
 4357              		.global	Scan_Range
 4358              		.thumb
 4359              		.thumb_func
 4360              		.type	Scan_Range, %function
 4361              	Scan_Range:
 4362              	.LFB107:
 749:main.c        **** 	if (startDevice >= CONTACT_COUNT) return;
 4363              		.loc 2 749 0 is_stmt 1
 4364              		.cfi_startproc
 4365              		@ args = 0, pretend = 0, frame = 0
 4366              		@ frame_needed = 0, uses_anonymous_args = 0
 4367              	.LVL607:
 750:main.c        **** 	if (stopDevice >= CONTACT_COUNT) return;
ARM GAS  C:\Users\FRANKL~1\AppData\Local\Temp\ccPy0viy.s 			page 103


 4368              		.loc 2 750 0
 4369 0000 3F28     		cmp	r0, #63
 4370 0002 47D8     		bhi	.L361
 749:main.c        **** 	if (startDevice >= CONTACT_COUNT) return;
 4371              		.loc 2 749 0
 4372 0004 2DE9F843 		push	{r3, r4, r5, r6, r7, r8, r9, lr}
 4373              		.cfi_def_cfa_offset 32
 4374              		.cfi_offset 3, -32
 4375              		.cfi_offset 4, -28
 4376              		.cfi_offset 5, -24
 4377              		.cfi_offset 6, -20
 4378              		.cfi_offset 7, -16
 4379              		.cfi_offset 8, -12
 4380              		.cfi_offset 9, -8
 4381              		.cfi_offset 14, -4
 4382 0008 0446     		mov	r4, r0
 4383 000a 0F46     		mov	r7, r1
 4384 000c 9046     		mov	r8, r2
 4385 000e 9946     		mov	r9, r3
 751:main.c        **** 	
 4386              		.loc 2 751 0
 4387 0010 3F29     		cmp	r1, #63
 4388 0012 3BD9     		bls	.L355
 4389 0014 BDE8F883 		pop	{r3, r4, r5, r6, r7, r8, r9, pc}
 4390              	.LVL608:
 4391              	.L359:
 4392              	.LBB62:
 4393              	.LBB63:
 755:main.c        **** 		uint8 intermediate1 = 1;
 4394              		.loc 2 755 0
 4395 0018 661C     		adds	r6, r4, #1
 4396 001a F6B2     		uxtb	r6, r6
 4397              	.LVL609:
 759:main.c        **** 		Zero_All_DACs();
 4398              		.loc 2 759 0
 4399 001c FFF7FEFF 		bl	Disconnect_All_Contacts_From_All_Intermediates
 4400              	.LVL610:
 760:main.c        **** 		Connect_Intermediates();
 4401              		.loc 2 760 0
 4402 0020 FFF7FEFF 		bl	Zero_All_DACs
 4403              	.LVL611:
 761:main.c        **** 		Connect_Contact_To_Intermediate(contact1, intermediate1);
 4404              		.loc 2 761 0
 4405 0024 FFF7FEFF 		bl	Connect_Intermediates
 4406              	.LVL612:
 762:main.c        **** 		Connect_Contact_To_Intermediate(contact2, intermediate2);
 4407              		.loc 2 762 0
 4408 0028 0121     		movs	r1, #1
 4409 002a 2046     		mov	r0, r4
 4410 002c FFF7FEFF 		bl	Connect_Contact_To_Intermediate
 4411              	.LVL613:
 763:main.c        **** 		
 4412              		.loc 2 763 0
 4413 0030 0221     		movs	r1, #2
 4414 0032 3046     		mov	r0, r6
 4415 0034 FFF7FEFF 		bl	Connect_Contact_To_Intermediate
 4416              	.LVL614:
ARM GAS  C:\Users\FRANKL~1\AppData\Local\Temp\ccPy0viy.s 			page 104


 765:main.c        **** 		USBUARTH_Send(TransmitBuffer, strlen(TransmitBuffer));
 4417              		.loc 2 765 0
 4418 0038 174D     		ldr	r5, .L362
 4419 003a 2246     		mov	r2, r4
 4420 003c 1749     		ldr	r1, .L362+4
 4421 003e 2846     		mov	r0, r5
 4422 0040 FFF7FEFF 		bl	sprintf
 4423              	.LVL615:
 766:main.c        **** 		UART_1_PutString(TransmitBuffer);
 4424              		.loc 2 766 0
 4425 0044 2846     		mov	r0, r5
 4426 0046 FFF7FEFF 		bl	strlen
 4427              	.LVL616:
 4428 004a 81B2     		uxth	r1, r0
 4429 004c 2846     		mov	r0, r5
 4430 004e FFF7FEFF 		bl	USBUARTH_Send
 4431              	.LVL617:
 767:main.c        **** 		
 4432              		.loc 2 767 0
 4433 0052 2846     		mov	r0, r5
 4434 0054 FFF7FEFF 		bl	UART_1_PutString
 4435              	.LVL618:
 769:main.c        **** 			Measure_Wide_Gate_Sweep(loop);
 4436              		.loc 2 769 0
 4437 0058 B8F1000F 		cmp	r8, #0
 4438 005c 03D0     		beq	.L356
 770:main.c        **** 		} else {
 4439              		.loc 2 770 0
 4440 005e 4846     		mov	r0, r9
 4441 0060 FFF7FEFF 		bl	Measure_Wide_Gate_Sweep
 4442              	.LVL619:
 4443 0064 02E0     		b	.L357
 4444              	.L356:
 772:main.c        **** 		}
 4445              		.loc 2 772 0
 4446 0066 4846     		mov	r0, r9
 4447 0068 FFF7FEFF 		bl	Measure_Gate_Sweep
 4448              	.LVL620:
 4449              	.L357:
 775:main.c        **** 		while (G_Pause);
 4450              		.loc 2 775 0
 4451 006c 0C4B     		ldr	r3, .L362+8
 4452 006e 9B78     		ldrb	r3, [r3, #2]	@ zero_extendqisi2
 4453 0070 13F0FF0F 		tst	r3, #255
 4454 0074 0CD1     		bne	.L353
 775:main.c        **** 		while (G_Pause);
 4455              		.loc 2 775 0 is_stmt 0 discriminator 1
 4456 0076 0A4B     		ldr	r3, .L362+8
 4457 0078 5B78     		ldrb	r3, [r3, #1]	@ zero_extendqisi2
 4458 007a 13F0FF0F 		tst	r3, #255
 4459 007e 07D1     		bne	.L353
 4460              	.L358:
 776:main.c        **** 	}
 4461              		.loc 2 776 0 is_stmt 1 discriminator 1
 4462 0080 074B     		ldr	r3, .L362+8
 4463 0082 DB78     		ldrb	r3, [r3, #3]	@ zero_extendqisi2
 4464 0084 13F0FF0F 		tst	r3, #255
ARM GAS  C:\Users\FRANKL~1\AppData\Local\Temp\ccPy0viy.s 			page 105


 4465 0088 FAD1     		bne	.L358
 4466              	.LBE63:
 753:main.c        **** 		uint8 contact1 = device;
 4467              		.loc 2 753 0
 4468 008a 3446     		mov	r4, r6
 4469              	.LVL621:
 4470              	.L355:
 753:main.c        **** 		uint8 contact1 = device;
 4471              		.loc 2 753 0 is_stmt 0 discriminator 1
 4472 008c BC42     		cmp	r4, r7
 4473 008e C3D9     		bls	.L359
 4474              	.L353:
 4475 0090 BDE8F883 		pop	{r3, r4, r5, r6, r7, r8, r9, pc}
 4476              	.LVL622:
 4477              	.L361:
 4478              		.cfi_def_cfa_offset 0
 4479              		.cfi_restore 3
 4480              		.cfi_restore 4
 4481              		.cfi_restore 5
 4482              		.cfi_restore 6
 4483              		.cfi_restore 7
 4484              		.cfi_restore 8
 4485              		.cfi_restore 9
 4486              		.cfi_restore 14
 4487 0094 7047     		bx	lr
 4488              	.L363:
 4489 0096 00BF     		.align	2
 4490              	.L362:
 4491 0098 00000000 		.word	TransmitBuffer
 4492 009c C4000000 		.word	.LC13
 4493 00a0 00000000 		.word	.LANCHOR0
 4494              	.LBE62:
 4495              		.cfi_endproc
 4496              	.LFE107:
