ARM GAS  C:\Users\Noyce\AppData\Local\Temp\ccdn8Rrk.s 			page 1


   1              		.syntax unified
   2              		.cpu cortex-m3
   3              		.fpu softvfp
   4              		.eabi_attribute 20, 1
   5              		.eabi_attribute 21, 1
   6              		.eabi_attribute 23, 3
   7              		.eabi_attribute 24, 1
   8              		.eabi_attribute 25, 1
   9              		.eabi_attribute 26, 1
  10              		.eabi_attribute 30, 1
  11              		.eabi_attribute 34, 1
  12              		.eabi_attribute 18, 4
  13              		.thumb
  14              		.syntax unified
  15              		.file	"main.c"
  16              		.text
  17              	.Ltext0:
  18              		.cfi_sections	.debug_frame
  19              		.syntax unified
  20              		.global _printf_float
  21              		.thumb
  22              		.syntax unified
  23              		.section	.text.USBUARTH_Maintain_Configuration,"ax",%progbits
  24              		.align	2
  25              		.global	USBUARTH_Maintain_Configuration
  26              		.thumb
  27              		.thumb_func
  28              		.type	USBUARTH_Maintain_Configuration, %function
  29              	USBUARTH_Maintain_Configuration:
  30              	.LFB64:
  31              		.file 1 "USBUART_Helpers.h"
   1:USBUART_Helpers.h **** #include "project.h"
   2:USBUART_Helpers.h **** #include "stdio.h"
   3:USBUART_Helpers.h **** 
   4:USBUART_Helpers.h **** #if defined (__GNUC__)
   5:USBUART_Helpers.h **** 	/* Add an explicit reference to the floating point printf library */
   6:USBUART_Helpers.h **** 	/* to allow usage of the floating point conversion specifiers. */
   7:USBUART_Helpers.h **** 	/* This is not linked in by default with the newlib-nano library. */
   8:USBUART_Helpers.h **** 	asm (".global _printf_float");
   9:USBUART_Helpers.h **** #endif
  10:USBUART_Helpers.h **** 
  11:USBUART_Helpers.h **** // The buffer size is equal to the maximum packet size of the IN and OUT bulk endpoints.
  12:USBUART_Helpers.h **** #define USBUART_BUFFER_SIZE	(64u)
  13:USBUART_Helpers.h **** #define LINE_STR_LENGTH		(20u)
  14:USBUART_Helpers.h **** 
  15:USBUART_Helpers.h **** 
  16:USBUART_Helpers.h **** void USBUARTH_Maintain_Configuration() {
  32              		.loc 1 16 0
  33              		.cfi_startproc
  34              		@ args = 0, pretend = 0, frame = 0
  35              		@ frame_needed = 0, uses_anonymous_args = 0
  36 0000 08B5     		push	{r3, lr}
  37              		.cfi_def_cfa_offset 8
  38              		.cfi_offset 3, -8
  39              		.cfi_offset 14, -4
  40              	.LVL0:
  17:USBUART_Helpers.h **** 	unsigned long tries = 0;
ARM GAS  C:\Users\Noyce\AppData\Local\Temp\ccdn8Rrk.s 			page 2


  18:USBUART_Helpers.h **** 	
  19:USBUART_Helpers.h **** 	do {
  20:USBUART_Helpers.h **** 		// Host can send double SET_INTERFACE request.
  21:USBUART_Helpers.h **** 		if (USBUART_IsConfigurationChanged()) {
  41              		.loc 1 21 0
  42 0002 FFF7FEFF 		bl	USBUART_IsConfigurationChanged
  43              	.LVL1:
  44 0006 20B1     		cbz	r0, .L2
  22:USBUART_Helpers.h **** 			// Initialize IN endpoints when device is configured.
  23:USBUART_Helpers.h **** 			if (USBUART_GetConfiguration()) {
  45              		.loc 1 23 0
  46 0008 FFF7FEFF 		bl	USBUART_GetConfiguration
  47              	.LVL2:
  48 000c 08B1     		cbz	r0, .L2
  24:USBUART_Helpers.h **** 				// Enumeration is done, enable OUT endpoint to receive data from host.
  25:USBUART_Helpers.h **** 				USBUART_CDC_Init();
  49              		.loc 1 25 0
  50 000e FFF7FEFF 		bl	USBUART_CDC_Init
  51              	.LVL3:
  52              	.L2:
  26:USBUART_Helpers.h **** 			}
  27:USBUART_Helpers.h **** 		}
  28:USBUART_Helpers.h **** 		
  29:USBUART_Helpers.h **** 		tries++;
  30:USBUART_Helpers.h **** 	// Keep trying until USB CDC device is configured
  31:USBUART_Helpers.h **** 	} while (!USBUART_GetConfiguration() && tries < 1);
  53              		.loc 1 31 0
  54 0012 FFF7FEFF 		bl	USBUART_GetConfiguration
  55              	.LVL4:
  56 0016 08BD     		pop	{r3, pc}
  57              		.cfi_endproc
  58              	.LFE64:
  59              		.size	USBUARTH_Maintain_Configuration, .-USBUARTH_Maintain_Configuration
  60              		.section	.text.USBUARTH_DataIsReady,"ax",%progbits
  61              		.align	2
  62              		.global	USBUARTH_DataIsReady
  63              		.thumb
  64              		.thumb_func
  65              		.type	USBUARTH_DataIsReady, %function
  66              	USBUARTH_DataIsReady:
  67              	.LFB65:
  32:USBUART_Helpers.h **** }
  33:USBUART_Helpers.h **** 
  34:USBUART_Helpers.h **** uint8 USBUARTH_DataIsReady() {
  68              		.loc 1 34 0
  69              		.cfi_startproc
  70              		@ args = 0, pretend = 0, frame = 0
  71              		@ frame_needed = 0, uses_anonymous_args = 0
  72 0000 08B5     		push	{r3, lr}
  73              		.cfi_def_cfa_offset 8
  74              		.cfi_offset 3, -8
  75              		.cfi_offset 14, -4
  35:USBUART_Helpers.h **** 	USBUARTH_Maintain_Configuration();
  76              		.loc 1 35 0
  77 0002 FFF7FEFF 		bl	USBUARTH_Maintain_Configuration
  78              	.LVL5:
  36:USBUART_Helpers.h **** 	
ARM GAS  C:\Users\Noyce\AppData\Local\Temp\ccdn8Rrk.s 			page 3


  37:USBUART_Helpers.h **** 	return USBUART_GetConfiguration() && USBUART_DataIsReady();
  79              		.loc 1 37 0
  80 0006 FFF7FEFF 		bl	USBUART_GetConfiguration
  81              	.LVL6:
  82 000a 20B1     		cbz	r0, .L6
  83              		.loc 1 37 0 is_stmt 0 discriminator 1
  84 000c FFF7FEFF 		bl	USBUART_DataIsReady
  85              	.LVL7:
  86 0010 18B1     		cbz	r0, .L7
  87              		.loc 1 37 0
  88 0012 0120     		movs	r0, #1
  89 0014 08BD     		pop	{r3, pc}
  90              	.L6:
  91 0016 0020     		movs	r0, #0
  92 0018 08BD     		pop	{r3, pc}
  93              	.L7:
  94 001a 0020     		movs	r0, #0
  38:USBUART_Helpers.h **** }
  95              		.loc 1 38 0 is_stmt 1
  96 001c 08BD     		pop	{r3, pc}
  97              		.cfi_endproc
  98              	.LFE65:
  99              		.size	USBUARTH_DataIsReady, .-USBUARTH_DataIsReady
 100 001e 00BF     		.section	.text.CommunicationHandlerISR,"ax",%progbits
 101              		.align	2
 102              		.global	CommunicationHandlerISR
 103              		.thumb
 104              		.thumb_func
 105              		.type	CommunicationHandlerISR, %function
 106              	CommunicationHandlerISR:
 107              	.LFB100:
 108              		.file 2 "main.c"
   1:main.c        **** #include <stdlib.h>
   2:main.c        **** #include <stdio.h>
   3:main.c        **** #include "project.h"
   4:main.c        **** #include "USBUART_Helpers.h"
   5:main.c        **** 
   6:main.c        **** 
   7:main.c        **** struct Selector_I2C_Struct {
   8:main.c        **** 	struct {
   9:main.c        **** 		uint8 subAddress;
  10:main.c        **** 		uint8 data[126];
  11:main.c        **** 	} write;
  12:main.c        **** 	struct {
  13:main.c        **** 		uint8 subAddress;
  14:main.c        **** 		uint8 data[126];
  15:main.c        **** 	} read;
  16:main.c        **** 	uint8 busAddress;
  17:main.c        **** };
  18:main.c        **** 
  19:main.c        **** 
  20:main.c        **** // Globals ----------------------------------------------
  21:main.c        **** #define SELECTOR_COUNT (4u)
  22:main.c        **** #define INTERMEDIATE_COUNT (4u)
  23:main.c        **** #define CONTACT_COUNT (64u)
  24:main.c        **** #define CHANNEL_COUNT (34u)
  25:main.c        **** #define CONTACT_CONNECT_CODE (0xC0u)
ARM GAS  C:\Users\Noyce\AppData\Local\Temp\ccdn8Rrk.s 			page 4


  26:main.c        **** #define CONTACT_DISCONNECT_CODE (0xD1u)
  27:main.c        **** #define COMPLIANCE_CURRENT_LIMIT (10e-6)
  28:main.c        **** 
  29:main.c        **** struct Selector_I2C_Struct selectors[SELECTOR_COUNT];
  30:main.c        **** char TransmitBuffer[USBUART_BUFFER_SIZE];
  31:main.c        **** 
  32:main.c        **** volatile uint8 newData = 0;
  33:main.c        **** volatile uint8 G_Stop = 0;
  34:main.c        **** volatile uint8 G_Break = 0;
  35:main.c        **** volatile uint8 G_Pause = 0;
  36:main.c        **** 
  37:main.c        **** volatile char UART_Receive_Buffer[USBUART_BUFFER_SIZE];
  38:main.c        **** volatile uint8 UART_Rx_Position;
  39:main.c        **** 
  40:main.c        **** volatile char USBUART_Receive_Buffer[USBUART_BUFFER_SIZE];
  41:main.c        **** volatile uint8 USBUART_Rx_Position;
  42:main.c        **** 
  43:main.c        **** uint8 Compliance_Reached;
  44:main.c        **** int16 Vgs_Index_Goal_Relative;
  45:main.c        **** int16 Vds_Index_Goal_Relative;
  46:main.c        **** 
  47:main.c        **** void Setup_Selector_I2C_Struct(struct Selector_I2C_Struct *selector) {
  48:main.c        **** 	selector->write.subAddress = 1;
  49:main.c        **** 	selector->read.subAddress = sizeof(selector->write) + 1;
  50:main.c        **** 	
  51:main.c        **** 	for (uint16 i = 0; i < sizeof(selector->write.data); i++) {
  52:main.c        **** 		selector->write.data[i] = i + 6;
  53:main.c        **** 	}
  54:main.c        **** 	for (uint16 i = 0; i < sizeof(selector->read.data); i++) {
  55:main.c        **** 		selector->read.data[i] = 0xbe;
  56:main.c        **** 	}
  57:main.c        **** }
  58:main.c        **** 
  59:main.c        **** void Update_Selector(uint8 selectori) {
  60:main.c        **** 	sprintf(TransmitBuffer, "Updating Selector %u\r\n", selectori + 1);
  61:main.c        **** 	USBUARTH_Send(TransmitBuffer, strlen(TransmitBuffer));
  62:main.c        **** 	UART_1_PutString(TransmitBuffer);
  63:main.c        **** 	
  64:main.c        **** 	struct Selector_I2C_Struct* selector = &selectors[selectori];
  65:main.c        **** 	
  66:main.c        **** 	I2C_1_MasterClearStatus();
  67:main.c        **** 	I2C_1_MasterWriteBuf(selector->busAddress, (uint8 *) &selector->write, sizeof(selector->write), I2
  68:main.c        **** 	for (uint32 i = 0; i < 4e5; i++) {
  69:main.c        **** 		if ((I2C_1_MasterStatus() & I2C_1_MSTAT_WR_CMPLT)) break;
  70:main.c        **** 		if (i >= 4e5 - 1) {
  71:main.c        **** 			sprintf(TransmitBuffer, "I2C Transfer Error! Type: Timeout\r\n");
  72:main.c        **** 			USBUARTH_Send(TransmitBuffer, strlen(TransmitBuffer));
  73:main.c        **** 			UART_1_PutString(TransmitBuffer);
  74:main.c        **** 			I2C_1_Stop();
  75:main.c        **** 			I2C_1_Start();
  76:main.c        **** 		}
  77:main.c        **** 	}
  78:main.c        **** 	
  79:main.c        **** 	// I2C_1_MasterClearStatus();
  80:main.c        **** 	// I2C_1_MasterWriteBuf(selector->busAddress, (uint8 *) &selector->read.subAddress, 1, I2C_1_MODE_
  81:main.c        **** 	// for (uint32 i - 0; i < 4e5; i++) {
  82:main.c        **** 	// 	if ((I2C_1_MasterStatus() & I2C_1_MSTAT_WR_CMPLT)) break;
ARM GAS  C:\Users\Noyce\AppData\Local\Temp\ccdn8Rrk.s 			page 5


  83:main.c        **** 	// }
  84:main.c        **** 	
  85:main.c        **** 	// I2C_1_MasterReadBuf(selector->busAddress, (uint8 *) &selector->read.data, sizeof(selector->read
  86:main.c        **** 	// for (uint32 i - 0; i < 4e5; i++) {
  87:main.c        **** 	// 	if ((I2C_1_MasterStatus() & I2C_1_MSTAT_RD_CMPLT)) break;
  88:main.c        **** 	// }
  89:main.c        **** 	
  90:main.c        **** 	if (I2C_1_MasterStatus() & I2C_1_MSTAT_ERR_XFER) {
  91:main.c        **** 		sprintf(TransmitBuffer, "I2C Transfer Error! ");
  92:main.c        **** 		USBUARTH_Send(TransmitBuffer, strlen(TransmitBuffer));
  93:main.c        **** 		UART_1_PutString(TransmitBuffer);
  94:main.c        **** 		
  95:main.c        **** 		if (I2C_1_MasterStatus() & I2C_1_MSTAT_ERR_ADDR_NAK) {
  96:main.c        **** 			sprintf(TransmitBuffer, "Type: NAK");
  97:main.c        **** 			USBUARTH_Send(TransmitBuffer, strlen(TransmitBuffer));
  98:main.c        **** 			UART_1_PutString(TransmitBuffer);
  99:main.c        **** 		}
 100:main.c        **** 		
 101:main.c        **** 		sprintf(TransmitBuffer, "\r\n");
 102:main.c        **** 		USBUARTH_Send(TransmitBuffer, strlen(TransmitBuffer));
 103:main.c        **** 		UART_1_PutString(TransmitBuffer);
 104:main.c        **** 	}
 105:main.c        **** 	
 106:main.c        **** 	sprintf(TransmitBuffer, "Updated Selector %u\r\n", selectori + 1);
 107:main.c        **** 	USBUARTH_Send(TransmitBuffer, strlen(TransmitBuffer));
 108:main.c        **** 	UART_1_PutString(TransmitBuffer);
 109:main.c        **** }
 110:main.c        **** 
 111:main.c        **** 
 112:main.c        **** void ADC_Measure_uV(int32* average, int32* standardDeviation, uint32 sampleCount) {
 113:main.c        **** 	int32 ADC_Result = 0;
 114:main.c        **** 	int32 ADC_SD = 0;
 115:main.c        **** 	
 116:main.c        **** 	for (uint32 i = 1; i < sampleCount; i++) {
 117:main.c        **** 		ADC_DelSig_1_StartConvert();
 118:main.c        **** 		while (!ADC_DelSig_1_IsEndConversion(ADC_DelSig_1_RETURN_STATUS));
 119:main.c        **** 		//int16 ADC_Result = ADC_DelSig_1_CountsTo_mVolts(ADC_DelSig_1_GetResult16());
 120:main.c        **** 		int32 ADC_Result_Current = ADC_DelSig_1_CountsTo_uVolts(ADC_DelSig_1_GetResult32());
 121:main.c        **** 		
 122:main.c        **** 		ADC_SD += (float)(i-1)/(float)(i)*(ADC_Result_Current - ADC_Result)*(ADC_Result_Current - ADC_Res
 123:main.c        **** 		ADC_Result += ((float)ADC_Result_Current - (float)ADC_Result)/(float)i;
 124:main.c        **** 	}
 125:main.c        **** 	
 126:main.c        **** 	*average = ADC_Result;
 127:main.c        **** 	*standardDeviation = ADC_SD;
 128:main.c        **** }
 129:main.c        **** 
 130:main.c        **** void Measure_Sweep() {
 131:main.c        **** 	VDAC_Vds_SetValue(90);
 132:main.c        **** 	VDAC_Vgs_SetValue(254);
 133:main.c        **** 	
 134:main.c        **** 	for (uint16 Vgsi = 0; Vgsi < 256; Vgsi++) {
 135:main.c        **** 		int32 IdsAverage = 0;
 136:main.c        **** 		int32 IdsStandardDeviation = 0;
 137:main.c        **** 		
 138:main.c        **** 		VDAC_Vgs_SetValue(Vgsi);
 139:main.c        **** 		
ARM GAS  C:\Users\Noyce\AppData\Local\Temp\ccdn8Rrk.s 			page 6


 140:main.c        **** 		ADC_Measure_uV(&IdsAverage, &IdsStandardDeviation, 100);
 141:main.c        **** 		
 142:main.c        **** 		// Send the collected data
 143:main.c        **** 		//sprintf(TransmitBuffer, "[%d, %lu, %lu]\r\n", Vgsi, IdsAverage, IdsStandardDeviation);
 144:main.c        **** 		sprintf(TransmitBuffer, "%lu,", IdsAverage);
 145:main.c        **** 		USBUARTH_Send(TransmitBuffer, strlen(TransmitBuffer));
 146:main.c        **** 		UART_1_PutString(TransmitBuffer);
 147:main.c        **** 	}
 148:main.c        **** }
 149:main.c        **** 
 150:main.c        **** void Setup_Selectors() {
 151:main.c        **** 	for (uint8 i = 0; i < SELECTOR_COUNT; i++) Setup_Selector_I2C_Struct(&selectors[i]);
 152:main.c        **** 	
 153:main.c        **** 	selectors[0].busAddress = 0x66;
 154:main.c        **** 	selectors[1].busAddress = 0x11;
 155:main.c        **** 	selectors[2].busAddress = 0x44;
 156:main.c        **** 	selectors[3].busAddress = 0x22;
 157:main.c        **** }
 158:main.c        **** 
 159:main.c        **** void Connect_Channel_On_Intermediate(uint8 channel, uint8 intermediate) {
 160:main.c        **** 	channel--;
 161:main.c        **** 	intermediate--;
 162:main.c        **** 	
 163:main.c        **** 	if (channel >= CHANNEL_COUNT) return;
 164:main.c        **** 	if (intermediate >= INTERMEDIATE_COUNT) return;
 165:main.c        **** 	
 166:main.c        **** 	selectors[intermediate].write.data[channel] = CONTACT_CONNECT_CODE;
 167:main.c        **** 	Update_Selector(intermediate);
 168:main.c        **** }
 169:main.c        **** 
 170:main.c        **** void Connect_Contact_To_Intermediate(uint8 contact, uint8 intermediate) {
 171:main.c        **** 	contact--;
 172:main.c        **** 	intermediate--;
 173:main.c        **** 	
 174:main.c        **** 	if (contact >= CONTACT_COUNT) return;
 175:main.c        **** 	if (intermediate >= INTERMEDIATE_COUNT) return;
 176:main.c        **** 	
 177:main.c        **** 	uint8 offset = 0;
 178:main.c        **** 	if (intermediate >= INTERMEDIATE_COUNT/2) {
 179:main.c        **** 		offset = CONTACT_COUNT/2;
 180:main.c        **** 		if (contact < CONTACT_COUNT/2) return;
 181:main.c        **** 	} else {
 182:main.c        **** 		if (contact >= CONTACT_COUNT/2) return;
 183:main.c        **** 	}
 184:main.c        **** 	
 185:main.c        **** 	Connect_Channel_On_Intermediate(contact - offset + 1, intermediate + 1);
 186:main.c        **** }
 187:main.c        **** 
 188:main.c        **** void Disconnect_Contact_From_Intermediate(uint8 contact, uint8 intermediate) {
 189:main.c        **** 	contact--;
 190:main.c        **** 	intermediate--;
 191:main.c        **** 	
 192:main.c        **** 	if (contact >= CONTACT_COUNT) return;
 193:main.c        **** 	if (intermediate >= INTERMEDIATE_COUNT) return;
 194:main.c        **** 	
 195:main.c        **** 	uint8 offset = 0;
 196:main.c        **** 	if (intermediate >= INTERMEDIATE_COUNT/2) {
ARM GAS  C:\Users\Noyce\AppData\Local\Temp\ccdn8Rrk.s 			page 7


 197:main.c        **** 		offset = CONTACT_COUNT/2;
 198:main.c        **** 		if (contact < CONTACT_COUNT/2) return;
 199:main.c        **** 	} else {
 200:main.c        **** 		if (contact >= CONTACT_COUNT/2) return;
 201:main.c        **** 	}
 202:main.c        **** 	
 203:main.c        **** 	selectors[intermediate].write.data[contact - offset] = CONTACT_DISCONNECT_CODE;
 204:main.c        **** 	
 205:main.c        **** 	Update_Selector(intermediate);
 206:main.c        **** }
 207:main.c        **** 
 208:main.c        **** void Disconnect_Contact_From_All_Intermediates(uint8 contact) {
 209:main.c        **** 	contact--;
 210:main.c        **** 	
 211:main.c        **** 	for (uint8 intermediate = 0; intermediate < INTERMEDIATE_COUNT; intermediate++) {
 212:main.c        **** 		
 213:main.c        **** 		uint8 offset = 0;
 214:main.c        **** 		if (intermediate >= INTERMEDIATE_COUNT/2) {
 215:main.c        **** 			offset = CONTACT_COUNT/2;
 216:main.c        **** 			if (contact < CONTACT_COUNT/2) continue;
 217:main.c        **** 		} else {
 218:main.c        **** 			if (contact >= CONTACT_COUNT/2) continue;
 219:main.c        **** 		}
 220:main.c        **** 		
 221:main.c        **** 		selectors[intermediate].write.data[contact - offset] = CONTACT_DISCONNECT_CODE;
 222:main.c        **** 		
 223:main.c        **** 		Update_Selector(intermediate);
 224:main.c        **** 	}
 225:main.c        **** }
 226:main.c        **** 
 227:main.c        **** void Disconnect_All_Contacts_From_All_Intermediates() {
 228:main.c        **** 	for (uint8 intermediate = 0; intermediate < INTERMEDIATE_COUNT/**//2; intermediate++) {
 229:main.c        **** 		for (uint8 contact = 0; contact < CONTACT_COUNT/2; contact++) {
 230:main.c        **** 			selectors[intermediate].write.data[contact] = CONTACT_DISCONNECT_CODE;
 231:main.c        **** 		}
 232:main.c        **** 		
 233:main.c        **** 		Update_Selector(intermediate);
 234:main.c        **** 	}
 235:main.c        **** }
 236:main.c        **** 
 237:main.c        **** void Disconnect_All_Contacts_From_Intermediate(uint8 intermediate) {
 238:main.c        **** 	intermediate--;
 239:main.c        **** 	
 240:main.c        **** 	for (uint8 contact = 0; contact < CONTACT_COUNT/2; contact++) {
 241:main.c        **** 		selectors[intermediate].write.data[contact] = CONTACT_DISCONNECT_CODE;
 242:main.c        **** 	}
 243:main.c        **** 	
 244:main.c        **** 	Update_Selector(intermediate);
 245:main.c        **** }
 246:main.c        **** 
 247:main.c        **** void Connect_Intermediate(uint8 intermediate) {
 248:main.c        **** 	switch (intermediate) {
 249:main.c        **** 		case 1: Connect_Channel_On_Intermediate(33, 1); break;
 250:main.c        **** 		case 2: Connect_Channel_On_Intermediate(33, 2); break;
 251:main.c        **** 		case 3: Connect_Channel_On_Intermediate(33, 3); break;
 252:main.c        **** 		case 4: Connect_Channel_On_Intermediate(33, 4); break;
 253:main.c        **** 		default: return;
ARM GAS  C:\Users\Noyce\AppData\Local\Temp\ccdn8Rrk.s 			page 8


 254:main.c        **** 	}
 255:main.c        **** }
 256:main.c        **** 
 257:main.c        **** void Connect_Intermediates() {
 258:main.c        **** 	for (uint8 i = 1; i <= INTERMEDIATE_COUNT/**//2; i++) {
 259:main.c        **** 		Connect_Intermediate(i);
 260:main.c        **** 	}
 261:main.c        **** }
 262:main.c        **** 
 263:main.c        **** void MeasureCurrentVss(float* currentAverageIn, float* currentStdDevIn, uint32 sampleCount) {
 264:main.c        **** 	Compliance_Reached = 0;
 265:main.c        **** 	
 266:main.c        **** 	// Voltage and its standard deviation (in uV)
 267:main.c        **** 	int32 voltage = 0;
 268:main.c        **** 	int32 voltageSD = 0;
 269:main.c        **** 	
 270:main.c        **** 	// Current and its standard deviation (in A)
 271:main.c        **** 	float currentNow = 0;
 272:main.c        **** 	
 273:main.c        **** 	float currentAverage = 0;
 274:main.c        **** 	float currentStdDev = 0;
 275:main.c        **** 	
 276:main.c        **** 	float TIA_Feedback_R = 20e3;
 277:main.c        **** 	float unitConversion = -1.0e-6/TIA_Feedback_R;
 278:main.c        **** 	
 279:main.c        **** 	// Allow for the first measurement (normally not correct) to take place
 280:main.c        **** 	ADC_Measure_uV(&voltage, &voltageSD, 3);
 281:main.c        **** 	
 282:main.c        **** 	// Now take the real measurement
 283:main.c        **** 	for (uint32 i = 1; i <= sampleCount; i++) {
 284:main.c        **** 		ADC_Measure_uV(&voltage, &voltageSD, 1);
 285:main.c        **** 		
 286:main.c        **** 		currentNow = unitConversion*voltage;
 287:main.c        **** 		
 288:main.c        **** 		if (abs(currentNow) > COMPLIANCE_CURRENT_LIMIT) {
 289:main.c        **** 			Compliance_Reached += 1;
 290:main.c        **** 			break;
 291:main.c        **** 		} else {
 292:main.c        **** 			Compliance_Reached = 0;
 293:main.c        **** 		}
 294:main.c        **** 		
 295:main.c        **** 		currentStdDev += ((float)i-1.0)/(float)(i)*(currentNow - currentAverage)*(currentNow - currentAve
 296:main.c        **** 		currentAverage += (currentNow - currentAverage)/(float)i;
 297:main.c        **** 	}
 298:main.c        **** 	
 299:main.c        **** 	*currentAverageIn = currentAverage;
 300:main.c        **** 	*currentStdDevIn = currentStdDev;
 301:main.c        **** }
 302:main.c        **** 
 303:main.c        **** uint8 AtCompliance() {
 304:main.c        **** 	Compliance_Reached = 0;
 305:main.c        **** 	
 306:main.c        **** 	float current = 0;
 307:main.c        **** 	float currentSD = 0;
 308:main.c        **** 	
 309:main.c        **** 	MeasureCurrentVss(&current, &currentSD, 3);
 310:main.c        **** 	
ARM GAS  C:\Users\Noyce\AppData\Local\Temp\ccdn8Rrk.s 			page 9


 311:main.c        **** 	if (abs(current) > COMPLIANCE_CURRENT_LIMIT) {
 312:main.c        **** 		Compliance_Reached = 1;
 313:main.c        **** 		return 1;
 314:main.c        **** 	}
 315:main.c        **** 	
 316:main.c        **** 	return 0;
 317:main.c        **** }
 318:main.c        **** 
 319:main.c        **** void handleComplianceBreach() {
 320:main.c        **** 	uint8 istart = VDAC_Vds_Data;
 321:main.c        **** 	uint8 istop = VDAC_Ref_Data;
 322:main.c        **** 	int8 increment = 1;
 323:main.c        **** 	if (istart < istop) increment = -1;
 324:main.c        **** 	
 325:main.c        **** 	for (uint8 i = istart; i != istop; i += increment) {
 326:main.c        **** 		VDAC_Vds_SetValue(i);
 327:main.c        **** 		
 328:main.c        **** 		if (!AtCompliance()) return;
 329:main.c        **** 	}
 330:main.c        **** 	
 331:main.c        **** 	istart = VDAC_Vgs_Data;
 332:main.c        **** 	istop = VDAC_Ref_Data;
 333:main.c        **** 	increment = 1;
 334:main.c        **** 	if (istart < istop) increment = -1;
 335:main.c        **** 	
 336:main.c        **** 	for (uint8 i = istart; i != istop; i += increment) {
 337:main.c        **** 		VDAC_Vgs_SetValue(i);
 338:main.c        **** 		
 339:main.c        **** 		if (!AtCompliance()) return;
 340:main.c        **** 	}
 341:main.c        **** 	
 342:main.c        **** 	// To do: Should disconnect something or take some other action at this point since still at compl
 343:main.c        **** }
 344:main.c        **** 
 345:main.c        **** void SetVdsRaw(uint8 value) {
 346:main.c        **** 	Vds_Index_Goal_Relative = (int16)value - (int16)VDAC_Ref_Data;
 347:main.c        **** 	
 348:main.c        **** 	uint8 istart = VDAC_Vds_Data;
 349:main.c        **** 	int8 increment = 1;
 350:main.c        **** 	if (istart > value) increment = -1;
 351:main.c        **** 	
 352:main.c        **** 	for (uint8 i = 0; i != value; i += increment) {
 353:main.c        **** 		if (AtCompliance()) {
 354:main.c        **** 			for (uint8 j = i; j != istart; j -= increment) {
 355:main.c        **** 				VDAC_Vds_SetValue(j);
 356:main.c        **** 				
 357:main.c        **** 				if (!AtCompliance()) return;
 358:main.c        **** 			}
 359:main.c        **** 			if (AtCompliance()) {
 360:main.c        **** 				handleComplianceBreach();
 361:main.c        **** 				return;
 362:main.c        **** 			}
 363:main.c        **** 		}
 364:main.c        **** 		
 365:main.c        **** 		VDAC_Vds_SetValue(i);
 366:main.c        **** 	}
 367:main.c        **** }
ARM GAS  C:\Users\Noyce\AppData\Local\Temp\ccdn8Rrk.s 			page 10


 368:main.c        **** 
 369:main.c        **** void SetVgsRaw(uint8 value) {
 370:main.c        **** 	Vgs_Index_Goal_Relative = (int16)value - (int16)VDAC_Ref_Data;
 371:main.c        **** 	
 372:main.c        **** 	int8 increment = 1;
 373:main.c        **** 	uint8 istart = VDAC_Vgs_Data;
 374:main.c        **** 	if (value < istart) increment = -1;
 375:main.c        **** 	
 376:main.c        **** 	for (uint8 i = istart; i != value; i += increment) {
 377:main.c        **** 		if (AtCompliance()) {
 378:main.c        **** 			for (uint8 j = i; j != istart; j -= increment) {
 379:main.c        **** 				VDAC_Vgs_SetValue(j);
 380:main.c        **** 				
 381:main.c        **** 				if (!AtCompliance()) return;
 382:main.c        **** 			}
 383:main.c        **** 			if (AtCompliance()) {
 384:main.c        **** 				handleComplianceBreach();
 385:main.c        **** 				return;
 386:main.c        **** 			}
 387:main.c        **** 		}
 388:main.c        **** 		
 389:main.c        **** 		VDAC_Vgs_SetValue(i);
 390:main.c        **** 	}
 391:main.c        **** }
 392:main.c        **** 
 393:main.c        **** void SetVds(int16 value) {
 394:main.c        **** 	if (value > 255) return;
 395:main.c        **** 	if (value < -255) return;
 396:main.c        **** 	
 397:main.c        **** 	int16 absolute = (int16)value + (int16)VDAC_Ref_Data;
 398:main.c        **** 	
 399:main.c        **** 	if (absolute > 255) absolute = 255;
 400:main.c        **** 	if (absolute < 0) absolute = 0;
 401:main.c        **** 	
 402:main.c        **** 	SetVdsRaw(absolute);
 403:main.c        **** 	
 404:main.c        **** 	Vds_Index_Goal_Relative = (int16)value;
 405:main.c        **** }
 406:main.c        **** 
 407:main.c        **** void SetVgs(int16 value) {
 408:main.c        **** 	if (value > 255) return;
 409:main.c        **** 	if (value < -255) return;
 410:main.c        **** 	
 411:main.c        **** 	int16 absolute = (int16)value + (int16)VDAC_Ref_Data;
 412:main.c        **** 	
 413:main.c        **** 	if (absolute > 255) absolute = 255;
 414:main.c        **** 	if (absolute < 0) absolute = 0;
 415:main.c        **** 	
 416:main.c        **** 	SetVgsRaw(absolute);
 417:main.c        **** 	
 418:main.c        **** 	Vgs_Index_Goal_Relative = (int16)value;
 419:main.c        **** }
 420:main.c        **** 
 421:main.c        **** void SetRef(uint8 value) {
 422:main.c        **** 	int8 increment = 1;
 423:main.c        **** 	if (value < VDAC_Ref_Data) increment = -1;
 424:main.c        **** 	
ARM GAS  C:\Users\Noyce\AppData\Local\Temp\ccdn8Rrk.s 			page 11


 425:main.c        **** 	for (uint8 i = VDAC_Ref_Data; i != value; i += increment) {
 426:main.c        **** 		
 427:main.c        **** 		if (AtCompliance()) return;
 428:main.c        **** 		
 429:main.c        **** 		int16 new_Vgs = (int16)i + Vgs_Index_Goal_Relative;
 430:main.c        **** 		int16 new_Vds = (int16)i + Vds_Index_Goal_Relative;
 431:main.c        **** 		
 432:main.c        **** 		if (new_Vgs > 255) new_Vgs = 255;
 433:main.c        **** 		if (new_Vds > 255) new_Vds = 255;
 434:main.c        **** 		
 435:main.c        **** 		if (new_Vgs < 0) new_Vgs = 0;
 436:main.c        **** 		if (new_Vds < 0) new_Vds = 0;
 437:main.c        **** 		
 438:main.c        **** 		VDAC_Ref_SetValue(i);
 439:main.c        **** 		VDAC_Vgs_SetValue(new_Vgs);
 440:main.c        **** 		VDAC_Vds_SetValue(new_Vds);
 441:main.c        **** 	}
 442:main.c        **** }
 443:main.c        **** 
 444:main.c        **** float getRef() {
 445:main.c        **** 	float result = 4.080/255.0*VDAC_Ref_Data;
 446:main.c        **** 	if (VDAC_Ref_CR0 & (VDAC_Ref_RANGE_1V & VDAC_Ref_RANGE_MASK)) {
 447:main.c        **** 		result = 1.020/255.0*VDAC_Ref_Data;
 448:main.c        **** 	}
 449:main.c        **** 	return result;
 450:main.c        **** }
 451:main.c        **** 
 452:main.c        **** float getVgs() {
 453:main.c        **** 	float result = 4.080/255.0*VDAC_Vgs_Data - getRef();
 454:main.c        **** 	if (VDAC_Vgs_CR0 & (VDAC_Vgs_RANGE_1V & VDAC_Vgs_RANGE_MASK)) {
 455:main.c        **** 		result = 1.020/255.0*VDAC_Vgs_Data - getRef();
 456:main.c        **** 	}
 457:main.c        **** 	return result;
 458:main.c        **** }
 459:main.c        **** 
 460:main.c        **** float getVds() {
 461:main.c        **** 	float result = 4.080/255.0*VDAC_Vds_Data - getRef();
 462:main.c        **** 	if (VDAC_Vds_CR0 & (VDAC_Vds_RANGE_1V & VDAC_Vds_RANGE_MASK)) {
 463:main.c        **** 		result = 1.020/255.0*VDAC_Vds_Data - getRef();
 464:main.c        **** 	}
 465:main.c        **** 	return result;
 466:main.c        **** }
 467:main.c        **** 
 468:main.c        **** void Zero_All_DACs() {
 469:main.c        **** 	SetVdsRaw(0);
 470:main.c        **** 	SetVgsRaw(0);
 471:main.c        **** 	
 472:main.c        **** 	VDAC_Vds_SetValue(0);
 473:main.c        **** 	VDAC_Vgs_SetValue(0);
 474:main.c        **** }
 475:main.c        **** 
 476:main.c        **** void measure() {
 477:main.c        **** 	int32 IdsAverage = 0;
 478:main.c        **** 	int32 IdsStandardDeviation = 0;
 479:main.c        **** 	
 480:main.c        **** 	ADC_Measure_uV(&IdsAverage, &IdsStandardDeviation, 100);
 481:main.c        **** 	
ARM GAS  C:\Users\Noyce\AppData\Local\Temp\ccdn8Rrk.s 			page 12


 482:main.c        **** 	float temp = -1e-6/20e3*IdsAverage;
 483:main.c        **** 	
 484:main.c        **** 	ADC_SAR_1_StartConvert();
 485:main.c        **** 	ADC_SAR_2_StartConvert();
 486:main.c        **** 	while (!ADC_SAR_1_IsEndConversion(ADC_SAR_1_RETURN_STATUS));
 487:main.c        **** 	while (!ADC_SAR_2_IsEndConversion(ADC_SAR_2_RETURN_STATUS));
 488:main.c        **** 	
 489:main.c        **** 	float SAR1 = ADC_SAR_1_CountsTo_Volts(ADC_SAR_1_GetResult16());
 490:main.c        **** 	float SAR2 = ADC_SAR_2_CountsTo_Volts(ADC_SAR_2_GetResult16());
 491:main.c        **** 	
 492:main.c        **** 	sprintf(TransmitBuffer, "[%e,%f,%f,%f,%f]\r\n", temp, getVgs(), getVds(), SAR1, SAR2);
 493:main.c        **** 	USBUARTH_Send(TransmitBuffer, strlen(TransmitBuffer));
 494:main.c        **** 	UART_1_PutString(TransmitBuffer);
 495:main.c        **** }
 496:main.c        **** 
 497:main.c        **** void Measure_Gate_Sweep(uint8 loop) {
 498:main.c        **** 	sprintf(TransmitBuffer, "\r\n[");
 499:main.c        **** 	USBUARTH_Send(TransmitBuffer, strlen(TransmitBuffer));
 500:main.c        **** 	UART_1_PutString(TransmitBuffer);
 501:main.c        **** 	
 502:main.c        **** 	for (uint8 l = 0; l <= loop; l++) {
 503:main.c        **** 		int8 direction = 1;
 504:main.c        **** 		uint8 istart = 0;
 505:main.c        **** 		uint8 istop = 255;
 506:main.c        **** 		
 507:main.c        **** 		if (l%2 == 1) {
 508:main.c        **** 			direction = -1;
 509:main.c        **** 			istart = 255;
 510:main.c        **** 			istop = 0;
 511:main.c        **** 		}
 512:main.c        **** 		
 513:main.c        **** 		for (uint16 Vgsi = istart; Vgsi != istop; Vgsi += direction) {
 514:main.c        **** 			int32 IdsAverage = 0;
 515:main.c        **** 			int32 IdsStandardDeviation = 0;
 516:main.c        **** 			
 517:main.c        **** 			SetVgsRaw(Vgsi);
 518:main.c        **** 			
 519:main.c        **** 			ADC_Measure_uV(&IdsAverage, &IdsStandardDeviation, 100);
 520:main.c        **** 			
 521:main.c        **** 			// Send the collected data
 522:main.c        **** 			//sprintf(TransmitBuffer, "[%d, %lu, %lu]\r\n", Vgsi, IdsAverage, IdsStandardDeviation);
 523:main.c        **** 			
 524:main.c        **** 			if (Vgsi > 0) {
 525:main.c        **** 				sprintf(TransmitBuffer, ",");
 526:main.c        **** 				USBUARTH_Send(TransmitBuffer, strlen(TransmitBuffer));
 527:main.c        **** 				UART_1_PutString(TransmitBuffer);
 528:main.c        **** 			}
 529:main.c        **** 			
 530:main.c        **** 			float temp = -1e-6/20e3*IdsAverage;
 531:main.c        **** 			
 532:main.c        **** 			sprintf(TransmitBuffer, "%e", temp);
 533:main.c        **** 			USBUARTH_Send(TransmitBuffer, strlen(TransmitBuffer));
 534:main.c        **** 			UART_1_PutString(TransmitBuffer);
 535:main.c        **** 			
 536:main.c        **** 			// sprintf(TransmitBuffer, "%lu", IdsAverage);
 537:main.c        **** 			// USBUARTH_Send(TransmitBuffer, strlen(TransmitBuffer));
 538:main.c        **** 			// UART_1_PutString(TransmitBuffer);
ARM GAS  C:\Users\Noyce\AppData\Local\Temp\ccdn8Rrk.s 			page 13


 539:main.c        **** 			
 540:main.c        **** 			if (G_Stop) break;
 541:main.c        **** 			while (G_Pause);
 542:main.c        **** 		}
 543:main.c        **** 	}
 544:main.c        **** 	
 545:main.c        **** 	sprintf(TransmitBuffer, "]\r\n");
 546:main.c        **** 	USBUARTH_Send(TransmitBuffer, strlen(TransmitBuffer));
 547:main.c        **** 	UART_1_PutString(TransmitBuffer);
 548:main.c        **** }
 549:main.c        **** 
 550:main.c        **** void Measure_Wide_Gate_Sweep(uint8 loop) {
 551:main.c        **** 	SetRef(254);
 552:main.c        **** 	
 553:main.c        **** 	int8 speed = 16;
 554:main.c        **** 	
 555:main.c        **** 	for (uint8 l = 0; l <= loop; l++) {
 556:main.c        **** 		int8 direction = 1*speed;
 557:main.c        **** 		uint8 istart = 0;
 558:main.c        **** 		uint8 istop = 256-speed;
 559:main.c        **** 		
 560:main.c        **** 		if (l%2 == 1) {
 561:main.c        **** 			direction = -1*speed;
 562:main.c        **** 			istart = 256-speed;
 563:main.c        **** 			istop = 0;
 564:main.c        **** 		}
 565:main.c        **** 		
 566:main.c        **** 		for (uint8 i = istart; i != istop; i += direction) {
 567:main.c        **** 			for (uint8 j = 0; j <= 1; j++) {
 568:main.c        **** 				int32 IdsAverage = 0;
 569:main.c        **** 				int32 IdsStandardDeviation = 0;
 570:main.c        **** 				
 571:main.c        **** 				if (j == 1) SetRef(254 - i + 1);
 572:main.c        **** 				SetVgsRaw(i);
 573:main.c        **** 				
 574:main.c        **** 				ADC_Measure_uV(&IdsAverage, &IdsStandardDeviation, 33);
 575:main.c        **** 				
 576:main.c        **** 				float temp = -1e-6/20e3*IdsAverage;
 577:main.c        **** 				
 578:main.c        **** 				ADC_SAR_1_StartConvert();
 579:main.c        **** 				ADC_SAR_2_StartConvert();
 580:main.c        **** 				while (!ADC_SAR_1_IsEndConversion(ADC_SAR_1_RETURN_STATUS));
 581:main.c        **** 				while (!ADC_SAR_2_IsEndConversion(ADC_SAR_2_RETURN_STATUS));
 582:main.c        **** 				
 583:main.c        **** 				float SAR1 = ADC_SAR_1_CountsTo_Volts(ADC_SAR_1_GetResult16());
 584:main.c        **** 				float SAR2 = ADC_SAR_2_CountsTo_Volts(ADC_SAR_2_GetResult16());
 585:main.c        **** 				
 586:main.c        **** 				sprintf(TransmitBuffer, "[%e,%f,%f,%f,%f]\r\n", temp, getVgs(), getVds(), SAR1, SAR2);
 587:main.c        **** 				USBUARTH_Send(TransmitBuffer, strlen(TransmitBuffer));
 588:main.c        **** 				UART_1_PutString(TransmitBuffer);
 589:main.c        **** 				
 590:main.c        **** 				if (G_Stop) break;
 591:main.c        **** 				while (G_Pause);
 592:main.c        **** 			}
 593:main.c        **** 		}
 594:main.c        **** 	}
 595:main.c        **** }
ARM GAS  C:\Users\Noyce\AppData\Local\Temp\ccdn8Rrk.s 			page 14


 596:main.c        **** 
 597:main.c        **** void scan(uint8 wide, uint8 loop) {
 598:main.c        **** 	for (uint8 device = 1; device <= CONTACT_COUNT/**//2; device++) {
 599:main.c        **** 		uint8 contact1 = device;
 600:main.c        **** 		uint8 contact2 = device + 1;
 601:main.c        **** 		uint8 intermediate1 = 1;
 602:main.c        **** 		uint8 intermediate2 = 2;
 603:main.c        **** 		
 604:main.c        **** 		Disconnect_All_Contacts_From_All_Intermediates();
 605:main.c        **** 		Zero_All_DACs();
 606:main.c        **** 		Connect_Intermediates();
 607:main.c        **** 		Connect_Contact_To_Intermediate(contact1, intermediate1);
 608:main.c        **** 		Connect_Contact_To_Intermediate(contact2, intermediate2);
 609:main.c        **** 		
 610:main.c        **** 		sprintf(TransmitBuffer, "\r\n%u\r\n", device);
 611:main.c        **** 		USBUARTH_Send(TransmitBuffer, strlen(TransmitBuffer));
 612:main.c        **** 		UART_1_PutString(TransmitBuffer);
 613:main.c        **** 		
 614:main.c        **** 		// SetVdsRaw(109);
 615:main.c        **** 		SetVds(-15);
 616:main.c        **** 		
 617:main.c        **** 		if (wide) {
 618:main.c        **** 			Measure_Wide_Gate_Sweep(loop);
 619:main.c        **** 		} else {
 620:main.c        **** 			Measure_Gate_Sweep(loop);
 621:main.c        **** 		}
 622:main.c        **** 		
 623:main.c        **** 		if (G_Break || G_Stop) break;
 624:main.c        **** 		while (G_Pause);
 625:main.c        **** 	}
 626:main.c        **** }
 627:main.c        **** 
 628:main.c        **** void Scan_Range(uint8 startDevice, uint8 stopDevice, uint8 wide, uint8 loop) {
 629:main.c        **** 	if (startDevice >= CONTACT_COUNT) return;
 630:main.c        **** 	if (stopDevice >= CONTACT_COUNT) return;
 631:main.c        **** 	
 632:main.c        **** 	for (uint8 device = startDevice; device <= stopDevice; device++) {
 633:main.c        **** 		uint8 contact1 = device;
 634:main.c        **** 		uint8 contact2 = device + 1;
 635:main.c        **** 		uint8 intermediate1 = 1;
 636:main.c        **** 		uint8 intermediate2 = 2;
 637:main.c        **** 		
 638:main.c        **** 		Disconnect_All_Contacts_From_All_Intermediates();
 639:main.c        **** 		Zero_All_DACs();
 640:main.c        **** 		Connect_Intermediates();
 641:main.c        **** 		Connect_Contact_To_Intermediate(contact1, intermediate1);
 642:main.c        **** 		Connect_Contact_To_Intermediate(contact2, intermediate2);
 643:main.c        **** 		
 644:main.c        **** 		sprintf(TransmitBuffer, "\r\n%u\r\n", device);
 645:main.c        **** 		USBUARTH_Send(TransmitBuffer, strlen(TransmitBuffer));
 646:main.c        **** 		UART_1_PutString(TransmitBuffer);
 647:main.c        **** 		
 648:main.c        **** 		// SetVdsRaw(109);
 649:main.c        **** 		// SetVds(-15);
 650:main.c        **** 		SetVds(-63);
 651:main.c        **** 		
 652:main.c        **** 		if (wide) {
ARM GAS  C:\Users\Noyce\AppData\Local\Temp\ccdn8Rrk.s 			page 15


 653:main.c        **** 			Measure_Wide_Gate_Sweep(loop);
 654:main.c        **** 		} else {
 655:main.c        **** 			Measure_Gate_Sweep(loop);
 656:main.c        **** 		}
 657:main.c        **** 		
 658:main.c        **** 		if (G_Break || G_Stop) break;
 659:main.c        **** 		while (G_Pause);
 660:main.c        **** 	}
 661:main.c        **** }
 662:main.c        **** 
 663:main.c        **** CY_ISR (CommunicationHandlerISR) {
 109              		.loc 2 663 0
 110              		.cfi_startproc
 111              		@ args = 0, pretend = 0, frame = 64
 112              		@ frame_needed = 0, uses_anonymous_args = 0
 113 0000 30B5     		push	{r4, r5, lr}
 114              		.cfi_def_cfa_offset 12
 115              		.cfi_offset 4, -12
 116              		.cfi_offset 5, -8
 117              		.cfi_offset 14, -4
 118 0002 91B0     		sub	sp, sp, #68
 119              		.cfi_def_cfa_offset 80
 664:main.c        **** 	if (USBUARTH_DataIsReady()) {
 120              		.loc 2 664 0
 121 0004 FFF7FEFF 		bl	USBUARTH_DataIsReady
 122              	.LVL8:
 123 0008 0028     		cmp	r0, #0
 124 000a 37D0     		beq	.L10
 125              	.LBB2:
 665:main.c        **** 		// USBUARTH_Receive_Until(UART_Receive_Buffer, USBUART_BUFFER_SIZE, "\r");
 666:main.c        **** 		
 667:main.c        **** 		char temp_buffer[USBUART_BUFFER_SIZE];
 668:main.c        **** 		uint8 temp_count = USBUART_GetAll((uint8*) temp_buffer);
 126              		.loc 2 668 0
 127 000c 6846     		mov	r0, sp
 128 000e FFF7FEFF 		bl	USBUART_GetAll
 129              	.LVL9:
 130 0012 C0B2     		uxtb	r0, r0
 131              	.LVL10:
 132              	.LBB3:
 669:main.c        **** 		
 670:main.c        **** 		for (uint8 i = 0; i < temp_count; i++) {
 133              		.loc 2 670 0
 134 0014 0023     		movs	r3, #0
 135 0016 2EE0     		b	.L11
 136              	.LVL11:
 137              	.L17:
 138              	.LBB4:
 671:main.c        **** 			char c = temp_buffer[i];
 139              		.loc 2 671 0
 140 0018 10AA     		add	r2, sp, #64
 141 001a 1A44     		add	r2, r2, r3
 142 001c 12F8402C 		ldrb	r2, [r2, #-64]	@ zero_extendqisi2
 143              	.LVL12:
 672:main.c        **** 			
 673:main.c        **** 			USBUART_Receive_Buffer[USBUART_Rx_Position] = c;
 144              		.loc 2 673 0
ARM GAS  C:\Users\Noyce\AppData\Local\Temp\ccdn8Rrk.s 			page 16


 145 0020 5949     		ldr	r1, .L31
 146 0022 0978     		ldrb	r1, [r1]	@ zero_extendqisi2
 147 0024 C9B2     		uxtb	r1, r1
 148 0026 594C     		ldr	r4, .L31+4
 149 0028 6254     		strb	r2, [r4, r1]
 674:main.c        **** 			
 675:main.c        **** 			// sprintf(TransmitBuffer, "USB: %c\r\n", USBUART_Receive_Buffer[USBUART_Rx_Position]);
 676:main.c        **** 			// UART_1_PutString(TransmitBuffer);
 677:main.c        **** 			
 678:main.c        **** 			if (c == '\r' || c == '\n' || c == '!') {
 150              		.loc 2 678 0
 151 002a 0D2A     		cmp	r2, #13
 152 002c 03D0     		beq	.L12
 153              		.loc 2 678 0 is_stmt 0 discriminator 1
 154 002e 0A2A     		cmp	r2, #10
 155 0030 01D0     		beq	.L12
 156              		.loc 2 678 0 discriminator 2
 157 0032 212A     		cmp	r2, #33
 158 0034 10D1     		bne	.L13
 159              	.L12:
 679:main.c        **** 				USBUART_Receive_Buffer[USBUART_Rx_Position] = 0;
 160              		.loc 2 679 0 is_stmt 1
 161 0036 5449     		ldr	r1, .L31
 162 0038 0A78     		ldrb	r2, [r1]	@ zero_extendqisi2
 163              	.LVL13:
 164 003a D2B2     		uxtb	r2, r2
 165 003c 0025     		movs	r5, #0
 166 003e 534C     		ldr	r4, .L31+4
 167 0040 A554     		strb	r5, [r4, r2]
 680:main.c        **** 				if (USBUART_Rx_Position) newData = 1;
 168              		.loc 2 680 0
 169 0042 0A78     		ldrb	r2, [r1]	@ zero_extendqisi2
 170 0044 12F0FF0F 		tst	r2, #255
 171 0048 02D0     		beq	.L14
 172              		.loc 2 680 0 is_stmt 0 discriminator 1
 173 004a 0121     		movs	r1, #1
 174 004c 504A     		ldr	r2, .L31+8
 175 004e 1170     		strb	r1, [r2]
 176              	.L14:
 681:main.c        **** 				USBUART_Rx_Position = 0;
 177              		.loc 2 681 0 is_stmt 1
 178 0050 0021     		movs	r1, #0
 179 0052 4D4A     		ldr	r2, .L31
 180 0054 1170     		strb	r1, [r2]
 181 0056 04E0     		b	.L15
 182              	.LVL14:
 183              	.L13:
 682:main.c        **** 			} else {
 683:main.c        **** 				USBUART_Rx_Position++;
 184              		.loc 2 683 0
 185 0058 4B49     		ldr	r1, .L31
 186 005a 0A78     		ldrb	r2, [r1]	@ zero_extendqisi2
 187              	.LVL15:
 188 005c 0132     		adds	r2, r2, #1
 189 005e D2B2     		uxtb	r2, r2
 190 0060 0A70     		strb	r2, [r1]
 191              	.L15:
ARM GAS  C:\Users\Noyce\AppData\Local\Temp\ccdn8Rrk.s 			page 17


 684:main.c        **** 			}
 685:main.c        **** 			
 686:main.c        **** 			if (USBUART_Rx_Position >= USBUART_BUFFER_SIZE) USBUART_Rx_Position = 0;
 192              		.loc 2 686 0
 193 0062 494A     		ldr	r2, .L31
 194 0064 1278     		ldrb	r2, [r2]	@ zero_extendqisi2
 195 0066 D2B2     		uxtb	r2, r2
 196 0068 3F2A     		cmp	r2, #63
 197 006a 02D9     		bls	.L16
 198              		.loc 2 686 0 is_stmt 0 discriminator 1
 199 006c 0021     		movs	r1, #0
 200 006e 464A     		ldr	r2, .L31
 201 0070 1170     		strb	r1, [r2]
 202              	.L16:
 203              	.LBE4:
 670:main.c        **** 			char c = temp_buffer[i];
 204              		.loc 2 670 0 is_stmt 1 discriminator 2
 205 0072 0133     		adds	r3, r3, #1
 206              	.LVL16:
 207 0074 DBB2     		uxtb	r3, r3
 208              	.LVL17:
 209              	.L11:
 670:main.c        **** 			char c = temp_buffer[i];
 210              		.loc 2 670 0 is_stmt 0 discriminator 1
 211 0076 8342     		cmp	r3, r0
 212 0078 CED3     		bcc	.L17
 213 007a 3AE0     		b	.L18
 214              	.LVL18:
 215              	.L10:
 216              	.LBE3:
 217              	.LBE2:
 687:main.c        **** 		}
 688:main.c        **** 	} else
 689:main.c        **** 	if (UART_1_GetRxBufferSize()) {
 218              		.loc 2 689 0 is_stmt 1
 219 007c FFF7FEFF 		bl	UART_1_GetRxBufferSize
 220              	.LVL19:
 221 0080 0028     		cmp	r0, #0
 222 0082 36D0     		beq	.L18
 690:main.c        **** 		UART_Receive_Buffer[UART_Rx_Position] = UART_1_GetChar();
 223              		.loc 2 690 0
 224 0084 434D     		ldr	r5, .L31+12
 225 0086 2C78     		ldrb	r4, [r5]	@ zero_extendqisi2
 226 0088 E4B2     		uxtb	r4, r4
 227 008a FFF7FEFF 		bl	UART_1_GetChar
 228              	.LVL20:
 229 008e 424A     		ldr	r2, .L31+16
 230 0090 1055     		strb	r0, [r2, r4]
 691:main.c        **** 		
 692:main.c        **** 		if (UART_Receive_Buffer[UART_Rx_Position] == '\r' || UART_Receive_Buffer[UART_Rx_Position] == '\n
 231              		.loc 2 692 0
 232 0092 2B78     		ldrb	r3, [r5]	@ zero_extendqisi2
 233 0094 DBB2     		uxtb	r3, r3
 234 0096 D35C     		ldrb	r3, [r2, r3]	@ zero_extendqisi2
 235 0098 DBB2     		uxtb	r3, r3
 236 009a 0D2B     		cmp	r3, #13
 237 009c 0BD0     		beq	.L19
ARM GAS  C:\Users\Noyce\AppData\Local\Temp\ccdn8Rrk.s 			page 18


 238              		.loc 2 692 0 is_stmt 0 discriminator 1
 239 009e 2B78     		ldrb	r3, [r5]	@ zero_extendqisi2
 240 00a0 DBB2     		uxtb	r3, r3
 241 00a2 D35C     		ldrb	r3, [r2, r3]	@ zero_extendqisi2
 242 00a4 DBB2     		uxtb	r3, r3
 243 00a6 0A2B     		cmp	r3, #10
 244 00a8 05D0     		beq	.L19
 245              		.loc 2 692 0 discriminator 2
 246 00aa 2B78     		ldrb	r3, [r5]	@ zero_extendqisi2
 247 00ac DBB2     		uxtb	r3, r3
 248 00ae D35C     		ldrb	r3, [r2, r3]	@ zero_extendqisi2
 249 00b0 DBB2     		uxtb	r3, r3
 250 00b2 212B     		cmp	r3, #33
 251 00b4 10D1     		bne	.L20
 252              	.L19:
 693:main.c        **** 			UART_Receive_Buffer[UART_Rx_Position] = 0;
 253              		.loc 2 693 0 is_stmt 1
 254 00b6 374A     		ldr	r2, .L31+12
 255 00b8 1378     		ldrb	r3, [r2]	@ zero_extendqisi2
 256 00ba DBB2     		uxtb	r3, r3
 257 00bc 0020     		movs	r0, #0
 258 00be 3649     		ldr	r1, .L31+16
 259 00c0 C854     		strb	r0, [r1, r3]
 694:main.c        **** 			if (UART_Rx_Position) newData = 2;
 260              		.loc 2 694 0
 261 00c2 1378     		ldrb	r3, [r2]	@ zero_extendqisi2
 262 00c4 13F0FF0F 		tst	r3, #255
 263 00c8 02D0     		beq	.L21
 264              		.loc 2 694 0 is_stmt 0 discriminator 1
 265 00ca 0222     		movs	r2, #2
 266 00cc 304B     		ldr	r3, .L31+8
 267 00ce 1A70     		strb	r2, [r3]
 268              	.L21:
 695:main.c        **** 			UART_Rx_Position = 0;
 269              		.loc 2 695 0 is_stmt 1
 270 00d0 0022     		movs	r2, #0
 271 00d2 304B     		ldr	r3, .L31+12
 272 00d4 1A70     		strb	r2, [r3]
 273 00d6 04E0     		b	.L22
 274              	.L20:
 696:main.c        **** 		} else {
 697:main.c        **** 			UART_Rx_Position++;
 275              		.loc 2 697 0
 276 00d8 2E4A     		ldr	r2, .L31+12
 277 00da 1378     		ldrb	r3, [r2]	@ zero_extendqisi2
 278 00dc 0133     		adds	r3, r3, #1
 279 00de DBB2     		uxtb	r3, r3
 280 00e0 1370     		strb	r3, [r2]
 281              	.L22:
 698:main.c        **** 		}
 699:main.c        **** 		
 700:main.c        **** 		if (UART_Rx_Position >= USBUART_BUFFER_SIZE) UART_Rx_Position = 0;
 282              		.loc 2 700 0
 283 00e2 2C4B     		ldr	r3, .L31+12
 284 00e4 1B78     		ldrb	r3, [r3]	@ zero_extendqisi2
 285 00e6 DBB2     		uxtb	r3, r3
 286 00e8 3F2B     		cmp	r3, #63
ARM GAS  C:\Users\Noyce\AppData\Local\Temp\ccdn8Rrk.s 			page 19


 287 00ea 02D9     		bls	.L18
 288              		.loc 2 700 0 is_stmt 0 discriminator 1
 289 00ec 0022     		movs	r2, #0
 290 00ee 294B     		ldr	r3, .L31+12
 291 00f0 1A70     		strb	r2, [r3]
 292              	.L18:
 701:main.c        **** 	}
 702:main.c        **** 	
 703:main.c        **** 	if (newData) {
 293              		.loc 2 703 0 is_stmt 1
 294 00f2 274B     		ldr	r3, .L31+8
 295 00f4 1B78     		ldrb	r3, [r3]	@ zero_extendqisi2
 296 00f6 13F0FF0F 		tst	r3, #255
 297 00fa 3FD0     		beq	.L23
 298              	.LVL21:
 299              	.LBB5:
 704:main.c        **** 		char* ReceiveBuffer = &USBUART_Receive_Buffer[0];
 705:main.c        **** 		if (newData == 2) ReceiveBuffer = &UART_Receive_Buffer[0];
 300              		.loc 2 705 0
 301 00fc 244B     		ldr	r3, .L31+8
 302 00fe 1B78     		ldrb	r3, [r3]	@ zero_extendqisi2
 303 0100 DBB2     		uxtb	r3, r3
 304 0102 022B     		cmp	r3, #2
 305 0104 01D0     		beq	.L29
 704:main.c        **** 		char* ReceiveBuffer = &USBUART_Receive_Buffer[0];
 306              		.loc 2 704 0
 307 0106 214C     		ldr	r4, .L31+4
 308 0108 00E0     		b	.L24
 309              	.L29:
 310              		.loc 2 705 0
 311 010a 234C     		ldr	r4, .L31+16
 312              	.L24:
 313              	.LVL22:
 706:main.c        **** 		
 707:main.c        **** 		if (strstr(ReceiveBuffer, "stop ") == &ReceiveBuffer[0]) {
 314              		.loc 2 707 0
 315 010c 2349     		ldr	r1, .L31+20
 316 010e 2046     		mov	r0, r4
 317 0110 FFF7FEFF 		bl	strstr
 318              	.LVL23:
 319 0114 8442     		cmp	r4, r0
 320 0116 05D1     		bne	.L25
 708:main.c        **** 			G_Stop = 1;
 321              		.loc 2 708 0
 322 0118 1D4B     		ldr	r3, .L31+8
 323 011a 0122     		movs	r2, #1
 324 011c 5A70     		strb	r2, [r3, #1]
 709:main.c        **** 			newData = 0;
 325              		.loc 2 709 0
 326 011e 0022     		movs	r2, #0
 327 0120 1A70     		strb	r2, [r3]
 328 0122 2BE0     		b	.L23
 329              	.L25:
 710:main.c        **** 		} else 
 711:main.c        **** 		if (strstr(ReceiveBuffer, "break ") == &ReceiveBuffer[0]) {
 330              		.loc 2 711 0
 331 0124 1E49     		ldr	r1, .L31+24
ARM GAS  C:\Users\Noyce\AppData\Local\Temp\ccdn8Rrk.s 			page 20


 332 0126 2046     		mov	r0, r4
 333 0128 FFF7FEFF 		bl	strstr
 334              	.LVL24:
 335 012c 8442     		cmp	r4, r0
 336 012e 05D1     		bne	.L26
 712:main.c        **** 			G_Break = 1;
 337              		.loc 2 712 0
 338 0130 174B     		ldr	r3, .L31+8
 339 0132 0122     		movs	r2, #1
 340 0134 9A70     		strb	r2, [r3, #2]
 713:main.c        **** 			newData = 0;
 341              		.loc 2 713 0
 342 0136 0022     		movs	r2, #0
 343 0138 1A70     		strb	r2, [r3]
 344 013a 1FE0     		b	.L23
 345              	.L26:
 714:main.c        **** 		} else 
 715:main.c        **** 		if (strstr(ReceiveBuffer, "pause ") == &ReceiveBuffer[0]) {
 346              		.loc 2 715 0
 347 013c 1949     		ldr	r1, .L31+28
 348 013e 2046     		mov	r0, r4
 349 0140 FFF7FEFF 		bl	strstr
 350              	.LVL25:
 351 0144 8442     		cmp	r4, r0
 352 0146 05D1     		bne	.L27
 716:main.c        **** 			G_Pause = 1;
 353              		.loc 2 716 0
 354 0148 114B     		ldr	r3, .L31+8
 355 014a 0122     		movs	r2, #1
 356 014c DA70     		strb	r2, [r3, #3]
 717:main.c        **** 			newData = 0;
 357              		.loc 2 717 0
 358 014e 0022     		movs	r2, #0
 359 0150 1A70     		strb	r2, [r3]
 360 0152 13E0     		b	.L23
 361              	.L27:
 718:main.c        **** 		} else 
 719:main.c        **** 		if (strstr(ReceiveBuffer, "resume ") == &ReceiveBuffer[0]) {
 362              		.loc 2 719 0
 363 0154 1449     		ldr	r1, .L31+32
 364 0156 2046     		mov	r0, r4
 365 0158 FFF7FEFF 		bl	strstr
 366              	.LVL26:
 367 015c 8442     		cmp	r4, r0
 368 015e 04D1     		bne	.L28
 720:main.c        **** 			G_Pause = 0;
 369              		.loc 2 720 0
 370 0160 0B4B     		ldr	r3, .L31+8
 371 0162 0022     		movs	r2, #0
 372 0164 DA70     		strb	r2, [r3, #3]
 721:main.c        **** 			newData = 0;
 373              		.loc 2 721 0
 374 0166 1A70     		strb	r2, [r3]
 375 0168 08E0     		b	.L23
 376              	.L28:
 722:main.c        **** 		} else 
 723:main.c        **** 		if (strstr(ReceiveBuffer, "tristate ") == &ReceiveBuffer[0]) {
ARM GAS  C:\Users\Noyce\AppData\Local\Temp\ccdn8Rrk.s 			page 21


 377              		.loc 2 723 0
 378 016a 1049     		ldr	r1, .L31+36
 379 016c 2046     		mov	r0, r4
 380 016e FFF7FEFF 		bl	strstr
 381              	.LVL27:
 382 0172 8442     		cmp	r4, r0
 383 0174 02D1     		bne	.L23
 724:main.c        **** 			// To do
 725:main.c        **** 			newData = 0;
 384              		.loc 2 725 0
 385 0176 0022     		movs	r2, #0
 386 0178 054B     		ldr	r3, .L31+8
 387 017a 1A70     		strb	r2, [r3]
 388              	.LVL28:
 389              	.L23:
 390              	.LBE5:
 726:main.c        **** 		}
 727:main.c        **** 	}
 728:main.c        **** 	
 729:main.c        **** 	CommunicationInterrupt_ClearPending();
 391              		.loc 2 729 0
 392 017c FFF7FEFF 		bl	CommunicationInterrupt_ClearPending
 393              	.LVL29:
 730:main.c        **** 	CommunicationTimer_ReadStatusRegister();
 394              		.loc 2 730 0
 395 0180 FFF7FEFF 		bl	CommunicationTimer_ReadStatusRegister
 396              	.LVL30:
 731:main.c        **** }
 397              		.loc 2 731 0
 398 0184 11B0     		add	sp, sp, #68
 399              		.cfi_def_cfa_offset 12
 400              		@ sp needed
 401 0186 30BD     		pop	{r4, r5, pc}
 402              	.L32:
 403              		.align	2
 404              	.L31:
 405 0188 00000000 		.word	USBUART_Rx_Position
 406 018c 00000000 		.word	USBUART_Receive_Buffer
 407 0190 00000000 		.word	.LANCHOR0
 408 0194 00000000 		.word	UART_Rx_Position
 409 0198 00000000 		.word	UART_Receive_Buffer
 410 019c 00000000 		.word	.LC0
 411 01a0 08000000 		.word	.LC1
 412 01a4 10000000 		.word	.LC2
 413 01a8 18000000 		.word	.LC3
 414 01ac 20000000 		.word	.LC4
 415              		.cfi_endproc
 416              	.LFE100:
 417              		.size	CommunicationHandlerISR, .-CommunicationHandlerISR
 418              		.section	.text.USBUARTH_Send,"ax",%progbits
 419              		.align	2
 420              		.global	USBUARTH_Send
 421              		.thumb
 422              		.thumb_func
 423              		.type	USBUARTH_Send, %function
 424              	USBUARTH_Send:
 425              	.LFB66:
ARM GAS  C:\Users\Noyce\AppData\Local\Temp\ccdn8Rrk.s 			page 22


  39:USBUART_Helpers.h **** 
  40:USBUART_Helpers.h **** 
  41:USBUART_Helpers.h **** uint8 USBUARTH_Send(char* buffer, uint16 count) {
 426              		.loc 1 41 0
 427              		.cfi_startproc
 428              		@ args = 0, pretend = 0, frame = 0
 429              		@ frame_needed = 0, uses_anonymous_args = 0
 430              	.LVL31:
  42:USBUART_Helpers.h **** 	if (count > 0) {
 431              		.loc 1 42 0
 432 0000 49B9     		cbnz	r1, .L39
  43:USBUART_Helpers.h **** 		// Wait until component is ready to send data to host.
  44:USBUART_Helpers.h **** 		for (uint32 tries = 0; tries < 10; tries++) {
  45:USBUART_Helpers.h **** 			USBUARTH_Maintain_Configuration();
  46:USBUART_Helpers.h **** 			if (USBUART_CDCIsReady()) break;
  47:USBUART_Helpers.h **** 		}
  48:USBUART_Helpers.h ****         
  49:USBUART_Helpers.h **** 		if (!USBUART_CDCIsReady()) return 0;
  50:USBUART_Helpers.h **** 		
  51:USBUART_Helpers.h **** 		// Send data to host
  52:USBUART_Helpers.h **** 		USBUART_PutData((uint8*) buffer, count);
  53:USBUART_Helpers.h **** 		
  54:USBUART_Helpers.h **** 		/* If the last sent packet is exactly the maximum packet 
  55:USBUART_Helpers.h **** 		*  size, it is followed by a zero-length packet to assure
  56:USBUART_Helpers.h **** 		*  that the end of the segment is properly identified by 
  57:USBUART_Helpers.h **** 		*  the terminal.
  58:USBUART_Helpers.h **** 		*/
  59:USBUART_Helpers.h **** 		if (USBUART_BUFFER_SIZE == count) {
  60:USBUART_Helpers.h **** 			// Wait until component is ready to send data to PC.
  61:USBUART_Helpers.h **** 			while (!USBUART_CDCIsReady());
  62:USBUART_Helpers.h ****             
  63:USBUART_Helpers.h **** 			// Send zero-length packet to PC.
  64:USBUART_Helpers.h **** 			USBUART_PutData(NULL, 0);
  65:USBUART_Helpers.h **** 		}
  66:USBUART_Helpers.h **** 	}
  67:USBUART_Helpers.h **** 	
  68:USBUART_Helpers.h **** 	return 1;
 433              		.loc 1 68 0
 434 0002 0123     		movs	r3, #1
  69:USBUART_Helpers.h **** }
 435              		.loc 1 69 0
 436 0004 1846     		mov	r0, r3
 437              	.LVL32:
 438 0006 7047     		bx	lr
 439              	.LVL33:
 440              	.L37:
 441              		.cfi_def_cfa_offset 16
 442              		.cfi_offset 4, -16
 443              		.cfi_offset 5, -12
 444              		.cfi_offset 6, -8
 445              		.cfi_offset 14, -4
 446              	.LBB6:
  45:USBUART_Helpers.h **** 			if (USBUART_CDCIsReady()) break;
 447              		.loc 1 45 0
 448 0008 FFF7FEFF 		bl	USBUARTH_Maintain_Configuration
 449              	.LVL34:
  46:USBUART_Helpers.h **** 		}
ARM GAS  C:\Users\Noyce\AppData\Local\Temp\ccdn8Rrk.s 			page 23


 450              		.loc 1 46 0
 451 000c FFF7FEFF 		bl	USBUART_CDCIsReady
 452              	.LVL35:
 453 0010 38B9     		cbnz	r0, .L36
  44:USBUART_Helpers.h **** 			USBUARTH_Maintain_Configuration();
 454              		.loc 1 44 0 discriminator 2
 455 0012 0134     		adds	r4, r4, #1
 456              	.LVL36:
 457 0014 03E0     		b	.L34
 458              	.LVL37:
 459              	.L39:
 460              		.cfi_def_cfa_offset 0
 461              		.cfi_restore 4
 462              		.cfi_restore 5
 463              		.cfi_restore 6
 464              		.cfi_restore 14
 465              	.LBE6:
  41:USBUART_Helpers.h **** 	if (count > 0) {
 466              		.loc 1 41 0
 467 0016 70B5     		push	{r4, r5, r6, lr}
 468              		.cfi_def_cfa_offset 16
 469              		.cfi_offset 4, -16
 470              		.cfi_offset 5, -12
 471              		.cfi_offset 6, -8
 472              		.cfi_offset 14, -4
 473 0018 0D46     		mov	r5, r1
 474 001a 0646     		mov	r6, r0
 475 001c 0024     		movs	r4, #0
 476              	.LVL38:
 477              	.L34:
 478              	.LBB7:
  44:USBUART_Helpers.h **** 			USBUARTH_Maintain_Configuration();
 479              		.loc 1 44 0 discriminator 1
 480 001e 092C     		cmp	r4, #9
 481 0020 F2D9     		bls	.L37
 482              	.L36:
 483              	.LBE7:
  49:USBUART_Helpers.h **** 		
 484              		.loc 1 49 0
 485 0022 FFF7FEFF 		bl	USBUART_CDCIsReady
 486              	.LVL39:
 487 0026 0346     		mov	r3, r0
 488 0028 80B1     		cbz	r0, .L35
  52:USBUART_Helpers.h **** 		
 489              		.loc 1 52 0
 490 002a 2946     		mov	r1, r5
 491 002c 3046     		mov	r0, r6
 492 002e FFF7FEFF 		bl	USBUART_PutData
 493              	.LVL40:
  59:USBUART_Helpers.h **** 			// Wait until component is ready to send data to PC.
 494              		.loc 1 59 0
 495 0032 402D     		cmp	r5, #64
 496 0034 09D1     		bne	.L40
 497              	.L38:
  61:USBUART_Helpers.h ****             
 498              		.loc 1 61 0 discriminator 1
 499 0036 FFF7FEFF 		bl	USBUART_CDCIsReady
ARM GAS  C:\Users\Noyce\AppData\Local\Temp\ccdn8Rrk.s 			page 24


 500              	.LVL41:
 501 003a 0028     		cmp	r0, #0
 502 003c FBD0     		beq	.L38
  64:USBUART_Helpers.h **** 		}
 503              		.loc 1 64 0
 504 003e 0021     		movs	r1, #0
 505 0040 0846     		mov	r0, r1
 506 0042 FFF7FEFF 		bl	USBUART_PutData
 507              	.LVL42:
  68:USBUART_Helpers.h **** }
 508              		.loc 1 68 0
 509 0046 0123     		movs	r3, #1
 510 0048 00E0     		b	.L35
 511              	.L40:
 512 004a 0123     		movs	r3, #1
 513              	.L35:
 514              		.loc 1 69 0
 515 004c 1846     		mov	r0, r3
 516 004e 70BD     		pop	{r4, r5, r6, pc}
 517              		.cfi_endproc
 518              	.LFE66:
 519              		.size	USBUARTH_Send, .-USBUARTH_Send
 520              		.section	.text.USBUARTH_Receive,"ax",%progbits
 521              		.align	2
 522              		.global	USBUARTH_Receive
 523              		.thumb
 524              		.thumb_func
 525              		.type	USBUARTH_Receive, %function
 526              	USBUARTH_Receive:
 527              	.LFB67:
  70:USBUART_Helpers.h **** 
  71:USBUART_Helpers.h **** uint8 USBUARTH_Receive(char* buffer, uint16* count) {
 528              		.loc 1 71 0
 529              		.cfi_startproc
 530              		@ args = 0, pretend = 0, frame = 0
 531              		@ frame_needed = 0, uses_anonymous_args = 0
 532              	.LVL43:
 533 0000 38B5     		push	{r3, r4, r5, lr}
 534              		.cfi_def_cfa_offset 16
 535              		.cfi_offset 3, -16
 536              		.cfi_offset 4, -12
 537              		.cfi_offset 5, -8
 538              		.cfi_offset 14, -4
 539 0002 0446     		mov	r4, r0
 540 0004 0D46     		mov	r5, r1
  72:USBUART_Helpers.h **** 	// Wait for input data from host
  73:USBUART_Helpers.h **** 	while (!USBUART_DataIsReady()) USBUARTH_Maintain_Configuration();
 541              		.loc 1 73 0
 542 0006 01E0     		b	.L43
 543              	.LVL44:
 544              	.L44:
 545              		.loc 1 73 0 is_stmt 0 discriminator 2
 546 0008 FFF7FEFF 		bl	USBUARTH_Maintain_Configuration
 547              	.LVL45:
 548              	.L43:
 549              		.loc 1 73 0 discriminator 1
 550 000c FFF7FEFF 		bl	USBUART_DataIsReady
ARM GAS  C:\Users\Noyce\AppData\Local\Temp\ccdn8Rrk.s 			page 25


 551              	.LVL46:
 552 0010 0028     		cmp	r0, #0
 553 0012 F9D0     		beq	.L44
  74:USBUART_Helpers.h **** 	
  75:USBUART_Helpers.h **** 	// Read received data and re-enable OUT endpoint.
  76:USBUART_Helpers.h **** 	*count = USBUART_GetAll((uint8*) buffer);
 554              		.loc 1 76 0 is_stmt 1
 555 0014 2046     		mov	r0, r4
 556 0016 FFF7FEFF 		bl	USBUART_GetAll
 557              	.LVL47:
 558 001a 2880     		strh	r0, [r5]	@ movhi
  77:USBUART_Helpers.h **** 	
  78:USBUART_Helpers.h **** 	buffer[*count] = 0;
 559              		.loc 1 78 0
 560 001c 0023     		movs	r3, #0
 561 001e 2354     		strb	r3, [r4, r0]
  79:USBUART_Helpers.h **** 	
  80:USBUART_Helpers.h **** 	return 1u;
  81:USBUART_Helpers.h **** }
 562              		.loc 1 81 0
 563 0020 0120     		movs	r0, #1
 564 0022 38BD     		pop	{r3, r4, r5, pc}
 565              		.cfi_endproc
 566              	.LFE67:
 567              		.size	USBUARTH_Receive, .-USBUARTH_Receive
 568              		.section	.text.USBUARTH_GetChar,"ax",%progbits
 569              		.align	2
 570              		.global	USBUARTH_GetChar
 571              		.thumb
 572              		.thumb_func
 573              		.type	USBUARTH_GetChar, %function
 574              	USBUARTH_GetChar:
 575              	.LFB68:
  82:USBUART_Helpers.h **** 
  83:USBUART_Helpers.h **** char USBUARTH_GetChar() {
 576              		.loc 1 83 0
 577              		.cfi_startproc
 578              		@ args = 0, pretend = 0, frame = 0
 579              		@ frame_needed = 0, uses_anonymous_args = 0
 580 0000 08B5     		push	{r3, lr}
 581              		.cfi_def_cfa_offset 8
 582              		.cfi_offset 3, -8
 583              		.cfi_offset 14, -4
  84:USBUART_Helpers.h **** 	while (!USBUART_DataIsReady()) USBUARTH_Maintain_Configuration();
 584              		.loc 1 84 0
 585 0002 01E0     		b	.L47
 586              	.L48:
 587              		.loc 1 84 0 is_stmt 0 discriminator 2
 588 0004 FFF7FEFF 		bl	USBUARTH_Maintain_Configuration
 589              	.LVL48:
 590              	.L47:
 591              		.loc 1 84 0 discriminator 1
 592 0008 FFF7FEFF 		bl	USBUART_DataIsReady
 593              	.LVL49:
 594 000c 0028     		cmp	r0, #0
 595 000e F9D0     		beq	.L48
  85:USBUART_Helpers.h **** 	
ARM GAS  C:\Users\Noyce\AppData\Local\Temp\ccdn8Rrk.s 			page 26


  86:USBUART_Helpers.h **** 	return USBUART_GetChar();
 596              		.loc 1 86 0 is_stmt 1
 597 0010 FFF7FEFF 		bl	USBUART_GetChar
 598              	.LVL50:
  87:USBUART_Helpers.h **** }
 599              		.loc 1 87 0
 600 0014 08BD     		pop	{r3, pc}
 601              		.cfi_endproc
 602              	.LFE68:
 603              		.size	USBUARTH_GetChar, .-USBUARTH_GetChar
 604 0016 00BF     		.section	.text.USBUARTH_Receive_Until,"ax",%progbits
 605              		.align	2
 606              		.global	USBUARTH_Receive_Until
 607              		.thumb
 608              		.thumb_func
 609              		.type	USBUARTH_Receive_Until, %function
 610              	USBUARTH_Receive_Until:
 611              	.LFB69:
  88:USBUART_Helpers.h **** 
  89:USBUART_Helpers.h **** uint8 USBUARTH_Receive_Until(char* buffer, uint16 maxLength, const char* termination) {
 612              		.loc 1 89 0
 613              		.cfi_startproc
 614              		@ args = 0, pretend = 0, frame = 0
 615              		@ frame_needed = 0, uses_anonymous_args = 0
 616              	.LVL51:
 617 0000 2DE9F041 		push	{r4, r5, r6, r7, r8, lr}
 618              		.cfi_def_cfa_offset 24
 619              		.cfi_offset 4, -24
 620              		.cfi_offset 5, -20
 621              		.cfi_offset 6, -16
 622              		.cfi_offset 7, -12
 623              		.cfi_offset 8, -8
 624              		.cfi_offset 14, -4
 625 0004 0546     		mov	r5, r0
 626 0006 0E46     		mov	r6, r1
 627 0008 1746     		mov	r7, r2
 628              	.LVL52:
 629              	.LBB8:
  90:USBUART_Helpers.h **** 	for (uint16 i = 0; i < maxLength; i++) {
 630              		.loc 1 90 0
 631 000a 0023     		movs	r3, #0
 632 000c 03E0     		b	.L51
 633              	.LVL53:
 634              	.L52:
  91:USBUART_Helpers.h **** 		buffer[i] = 0;
 635              		.loc 1 91 0 discriminator 3
 636 000e 0022     		movs	r2, #0
 637 0010 EA54     		strb	r2, [r5, r3]
  90:USBUART_Helpers.h **** 	for (uint16 i = 0; i < maxLength; i++) {
 638              		.loc 1 90 0 discriminator 3
 639 0012 0133     		adds	r3, r3, #1
 640              	.LVL54:
 641 0014 9BB2     		uxth	r3, r3
 642              	.LVL55:
 643              	.L51:
  90:USBUART_Helpers.h **** 	for (uint16 i = 0; i < maxLength; i++) {
 644              		.loc 1 90 0 is_stmt 0 discriminator 1
ARM GAS  C:\Users\Noyce\AppData\Local\Temp\ccdn8Rrk.s 			page 27


 645 0016 B342     		cmp	r3, r6
 646 0018 F9D3     		bcc	.L52
 647 001a 0024     		movs	r4, #0
 648 001c 16E0     		b	.L53
 649              	.LVL56:
 650              	.L56:
 651              	.LBE8:
 652              	.LBB9:
  92:USBUART_Helpers.h **** 	}
  93:USBUART_Helpers.h **** 	
  94:USBUART_Helpers.h **** 	for (uint16 i = 0; i < maxLength - 1; i++) {
  95:USBUART_Helpers.h **** 		buffer[i] = USBUARTH_GetChar();
 653              		.loc 1 95 0 is_stmt 1
 654 001e FFF7FEFF 		bl	USBUARTH_GetChar
 655              	.LVL57:
 656 0022 2855     		strb	r0, [r5, r4]
  96:USBUART_Helpers.h **** 		buffer[i+1] = 0;
 657              		.loc 1 96 0
 658 0024 631C     		adds	r3, r4, #1
 659 0026 0022     		movs	r2, #0
 660 0028 EA54     		strb	r2, [r5, r3]
  97:USBUART_Helpers.h **** 		
  98:USBUART_Helpers.h **** 		if (strstr(buffer, termination)) {
 661              		.loc 1 98 0
 662 002a 3946     		mov	r1, r7
 663 002c 2846     		mov	r0, r5
 664 002e FFF7FEFF 		bl	strstr
 665              	.LVL58:
 666 0032 48B1     		cbz	r0, .L54
  99:USBUART_Helpers.h **** 			buffer[i + 1 - strlen(termination)] = 0;
 667              		.loc 1 99 0
 668 0034 3846     		mov	r0, r7
 669 0036 FFF7FEFF 		bl	strlen
 670              	.LVL59:
 671 003a 201A     		subs	r0, r4, r0
 672 003c 0130     		adds	r0, r0, #1
 673 003e 0023     		movs	r3, #0
 674 0040 2B54     		strb	r3, [r5, r0]
 100:USBUART_Helpers.h **** 			return 1;
 675              		.loc 1 100 0
 676 0042 0120     		movs	r0, #1
 677 0044 BDE8F081 		pop	{r4, r5, r6, r7, r8, pc}
 678              	.LVL60:
 679              	.L54:
  94:USBUART_Helpers.h **** 		buffer[i] = USBUARTH_GetChar();
 680              		.loc 1 94 0 discriminator 2
 681 0048 0134     		adds	r4, r4, #1
 682              	.LVL61:
 683 004a A4B2     		uxth	r4, r4
 684              	.LVL62:
 685              	.L53:
  94:USBUART_Helpers.h **** 		buffer[i] = USBUARTH_GetChar();
 686              		.loc 1 94 0 is_stmt 0 discriminator 1
 687 004c 731E     		subs	r3, r6, #1
 688 004e 9C42     		cmp	r4, r3
 689 0050 E5DB     		blt	.L56
 690              	.LBE9:
ARM GAS  C:\Users\Noyce\AppData\Local\Temp\ccdn8Rrk.s 			page 28


 101:USBUART_Helpers.h **** 		}
 102:USBUART_Helpers.h **** 	}
 103:USBUART_Helpers.h **** 	
 104:USBUART_Helpers.h **** 	return 0;
 691              		.loc 1 104 0 is_stmt 1
 692 0052 0020     		movs	r0, #0
 105:USBUART_Helpers.h **** }
 693              		.loc 1 105 0
 694 0054 BDE8F081 		pop	{r4, r5, r6, r7, r8, pc}
 695              		.cfi_endproc
 696              	.LFE69:
 697              		.size	USBUARTH_Receive_Until, .-USBUARTH_Receive_Until
 698              		.section	.text.Setup_Selector_I2C_Struct,"ax",%progbits
 699              		.align	2
 700              		.global	Setup_Selector_I2C_Struct
 701              		.thumb
 702              		.thumb_func
 703              		.type	Setup_Selector_I2C_Struct, %function
 704              	Setup_Selector_I2C_Struct:
 705              	.LFB70:
  47:main.c        **** 	selector->write.subAddress = 1;
 706              		.loc 2 47 0
 707              		.cfi_startproc
 708              		@ args = 0, pretend = 0, frame = 0
 709              		@ frame_needed = 0, uses_anonymous_args = 0
 710              		@ link register save eliminated.
 711              	.LVL63:
  48:main.c        **** 	selector->read.subAddress = sizeof(selector->write) + 1;
 712              		.loc 2 48 0
 713 0000 0123     		movs	r3, #1
 714 0002 0370     		strb	r3, [r0]
  49:main.c        **** 	
 715              		.loc 2 49 0
 716 0004 8023     		movs	r3, #128
 717 0006 80F87F30 		strb	r3, [r0, #127]
 718              	.LVL64:
 719              	.LBB10:
  51:main.c        **** 		selector->write.data[i] = i + 6;
 720              		.loc 2 51 0
 721 000a 0023     		movs	r3, #0
 722 000c 04E0     		b	.L59
 723              	.LVL65:
 724              	.L60:
  52:main.c        **** 	}
 725              		.loc 2 52 0 discriminator 3
 726 000e C218     		adds	r2, r0, r3
 727 0010 991D     		adds	r1, r3, #6
 728 0012 5170     		strb	r1, [r2, #1]
  51:main.c        **** 		selector->write.data[i] = i + 6;
 729              		.loc 2 51 0 discriminator 3
 730 0014 0133     		adds	r3, r3, #1
 731              	.LVL66:
 732 0016 9BB2     		uxth	r3, r3
 733              	.LVL67:
 734              	.L59:
  51:main.c        **** 		selector->write.data[i] = i + 6;
 735              		.loc 2 51 0 is_stmt 0 discriminator 1
ARM GAS  C:\Users\Noyce\AppData\Local\Temp\ccdn8Rrk.s 			page 29


 736 0018 7D2B     		cmp	r3, #125
 737 001a F8D9     		bls	.L60
 738 001c 0023     		movs	r3, #0
 739              	.LVL68:
 740 001e 05E0     		b	.L61
 741              	.LVL69:
 742              	.L62:
 743              	.LBE10:
 744              	.LBB11:
  55:main.c        **** 	}
 745              		.loc 2 55 0 is_stmt 1 discriminator 3
 746 0020 C218     		adds	r2, r0, r3
 747 0022 BE21     		movs	r1, #190
 748 0024 82F88010 		strb	r1, [r2, #128]
  54:main.c        **** 		selector->read.data[i] = 0xbe;
 749              		.loc 2 54 0 discriminator 3
 750 0028 0133     		adds	r3, r3, #1
 751              	.LVL70:
 752 002a 9BB2     		uxth	r3, r3
 753              	.LVL71:
 754              	.L61:
  54:main.c        **** 		selector->read.data[i] = 0xbe;
 755              		.loc 2 54 0 is_stmt 0 discriminator 1
 756 002c 7D2B     		cmp	r3, #125
 757 002e F7D9     		bls	.L62
 758              	.LBE11:
  57:main.c        **** 
 759              		.loc 2 57 0 is_stmt 1
 760 0030 7047     		bx	lr
 761              		.cfi_endproc
 762              	.LFE70:
 763              		.size	Setup_Selector_I2C_Struct, .-Setup_Selector_I2C_Struct
 764              		.global	__aeabi_dcmpge
 765              		.global	__aeabi_ui2d
 766              		.global	__aeabi_dcmplt
 767 0032 00BF     		.section	.text.Update_Selector,"ax",%progbits
 768              		.align	2
 769              		.global	Update_Selector
 770              		.thumb
 771              		.thumb_func
 772              		.type	Update_Selector, %function
 773              	Update_Selector:
 774              	.LFB71:
  59:main.c        **** 	sprintf(TransmitBuffer, "Updating Selector %u\r\n", selectori + 1);
 775              		.loc 2 59 0
 776              		.cfi_startproc
 777              		@ args = 0, pretend = 0, frame = 0
 778              		@ frame_needed = 0, uses_anonymous_args = 0
 779              	.LVL72:
 780 0000 2DE9F041 		push	{r4, r5, r6, r7, r8, lr}
 781              		.cfi_def_cfa_offset 24
 782              		.cfi_offset 4, -24
 783              		.cfi_offset 5, -20
 784              		.cfi_offset 6, -16
 785              		.cfi_offset 7, -12
 786              		.cfi_offset 8, -8
 787              		.cfi_offset 14, -4
ARM GAS  C:\Users\Noyce\AppData\Local\Temp\ccdn8Rrk.s 			page 30


 788 0004 0446     		mov	r4, r0
  60:main.c        **** 	USBUARTH_Send(TransmitBuffer, strlen(TransmitBuffer));
 789              		.loc 2 60 0
 790 0006 00F10108 		add	r8, r0, #1
 791 000a 594D     		ldr	r5, .L74+16
 792 000c 4246     		mov	r2, r8
 793 000e 5949     		ldr	r1, .L74+20
 794 0010 2846     		mov	r0, r5
 795              	.LVL73:
 796 0012 FFF7FEFF 		bl	sprintf
 797              	.LVL74:
  61:main.c        **** 	UART_1_PutString(TransmitBuffer);
 798              		.loc 2 61 0
 799 0016 2846     		mov	r0, r5
 800 0018 FFF7FEFF 		bl	strlen
 801              	.LVL75:
 802 001c 81B2     		uxth	r1, r0
 803 001e 2846     		mov	r0, r5
 804 0020 FFF7FEFF 		bl	USBUARTH_Send
 805              	.LVL76:
  62:main.c        **** 	
 806              		.loc 2 62 0
 807 0024 2846     		mov	r0, r5
 808 0026 FFF7FEFF 		bl	UART_1_PutString
 809              	.LVL77:
  66:main.c        **** 	I2C_1_MasterWriteBuf(selector->busAddress, (uint8 *) &selector->write, sizeof(selector->write), I2
 810              		.loc 2 66 0
 811 002a FFF7FEFF 		bl	I2C_1_MasterClearStatus
 812              	.LVL78:
  67:main.c        **** 	for (uint32 i = 0; i < 4e5; i++) {
 813              		.loc 2 67 0
 814 002e C4EB0424 		rsb	r4, r4, r4, lsl #8
 815              	.LVL79:
 816 0032 514B     		ldr	r3, .L74+24
 817 0034 1C44     		add	r4, r4, r3
 818 0036 0023     		movs	r3, #0
 819 0038 7F22     		movs	r2, #127
 820 003a 2146     		mov	r1, r4
 821 003c 94F8FE00 		ldrb	r0, [r4, #254]	@ zero_extendqisi2
 822 0040 FFF7FEFF 		bl	I2C_1_MasterWriteBuf
 823              	.LVL80:
 824              	.LBB12:
  68:main.c        **** 		if ((I2C_1_MasterStatus() & I2C_1_MSTAT_WR_CMPLT)) break;
 825              		.loc 2 68 0
 826 0044 0024     		movs	r4, #0
 827 0046 2CE0     		b	.L64
 828              	.LVL81:
 829              	.L69:
  69:main.c        **** 		if (i >= 4e5 - 1) {
 830              		.loc 2 69 0
 831 0048 FFF7FEFF 		bl	I2C_1_MasterStatus
 832              	.LVL82:
 833 004c 10F0020F 		tst	r0, #2
 834 0050 33D1     		bne	.L65
  70:main.c        **** 			sprintf(TransmitBuffer, "I2C Transfer Error! Type: Timeout\r\n");
 835              		.loc 2 70 0
 836 0052 43A3     		adr	r3, .L74
ARM GAS  C:\Users\Noyce\AppData\Local\Temp\ccdn8Rrk.s 			page 31


 837 0054 D3E90023 		ldrd	r2, [r3]
 838 0058 3046     		mov	r0, r6
 839 005a 3946     		mov	r1, r7
 840 005c FFF7FEFF 		bl	__aeabi_dcmpge
 841              	.LVL83:
 842 0060 F0B1     		cbz	r0, .L66
  71:main.c        **** 			USBUARTH_Send(TransmitBuffer, strlen(TransmitBuffer));
 843              		.loc 2 71 0
 844 0062 464F     		ldr	r7, .L74+28
 845 0064 424D     		ldr	r5, .L74+16
 846 0066 07F1200E 		add	lr, r7, #32
 847              	.L68:
 848 006a 3E46     		mov	r6, r7
 849 006c 0FCE     		ldmia	r6!, {r0, r1, r2, r3}
 850 006e 2860     		str	r0, [r5]	@ unaligned
 851 0070 6960     		str	r1, [r5, #4]	@ unaligned
 852 0072 AA60     		str	r2, [r5, #8]	@ unaligned
 853 0074 EB60     		str	r3, [r5, #12]	@ unaligned
 854 0076 3746     		mov	r7, r6
 855 0078 1035     		adds	r5, r5, #16
 856 007a 7645     		cmp	r6, lr
 857 007c F5D1     		bne	.L68
 858 007e 3068     		ldr	r0, [r6]	@ unaligned
 859 0080 2860     		str	r0, [r5]	@ unaligned
  72:main.c        **** 			UART_1_PutString(TransmitBuffer);
 860              		.loc 2 72 0
 861 0082 3B4D     		ldr	r5, .L74+16
 862 0084 2846     		mov	r0, r5
 863 0086 FFF7FEFF 		bl	strlen
 864              	.LVL84:
 865 008a 81B2     		uxth	r1, r0
 866 008c 2846     		mov	r0, r5
 867 008e FFF7FEFF 		bl	USBUARTH_Send
 868              	.LVL85:
  73:main.c        **** 			I2C_1_Stop();
 869              		.loc 2 73 0
 870 0092 2846     		mov	r0, r5
 871 0094 FFF7FEFF 		bl	UART_1_PutString
 872              	.LVL86:
  74:main.c        **** 			I2C_1_Start();
 873              		.loc 2 74 0
 874 0098 FFF7FEFF 		bl	I2C_1_Stop
 875              	.LVL87:
  75:main.c        **** 		}
 876              		.loc 2 75 0
 877 009c FFF7FEFF 		bl	I2C_1_Start
 878              	.LVL88:
 879              	.L66:
  68:main.c        **** 		if ((I2C_1_MasterStatus() & I2C_1_MSTAT_WR_CMPLT)) break;
 880              		.loc 2 68 0 discriminator 2
 881 00a0 0134     		adds	r4, r4, #1
 882              	.LVL89:
 883              	.L64:
  68:main.c        **** 		if ((I2C_1_MasterStatus() & I2C_1_MSTAT_WR_CMPLT)) break;
 884              		.loc 2 68 0 is_stmt 0 discriminator 1
 885 00a2 2046     		mov	r0, r4
 886 00a4 FFF7FEFF 		bl	__aeabi_ui2d
ARM GAS  C:\Users\Noyce\AppData\Local\Temp\ccdn8Rrk.s 			page 32


 887              	.LVL90:
 888 00a8 0646     		mov	r6, r0
 889 00aa 0F46     		mov	r7, r1
 890 00ac 2EA3     		adr	r3, .L74+8
 891 00ae D3E90023 		ldrd	r2, [r3]
 892 00b2 FFF7FEFF 		bl	__aeabi_dcmplt
 893              	.LVL91:
 894 00b6 0028     		cmp	r0, #0
 895 00b8 C6D1     		bne	.L69
 896              	.L65:
 897              	.LBE12:
  90:main.c        **** 		sprintf(TransmitBuffer, "I2C Transfer Error! ");
 898              		.loc 2 90 0 is_stmt 1
 899 00ba FFF7FEFF 		bl	I2C_1_MasterStatus
 900              	.LVL92:
 901 00be 10F0800F 		tst	r0, #128
 902 00c2 39D0     		beq	.L70
  91:main.c        **** 		USBUARTH_Send(TransmitBuffer, strlen(TransmitBuffer));
 903              		.loc 2 91 0
 904 00c4 2A4C     		ldr	r4, .L74+16
 905              	.LVL93:
 906 00c6 2E4D     		ldr	r5, .L74+32
 907 00c8 0FCD     		ldmia	r5!, {r0, r1, r2, r3}
 908 00ca 2060     		str	r0, [r4]	@ unaligned
 909 00cc 6160     		str	r1, [r4, #4]	@ unaligned
 910 00ce A260     		str	r2, [r4, #8]	@ unaligned
 911 00d0 E360     		str	r3, [r4, #12]	@ unaligned
 912 00d2 2868     		ldr	r0, [r5]	@ unaligned
 913 00d4 2061     		str	r0, [r4, #16]	@ unaligned
 914 00d6 2B79     		ldrb	r3, [r5, #4]	@ zero_extendqisi2
 915 00d8 2375     		strb	r3, [r4, #20]
  92:main.c        **** 		UART_1_PutString(TransmitBuffer);
 916              		.loc 2 92 0
 917 00da 2046     		mov	r0, r4
 918 00dc FFF7FEFF 		bl	strlen
 919              	.LVL94:
 920 00e0 81B2     		uxth	r1, r0
 921 00e2 2046     		mov	r0, r4
 922 00e4 FFF7FEFF 		bl	USBUARTH_Send
 923              	.LVL95:
  93:main.c        **** 		
 924              		.loc 2 93 0
 925 00e8 2046     		mov	r0, r4
 926 00ea FFF7FEFF 		bl	UART_1_PutString
 927              	.LVL96:
  95:main.c        **** 			sprintf(TransmitBuffer, "Type: NAK");
 928              		.loc 2 95 0
 929 00ee FFF7FEFF 		bl	I2C_1_MasterStatus
 930              	.LVL97:
 931 00f2 10F0200F 		tst	r0, #32
 932 00f6 0FD0     		beq	.L71
  96:main.c        **** 			USBUARTH_Send(TransmitBuffer, strlen(TransmitBuffer));
 933              		.loc 2 96 0
 934 00f8 224B     		ldr	r3, .L74+36
 935 00fa 03CB     		ldmia	r3!, {r0, r1}
 936 00fc 2060     		str	r0, [r4]	@ unaligned
 937 00fe 6160     		str	r1, [r4, #4]	@ unaligned
ARM GAS  C:\Users\Noyce\AppData\Local\Temp\ccdn8Rrk.s 			page 33


 938 0100 1B88     		ldrh	r3, [r3]	@ unaligned
 939 0102 2381     		strh	r3, [r4, #8]	@ unaligned
  97:main.c        **** 			UART_1_PutString(TransmitBuffer);
 940              		.loc 2 97 0
 941 0104 2046     		mov	r0, r4
 942 0106 FFF7FEFF 		bl	strlen
 943              	.LVL98:
 944 010a 81B2     		uxth	r1, r0
 945 010c 2046     		mov	r0, r4
 946 010e FFF7FEFF 		bl	USBUARTH_Send
 947              	.LVL99:
  98:main.c        **** 		}
 948              		.loc 2 98 0
 949 0112 2046     		mov	r0, r4
 950 0114 FFF7FEFF 		bl	UART_1_PutString
 951              	.LVL100:
 952              	.L71:
 101:main.c        **** 		USBUARTH_Send(TransmitBuffer, strlen(TransmitBuffer));
 953              		.loc 2 101 0
 954 0118 154C     		ldr	r4, .L74+16
 955 011a 1B4B     		ldr	r3, .L74+40
 956 011c 1A88     		ldrh	r2, [r3]	@ unaligned
 957 011e 9B78     		ldrb	r3, [r3, #2]	@ zero_extendqisi2
 958 0120 2280     		strh	r2, [r4]	@ unaligned
 959 0122 A370     		strb	r3, [r4, #2]
 102:main.c        **** 		UART_1_PutString(TransmitBuffer);
 960              		.loc 2 102 0
 961 0124 2046     		mov	r0, r4
 962 0126 FFF7FEFF 		bl	strlen
 963              	.LVL101:
 964 012a 81B2     		uxth	r1, r0
 965 012c 2046     		mov	r0, r4
 966 012e FFF7FEFF 		bl	USBUARTH_Send
 967              	.LVL102:
 103:main.c        **** 	}
 968              		.loc 2 103 0
 969 0132 2046     		mov	r0, r4
 970 0134 FFF7FEFF 		bl	UART_1_PutString
 971              	.LVL103:
 972              	.L70:
 106:main.c        **** 	USBUARTH_Send(TransmitBuffer, strlen(TransmitBuffer));
 973              		.loc 2 106 0
 974 0138 0D4C     		ldr	r4, .L74+16
 975 013a 4246     		mov	r2, r8
 976 013c 1349     		ldr	r1, .L74+44
 977 013e 2046     		mov	r0, r4
 978 0140 FFF7FEFF 		bl	sprintf
 979              	.LVL104:
 107:main.c        **** 	UART_1_PutString(TransmitBuffer);
 980              		.loc 2 107 0
 981 0144 2046     		mov	r0, r4
 982 0146 FFF7FEFF 		bl	strlen
 983              	.LVL105:
 984 014a 81B2     		uxth	r1, r0
 985 014c 2046     		mov	r0, r4
 986 014e FFF7FEFF 		bl	USBUARTH_Send
 987              	.LVL106:
ARM GAS  C:\Users\Noyce\AppData\Local\Temp\ccdn8Rrk.s 			page 34


 108:main.c        **** }
 988              		.loc 2 108 0
 989 0152 2046     		mov	r0, r4
 990 0154 FFF7FEFF 		bl	UART_1_PutString
 991              	.LVL107:
 992 0158 BDE8F081 		pop	{r4, r5, r6, r7, r8, pc}
 993              	.LVL108:
 994              	.L75:
 995 015c AFF30080 		.align	3
 996              	.L74:
 997 0160 00000000 		.word	0
 998 0164 FC691841 		.word	1092119036
 999 0168 00000000 		.word	0
 1000 016c 006A1841 		.word	1092119040
 1001 0170 00000000 		.word	TransmitBuffer
 1002 0174 2C000000 		.word	.LC5
 1003 0178 00000000 		.word	selectors
 1004 017c 44000000 		.word	.LC6
 1005 0180 68000000 		.word	.LC7
 1006 0184 80000000 		.word	.LC8
 1007 0188 8C000000 		.word	.LC9
 1008 018c 90000000 		.word	.LC10
 1009              		.cfi_endproc
 1010              	.LFE71:
 1011              		.size	Update_Selector, .-Update_Selector
 1012              		.global	__aeabi_ui2f
 1013              		.global	__aeabi_fdiv
 1014              		.global	__aeabi_i2f
 1015              		.global	__aeabi_fmul
 1016              		.global	__aeabi_fadd
 1017              		.global	__aeabi_f2iz
 1018              		.global	__aeabi_fsub
 1019              		.section	.text.ADC_Measure_uV,"ax",%progbits
 1020              		.align	2
 1021              		.global	ADC_Measure_uV
 1022              		.thumb
 1023              		.thumb_func
 1024              		.type	ADC_Measure_uV, %function
 1025              	ADC_Measure_uV:
 1026              	.LFB72:
 112:main.c        **** 	int32 ADC_Result = 0;
 1027              		.loc 2 112 0
 1028              		.cfi_startproc
 1029              		@ args = 0, pretend = 0, frame = 8
 1030              		@ frame_needed = 0, uses_anonymous_args = 0
 1031              	.LVL109:
 1032 0000 2DE9F04F 		push	{r4, r5, r6, r7, r8, r9, r10, fp, lr}
 1033              		.cfi_def_cfa_offset 36
 1034              		.cfi_offset 4, -36
 1035              		.cfi_offset 5, -32
 1036              		.cfi_offset 6, -28
 1037              		.cfi_offset 7, -24
 1038              		.cfi_offset 8, -20
 1039              		.cfi_offset 9, -16
 1040              		.cfi_offset 10, -12
 1041              		.cfi_offset 11, -8
 1042              		.cfi_offset 14, -4
ARM GAS  C:\Users\Noyce\AppData\Local\Temp\ccdn8Rrk.s 			page 35


 1043 0004 83B0     		sub	sp, sp, #12
 1044              		.cfi_def_cfa_offset 48
 1045 0006 0090     		str	r0, [sp]
 1046 0008 0191     		str	r1, [sp, #4]
 1047 000a 9346     		mov	fp, r2
 1048              	.LVL110:
 1049              	.LBB13:
 116:main.c        **** 		ADC_DelSig_1_StartConvert();
 1050              		.loc 2 116 0
 1051 000c 0124     		movs	r4, #1
 1052              	.LBE13:
 114:main.c        **** 	
 1053              		.loc 2 114 0
 1054 000e 4FF00009 		mov	r9, #0
 113:main.c        **** 	int32 ADC_SD = 0;
 1055              		.loc 2 113 0
 1056 0012 4D46     		mov	r5, r9
 1057              	.LBB15:
 116:main.c        **** 		ADC_DelSig_1_StartConvert();
 1058              		.loc 2 116 0
 1059 0014 45E0     		b	.L77
 1060              	.LVL111:
 1061              	.L79:
 1062              	.LBB14:
 117:main.c        **** 		while (!ADC_DelSig_1_IsEndConversion(ADC_DelSig_1_RETURN_STATUS));
 1063              		.loc 2 117 0
 1064 0016 FFF7FEFF 		bl	ADC_DelSig_1_StartConvert
 1065              	.LVL112:
 1066              	.L78:
 118:main.c        **** 		//int16 ADC_Result = ADC_DelSig_1_CountsTo_mVolts(ADC_DelSig_1_GetResult16());
 1067              		.loc 2 118 0 discriminator 1
 1068 001a 0120     		movs	r0, #1
 1069 001c FFF7FEFF 		bl	ADC_DelSig_1_IsEndConversion
 1070              	.LVL113:
 1071 0020 0028     		cmp	r0, #0
 1072 0022 FAD0     		beq	.L78
 120:main.c        **** 		
 1073              		.loc 2 120 0 discriminator 2
 1074 0024 FFF7FEFF 		bl	ADC_DelSig_1_GetResult32
 1075              	.LVL114:
 1076 0028 FFF7FEFF 		bl	ADC_DelSig_1_CountsTo_uVolts
 1077              	.LVL115:
 1078 002c 0746     		mov	r7, r0
 1079              	.LVL116:
 122:main.c        **** 		ADC_Result += ((float)ADC_Result_Current - (float)ADC_Result)/(float)i;
 1080              		.loc 2 122 0 discriminator 2
 1081 002e 601E     		subs	r0, r4, #1
 1082              	.LVL117:
 1083 0030 FFF7FEFF 		bl	__aeabi_ui2f
 1084              	.LVL118:
 1085 0034 8046     		mov	r8, r0
 1086 0036 2046     		mov	r0, r4
 1087 0038 FFF7FEFF 		bl	__aeabi_ui2f
 1088              	.LVL119:
 1089 003c 0646     		mov	r6, r0
 1090 003e 0146     		mov	r1, r0
 1091 0040 4046     		mov	r0, r8
ARM GAS  C:\Users\Noyce\AppData\Local\Temp\ccdn8Rrk.s 			page 36


 1092 0042 FFF7FEFF 		bl	__aeabi_fdiv
 1093              	.LVL120:
 1094 0046 8246     		mov	r10, r0
 1095 0048 781B     		subs	r0, r7, r5
 1096 004a FFF7FEFF 		bl	__aeabi_i2f
 1097              	.LVL121:
 1098 004e 8046     		mov	r8, r0
 1099 0050 0146     		mov	r1, r0
 1100 0052 5046     		mov	r0, r10
 1101 0054 FFF7FEFF 		bl	__aeabi_fmul
 1102              	.LVL122:
 1103 0058 0146     		mov	r1, r0
 1104 005a 4046     		mov	r0, r8
 1105 005c FFF7FEFF 		bl	__aeabi_fmul
 1106              	.LVL123:
 1107 0060 8046     		mov	r8, r0
 1108 0062 4846     		mov	r0, r9
 1109 0064 FFF7FEFF 		bl	__aeabi_i2f
 1110              	.LVL124:
 1111 0068 4146     		mov	r1, r8
 1112 006a FFF7FEFF 		bl	__aeabi_fadd
 1113              	.LVL125:
 1114 006e FFF7FEFF 		bl	__aeabi_f2iz
 1115              	.LVL126:
 1116 0072 8146     		mov	r9, r0
 1117              	.LVL127:
 123:main.c        **** 	}
 1118              		.loc 2 123 0 discriminator 2
 1119 0074 3846     		mov	r0, r7
 1120              	.LVL128:
 1121 0076 FFF7FEFF 		bl	__aeabi_i2f
 1122              	.LVL129:
 1123 007a 0746     		mov	r7, r0
 1124              	.LVL130:
 1125 007c 2846     		mov	r0, r5
 1126 007e FFF7FEFF 		bl	__aeabi_i2f
 1127              	.LVL131:
 1128 0082 0546     		mov	r5, r0
 1129              	.LVL132:
 1130 0084 0146     		mov	r1, r0
 1131 0086 3846     		mov	r0, r7
 1132 0088 FFF7FEFF 		bl	__aeabi_fsub
 1133              	.LVL133:
 1134 008c 3146     		mov	r1, r6
 1135 008e FFF7FEFF 		bl	__aeabi_fdiv
 1136              	.LVL134:
 1137 0092 0146     		mov	r1, r0
 1138 0094 2846     		mov	r0, r5
 1139 0096 FFF7FEFF 		bl	__aeabi_fadd
 1140              	.LVL135:
 1141 009a FFF7FEFF 		bl	__aeabi_f2iz
 1142              	.LVL136:
 1143 009e 0546     		mov	r5, r0
 1144              	.LVL137:
 1145              	.LBE14:
 116:main.c        **** 		ADC_DelSig_1_StartConvert();
 1146              		.loc 2 116 0 discriminator 2
ARM GAS  C:\Users\Noyce\AppData\Local\Temp\ccdn8Rrk.s 			page 37


 1147 00a0 0134     		adds	r4, r4, #1
 1148              	.LVL138:
 1149              	.L77:
 116:main.c        **** 		ADC_DelSig_1_StartConvert();
 1150              		.loc 2 116 0 is_stmt 0 discriminator 1
 1151 00a2 5C45     		cmp	r4, fp
 1152 00a4 B7D3     		bcc	.L79
 1153              	.LBE15:
 126:main.c        **** 	*standardDeviation = ADC_SD;
 1154              		.loc 2 126 0 is_stmt 1
 1155 00a6 009B     		ldr	r3, [sp]
 1156 00a8 1D60     		str	r5, [r3]
 127:main.c        **** }
 1157              		.loc 2 127 0
 1158 00aa 019B     		ldr	r3, [sp, #4]
 1159 00ac C3F80090 		str	r9, [r3]
 128:main.c        **** 
 1160              		.loc 2 128 0
 1161 00b0 03B0     		add	sp, sp, #12
 1162              		.cfi_def_cfa_offset 36
 1163              	.LVL139:
 1164              		@ sp needed
 1165 00b2 BDE8F08F 		pop	{r4, r5, r6, r7, r8, r9, r10, fp, pc}
 1166              		.cfi_endproc
 1167              	.LFE72:
 1168              		.size	ADC_Measure_uV, .-ADC_Measure_uV
 1169 00b6 00BF     		.section	.text.Measure_Sweep,"ax",%progbits
 1170              		.align	2
 1171              		.global	Measure_Sweep
 1172              		.thumb
 1173              		.thumb_func
 1174              		.type	Measure_Sweep, %function
 1175              	Measure_Sweep:
 1176              	.LFB73:
 130:main.c        **** 	VDAC_Vds_SetValue(90);
 1177              		.loc 2 130 0
 1178              		.cfi_startproc
 1179              		@ args = 0, pretend = 0, frame = 8
 1180              		@ frame_needed = 0, uses_anonymous_args = 0
 1181 0000 30B5     		push	{r4, r5, lr}
 1182              		.cfi_def_cfa_offset 12
 1183              		.cfi_offset 4, -12
 1184              		.cfi_offset 5, -8
 1185              		.cfi_offset 14, -4
 1186 0002 83B0     		sub	sp, sp, #12
 1187              		.cfi_def_cfa_offset 24
 131:main.c        **** 	VDAC_Vgs_SetValue(254);
 1188              		.loc 2 131 0
 1189 0004 5A20     		movs	r0, #90
 1190 0006 FFF7FEFF 		bl	VDAC_Vds_SetValue
 1191              	.LVL140:
 132:main.c        **** 	
 1192              		.loc 2 132 0
 1193 000a FE20     		movs	r0, #254
 1194 000c FFF7FEFF 		bl	VDAC_Vgs_SetValue
 1195              	.LVL141:
 1196              	.LBB16:
ARM GAS  C:\Users\Noyce\AppData\Local\Temp\ccdn8Rrk.s 			page 38


 134:main.c        **** 		int32 IdsAverage = 0;
 1197              		.loc 2 134 0
 1198 0010 0024     		movs	r4, #0
 1199 0012 1EE0     		b	.L82
 1200              	.LVL142:
 1201              	.L83:
 1202              	.LBB17:
 135:main.c        **** 		int32 IdsStandardDeviation = 0;
 1203              		.loc 2 135 0 discriminator 3
 1204 0014 0023     		movs	r3, #0
 1205 0016 0093     		str	r3, [sp]
 136:main.c        **** 		
 1206              		.loc 2 136 0 discriminator 3
 1207 0018 02AD     		add	r5, sp, #8
 1208 001a 45F8043D 		str	r3, [r5, #-4]!
 138:main.c        **** 		
 1209              		.loc 2 138 0 discriminator 3
 1210 001e E0B2     		uxtb	r0, r4
 1211 0020 FFF7FEFF 		bl	VDAC_Vgs_SetValue
 1212              	.LVL143:
 140:main.c        **** 		
 1213              		.loc 2 140 0 discriminator 3
 1214 0024 6422     		movs	r2, #100
 1215 0026 2946     		mov	r1, r5
 1216 0028 6846     		mov	r0, sp
 1217 002a FFF7FEFF 		bl	ADC_Measure_uV
 1218              	.LVL144:
 144:main.c        **** 		USBUARTH_Send(TransmitBuffer, strlen(TransmitBuffer));
 1219              		.loc 2 144 0 discriminator 3
 1220 002e 0B4D     		ldr	r5, .L85
 1221 0030 009A     		ldr	r2, [sp]
 1222 0032 0B49     		ldr	r1, .L85+4
 1223 0034 2846     		mov	r0, r5
 1224 0036 FFF7FEFF 		bl	sprintf
 1225              	.LVL145:
 145:main.c        **** 		UART_1_PutString(TransmitBuffer);
 1226              		.loc 2 145 0 discriminator 3
 1227 003a 2846     		mov	r0, r5
 1228 003c FFF7FEFF 		bl	strlen
 1229              	.LVL146:
 1230 0040 81B2     		uxth	r1, r0
 1231 0042 2846     		mov	r0, r5
 1232 0044 FFF7FEFF 		bl	USBUARTH_Send
 1233              	.LVL147:
 146:main.c        **** 	}
 1234              		.loc 2 146 0 discriminator 3
 1235 0048 2846     		mov	r0, r5
 1236 004a FFF7FEFF 		bl	UART_1_PutString
 1237              	.LVL148:
 1238              	.LBE17:
 134:main.c        **** 		int32 IdsAverage = 0;
 1239              		.loc 2 134 0 discriminator 3
 1240 004e 0134     		adds	r4, r4, #1
 1241              	.LVL149:
 1242 0050 A4B2     		uxth	r4, r4
 1243              	.LVL150:
 1244              	.L82:
ARM GAS  C:\Users\Noyce\AppData\Local\Temp\ccdn8Rrk.s 			page 39


 134:main.c        **** 		int32 IdsAverage = 0;
 1245              		.loc 2 134 0 is_stmt 0 discriminator 1
 1246 0052 FF2C     		cmp	r4, #255
 1247 0054 DED9     		bls	.L83
 1248              	.LBE16:
 148:main.c        **** 
 1249              		.loc 2 148 0 is_stmt 1
 1250 0056 03B0     		add	sp, sp, #12
 1251              		.cfi_def_cfa_offset 12
 1252              		@ sp needed
 1253 0058 30BD     		pop	{r4, r5, pc}
 1254              	.LVL151:
 1255              	.L86:
 1256 005a 00BF     		.align	2
 1257              	.L85:
 1258 005c 00000000 		.word	TransmitBuffer
 1259 0060 A8000000 		.word	.LC11
 1260              		.cfi_endproc
 1261              	.LFE73:
 1262              		.size	Measure_Sweep, .-Measure_Sweep
 1263              		.section	.text.Setup_Selectors,"ax",%progbits
 1264              		.align	2
 1265              		.global	Setup_Selectors
 1266              		.thumb
 1267              		.thumb_func
 1268              		.type	Setup_Selectors, %function
 1269              	Setup_Selectors:
 1270              	.LFB74:
 150:main.c        **** 	for (uint8 i = 0; i < SELECTOR_COUNT; i++) Setup_Selector_I2C_Struct(&selectors[i]);
 1271              		.loc 2 150 0
 1272              		.cfi_startproc
 1273              		@ args = 0, pretend = 0, frame = 0
 1274              		@ frame_needed = 0, uses_anonymous_args = 0
 1275 0000 10B5     		push	{r4, lr}
 1276              		.cfi_def_cfa_offset 8
 1277              		.cfi_offset 4, -8
 1278              		.cfi_offset 14, -4
 1279              	.LVL152:
 1280              	.LBB18:
 151:main.c        **** 	
 1281              		.loc 2 151 0
 1282 0002 0024     		movs	r4, #0
 1283 0004 07E0     		b	.L88
 1284              	.LVL153:
 1285              	.L89:
 151:main.c        **** 	
 1286              		.loc 2 151 0 is_stmt 0 discriminator 3
 1287 0006 C4EB0423 		rsb	r3, r4, r4, lsl #8
 1288 000a 0B48     		ldr	r0, .L91
 1289 000c 1844     		add	r0, r0, r3
 1290 000e FFF7FEFF 		bl	Setup_Selector_I2C_Struct
 1291              	.LVL154:
 1292 0012 0134     		adds	r4, r4, #1
 1293              	.LVL155:
 1294 0014 E4B2     		uxtb	r4, r4
 1295              	.LVL156:
 1296              	.L88:
ARM GAS  C:\Users\Noyce\AppData\Local\Temp\ccdn8Rrk.s 			page 40


 151:main.c        **** 	
 1297              		.loc 2 151 0 discriminator 1
 1298 0016 032C     		cmp	r4, #3
 1299 0018 F5D9     		bls	.L89
 1300              	.LBE18:
 153:main.c        **** 	selectors[1].busAddress = 0x11;
 1301              		.loc 2 153 0 is_stmt 1
 1302 001a 074B     		ldr	r3, .L91
 1303 001c 6622     		movs	r2, #102
 1304 001e 83F8FE20 		strb	r2, [r3, #254]
 154:main.c        **** 	selectors[2].busAddress = 0x44;
 1305              		.loc 2 154 0
 1306 0022 1122     		movs	r2, #17
 1307 0024 83F8FD21 		strb	r2, [r3, #509]
 155:main.c        **** 	selectors[3].busAddress = 0x22;
 1308              		.loc 2 155 0
 1309 0028 4422     		movs	r2, #68
 1310 002a 83F8FC22 		strb	r2, [r3, #764]
 156:main.c        **** }
 1311              		.loc 2 156 0
 1312 002e 2222     		movs	r2, #34
 1313 0030 83F8FB23 		strb	r2, [r3, #1019]
 1314 0034 10BD     		pop	{r4, pc}
 1315              	.LVL157:
 1316              	.L92:
 1317 0036 00BF     		.align	2
 1318              	.L91:
 1319 0038 00000000 		.word	selectors
 1320              		.cfi_endproc
 1321              	.LFE74:
 1322              		.size	Setup_Selectors, .-Setup_Selectors
 1323              		.section	.text.Connect_Channel_On_Intermediate,"ax",%progbits
 1324              		.align	2
 1325              		.global	Connect_Channel_On_Intermediate
 1326              		.thumb
 1327              		.thumb_func
 1328              		.type	Connect_Channel_On_Intermediate, %function
 1329              	Connect_Channel_On_Intermediate:
 1330              	.LFB75:
 159:main.c        **** 	channel--;
 1331              		.loc 2 159 0
 1332              		.cfi_startproc
 1333              		@ args = 0, pretend = 0, frame = 0
 1334              		@ frame_needed = 0, uses_anonymous_args = 0
 1335              	.LVL158:
 1336 0000 08B5     		push	{r3, lr}
 1337              		.cfi_def_cfa_offset 8
 1338              		.cfi_offset 3, -8
 1339              		.cfi_offset 14, -4
 160:main.c        **** 	intermediate--;
 1340              		.loc 2 160 0
 1341 0002 0138     		subs	r0, r0, #1
 1342              	.LVL159:
 1343 0004 C3B2     		uxtb	r3, r0
 1344              	.LVL160:
 163:main.c        **** 	if (intermediate >= INTERMEDIATE_COUNT) return;
 1345              		.loc 2 163 0
ARM GAS  C:\Users\Noyce\AppData\Local\Temp\ccdn8Rrk.s 			page 41


 1346 0006 212B     		cmp	r3, #33
 1347 0008 0CD8     		bhi	.L93
 1348 000a 0139     		subs	r1, r1, #1
 1349              	.LVL161:
 1350 000c C8B2     		uxtb	r0, r1
 164:main.c        **** 	
 1351              		.loc 2 164 0
 1352 000e 0328     		cmp	r0, #3
 1353 0010 08D8     		bhi	.L93
 166:main.c        **** 	Update_Selector(intermediate);
 1354              		.loc 2 166 0
 1355 0012 C0EB0022 		rsb	r2, r0, r0, lsl #8
 1356 0016 0449     		ldr	r1, .L96
 1357 0018 0A44     		add	r2, r2, r1
 1358 001a 1344     		add	r3, r3, r2
 1359              	.LVL162:
 1360 001c C022     		movs	r2, #192
 1361 001e 5A70     		strb	r2, [r3, #1]
 167:main.c        **** }
 1362              		.loc 2 167 0
 1363 0020 FFF7FEFF 		bl	Update_Selector
 1364              	.LVL163:
 1365              	.L93:
 1366 0024 08BD     		pop	{r3, pc}
 1367              	.L97:
 1368 0026 00BF     		.align	2
 1369              	.L96:
 1370 0028 00000000 		.word	selectors
 1371              		.cfi_endproc
 1372              	.LFE75:
 1373              		.size	Connect_Channel_On_Intermediate, .-Connect_Channel_On_Intermediate
 1374              		.section	.text.Connect_Contact_To_Intermediate,"ax",%progbits
 1375              		.align	2
 1376              		.global	Connect_Contact_To_Intermediate
 1377              		.thumb
 1378              		.thumb_func
 1379              		.type	Connect_Contact_To_Intermediate, %function
 1380              	Connect_Contact_To_Intermediate:
 1381              	.LFB76:
 170:main.c        **** 	contact--;
 1382              		.loc 2 170 0
 1383              		.cfi_startproc
 1384              		@ args = 0, pretend = 0, frame = 0
 1385              		@ frame_needed = 0, uses_anonymous_args = 0
 1386              	.LVL164:
 171:main.c        **** 	intermediate--;
 1387              		.loc 2 171 0
 1388 0000 0138     		subs	r0, r0, #1
 1389              	.LVL165:
 1390 0002 C0B2     		uxtb	r0, r0
 1391              	.LVL166:
 174:main.c        **** 	if (intermediate >= INTERMEDIATE_COUNT) return;
 1392              		.loc 2 174 0
 1393 0004 3F28     		cmp	r0, #63
 1394 0006 13D8     		bhi	.L103
 170:main.c        **** 	contact--;
 1395              		.loc 2 170 0
ARM GAS  C:\Users\Noyce\AppData\Local\Temp\ccdn8Rrk.s 			page 42


 1396 0008 08B5     		push	{r3, lr}
 1397              		.cfi_def_cfa_offset 8
 1398              		.cfi_offset 3, -8
 1399              		.cfi_offset 14, -4
 1400 000a 4B1E     		subs	r3, r1, #1
 1401 000c DBB2     		uxtb	r3, r3
 175:main.c        **** 	
 1402              		.loc 2 175 0
 1403 000e 032B     		cmp	r3, #3
 1404 0010 0DD8     		bhi	.L98
 1405              	.LVL167:
 178:main.c        **** 		offset = CONTACT_COUNT/2;
 1406              		.loc 2 178 0
 1407 0012 012B     		cmp	r3, #1
 1408 0014 03D9     		bls	.L100
 1409              	.LVL168:
 180:main.c        **** 	} else {
 1410              		.loc 2 180 0
 1411 0016 1F28     		cmp	r0, #31
 1412 0018 09D9     		bls	.L98
 179:main.c        **** 		if (contact < CONTACT_COUNT/2) return;
 1413              		.loc 2 179 0
 1414 001a 2023     		movs	r3, #32
 1415 001c 02E0     		b	.L101
 1416              	.LVL169:
 1417              	.L100:
 182:main.c        **** 	}
 1418              		.loc 2 182 0
 1419 001e 1F28     		cmp	r0, #31
 1420 0020 05D8     		bhi	.L98
 177:main.c        **** 	if (intermediate >= INTERMEDIATE_COUNT/2) {
 1421              		.loc 2 177 0
 1422 0022 0023     		movs	r3, #0
 1423              	.LVL170:
 1424              	.L101:
 185:main.c        **** }
 1425              		.loc 2 185 0
 1426 0024 C01A     		subs	r0, r0, r3
 1427              	.LVL171:
 1428 0026 0130     		adds	r0, r0, #1
 1429 0028 C0B2     		uxtb	r0, r0
 1430 002a FFF7FEFF 		bl	Connect_Channel_On_Intermediate
 1431              	.LVL172:
 1432              	.L98:
 1433 002e 08BD     		pop	{r3, pc}
 1434              	.LVL173:
 1435              	.L103:
 1436              		.cfi_def_cfa_offset 0
 1437              		.cfi_restore 3
 1438              		.cfi_restore 14
 1439 0030 7047     		bx	lr
 1440              		.cfi_endproc
 1441              	.LFE76:
 1442              		.size	Connect_Contact_To_Intermediate, .-Connect_Contact_To_Intermediate
 1443 0032 00BF     		.section	.text.Disconnect_Contact_From_Intermediate,"ax",%progbits
 1444              		.align	2
 1445              		.global	Disconnect_Contact_From_Intermediate
ARM GAS  C:\Users\Noyce\AppData\Local\Temp\ccdn8Rrk.s 			page 43


 1446              		.thumb
 1447              		.thumb_func
 1448              		.type	Disconnect_Contact_From_Intermediate, %function
 1449              	Disconnect_Contact_From_Intermediate:
 1450              	.LFB77:
 188:main.c        **** 	contact--;
 1451              		.loc 2 188 0
 1452              		.cfi_startproc
 1453              		@ args = 0, pretend = 0, frame = 0
 1454              		@ frame_needed = 0, uses_anonymous_args = 0
 1455              	.LVL174:
 1456 0000 08B5     		push	{r3, lr}
 1457              		.cfi_def_cfa_offset 8
 1458              		.cfi_offset 3, -8
 1459              		.cfi_offset 14, -4
 189:main.c        **** 	intermediate--;
 1460              		.loc 2 189 0
 1461 0002 0138     		subs	r0, r0, #1
 1462              	.LVL175:
 1463 0004 C3B2     		uxtb	r3, r0
 1464              	.LVL176:
 192:main.c        **** 	if (intermediate >= INTERMEDIATE_COUNT) return;
 1465              		.loc 2 192 0
 1466 0006 3F2B     		cmp	r3, #63
 1467 0008 16D8     		bhi	.L104
 1468 000a 0139     		subs	r1, r1, #1
 1469              	.LVL177:
 1470 000c C8B2     		uxtb	r0, r1
 193:main.c        **** 	
 1471              		.loc 2 193 0
 1472 000e 0328     		cmp	r0, #3
 1473 0010 12D8     		bhi	.L104
 1474              	.LVL178:
 196:main.c        **** 		offset = CONTACT_COUNT/2;
 1475              		.loc 2 196 0
 1476 0012 0128     		cmp	r0, #1
 1477 0014 03D9     		bls	.L106
 1478              	.LVL179:
 198:main.c        **** 	} else {
 1479              		.loc 2 198 0
 1480 0016 1F2B     		cmp	r3, #31
 1481 0018 0ED9     		bls	.L104
 197:main.c        **** 		if (contact < CONTACT_COUNT/2) return;
 1482              		.loc 2 197 0
 1483 001a 2022     		movs	r2, #32
 1484 001c 02E0     		b	.L107
 1485              	.LVL180:
 1486              	.L106:
 200:main.c        **** 	}
 1487              		.loc 2 200 0
 1488 001e 1F2B     		cmp	r3, #31
 1489 0020 0AD8     		bhi	.L104
 195:main.c        **** 	if (intermediate >= INTERMEDIATE_COUNT/2) {
 1490              		.loc 2 195 0
 1491 0022 0022     		movs	r2, #0
 1492              	.LVL181:
 1493              	.L107:
ARM GAS  C:\Users\Noyce\AppData\Local\Temp\ccdn8Rrk.s 			page 44


 203:main.c        **** 	
 1494              		.loc 2 203 0
 1495 0024 9B1A     		subs	r3, r3, r2
 1496              	.LVL182:
 1497 0026 C0EB0022 		rsb	r2, r0, r0, lsl #8
 1498              	.LVL183:
 1499 002a 0449     		ldr	r1, .L109
 1500 002c 0A44     		add	r2, r2, r1
 1501 002e 1344     		add	r3, r3, r2
 1502 0030 D122     		movs	r2, #209
 1503 0032 5A70     		strb	r2, [r3, #1]
 205:main.c        **** }
 1504              		.loc 2 205 0
 1505 0034 FFF7FEFF 		bl	Update_Selector
 1506              	.LVL184:
 1507              	.L104:
 1508 0038 08BD     		pop	{r3, pc}
 1509              	.L110:
 1510 003a 00BF     		.align	2
 1511              	.L109:
 1512 003c 00000000 		.word	selectors
 1513              		.cfi_endproc
 1514              	.LFE77:
 1515              		.size	Disconnect_Contact_From_Intermediate, .-Disconnect_Contact_From_Intermediate
 1516              		.section	.text.Disconnect_Contact_From_All_Intermediates,"ax",%progbits
 1517              		.align	2
 1518              		.global	Disconnect_Contact_From_All_Intermediates
 1519              		.thumb
 1520              		.thumb_func
 1521              		.type	Disconnect_Contact_From_All_Intermediates, %function
 1522              	Disconnect_Contact_From_All_Intermediates:
 1523              	.LFB78:
 208:main.c        **** 	contact--;
 1524              		.loc 2 208 0
 1525              		.cfi_startproc
 1526              		@ args = 0, pretend = 0, frame = 0
 1527              		@ frame_needed = 0, uses_anonymous_args = 0
 1528              	.LVL185:
 1529 0000 38B5     		push	{r3, r4, r5, lr}
 1530              		.cfi_def_cfa_offset 16
 1531              		.cfi_offset 3, -16
 1532              		.cfi_offset 4, -12
 1533              		.cfi_offset 5, -8
 1534              		.cfi_offset 14, -4
 209:main.c        **** 	
 1535              		.loc 2 209 0
 1536 0002 0138     		subs	r0, r0, #1
 1537              	.LVL186:
 1538 0004 C5B2     		uxtb	r5, r0
 1539              	.LVL187:
 1540              	.LBB19:
 211:main.c        **** 		
 1541              		.loc 2 211 0
 1542 0006 0024     		movs	r4, #0
 1543 0008 15E0     		b	.L112
 1544              	.LVL188:
 1545              	.L116:
ARM GAS  C:\Users\Noyce\AppData\Local\Temp\ccdn8Rrk.s 			page 45


 1546              	.LBB20:
 214:main.c        **** 			offset = CONTACT_COUNT/2;
 1547              		.loc 2 214 0
 1548 000a 012C     		cmp	r4, #1
 1549 000c 03D9     		bls	.L113
 1550              	.LVL189:
 216:main.c        **** 		} else {
 1551              		.loc 2 216 0
 1552 000e 1F2D     		cmp	r5, #31
 1553 0010 0FD9     		bls	.L114
 215:main.c        **** 			if (contact < CONTACT_COUNT/2) continue;
 1554              		.loc 2 215 0
 1555 0012 2023     		movs	r3, #32
 1556 0014 02E0     		b	.L115
 1557              	.LVL190:
 1558              	.L113:
 218:main.c        **** 		}
 1559              		.loc 2 218 0
 1560 0016 1F2D     		cmp	r5, #31
 1561 0018 0BD8     		bhi	.L114
 213:main.c        **** 		if (intermediate >= INTERMEDIATE_COUNT/2) {
 1562              		.loc 2 213 0
 1563 001a 0023     		movs	r3, #0
 1564              	.LVL191:
 1565              	.L115:
 221:main.c        **** 		
 1566              		.loc 2 221 0
 1567 001c EA1A     		subs	r2, r5, r3
 1568 001e C4EB0423 		rsb	r3, r4, r4, lsl #8
 1569              	.LVL192:
 1570 0022 0649     		ldr	r1, .L118
 1571 0024 0B44     		add	r3, r3, r1
 1572 0026 1344     		add	r3, r3, r2
 1573 0028 D122     		movs	r2, #209
 1574 002a 5A70     		strb	r2, [r3, #1]
 223:main.c        **** 	}
 1575              		.loc 2 223 0
 1576 002c 2046     		mov	r0, r4
 1577 002e FFF7FEFF 		bl	Update_Selector
 1578              	.LVL193:
 1579              	.L114:
 1580              	.LBE20:
 211:main.c        **** 		
 1581              		.loc 2 211 0 discriminator 2
 1582 0032 0134     		adds	r4, r4, #1
 1583              	.LVL194:
 1584 0034 E4B2     		uxtb	r4, r4
 1585              	.LVL195:
 1586              	.L112:
 211:main.c        **** 		
 1587              		.loc 2 211 0 is_stmt 0 discriminator 1
 1588 0036 032C     		cmp	r4, #3
 1589 0038 E7D9     		bls	.L116
 1590              	.LBE19:
 225:main.c        **** 
 1591              		.loc 2 225 0 is_stmt 1
 1592 003a 38BD     		pop	{r3, r4, r5, pc}
ARM GAS  C:\Users\Noyce\AppData\Local\Temp\ccdn8Rrk.s 			page 46


 1593              	.LVL196:
 1594              	.L119:
 1595              		.align	2
 1596              	.L118:
 1597 003c 00000000 		.word	selectors
 1598              		.cfi_endproc
 1599              	.LFE78:
 1600              		.size	Disconnect_Contact_From_All_Intermediates, .-Disconnect_Contact_From_All_Intermediates
 1601              		.section	.text.Disconnect_All_Contacts_From_All_Intermediates,"ax",%progbits
 1602              		.align	2
 1603              		.global	Disconnect_All_Contacts_From_All_Intermediates
 1604              		.thumb
 1605              		.thumb_func
 1606              		.type	Disconnect_All_Contacts_From_All_Intermediates, %function
 1607              	Disconnect_All_Contacts_From_All_Intermediates:
 1608              	.LFB79:
 227:main.c        **** 	for (uint8 intermediate = 0; intermediate < INTERMEDIATE_COUNT/**//2; intermediate++) {
 1609              		.loc 2 227 0
 1610              		.cfi_startproc
 1611              		@ args = 0, pretend = 0, frame = 0
 1612              		@ frame_needed = 0, uses_anonymous_args = 0
 1613 0000 10B5     		push	{r4, lr}
 1614              		.cfi_def_cfa_offset 8
 1615              		.cfi_offset 4, -8
 1616              		.cfi_offset 14, -4
 1617              	.LVL197:
 1618              	.LBB21:
 228:main.c        **** 		for (uint8 contact = 0; contact < CONTACT_COUNT/2; contact++) {
 1619              		.loc 2 228 0
 1620 0002 0024     		movs	r4, #0
 1621 0004 11E0     		b	.L121
 1622              	.LVL198:
 1623              	.L122:
 1624              	.LBB22:
 230:main.c        **** 		}
 1625              		.loc 2 230 0 discriminator 3
 1626 0006 C4EB0422 		rsb	r2, r4, r4, lsl #8
 1627 000a 0949     		ldr	r1, .L126
 1628 000c 0A44     		add	r2, r2, r1
 1629 000e 1A44     		add	r2, r2, r3
 1630 0010 D121     		movs	r1, #209
 1631 0012 5170     		strb	r1, [r2, #1]
 229:main.c        **** 			selectors[intermediate].write.data[contact] = CONTACT_DISCONNECT_CODE;
 1632              		.loc 2 229 0 discriminator 3
 1633 0014 0133     		adds	r3, r3, #1
 1634              	.LVL199:
 1635 0016 DBB2     		uxtb	r3, r3
 1636              	.LVL200:
 1637 0018 00E0     		b	.L123
 1638              	.LVL201:
 1639              	.L124:
 1640              	.LBE22:
 1641 001a 0023     		movs	r3, #0
 1642              	.L123:
 1643              	.LVL202:
 1644              	.LBB23:
 229:main.c        **** 			selectors[intermediate].write.data[contact] = CONTACT_DISCONNECT_CODE;
ARM GAS  C:\Users\Noyce\AppData\Local\Temp\ccdn8Rrk.s 			page 47


 1645              		.loc 2 229 0 is_stmt 0 discriminator 1
 1646 001c 1F2B     		cmp	r3, #31
 1647 001e F2D9     		bls	.L122
 1648              	.LBE23:
 233:main.c        **** 	}
 1649              		.loc 2 233 0 is_stmt 1 discriminator 2
 1650 0020 2046     		mov	r0, r4
 1651 0022 FFF7FEFF 		bl	Update_Selector
 1652              	.LVL203:
 228:main.c        **** 		for (uint8 contact = 0; contact < CONTACT_COUNT/2; contact++) {
 1653              		.loc 2 228 0 discriminator 2
 1654 0026 0134     		adds	r4, r4, #1
 1655              	.LVL204:
 1656 0028 E4B2     		uxtb	r4, r4
 1657              	.LVL205:
 1658              	.L121:
 228:main.c        **** 		for (uint8 contact = 0; contact < CONTACT_COUNT/2; contact++) {
 1659              		.loc 2 228 0 is_stmt 0 discriminator 1
 1660 002a 012C     		cmp	r4, #1
 1661 002c F5D9     		bls	.L124
 1662              	.LBE21:
 235:main.c        **** 
 1663              		.loc 2 235 0 is_stmt 1
 1664 002e 10BD     		pop	{r4, pc}
 1665              	.LVL206:
 1666              	.L127:
 1667              		.align	2
 1668              	.L126:
 1669 0030 00000000 		.word	selectors
 1670              		.cfi_endproc
 1671              	.LFE79:
 1672              		.size	Disconnect_All_Contacts_From_All_Intermediates, .-Disconnect_All_Contacts_From_All_Intermedi
 1673              		.section	.text.Disconnect_All_Contacts_From_Intermediate,"ax",%progbits
 1674              		.align	2
 1675              		.global	Disconnect_All_Contacts_From_Intermediate
 1676              		.thumb
 1677              		.thumb_func
 1678              		.type	Disconnect_All_Contacts_From_Intermediate, %function
 1679              	Disconnect_All_Contacts_From_Intermediate:
 1680              	.LFB80:
 237:main.c        **** 	intermediate--;
 1681              		.loc 2 237 0
 1682              		.cfi_startproc
 1683              		@ args = 0, pretend = 0, frame = 0
 1684              		@ frame_needed = 0, uses_anonymous_args = 0
 1685              	.LVL207:
 1686 0000 08B5     		push	{r3, lr}
 1687              		.cfi_def_cfa_offset 8
 1688              		.cfi_offset 3, -8
 1689              		.cfi_offset 14, -4
 238:main.c        **** 	
 1690              		.loc 2 238 0
 1691 0002 0138     		subs	r0, r0, #1
 1692              	.LVL208:
 1693 0004 C0B2     		uxtb	r0, r0
 1694              	.LVL209:
 1695              	.LBB24:
ARM GAS  C:\Users\Noyce\AppData\Local\Temp\ccdn8Rrk.s 			page 48


 240:main.c        **** 		selectors[intermediate].write.data[contact] = CONTACT_DISCONNECT_CODE;
 1696              		.loc 2 240 0
 1697 0006 0023     		movs	r3, #0
 1698 0008 08E0     		b	.L129
 1699              	.LVL210:
 1700              	.L130:
 241:main.c        **** 	}
 1701              		.loc 2 241 0 discriminator 3
 1702 000a C0EB0022 		rsb	r2, r0, r0, lsl #8
 1703 000e 0649     		ldr	r1, .L132
 1704 0010 0A44     		add	r2, r2, r1
 1705 0012 1A44     		add	r2, r2, r3
 1706 0014 D121     		movs	r1, #209
 1707 0016 5170     		strb	r1, [r2, #1]
 240:main.c        **** 		selectors[intermediate].write.data[contact] = CONTACT_DISCONNECT_CODE;
 1708              		.loc 2 240 0 discriminator 3
 1709 0018 0133     		adds	r3, r3, #1
 1710              	.LVL211:
 1711 001a DBB2     		uxtb	r3, r3
 1712              	.LVL212:
 1713              	.L129:
 240:main.c        **** 		selectors[intermediate].write.data[contact] = CONTACT_DISCONNECT_CODE;
 1714              		.loc 2 240 0 is_stmt 0 discriminator 1
 1715 001c 1F2B     		cmp	r3, #31
 1716 001e F4D9     		bls	.L130
 1717              	.LBE24:
 244:main.c        **** }
 1718              		.loc 2 244 0 is_stmt 1
 1719 0020 FFF7FEFF 		bl	Update_Selector
 1720              	.LVL213:
 1721 0024 08BD     		pop	{r3, pc}
 1722              	.L133:
 1723 0026 00BF     		.align	2
 1724              	.L132:
 1725 0028 00000000 		.word	selectors
 1726              		.cfi_endproc
 1727              	.LFE80:
 1728              		.size	Disconnect_All_Contacts_From_Intermediate, .-Disconnect_All_Contacts_From_Intermediate
 1729              		.section	.text.Connect_Intermediate,"ax",%progbits
 1730              		.align	2
 1731              		.global	Connect_Intermediate
 1732              		.thumb
 1733              		.thumb_func
 1734              		.type	Connect_Intermediate, %function
 1735              	Connect_Intermediate:
 1736              	.LFB81:
 247:main.c        **** 	switch (intermediate) {
 1737              		.loc 2 247 0
 1738              		.cfi_startproc
 1739              		@ args = 0, pretend = 0, frame = 0
 1740              		@ frame_needed = 0, uses_anonymous_args = 0
 1741              	.LVL214:
 1742 0000 08B5     		push	{r3, lr}
 1743              		.cfi_def_cfa_offset 8
 1744              		.cfi_offset 3, -8
 1745              		.cfi_offset 14, -4
 248:main.c        **** 		case 1: Connect_Channel_On_Intermediate(33, 1); break;
ARM GAS  C:\Users\Noyce\AppData\Local\Temp\ccdn8Rrk.s 			page 49


 1746              		.loc 2 248 0
 1747 0002 0138     		subs	r0, r0, #1
 1748              	.LVL215:
 1749 0004 0328     		cmp	r0, #3
 1750 0006 16D8     		bhi	.L134
 1751 0008 DFE800F0 		tbb	[pc, r0]
 1752              	.L137:
 1753 000c 02       		.byte	(.L136-.L137)/2
 1754 000d 07       		.byte	(.L138-.L137)/2
 1755 000e 0C       		.byte	(.L139-.L137)/2
 1756 000f 11       		.byte	(.L140-.L137)/2
 1757              		.p2align 1
 1758              	.L136:
 249:main.c        **** 		case 2: Connect_Channel_On_Intermediate(33, 2); break;
 1759              		.loc 2 249 0
 1760 0010 0121     		movs	r1, #1
 1761 0012 2120     		movs	r0, #33
 1762 0014 FFF7FEFF 		bl	Connect_Channel_On_Intermediate
 1763              	.LVL216:
 1764 0018 08BD     		pop	{r3, pc}
 1765              	.L138:
 250:main.c        **** 		case 3: Connect_Channel_On_Intermediate(33, 3); break;
 1766              		.loc 2 250 0
 1767 001a 0221     		movs	r1, #2
 1768 001c 2120     		movs	r0, #33
 1769 001e FFF7FEFF 		bl	Connect_Channel_On_Intermediate
 1770              	.LVL217:
 1771 0022 08BD     		pop	{r3, pc}
 1772              	.L139:
 251:main.c        **** 		case 4: Connect_Channel_On_Intermediate(33, 4); break;
 1773              		.loc 2 251 0
 1774 0024 0321     		movs	r1, #3
 1775 0026 2120     		movs	r0, #33
 1776 0028 FFF7FEFF 		bl	Connect_Channel_On_Intermediate
 1777              	.LVL218:
 1778 002c 08BD     		pop	{r3, pc}
 1779              	.L140:
 252:main.c        **** 		default: return;
 1780              		.loc 2 252 0
 1781 002e 0421     		movs	r1, #4
 1782 0030 2120     		movs	r0, #33
 1783 0032 FFF7FEFF 		bl	Connect_Channel_On_Intermediate
 1784              	.LVL219:
 1785              	.L134:
 1786 0036 08BD     		pop	{r3, pc}
 1787              		.cfi_endproc
 1788              	.LFE81:
 1789              		.size	Connect_Intermediate, .-Connect_Intermediate
 1790              		.section	.text.Connect_Intermediates,"ax",%progbits
 1791              		.align	2
 1792              		.global	Connect_Intermediates
 1793              		.thumb
 1794              		.thumb_func
 1795              		.type	Connect_Intermediates, %function
 1796              	Connect_Intermediates:
 1797              	.LFB82:
 257:main.c        **** 	for (uint8 i = 1; i <= INTERMEDIATE_COUNT/**//2; i++) {
ARM GAS  C:\Users\Noyce\AppData\Local\Temp\ccdn8Rrk.s 			page 50


 1798              		.loc 2 257 0
 1799              		.cfi_startproc
 1800              		@ args = 0, pretend = 0, frame = 0
 1801              		@ frame_needed = 0, uses_anonymous_args = 0
 1802 0000 10B5     		push	{r4, lr}
 1803              		.cfi_def_cfa_offset 8
 1804              		.cfi_offset 4, -8
 1805              		.cfi_offset 14, -4
 1806              	.LVL220:
 1807              	.LBB25:
 258:main.c        **** 		Connect_Intermediate(i);
 1808              		.loc 2 258 0
 1809 0002 0124     		movs	r4, #1
 1810 0004 04E0     		b	.L143
 1811              	.LVL221:
 1812              	.L144:
 259:main.c        **** 	}
 1813              		.loc 2 259 0 discriminator 3
 1814 0006 2046     		mov	r0, r4
 1815 0008 FFF7FEFF 		bl	Connect_Intermediate
 1816              	.LVL222:
 258:main.c        **** 		Connect_Intermediate(i);
 1817              		.loc 2 258 0 discriminator 3
 1818 000c 0134     		adds	r4, r4, #1
 1819              	.LVL223:
 1820 000e E4B2     		uxtb	r4, r4
 1821              	.LVL224:
 1822              	.L143:
 258:main.c        **** 		Connect_Intermediate(i);
 1823              		.loc 2 258 0 is_stmt 0 discriminator 1
 1824 0010 022C     		cmp	r4, #2
 1825 0012 F8D9     		bls	.L144
 1826              	.LBE25:
 261:main.c        **** 
 1827              		.loc 2 261 0 is_stmt 1
 1828 0014 10BD     		pop	{r4, pc}
 1829              		.cfi_endproc
 1830              	.LFE82:
 1831              		.size	Connect_Intermediates, .-Connect_Intermediates
 1832              		.global	__aeabi_i2d
 1833              		.global	__aeabi_dcmpgt
 1834              		.global	__aeabi_f2d
 1835              		.global	__aeabi_dsub
 1836              		.global	__aeabi_ddiv
 1837              		.global	__aeabi_dmul
 1838              		.global	__aeabi_dadd
 1839              		.global	__aeabi_d2f
 1840 0016 00BF     		.section	.text.MeasureCurrentVss,"ax",%progbits
 1841              		.align	2
 1842              		.global	MeasureCurrentVss
 1843              		.thumb
 1844              		.thumb_func
 1845              		.type	MeasureCurrentVss, %function
 1846              	MeasureCurrentVss:
 1847              	.LFB83:
 263:main.c        **** 	Compliance_Reached = 0;
 1848              		.loc 2 263 0
ARM GAS  C:\Users\Noyce\AppData\Local\Temp\ccdn8Rrk.s 			page 51


 1849              		.cfi_startproc
 1850              		@ args = 0, pretend = 0, frame = 24
 1851              		@ frame_needed = 0, uses_anonymous_args = 0
 1852              	.LVL225:
 1853 0000 2DE9F04F 		push	{r4, r5, r6, r7, r8, r9, r10, fp, lr}
 1854              		.cfi_def_cfa_offset 36
 1855              		.cfi_offset 4, -36
 1856              		.cfi_offset 5, -32
 1857              		.cfi_offset 6, -28
 1858              		.cfi_offset 7, -24
 1859              		.cfi_offset 8, -20
 1860              		.cfi_offset 9, -16
 1861              		.cfi_offset 10, -12
 1862              		.cfi_offset 11, -8
 1863              		.cfi_offset 14, -4
 1864 0004 87B0     		sub	sp, sp, #28
 1865              		.cfi_def_cfa_offset 64
 1866 0006 0290     		str	r0, [sp, #8]
 1867 0008 0391     		str	r1, [sp, #12]
 1868 000a 9346     		mov	fp, r2
 264:main.c        **** 	
 1869              		.loc 2 264 0
 1870 000c 0023     		movs	r3, #0
 1871 000e 3E4A     		ldr	r2, .L155+8
 1872              	.LVL226:
 1873 0010 1370     		strb	r3, [r2]
 267:main.c        **** 	int32 voltageSD = 0;
 1874              		.loc 2 267 0
 1875 0012 0593     		str	r3, [sp, #20]
 268:main.c        **** 	
 1876              		.loc 2 268 0
 1877 0014 06A9     		add	r1, sp, #24
 1878              	.LVL227:
 1879 0016 41F8083D 		str	r3, [r1, #-8]!
 1880              	.LVL228:
 280:main.c        **** 	
 1881              		.loc 2 280 0
 1882 001a 0322     		movs	r2, #3
 1883 001c 05A8     		add	r0, sp, #20
 1884              	.LVL229:
 1885 001e FFF7FEFF 		bl	ADC_Measure_uV
 1886              	.LVL230:
 1887              	.LBB26:
 283:main.c        **** 		ADC_Measure_uV(&voltage, &voltageSD, 1);
 1888              		.loc 2 283 0
 1889 0022 0124     		movs	r4, #1
 1890              	.LBE26:
 274:main.c        **** 	
 1891              		.loc 2 274 0
 1892 0024 4FF00008 		mov	r8, #0
 273:main.c        **** 	float currentStdDev = 0;
 1893              		.loc 2 273 0
 1894 0028 C146     		mov	r9, r8
 1895              	.LBB27:
 283:main.c        **** 		ADC_Measure_uV(&voltage, &voltageSD, 1);
 1896              		.loc 2 283 0
 1897 002a 5DE0     		b	.L147
ARM GAS  C:\Users\Noyce\AppData\Local\Temp\ccdn8Rrk.s 			page 52


 1898              	.LVL231:
 1899              	.L151:
 284:main.c        **** 		
 1900              		.loc 2 284 0
 1901 002c 0122     		movs	r2, #1
 1902 002e 04A9     		add	r1, sp, #16
 1903 0030 05A8     		add	r0, sp, #20
 1904 0032 FFF7FEFF 		bl	ADC_Measure_uV
 1905              	.LVL232:
 286:main.c        **** 		
 1906              		.loc 2 286 0
 1907 0036 0598     		ldr	r0, [sp, #20]
 1908 0038 FFF7FEFF 		bl	__aeabi_i2f
 1909              	.LVL233:
 1910 003c 3349     		ldr	r1, .L155+12
 1911 003e FFF7FEFF 		bl	__aeabi_fmul
 1912              	.LVL234:
 1913 0042 0546     		mov	r5, r0
 1914              	.LVL235:
 288:main.c        **** 			Compliance_Reached += 1;
 1915              		.loc 2 288 0
 1916 0044 FFF7FEFF 		bl	__aeabi_f2iz
 1917              	.LVL236:
 1918 0048 0028     		cmp	r0, #0
 1919 004a B8BF     		it	lt
 1920 004c 4042     		rsblt	r0, r0, #0
 1921 004e FFF7FEFF 		bl	__aeabi_i2d
 1922              	.LVL237:
 1923 0052 2BA3     		adr	r3, .L155
 1924 0054 D3E90023 		ldrd	r2, [r3]
 1925 0058 FFF7FEFF 		bl	__aeabi_dcmpgt
 1926              	.LVL238:
 1927 005c 20B1     		cbz	r0, .L153
 289:main.c        **** 			break;
 1928              		.loc 2 289 0
 1929 005e 2A4A     		ldr	r2, .L155+8
 1930 0060 1378     		ldrb	r3, [r2]	@ zero_extendqisi2
 1931 0062 0133     		adds	r3, r3, #1
 1932 0064 1370     		strb	r3, [r2]
 290:main.c        **** 		} else {
 1933              		.loc 2 290 0
 1934 0066 41E0     		b	.L150
 1935              	.L153:
 292:main.c        **** 		}
 1936              		.loc 2 292 0 discriminator 2
 1937 0068 0022     		movs	r2, #0
 1938 006a 274B     		ldr	r3, .L155+8
 1939 006c 1A70     		strb	r2, [r3]
 295:main.c        **** 		currentAverage += (currentNow - currentAverage)/(float)i;
 1940              		.loc 2 295 0 discriminator 2
 1941 006e 2046     		mov	r0, r4
 1942 0070 FFF7FEFF 		bl	__aeabi_ui2f
 1943              	.LVL239:
 1944 0074 8246     		mov	r10, r0
 1945 0076 FFF7FEFF 		bl	__aeabi_f2d
 1946              	.LVL240:
 1947 007a 0646     		mov	r6, r0
ARM GAS  C:\Users\Noyce\AppData\Local\Temp\ccdn8Rrk.s 			page 53


 1948 007c 0F46     		mov	r7, r1
 1949 007e 0022     		movs	r2, #0
 1950 0080 234B     		ldr	r3, .L155+16
 1951 0082 FFF7FEFF 		bl	__aeabi_dsub
 1952              	.LVL241:
 1953 0086 3246     		mov	r2, r6
 1954 0088 3B46     		mov	r3, r7
 1955 008a FFF7FEFF 		bl	__aeabi_ddiv
 1956              	.LVL242:
 1957 008e CDE90001 		strd	r0, [sp]
 1958 0092 4946     		mov	r1, r9
 1959 0094 2846     		mov	r0, r5
 1960 0096 FFF7FEFF 		bl	__aeabi_fsub
 1961              	.LVL243:
 1962 009a 0546     		mov	r5, r0
 1963              	.LVL244:
 1964 009c FFF7FEFF 		bl	__aeabi_f2d
 1965              	.LVL245:
 1966 00a0 0646     		mov	r6, r0
 1967 00a2 0F46     		mov	r7, r1
 1968 00a4 0246     		mov	r2, r0
 1969 00a6 0B46     		mov	r3, r1
 1970 00a8 DDE90001 		ldrd	r0, [sp]
 1971 00ac FFF7FEFF 		bl	__aeabi_dmul
 1972              	.LVL246:
 1973 00b0 0246     		mov	r2, r0
 1974 00b2 0B46     		mov	r3, r1
 1975 00b4 3046     		mov	r0, r6
 1976 00b6 3946     		mov	r1, r7
 1977 00b8 FFF7FEFF 		bl	__aeabi_dmul
 1978              	.LVL247:
 1979 00bc 0646     		mov	r6, r0
 1980 00be 0F46     		mov	r7, r1
 1981 00c0 4046     		mov	r0, r8
 1982 00c2 FFF7FEFF 		bl	__aeabi_f2d
 1983              	.LVL248:
 1984 00c6 3246     		mov	r2, r6
 1985 00c8 3B46     		mov	r3, r7
 1986 00ca FFF7FEFF 		bl	__aeabi_dadd
 1987              	.LVL249:
 1988 00ce FFF7FEFF 		bl	__aeabi_d2f
 1989              	.LVL250:
 1990 00d2 8046     		mov	r8, r0
 1991              	.LVL251:
 296:main.c        **** 	}
 1992              		.loc 2 296 0 discriminator 2
 1993 00d4 5146     		mov	r1, r10
 1994 00d6 2846     		mov	r0, r5
 1995              	.LVL252:
 1996 00d8 FFF7FEFF 		bl	__aeabi_fdiv
 1997              	.LVL253:
 1998 00dc 0146     		mov	r1, r0
 1999 00de 4846     		mov	r0, r9
 2000 00e0 FFF7FEFF 		bl	__aeabi_fadd
 2001              	.LVL254:
 2002 00e4 8146     		mov	r9, r0
 2003              	.LVL255:
ARM GAS  C:\Users\Noyce\AppData\Local\Temp\ccdn8Rrk.s 			page 54


 283:main.c        **** 		ADC_Measure_uV(&voltage, &voltageSD, 1);
 2004              		.loc 2 283 0 discriminator 2
 2005 00e6 0134     		adds	r4, r4, #1
 2006              	.LVL256:
 2007              	.L147:
 283:main.c        **** 		ADC_Measure_uV(&voltage, &voltageSD, 1);
 2008              		.loc 2 283 0 is_stmt 0 discriminator 1
 2009 00e8 5C45     		cmp	r4, fp
 2010 00ea 9FD9     		bls	.L151
 2011              	.L150:
 2012              	.LBE27:
 299:main.c        **** 	*currentStdDevIn = currentStdDev;
 2013              		.loc 2 299 0 is_stmt 1
 2014 00ec 029B     		ldr	r3, [sp, #8]
 2015 00ee C3F80090 		str	r9, [r3]	@ float
 300:main.c        **** }
 2016              		.loc 2 300 0
 2017 00f2 039B     		ldr	r3, [sp, #12]
 2018 00f4 C3F80080 		str	r8, [r3]	@ float
 301:main.c        **** 
 2019              		.loc 2 301 0
 2020 00f8 07B0     		add	sp, sp, #28
 2021              		.cfi_def_cfa_offset 36
 2022              		@ sp needed
 2023 00fa BDE8F08F 		pop	{r4, r5, r6, r7, r8, r9, r10, fp, pc}
 2024              	.LVL257:
 2025              	.L156:
 2026 00fe 00BF     		.align	3
 2027              	.L155:
 2028 0100 F168E388 		.word	-1998362383
 2029 0104 B5F8E43E 		.word	1055193269
 2030 0108 00000000 		.word	Compliance_Reached
 2031 010c FFE65BAE 		.word	-1369708801
 2032 0110 0000F03F 		.word	1072693248
 2033              		.cfi_endproc
 2034              	.LFE83:
 2035              		.size	MeasureCurrentVss, .-MeasureCurrentVss
 2036              		.section	.text.AtCompliance,"ax",%progbits
 2037              		.align	2
 2038              		.global	AtCompliance
 2039              		.thumb
 2040              		.thumb_func
 2041              		.type	AtCompliance, %function
 2042              	AtCompliance:
 2043              	.LFB84:
 303:main.c        **** 	Compliance_Reached = 0;
 2044              		.loc 2 303 0
 2045              		.cfi_startproc
 2046              		@ args = 0, pretend = 0, frame = 8
 2047              		@ frame_needed = 0, uses_anonymous_args = 0
 2048 0000 00B5     		push	{lr}
 2049              		.cfi_def_cfa_offset 4
 2050              		.cfi_offset 14, -4
 2051 0002 83B0     		sub	sp, sp, #12
 2052              		.cfi_def_cfa_offset 16
 304:main.c        **** 	
 2053              		.loc 2 304 0
ARM GAS  C:\Users\Noyce\AppData\Local\Temp\ccdn8Rrk.s 			page 55


 2054 0004 0022     		movs	r2, #0
 2055 0006 124B     		ldr	r3, .L164+8
 2056 0008 1A70     		strb	r2, [r3]
 306:main.c        **** 	float currentSD = 0;
 2057              		.loc 2 306 0
 2058 000a 0023     		movs	r3, #0
 2059 000c 0193     		str	r3, [sp, #4]	@ float
 307:main.c        **** 	
 2060              		.loc 2 307 0
 2061 000e 02A9     		add	r1, sp, #8
 2062 0010 41F8083D 		str	r3, [r1, #-8]!	@ float
 309:main.c        **** 	
 2063              		.loc 2 309 0
 2064 0014 0322     		movs	r2, #3
 2065 0016 01A8     		add	r0, sp, #4
 2066 0018 FFF7FEFF 		bl	MeasureCurrentVss
 2067              	.LVL258:
 311:main.c        **** 		Compliance_Reached = 1;
 2068              		.loc 2 311 0
 2069 001c 0198     		ldr	r0, [sp, #4]	@ float
 2070 001e FFF7FEFF 		bl	__aeabi_f2iz
 2071              	.LVL259:
 2072 0022 0028     		cmp	r0, #0
 2073 0024 B8BF     		it	lt
 2074 0026 4042     		rsblt	r0, r0, #0
 2075 0028 FFF7FEFF 		bl	__aeabi_i2d
 2076              	.LVL260:
 2077 002c 06A3     		adr	r3, .L164
 2078 002e D3E90023 		ldrd	r2, [r3]
 2079 0032 FFF7FEFF 		bl	__aeabi_dcmpgt
 2080              	.LVL261:
 2081 0036 18B1     		cbz	r0, .L162
 312:main.c        **** 		return 1;
 2082              		.loc 2 312 0
 2083 0038 0120     		movs	r0, #1
 2084 003a 054B     		ldr	r3, .L164+8
 2085 003c 1870     		strb	r0, [r3]
 313:main.c        **** 	}
 2086              		.loc 2 313 0
 2087 003e 00E0     		b	.L158
 2088              	.L162:
 316:main.c        **** }
 2089              		.loc 2 316 0
 2090 0040 0020     		movs	r0, #0
 2091              	.L158:
 317:main.c        **** 
 2092              		.loc 2 317 0
 2093 0042 03B0     		add	sp, sp, #12
 2094              		.cfi_def_cfa_offset 4
 2095              		@ sp needed
 2096 0044 5DF804FB 		ldr	pc, [sp], #4
 2097              	.L165:
 2098              		.align	3
 2099              	.L164:
 2100 0048 F168E388 		.word	-1998362383
 2101 004c B5F8E43E 		.word	1055193269
 2102 0050 00000000 		.word	Compliance_Reached
ARM GAS  C:\Users\Noyce\AppData\Local\Temp\ccdn8Rrk.s 			page 56


 2103              		.cfi_endproc
 2104              	.LFE84:
 2105              		.size	AtCompliance, .-AtCompliance
 2106              		.section	.text.handleComplianceBreach,"ax",%progbits
 2107              		.align	2
 2108              		.global	handleComplianceBreach
 2109              		.thumb
 2110              		.thumb_func
 2111              		.type	handleComplianceBreach, %function
 2112              	handleComplianceBreach:
 2113              	.LFB85:
 319:main.c        **** 	uint8 istart = VDAC_Vds_Data;
 2114              		.loc 2 319 0
 2115              		.cfi_startproc
 2116              		@ args = 0, pretend = 0, frame = 0
 2117              		@ frame_needed = 0, uses_anonymous_args = 0
 2118 0000 70B5     		push	{r4, r5, r6, lr}
 2119              		.cfi_def_cfa_offset 16
 2120              		.cfi_offset 4, -16
 2121              		.cfi_offset 5, -12
 2122              		.cfi_offset 6, -8
 2123              		.cfi_offset 14, -4
 320:main.c        **** 	uint8 istop = VDAC_Ref_Data;
 2124              		.loc 2 320 0
 2125 0002 174B     		ldr	r3, .L177
 2126 0004 1C78     		ldrb	r4, [r3]	@ zero_extendqisi2
 2127 0006 E4B2     		uxtb	r4, r4
 2128              	.LVL262:
 321:main.c        **** 	int8 increment = 1;
 2129              		.loc 2 321 0
 2130 0008 0133     		adds	r3, r3, #1
 2131 000a 1D78     		ldrb	r5, [r3]	@ zero_extendqisi2
 2132 000c EDB2     		uxtb	r5, r5
 2133              	.LVL263:
 323:main.c        **** 	
 2134              		.loc 2 323 0
 2135 000e AC42     		cmp	r4, r5
 2136 0010 01D3     		bcc	.L174
 322:main.c        **** 	if (istart < istop) increment = -1;
 2137              		.loc 2 322 0
 2138 0012 0126     		movs	r6, #1
 2139 0014 0AE0     		b	.L168
 2140              	.L174:
 323:main.c        **** 	
 2141              		.loc 2 323 0
 2142 0016 4FF0FF36 		mov	r6, #-1
 2143              	.LVL264:
 2144              	.LBB28:
 325:main.c        **** 		VDAC_Vds_SetValue(i);
 2145              		.loc 2 325 0
 2146 001a 07E0     		b	.L168
 2147              	.LVL265:
 2148              	.L170:
 326:main.c        **** 		
 2149              		.loc 2 326 0
 2150 001c 2046     		mov	r0, r4
 2151 001e FFF7FEFF 		bl	VDAC_Vds_SetValue
ARM GAS  C:\Users\Noyce\AppData\Local\Temp\ccdn8Rrk.s 			page 57


 2152              	.LVL266:
 328:main.c        **** 	}
 2153              		.loc 2 328 0
 2154 0022 FFF7FEFF 		bl	AtCompliance
 2155              	.LVL267:
 2156 0026 D0B1     		cbz	r0, .L166
 325:main.c        **** 		VDAC_Vds_SetValue(i);
 2157              		.loc 2 325 0 discriminator 2
 2158 0028 3444     		add	r4, r4, r6
 2159              	.LVL268:
 2160 002a E4B2     		uxtb	r4, r4
 2161              	.LVL269:
 2162              	.L168:
 325:main.c        **** 		VDAC_Vds_SetValue(i);
 2163              		.loc 2 325 0 is_stmt 0 discriminator 1
 2164 002c AC42     		cmp	r4, r5
 2165 002e F5D1     		bne	.L170
 2166              	.LBE28:
 331:main.c        **** 	istop = VDAC_Ref_Data;
 2167              		.loc 2 331 0 is_stmt 1
 2168 0030 0C4B     		ldr	r3, .L177+4
 2169 0032 1C78     		ldrb	r4, [r3]	@ zero_extendqisi2
 2170              	.LVL270:
 2171 0034 E4B2     		uxtb	r4, r4
 2172              	.LVL271:
 332:main.c        **** 	increment = 1;
 2173              		.loc 2 332 0
 2174 0036 023B     		subs	r3, r3, #2
 2175 0038 1D78     		ldrb	r5, [r3]	@ zero_extendqisi2
 2176              	.LVL272:
 2177 003a EDB2     		uxtb	r5, r5
 2178              	.LVL273:
 334:main.c        **** 	
 2179              		.loc 2 334 0
 2180 003c AC42     		cmp	r4, r5
 2181 003e 01D3     		bcc	.L175
 333:main.c        **** 	if (istart < istop) increment = -1;
 2182              		.loc 2 333 0
 2183 0040 0126     		movs	r6, #1
 2184 0042 0AE0     		b	.L172
 2185              	.L175:
 334:main.c        **** 	
 2186              		.loc 2 334 0
 2187 0044 4FF0FF36 		mov	r6, #-1
 2188              	.LVL274:
 2189              	.LBB29:
 336:main.c        **** 		VDAC_Vgs_SetValue(i);
 2190              		.loc 2 336 0
 2191 0048 07E0     		b	.L172
 2192              	.LVL275:
 2193              	.L173:
 337:main.c        **** 		
 2194              		.loc 2 337 0
 2195 004a 2046     		mov	r0, r4
 2196 004c FFF7FEFF 		bl	VDAC_Vgs_SetValue
 2197              	.LVL276:
 339:main.c        **** 	}
ARM GAS  C:\Users\Noyce\AppData\Local\Temp\ccdn8Rrk.s 			page 58


 2198              		.loc 2 339 0
 2199 0050 FFF7FEFF 		bl	AtCompliance
 2200              	.LVL277:
 2201 0054 18B1     		cbz	r0, .L166
 336:main.c        **** 		VDAC_Vgs_SetValue(i);
 2202              		.loc 2 336 0 discriminator 2
 2203 0056 3444     		add	r4, r4, r6
 2204              	.LVL278:
 2205 0058 E4B2     		uxtb	r4, r4
 2206              	.LVL279:
 2207              	.L172:
 336:main.c        **** 		VDAC_Vgs_SetValue(i);
 2208              		.loc 2 336 0 is_stmt 0 discriminator 1
 2209 005a AC42     		cmp	r4, r5
 2210 005c F5D1     		bne	.L173
 2211              	.LVL280:
 2212              	.L166:
 2213 005e 70BD     		pop	{r4, r5, r6, pc}
 2214              	.LVL281:
 2215              	.L178:
 2216              		.align	2
 2217              	.L177:
 2218 0060 805B0040 		.word	1073765248
 2219 0064 835B0040 		.word	1073765251
 2220              	.LBE29:
 2221              		.cfi_endproc
 2222              	.LFE85:
 2223              		.size	handleComplianceBreach, .-handleComplianceBreach
 2224              		.section	.text.SetVdsRaw,"ax",%progbits
 2225              		.align	2
 2226              		.global	SetVdsRaw
 2227              		.thumb
 2228              		.thumb_func
 2229              		.type	SetVdsRaw, %function
 2230              	SetVdsRaw:
 2231              	.LFB86:
 345:main.c        **** 	Vds_Index_Goal_Relative = (int16)value - (int16)VDAC_Ref_Data;
 2232              		.loc 2 345 0 is_stmt 1
 2233              		.cfi_startproc
 2234              		@ args = 0, pretend = 0, frame = 0
 2235              		@ frame_needed = 0, uses_anonymous_args = 0
 2236              	.LVL282:
 2237 0000 2DE9F041 		push	{r4, r5, r6, r7, r8, lr}
 2238              		.cfi_def_cfa_offset 24
 2239              		.cfi_offset 4, -24
 2240              		.cfi_offset 5, -20
 2241              		.cfi_offset 6, -16
 2242              		.cfi_offset 7, -12
 2243              		.cfi_offset 8, -8
 2244              		.cfi_offset 14, -4
 2245 0004 8046     		mov	r8, r0
 346:main.c        **** 	
 2246              		.loc 2 346 0
 2247 0006 184B     		ldr	r3, .L190
 2248 0008 1B78     		ldrb	r3, [r3]	@ zero_extendqisi2
 2249 000a C31A     		subs	r3, r0, r3
 2250 000c 174A     		ldr	r2, .L190+4
ARM GAS  C:\Users\Noyce\AppData\Local\Temp\ccdn8Rrk.s 			page 59


 2251 000e 1380     		strh	r3, [r2]	@ movhi
 348:main.c        **** 	int8 increment = 1;
 2252              		.loc 2 348 0
 2253 0010 174B     		ldr	r3, .L190+8
 2254 0012 1D78     		ldrb	r5, [r3]	@ zero_extendqisi2
 2255 0014 EDB2     		uxtb	r5, r5
 2256              	.LVL283:
 350:main.c        **** 	
 2257              		.loc 2 350 0
 2258 0016 A842     		cmp	r0, r5
 2259 0018 01D3     		bcc	.L187
 349:main.c        **** 	if (istart > value) increment = -1;
 2260              		.loc 2 349 0
 2261 001a 0126     		movs	r6, #1
 2262 001c 01E0     		b	.L180
 2263              	.L187:
 350:main.c        **** 	
 2264              		.loc 2 350 0
 2265 001e 4FF0FF36 		mov	r6, #-1
 2266              	.L180:
 2267              	.LVL284:
 2268              	.LBB30:
 352:main.c        **** 		if (AtCompliance()) {
 2269              		.loc 2 352 0
 2270 0022 0027     		movs	r7, #0
 2271 0024 1BE0     		b	.L181
 2272              	.LVL285:
 2273              	.L186:
 353:main.c        **** 			for (uint8 j = i; j != istart; j -= increment) {
 2274              		.loc 2 353 0
 2275 0026 FFF7FEFF 		bl	AtCompliance
 2276              	.LVL286:
 2277 002a 48B9     		cbnz	r0, .L188
 2278 002c 12E0     		b	.L183
 2279              	.LVL287:
 2280              	.L185:
 2281              	.LBB31:
 355:main.c        **** 				
 2282              		.loc 2 355 0
 2283 002e 2046     		mov	r0, r4
 2284 0030 FFF7FEFF 		bl	VDAC_Vds_SetValue
 2285              	.LVL288:
 357:main.c        **** 			}
 2286              		.loc 2 357 0
 2287 0034 FFF7FEFF 		bl	AtCompliance
 2288              	.LVL289:
 2289 0038 98B1     		cbz	r0, .L179
 354:main.c        **** 				VDAC_Vds_SetValue(j);
 2290              		.loc 2 354 0 discriminator 2
 2291 003a A41B     		subs	r4, r4, r6
 2292              	.LVL290:
 2293 003c E4B2     		uxtb	r4, r4
 2294              	.LVL291:
 2295 003e 00E0     		b	.L182
 2296              	.LVL292:
 2297              	.L188:
 2298              	.LBE31:
ARM GAS  C:\Users\Noyce\AppData\Local\Temp\ccdn8Rrk.s 			page 60


 2299 0040 3C46     		mov	r4, r7
 2300              	.L182:
 2301              	.LVL293:
 2302              	.LBB32:
 354:main.c        **** 				VDAC_Vds_SetValue(j);
 2303              		.loc 2 354 0 is_stmt 0 discriminator 1
 2304 0042 AC42     		cmp	r4, r5
 2305 0044 F3D1     		bne	.L185
 2306              	.LBE32:
 359:main.c        **** 				handleComplianceBreach();
 2307              		.loc 2 359 0 is_stmt 1
 2308 0046 FFF7FEFF 		bl	AtCompliance
 2309              	.LVL294:
 2310 004a 18B1     		cbz	r0, .L183
 360:main.c        **** 				return;
 2311              		.loc 2 360 0
 2312 004c FFF7FEFF 		bl	handleComplianceBreach
 2313              	.LVL295:
 361:main.c        **** 			}
 2314              		.loc 2 361 0
 2315 0050 BDE8F081 		pop	{r4, r5, r6, r7, r8, pc}
 2316              	.LVL296:
 2317              	.L183:
 365:main.c        **** 	}
 2318              		.loc 2 365 0 discriminator 2
 2319 0054 3846     		mov	r0, r7
 2320 0056 FFF7FEFF 		bl	VDAC_Vds_SetValue
 2321              	.LVL297:
 352:main.c        **** 		if (AtCompliance()) {
 2322              		.loc 2 352 0 discriminator 2
 2323 005a 3744     		add	r7, r7, r6
 2324              	.LVL298:
 2325 005c FFB2     		uxtb	r7, r7
 2326              	.LVL299:
 2327              	.L181:
 352:main.c        **** 		if (AtCompliance()) {
 2328              		.loc 2 352 0 is_stmt 0 discriminator 1
 2329 005e 4745     		cmp	r7, r8
 2330 0060 E1D1     		bne	.L186
 2331              	.L179:
 2332 0062 BDE8F081 		pop	{r4, r5, r6, r7, r8, pc}
 2333              	.LVL300:
 2334              	.L191:
 2335 0066 00BF     		.align	2
 2336              	.L190:
 2337 0068 815B0040 		.word	1073765249
 2338 006c 00000000 		.word	Vds_Index_Goal_Relative
 2339 0070 805B0040 		.word	1073765248
 2340              	.LBE30:
 2341              		.cfi_endproc
 2342              	.LFE86:
 2343              		.size	SetVdsRaw, .-SetVdsRaw
 2344              		.section	.text.SetVgsRaw,"ax",%progbits
 2345              		.align	2
 2346              		.global	SetVgsRaw
 2347              		.thumb
 2348              		.thumb_func
ARM GAS  C:\Users\Noyce\AppData\Local\Temp\ccdn8Rrk.s 			page 61


 2349              		.type	SetVgsRaw, %function
 2350              	SetVgsRaw:
 2351              	.LFB87:
 369:main.c        **** 	Vgs_Index_Goal_Relative = (int16)value - (int16)VDAC_Ref_Data;
 2352              		.loc 2 369 0 is_stmt 1
 2353              		.cfi_startproc
 2354              		@ args = 0, pretend = 0, frame = 0
 2355              		@ frame_needed = 0, uses_anonymous_args = 0
 2356              	.LVL301:
 2357 0000 2DE9F041 		push	{r4, r5, r6, r7, r8, lr}
 2358              		.cfi_def_cfa_offset 24
 2359              		.cfi_offset 4, -24
 2360              		.cfi_offset 5, -20
 2361              		.cfi_offset 6, -16
 2362              		.cfi_offset 7, -12
 2363              		.cfi_offset 8, -8
 2364              		.cfi_offset 14, -4
 2365 0004 8046     		mov	r8, r0
 370:main.c        **** 	
 2366              		.loc 2 370 0
 2367 0006 184B     		ldr	r3, .L203
 2368 0008 1B78     		ldrb	r3, [r3]	@ zero_extendqisi2
 2369 000a C31A     		subs	r3, r0, r3
 2370 000c 174A     		ldr	r2, .L203+4
 2371 000e 1380     		strh	r3, [r2]	@ movhi
 2372              	.LVL302:
 373:main.c        **** 	if (value < istart) increment = -1;
 2373              		.loc 2 373 0
 2374 0010 174B     		ldr	r3, .L203+8
 2375 0012 1D78     		ldrb	r5, [r3]	@ zero_extendqisi2
 2376 0014 EDB2     		uxtb	r5, r5
 2377              	.LVL303:
 374:main.c        **** 	
 2378              		.loc 2 374 0
 2379 0016 A842     		cmp	r0, r5
 2380 0018 01D3     		bcc	.L200
 372:main.c        **** 	uint8 istart = VDAC_Vgs_Data;
 2381              		.loc 2 372 0
 2382 001a 0126     		movs	r6, #1
 2383 001c 01E0     		b	.L193
 2384              	.L200:
 374:main.c        **** 	
 2385              		.loc 2 374 0
 2386 001e 4FF0FF36 		mov	r6, #-1
 2387              	.L193:
 2388              	.LVL304:
 2389              	.LBB33:
 376:main.c        **** 		if (AtCompliance()) {
 2390              		.loc 2 376 0
 2391 0022 2F46     		mov	r7, r5
 2392 0024 1BE0     		b	.L194
 2393              	.LVL305:
 2394              	.L199:
 377:main.c        **** 			for (uint8 j = i; j != istart; j -= increment) {
 2395              		.loc 2 377 0
 2396 0026 FFF7FEFF 		bl	AtCompliance
 2397              	.LVL306:
ARM GAS  C:\Users\Noyce\AppData\Local\Temp\ccdn8Rrk.s 			page 62


 2398 002a 48B9     		cbnz	r0, .L201
 2399 002c 12E0     		b	.L196
 2400              	.LVL307:
 2401              	.L198:
 2402              	.LBB34:
 379:main.c        **** 				
 2403              		.loc 2 379 0
 2404 002e 2046     		mov	r0, r4
 2405 0030 FFF7FEFF 		bl	VDAC_Vgs_SetValue
 2406              	.LVL308:
 381:main.c        **** 			}
 2407              		.loc 2 381 0
 2408 0034 FFF7FEFF 		bl	AtCompliance
 2409              	.LVL309:
 2410 0038 98B1     		cbz	r0, .L192
 378:main.c        **** 				VDAC_Vgs_SetValue(j);
 2411              		.loc 2 378 0 discriminator 2
 2412 003a A41B     		subs	r4, r4, r6
 2413              	.LVL310:
 2414 003c E4B2     		uxtb	r4, r4
 2415              	.LVL311:
 2416 003e 00E0     		b	.L195
 2417              	.LVL312:
 2418              	.L201:
 2419              	.LBE34:
 2420 0040 3C46     		mov	r4, r7
 2421              	.L195:
 2422              	.LVL313:
 2423              	.LBB35:
 378:main.c        **** 				VDAC_Vgs_SetValue(j);
 2424              		.loc 2 378 0 is_stmt 0 discriminator 1
 2425 0042 AC42     		cmp	r4, r5
 2426 0044 F3D1     		bne	.L198
 2427              	.LBE35:
 383:main.c        **** 				handleComplianceBreach();
 2428              		.loc 2 383 0 is_stmt 1
 2429 0046 FFF7FEFF 		bl	AtCompliance
 2430              	.LVL314:
 2431 004a 18B1     		cbz	r0, .L196
 384:main.c        **** 				return;
 2432              		.loc 2 384 0
 2433 004c FFF7FEFF 		bl	handleComplianceBreach
 2434              	.LVL315:
 385:main.c        **** 			}
 2435              		.loc 2 385 0
 2436 0050 BDE8F081 		pop	{r4, r5, r6, r7, r8, pc}
 2437              	.LVL316:
 2438              	.L196:
 389:main.c        **** 	}
 2439              		.loc 2 389 0 discriminator 2
 2440 0054 3846     		mov	r0, r7
 2441 0056 FFF7FEFF 		bl	VDAC_Vgs_SetValue
 2442              	.LVL317:
 376:main.c        **** 		if (AtCompliance()) {
 2443              		.loc 2 376 0 discriminator 2
 2444 005a 3744     		add	r7, r7, r6
 2445              	.LVL318:
ARM GAS  C:\Users\Noyce\AppData\Local\Temp\ccdn8Rrk.s 			page 63


 2446 005c FFB2     		uxtb	r7, r7
 2447              	.LVL319:
 2448              	.L194:
 376:main.c        **** 		if (AtCompliance()) {
 2449              		.loc 2 376 0 is_stmt 0 discriminator 1
 2450 005e 4745     		cmp	r7, r8
 2451 0060 E1D1     		bne	.L199
 2452              	.L192:
 2453 0062 BDE8F081 		pop	{r4, r5, r6, r7, r8, pc}
 2454              	.LVL320:
 2455              	.L204:
 2456 0066 00BF     		.align	2
 2457              	.L203:
 2458 0068 815B0040 		.word	1073765249
 2459 006c 00000000 		.word	Vgs_Index_Goal_Relative
 2460 0070 835B0040 		.word	1073765251
 2461              	.LBE33:
 2462              		.cfi_endproc
 2463              	.LFE87:
 2464              		.size	SetVgsRaw, .-SetVgsRaw
 2465              		.section	.text.SetVds,"ax",%progbits
 2466              		.align	2
 2467              		.global	SetVds
 2468              		.thumb
 2469              		.thumb_func
 2470              		.type	SetVds, %function
 2471              	SetVds:
 2472              	.LFB88:
 393:main.c        **** 	if (value > 255) return;
 2473              		.loc 2 393 0 is_stmt 1
 2474              		.cfi_startproc
 2475              		@ args = 0, pretend = 0, frame = 0
 2476              		@ frame_needed = 0, uses_anonymous_args = 0
 2477              	.LVL321:
 394:main.c        **** 	if (value < -255) return;
 2478              		.loc 2 394 0
 2479 0000 FF28     		cmp	r0, #255
 2480 0002 14DC     		bgt	.L212
 395:main.c        **** 	
 2481              		.loc 2 395 0
 2482 0004 10F1FF0F 		cmn	r0, #255
 2483 0008 11DB     		blt	.L212
 393:main.c        **** 	if (value > 255) return;
 2484              		.loc 2 393 0
 2485 000a 10B5     		push	{r4, lr}
 2486              		.cfi_def_cfa_offset 8
 2487              		.cfi_offset 4, -8
 2488              		.cfi_offset 14, -4
 397:main.c        **** 	
 2489              		.loc 2 397 0
 2490 000c 084B     		ldr	r3, .L213
 2491 000e 1B78     		ldrb	r3, [r3]	@ zero_extendqisi2
 2492 0010 0344     		add	r3, r3, r0
 2493 0012 1BB2     		sxth	r3, r3
 2494              	.LVL322:
 399:main.c        **** 	if (absolute < 0) absolute = 0;
 2495              		.loc 2 399 0
ARM GAS  C:\Users\Noyce\AppData\Local\Temp\ccdn8Rrk.s 			page 64


 2496 0014 FF2B     		cmp	r3, #255
 2497 0016 00DD     		ble	.L207
 2498 0018 FF23     		movs	r3, #255
 2499              	.LVL323:
 2500              	.L207:
 400:main.c        **** 	
 2501              		.loc 2 400 0
 2502 001a 002B     		cmp	r3, #0
 2503 001c 00DA     		bge	.L208
 2504 001e 0023     		movs	r3, #0
 2505              	.LVL324:
 2506              	.L208:
 2507 0020 0446     		mov	r4, r0
 2508              	.LVL325:
 402:main.c        **** 	
 2509              		.loc 2 402 0
 2510 0022 D8B2     		uxtb	r0, r3
 2511              	.LVL326:
 2512 0024 FFF7FEFF 		bl	SetVdsRaw
 2513              	.LVL327:
 404:main.c        **** }
 2514              		.loc 2 404 0
 2515 0028 024B     		ldr	r3, .L213+4
 2516 002a 1C80     		strh	r4, [r3]	@ movhi
 2517 002c 10BD     		pop	{r4, pc}
 2518              	.LVL328:
 2519              	.L212:
 2520              		.cfi_def_cfa_offset 0
 2521              		.cfi_restore 4
 2522              		.cfi_restore 14
 2523 002e 7047     		bx	lr
 2524              	.L214:
 2525              		.align	2
 2526              	.L213:
 2527 0030 815B0040 		.word	1073765249
 2528 0034 00000000 		.word	Vds_Index_Goal_Relative
 2529              		.cfi_endproc
 2530              	.LFE88:
 2531              		.size	SetVds, .-SetVds
 2532              		.section	.text.SetVgs,"ax",%progbits
 2533              		.align	2
 2534              		.global	SetVgs
 2535              		.thumb
 2536              		.thumb_func
 2537              		.type	SetVgs, %function
 2538              	SetVgs:
 2539              	.LFB89:
 407:main.c        **** 	if (value > 255) return;
 2540              		.loc 2 407 0
 2541              		.cfi_startproc
 2542              		@ args = 0, pretend = 0, frame = 0
 2543              		@ frame_needed = 0, uses_anonymous_args = 0
 2544              	.LVL329:
 408:main.c        **** 	if (value < -255) return;
 2545              		.loc 2 408 0
 2546 0000 FF28     		cmp	r0, #255
 2547 0002 14DC     		bgt	.L222
ARM GAS  C:\Users\Noyce\AppData\Local\Temp\ccdn8Rrk.s 			page 65


 409:main.c        **** 	
 2548              		.loc 2 409 0
 2549 0004 10F1FF0F 		cmn	r0, #255
 2550 0008 11DB     		blt	.L222
 407:main.c        **** 	if (value > 255) return;
 2551              		.loc 2 407 0
 2552 000a 10B5     		push	{r4, lr}
 2553              		.cfi_def_cfa_offset 8
 2554              		.cfi_offset 4, -8
 2555              		.cfi_offset 14, -4
 411:main.c        **** 	
 2556              		.loc 2 411 0
 2557 000c 084B     		ldr	r3, .L223
 2558 000e 1B78     		ldrb	r3, [r3]	@ zero_extendqisi2
 2559 0010 0344     		add	r3, r3, r0
 2560 0012 1BB2     		sxth	r3, r3
 2561              	.LVL330:
 413:main.c        **** 	if (absolute < 0) absolute = 0;
 2562              		.loc 2 413 0
 2563 0014 FF2B     		cmp	r3, #255
 2564 0016 00DD     		ble	.L217
 2565 0018 FF23     		movs	r3, #255
 2566              	.LVL331:
 2567              	.L217:
 414:main.c        **** 	
 2568              		.loc 2 414 0
 2569 001a 002B     		cmp	r3, #0
 2570 001c 00DA     		bge	.L218
 2571 001e 0023     		movs	r3, #0
 2572              	.LVL332:
 2573              	.L218:
 2574 0020 0446     		mov	r4, r0
 2575              	.LVL333:
 416:main.c        **** 	
 2576              		.loc 2 416 0
 2577 0022 D8B2     		uxtb	r0, r3
 2578              	.LVL334:
 2579 0024 FFF7FEFF 		bl	SetVgsRaw
 2580              	.LVL335:
 418:main.c        **** }
 2581              		.loc 2 418 0
 2582 0028 024B     		ldr	r3, .L223+4
 2583 002a 1C80     		strh	r4, [r3]	@ movhi
 2584 002c 10BD     		pop	{r4, pc}
 2585              	.LVL336:
 2586              	.L222:
 2587              		.cfi_def_cfa_offset 0
 2588              		.cfi_restore 4
 2589              		.cfi_restore 14
 2590 002e 7047     		bx	lr
 2591              	.L224:
 2592              		.align	2
 2593              	.L223:
 2594 0030 815B0040 		.word	1073765249
 2595 0034 00000000 		.word	Vgs_Index_Goal_Relative
 2596              		.cfi_endproc
 2597              	.LFE89:
ARM GAS  C:\Users\Noyce\AppData\Local\Temp\ccdn8Rrk.s 			page 66


 2598              		.size	SetVgs, .-SetVgs
 2599              		.section	.text.SetRef,"ax",%progbits
 2600              		.align	2
 2601              		.global	SetRef
 2602              		.thumb
 2603              		.thumb_func
 2604              		.type	SetRef, %function
 2605              	SetRef:
 2606              	.LFB90:
 421:main.c        **** 	int8 increment = 1;
 2607              		.loc 2 421 0
 2608              		.cfi_startproc
 2609              		@ args = 0, pretend = 0, frame = 0
 2610              		@ frame_needed = 0, uses_anonymous_args = 0
 2611              	.LVL337:
 2612 0000 2DE9F041 		push	{r4, r5, r6, r7, r8, lr}
 2613              		.cfi_def_cfa_offset 24
 2614              		.cfi_offset 4, -24
 2615              		.cfi_offset 5, -20
 2616              		.cfi_offset 6, -16
 2617              		.cfi_offset 7, -12
 2618              		.cfi_offset 8, -8
 2619              		.cfi_offset 14, -4
 2620 0004 0746     		mov	r7, r0
 2621              	.LVL338:
 423:main.c        **** 	
 2622              		.loc 2 423 0
 2623 0006 1A4B     		ldr	r3, .L240
 2624 0008 1B78     		ldrb	r3, [r3]	@ zero_extendqisi2
 2625 000a DBB2     		uxtb	r3, r3
 2626 000c 8342     		cmp	r3, r0
 2627 000e 02D8     		bhi	.L234
 422:main.c        **** 	if (value < VDAC_Ref_Data) increment = -1;
 2628              		.loc 2 422 0
 2629 0010 4FF00108 		mov	r8, #1
 2630 0014 01E0     		b	.L226
 2631              	.L234:
 423:main.c        **** 	
 2632              		.loc 2 423 0
 2633 0016 4FF0FF38 		mov	r8, #-1
 2634              	.L226:
 2635              	.LVL339:
 2636              	.LBB36:
 425:main.c        **** 		
 2637              		.loc 2 425 0
 2638 001a 154B     		ldr	r3, .L240
 2639 001c 1E78     		ldrb	r6, [r3]	@ zero_extendqisi2
 2640 001e F6B2     		uxtb	r6, r6
 2641              	.LVL340:
 2642 0020 22E0     		b	.L227
 2643              	.LVL341:
 2644              	.L233:
 2645              	.LBB37:
 427:main.c        **** 		
 2646              		.loc 2 427 0
 2647 0022 FFF7FEFF 		bl	AtCompliance
 2648              	.LVL342:
ARM GAS  C:\Users\Noyce\AppData\Local\Temp\ccdn8Rrk.s 			page 67


 2649 0026 08BB     		cbnz	r0, .L225
 429:main.c        **** 		int16 new_Vds = (int16)i + Vds_Index_Goal_Relative;
 2650              		.loc 2 429 0
 2651 0028 B4B2     		uxth	r4, r6
 2652 002a 124B     		ldr	r3, .L240+4
 2653 002c 1D88     		ldrh	r5, [r3]
 2654 002e 2544     		add	r5, r5, r4
 2655 0030 2DB2     		sxth	r5, r5
 2656              	.LVL343:
 430:main.c        **** 		
 2657              		.loc 2 430 0
 2658 0032 114B     		ldr	r3, .L240+8
 2659 0034 1B88     		ldrh	r3, [r3]
 2660 0036 1C44     		add	r4, r4, r3
 2661 0038 24B2     		sxth	r4, r4
 2662              	.LVL344:
 432:main.c        **** 		if (new_Vds > 255) new_Vds = 255;
 2663              		.loc 2 432 0
 2664 003a FF2D     		cmp	r5, #255
 2665 003c 00DD     		ble	.L229
 2666 003e FF25     		movs	r5, #255
 2667              	.LVL345:
 2668              	.L229:
 433:main.c        **** 		
 2669              		.loc 2 433 0
 2670 0040 FF2C     		cmp	r4, #255
 2671 0042 00DD     		ble	.L230
 2672 0044 FF24     		movs	r4, #255
 2673              	.LVL346:
 2674              	.L230:
 435:main.c        **** 		if (new_Vds < 0) new_Vds = 0;
 2675              		.loc 2 435 0
 2676 0046 002D     		cmp	r5, #0
 2677 0048 00DA     		bge	.L231
 2678 004a 0025     		movs	r5, #0
 2679              	.LVL347:
 2680              	.L231:
 436:main.c        **** 		
 2681              		.loc 2 436 0
 2682 004c 002C     		cmp	r4, #0
 2683 004e 00DA     		bge	.L232
 2684 0050 0024     		movs	r4, #0
 2685              	.LVL348:
 2686              	.L232:
 438:main.c        **** 		VDAC_Vgs_SetValue(new_Vgs);
 2687              		.loc 2 438 0 discriminator 2
 2688 0052 3046     		mov	r0, r6
 2689 0054 FFF7FEFF 		bl	VDAC_Ref_SetValue
 2690              	.LVL349:
 439:main.c        **** 		VDAC_Vds_SetValue(new_Vds);
 2691              		.loc 2 439 0 discriminator 2
 2692 0058 E8B2     		uxtb	r0, r5
 2693 005a FFF7FEFF 		bl	VDAC_Vgs_SetValue
 2694              	.LVL350:
 440:main.c        **** 	}
 2695              		.loc 2 440 0 discriminator 2
 2696 005e E0B2     		uxtb	r0, r4
ARM GAS  C:\Users\Noyce\AppData\Local\Temp\ccdn8Rrk.s 			page 68


 2697 0060 FFF7FEFF 		bl	VDAC_Vds_SetValue
 2698              	.LVL351:
 2699              	.LBE37:
 425:main.c        **** 		
 2700              		.loc 2 425 0 discriminator 2
 2701 0064 4644     		add	r6, r6, r8
 2702              	.LVL352:
 2703 0066 F6B2     		uxtb	r6, r6
 2704              	.LVL353:
 2705              	.L227:
 425:main.c        **** 		
 2706              		.loc 2 425 0 is_stmt 0 discriminator 1
 2707 0068 BE42     		cmp	r6, r7
 2708 006a DAD1     		bne	.L233
 2709              	.L225:
 2710 006c BDE8F081 		pop	{r4, r5, r6, r7, r8, pc}
 2711              	.LVL354:
 2712              	.L241:
 2713              		.align	2
 2714              	.L240:
 2715 0070 815B0040 		.word	1073765249
 2716 0074 00000000 		.word	Vgs_Index_Goal_Relative
 2717 0078 00000000 		.word	Vds_Index_Goal_Relative
 2718              	.LBE36:
 2719              		.cfi_endproc
 2720              	.LFE90:
 2721              		.size	SetRef, .-SetRef
 2722              		.section	.text.getRef,"ax",%progbits
 2723              		.align	2
 2724              		.global	getRef
 2725              		.thumb
 2726              		.thumb_func
 2727              		.type	getRef, %function
 2728              	getRef:
 2729              	.LFB91:
 444:main.c        **** 	float result = 4.080/255.0*VDAC_Ref_Data;
 2730              		.loc 2 444 0 is_stmt 1
 2731              		.cfi_startproc
 2732              		@ args = 0, pretend = 0, frame = 0
 2733              		@ frame_needed = 0, uses_anonymous_args = 0
 2734 0000 08B5     		push	{r3, lr}
 2735              		.cfi_def_cfa_offset 8
 2736              		.cfi_offset 3, -8
 2737              		.cfi_offset 14, -4
 445:main.c        **** 	if (VDAC_Ref_CR0 & (VDAC_Ref_RANGE_1V & VDAC_Ref_RANGE_MASK)) {
 2738              		.loc 2 445 0
 2739 0002 094B     		ldr	r3, .L244+8
 2740 0004 1878     		ldrb	r0, [r3]	@ zero_extendqisi2
 2741 0006 FFF7FEFF 		bl	__aeabi_i2d
 2742              	.LVL355:
 2743 000a 05A3     		adr	r3, .L244
 2744 000c D3E90023 		ldrd	r2, [r3]
 2745 0010 FFF7FEFF 		bl	__aeabi_dmul
 2746              	.LVL356:
 2747 0014 FFF7FEFF 		bl	__aeabi_d2f
 2748              	.LVL357:
 446:main.c        **** 		result = 1.020/255.0*VDAC_Ref_Data;
ARM GAS  C:\Users\Noyce\AppData\Local\Temp\ccdn8Rrk.s 			page 69


 2749              		.loc 2 446 0
 2750 0018 044B     		ldr	r3, .L244+12
 2751 001a 1B78     		ldrb	r3, [r3]	@ zero_extendqisi2
 450:main.c        **** 
 2752              		.loc 2 450 0
 2753 001c 08BD     		pop	{r3, pc}
 2754              	.L245:
 2755 001e 00BF     		.align	3
 2756              	.L244:
 2757 0020 FCA9F1D2 		.word	-755914244
 2758 0024 4D62903F 		.word	1066426957
 2759 0028 815B0040 		.word	1073765249
 2760 002c 24580040 		.word	1073764388
 2761              		.cfi_endproc
 2762              	.LFE91:
 2763              		.size	getRef, .-getRef
 2764              		.section	.text.getVgs,"ax",%progbits
 2765              		.align	2
 2766              		.global	getVgs
 2767              		.thumb
 2768              		.thumb_func
 2769              		.type	getVgs, %function
 2770              	getVgs:
 2771              	.LFB92:
 452:main.c        **** 	float result = 4.080/255.0*VDAC_Vgs_Data - getRef();
 2772              		.loc 2 452 0
 2773              		.cfi_startproc
 2774              		@ args = 0, pretend = 0, frame = 0
 2775              		@ frame_needed = 0, uses_anonymous_args = 0
 2776 0000 38B5     		push	{r3, r4, r5, lr}
 2777              		.cfi_def_cfa_offset 16
 2778              		.cfi_offset 3, -16
 2779              		.cfi_offset 4, -12
 2780              		.cfi_offset 5, -8
 2781              		.cfi_offset 14, -4
 453:main.c        **** 	if (VDAC_Vgs_CR0 & (VDAC_Vgs_RANGE_1V & VDAC_Vgs_RANGE_MASK)) {
 2782              		.loc 2 453 0
 2783 0002 0F4B     		ldr	r3, .L248+8
 2784 0004 1878     		ldrb	r0, [r3]	@ zero_extendqisi2
 2785 0006 FFF7FEFF 		bl	__aeabi_i2d
 2786              	.LVL358:
 2787 000a 0BA3     		adr	r3, .L248
 2788 000c D3E90023 		ldrd	r2, [r3]
 2789 0010 FFF7FEFF 		bl	__aeabi_dmul
 2790              	.LVL359:
 2791 0014 0446     		mov	r4, r0
 2792 0016 0D46     		mov	r5, r1
 2793 0018 FFF7FEFF 		bl	getRef
 2794              	.LVL360:
 2795 001c FFF7FEFF 		bl	__aeabi_f2d
 2796              	.LVL361:
 2797 0020 0246     		mov	r2, r0
 2798 0022 0B46     		mov	r3, r1
 2799 0024 2046     		mov	r0, r4
 2800 0026 2946     		mov	r1, r5
 2801 0028 FFF7FEFF 		bl	__aeabi_dsub
 2802              	.LVL362:
ARM GAS  C:\Users\Noyce\AppData\Local\Temp\ccdn8Rrk.s 			page 70


 2803 002c FFF7FEFF 		bl	__aeabi_d2f
 2804              	.LVL363:
 454:main.c        **** 		result = 1.020/255.0*VDAC_Vgs_Data - getRef();
 2805              		.loc 2 454 0
 2806 0030 044B     		ldr	r3, .L248+12
 2807 0032 1B78     		ldrb	r3, [r3]	@ zero_extendqisi2
 458:main.c        **** 
 2808              		.loc 2 458 0
 2809 0034 38BD     		pop	{r3, r4, r5, pc}
 2810              	.L249:
 2811 0036 00BF     		.align	3
 2812              	.L248:
 2813 0038 FCA9F1D2 		.word	-755914244
 2814 003c 4D62903F 		.word	1066426957
 2815 0040 835B0040 		.word	1073765251
 2816 0044 2C580040 		.word	1073764396
 2817              		.cfi_endproc
 2818              	.LFE92:
 2819              		.size	getVgs, .-getVgs
 2820              		.section	.text.getVds,"ax",%progbits
 2821              		.align	2
 2822              		.global	getVds
 2823              		.thumb
 2824              		.thumb_func
 2825              		.type	getVds, %function
 2826              	getVds:
 2827              	.LFB93:
 460:main.c        **** 	float result = 4.080/255.0*VDAC_Vds_Data - getRef();
 2828              		.loc 2 460 0
 2829              		.cfi_startproc
 2830              		@ args = 0, pretend = 0, frame = 0
 2831              		@ frame_needed = 0, uses_anonymous_args = 0
 2832 0000 38B5     		push	{r3, r4, r5, lr}
 2833              		.cfi_def_cfa_offset 16
 2834              		.cfi_offset 3, -16
 2835              		.cfi_offset 4, -12
 2836              		.cfi_offset 5, -8
 2837              		.cfi_offset 14, -4
 461:main.c        **** 	if (VDAC_Vds_CR0 & (VDAC_Vds_RANGE_1V & VDAC_Vds_RANGE_MASK)) {
 2838              		.loc 2 461 0
 2839 0002 0F4B     		ldr	r3, .L252+8
 2840 0004 1878     		ldrb	r0, [r3]	@ zero_extendqisi2
 2841 0006 FFF7FEFF 		bl	__aeabi_i2d
 2842              	.LVL364:
 2843 000a 0BA3     		adr	r3, .L252
 2844 000c D3E90023 		ldrd	r2, [r3]
 2845 0010 FFF7FEFF 		bl	__aeabi_dmul
 2846              	.LVL365:
 2847 0014 0446     		mov	r4, r0
 2848 0016 0D46     		mov	r5, r1
 2849 0018 FFF7FEFF 		bl	getRef
 2850              	.LVL366:
 2851 001c FFF7FEFF 		bl	__aeabi_f2d
 2852              	.LVL367:
 2853 0020 0246     		mov	r2, r0
 2854 0022 0B46     		mov	r3, r1
 2855 0024 2046     		mov	r0, r4
ARM GAS  C:\Users\Noyce\AppData\Local\Temp\ccdn8Rrk.s 			page 71


 2856 0026 2946     		mov	r1, r5
 2857 0028 FFF7FEFF 		bl	__aeabi_dsub
 2858              	.LVL368:
 2859 002c FFF7FEFF 		bl	__aeabi_d2f
 2860              	.LVL369:
 462:main.c        **** 		result = 1.020/255.0*VDAC_Vds_Data - getRef();
 2861              		.loc 2 462 0
 2862 0030 044B     		ldr	r3, .L252+12
 2863 0032 1B78     		ldrb	r3, [r3]	@ zero_extendqisi2
 466:main.c        **** 
 2864              		.loc 2 466 0
 2865 0034 38BD     		pop	{r3, r4, r5, pc}
 2866              	.L253:
 2867 0036 00BF     		.align	3
 2868              	.L252:
 2869 0038 FCA9F1D2 		.word	-755914244
 2870 003c 4D62903F 		.word	1066426957
 2871 0040 805B0040 		.word	1073765248
 2872 0044 20580040 		.word	1073764384
 2873              		.cfi_endproc
 2874              	.LFE93:
 2875              		.size	getVds, .-getVds
 2876              		.section	.text.Zero_All_DACs,"ax",%progbits
 2877              		.align	2
 2878              		.global	Zero_All_DACs
 2879              		.thumb
 2880              		.thumb_func
 2881              		.type	Zero_All_DACs, %function
 2882              	Zero_All_DACs:
 2883              	.LFB94:
 468:main.c        **** 	SetVdsRaw(0);
 2884              		.loc 2 468 0
 2885              		.cfi_startproc
 2886              		@ args = 0, pretend = 0, frame = 0
 2887              		@ frame_needed = 0, uses_anonymous_args = 0
 2888 0000 08B5     		push	{r3, lr}
 2889              		.cfi_def_cfa_offset 8
 2890              		.cfi_offset 3, -8
 2891              		.cfi_offset 14, -4
 469:main.c        **** 	SetVgsRaw(0);
 2892              		.loc 2 469 0
 2893 0002 0020     		movs	r0, #0
 2894 0004 FFF7FEFF 		bl	SetVdsRaw
 2895              	.LVL370:
 470:main.c        **** 	
 2896              		.loc 2 470 0
 2897 0008 0020     		movs	r0, #0
 2898 000a FFF7FEFF 		bl	SetVgsRaw
 2899              	.LVL371:
 472:main.c        **** 	VDAC_Vgs_SetValue(0);
 2900              		.loc 2 472 0
 2901 000e 0020     		movs	r0, #0
 2902 0010 FFF7FEFF 		bl	VDAC_Vds_SetValue
 2903              	.LVL372:
 473:main.c        **** }
 2904              		.loc 2 473 0
 2905 0014 0020     		movs	r0, #0
ARM GAS  C:\Users\Noyce\AppData\Local\Temp\ccdn8Rrk.s 			page 72


 2906 0016 FFF7FEFF 		bl	VDAC_Vgs_SetValue
 2907              	.LVL373:
 2908 001a 08BD     		pop	{r3, pc}
 2909              		.cfi_endproc
 2910              	.LFE94:
 2911              		.size	Zero_All_DACs, .-Zero_All_DACs
 2912              		.section	.text.measure,"ax",%progbits
 2913              		.align	2
 2914              		.global	measure
 2915              		.thumb
 2916              		.thumb_func
 2917              		.type	measure, %function
 2918              	measure:
 2919              	.LFB95:
 476:main.c        **** 	int32 IdsAverage = 0;
 2920              		.loc 2 476 0
 2921              		.cfi_startproc
 2922              		@ args = 0, pretend = 0, frame = 8
 2923              		@ frame_needed = 0, uses_anonymous_args = 0
 2924 0000 2DE9F047 		push	{r4, r5, r6, r7, r8, r9, r10, lr}
 2925              		.cfi_def_cfa_offset 32
 2926              		.cfi_offset 4, -32
 2927              		.cfi_offset 5, -28
 2928              		.cfi_offset 6, -24
 2929              		.cfi_offset 7, -20
 2930              		.cfi_offset 8, -16
 2931              		.cfi_offset 9, -12
 2932              		.cfi_offset 10, -8
 2933              		.cfi_offset 14, -4
 2934 0004 8AB0     		sub	sp, sp, #40
 2935              		.cfi_def_cfa_offset 72
 477:main.c        **** 	int32 IdsStandardDeviation = 0;
 2936              		.loc 2 477 0
 2937 0006 0023     		movs	r3, #0
 2938 0008 0993     		str	r3, [sp, #36]
 478:main.c        **** 	
 2939              		.loc 2 478 0
 2940 000a 0AA9     		add	r1, sp, #40
 2941 000c 41F8083D 		str	r3, [r1, #-8]!
 480:main.c        **** 	
 2942              		.loc 2 480 0
 2943 0010 6422     		movs	r2, #100
 2944 0012 09A8     		add	r0, sp, #36
 2945 0014 FFF7FEFF 		bl	ADC_Measure_uV
 2946              	.LVL374:
 482:main.c        **** 	
 2947              		.loc 2 482 0
 2948 0018 0998     		ldr	r0, [sp, #36]
 2949 001a FFF7FEFF 		bl	__aeabi_i2d
 2950              	.LVL375:
 2951 001e 2AA3     		adr	r3, .L260
 2952 0020 D3E90023 		ldrd	r2, [r3]
 2953 0024 FFF7FEFF 		bl	__aeabi_dmul
 2954              	.LVL376:
 2955 0028 FFF7FEFF 		bl	__aeabi_d2f
 2956              	.LVL377:
 2957 002c 0446     		mov	r4, r0
ARM GAS  C:\Users\Noyce\AppData\Local\Temp\ccdn8Rrk.s 			page 73


 2958              	.LVL378:
 484:main.c        **** 	ADC_SAR_2_StartConvert();
 2959              		.loc 2 484 0
 2960 002e FFF7FEFF 		bl	ADC_SAR_1_StartConvert
 2961              	.LVL379:
 485:main.c        **** 	while (!ADC_SAR_1_IsEndConversion(ADC_SAR_1_RETURN_STATUS));
 2962              		.loc 2 485 0
 2963 0032 FFF7FEFF 		bl	ADC_SAR_2_StartConvert
 2964              	.LVL380:
 2965              	.L257:
 486:main.c        **** 	while (!ADC_SAR_2_IsEndConversion(ADC_SAR_2_RETURN_STATUS));
 2966              		.loc 2 486 0 discriminator 1
 2967 0036 0120     		movs	r0, #1
 2968 0038 FFF7FEFF 		bl	ADC_SAR_1_IsEndConversion
 2969              	.LVL381:
 2970 003c 0028     		cmp	r0, #0
 2971 003e FAD0     		beq	.L257
 2972              	.L258:
 487:main.c        **** 	
 2973              		.loc 2 487 0 discriminator 1
 2974 0040 0120     		movs	r0, #1
 2975 0042 FFF7FEFF 		bl	ADC_SAR_2_IsEndConversion
 2976              	.LVL382:
 2977 0046 0028     		cmp	r0, #0
 2978 0048 FAD0     		beq	.L258
 489:main.c        **** 	float SAR2 = ADC_SAR_2_CountsTo_Volts(ADC_SAR_2_GetResult16());
 2979              		.loc 2 489 0
 2980 004a FFF7FEFF 		bl	ADC_SAR_1_GetResult16
 2981              	.LVL383:
 2982 004e FFF7FEFF 		bl	ADC_SAR_1_CountsTo_Volts
 2983              	.LVL384:
 2984 0052 8146     		mov	r9, r0
 2985              	.LVL385:
 490:main.c        **** 	
 2986              		.loc 2 490 0
 2987 0054 FFF7FEFF 		bl	ADC_SAR_2_GetResult16
 2988              	.LVL386:
 2989 0058 FFF7FEFF 		bl	ADC_SAR_2_CountsTo_Volts
 2990              	.LVL387:
 2991 005c 8246     		mov	r10, r0
 2992              	.LVL388:
 492:main.c        **** 	USBUARTH_Send(TransmitBuffer, strlen(TransmitBuffer));
 2993              		.loc 2 492 0
 2994 005e FFF7FEFF 		bl	getVgs
 2995              	.LVL389:
 2996 0062 0546     		mov	r5, r0
 2997 0064 FFF7FEFF 		bl	getVds
 2998              	.LVL390:
 2999 0068 8046     		mov	r8, r0
 3000 006a 2046     		mov	r0, r4
 3001 006c FFF7FEFF 		bl	__aeabi_f2d
 3002              	.LVL391:
 3003 0070 0646     		mov	r6, r0
 3004 0072 0F46     		mov	r7, r1
 3005 0074 164C     		ldr	r4, .L260+8
 3006              	.LVL392:
 3007 0076 5046     		mov	r0, r10
ARM GAS  C:\Users\Noyce\AppData\Local\Temp\ccdn8Rrk.s 			page 74


 3008 0078 FFF7FEFF 		bl	__aeabi_f2d
 3009              	.LVL393:
 3010 007c CDE90601 		strd	r0, [sp, #24]
 3011 0080 4846     		mov	r0, r9
 3012 0082 FFF7FEFF 		bl	__aeabi_f2d
 3013              	.LVL394:
 3014 0086 CDE90401 		strd	r0, [sp, #16]
 3015 008a 4046     		mov	r0, r8
 3016 008c FFF7FEFF 		bl	__aeabi_f2d
 3017              	.LVL395:
 3018 0090 CDE90201 		strd	r0, [sp, #8]
 3019 0094 2846     		mov	r0, r5
 3020 0096 FFF7FEFF 		bl	__aeabi_f2d
 3021              	.LVL396:
 3022 009a CDE90001 		strd	r0, [sp]
 3023 009e 3246     		mov	r2, r6
 3024 00a0 3B46     		mov	r3, r7
 3025 00a2 0C49     		ldr	r1, .L260+12
 3026 00a4 2046     		mov	r0, r4
 3027 00a6 FFF7FEFF 		bl	sprintf
 3028              	.LVL397:
 493:main.c        **** 	UART_1_PutString(TransmitBuffer);
 3029              		.loc 2 493 0
 3030 00aa 2046     		mov	r0, r4
 3031 00ac FFF7FEFF 		bl	strlen
 3032              	.LVL398:
 3033 00b0 81B2     		uxth	r1, r0
 3034 00b2 2046     		mov	r0, r4
 3035 00b4 FFF7FEFF 		bl	USBUARTH_Send
 3036              	.LVL399:
 494:main.c        **** }
 3037              		.loc 2 494 0
 3038 00b8 2046     		mov	r0, r4
 3039 00ba FFF7FEFF 		bl	UART_1_PutString
 3040              	.LVL400:
 495:main.c        **** 
 3041              		.loc 2 495 0
 3042 00be 0AB0     		add	sp, sp, #40
 3043              		.cfi_def_cfa_offset 32
 3044              		@ sp needed
 3045 00c0 BDE8F087 		pop	{r4, r5, r6, r7, r8, r9, r10, pc}
 3046              	.LVL401:
 3047              	.L261:
 3048 00c4 AFF30080 		.align	3
 3049              	.L260:
 3050 00c8 BABDD7D9 		.word	-640172614
 3051 00cc DF7CCBBD 		.word	-1110737697
 3052 00d0 00000000 		.word	TransmitBuffer
 3053 00d4 B0000000 		.word	.LC12
 3054              		.cfi_endproc
 3055              	.LFE95:
 3056              		.size	measure, .-measure
 3057              		.section	.text.Measure_Gate_Sweep,"ax",%progbits
 3058              		.align	2
 3059              		.global	Measure_Gate_Sweep
 3060              		.thumb
 3061              		.thumb_func
ARM GAS  C:\Users\Noyce\AppData\Local\Temp\ccdn8Rrk.s 			page 75


 3062              		.type	Measure_Gate_Sweep, %function
 3063              	Measure_Gate_Sweep:
 3064              	.LFB96:
 497:main.c        **** 	sprintf(TransmitBuffer, "\r\n[");
 3065              		.loc 2 497 0
 3066              		.cfi_startproc
 3067              		@ args = 0, pretend = 0, frame = 8
 3068              		@ frame_needed = 0, uses_anonymous_args = 0
 3069              	.LVL402:
 3070 0000 2DE9F043 		push	{r4, r5, r6, r7, r8, r9, lr}
 3071              		.cfi_def_cfa_offset 28
 3072              		.cfi_offset 4, -28
 3073              		.cfi_offset 5, -24
 3074              		.cfi_offset 6, -20
 3075              		.cfi_offset 7, -16
 3076              		.cfi_offset 8, -12
 3077              		.cfi_offset 9, -8
 3078              		.cfi_offset 14, -4
 3079 0004 83B0     		sub	sp, sp, #12
 3080              		.cfi_def_cfa_offset 40
 3081 0006 8146     		mov	r9, r0
 498:main.c        **** 	USBUARTH_Send(TransmitBuffer, strlen(TransmitBuffer));
 3082              		.loc 2 498 0
 3083 0008 414C     		ldr	r4, .L274+8
 3084 000a 424B     		ldr	r3, .L274+12
 3085 000c 1868     		ldr	r0, [r3]	@ unaligned
 3086              	.LVL403:
 3087 000e 2060     		str	r0, [r4]	@ unaligned
 499:main.c        **** 	UART_1_PutString(TransmitBuffer);
 3088              		.loc 2 499 0
 3089 0010 2046     		mov	r0, r4
 3090 0012 FFF7FEFF 		bl	strlen
 3091              	.LVL404:
 3092 0016 81B2     		uxth	r1, r0
 3093 0018 2046     		mov	r0, r4
 3094 001a FFF7FEFF 		bl	USBUARTH_Send
 3095              	.LVL405:
 500:main.c        **** 	
 3096              		.loc 2 500 0
 3097 001e 2046     		mov	r0, r4
 3098 0020 FFF7FEFF 		bl	UART_1_PutString
 3099              	.LVL406:
 3100              	.LBB38:
 502:main.c        **** 		int8 direction = 1;
 3101              		.loc 2 502 0
 3102 0024 4FF00008 		mov	r8, #0
 3103 0028 58E0     		b	.L263
 3104              	.LVL407:
 3105              	.L271:
 3106              	.LBB39:
 507:main.c        **** 			direction = -1;
 3107              		.loc 2 507 0
 3108 002a 18F0010F 		tst	r8, #1
 3109 002e 03D1     		bne	.L272
 505:main.c        **** 		
 3110              		.loc 2 505 0
 3111 0030 FF26     		movs	r6, #255
ARM GAS  C:\Users\Noyce\AppData\Local\Temp\ccdn8Rrk.s 			page 76


 504:main.c        **** 		uint8 istop = 255;
 3112              		.loc 2 504 0
 3113 0032 0024     		movs	r4, #0
 503:main.c        **** 		uint8 istart = 0;
 3114              		.loc 2 503 0
 3115 0034 0127     		movs	r7, #1
 3116 0036 03E0     		b	.L264
 3117              	.L272:
 510:main.c        **** 		}
 3118              		.loc 2 510 0
 3119 0038 0026     		movs	r6, #0
 509:main.c        **** 			istop = 0;
 3120              		.loc 2 509 0
 3121 003a FF24     		movs	r4, #255
 508:main.c        **** 			istart = 255;
 3122              		.loc 2 508 0
 3123 003c 4FF0FF37 		mov	r7, #-1
 3124              	.L264:
 3125              	.LVL408:
 3126              	.LBB40:
 513:main.c        **** 			int32 IdsAverage = 0;
 3127              		.loc 2 513 0
 3128 0040 A4B2     		uxth	r4, r4
 3129              	.LVL409:
 3130 0042 44E0     		b	.L265
 3131              	.L270:
 3132              	.LBB41:
 514:main.c        **** 			int32 IdsStandardDeviation = 0;
 3133              		.loc 2 514 0
 3134 0044 0023     		movs	r3, #0
 3135 0046 0093     		str	r3, [sp]
 515:main.c        **** 			
 3136              		.loc 2 515 0
 3137 0048 02AD     		add	r5, sp, #8
 3138 004a 45F8043D 		str	r3, [r5, #-4]!
 517:main.c        **** 			
 3139              		.loc 2 517 0
 3140 004e E0B2     		uxtb	r0, r4
 3141 0050 FFF7FEFF 		bl	SetVgsRaw
 3142              	.LVL410:
 519:main.c        **** 			
 3143              		.loc 2 519 0
 3144 0054 6422     		movs	r2, #100
 3145 0056 2946     		mov	r1, r5
 3146 0058 6846     		mov	r0, sp
 3147 005a FFF7FEFF 		bl	ADC_Measure_uV
 3148              	.LVL411:
 524:main.c        **** 				sprintf(TransmitBuffer, ",");
 3149              		.loc 2 524 0
 3150 005e 6CB1     		cbz	r4, .L266
 525:main.c        **** 				USBUARTH_Send(TransmitBuffer, strlen(TransmitBuffer));
 3151              		.loc 2 525 0
 3152 0060 2B4D     		ldr	r5, .L274+8
 3153 0062 2D4B     		ldr	r3, .L274+16
 3154 0064 1B88     		ldrh	r3, [r3]	@ unaligned
 3155 0066 2B80     		strh	r3, [r5]	@ unaligned
 526:main.c        **** 				UART_1_PutString(TransmitBuffer);
ARM GAS  C:\Users\Noyce\AppData\Local\Temp\ccdn8Rrk.s 			page 77


 3156              		.loc 2 526 0
 3157 0068 2846     		mov	r0, r5
 3158 006a FFF7FEFF 		bl	strlen
 3159              	.LVL412:
 3160 006e 81B2     		uxth	r1, r0
 3161 0070 2846     		mov	r0, r5
 3162 0072 FFF7FEFF 		bl	USBUARTH_Send
 3163              	.LVL413:
 527:main.c        **** 			}
 3164              		.loc 2 527 0
 3165 0076 2846     		mov	r0, r5
 3166 0078 FFF7FEFF 		bl	UART_1_PutString
 3167              	.LVL414:
 3168              	.L266:
 530:main.c        **** 			
 3169              		.loc 2 530 0
 3170 007c 0098     		ldr	r0, [sp]
 3171 007e FFF7FEFF 		bl	__aeabi_i2d
 3172              	.LVL415:
 3173 0082 21A3     		adr	r3, .L274
 3174 0084 D3E90023 		ldrd	r2, [r3]
 3175 0088 FFF7FEFF 		bl	__aeabi_dmul
 3176              	.LVL416:
 3177 008c FFF7FEFF 		bl	__aeabi_d2f
 3178              	.LVL417:
 532:main.c        **** 			USBUARTH_Send(TransmitBuffer, strlen(TransmitBuffer));
 3179              		.loc 2 532 0
 3180 0090 FFF7FEFF 		bl	__aeabi_f2d
 3181              	.LVL418:
 3182 0094 1E4D     		ldr	r5, .L274+8
 3183 0096 0246     		mov	r2, r0
 3184 0098 0B46     		mov	r3, r1
 3185 009a 2049     		ldr	r1, .L274+20
 3186 009c 2846     		mov	r0, r5
 3187 009e FFF7FEFF 		bl	sprintf
 3188              	.LVL419:
 533:main.c        **** 			UART_1_PutString(TransmitBuffer);
 3189              		.loc 2 533 0
 3190 00a2 2846     		mov	r0, r5
 3191 00a4 FFF7FEFF 		bl	strlen
 3192              	.LVL420:
 3193 00a8 81B2     		uxth	r1, r0
 3194 00aa 2846     		mov	r0, r5
 3195 00ac FFF7FEFF 		bl	USBUARTH_Send
 3196              	.LVL421:
 534:main.c        **** 			
 3197              		.loc 2 534 0
 3198 00b0 2846     		mov	r0, r5
 3199 00b2 FFF7FEFF 		bl	UART_1_PutString
 3200              	.LVL422:
 540:main.c        **** 			while (G_Pause);
 3201              		.loc 2 540 0
 3202 00b6 1A4B     		ldr	r3, .L274+24
 3203 00b8 5B78     		ldrb	r3, [r3, #1]	@ zero_extendqisi2
 3204 00ba 13F0FF0F 		tst	r3, #255
 3205 00be 09D1     		bne	.L269
 3206              	.L268:
ARM GAS  C:\Users\Noyce\AppData\Local\Temp\ccdn8Rrk.s 			page 78


 541:main.c        **** 		}
 3207              		.loc 2 541 0 discriminator 1
 3208 00c0 174B     		ldr	r3, .L274+24
 3209 00c2 DB78     		ldrb	r3, [r3, #3]	@ zero_extendqisi2
 3210 00c4 13F0FF0F 		tst	r3, #255
 3211 00c8 FAD1     		bne	.L268
 3212              	.LBE41:
 513:main.c        **** 			int32 IdsAverage = 0;
 3213              		.loc 2 513 0
 3214 00ca 3C44     		add	r4, r4, r7
 3215              	.LVL423:
 3216 00cc A4B2     		uxth	r4, r4
 3217              	.LVL424:
 3218              	.L265:
 513:main.c        **** 			int32 IdsAverage = 0;
 3219              		.loc 2 513 0 is_stmt 0 discriminator 1
 3220 00ce B3B2     		uxth	r3, r6
 3221 00d0 9C42     		cmp	r4, r3
 3222 00d2 B7D1     		bne	.L270
 3223              	.L269:
 3224              	.LBE40:
 3225              	.LBE39:
 502:main.c        **** 		int8 direction = 1;
 3226              		.loc 2 502 0 is_stmt 1 discriminator 2
 3227 00d4 08F10108 		add	r8, r8, #1
 3228              	.LVL425:
 3229 00d8 5FFA88F8 		uxtb	r8, r8
 3230              	.LVL426:
 3231              	.L263:
 502:main.c        **** 		int8 direction = 1;
 3232              		.loc 2 502 0 is_stmt 0 discriminator 1
 3233 00dc C845     		cmp	r8, r9
 3234 00de A4D9     		bls	.L271
 3235              	.LBE38:
 545:main.c        **** 	USBUARTH_Send(TransmitBuffer, strlen(TransmitBuffer));
 3236              		.loc 2 545 0 is_stmt 1
 3237 00e0 0B4C     		ldr	r4, .L274+8
 3238 00e2 104B     		ldr	r3, .L274+28
 3239 00e4 1868     		ldr	r0, [r3]	@ unaligned
 3240 00e6 2060     		str	r0, [r4]	@ unaligned
 546:main.c        **** 	UART_1_PutString(TransmitBuffer);
 3241              		.loc 2 546 0
 3242 00e8 2046     		mov	r0, r4
 3243 00ea FFF7FEFF 		bl	strlen
 3244              	.LVL427:
 3245 00ee 81B2     		uxth	r1, r0
 3246 00f0 2046     		mov	r0, r4
 3247 00f2 FFF7FEFF 		bl	USBUARTH_Send
 3248              	.LVL428:
 547:main.c        **** }
 3249              		.loc 2 547 0
 3250 00f6 2046     		mov	r0, r4
 3251 00f8 FFF7FEFF 		bl	UART_1_PutString
 3252              	.LVL429:
 548:main.c        **** 
 3253              		.loc 2 548 0
 3254 00fc 03B0     		add	sp, sp, #12
ARM GAS  C:\Users\Noyce\AppData\Local\Temp\ccdn8Rrk.s 			page 79


 3255              		.cfi_def_cfa_offset 28
 3256              		@ sp needed
 3257 00fe BDE8F083 		pop	{r4, r5, r6, r7, r8, r9, pc}
 3258              	.LVL430:
 3259              	.L275:
 3260 0102 00BFAFF3 		.align	3
 3260      0080
 3261              	.L274:
 3262 0108 BABDD7D9 		.word	-640172614
 3263 010c DF7CCBBD 		.word	-1110737697
 3264 0110 00000000 		.word	TransmitBuffer
 3265 0114 C4000000 		.word	.LC13
 3266 0118 C8000000 		.word	.LC14
 3267 011c CC000000 		.word	.LC15
 3268 0120 00000000 		.word	.LANCHOR0
 3269 0124 D0000000 		.word	.LC16
 3270              		.cfi_endproc
 3271              	.LFE96:
 3272              		.size	Measure_Gate_Sweep, .-Measure_Gate_Sweep
 3273              		.section	.text.Measure_Wide_Gate_Sweep,"ax",%progbits
 3274              		.align	2
 3275              		.global	Measure_Wide_Gate_Sweep
 3276              		.thumb
 3277              		.thumb_func
 3278              		.type	Measure_Wide_Gate_Sweep, %function
 3279              	Measure_Wide_Gate_Sweep:
 3280              	.LFB97:
 550:main.c        **** 	SetRef(254);
 3281              		.loc 2 550 0
 3282              		.cfi_startproc
 3283              		@ args = 0, pretend = 0, frame = 32
 3284              		@ frame_needed = 0, uses_anonymous_args = 0
 3285              	.LVL431:
 3286 0000 2DE9F04F 		push	{r4, r5, r6, r7, r8, r9, r10, fp, lr}
 3287              		.cfi_def_cfa_offset 36
 3288              		.cfi_offset 4, -36
 3289              		.cfi_offset 5, -32
 3290              		.cfi_offset 6, -28
 3291              		.cfi_offset 7, -24
 3292              		.cfi_offset 8, -20
 3293              		.cfi_offset 9, -16
 3294              		.cfi_offset 10, -12
 3295              		.cfi_offset 11, -8
 3296              		.cfi_offset 14, -4
 3297 0004 91B0     		sub	sp, sp, #68
 3298              		.cfi_def_cfa_offset 104
 3299 0006 0D90     		str	r0, [sp, #52]
 551:main.c        **** 	
 3300              		.loc 2 551 0
 3301 0008 FE20     		movs	r0, #254
 3302              	.LVL432:
 3303 000a FFF7FEFF 		bl	SetRef
 3304              	.LVL433:
 3305              	.LBB42:
 555:main.c        **** 		int8 direction = 1*speed;
 3306              		.loc 2 555 0
 3307 000e 0023     		movs	r3, #0
ARM GAS  C:\Users\Noyce\AppData\Local\Temp\ccdn8Rrk.s 			page 80


 3308 0010 0C93     		str	r3, [sp, #48]
 3309 0012 93E0     		b	.L277
 3310              	.LVL434:
 3311              	.L288:
 3312              	.LBB43:
 560:main.c        **** 			direction = -1*speed;
 3313              		.loc 2 560 0
 3314 0014 0C9B     		ldr	r3, [sp, #48]
 3315 0016 13F0010F 		tst	r3, #1
 3316 001a 07D1     		bne	.L289
 558:main.c        **** 		
 3317              		.loc 2 558 0
 3318 001c 4FF0F008 		mov	r8, #240
 557:main.c        **** 		uint8 istop = 256-speed;
 3319              		.loc 2 557 0
 3320 0020 0027     		movs	r7, #0
 556:main.c        **** 		uint8 istart = 0;
 3321              		.loc 2 556 0
 3322 0022 1026     		movs	r6, #16
 3323 0024 3B46     		mov	r3, r7
 3324 0026 4746     		mov	r7, r8
 3325 0028 9846     		mov	r8, r3
 3326 002a 81E0     		b	.L279
 3327              	.L289:
 563:main.c        **** 		}
 3328              		.loc 2 563 0
 3329 002c 4FF00008 		mov	r8, #0
 562:main.c        **** 			istop = 0;
 3330              		.loc 2 562 0
 3331 0030 F027     		movs	r7, #240
 561:main.c        **** 			istart = 256-speed;
 3332              		.loc 2 561 0
 3333 0032 6FF00F06 		mvn	r6, #15
 3334              	.LVL435:
 3335 0036 3B46     		mov	r3, r7
 3336 0038 4746     		mov	r7, r8
 3337              	.LVL436:
 3338 003a 9846     		mov	r8, r3
 3339              	.LVL437:
 3340              	.LBB44:
 566:main.c        **** 			for (uint8 j = 0; j <= 1; j++) {
 3341              		.loc 2 566 0
 3342 003c 78E0     		b	.L279
 3343              	.LVL438:
 3344              	.L287:
 3345              	.LBB45:
 3346              	.LBB46:
 568:main.c        **** 				int32 IdsStandardDeviation = 0;
 3347              		.loc 2 568 0
 3348 003e 0023     		movs	r3, #0
 3349 0040 0E93     		str	r3, [sp, #56]
 569:main.c        **** 				
 3350              		.loc 2 569 0
 3351 0042 0F93     		str	r3, [sp, #60]
 571:main.c        **** 				SetVgsRaw(i);
 3352              		.loc 2 571 0
 3353 0044 012C     		cmp	r4, #1
ARM GAS  C:\Users\Noyce\AppData\Local\Temp\ccdn8Rrk.s 			page 81


 3354 0046 04D1     		bne	.L280
 571:main.c        **** 				SetVgsRaw(i);
 3355              		.loc 2 571 0 is_stmt 0 discriminator 1
 3356 0048 6FEA0800 		mvn	r0, r8
 3357 004c C0B2     		uxtb	r0, r0
 3358 004e FFF7FEFF 		bl	SetRef
 3359              	.LVL439:
 3360              	.L280:
 572:main.c        **** 				
 3361              		.loc 2 572 0 is_stmt 1
 3362 0052 4046     		mov	r0, r8
 3363 0054 FFF7FEFF 		bl	SetVgsRaw
 3364              	.LVL440:
 574:main.c        **** 				
 3365              		.loc 2 574 0
 3366 0058 2122     		movs	r2, #33
 3367 005a 0FA9     		add	r1, sp, #60
 3368 005c 0EA8     		add	r0, sp, #56
 3369 005e FFF7FEFF 		bl	ADC_Measure_uV
 3370              	.LVL441:
 576:main.c        **** 				
 3371              		.loc 2 576 0
 3372 0062 0E98     		ldr	r0, [sp, #56]
 3373 0064 FFF7FEFF 		bl	__aeabi_i2d
 3374              	.LVL442:
 3375 0068 39A3     		adr	r3, .L292
 3376 006a D3E90023 		ldrd	r2, [r3]
 3377 006e FFF7FEFF 		bl	__aeabi_dmul
 3378              	.LVL443:
 3379 0072 FFF7FEFF 		bl	__aeabi_d2f
 3380              	.LVL444:
 3381 0076 0546     		mov	r5, r0
 3382              	.LVL445:
 578:main.c        **** 				ADC_SAR_2_StartConvert();
 3383              		.loc 2 578 0
 3384 0078 FFF7FEFF 		bl	ADC_SAR_1_StartConvert
 3385              	.LVL446:
 579:main.c        **** 				while (!ADC_SAR_1_IsEndConversion(ADC_SAR_1_RETURN_STATUS));
 3386              		.loc 2 579 0
 3387 007c FFF7FEFF 		bl	ADC_SAR_2_StartConvert
 3388              	.LVL447:
 3389              	.L281:
 580:main.c        **** 				while (!ADC_SAR_2_IsEndConversion(ADC_SAR_2_RETURN_STATUS));
 3390              		.loc 2 580 0 discriminator 1
 3391 0080 0120     		movs	r0, #1
 3392 0082 FFF7FEFF 		bl	ADC_SAR_1_IsEndConversion
 3393              	.LVL448:
 3394 0086 0028     		cmp	r0, #0
 3395 0088 FAD0     		beq	.L281
 3396              	.L282:
 581:main.c        **** 				
 3397              		.loc 2 581 0 discriminator 1
 3398 008a 0120     		movs	r0, #1
 3399 008c FFF7FEFF 		bl	ADC_SAR_2_IsEndConversion
 3400              	.LVL449:
 3401 0090 0028     		cmp	r0, #0
 3402 0092 FAD0     		beq	.L282
ARM GAS  C:\Users\Noyce\AppData\Local\Temp\ccdn8Rrk.s 			page 82


 583:main.c        **** 				float SAR2 = ADC_SAR_2_CountsTo_Volts(ADC_SAR_2_GetResult16());
 3403              		.loc 2 583 0
 3404 0094 FFF7FEFF 		bl	ADC_SAR_1_GetResult16
 3405              	.LVL450:
 3406 0098 FFF7FEFF 		bl	ADC_SAR_1_CountsTo_Volts
 3407              	.LVL451:
 3408 009c 8246     		mov	r10, r0
 3409              	.LVL452:
 584:main.c        **** 				
 3410              		.loc 2 584 0
 3411 009e FFF7FEFF 		bl	ADC_SAR_2_GetResult16
 3412              	.LVL453:
 3413 00a2 FFF7FEFF 		bl	ADC_SAR_2_CountsTo_Volts
 3414              	.LVL454:
 3415 00a6 8346     		mov	fp, r0
 3416              	.LVL455:
 586:main.c        **** 				USBUARTH_Send(TransmitBuffer, strlen(TransmitBuffer));
 3417              		.loc 2 586 0
 3418 00a8 FFF7FEFF 		bl	getVgs
 3419              	.LVL456:
 3420 00ac 0990     		str	r0, [sp, #36]	@ float
 3421 00ae FFF7FEFF 		bl	getVds
 3422              	.LVL457:
 3423 00b2 8146     		mov	r9, r0
 3424 00b4 2846     		mov	r0, r5
 3425 00b6 FFF7FEFF 		bl	__aeabi_f2d
 3426              	.LVL458:
 3427 00ba CDE90A01 		strd	r0, [sp, #40]
 3428 00be 264D     		ldr	r5, .L292+8
 3429              	.LVL459:
 3430 00c0 5846     		mov	r0, fp
 3431 00c2 FFF7FEFF 		bl	__aeabi_f2d
 3432              	.LVL460:
 3433 00c6 CDE90601 		strd	r0, [sp, #24]
 3434 00ca 5046     		mov	r0, r10
 3435 00cc FFF7FEFF 		bl	__aeabi_f2d
 3436              	.LVL461:
 3437 00d0 CDE90401 		strd	r0, [sp, #16]
 3438 00d4 4846     		mov	r0, r9
 3439 00d6 FFF7FEFF 		bl	__aeabi_f2d
 3440              	.LVL462:
 3441 00da CDE90201 		strd	r0, [sp, #8]
 3442 00de 0998     		ldr	r0, [sp, #36]	@ float
 3443 00e0 FFF7FEFF 		bl	__aeabi_f2d
 3444              	.LVL463:
 3445 00e4 CDE90001 		strd	r0, [sp]
 3446 00e8 DDE90A23 		ldrd	r2, [sp, #40]
 3447 00ec 1B49     		ldr	r1, .L292+12
 3448 00ee 2846     		mov	r0, r5
 3449 00f0 FFF7FEFF 		bl	sprintf
 3450              	.LVL464:
 587:main.c        **** 				UART_1_PutString(TransmitBuffer);
 3451              		.loc 2 587 0
 3452 00f4 2846     		mov	r0, r5
 3453 00f6 FFF7FEFF 		bl	strlen
 3454              	.LVL465:
 3455 00fa 81B2     		uxth	r1, r0
ARM GAS  C:\Users\Noyce\AppData\Local\Temp\ccdn8Rrk.s 			page 83


 3456 00fc 2846     		mov	r0, r5
 3457 00fe FFF7FEFF 		bl	USBUARTH_Send
 3458              	.LVL466:
 588:main.c        **** 				
 3459              		.loc 2 588 0
 3460 0102 2846     		mov	r0, r5
 3461 0104 FFF7FEFF 		bl	UART_1_PutString
 3462              	.LVL467:
 590:main.c        **** 				while (G_Pause);
 3463              		.loc 2 590 0
 3464 0108 154B     		ldr	r3, .L292+16
 3465 010a 5B78     		ldrb	r3, [r3, #1]	@ zero_extendqisi2
 3466 010c 13F0FF0F 		tst	r3, #255
 3467 0110 0AD1     		bne	.L286
 3468              	.L284:
 591:main.c        **** 			}
 3469              		.loc 2 591 0 discriminator 1
 3470 0112 134B     		ldr	r3, .L292+16
 3471 0114 DB78     		ldrb	r3, [r3, #3]	@ zero_extendqisi2
 3472 0116 13F0FF0F 		tst	r3, #255
 3473 011a FAD1     		bne	.L284
 3474              	.LBE46:
 567:main.c        **** 				int32 IdsAverage = 0;
 3475              		.loc 2 567 0
 3476 011c 0134     		adds	r4, r4, #1
 3477              	.LVL468:
 3478 011e E4B2     		uxtb	r4, r4
 3479              	.LVL469:
 3480 0120 00E0     		b	.L285
 3481              	.LVL470:
 3482              	.L290:
 3483              	.LBE45:
 3484 0122 0024     		movs	r4, #0
 3485              	.L285:
 3486              	.LVL471:
 3487              	.LBB47:
 567:main.c        **** 				int32 IdsAverage = 0;
 3488              		.loc 2 567 0 is_stmt 0 discriminator 1
 3489 0124 012C     		cmp	r4, #1
 3490 0126 8AD9     		bls	.L287
 3491              	.L286:
 3492              	.LBE47:
 566:main.c        **** 			for (uint8 j = 0; j <= 1; j++) {
 3493              		.loc 2 566 0 is_stmt 1 discriminator 2
 3494 0128 08EB0603 		add	r3, r8, r6
 3495 012c 5FFA83F8 		uxtb	r8, r3
 3496              	.LVL472:
 3497              	.L279:
 566:main.c        **** 			for (uint8 j = 0; j <= 1; j++) {
 3498              		.loc 2 566 0 is_stmt 0 discriminator 1
 3499 0130 4745     		cmp	r7, r8
 3500 0132 F6D1     		bne	.L290
 3501              	.LBE44:
 3502              	.LBE43:
 555:main.c        **** 		int8 direction = 1*speed;
 3503              		.loc 2 555 0 is_stmt 1 discriminator 2
 3504 0134 0C9B     		ldr	r3, [sp, #48]
ARM GAS  C:\Users\Noyce\AppData\Local\Temp\ccdn8Rrk.s 			page 84


 3505 0136 0133     		adds	r3, r3, #1
 3506 0138 DBB2     		uxtb	r3, r3
 3507 013a 0C93     		str	r3, [sp, #48]
 3508              	.LVL473:
 3509              	.L277:
 555:main.c        **** 		int8 direction = 1*speed;
 3510              		.loc 2 555 0 is_stmt 0 discriminator 1
 3511 013c 0C9B     		ldr	r3, [sp, #48]
 3512 013e 0D9A     		ldr	r2, [sp, #52]
 3513 0140 9342     		cmp	r3, r2
 3514 0142 7FF667AF 		bls	.L288
 3515              	.LBE42:
 595:main.c        **** 
 3516              		.loc 2 595 0 is_stmt 1
 3517 0146 11B0     		add	sp, sp, #68
 3518              		.cfi_def_cfa_offset 36
 3519              		@ sp needed
 3520 0148 BDE8F08F 		pop	{r4, r5, r6, r7, r8, r9, r10, fp, pc}
 3521              	.LVL474:
 3522              	.L293:
 3523 014c AFF30080 		.align	3
 3524              	.L292:
 3525 0150 BABDD7D9 		.word	-640172614
 3526 0154 DF7CCBBD 		.word	-1110737697
 3527 0158 00000000 		.word	TransmitBuffer
 3528 015c B0000000 		.word	.LC12
 3529 0160 00000000 		.word	.LANCHOR0
 3530              		.cfi_endproc
 3531              	.LFE97:
 3532              		.size	Measure_Wide_Gate_Sweep, .-Measure_Wide_Gate_Sweep
 3533              		.section	.text.scan,"ax",%progbits
 3534              		.align	2
 3535              		.global	scan
 3536              		.thumb
 3537              		.thumb_func
 3538              		.type	scan, %function
 3539              	scan:
 3540              	.LFB98:
 597:main.c        **** 	for (uint8 device = 1; device <= CONTACT_COUNT/**//2; device++) {
 3541              		.loc 2 597 0
 3542              		.cfi_startproc
 3543              		@ args = 0, pretend = 0, frame = 0
 3544              		@ frame_needed = 0, uses_anonymous_args = 0
 3545              	.LVL475:
 3546 0000 2DE9F041 		push	{r4, r5, r6, r7, r8, lr}
 3547              		.cfi_def_cfa_offset 24
 3548              		.cfi_offset 4, -24
 3549              		.cfi_offset 5, -20
 3550              		.cfi_offset 6, -16
 3551              		.cfi_offset 7, -12
 3552              		.cfi_offset 8, -8
 3553              		.cfi_offset 14, -4
 3554 0004 0746     		mov	r7, r0
 3555 0006 8846     		mov	r8, r1
 3556              	.LVL476:
 3557              	.LBB48:
 598:main.c        **** 		uint8 contact1 = device;
ARM GAS  C:\Users\Noyce\AppData\Local\Temp\ccdn8Rrk.s 			page 85


 3558              		.loc 2 598 0
 3559 0008 0124     		movs	r4, #1
 3560 000a 3BE0     		b	.L295
 3561              	.LVL477:
 3562              	.L300:
 3563              	.LBB49:
 600:main.c        **** 		uint8 intermediate1 = 1;
 3564              		.loc 2 600 0
 3565 000c 661C     		adds	r6, r4, #1
 3566 000e F6B2     		uxtb	r6, r6
 3567              	.LVL478:
 604:main.c        **** 		Zero_All_DACs();
 3568              		.loc 2 604 0
 3569 0010 FFF7FEFF 		bl	Disconnect_All_Contacts_From_All_Intermediates
 3570              	.LVL479:
 605:main.c        **** 		Connect_Intermediates();
 3571              		.loc 2 605 0
 3572 0014 FFF7FEFF 		bl	Zero_All_DACs
 3573              	.LVL480:
 606:main.c        **** 		Connect_Contact_To_Intermediate(contact1, intermediate1);
 3574              		.loc 2 606 0
 3575 0018 FFF7FEFF 		bl	Connect_Intermediates
 3576              	.LVL481:
 607:main.c        **** 		Connect_Contact_To_Intermediate(contact2, intermediate2);
 3577              		.loc 2 607 0
 3578 001c 0121     		movs	r1, #1
 3579 001e 2046     		mov	r0, r4
 3580 0020 FFF7FEFF 		bl	Connect_Contact_To_Intermediate
 3581              	.LVL482:
 608:main.c        **** 		
 3582              		.loc 2 608 0
 3583 0024 0221     		movs	r1, #2
 3584 0026 3046     		mov	r0, r6
 3585 0028 FFF7FEFF 		bl	Connect_Contact_To_Intermediate
 3586              	.LVL483:
 610:main.c        **** 		USBUARTH_Send(TransmitBuffer, strlen(TransmitBuffer));
 3587              		.loc 2 610 0
 3588 002c 174D     		ldr	r5, .L302
 3589 002e 2246     		mov	r2, r4
 3590 0030 1749     		ldr	r1, .L302+4
 3591 0032 2846     		mov	r0, r5
 3592 0034 FFF7FEFF 		bl	sprintf
 3593              	.LVL484:
 611:main.c        **** 		UART_1_PutString(TransmitBuffer);
 3594              		.loc 2 611 0
 3595 0038 2846     		mov	r0, r5
 3596 003a FFF7FEFF 		bl	strlen
 3597              	.LVL485:
 3598 003e 81B2     		uxth	r1, r0
 3599 0040 2846     		mov	r0, r5
 3600 0042 FFF7FEFF 		bl	USBUARTH_Send
 3601              	.LVL486:
 612:main.c        **** 		
 3602              		.loc 2 612 0
 3603 0046 2846     		mov	r0, r5
 3604 0048 FFF7FEFF 		bl	UART_1_PutString
 3605              	.LVL487:
ARM GAS  C:\Users\Noyce\AppData\Local\Temp\ccdn8Rrk.s 			page 86


 615:main.c        **** 		
 3606              		.loc 2 615 0
 3607 004c 6FF00E00 		mvn	r0, #14
 3608 0050 FFF7FEFF 		bl	SetVds
 3609              	.LVL488:
 617:main.c        **** 			Measure_Wide_Gate_Sweep(loop);
 3610              		.loc 2 617 0
 3611 0054 1FB1     		cbz	r7, .L296
 618:main.c        **** 		} else {
 3612              		.loc 2 618 0
 3613 0056 4046     		mov	r0, r8
 3614 0058 FFF7FEFF 		bl	Measure_Wide_Gate_Sweep
 3615              	.LVL489:
 3616 005c 02E0     		b	.L297
 3617              	.L296:
 620:main.c        **** 		}
 3618              		.loc 2 620 0
 3619 005e 4046     		mov	r0, r8
 3620 0060 FFF7FEFF 		bl	Measure_Gate_Sweep
 3621              	.LVL490:
 3622              	.L297:
 623:main.c        **** 		while (G_Pause);
 3623              		.loc 2 623 0
 3624 0064 0B4B     		ldr	r3, .L302+8
 3625 0066 9B78     		ldrb	r3, [r3, #2]	@ zero_extendqisi2
 3626 0068 13F0FF0F 		tst	r3, #255
 3627 006c 0CD1     		bne	.L294
 623:main.c        **** 		while (G_Pause);
 3628              		.loc 2 623 0 is_stmt 0 discriminator 1
 3629 006e 094B     		ldr	r3, .L302+8
 3630 0070 5B78     		ldrb	r3, [r3, #1]	@ zero_extendqisi2
 3631 0072 13F0FF0F 		tst	r3, #255
 3632 0076 07D1     		bne	.L294
 3633              	.L299:
 624:main.c        **** 	}
 3634              		.loc 2 624 0 is_stmt 1 discriminator 1
 3635 0078 064B     		ldr	r3, .L302+8
 3636 007a DB78     		ldrb	r3, [r3, #3]	@ zero_extendqisi2
 3637 007c 13F0FF0F 		tst	r3, #255
 3638 0080 FAD1     		bne	.L299
 3639              	.LBE49:
 598:main.c        **** 		uint8 contact1 = device;
 3640              		.loc 2 598 0
 3641 0082 3446     		mov	r4, r6
 3642              	.LVL491:
 3643              	.L295:
 598:main.c        **** 		uint8 contact1 = device;
 3644              		.loc 2 598 0 is_stmt 0 discriminator 1
 3645 0084 202C     		cmp	r4, #32
 3646 0086 C1D9     		bls	.L300
 3647              	.L294:
 3648 0088 BDE8F081 		pop	{r4, r5, r6, r7, r8, pc}
 3649              	.LVL492:
 3650              	.L303:
 3651              		.align	2
 3652              	.L302:
 3653 008c 00000000 		.word	TransmitBuffer
ARM GAS  C:\Users\Noyce\AppData\Local\Temp\ccdn8Rrk.s 			page 87


 3654 0090 D4000000 		.word	.LC17
 3655 0094 00000000 		.word	.LANCHOR0
 3656              	.LBE48:
 3657              		.cfi_endproc
 3658              	.LFE98:
 3659              		.size	scan, .-scan
 3660              		.section	.text.Scan_Range,"ax",%progbits
 3661              		.align	2
 3662              		.global	Scan_Range
 3663              		.thumb
 3664              		.thumb_func
 3665              		.type	Scan_Range, %function
 3666              	Scan_Range:
 3667              	.LFB99:
 628:main.c        **** 	if (startDevice >= CONTACT_COUNT) return;
 3668              		.loc 2 628 0 is_stmt 1
 3669              		.cfi_startproc
 3670              		@ args = 0, pretend = 0, frame = 0
 3671              		@ frame_needed = 0, uses_anonymous_args = 0
 3672              	.LVL493:
 629:main.c        **** 	if (stopDevice >= CONTACT_COUNT) return;
 3673              		.loc 2 629 0
 3674 0000 3F28     		cmp	r0, #63
 3675 0002 4BD8     		bhi	.L312
 628:main.c        **** 	if (startDevice >= CONTACT_COUNT) return;
 3676              		.loc 2 628 0
 3677 0004 2DE9F843 		push	{r3, r4, r5, r6, r7, r8, r9, lr}
 3678              		.cfi_def_cfa_offset 32
 3679              		.cfi_offset 3, -32
 3680              		.cfi_offset 4, -28
 3681              		.cfi_offset 5, -24
 3682              		.cfi_offset 6, -20
 3683              		.cfi_offset 7, -16
 3684              		.cfi_offset 8, -12
 3685              		.cfi_offset 9, -8
 3686              		.cfi_offset 14, -4
 3687 0008 0446     		mov	r4, r0
 3688 000a 0F46     		mov	r7, r1
 3689 000c 9046     		mov	r8, r2
 3690 000e 9946     		mov	r9, r3
 630:main.c        **** 	
 3691              		.loc 2 630 0
 3692 0010 3F29     		cmp	r1, #63
 3693 0012 3FD9     		bls	.L306
 3694 0014 BDE8F883 		pop	{r3, r4, r5, r6, r7, r8, r9, pc}
 3695              	.LVL494:
 3696              	.L310:
 3697              	.LBB50:
 3698              	.LBB51:
 634:main.c        **** 		uint8 intermediate1 = 1;
 3699              		.loc 2 634 0
 3700 0018 661C     		adds	r6, r4, #1
 3701 001a F6B2     		uxtb	r6, r6
 3702              	.LVL495:
 638:main.c        **** 		Zero_All_DACs();
 3703              		.loc 2 638 0
 3704 001c FFF7FEFF 		bl	Disconnect_All_Contacts_From_All_Intermediates
ARM GAS  C:\Users\Noyce\AppData\Local\Temp\ccdn8Rrk.s 			page 88


 3705              	.LVL496:
 639:main.c        **** 		Connect_Intermediates();
 3706              		.loc 2 639 0
 3707 0020 FFF7FEFF 		bl	Zero_All_DACs
 3708              	.LVL497:
 640:main.c        **** 		Connect_Contact_To_Intermediate(contact1, intermediate1);
 3709              		.loc 2 640 0
 3710 0024 FFF7FEFF 		bl	Connect_Intermediates
 3711              	.LVL498:
 641:main.c        **** 		Connect_Contact_To_Intermediate(contact2, intermediate2);
 3712              		.loc 2 641 0
 3713 0028 0121     		movs	r1, #1
 3714 002a 2046     		mov	r0, r4
 3715 002c FFF7FEFF 		bl	Connect_Contact_To_Intermediate
 3716              	.LVL499:
 642:main.c        **** 		
 3717              		.loc 2 642 0
 3718 0030 0221     		movs	r1, #2
 3719 0032 3046     		mov	r0, r6
 3720 0034 FFF7FEFF 		bl	Connect_Contact_To_Intermediate
 3721              	.LVL500:
 644:main.c        **** 		USBUARTH_Send(TransmitBuffer, strlen(TransmitBuffer));
 3722              		.loc 2 644 0
 3723 0038 194D     		ldr	r5, .L313
 3724 003a 2246     		mov	r2, r4
 3725 003c 1949     		ldr	r1, .L313+4
 3726 003e 2846     		mov	r0, r5
 3727 0040 FFF7FEFF 		bl	sprintf
 3728              	.LVL501:
 645:main.c        **** 		UART_1_PutString(TransmitBuffer);
 3729              		.loc 2 645 0
 3730 0044 2846     		mov	r0, r5
 3731 0046 FFF7FEFF 		bl	strlen
 3732              	.LVL502:
 3733 004a 81B2     		uxth	r1, r0
 3734 004c 2846     		mov	r0, r5
 3735 004e FFF7FEFF 		bl	USBUARTH_Send
 3736              	.LVL503:
 646:main.c        **** 		
 3737              		.loc 2 646 0
 3738 0052 2846     		mov	r0, r5
 3739 0054 FFF7FEFF 		bl	UART_1_PutString
 3740              	.LVL504:
 650:main.c        **** 		
 3741              		.loc 2 650 0
 3742 0058 6FF03E00 		mvn	r0, #62
 3743 005c FFF7FEFF 		bl	SetVds
 3744              	.LVL505:
 652:main.c        **** 			Measure_Wide_Gate_Sweep(loop);
 3745              		.loc 2 652 0
 3746 0060 B8F1000F 		cmp	r8, #0
 3747 0064 03D0     		beq	.L307
 653:main.c        **** 		} else {
 3748              		.loc 2 653 0
 3749 0066 4846     		mov	r0, r9
 3750 0068 FFF7FEFF 		bl	Measure_Wide_Gate_Sweep
 3751              	.LVL506:
ARM GAS  C:\Users\Noyce\AppData\Local\Temp\ccdn8Rrk.s 			page 89


 3752 006c 02E0     		b	.L308
 3753              	.L307:
 655:main.c        **** 		}
 3754              		.loc 2 655 0
 3755 006e 4846     		mov	r0, r9
 3756 0070 FFF7FEFF 		bl	Measure_Gate_Sweep
 3757              	.LVL507:
 3758              	.L308:
 658:main.c        **** 		while (G_Pause);
 3759              		.loc 2 658 0
 3760 0074 0C4B     		ldr	r3, .L313+8
 3761 0076 9B78     		ldrb	r3, [r3, #2]	@ zero_extendqisi2
 3762 0078 13F0FF0F 		tst	r3, #255
 3763 007c 0CD1     		bne	.L304
 658:main.c        **** 		while (G_Pause);
 3764              		.loc 2 658 0 is_stmt 0 discriminator 1
 3765 007e 0A4B     		ldr	r3, .L313+8
 3766 0080 5B78     		ldrb	r3, [r3, #1]	@ zero_extendqisi2
 3767 0082 13F0FF0F 		tst	r3, #255
 3768 0086 07D1     		bne	.L304
 3769              	.L309:
 659:main.c        **** 	}
 3770              		.loc 2 659 0 is_stmt 1 discriminator 1
 3771 0088 074B     		ldr	r3, .L313+8
 3772 008a DB78     		ldrb	r3, [r3, #3]	@ zero_extendqisi2
 3773 008c 13F0FF0F 		tst	r3, #255
 3774 0090 FAD1     		bne	.L309
 3775              	.LBE51:
 632:main.c        **** 		uint8 contact1 = device;
 3776              		.loc 2 632 0
 3777 0092 3446     		mov	r4, r6
 3778              	.LVL508:
 3779              	.L306:
 632:main.c        **** 		uint8 contact1 = device;
 3780              		.loc 2 632 0 is_stmt 0 discriminator 1
 3781 0094 BC42     		cmp	r4, r7
 3782 0096 BFD9     		bls	.L310
 3783              	.L304:
 3784 0098 BDE8F883 		pop	{r3, r4, r5, r6, r7, r8, r9, pc}
 3785              	.LVL509:
 3786              	.L312:
 3787              		.cfi_def_cfa_offset 0
 3788              		.cfi_restore 3
 3789              		.cfi_restore 4
 3790              		.cfi_restore 5
 3791              		.cfi_restore 6
 3792              		.cfi_restore 7
 3793              		.cfi_restore 8
 3794              		.cfi_restore 9
 3795              		.cfi_restore 14
 3796 009c 7047     		bx	lr
 3797              	.L314:
 3798 009e 00BF     		.align	2
 3799              	.L313:
 3800 00a0 00000000 		.word	TransmitBuffer
 3801 00a4 D4000000 		.word	.LC17
 3802 00a8 00000000 		.word	.LANCHOR0
ARM GAS  C:\Users\Noyce\AppData\Local\Temp\ccdn8Rrk.s 			page 90


 3803              	.LBE50:
 3804              		.cfi_endproc
 3805              	.LFE99:
 3806              		.size	Scan_Range, .-Scan_Range
 3807              		.section	.text.main,"ax",%progbits
 3808              		.align	2
 3809              		.global	main
 3810              		.thumb
 3811              		.thumb_func
 3812              		.type	main, %function
 3813              	main:
 3814              	.LFB101:
 732:main.c        **** 
 733:main.c        **** int main(void) {
 3815              		.loc 2 733 0 is_stmt 1
 3816              		.cfi_startproc
 3817              		@ args = 0, pretend = 0, frame = 8
 3818              		@ frame_needed = 0, uses_anonymous_args = 0
 3819 0000 F0B5     		push	{r4, r5, r6, r7, lr}
 3820              		.cfi_def_cfa_offset 20
 3821              		.cfi_offset 4, -20
 3822              		.cfi_offset 5, -16
 3823              		.cfi_offset 6, -12
 3824              		.cfi_offset 7, -8
 3825              		.cfi_offset 14, -4
 3826 0002 83B0     		sub	sp, sp, #12
 3827              		.cfi_def_cfa_offset 32
 734:main.c        **** 	CyGlobalIntEnable;
 3828              		.loc 2 734 0
 3829              		.syntax unified
 3830              	@ 734 "main.c" 1
 3831 0004 62B6     		CPSIE   i
 3832              	@ 0 "" 2
 735:main.c        **** 	
 736:main.c        **** 	Setup_Selectors();
 3833              		.loc 2 736 0
 3834              		.thumb
 3835              		.syntax unified
 3836 0006 FFF7FEFF 		bl	Setup_Selectors
 3837              	.LVL510:
 737:main.c        **** 	
 738:main.c        **** 	USBUART_Start(0u, USBUART_5V_OPERATION);
 3838              		.loc 2 738 0
 3839 000a 0121     		movs	r1, #1
 3840 000c 0020     		movs	r0, #0
 3841 000e FFF7FEFF 		bl	USBUART_Start
 3842              	.LVL511:
 739:main.c        **** 	UART_1_Start();
 3843              		.loc 2 739 0
 3844 0012 FFF7FEFF 		bl	UART_1_Start
 3845              	.LVL512:
 740:main.c        **** 	VDAC_Vds_Start();
 3846              		.loc 2 740 0
 3847 0016 FFF7FEFF 		bl	VDAC_Vds_Start
 3848              	.LVL513:
 741:main.c        **** 	VDAC_Vgs_Start();
 3849              		.loc 2 741 0
ARM GAS  C:\Users\Noyce\AppData\Local\Temp\ccdn8Rrk.s 			page 91


 3850 001a FFF7FEFF 		bl	VDAC_Vgs_Start
 3851              	.LVL514:
 742:main.c        **** 	VDAC_Ref_Start();
 3852              		.loc 2 742 0
 3853 001e FFF7FEFF 		bl	VDAC_Ref_Start
 3854              	.LVL515:
 743:main.c        **** 	ADC_DelSig_1_Start();
 3855              		.loc 2 743 0
 3856 0022 FFF7FEFF 		bl	ADC_DelSig_1_Start
 3857              	.LVL516:
 744:main.c        **** 	TIA_1_Start();
 3858              		.loc 2 744 0
 3859 0026 FFF7FEFF 		bl	TIA_1_Start
 3860              	.LVL517:
 745:main.c        **** 	I2C_1_Start();
 3861              		.loc 2 745 0
 3862 002a FFF7FEFF 		bl	I2C_1_Start
 3863              	.LVL518:
 746:main.c        **** 	ADC_SAR_1_Start();
 3864              		.loc 2 746 0
 3865 002e FFF7FEFF 		bl	ADC_SAR_1_Start
 3866              	.LVL519:
 747:main.c        **** 	ADC_SAR_2_Start();
 3867              		.loc 2 747 0
 3868 0032 FFF7FEFF 		bl	ADC_SAR_2_Start
 3869              	.LVL520:
 748:main.c        **** 	
 749:main.c        **** 	CyDelay(1000);
 3870              		.loc 2 749 0
 3871 0036 4FF47A70 		mov	r0, #1000
 3872 003a FFF7FEFF 		bl	CyDelay
 3873              	.LVL521:
 750:main.c        **** 	
 751:main.c        **** 	UART_1_PutString("\r\nStarting\r\n");
 3874              		.loc 2 751 0
 3875 003e A348     		ldr	r0, .L342
 3876 0040 FFF7FEFF 		bl	UART_1_PutString
 3877              	.LVL522:
 752:main.c        **** 	
 753:main.c        **** 	Connect_Intermediates();
 3878              		.loc 2 753 0
 3879 0044 FFF7FEFF 		bl	Connect_Intermediates
 3880              	.LVL523:
 754:main.c        **** 	
 755:main.c        **** 	newData = 0;
 3881              		.loc 2 755 0
 3882 0048 0023     		movs	r3, #0
 3883 004a A14A     		ldr	r2, .L342+4
 3884 004c 1370     		strb	r3, [r2]
 756:main.c        **** 	UART_Rx_Position = 0;
 3885              		.loc 2 756 0
 3886 004e A14A     		ldr	r2, .L342+8
 3887 0050 1370     		strb	r3, [r2]
 757:main.c        **** 	USBUART_Rx_Position = 0;
 3888              		.loc 2 757 0
 3889 0052 A14A     		ldr	r2, .L342+12
 3890 0054 1370     		strb	r3, [r2]
ARM GAS  C:\Users\Noyce\AppData\Local\Temp\ccdn8Rrk.s 			page 92


 758:main.c        **** 	
 759:main.c        **** 	CommunicationTimer_Start();
 3891              		.loc 2 759 0
 3892 0056 FFF7FEFF 		bl	CommunicationTimer_Start
 3893              	.LVL524:
 760:main.c        **** 	CommunicationInterrupt_StartEx(CommunicationHandlerISR);
 3894              		.loc 2 760 0
 3895 005a A048     		ldr	r0, .L342+16
 3896 005c FFF7FEFF 		bl	CommunicationInterrupt_StartEx
 3897              	.LVL525:
 3898              	.L317:
 761:main.c        **** 	
 762:main.c        **** 	while (1) {
 763:main.c        **** 		G_Stop = 0;
 3899              		.loc 2 763 0
 3900 0060 9B4B     		ldr	r3, .L342+4
 3901 0062 0022     		movs	r2, #0
 3902 0064 5A70     		strb	r2, [r3, #1]
 764:main.c        **** 		G_Break = 0;
 3903              		.loc 2 764 0
 3904 0066 9A70     		strb	r2, [r3, #2]
 765:main.c        **** 		
 766:main.c        **** 		if (newData) {
 3905              		.loc 2 766 0
 3906 0068 1B78     		ldrb	r3, [r3]	@ zero_extendqisi2
 3907 006a 13F0FF0F 		tst	r3, #255
 3908 006e F7D0     		beq	.L317
 3909              	.LVL526:
 3910              	.LBB52:
 767:main.c        **** 			char* ReceiveBuffer = &USBUART_Receive_Buffer[0];
 768:main.c        **** 			if (newData == 2) ReceiveBuffer = &UART_Receive_Buffer[0];
 3911              		.loc 2 768 0
 3912 0070 974B     		ldr	r3, .L342+4
 3913 0072 1B78     		ldrb	r3, [r3]	@ zero_extendqisi2
 3914 0074 DBB2     		uxtb	r3, r3
 3915 0076 022B     		cmp	r3, #2
 3916 0078 01D0     		beq	.L340
 767:main.c        **** 			char* ReceiveBuffer = &USBUART_Receive_Buffer[0];
 3917              		.loc 2 767 0
 3918 007a 994C     		ldr	r4, .L342+20
 3919 007c 00E0     		b	.L318
 3920              	.L340:
 3921              		.loc 2 768 0
 3922 007e 994C     		ldr	r4, .L342+24
 3923              	.L318:
 3924              	.LVL527:
 769:main.c        **** 			
 770:main.c        **** 			newData = 0;
 3925              		.loc 2 770 0
 3926 0080 0022     		movs	r2, #0
 3927 0082 934B     		ldr	r3, .L342+4
 3928 0084 1A70     		strb	r2, [r3]
 771:main.c        **** 			
 772:main.c        **** 			if (strstr(ReceiveBuffer, "measure ") == &ReceiveBuffer[0]) {
 3929              		.loc 2 772 0
 3930 0086 9849     		ldr	r1, .L342+28
 3931 0088 2046     		mov	r0, r4
ARM GAS  C:\Users\Noyce\AppData\Local\Temp\ccdn8Rrk.s 			page 93


 3932 008a FFF7FEFF 		bl	strstr
 3933              	.LVL528:
 3934 008e 8442     		cmp	r4, r0
 3935 0090 02D1     		bne	.L319
 773:main.c        **** 				measure();
 3936              		.loc 2 773 0
 3937 0092 FFF7FEFF 		bl	measure
 3938              	.LVL529:
 3939 0096 E3E7     		b	.L317
 3940              	.L319:
 774:main.c        **** 			} else 
 775:main.c        **** 			if (strstr(ReceiveBuffer, "measure-sweep ") == &ReceiveBuffer[0]) {
 3941              		.loc 2 775 0
 3942 0098 9449     		ldr	r1, .L342+32
 3943 009a 2046     		mov	r0, r4
 3944 009c FFF7FEFF 		bl	strstr
 3945              	.LVL530:
 3946 00a0 8442     		cmp	r4, r0
 3947 00a2 02D1     		bne	.L321
 776:main.c        **** 				Measure_Sweep();
 3948              		.loc 2 776 0
 3949 00a4 FFF7FEFF 		bl	Measure_Sweep
 3950              	.LVL531:
 3951 00a8 DAE7     		b	.L317
 3952              	.L321:
 777:main.c        **** 			} else 
 778:main.c        **** 			if (strstr(ReceiveBuffer, "set-vgs-raw ") == &ReceiveBuffer[0]) {
 3953              		.loc 2 778 0
 3954 00aa 9149     		ldr	r1, .L342+36
 3955 00ac 2046     		mov	r0, r4
 3956 00ae FFF7FEFF 		bl	strstr
 3957              	.LVL532:
 3958 00b2 8442     		cmp	r4, r0
 3959 00b4 0DD1     		bne	.L322
 3960              	.LBB53:
 779:main.c        **** 				char* location = strstr(ReceiveBuffer, " ");
 3961              		.loc 2 779 0
 3962 00b6 2021     		movs	r1, #32
 3963 00b8 2046     		mov	r0, r4
 3964 00ba FFF7FEFF 		bl	strchr
 3965              	.LVL533:
 3966 00be 02A9     		add	r1, sp, #8
 3967 00c0 41F8040D 		str	r0, [r1, #-4]!
 780:main.c        **** 				uint8 vgsi = strtol(location, &location, 10);
 3968              		.loc 2 780 0
 3969 00c4 0A22     		movs	r2, #10
 3970 00c6 FFF7FEFF 		bl	strtol
 3971              	.LVL534:
 781:main.c        **** 				
 782:main.c        **** 				SetVgsRaw(vgsi);
 3972              		.loc 2 782 0
 3973 00ca C0B2     		uxtb	r0, r0
 3974 00cc FFF7FEFF 		bl	SetVgsRaw
 3975              	.LVL535:
 3976              	.LBE53:
 3977 00d0 C6E7     		b	.L317
 3978              	.L322:
ARM GAS  C:\Users\Noyce\AppData\Local\Temp\ccdn8Rrk.s 			page 94


 783:main.c        **** 			} else 
 784:main.c        **** 			if (strstr(ReceiveBuffer, "set-vds-raw ") == &ReceiveBuffer[0]) {
 3979              		.loc 2 784 0
 3980 00d2 8849     		ldr	r1, .L342+40
 3981 00d4 2046     		mov	r0, r4
 3982 00d6 FFF7FEFF 		bl	strstr
 3983              	.LVL536:
 3984 00da 8442     		cmp	r4, r0
 3985 00dc 0DD1     		bne	.L323
 3986              	.LBB54:
 785:main.c        **** 				char* location = strstr(ReceiveBuffer, " ");
 3987              		.loc 2 785 0 discriminator 2
 3988 00de 2021     		movs	r1, #32
 3989 00e0 2046     		mov	r0, r4
 3990 00e2 FFF7FEFF 		bl	strchr
 3991              	.LVL537:
 3992 00e6 02A9     		add	r1, sp, #8
 3993 00e8 41F8040D 		str	r0, [r1, #-4]!
 786:main.c        **** 				uint8 vdsi = strtol(location, &location, 10);
 3994              		.loc 2 786 0 discriminator 2
 3995 00ec 0A22     		movs	r2, #10
 3996 00ee FFF7FEFF 		bl	strtol
 3997              	.LVL538:
 787:main.c        **** 				
 788:main.c        **** 				SetVgsRaw(vdsi);
 3998              		.loc 2 788 0 discriminator 2
 3999 00f2 C0B2     		uxtb	r0, r0
 4000 00f4 FFF7FEFF 		bl	SetVgsRaw
 4001              	.LVL539:
 4002              	.LBE54:
 4003 00f8 B2E7     		b	.L317
 4004              	.L323:
 789:main.c        **** 			} else 
 790:main.c        **** 			if (strstr(ReceiveBuffer, "set-vgs-rel ") == &ReceiveBuffer[0]) {
 4005              		.loc 2 790 0
 4006 00fa 7F49     		ldr	r1, .L342+44
 4007 00fc 2046     		mov	r0, r4
 4008 00fe FFF7FEFF 		bl	strstr
 4009              	.LVL540:
 4010 0102 8442     		cmp	r4, r0
 4011 0104 0DD1     		bne	.L324
 4012              	.LBB55:
 791:main.c        **** 				char* location = strstr(ReceiveBuffer, " ");
 4013              		.loc 2 791 0 discriminator 3
 4014 0106 2021     		movs	r1, #32
 4015 0108 2046     		mov	r0, r4
 4016 010a FFF7FEFF 		bl	strchr
 4017              	.LVL541:
 4018 010e 02A9     		add	r1, sp, #8
 4019 0110 41F8040D 		str	r0, [r1, #-4]!
 792:main.c        **** 				int8 vgsi = strtol(location, &location, 10);
 4020              		.loc 2 792 0 discriminator 3
 4021 0114 0A22     		movs	r2, #10
 4022 0116 FFF7FEFF 		bl	strtol
 4023              	.LVL542:
 793:main.c        **** 				
 794:main.c        **** 				SetVgs(vgsi);
ARM GAS  C:\Users\Noyce\AppData\Local\Temp\ccdn8Rrk.s 			page 95


 4024              		.loc 2 794 0 discriminator 3
 4025 011a 40B2     		sxtb	r0, r0
 4026 011c FFF7FEFF 		bl	SetVgs
 4027              	.LVL543:
 4028              	.LBE55:
 4029 0120 9EE7     		b	.L317
 4030              	.L324:
 795:main.c        **** 			} else 
 796:main.c        **** 			if (strstr(ReceiveBuffer, "set-vds-rel ") == &ReceiveBuffer[0]) {
 4031              		.loc 2 796 0
 4032 0122 7649     		ldr	r1, .L342+48
 4033 0124 2046     		mov	r0, r4
 4034 0126 FFF7FEFF 		bl	strstr
 4035              	.LVL544:
 4036 012a 8442     		cmp	r4, r0
 4037 012c 0DD1     		bne	.L325
 4038              	.LBB56:
 797:main.c        **** 				char* location = strstr(ReceiveBuffer, " ");
 4039              		.loc 2 797 0 discriminator 4
 4040 012e 2021     		movs	r1, #32
 4041 0130 2046     		mov	r0, r4
 4042 0132 FFF7FEFF 		bl	strchr
 4043              	.LVL545:
 4044 0136 02A9     		add	r1, sp, #8
 4045 0138 41F8040D 		str	r0, [r1, #-4]!
 798:main.c        **** 				int8 vdsi = strtol(location, &location, 10);
 4046              		.loc 2 798 0 discriminator 4
 4047 013c 0A22     		movs	r2, #10
 4048 013e FFF7FEFF 		bl	strtol
 4049              	.LVL546:
 799:main.c        **** 				
 800:main.c        **** 				SetVgs(vdsi);
 4050              		.loc 2 800 0 discriminator 4
 4051 0142 40B2     		sxtb	r0, r0
 4052 0144 FFF7FEFF 		bl	SetVgs
 4053              	.LVL547:
 4054              	.LBE56:
 4055 0148 8AE7     		b	.L317
 4056              	.L325:
 801:main.c        **** 			} else 
 802:main.c        **** 			// if (strstr(ReceiveBuffer, "set-vgs ") == &ReceiveBuffer[0]) {
 803:main.c        **** 			// 	char* location = strstr(ReceiveBuffer, " ");
 804:main.c        **** 			// 	float vgs = 0;
 805:main.c        **** 			// 	int8 success = sscanf(location, "%f", &vgs);
 806:main.c        **** 			// 	int8 vgsi = 
 807:main.c        **** 				
 808:main.c        **** 			// 	SetVgs(vgsi);
 809:main.c        **** 			// } else 
 810:main.c        **** 			// if (strstr(ReceiveBuffer, "set-vds ") == &ReceiveBuffer[0]) {
 811:main.c        **** 			// 	char* location = strstr(ReceiveBuffer, " ");
 812:main.c        **** 			// 	float vds = 0;
 813:main.c        **** 			// 	int8 vdsi = strtol(location, &location, 10);
 814:main.c        **** 				
 815:main.c        **** 			// 	SetVgs(vdsi);
 816:main.c        **** 			// } else 
 817:main.c        **** 			if (strstr(ReceiveBuffer, "scan ") == &ReceiveBuffer[0]) {
 4057              		.loc 2 817 0
ARM GAS  C:\Users\Noyce\AppData\Local\Temp\ccdn8Rrk.s 			page 96


 4058 014a 6D49     		ldr	r1, .L342+52
 4059 014c 2046     		mov	r0, r4
 4060 014e FFF7FEFF 		bl	strstr
 4061              	.LVL548:
 4062 0152 8442     		cmp	r4, r0
 4063 0154 29D1     		bne	.L326
 818:main.c        **** 				sprintf(TransmitBuffer, "\r\nScan Starting\r\n");
 4064              		.loc 2 818 0
 4065 0156 6B4C     		ldr	r4, .L342+56
 4066              	.LVL549:
 4067 0158 6B4D     		ldr	r5, .L342+60
 4068 015a 0FCD     		ldmia	r5!, {r0, r1, r2, r3}
 4069 015c 2060     		str	r0, [r4]	@ unaligned
 4070 015e 6160     		str	r1, [r4, #4]	@ unaligned
 4071 0160 A260     		str	r2, [r4, #8]	@ unaligned
 4072 0162 E360     		str	r3, [r4, #12]	@ unaligned
 4073 0164 2B88     		ldrh	r3, [r5]	@ unaligned
 4074 0166 2382     		strh	r3, [r4, #16]	@ unaligned
 819:main.c        **** 				USBUARTH_Send(TransmitBuffer, strlen(TransmitBuffer));
 4075              		.loc 2 819 0
 4076 0168 2046     		mov	r0, r4
 4077 016a FFF7FEFF 		bl	strlen
 4078              	.LVL550:
 4079 016e 81B2     		uxth	r1, r0
 4080 0170 2046     		mov	r0, r4
 4081 0172 FFF7FEFF 		bl	USBUARTH_Send
 4082              	.LVL551:
 820:main.c        **** 				UART_1_PutString(TransmitBuffer);
 4083              		.loc 2 820 0
 4084 0176 2046     		mov	r0, r4
 4085 0178 FFF7FEFF 		bl	UART_1_PutString
 4086              	.LVL552:
 821:main.c        **** 				
 822:main.c        **** 				scan(0, 0);
 4087              		.loc 2 822 0
 4088 017c 0021     		movs	r1, #0
 4089 017e 0846     		mov	r0, r1
 4090 0180 FFF7FEFF 		bl	scan
 4091              	.LVL553:
 823:main.c        **** 				
 824:main.c        **** 				sprintf(TransmitBuffer, "\r\nScan Complete\r\n");
 4092              		.loc 2 824 0
 4093 0184 614D     		ldr	r5, .L342+64
 4094 0186 0FCD     		ldmia	r5!, {r0, r1, r2, r3}
 4095 0188 2060     		str	r0, [r4]	@ unaligned
 4096 018a 6160     		str	r1, [r4, #4]	@ unaligned
 4097 018c A260     		str	r2, [r4, #8]	@ unaligned
 4098 018e E360     		str	r3, [r4, #12]	@ unaligned
 4099 0190 2B88     		ldrh	r3, [r5]	@ unaligned
 4100 0192 2382     		strh	r3, [r4, #16]	@ unaligned
 825:main.c        **** 				USBUARTH_Send(TransmitBuffer, strlen(TransmitBuffer));
 4101              		.loc 2 825 0
 4102 0194 2046     		mov	r0, r4
 4103 0196 FFF7FEFF 		bl	strlen
 4104              	.LVL554:
 4105 019a 81B2     		uxth	r1, r0
 4106 019c 2046     		mov	r0, r4
ARM GAS  C:\Users\Noyce\AppData\Local\Temp\ccdn8Rrk.s 			page 97


 4107 019e FFF7FEFF 		bl	USBUARTH_Send
 4108              	.LVL555:
 826:main.c        **** 				UART_1_PutString(TransmitBuffer);
 4109              		.loc 2 826 0
 4110 01a2 2046     		mov	r0, r4
 4111 01a4 FFF7FEFF 		bl	UART_1_PutString
 4112              	.LVL556:
 4113 01a8 5AE7     		b	.L317
 4114              	.LVL557:
 4115              	.L326:
 827:main.c        **** 			} else 
 828:main.c        **** 			if (strstr(ReceiveBuffer, "scan-range ") == &ReceiveBuffer[0]) {
 4116              		.loc 2 828 0
 4117 01aa 5949     		ldr	r1, .L342+68
 4118 01ac 2046     		mov	r0, r4
 4119 01ae FFF7FEFF 		bl	strstr
 4120              	.LVL558:
 4121 01b2 8442     		cmp	r4, r0
 4122 01b4 3ED1     		bne	.L327
 4123              	.LBB57:
 829:main.c        **** 				sprintf(TransmitBuffer, "\r\nScan-Range Starting\r\n");
 4124              		.loc 2 829 0 discriminator 5
 4125 01b6 534D     		ldr	r5, .L342+56
 4126 01b8 564E     		ldr	r6, .L342+72
 4127 01ba 0FCE     		ldmia	r6!, {r0, r1, r2, r3}
 4128 01bc 2860     		str	r0, [r5]	@ unaligned
 4129 01be 6960     		str	r1, [r5, #4]	@ unaligned
 4130 01c0 AA60     		str	r2, [r5, #8]	@ unaligned
 4131 01c2 EB60     		str	r3, [r5, #12]	@ unaligned
 4132 01c4 03CE     		ldmia	r6!, {r0, r1}
 4133 01c6 2861     		str	r0, [r5, #16]	@ unaligned
 4134 01c8 6961     		str	r1, [r5, #20]	@ unaligned
 830:main.c        **** 				USBUARTH_Send(TransmitBuffer, strlen(TransmitBuffer));
 4135              		.loc 2 830 0 discriminator 5
 4136 01ca 2846     		mov	r0, r5
 4137 01cc FFF7FEFF 		bl	strlen
 4138              	.LVL559:
 4139 01d0 81B2     		uxth	r1, r0
 4140 01d2 2846     		mov	r0, r5
 4141 01d4 FFF7FEFF 		bl	USBUARTH_Send
 4142              	.LVL560:
 831:main.c        **** 				UART_1_PutString(TransmitBuffer);
 4143              		.loc 2 831 0 discriminator 5
 4144 01d8 2846     		mov	r0, r5
 4145 01da FFF7FEFF 		bl	UART_1_PutString
 4146              	.LVL561:
 832:main.c        **** 				
 833:main.c        **** 				char* location = strstr(ReceiveBuffer, " ");
 4147              		.loc 2 833 0 discriminator 5
 4148 01de 2021     		movs	r1, #32
 4149 01e0 2046     		mov	r0, r4
 4150 01e2 FFF7FEFF 		bl	strchr
 4151              	.LVL562:
 4152 01e6 02AC     		add	r4, sp, #8
 4153              	.LVL563:
 4154 01e8 44F8040D 		str	r0, [r4, #-4]!
 834:main.c        **** 				uint8 startDevice = strtol(location, &location, 10);
ARM GAS  C:\Users\Noyce\AppData\Local\Temp\ccdn8Rrk.s 			page 98


 4155              		.loc 2 834 0 discriminator 5
 4156 01ec 0A22     		movs	r2, #10
 4157 01ee 2146     		mov	r1, r4
 4158 01f0 FFF7FEFF 		bl	strtol
 4159              	.LVL564:
 4160 01f4 C6B2     		uxtb	r6, r0
 4161              	.LVL565:
 835:main.c        **** 				uint8 stopDevice = strtol(location, &location, 10);
 4162              		.loc 2 835 0 discriminator 5
 4163 01f6 0A22     		movs	r2, #10
 4164 01f8 2146     		mov	r1, r4
 4165 01fa 0198     		ldr	r0, [sp, #4]
 4166 01fc FFF7FEFF 		bl	strtol
 4167              	.LVL566:
 836:main.c        **** 				Scan_Range(startDevice, stopDevice, 0, 0);
 4168              		.loc 2 836 0 discriminator 5
 4169 0200 0023     		movs	r3, #0
 4170 0202 1A46     		mov	r2, r3
 4171 0204 C1B2     		uxtb	r1, r0
 4172 0206 3046     		mov	r0, r6
 4173              	.LVL567:
 4174 0208 FFF7FEFF 		bl	Scan_Range
 4175              	.LVL568:
 837:main.c        **** 				
 838:main.c        **** 				sprintf(TransmitBuffer, "\r\nScan Range Complete\r\n");
 4176              		.loc 2 838 0 discriminator 5
 4177 020c 424C     		ldr	r4, .L342+76
 4178 020e 0FCC     		ldmia	r4!, {r0, r1, r2, r3}
 4179 0210 2860     		str	r0, [r5]	@ unaligned
 4180 0212 6960     		str	r1, [r5, #4]	@ unaligned
 4181 0214 AA60     		str	r2, [r5, #8]	@ unaligned
 4182 0216 EB60     		str	r3, [r5, #12]	@ unaligned
 4183 0218 03CC     		ldmia	r4!, {r0, r1}
 4184 021a 2861     		str	r0, [r5, #16]	@ unaligned
 4185 021c 6961     		str	r1, [r5, #20]	@ unaligned
 839:main.c        **** 				USBUARTH_Send(TransmitBuffer, strlen(TransmitBuffer));
 4186              		.loc 2 839 0 discriminator 5
 4187 021e 2846     		mov	r0, r5
 4188 0220 FFF7FEFF 		bl	strlen
 4189              	.LVL569:
 4190 0224 81B2     		uxth	r1, r0
 4191 0226 2846     		mov	r0, r5
 4192 0228 FFF7FEFF 		bl	USBUARTH_Send
 4193              	.LVL570:
 840:main.c        **** 				UART_1_PutString(TransmitBuffer);
 4194              		.loc 2 840 0 discriminator 5
 4195 022c 2846     		mov	r0, r5
 4196 022e FFF7FEFF 		bl	UART_1_PutString
 4197              	.LVL571:
 4198              	.LBE57:
 4199 0232 15E7     		b	.L317
 4200              	.LVL572:
 4201              	.L327:
 841:main.c        **** 			} else 
 842:main.c        **** 			if (strstr(ReceiveBuffer, "scan-range-loop ") == &ReceiveBuffer[0]) {
 4202              		.loc 2 842 0
 4203 0234 3949     		ldr	r1, .L342+80
ARM GAS  C:\Users\Noyce\AppData\Local\Temp\ccdn8Rrk.s 			page 99


 4204 0236 2046     		mov	r0, r4
 4205 0238 FFF7FEFF 		bl	strstr
 4206              	.LVL573:
 4207 023c 8442     		cmp	r4, r0
 4208 023e 73D1     		bne	.L328
 4209              	.LBB58:
 843:main.c        **** 				sprintf(TransmitBuffer, "\r\nScan-Range-Loop Starting\r\n");
 4210              		.loc 2 843 0 discriminator 6
 4211 0240 304D     		ldr	r5, .L342+56
 4212 0242 374E     		ldr	r6, .L342+84
 4213 0244 0FCE     		ldmia	r6!, {r0, r1, r2, r3}
 4214 0246 2860     		str	r0, [r5]	@ unaligned
 4215 0248 6960     		str	r1, [r5, #4]	@ unaligned
 4216 024a AA60     		str	r2, [r5, #8]	@ unaligned
 4217 024c EB60     		str	r3, [r5, #12]	@ unaligned
 4218 024e 07CE     		ldmia	r6!, {r0, r1, r2}
 4219 0250 2861     		str	r0, [r5, #16]	@ unaligned
 4220 0252 6961     		str	r1, [r5, #20]	@ unaligned
 4221 0254 AA61     		str	r2, [r5, #24]	@ unaligned
 4222 0256 3378     		ldrb	r3, [r6]	@ zero_extendqisi2
 4223 0258 2B77     		strb	r3, [r5, #28]
 844:main.c        **** 				USBUARTH_Send(TransmitBuffer, strlen(TransmitBuffer));
 4224              		.loc 2 844 0 discriminator 6
 4225 025a 2846     		mov	r0, r5
 4226 025c FFF7FEFF 		bl	strlen
 4227              	.LVL574:
 4228 0260 81B2     		uxth	r1, r0
 4229 0262 2846     		mov	r0, r5
 4230 0264 FFF7FEFF 		bl	USBUARTH_Send
 4231              	.LVL575:
 845:main.c        **** 				UART_1_PutString(TransmitBuffer);
 4232              		.loc 2 845 0 discriminator 6
 4233 0268 2846     		mov	r0, r5
 4234 026a FFF7FEFF 		bl	UART_1_PutString
 4235              	.LVL576:
 846:main.c        **** 				
 847:main.c        **** 				char* location = strstr(ReceiveBuffer, " ");
 4236              		.loc 2 847 0 discriminator 6
 4237 026e 2021     		movs	r1, #32
 4238 0270 2046     		mov	r0, r4
 4239 0272 FFF7FEFF 		bl	strchr
 4240              	.LVL577:
 4241 0276 02AC     		add	r4, sp, #8
 4242              	.LVL578:
 4243 0278 44F8040D 		str	r0, [r4, #-4]!
 848:main.c        **** 				uint8 startDevice = strtol(location, &location, 10);
 4244              		.loc 2 848 0 discriminator 6
 4245 027c 0A22     		movs	r2, #10
 4246 027e 2146     		mov	r1, r4
 4247 0280 FFF7FEFF 		bl	strtol
 4248              	.LVL579:
 4249 0284 C6B2     		uxtb	r6, r0
 4250              	.LVL580:
 849:main.c        **** 				uint8 stopDevice = strtol(location, &location, 10);
 4251              		.loc 2 849 0 discriminator 6
 4252 0286 0A22     		movs	r2, #10
 4253 0288 2146     		mov	r1, r4
ARM GAS  C:\Users\Noyce\AppData\Local\Temp\ccdn8Rrk.s 			page 100


 4254 028a 0198     		ldr	r0, [sp, #4]
 4255 028c FFF7FEFF 		bl	strtol
 4256              	.LVL581:
 850:main.c        **** 				Scan_Range(startDevice, stopDevice, 0, 1);
 4257              		.loc 2 850 0 discriminator 6
 4258 0290 0123     		movs	r3, #1
 4259 0292 0022     		movs	r2, #0
 4260 0294 C1B2     		uxtb	r1, r0
 4261 0296 3046     		mov	r0, r6
 4262              	.LVL582:
 4263 0298 FFF7FEFF 		bl	Scan_Range
 4264              	.LVL583:
 851:main.c        **** 				
 852:main.c        **** 				sprintf(TransmitBuffer, "\r\nScan Range Loop Complete\r\n");
 4265              		.loc 2 852 0 discriminator 6
 4266 029c 214C     		ldr	r4, .L342+88
 4267 029e 0FCC     		ldmia	r4!, {r0, r1, r2, r3}
 4268 02a0 2860     		str	r0, [r5]	@ unaligned
 4269 02a2 6960     		str	r1, [r5, #4]	@ unaligned
 4270 02a4 AA60     		str	r2, [r5, #8]	@ unaligned
 4271 02a6 EB60     		str	r3, [r5, #12]	@ unaligned
 4272 02a8 07CC     		ldmia	r4!, {r0, r1, r2}
 4273 02aa 2861     		str	r0, [r5, #16]	@ unaligned
 4274 02ac 6961     		str	r1, [r5, #20]	@ unaligned
 4275 02ae AA61     		str	r2, [r5, #24]	@ unaligned
 4276 02b0 2378     		ldrb	r3, [r4]	@ zero_extendqisi2
 4277 02b2 2B77     		strb	r3, [r5, #28]
 853:main.c        **** 				USBUARTH_Send(TransmitBuffer, strlen(TransmitBuffer));
 4278              		.loc 2 853 0 discriminator 6
 4279 02b4 2846     		mov	r0, r5
 4280 02b6 FFF7FEFF 		bl	strlen
 4281              	.LVL584:
 4282 02ba 81B2     		uxth	r1, r0
 4283 02bc 2846     		mov	r0, r5
 4284 02be FFF7FEFF 		bl	USBUARTH_Send
 4285              	.LVL585:
 854:main.c        **** 				UART_1_PutString(TransmitBuffer);
 4286              		.loc 2 854 0 discriminator 6
 4287 02c2 2846     		mov	r0, r5
 4288 02c4 FFF7FEFF 		bl	UART_1_PutString
 4289              	.LVL586:
 4290              	.LBE58:
 4291 02c8 CAE6     		b	.L317
 4292              	.L343:
 4293 02ca 00BF     		.align	2
 4294              	.L342:
 4295 02cc DC000000 		.word	.LC18
 4296 02d0 00000000 		.word	.LANCHOR0
 4297 02d4 00000000 		.word	UART_Rx_Position
 4298 02d8 00000000 		.word	USBUART_Rx_Position
 4299 02dc 00000000 		.word	CommunicationHandlerISR
 4300 02e0 00000000 		.word	USBUART_Receive_Buffer
 4301 02e4 00000000 		.word	UART_Receive_Buffer
 4302 02e8 EC000000 		.word	.LC19
 4303 02ec F8000000 		.word	.LC20
 4304 02f0 08010000 		.word	.LC21
 4305 02f4 18010000 		.word	.LC22
ARM GAS  C:\Users\Noyce\AppData\Local\Temp\ccdn8Rrk.s 			page 101


 4306 02f8 28010000 		.word	.LC23
 4307 02fc 38010000 		.word	.LC24
 4308 0300 48010000 		.word	.LC25
 4309 0304 00000000 		.word	TransmitBuffer
 4310 0308 50010000 		.word	.LC26
 4311 030c 64010000 		.word	.LC27
 4312 0310 78010000 		.word	.LC28
 4313 0314 84010000 		.word	.LC29
 4314 0318 9C010000 		.word	.LC30
 4315 031c B4010000 		.word	.LC31
 4316 0320 C8010000 		.word	.LC32
 4317 0324 E8010000 		.word	.LC33
 4318              	.LVL587:
 4319              	.L328:
 855:main.c        **** 			} else 
 856:main.c        **** 			if (strstr(ReceiveBuffer, "scan-range-wide-loop ") == &ReceiveBuffer[0]) {
 4320              		.loc 2 856 0
 4321 0328 CD49     		ldr	r1, .L344
 4322 032a 2046     		mov	r0, r4
 4323 032c FFF7FEFF 		bl	strstr
 4324              	.LVL588:
 4325 0330 8442     		cmp	r4, r0
 4326 0332 4DD1     		bne	.L329
 4327              	.LBB59:
 857:main.c        **** 				sprintf(TransmitBuffer, "\r\nScan-Range-Wide-Loop Starting\r\n");
 4328              		.loc 2 857 0 discriminator 7
 4329 0334 CB4F     		ldr	r7, .L344+4
 4330 0336 CC4D     		ldr	r5, .L344+8
 4331 0338 07F1200E 		add	lr, r7, #32
 4332              	.L330:
 4333 033c 3E46     		mov	r6, r7
 4334 033e 0FCE     		ldmia	r6!, {r0, r1, r2, r3}
 4335 0340 2860     		str	r0, [r5]	@ unaligned
 4336 0342 6960     		str	r1, [r5, #4]	@ unaligned
 4337 0344 AA60     		str	r2, [r5, #8]	@ unaligned
 4338 0346 EB60     		str	r3, [r5, #12]	@ unaligned
 4339 0348 3746     		mov	r7, r6
 4340 034a 1035     		adds	r5, r5, #16
 4341 034c 7645     		cmp	r6, lr
 4342 034e F5D1     		bne	.L330
 4343 0350 3388     		ldrh	r3, [r6]	@ unaligned
 4344 0352 2B80     		strh	r3, [r5]	@ unaligned
 858:main.c        **** 				USBUARTH_Send(TransmitBuffer, strlen(TransmitBuffer));
 4345              		.loc 2 858 0 discriminator 7
 4346 0354 C44D     		ldr	r5, .L344+8
 4347 0356 2846     		mov	r0, r5
 4348 0358 FFF7FEFF 		bl	strlen
 4349              	.LVL589:
 4350 035c 81B2     		uxth	r1, r0
 4351 035e 2846     		mov	r0, r5
 4352 0360 FFF7FEFF 		bl	USBUARTH_Send
 4353              	.LVL590:
 859:main.c        **** 				UART_1_PutString(TransmitBuffer);
 4354              		.loc 2 859 0 discriminator 7
 4355 0364 2846     		mov	r0, r5
 4356 0366 FFF7FEFF 		bl	UART_1_PutString
 4357              	.LVL591:
ARM GAS  C:\Users\Noyce\AppData\Local\Temp\ccdn8Rrk.s 			page 102


 860:main.c        **** 				
 861:main.c        **** 				char* location = strstr(ReceiveBuffer, " ");
 4358              		.loc 2 861 0 discriminator 7
 4359 036a 2021     		movs	r1, #32
 4360 036c 2046     		mov	r0, r4
 4361 036e FFF7FEFF 		bl	strchr
 4362              	.LVL592:
 4363 0372 02AC     		add	r4, sp, #8
 4364              	.LVL593:
 4365 0374 44F8040D 		str	r0, [r4, #-4]!
 862:main.c        **** 				uint8 startDevice = strtol(location, &location, 10);
 4366              		.loc 2 862 0 discriminator 7
 4367 0378 0A22     		movs	r2, #10
 4368 037a 2146     		mov	r1, r4
 4369 037c FFF7FEFF 		bl	strtol
 4370              	.LVL594:
 4371 0380 C6B2     		uxtb	r6, r0
 4372              	.LVL595:
 863:main.c        **** 				uint8 stopDevice = strtol(location, &location, 10);
 4373              		.loc 2 863 0 discriminator 7
 4374 0382 0A22     		movs	r2, #10
 4375 0384 2146     		mov	r1, r4
 4376 0386 0198     		ldr	r0, [sp, #4]
 4377 0388 FFF7FEFF 		bl	strtol
 4378              	.LVL596:
 864:main.c        **** 				Scan_Range(startDevice, stopDevice, 1, 1);
 4379              		.loc 2 864 0 discriminator 7
 4380 038c 0123     		movs	r3, #1
 4381 038e 1A46     		mov	r2, r3
 4382 0390 C1B2     		uxtb	r1, r0
 4383 0392 3046     		mov	r0, r6
 4384              	.LVL597:
 4385 0394 FFF7FEFF 		bl	Scan_Range
 4386              	.LVL598:
 865:main.c        **** 				
 866:main.c        **** 				sprintf(TransmitBuffer, "\r\nScan Range Wide Loop Complete\r\n");
 4387              		.loc 2 866 0 discriminator 7
 4388 0398 B44E     		ldr	r6, .L344+12
 4389              	.LVL599:
 4390 039a 2C46     		mov	r4, r5
 4391 039c 06F12007 		add	r7, r6, #32
 4392              	.L331:
 4393 03a0 3546     		mov	r5, r6
 4394 03a2 0FCD     		ldmia	r5!, {r0, r1, r2, r3}
 4395 03a4 2060     		str	r0, [r4]	@ unaligned
 4396 03a6 6160     		str	r1, [r4, #4]	@ unaligned
 4397 03a8 A260     		str	r2, [r4, #8]	@ unaligned
 4398 03aa E360     		str	r3, [r4, #12]	@ unaligned
 4399 03ac 2E46     		mov	r6, r5
 4400 03ae 1034     		adds	r4, r4, #16
 4401 03b0 BD42     		cmp	r5, r7
 4402 03b2 F5D1     		bne	.L331
 4403 03b4 2B88     		ldrh	r3, [r5]	@ unaligned
 4404 03b6 2380     		strh	r3, [r4]	@ unaligned
 867:main.c        **** 				USBUARTH_Send(TransmitBuffer, strlen(TransmitBuffer));
 4405              		.loc 2 867 0 discriminator 7
 4406 03b8 AB4C     		ldr	r4, .L344+8
ARM GAS  C:\Users\Noyce\AppData\Local\Temp\ccdn8Rrk.s 			page 103


 4407 03ba 2046     		mov	r0, r4
 4408 03bc FFF7FEFF 		bl	strlen
 4409              	.LVL600:
 4410 03c0 81B2     		uxth	r1, r0
 4411 03c2 2046     		mov	r0, r4
 4412 03c4 FFF7FEFF 		bl	USBUARTH_Send
 4413              	.LVL601:
 868:main.c        **** 				UART_1_PutString(TransmitBuffer);
 4414              		.loc 2 868 0 discriminator 7
 4415 03c8 2046     		mov	r0, r4
 4416 03ca FFF7FEFF 		bl	UART_1_PutString
 4417              	.LVL602:
 4418              	.LBE59:
 4419 03ce 47E6     		b	.L317
 4420              	.LVL603:
 4421              	.L329:
 869:main.c        **** 			} else 
 870:main.c        **** 			if (strstr(ReceiveBuffer, "connect ") == &ReceiveBuffer[0]) {
 4422              		.loc 2 870 0
 4423 03d0 A749     		ldr	r1, .L344+16
 4424 03d2 2046     		mov	r0, r4
 4425 03d4 FFF7FEFF 		bl	strstr
 4426              	.LVL604:
 4427 03d8 8442     		cmp	r4, r0
 4428 03da 27D1     		bne	.L332
 4429              	.LBB60:
 871:main.c        **** 				char* location = strstr(ReceiveBuffer, " ");
 4430              		.loc 2 871 0 discriminator 8
 4431 03dc 2021     		movs	r1, #32
 4432 03de 2046     		mov	r0, r4
 4433 03e0 FFF7FEFF 		bl	strchr
 4434              	.LVL605:
 4435 03e4 02AC     		add	r4, sp, #8
 4436              	.LVL606:
 4437 03e6 44F8040D 		str	r0, [r4, #-4]!
 872:main.c        **** 				uint8 contact = strtol(location, &location, 10);
 4438              		.loc 2 872 0 discriminator 8
 4439 03ea 0A22     		movs	r2, #10
 4440 03ec 2146     		mov	r1, r4
 4441 03ee FFF7FEFF 		bl	strtol
 4442              	.LVL607:
 4443 03f2 C5B2     		uxtb	r5, r0
 4444              	.LVL608:
 873:main.c        **** 				uint8 intermediate = strtol(location, &location, 10);
 4445              		.loc 2 873 0 discriminator 8
 4446 03f4 0A22     		movs	r2, #10
 4447 03f6 2146     		mov	r1, r4
 4448 03f8 0198     		ldr	r0, [sp, #4]
 4449 03fa FFF7FEFF 		bl	strtol
 4450              	.LVL609:
 4451 03fe C6B2     		uxtb	r6, r0
 4452              	.LVL610:
 874:main.c        **** 				Connect_Contact_To_Intermediate(contact, intermediate);
 4453              		.loc 2 874 0 discriminator 8
 4454 0400 3146     		mov	r1, r6
 4455 0402 2846     		mov	r0, r5
 4456 0404 FFF7FEFF 		bl	Connect_Contact_To_Intermediate
ARM GAS  C:\Users\Noyce\AppData\Local\Temp\ccdn8Rrk.s 			page 104


 4457              	.LVL611:
 875:main.c        **** 				
 876:main.c        **** 				sprintf(TransmitBuffer, "Connected %u to %u\r\n", contact, intermediate);
 4458              		.loc 2 876 0 discriminator 8
 4459 0408 974C     		ldr	r4, .L344+8
 4460 040a 3346     		mov	r3, r6
 4461 040c 2A46     		mov	r2, r5
 4462 040e 9949     		ldr	r1, .L344+20
 4463 0410 2046     		mov	r0, r4
 4464 0412 FFF7FEFF 		bl	sprintf
 4465              	.LVL612:
 877:main.c        **** 				USBUARTH_Send(TransmitBuffer, strlen(TransmitBuffer));
 4466              		.loc 2 877 0 discriminator 8
 4467 0416 2046     		mov	r0, r4
 4468 0418 FFF7FEFF 		bl	strlen
 4469              	.LVL613:
 4470 041c 81B2     		uxth	r1, r0
 4471 041e 2046     		mov	r0, r4
 4472 0420 FFF7FEFF 		bl	USBUARTH_Send
 4473              	.LVL614:
 878:main.c        **** 				UART_1_PutString(TransmitBuffer);
 4474              		.loc 2 878 0 discriminator 8
 4475 0424 2046     		mov	r0, r4
 4476 0426 FFF7FEFF 		bl	UART_1_PutString
 4477              	.LVL615:
 4478              	.LBE60:
 4479 042a 19E6     		b	.L317
 4480              	.LVL616:
 4481              	.L332:
 879:main.c        **** 			} else 
 880:main.c        **** 			if (strstr(ReceiveBuffer, "connect-c ") == &ReceiveBuffer[0]) {
 4482              		.loc 2 880 0
 4483 042c 9249     		ldr	r1, .L344+24
 4484 042e 2046     		mov	r0, r4
 4485 0430 FFF7FEFF 		bl	strstr
 4486              	.LVL617:
 4487 0434 8442     		cmp	r4, r0
 4488 0436 27D1     		bne	.L333
 4489              	.LBB61:
 881:main.c        **** 				char* location = strstr(ReceiveBuffer, " ");
 4490              		.loc 2 881 0 discriminator 9
 4491 0438 2021     		movs	r1, #32
 4492 043a 2046     		mov	r0, r4
 4493 043c FFF7FEFF 		bl	strchr
 4494              	.LVL618:
 4495 0440 02AC     		add	r4, sp, #8
 4496              	.LVL619:
 4497 0442 44F8040D 		str	r0, [r4, #-4]!
 882:main.c        **** 				uint8 channel = strtol(location, &location, 10);
 4498              		.loc 2 882 0 discriminator 9
 4499 0446 0A22     		movs	r2, #10
 4500 0448 2146     		mov	r1, r4
 4501 044a FFF7FEFF 		bl	strtol
 4502              	.LVL620:
 4503 044e C5B2     		uxtb	r5, r0
 4504              	.LVL621:
 883:main.c        **** 				uint8 intermediate = strtol(location, &location, 10);
ARM GAS  C:\Users\Noyce\AppData\Local\Temp\ccdn8Rrk.s 			page 105


 4505              		.loc 2 883 0 discriminator 9
 4506 0450 0A22     		movs	r2, #10
 4507 0452 2146     		mov	r1, r4
 4508 0454 0198     		ldr	r0, [sp, #4]
 4509 0456 FFF7FEFF 		bl	strtol
 4510              	.LVL622:
 4511 045a C6B2     		uxtb	r6, r0
 4512              	.LVL623:
 884:main.c        **** 				Connect_Channel_On_Intermediate(channel, intermediate);
 4513              		.loc 2 884 0 discriminator 9
 4514 045c 3146     		mov	r1, r6
 4515 045e 2846     		mov	r0, r5
 4516 0460 FFF7FEFF 		bl	Connect_Channel_On_Intermediate
 4517              	.LVL624:
 885:main.c        **** 				
 886:main.c        **** 				sprintf(TransmitBuffer, "Connected channel %u to %u\r\n", channel, intermediate);
