ARM GAS  C:\Users\FRANKL~1\AppData\Local\Temp\ccXJlYBQ.s 			page 1


   1              		.syntax unified
   2              		.cpu cortex-m3
   3              		.fpu softvfp
   4              		.eabi_attribute 20, 1
   5              		.eabi_attribute 21, 1
   6              		.eabi_attribute 23, 3
   7              		.eabi_attribute 24, 1
   8              		.eabi_attribute 25, 1
   9              		.eabi_attribute 26, 1
  10              		.eabi_attribute 30, 1
  11              		.eabi_attribute 34, 1
  12              		.eabi_attribute 18, 4
  13              		.thumb
  14              		.syntax unified
  15              		.file	"main.c"
  16              		.text
  17              	.Ltext0:
  18              		.cfi_sections	.debug_frame
  19              		.syntax unified
  20              		.global _printf_float
  21              		.thumb
  22              		.syntax unified
  23              		.section	.text.USBUARTH_Maintain_Configuration,"ax",%progbits
  24              		.align	2
  25              		.global	USBUARTH_Maintain_Configuration
  26              		.thumb
  27              		.thumb_func
  28              		.type	USBUARTH_Maintain_Configuration, %function
  29              	USBUARTH_Maintain_Configuration:
  30              	.LFB64:
  31              		.file 1 "USBUART_Helpers.h"
   1:USBUART_Helpers.h **** #include "project.h"
   2:USBUART_Helpers.h **** #include "stdio.h"
   3:USBUART_Helpers.h **** 
   4:USBUART_Helpers.h **** #if defined (__GNUC__)
   5:USBUART_Helpers.h **** 	/* Add an explicit reference to the floating point printf library */
   6:USBUART_Helpers.h **** 	/* to allow usage of the floating point conversion specifiers. */
   7:USBUART_Helpers.h **** 	/* This is not linked in by default with the newlib-nano library. */
   8:USBUART_Helpers.h **** 	asm (".global _printf_float");
   9:USBUART_Helpers.h **** #endif
  10:USBUART_Helpers.h **** 
  11:USBUART_Helpers.h **** // The buffer size is equal to the maximum packet size of the IN and OUT bulk endpoints.
  12:USBUART_Helpers.h **** #define USBUART_BUFFER_SIZE	(64u)
  13:USBUART_Helpers.h **** #define LINE_STR_LENGTH		(20u)
  14:USBUART_Helpers.h **** 
  15:USBUART_Helpers.h **** 
  16:USBUART_Helpers.h **** void USBUARTH_Maintain_Configuration() {
  32              		.loc 1 16 0
  33              		.cfi_startproc
  34              		@ args = 0, pretend = 0, frame = 0
  35              		@ frame_needed = 0, uses_anonymous_args = 0
  36 0000 08B5     		push	{r3, lr}
  37              		.cfi_def_cfa_offset 8
  38              		.cfi_offset 3, -8
  39              		.cfi_offset 14, -4
  40              	.LVL0:
  17:USBUART_Helpers.h **** 	unsigned long tries = 0;
ARM GAS  C:\Users\FRANKL~1\AppData\Local\Temp\ccXJlYBQ.s 			page 2


  18:USBUART_Helpers.h **** 	
  19:USBUART_Helpers.h **** 	do {
  20:USBUART_Helpers.h **** 		// Host can send double SET_INTERFACE request.
  21:USBUART_Helpers.h **** 		if (USBUART_IsConfigurationChanged()) {
  41              		.loc 1 21 0
  42 0002 FFF7FEFF 		bl	USBUART_IsConfigurationChanged
  43              	.LVL1:
  44 0006 20B1     		cbz	r0, .L2
  22:USBUART_Helpers.h **** 			// Initialize IN endpoints when device is configured.
  23:USBUART_Helpers.h **** 			if (USBUART_GetConfiguration()) {
  45              		.loc 1 23 0
  46 0008 FFF7FEFF 		bl	USBUART_GetConfiguration
  47              	.LVL2:
  48 000c 08B1     		cbz	r0, .L2
  24:USBUART_Helpers.h **** 				// Enumeration is done, enable OUT endpoint to receive data from host.
  25:USBUART_Helpers.h **** 				USBUART_CDC_Init();
  49              		.loc 1 25 0
  50 000e FFF7FEFF 		bl	USBUART_CDC_Init
  51              	.LVL3:
  52              	.L2:
  26:USBUART_Helpers.h **** 			}
  27:USBUART_Helpers.h **** 		}
  28:USBUART_Helpers.h **** 		
  29:USBUART_Helpers.h **** 		tries++;
  30:USBUART_Helpers.h **** 	// Keep trying until USB CDC device is configured
  31:USBUART_Helpers.h **** 	} while (!USBUART_GetConfiguration() && tries < 1);
  53              		.loc 1 31 0
  54 0012 FFF7FEFF 		bl	USBUART_GetConfiguration
  55              	.LVL4:
  56 0016 08BD     		pop	{r3, pc}
  57              		.cfi_endproc
  58              	.LFE64:
  59              		.size	USBUARTH_Maintain_Configuration, .-USBUARTH_Maintain_Configuration
  60              		.section	.text.USBUARTH_DataIsReady,"ax",%progbits
  61              		.align	2
  62              		.global	USBUARTH_DataIsReady
  63              		.thumb
  64              		.thumb_func
  65              		.type	USBUARTH_DataIsReady, %function
  66              	USBUARTH_DataIsReady:
  67              	.LFB65:
  32:USBUART_Helpers.h **** }
  33:USBUART_Helpers.h **** 
  34:USBUART_Helpers.h **** uint8 USBUARTH_DataIsReady() {
  68              		.loc 1 34 0
  69              		.cfi_startproc
  70              		@ args = 0, pretend = 0, frame = 0
  71              		@ frame_needed = 0, uses_anonymous_args = 0
  72 0000 08B5     		push	{r3, lr}
  73              		.cfi_def_cfa_offset 8
  74              		.cfi_offset 3, -8
  75              		.cfi_offset 14, -4
  35:USBUART_Helpers.h **** 	USBUARTH_Maintain_Configuration();
  76              		.loc 1 35 0
  77 0002 FFF7FEFF 		bl	USBUARTH_Maintain_Configuration
  78              	.LVL5:
  36:USBUART_Helpers.h **** 	
ARM GAS  C:\Users\FRANKL~1\AppData\Local\Temp\ccXJlYBQ.s 			page 3


  37:USBUART_Helpers.h **** 	return USBUART_GetConfiguration() && USBUART_DataIsReady();
  79              		.loc 1 37 0
  80 0006 FFF7FEFF 		bl	USBUART_GetConfiguration
  81              	.LVL6:
  82 000a 20B1     		cbz	r0, .L6
  83              		.loc 1 37 0 is_stmt 0 discriminator 1
  84 000c FFF7FEFF 		bl	USBUART_DataIsReady
  85              	.LVL7:
  86 0010 18B1     		cbz	r0, .L7
  87              		.loc 1 37 0
  88 0012 0120     		movs	r0, #1
  89 0014 08BD     		pop	{r3, pc}
  90              	.L6:
  91 0016 0020     		movs	r0, #0
  92 0018 08BD     		pop	{r3, pc}
  93              	.L7:
  94 001a 0020     		movs	r0, #0
  38:USBUART_Helpers.h **** }
  95              		.loc 1 38 0 is_stmt 1
  96 001c 08BD     		pop	{r3, pc}
  97              		.cfi_endproc
  98              	.LFE65:
  99              		.size	USBUARTH_DataIsReady, .-USBUARTH_DataIsReady
 100 001e 00BF     		.section	.text.CommunicationHandlerISR,"ax",%progbits
 101              		.align	2
 102              		.global	CommunicationHandlerISR
 103              		.thumb
 104              		.thumb_func
 105              		.type	CommunicationHandlerISR, %function
 106              	CommunicationHandlerISR:
 107              	.LFB106:
 108              		.file 2 "main.c"
   1:main.c        **** #include <stdlib.h>
   2:main.c        **** #include <stdio.h>
   3:main.c        **** #include "project.h"
   4:main.c        **** #include "USBUART_Helpers.h"
   5:main.c        **** 
   6:main.c        **** 
   7:main.c        **** struct Selector_I2C_Struct {
   8:main.c        **** 	struct {
   9:main.c        **** 		uint8 subAddress;
  10:main.c        **** 		uint8 data[126];
  11:main.c        **** 	} write;
  12:main.c        **** 	struct {
  13:main.c        **** 		uint8 subAddress;
  14:main.c        **** 		uint8 data[126];
  15:main.c        **** 	} read;
  16:main.c        **** 	uint8 busAddress;
  17:main.c        **** };
  18:main.c        **** 
  19:main.c        **** 
  20:main.c        **** // Globals ----------------------------------------------
  21:main.c        **** #define SELECTOR_COUNT (4u)
  22:main.c        **** #define INTERMEDIATE_COUNT (4u)
  23:main.c        **** #define CONTACT_COUNT (64u)
  24:main.c        **** #define CHANNEL_COUNT (34u)
  25:main.c        **** #define CONTACT_CONNECT_CODE (0xC0u)
ARM GAS  C:\Users\FRANKL~1\AppData\Local\Temp\ccXJlYBQ.s 			page 4


  26:main.c        **** #define CONTACT_DISCONNECT_CODE (0xD1u)
  27:main.c        **** #define COMPLIANCE_CURRENT_LIMIT (10e-6)
  28:main.c        **** 
  29:main.c        **** struct Selector_I2C_Struct selectors[SELECTOR_COUNT];
  30:main.c        **** char TransmitBuffer[USBUART_BUFFER_SIZE];
  31:main.c        **** 
  32:main.c        **** volatile uint8 newData = 0;
  33:main.c        **** volatile uint8 G_Stop = 0;
  34:main.c        **** volatile uint8 G_Break = 0;
  35:main.c        **** volatile uint8 G_Pause = 0;
  36:main.c        **** 
  37:main.c        **** volatile char UART_Receive_Buffer[USBUART_BUFFER_SIZE];
  38:main.c        **** volatile uint8 UART_Rx_Position;
  39:main.c        **** 
  40:main.c        **** volatile char USBUART_Receive_Buffer[USBUART_BUFFER_SIZE];
  41:main.c        **** volatile uint8 USBUART_Rx_Position;
  42:main.c        **** 
  43:main.c        **** uint8 Compliance_Reached;
  44:main.c        **** int16 Vgs_Index_Goal_Relative;
  45:main.c        **** int16 Vds_Index_Goal_Relative;
  46:main.c        **** 
  47:main.c        **** uint32 Current_Measurement_Sample_Count;
  48:main.c        **** 
  49:main.c        **** void Setup_Selector_I2C_Struct(struct Selector_I2C_Struct *selector) {
  50:main.c        **** 	selector->write.subAddress = 1;
  51:main.c        **** 	selector->read.subAddress = sizeof(selector->write) + 1;
  52:main.c        **** 	
  53:main.c        **** 	for (uint16 i = 0; i < sizeof(selector->write.data); i++) {
  54:main.c        **** 		selector->write.data[i] = i + 6;
  55:main.c        **** 	}
  56:main.c        **** 	for (uint16 i = 0; i < sizeof(selector->read.data); i++) {
  57:main.c        **** 		selector->read.data[i] = 0xbe;
  58:main.c        **** 	}
  59:main.c        **** }
  60:main.c        **** 
  61:main.c        **** void Update_Selector(uint8 selectori) {
  62:main.c        **** 	sprintf(TransmitBuffer, "Updating Selector %u\r\n", selectori + 1);
  63:main.c        **** 	USBUARTH_Send(TransmitBuffer, strlen(TransmitBuffer));
  64:main.c        **** 	UART_1_PutString(TransmitBuffer);
  65:main.c        **** 	
  66:main.c        **** 	struct Selector_I2C_Struct* selector = &selectors[selectori];
  67:main.c        **** 	
  68:main.c        **** 	I2C_1_MasterClearStatus();
  69:main.c        **** 	I2C_1_MasterWriteBuf(selector->busAddress, (uint8 *) &selector->write, sizeof(selector->write), I2
  70:main.c        **** 	for (uint32 i = 0; i < 4e5; i++) {
  71:main.c        **** 		if ((I2C_1_MasterStatus() & I2C_1_MSTAT_WR_CMPLT)) break;
  72:main.c        **** 		if (i >= 4e5 - 1) {
  73:main.c        **** 			sprintf(TransmitBuffer, "I2C Transfer Error! Type: Timeout\r\n");
  74:main.c        **** 			USBUARTH_Send(TransmitBuffer, strlen(TransmitBuffer));
  75:main.c        **** 			UART_1_PutString(TransmitBuffer);
  76:main.c        **** 			I2C_1_Stop();
  77:main.c        **** 			I2C_1_Start();
  78:main.c        **** 		}
  79:main.c        **** 	}
  80:main.c        **** 	
  81:main.c        **** 	// I2C_1_MasterClearStatus();
  82:main.c        **** 	// I2C_1_MasterWriteBuf(selector->busAddress, (uint8 *) &selector->read.subAddress, 1, I2C_1_MODE_
ARM GAS  C:\Users\FRANKL~1\AppData\Local\Temp\ccXJlYBQ.s 			page 5


  83:main.c        **** 	// for (uint32 i - 0; i < 4e5; i++) {
  84:main.c        **** 	// 	if ((I2C_1_MasterStatus() & I2C_1_MSTAT_WR_CMPLT)) break;
  85:main.c        **** 	// }
  86:main.c        **** 	
  87:main.c        **** 	// I2C_1_MasterReadBuf(selector->busAddress, (uint8 *) &selector->read.data, sizeof(selector->read
  88:main.c        **** 	// for (uint32 i - 0; i < 4e5; i++) {
  89:main.c        **** 	// 	if ((I2C_1_MasterStatus() & I2C_1_MSTAT_RD_CMPLT)) break;
  90:main.c        **** 	// }
  91:main.c        **** 	
  92:main.c        **** 	if (I2C_1_MasterStatus() & I2C_1_MSTAT_ERR_XFER) {
  93:main.c        **** 		sprintf(TransmitBuffer, "I2C Transfer Error! ");
  94:main.c        **** 		USBUARTH_Send(TransmitBuffer, strlen(TransmitBuffer));
  95:main.c        **** 		UART_1_PutString(TransmitBuffer);
  96:main.c        **** 		
  97:main.c        **** 		if (I2C_1_MasterStatus() & I2C_1_MSTAT_ERR_ADDR_NAK) {
  98:main.c        **** 			sprintf(TransmitBuffer, "Type: NAK");
  99:main.c        **** 			USBUARTH_Send(TransmitBuffer, strlen(TransmitBuffer));
 100:main.c        **** 			UART_1_PutString(TransmitBuffer);
 101:main.c        **** 		}
 102:main.c        **** 		
 103:main.c        **** 		sprintf(TransmitBuffer, "\r\n");
 104:main.c        **** 		USBUARTH_Send(TransmitBuffer, strlen(TransmitBuffer));
 105:main.c        **** 		UART_1_PutString(TransmitBuffer);
 106:main.c        **** 	}
 107:main.c        **** 	
 108:main.c        **** 	sprintf(TransmitBuffer, "Updated Selector %u\r\n", selectori + 1);
 109:main.c        **** 	USBUARTH_Send(TransmitBuffer, strlen(TransmitBuffer));
 110:main.c        **** 	UART_1_PutString(TransmitBuffer);
 111:main.c        **** }
 112:main.c        **** 
 113:main.c        **** 
 114:main.c        **** void ADC_Measure_uV(int32* average, int32* standardDeviation, uint32 sampleCount) {
 115:main.c        **** 	int32 ADC_Result = 0;
 116:main.c        **** 	int32 ADC_SD = 0;
 117:main.c        **** 	
 118:main.c        **** 	for (uint32 i = 1; i < sampleCount; i++) {
 119:main.c        **** 		ADC_DelSig_1_StartConvert();
 120:main.c        **** 		while (!ADC_DelSig_1_IsEndConversion(ADC_DelSig_1_RETURN_STATUS));
 121:main.c        **** 		//int16 ADC_Result = ADC_DelSig_1_CountsTo_mVolts(ADC_DelSig_1_GetResult16());
 122:main.c        **** 		int32 ADC_Result_Current = ADC_DelSig_1_CountsTo_uVolts(ADC_DelSig_1_GetResult32());
 123:main.c        **** 		
 124:main.c        **** 		ADC_SD += (float)(i-1)/(float)(i)*(ADC_Result_Current - ADC_Result)*(ADC_Result_Current - ADC_Res
 125:main.c        **** 		ADC_Result += ((float)ADC_Result_Current - (float)ADC_Result)/(float)i;
 126:main.c        **** 	}
 127:main.c        **** 	
 128:main.c        **** 	*average = ADC_Result;
 129:main.c        **** 	*standardDeviation = ADC_SD;
 130:main.c        **** }
 131:main.c        **** 
 132:main.c        **** void Measure_Sweep() {
 133:main.c        **** 	VDAC_Vds_SetValue(90);
 134:main.c        **** 	VDAC_Vgs_SetValue(254);
 135:main.c        **** 	
 136:main.c        **** 	for (uint16 Vgsi = 0; Vgsi < 256; Vgsi++) {
 137:main.c        **** 		int32 IdsAverage = 0;
 138:main.c        **** 		int32 IdsStandardDeviation = 0;
 139:main.c        **** 		
ARM GAS  C:\Users\FRANKL~1\AppData\Local\Temp\ccXJlYBQ.s 			page 6


 140:main.c        **** 		VDAC_Vgs_SetValue(Vgsi);
 141:main.c        **** 		
 142:main.c        **** 		ADC_Measure_uV(&IdsAverage, &IdsStandardDeviation, 100);
 143:main.c        **** 		
 144:main.c        **** 		// Send the collected data
 145:main.c        **** 		//sprintf(TransmitBuffer, "[%d, %lu, %lu]\r\n", Vgsi, IdsAverage, IdsStandardDeviation);
 146:main.c        **** 		sprintf(TransmitBuffer, "%lu,", IdsAverage);
 147:main.c        **** 		USBUARTH_Send(TransmitBuffer, strlen(TransmitBuffer));
 148:main.c        **** 		UART_1_PutString(TransmitBuffer);
 149:main.c        **** 	}
 150:main.c        **** }
 151:main.c        **** 
 152:main.c        **** void Setup_Selectors() {
 153:main.c        **** 	for (uint8 i = 0; i < SELECTOR_COUNT; i++) Setup_Selector_I2C_Struct(&selectors[i]);
 154:main.c        **** 	
 155:main.c        **** 	selectors[0].busAddress = 0x66;
 156:main.c        **** 	selectors[1].busAddress = 0x11;
 157:main.c        **** 	selectors[2].busAddress = 0x44;
 158:main.c        **** 	selectors[3].busAddress = 0x22;
 159:main.c        **** }
 160:main.c        **** 
 161:main.c        **** void Connect_Channel_On_Intermediate(uint8 channel, uint8 intermediate) {
 162:main.c        **** 	channel--;
 163:main.c        **** 	intermediate--;
 164:main.c        **** 	
 165:main.c        **** 	if (channel >= CHANNEL_COUNT) return;
 166:main.c        **** 	if (intermediate >= INTERMEDIATE_COUNT) return;
 167:main.c        **** 	
 168:main.c        **** 	selectors[intermediate].write.data[channel] = CONTACT_CONNECT_CODE;
 169:main.c        **** 	Update_Selector(intermediate);
 170:main.c        **** }
 171:main.c        **** 
 172:main.c        **** void Connect_Contact_To_Intermediate(uint8 contact, uint8 intermediate) {
 173:main.c        **** 	contact--;
 174:main.c        **** 	intermediate--;
 175:main.c        **** 	
 176:main.c        **** 	if (contact >= CONTACT_COUNT) return;
 177:main.c        **** 	if (intermediate >= INTERMEDIATE_COUNT) return;
 178:main.c        **** 	
 179:main.c        **** 	uint8 offset = 0;
 180:main.c        **** 	if (intermediate >= INTERMEDIATE_COUNT/2) {
 181:main.c        **** 		offset = CONTACT_COUNT/2;
 182:main.c        **** 		if (contact < CONTACT_COUNT/2) return;
 183:main.c        **** 	} else {
 184:main.c        **** 		if (contact >= CONTACT_COUNT/2) return;
 185:main.c        **** 	}
 186:main.c        **** 	
 187:main.c        **** 	Connect_Channel_On_Intermediate(contact - offset + 1, intermediate + 1);
 188:main.c        **** }
 189:main.c        **** 
 190:main.c        **** void Disconnect_Contact_From_Intermediate(uint8 contact, uint8 intermediate) {
 191:main.c        **** 	contact--;
 192:main.c        **** 	intermediate--;
 193:main.c        **** 	
 194:main.c        **** 	if (contact >= CONTACT_COUNT) return;
 195:main.c        **** 	if (intermediate >= INTERMEDIATE_COUNT) return;
 196:main.c        **** 	
ARM GAS  C:\Users\FRANKL~1\AppData\Local\Temp\ccXJlYBQ.s 			page 7


 197:main.c        **** 	uint8 offset = 0;
 198:main.c        **** 	if (intermediate >= INTERMEDIATE_COUNT/2) {
 199:main.c        **** 		offset = CONTACT_COUNT/2;
 200:main.c        **** 		if (contact < CONTACT_COUNT/2) return;
 201:main.c        **** 	} else {
 202:main.c        **** 		if (contact >= CONTACT_COUNT/2) return;
 203:main.c        **** 	}
 204:main.c        **** 	
 205:main.c        **** 	selectors[intermediate].write.data[contact - offset] = CONTACT_DISCONNECT_CODE;
 206:main.c        **** 	
 207:main.c        **** 	Update_Selector(intermediate);
 208:main.c        **** }
 209:main.c        **** 
 210:main.c        **** void Disconnect_Contact_From_All_Intermediates(uint8 contact) {
 211:main.c        **** 	contact--;
 212:main.c        **** 	
 213:main.c        **** 	for (uint8 intermediate = 0; intermediate < INTERMEDIATE_COUNT; intermediate++) {
 214:main.c        **** 		
 215:main.c        **** 		uint8 offset = 0;
 216:main.c        **** 		if (intermediate >= INTERMEDIATE_COUNT/2) {
 217:main.c        **** 			offset = CONTACT_COUNT/2;
 218:main.c        **** 			if (contact < CONTACT_COUNT/2) continue;
 219:main.c        **** 		} else {
 220:main.c        **** 			if (contact >= CONTACT_COUNT/2) continue;
 221:main.c        **** 		}
 222:main.c        **** 		
 223:main.c        **** 		selectors[intermediate].write.data[contact - offset] = CONTACT_DISCONNECT_CODE;
 224:main.c        **** 		
 225:main.c        **** 		Update_Selector(intermediate);
 226:main.c        **** 	}
 227:main.c        **** }
 228:main.c        **** 
 229:main.c        **** void Disconnect_All_Contacts_From_All_Intermediates() {
 230:main.c        **** 	for (uint8 intermediate = 0; intermediate < INTERMEDIATE_COUNT/**//2; intermediate++) {
 231:main.c        **** 		for (uint8 contact = 0; contact < CONTACT_COUNT/2; contact++) {
 232:main.c        **** 			selectors[intermediate].write.data[contact] = CONTACT_DISCONNECT_CODE;
 233:main.c        **** 		}
 234:main.c        **** 		
 235:main.c        **** 		Update_Selector(intermediate);
 236:main.c        **** 	}
 237:main.c        **** }
 238:main.c        **** 
 239:main.c        **** void Disconnect_All_Contacts_From_Intermediate(uint8 intermediate) {
 240:main.c        **** 	intermediate--;
 241:main.c        **** 	
 242:main.c        **** 	for (uint8 contact = 0; contact < CONTACT_COUNT/2; contact++) {
 243:main.c        **** 		selectors[intermediate].write.data[contact] = CONTACT_DISCONNECT_CODE;
 244:main.c        **** 	}
 245:main.c        **** 	
 246:main.c        **** 	Update_Selector(intermediate);
 247:main.c        **** }
 248:main.c        **** 
 249:main.c        **** void Connect_Intermediate(uint8 intermediate) {
 250:main.c        **** 	switch (intermediate) {
 251:main.c        **** 		case 1: Connect_Channel_On_Intermediate(33, 1); break;
 252:main.c        **** 		case 2: Connect_Channel_On_Intermediate(33, 2); break;
 253:main.c        **** 		case 3: Connect_Channel_On_Intermediate(33, 3); break;
ARM GAS  C:\Users\FRANKL~1\AppData\Local\Temp\ccXJlYBQ.s 			page 8


 254:main.c        **** 		case 4: Connect_Channel_On_Intermediate(33, 4); break;
 255:main.c        **** 		default: return;
 256:main.c        **** 	}
 257:main.c        **** }
 258:main.c        **** 
 259:main.c        **** void Connect_Intermediates() {
 260:main.c        **** 	for (uint8 i = 1; i <= INTERMEDIATE_COUNT/**//2; i++) {
 261:main.c        **** 		Connect_Intermediate(i);
 262:main.c        **** 	}
 263:main.c        **** }
 264:main.c        **** 
 265:main.c        **** void Measure_Current_Vss(float* currentAverageIn, float* currentStdDevIn, uint32 sampleCount) {
 266:main.c        **** 	Compliance_Reached = 0;
 267:main.c        **** 	
 268:main.c        **** 	// Voltage and its standard deviation (in uV)
 269:main.c        **** 	int32 voltage = 0;
 270:main.c        **** 	int32 voltageSD = 0;
 271:main.c        **** 	
 272:main.c        **** 	// Current and its standard deviation (in A)
 273:main.c        **** 	float currentNow = 0;
 274:main.c        **** 	
 275:main.c        **** 	float currentAverage = 0;
 276:main.c        **** 	float currentStdDev = 0;
 277:main.c        **** 	
 278:main.c        **** 	float TIA_Feedback_R = 20e3;
 279:main.c        **** 	float unitConversion = -1.0e-6/TIA_Feedback_R;
 280:main.c        **** 	
 281:main.c        **** 	// Allow for the first measurement (normally not correct) to take place
 282:main.c        **** 	ADC_Measure_uV(&voltage, &voltageSD, 3);
 283:main.c        **** 	
 284:main.c        **** 	// Now take the real measurement
 285:main.c        **** 	for (uint32 i = 1; i <= sampleCount; i++) {
 286:main.c        **** 		ADC_Measure_uV(&voltage, &voltageSD, 1);
 287:main.c        **** 		
 288:main.c        **** 		currentNow = unitConversion*voltage;
 289:main.c        **** 		
 290:main.c        **** 		if (abs(currentNow) > COMPLIANCE_CURRENT_LIMIT) {
 291:main.c        **** 			Compliance_Reached += 1;
 292:main.c        **** 			break;
 293:main.c        **** 		} else {
 294:main.c        **** 			Compliance_Reached = 0;
 295:main.c        **** 		}
 296:main.c        **** 		
 297:main.c        **** 		currentStdDev += ((float)i-1.0)/(float)(i)*(currentNow - currentAverage)*(currentNow - currentAve
 298:main.c        **** 		currentAverage += (currentNow - currentAverage)/(float)i;
 299:main.c        **** 	}
 300:main.c        **** 	
 301:main.c        **** 	*currentAverageIn = currentAverage;
 302:main.c        **** 	*currentStdDevIn = currentStdDev;
 303:main.c        **** }
 304:main.c        **** 
 305:main.c        **** uint8 At_Compliance() {
 306:main.c        **** 	Compliance_Reached = 0;
 307:main.c        **** 	
 308:main.c        **** 	float current = 0;
 309:main.c        **** 	float currentSD = 0;
 310:main.c        **** 	
ARM GAS  C:\Users\FRANKL~1\AppData\Local\Temp\ccXJlYBQ.s 			page 9


 311:main.c        **** 	Measure_Current_Vss(&current, &currentSD, 3);
 312:main.c        **** 	
 313:main.c        **** 	if (abs(current) > COMPLIANCE_CURRENT_LIMIT) {
 314:main.c        **** 		Compliance_Reached = 1;
 315:main.c        **** 		return 1;
 316:main.c        **** 	}
 317:main.c        **** 	
 318:main.c        **** 	return 0;
 319:main.c        **** }
 320:main.c        **** 
 321:main.c        **** void Handle_Compliance_Breach() {
 322:main.c        **** 	uint8 istart = VDAC_Vds_Data;
 323:main.c        **** 	uint8 istop = VDAC_Ref_Data;
 324:main.c        **** 	int8 increment = 1;
 325:main.c        **** 	if (istart < istop) increment = -1;
 326:main.c        **** 	
 327:main.c        **** 	for (uint8 i = istart; i != istop; i += increment) {
 328:main.c        **** 		VDAC_Vds_SetValue(i);
 329:main.c        **** 		
 330:main.c        **** 		if (!At_Compliance()) return;
 331:main.c        **** 	}
 332:main.c        **** 	
 333:main.c        **** 	istart = VDAC_Vgs_Data;
 334:main.c        **** 	istop = VDAC_Ref_Data;
 335:main.c        **** 	increment = 1;
 336:main.c        **** 	if (istart < istop) increment = -1;
 337:main.c        **** 	
 338:main.c        **** 	for (uint8 i = istart; i != istop; i += increment) {
 339:main.c        **** 		VDAC_Vgs_SetValue(i);
 340:main.c        **** 		
 341:main.c        **** 		if (!At_Compliance()) return;
 342:main.c        **** 	}
 343:main.c        **** 	
 344:main.c        **** 	// To do: Should disconnect something or take some other action at this point since still at compl
 345:main.c        **** }
 346:main.c        **** 
 347:main.c        **** void Set_Vds_Raw(uint8 value) {
 348:main.c        **** 	Vds_Index_Goal_Relative = (int16)value - (int16)VDAC_Ref_Data;
 349:main.c        **** 	
 350:main.c        **** 	uint8 istart = VDAC_Vds_Data;
 351:main.c        **** 	int8 increment = 1;
 352:main.c        **** 	if (istart > value) increment = -1;
 353:main.c        **** 	
 354:main.c        **** 	for (uint8 i = 0; i != value; i += increment) {
 355:main.c        **** 		if (At_Compliance()) {
 356:main.c        **** 			for (uint8 j = i; j != istart; j -= increment) {
 357:main.c        **** 				VDAC_Vds_SetValue(j);
 358:main.c        **** 				
 359:main.c        **** 				if (!At_Compliance()) return;
 360:main.c        **** 			}
 361:main.c        **** 			if (At_Compliance()) {
 362:main.c        **** 				Handle_Compliance_Breach();
 363:main.c        **** 				return;
 364:main.c        **** 			}
 365:main.c        **** 		}
 366:main.c        **** 		
 367:main.c        **** 		VDAC_Vds_SetValue(i);
ARM GAS  C:\Users\FRANKL~1\AppData\Local\Temp\ccXJlYBQ.s 			page 10


 368:main.c        **** 	}
 369:main.c        **** }
 370:main.c        **** 
 371:main.c        **** void Set_Vgs_Raw(uint8 value) {
 372:main.c        **** 	Vgs_Index_Goal_Relative = (int16)value - (int16)VDAC_Ref_Data;
 373:main.c        **** 	
 374:main.c        **** 	int8 increment = 1;
 375:main.c        **** 	uint8 istart = VDAC_Vgs_Data;
 376:main.c        **** 	if (value < istart) increment = -1;
 377:main.c        **** 	
 378:main.c        **** 	for (uint8 i = istart; i != value; i += increment) {
 379:main.c        **** 		if (At_Compliance()) {
 380:main.c        **** 			for (uint8 j = i; j != istart; j -= increment) {
 381:main.c        **** 				VDAC_Vgs_SetValue(j);
 382:main.c        **** 				
 383:main.c        **** 				if (!At_Compliance()) return;
 384:main.c        **** 			}
 385:main.c        **** 			if (At_Compliance()) {
 386:main.c        **** 				Handle_Compliance_Breach();
 387:main.c        **** 				return;
 388:main.c        **** 			}
 389:main.c        **** 		}
 390:main.c        **** 		
 391:main.c        **** 		VDAC_Vgs_SetValue(i);
 392:main.c        **** 	}
 393:main.c        **** }
 394:main.c        **** 
 395:main.c        **** void Set_Ref_Raw(uint8 value) {
 396:main.c        **** 	int8 increment = 1;
 397:main.c        **** 	if (value < VDAC_Ref_Data) increment = -1;
 398:main.c        **** 	
 399:main.c        **** 	for (uint8 i = VDAC_Ref_Data; i != value; i += increment) {
 400:main.c        **** 		
 401:main.c        **** 		if (At_Compliance()) return;
 402:main.c        **** 		
 403:main.c        **** 		int16 new_Vgs = (int16)i + Vgs_Index_Goal_Relative;
 404:main.c        **** 		int16 new_Vds = (int16)i + Vds_Index_Goal_Relative;
 405:main.c        **** 		
 406:main.c        **** 		if (new_Vgs > 255) new_Vgs = 255;
 407:main.c        **** 		if (new_Vds > 255) new_Vds = 255;
 408:main.c        **** 		
 409:main.c        **** 		if (new_Vgs < 0) new_Vgs = 0;
 410:main.c        **** 		if (new_Vds < 0) new_Vds = 0;
 411:main.c        **** 		
 412:main.c        **** 		VDAC_Ref_SetValue(i);
 413:main.c        **** 		VDAC_Vgs_SetValue(new_Vgs);
 414:main.c        **** 		VDAC_Vds_SetValue(new_Vds);
 415:main.c        **** 	}
 416:main.c        **** }
 417:main.c        **** 
 418:main.c        **** void Set_Vds_Rel(int16 value) {
 419:main.c        **** 	if (value > 255) value = 255;
 420:main.c        **** 	if (value < -255) value = -255;
 421:main.c        **** 	
 422:main.c        **** 	int16 absolute = (int16)value + (int16)VDAC_Ref_Data;
 423:main.c        **** 	
 424:main.c        **** 	if (absolute > 255) {
ARM GAS  C:\Users\FRANKL~1\AppData\Local\Temp\ccXJlYBQ.s 			page 11


 425:main.c        **** 		Set_Ref_Raw(VDAC_Ref_Data - (absolute - 255));
 426:main.c        **** 		Set_Vds_Raw(255);
 427:main.c        **** 	} else if (absolute < 0) {
 428:main.c        **** 		Set_Ref_Raw(VDAC_Ref_Data - absolute);
 429:main.c        **** 		Set_Vds_Raw(0);
 430:main.c        **** 	} else {
 431:main.c        **** 		Set_Vds_Raw(absolute);
 432:main.c        **** 	}
 433:main.c        **** 	
 434:main.c        **** 	Vds_Index_Goal_Relative = (int16)value;
 435:main.c        **** }
 436:main.c        **** 
 437:main.c        **** void Set_Vgs_Rel(int16 value) {
 438:main.c        **** 	if (value > 255) value = 255;
 439:main.c        **** 	if (value < -255) value = -255;
 440:main.c        **** 	
 441:main.c        **** 	int16 absolute = (int16)value + (int16)VDAC_Ref_Data;
 442:main.c        **** 	
 443:main.c        **** 	if (absolute > 255) {
 444:main.c        **** 		Set_Ref_Raw(VDAC_Ref_Data - (absolute - 255));
 445:main.c        **** 		Set_Vgs_Raw(255);
 446:main.c        **** 	} else if (absolute < 0) {
 447:main.c        **** 		Set_Ref_Raw(VDAC_Ref_Data - absolute);
 448:main.c        **** 		Set_Vgs_Raw(0);
 449:main.c        **** 	} else {
 450:main.c        **** 		Set_Vgs_Raw(absolute);
 451:main.c        **** 	}
 452:main.c        **** 	
 453:main.c        **** 	Vgs_Index_Goal_Relative = (int16)value;
 454:main.c        **** }
 455:main.c        **** 
 456:main.c        **** void Set_Vgs(float voltage) {
 457:main.c        **** 	Set_Vgs_Rel((voltage/4.080)*255.0);
 458:main.c        **** }
 459:main.c        **** 
 460:main.c        **** void Set_Vds(float voltage) {
 461:main.c        **** 	Set_Vds_Rel((voltage/4.080)*255.0);
 462:main.c        **** }
 463:main.c        **** 
 464:main.c        **** void Set_Vgs_mV(float mV) {
 465:main.c        **** 	Set_Vgs(mV/1000.0);
 466:main.c        **** }
 467:main.c        **** 
 468:main.c        **** void Set_Vds_mV(float mV) {
 469:main.c        **** 	Set_Vds(mV/1000.0);
 470:main.c        **** }
 471:main.c        **** 
 472:main.c        **** float Get_Ref() {
 473:main.c        **** 	float result = 4.080/255.0*VDAC_Ref_Data;
 474:main.c        **** 	if (VDAC_Ref_CR0 & (VDAC_Ref_RANGE_1V & VDAC_Ref_RANGE_MASK)) {
 475:main.c        **** 		result = 1.020/255.0*VDAC_Ref_Data;
 476:main.c        **** 	}
 477:main.c        **** 	return result;
 478:main.c        **** }
 479:main.c        **** 
 480:main.c        **** float Get_Vgs() {
 481:main.c        **** 	float result = 4.080/255.0*VDAC_Vgs_Data - Get_Ref();
ARM GAS  C:\Users\FRANKL~1\AppData\Local\Temp\ccXJlYBQ.s 			page 12


 482:main.c        **** 	if (VDAC_Vgs_CR0 & (VDAC_Vgs_RANGE_1V & VDAC_Vgs_RANGE_MASK)) {
 483:main.c        **** 		result = 1.020/255.0*VDAC_Vgs_Data - Get_Ref();
 484:main.c        **** 	}
 485:main.c        **** 	return result;
 486:main.c        **** }
 487:main.c        **** 
 488:main.c        **** float Get_Vds() {
 489:main.c        **** 	float result = 4.080/255.0*VDAC_Vds_Data - Get_Ref();
 490:main.c        **** 	if (VDAC_Vds_CR0 & (VDAC_Vds_RANGE_1V & VDAC_Vds_RANGE_MASK)) {
 491:main.c        **** 		result = 1.020/255.0*VDAC_Vds_Data - Get_Ref();
 492:main.c        **** 	}
 493:main.c        **** 	return result;
 494:main.c        **** }
 495:main.c        **** 
 496:main.c        **** void Zero_All_DACs() {
 497:main.c        **** 	Set_Vds_Raw(0);
 498:main.c        **** 	Set_Vgs_Raw(0);
 499:main.c        **** 	
 500:main.c        **** 	VDAC_Vds_SetValue(0);
 501:main.c        **** 	VDAC_Vgs_SetValue(0);
 502:main.c        **** }
 503:main.c        **** 
 504:main.c        **** void Measure() {
 505:main.c        **** 	int32 IdsAverage = 0;
 506:main.c        **** 	int32 IdsStandardDeviation = 0;
 507:main.c        **** 	
 508:main.c        **** 	ADC_Measure_uV(&IdsAverage, &IdsStandardDeviation, 100);
 509:main.c        **** 	
 510:main.c        **** 	float IdsAverageAmps = -1e-6/20e3*IdsAverage;
 511:main.c        **** 	
 512:main.c        **** 	ADC_SAR_1_StartConvert();
 513:main.c        **** 	ADC_SAR_2_StartConvert();
 514:main.c        **** 	while (!ADC_SAR_1_IsEndConversion(ADC_SAR_1_RETURN_STATUS));
 515:main.c        **** 	while (!ADC_SAR_2_IsEndConversion(ADC_SAR_2_RETURN_STATUS));
 516:main.c        **** 	
 517:main.c        **** 	float SAR1 = ADC_SAR_1_CountsTo_Volts(ADC_SAR_1_GetResult16());
 518:main.c        **** 	float SAR2 = ADC_SAR_2_CountsTo_Volts(ADC_SAR_2_GetResult16());
 519:main.c        **** 	
 520:main.c        **** 	sprintf(TransmitBuffer, "[%e,%f,%f,%f,%f]\r\n", IdsAverageAmps, Get_Vgs(), Get_Vds(), SAR1, SAR2);
 521:main.c        **** 	USBUARTH_Send(TransmitBuffer, strlen(TransmitBuffer));
 522:main.c        **** 	UART_1_PutString(TransmitBuffer);
 523:main.c        **** }
 524:main.c        **** 
 525:main.c        **** void Measure_Multiple(uint32 n) {
 526:main.c        **** 	for (uint32 i = 0; i < n; i++) {
 527:main.c        **** 		Measure();
 528:main.c        **** 	}
 529:main.c        **** }
 530:main.c        **** 
 531:main.c        **** void Measure_Gate_Sweep_New() {
 532:main.c        **** 	uint8 refTurn = 1;
 533:main.c        **** 	int8 refIncrement = 1;
 534:main.c        **** 	uint8 startRefIndex = 0;
 535:main.c        **** 	uint8 endRefIndex = 0;
 536:main.c        **** 	uint8 refIndex = startRefIndex;
 537:main.c        **** 	uint8 refArrived = 0;
 538:main.c        **** 	
ARM GAS  C:\Users\FRANKL~1\AppData\Local\Temp\ccXJlYBQ.s 			page 13


 539:main.c        **** 	int8 gateIncrement = 1;
 540:main.c        **** 	uint8 startGateIndex = 0;
 541:main.c        **** 	uint8 endGateIndex = 0;
 542:main.c        **** 	uint8 gateIndex = startGateIndex;
 543:main.c        **** 	uint8 gateArrived = 0;
 544:main.c        **** 	
 545:main.c        **** 	
 546:main.c        **** 	while (!gateArrived || !refArrived) {
 547:main.c        **** 		gateArrived = abs(gateIndex-endGateIndex) < abs(gateIncrement);
 548:main.c        **** 		refArrived = abs(refIndex-endRefIndex) < abs(refIncrement);
 549:main.c        **** 		
 550:main.c        **** 		refTurn = !refTurn;
 551:main.c        **** 		
 552:main.c        **** 		if (refTurn && refArrived) continue;
 553:main.c        **** 		if (!refTurn && gateArrived) continue;
 554:main.c        **** 		
 555:main.c        **** 		Set_Ref_Raw(refIndex);
 556:main.c        **** 		Set_Vgs_Raw(gateIndex);
 557:main.c        **** 		
 558:main.c        **** 		Measure();
 559:main.c        **** 		
 560:main.c        **** 		if (refTurn) {
 561:main.c        **** 			refIndex += refIncrement;
 562:main.c        **** 		} else {
 563:main.c        **** 			gateIndex += gateIncrement;
 564:main.c        **** 		}
 565:main.c        **** 		
 566:main.c        **** 		if (G_Stop) break;
 567:main.c        **** 		while (G_Pause);
 568:main.c        **** 	}
 569:main.c        **** }
 570:main.c        **** 
 571:main.c        **** void Measure_Gate_Sweep(uint8 loop) {
 572:main.c        **** 	
 573:main.c        **** 	if (Vds_Index_Goal_Relative > 0) {
 574:main.c        **** 		Set_Ref_Raw(254 - Vds_Index_Goal_Relative);
 575:main.c        **** 	} else {
 576:main.c        **** 		Set_Ref_Raw(254);
 577:main.c        **** 	}
 578:main.c        **** 	
 579:main.c        **** 	int8 speed = 16;
 580:main.c        **** 	
 581:main.c        **** 	for (uint8 l = 0; l <= loop; l++) {
 582:main.c        **** 		int8 direction = 1*speed;
 583:main.c        **** 		uint8 istart = 0;
 584:main.c        **** 		if (Vds_Index_Goal_Relative < 0) {
 585:main.c        **** 			uint8 istart = -Vds_Index_Goal_Relative;
 586:main.c        **** 		}
 587:main.c        **** 		
 588:main.c        **** 		uint8 istop = 256-speed;
 589:main.c        **** 		
 590:main.c        **** 		if (l%2 == 1) {
 591:main.c        **** 			direction = -1*speed;
 592:main.c        **** 			istart = 256-speed;
 593:main.c        **** 			istop = 0;
 594:main.c        **** 		}
 595:main.c        **** 		
ARM GAS  C:\Users\FRANKL~1\AppData\Local\Temp\ccXJlYBQ.s 			page 14


 596:main.c        **** 		for (uint8 i = istart; i != istop; i += direction) {
 597:main.c        **** 			for (uint8 j = 0; j <= 1; j++) {
 598:main.c        **** 				int32 IdsAverage = 0;
 599:main.c        **** 				int32 IdsStandardDeviation = 0;
 600:main.c        **** 				
 601:main.c        **** 				if (j == 1) Set_Ref_Raw(254 - i + 1);
 602:main.c        **** 				Set_Vgs_Raw(i);
 603:main.c        **** 				
 604:main.c        **** 				ADC_Measure_uV(&IdsAverage, &IdsStandardDeviation, 33);
 605:main.c        **** 				
 606:main.c        **** 				float IdsAverageAmps = -1e-6/20e3*IdsAverage;
 607:main.c        **** 				
 608:main.c        **** 				ADC_SAR_1_StartConvert();
 609:main.c        **** 				ADC_SAR_2_StartConvert();
 610:main.c        **** 				while (!ADC_SAR_1_IsEndConversion(ADC_SAR_1_RETURN_STATUS));
 611:main.c        **** 				while (!ADC_SAR_2_IsEndConversion(ADC_SAR_2_RETURN_STATUS));
 612:main.c        **** 				
 613:main.c        **** 				float SAR1 = ADC_SAR_1_CountsTo_Volts(ADC_SAR_1_GetResult16());
 614:main.c        **** 				float SAR2 = ADC_SAR_2_CountsTo_Volts(ADC_SAR_2_GetResult16());
 615:main.c        **** 				
 616:main.c        **** 				sprintf(TransmitBuffer, "[%e,%f,%f,%f,%f]\r\n", IdsAverageAmps, Get_Vgs(), Get_Vds(), SAR1, SAR
 617:main.c        **** 				USBUARTH_Send(TransmitBuffer, strlen(TransmitBuffer));
 618:main.c        **** 				UART_1_PutString(TransmitBuffer);
 619:main.c        **** 				
 620:main.c        **** 				if (G_Stop) break;
 621:main.c        **** 				while (G_Pause);
 622:main.c        **** 			}
 623:main.c        **** 		}
 624:main.c        **** 	}
 625:main.c        **** }
 626:main.c        **** 
 627:main.c        **** void Measure_Wide_Gate_Sweep(uint8 loop) {
 628:main.c        **** 	Set_Ref_Raw(254);
 629:main.c        **** 	
 630:main.c        **** 	int8 speed = 16;
 631:main.c        **** 	
 632:main.c        **** 	for (uint8 l = 0; l <= loop; l++) {
 633:main.c        **** 		int8 direction = 1*speed;
 634:main.c        **** 		uint8 istart = 0;
 635:main.c        **** 		uint8 istop = 256-speed;
 636:main.c        **** 		
 637:main.c        **** 		if (l%2 == 1) {
 638:main.c        **** 			direction = -1*speed;
 639:main.c        **** 			istart = 256-speed;
 640:main.c        **** 			istop = 0;
 641:main.c        **** 		}
 642:main.c        **** 		
 643:main.c        **** 		for (uint8 i = istart; i != istop; i += direction) {
 644:main.c        **** 			for (uint8 j = 0; j <= 1; j++) {
 645:main.c        **** 				int32 IdsAverage = 0;
 646:main.c        **** 				int32 IdsStandardDeviation = 0;
 647:main.c        **** 				
 648:main.c        **** 				if (j == 1) Set_Ref_Raw(254 - i + 1);
 649:main.c        **** 				Set_Vgs_Raw(i);
 650:main.c        **** 				
 651:main.c        **** 				ADC_Measure_uV(&IdsAverage, &IdsStandardDeviation, 33);
 652:main.c        **** 				
ARM GAS  C:\Users\FRANKL~1\AppData\Local\Temp\ccXJlYBQ.s 			page 15


 653:main.c        **** 				float temp = -1e-6/20e3*IdsAverage;
 654:main.c        **** 				
 655:main.c        **** 				ADC_SAR_1_StartConvert();
 656:main.c        **** 				ADC_SAR_2_StartConvert();
 657:main.c        **** 				while (!ADC_SAR_1_IsEndConversion(ADC_SAR_1_RETURN_STATUS));
 658:main.c        **** 				while (!ADC_SAR_2_IsEndConversion(ADC_SAR_2_RETURN_STATUS));
 659:main.c        **** 				
 660:main.c        **** 				float SAR1 = ADC_SAR_1_CountsTo_Volts(ADC_SAR_1_GetResult16());
 661:main.c        **** 				float SAR2 = ADC_SAR_2_CountsTo_Volts(ADC_SAR_2_GetResult16());
 662:main.c        **** 				
 663:main.c        **** 				sprintf(TransmitBuffer, "[%e,%f,%f,%f,%f]\r\n", temp, Get_Vgs(), Get_Vds(), SAR1, SAR2);
 664:main.c        **** 				USBUARTH_Send(TransmitBuffer, strlen(TransmitBuffer));
 665:main.c        **** 				UART_1_PutString(TransmitBuffer);
 666:main.c        **** 				
 667:main.c        **** 				if (G_Stop) break;
 668:main.c        **** 				while (G_Pause);
 669:main.c        **** 			}
 670:main.c        **** 		}
 671:main.c        **** 	}
 672:main.c        **** }
 673:main.c        **** 
 674:main.c        **** void Scan(uint8 wide, uint8 loop) {
 675:main.c        **** 	for (uint8 device = 1; device <= CONTACT_COUNT/**//2; device++) {
 676:main.c        **** 		uint8 contact1 = device;
 677:main.c        **** 		uint8 contact2 = device + 1;
 678:main.c        **** 		uint8 intermediate1 = 1;
 679:main.c        **** 		uint8 intermediate2 = 2;
 680:main.c        **** 		
 681:main.c        **** 		Disconnect_All_Contacts_From_All_Intermediates();
 682:main.c        **** 		Zero_All_DACs();
 683:main.c        **** 		Connect_Intermediates();
 684:main.c        **** 		Connect_Contact_To_Intermediate(contact1, intermediate1);
 685:main.c        **** 		Connect_Contact_To_Intermediate(contact2, intermediate2);
 686:main.c        **** 		
 687:main.c        **** 		sprintf(TransmitBuffer, "\r\n%u\r\n", device);
 688:main.c        **** 		USBUARTH_Send(TransmitBuffer, strlen(TransmitBuffer));
 689:main.c        **** 		UART_1_PutString(TransmitBuffer);
 690:main.c        **** 		
 691:main.c        **** 		if (wide) {
 692:main.c        **** 			Measure_Wide_Gate_Sweep(loop);
 693:main.c        **** 		} else {
 694:main.c        **** 			Measure_Gate_Sweep(loop);
 695:main.c        **** 		}
 696:main.c        **** 		
 697:main.c        **** 		if (G_Break || G_Stop) break;
 698:main.c        **** 		while (G_Pause);
 699:main.c        **** 	}
 700:main.c        **** }
 701:main.c        **** 
 702:main.c        **** void Scan_Range(uint8 startDevice, uint8 stopDevice, uint8 wide, uint8 loop) {
 703:main.c        **** 	if (startDevice >= CONTACT_COUNT) return;
 704:main.c        **** 	if (stopDevice >= CONTACT_COUNT) return;
 705:main.c        **** 	
 706:main.c        **** 	for (uint8 device = startDevice; device <= stopDevice; device++) {
 707:main.c        **** 		uint8 contact1 = device;
 708:main.c        **** 		uint8 contact2 = device + 1;
 709:main.c        **** 		uint8 intermediate1 = 1;
ARM GAS  C:\Users\FRANKL~1\AppData\Local\Temp\ccXJlYBQ.s 			page 16


 710:main.c        **** 		uint8 intermediate2 = 2;
 711:main.c        **** 		
 712:main.c        **** 		Disconnect_All_Contacts_From_All_Intermediates();
 713:main.c        **** 		Zero_All_DACs();
 714:main.c        **** 		Connect_Intermediates();
 715:main.c        **** 		Connect_Contact_To_Intermediate(contact1, intermediate1);
 716:main.c        **** 		Connect_Contact_To_Intermediate(contact2, intermediate2);
 717:main.c        **** 		
 718:main.c        **** 		sprintf(TransmitBuffer, "\r\n%u\r\n", device);
 719:main.c        **** 		USBUARTH_Send(TransmitBuffer, strlen(TransmitBuffer));
 720:main.c        **** 		UART_1_PutString(TransmitBuffer);
 721:main.c        **** 		
 722:main.c        **** 		if (wide) {
 723:main.c        **** 			Measure_Wide_Gate_Sweep(loop);
 724:main.c        **** 		} else {
 725:main.c        **** 			Measure_Gate_Sweep(loop);
 726:main.c        **** 		}
 727:main.c        **** 		
 728:main.c        **** 		if (G_Break || G_Stop) break;
 729:main.c        **** 		while (G_Pause);
 730:main.c        **** 	}
 731:main.c        **** }
 732:main.c        **** 
 733:main.c        **** CY_ISR (CommunicationHandlerISR) {
 109              		.loc 2 733 0
 110              		.cfi_startproc
 111              		@ args = 0, pretend = 0, frame = 64
 112              		@ frame_needed = 0, uses_anonymous_args = 0
 113 0000 30B5     		push	{r4, r5, lr}
 114              		.cfi_def_cfa_offset 12
 115              		.cfi_offset 4, -12
 116              		.cfi_offset 5, -8
 117              		.cfi_offset 14, -4
 118 0002 91B0     		sub	sp, sp, #68
 119              		.cfi_def_cfa_offset 80
 734:main.c        **** 	if (USBUARTH_DataIsReady()) {
 120              		.loc 2 734 0
 121 0004 FFF7FEFF 		bl	USBUARTH_DataIsReady
 122              	.LVL8:
 123 0008 0028     		cmp	r0, #0
 124 000a 37D0     		beq	.L10
 125              	.LBB2:
 735:main.c        **** 		// USBUARTH_Receive_Until(UART_Receive_Buffer, USBUART_BUFFER_SIZE, "\r");
 736:main.c        **** 		
 737:main.c        **** 		char temp_buffer[USBUART_BUFFER_SIZE];
 738:main.c        **** 		uint8 temp_count = USBUART_GetAll((uint8*) temp_buffer);
 126              		.loc 2 738 0
 127 000c 6846     		mov	r0, sp
 128 000e FFF7FEFF 		bl	USBUART_GetAll
 129              	.LVL9:
 130 0012 C0B2     		uxtb	r0, r0
 131              	.LVL10:
 132              	.LBB3:
 739:main.c        **** 		
 740:main.c        **** 		for (uint8 i = 0; i < temp_count; i++) {
 133              		.loc 2 740 0
 134 0014 0023     		movs	r3, #0
ARM GAS  C:\Users\FRANKL~1\AppData\Local\Temp\ccXJlYBQ.s 			page 17


 135 0016 2EE0     		b	.L11
 136              	.LVL11:
 137              	.L17:
 138              	.LBB4:
 741:main.c        **** 			char c = temp_buffer[i];
 139              		.loc 2 741 0
 140 0018 10AA     		add	r2, sp, #64
 141 001a 1A44     		add	r2, r2, r3
 142 001c 12F8402C 		ldrb	r2, [r2, #-64]	@ zero_extendqisi2
 143              	.LVL12:
 742:main.c        **** 			
 743:main.c        **** 			USBUART_Receive_Buffer[USBUART_Rx_Position] = c;
 144              		.loc 2 743 0
 145 0020 5949     		ldr	r1, .L31
 146 0022 0978     		ldrb	r1, [r1]	@ zero_extendqisi2
 147 0024 C9B2     		uxtb	r1, r1
 148 0026 594C     		ldr	r4, .L31+4
 149 0028 6254     		strb	r2, [r4, r1]
 744:main.c        **** 			
 745:main.c        **** 			// sprintf(TransmitBuffer, "USB: %c\r\n", USBUART_Receive_Buffer[USBUART_Rx_Position]);
 746:main.c        **** 			// UART_1_PutString(TransmitBuffer);
 747:main.c        **** 			
 748:main.c        **** 			if (c == '\r' || c == '\n' || c == '!') {
 150              		.loc 2 748 0
 151 002a 0D2A     		cmp	r2, #13
 152 002c 03D0     		beq	.L12
 153              		.loc 2 748 0 is_stmt 0 discriminator 1
 154 002e 0A2A     		cmp	r2, #10
 155 0030 01D0     		beq	.L12
 156              		.loc 2 748 0 discriminator 2
 157 0032 212A     		cmp	r2, #33
 158 0034 10D1     		bne	.L13
 159              	.L12:
 749:main.c        **** 				USBUART_Receive_Buffer[USBUART_Rx_Position] = 0;
 160              		.loc 2 749 0 is_stmt 1
 161 0036 5449     		ldr	r1, .L31
 162 0038 0A78     		ldrb	r2, [r1]	@ zero_extendqisi2
 163              	.LVL13:
 164 003a D2B2     		uxtb	r2, r2
 165 003c 0025     		movs	r5, #0
 166 003e 534C     		ldr	r4, .L31+4
 167 0040 A554     		strb	r5, [r4, r2]
 750:main.c        **** 				if (USBUART_Rx_Position) newData = 1;
 168              		.loc 2 750 0
 169 0042 0A78     		ldrb	r2, [r1]	@ zero_extendqisi2
 170 0044 12F0FF0F 		tst	r2, #255
 171 0048 02D0     		beq	.L14
 172              		.loc 2 750 0 is_stmt 0 discriminator 1
 173 004a 0121     		movs	r1, #1
 174 004c 504A     		ldr	r2, .L31+8
 175 004e 1170     		strb	r1, [r2]
 176              	.L14:
 751:main.c        **** 				USBUART_Rx_Position = 0;
 177              		.loc 2 751 0 is_stmt 1
 178 0050 0021     		movs	r1, #0
 179 0052 4D4A     		ldr	r2, .L31
 180 0054 1170     		strb	r1, [r2]
ARM GAS  C:\Users\FRANKL~1\AppData\Local\Temp\ccXJlYBQ.s 			page 18


 181 0056 04E0     		b	.L15
 182              	.LVL14:
 183              	.L13:
 752:main.c        **** 			} else {
 753:main.c        **** 				USBUART_Rx_Position++;
 184              		.loc 2 753 0
 185 0058 4B49     		ldr	r1, .L31
 186 005a 0A78     		ldrb	r2, [r1]	@ zero_extendqisi2
 187              	.LVL15:
 188 005c 0132     		adds	r2, r2, #1
 189 005e D2B2     		uxtb	r2, r2
 190 0060 0A70     		strb	r2, [r1]
 191              	.L15:
 754:main.c        **** 			}
 755:main.c        **** 			
 756:main.c        **** 			if (USBUART_Rx_Position >= USBUART_BUFFER_SIZE) USBUART_Rx_Position = 0;
 192              		.loc 2 756 0
 193 0062 494A     		ldr	r2, .L31
 194 0064 1278     		ldrb	r2, [r2]	@ zero_extendqisi2
 195 0066 D2B2     		uxtb	r2, r2
 196 0068 3F2A     		cmp	r2, #63
 197 006a 02D9     		bls	.L16
 198              		.loc 2 756 0 is_stmt 0 discriminator 1
 199 006c 0021     		movs	r1, #0
 200 006e 464A     		ldr	r2, .L31
 201 0070 1170     		strb	r1, [r2]
 202              	.L16:
 203              	.LBE4:
 740:main.c        **** 			char c = temp_buffer[i];
 204              		.loc 2 740 0 is_stmt 1 discriminator 2
 205 0072 0133     		adds	r3, r3, #1
 206              	.LVL16:
 207 0074 DBB2     		uxtb	r3, r3
 208              	.LVL17:
 209              	.L11:
 740:main.c        **** 			char c = temp_buffer[i];
 210              		.loc 2 740 0 is_stmt 0 discriminator 1
 211 0076 8342     		cmp	r3, r0
 212 0078 CED3     		bcc	.L17
 213 007a 3AE0     		b	.L18
 214              	.LVL18:
 215              	.L10:
 216              	.LBE3:
 217              	.LBE2:
 757:main.c        **** 		}
 758:main.c        **** 	} else
 759:main.c        **** 	if (UART_1_GetRxBufferSize()) {
 218              		.loc 2 759 0 is_stmt 1
 219 007c FFF7FEFF 		bl	UART_1_GetRxBufferSize
 220              	.LVL19:
 221 0080 0028     		cmp	r0, #0
 222 0082 36D0     		beq	.L18
 760:main.c        **** 		UART_Receive_Buffer[UART_Rx_Position] = UART_1_GetChar();
 223              		.loc 2 760 0
 224 0084 434D     		ldr	r5, .L31+12
 225 0086 2C78     		ldrb	r4, [r5]	@ zero_extendqisi2
 226 0088 E4B2     		uxtb	r4, r4
ARM GAS  C:\Users\FRANKL~1\AppData\Local\Temp\ccXJlYBQ.s 			page 19


 227 008a FFF7FEFF 		bl	UART_1_GetChar
 228              	.LVL20:
 229 008e 424A     		ldr	r2, .L31+16
 230 0090 1055     		strb	r0, [r2, r4]
 761:main.c        **** 		
 762:main.c        **** 		if (UART_Receive_Buffer[UART_Rx_Position] == '\r' || UART_Receive_Buffer[UART_Rx_Position] == '\n
 231              		.loc 2 762 0
 232 0092 2B78     		ldrb	r3, [r5]	@ zero_extendqisi2
 233 0094 DBB2     		uxtb	r3, r3
 234 0096 D35C     		ldrb	r3, [r2, r3]	@ zero_extendqisi2
 235 0098 DBB2     		uxtb	r3, r3
 236 009a 0D2B     		cmp	r3, #13
 237 009c 0BD0     		beq	.L19
 238              		.loc 2 762 0 is_stmt 0 discriminator 1
 239 009e 2B78     		ldrb	r3, [r5]	@ zero_extendqisi2
 240 00a0 DBB2     		uxtb	r3, r3
 241 00a2 D35C     		ldrb	r3, [r2, r3]	@ zero_extendqisi2
 242 00a4 DBB2     		uxtb	r3, r3
 243 00a6 0A2B     		cmp	r3, #10
 244 00a8 05D0     		beq	.L19
 245              		.loc 2 762 0 discriminator 2
 246 00aa 2B78     		ldrb	r3, [r5]	@ zero_extendqisi2
 247 00ac DBB2     		uxtb	r3, r3
 248 00ae D35C     		ldrb	r3, [r2, r3]	@ zero_extendqisi2
 249 00b0 DBB2     		uxtb	r3, r3
 250 00b2 212B     		cmp	r3, #33
 251 00b4 10D1     		bne	.L20
 252              	.L19:
 763:main.c        **** 			UART_Receive_Buffer[UART_Rx_Position] = 0;
 253              		.loc 2 763 0 is_stmt 1
 254 00b6 374A     		ldr	r2, .L31+12
 255 00b8 1378     		ldrb	r3, [r2]	@ zero_extendqisi2
 256 00ba DBB2     		uxtb	r3, r3
 257 00bc 0020     		movs	r0, #0
 258 00be 3649     		ldr	r1, .L31+16
 259 00c0 C854     		strb	r0, [r1, r3]
 764:main.c        **** 			if (UART_Rx_Position) newData = 2;
 260              		.loc 2 764 0
 261 00c2 1378     		ldrb	r3, [r2]	@ zero_extendqisi2
 262 00c4 13F0FF0F 		tst	r3, #255
 263 00c8 02D0     		beq	.L21
 264              		.loc 2 764 0 is_stmt 0 discriminator 1
 265 00ca 0222     		movs	r2, #2
 266 00cc 304B     		ldr	r3, .L31+8
 267 00ce 1A70     		strb	r2, [r3]
 268              	.L21:
 765:main.c        **** 			UART_Rx_Position = 0;
 269              		.loc 2 765 0 is_stmt 1
 270 00d0 0022     		movs	r2, #0
 271 00d2 304B     		ldr	r3, .L31+12
 272 00d4 1A70     		strb	r2, [r3]
 273 00d6 04E0     		b	.L22
 274              	.L20:
 766:main.c        **** 		} else {
 767:main.c        **** 			UART_Rx_Position++;
 275              		.loc 2 767 0
 276 00d8 2E4A     		ldr	r2, .L31+12
ARM GAS  C:\Users\FRANKL~1\AppData\Local\Temp\ccXJlYBQ.s 			page 20


 277 00da 1378     		ldrb	r3, [r2]	@ zero_extendqisi2
 278 00dc 0133     		adds	r3, r3, #1
 279 00de DBB2     		uxtb	r3, r3
 280 00e0 1370     		strb	r3, [r2]
 281              	.L22:
 768:main.c        **** 		}
 769:main.c        **** 		
 770:main.c        **** 		if (UART_Rx_Position >= USBUART_BUFFER_SIZE) UART_Rx_Position = 0;
 282              		.loc 2 770 0
 283 00e2 2C4B     		ldr	r3, .L31+12
 284 00e4 1B78     		ldrb	r3, [r3]	@ zero_extendqisi2
 285 00e6 DBB2     		uxtb	r3, r3
 286 00e8 3F2B     		cmp	r3, #63
 287 00ea 02D9     		bls	.L18
 288              		.loc 2 770 0 is_stmt 0 discriminator 1
 289 00ec 0022     		movs	r2, #0
 290 00ee 294B     		ldr	r3, .L31+12
 291 00f0 1A70     		strb	r2, [r3]
 292              	.L18:
 771:main.c        **** 	}
 772:main.c        **** 	
 773:main.c        **** 	if (newData) {
 293              		.loc 2 773 0 is_stmt 1
 294 00f2 274B     		ldr	r3, .L31+8
 295 00f4 1B78     		ldrb	r3, [r3]	@ zero_extendqisi2
 296 00f6 13F0FF0F 		tst	r3, #255
 297 00fa 3FD0     		beq	.L23
 298              	.LVL21:
 299              	.LBB5:
 774:main.c        **** 		char* ReceiveBuffer = &USBUART_Receive_Buffer[0];
 775:main.c        **** 		if (newData == 2) ReceiveBuffer = &UART_Receive_Buffer[0];
 300              		.loc 2 775 0
 301 00fc 244B     		ldr	r3, .L31+8
 302 00fe 1B78     		ldrb	r3, [r3]	@ zero_extendqisi2
 303 0100 DBB2     		uxtb	r3, r3
 304 0102 022B     		cmp	r3, #2
 305 0104 01D0     		beq	.L29
 774:main.c        **** 		char* ReceiveBuffer = &USBUART_Receive_Buffer[0];
 306              		.loc 2 774 0
 307 0106 214C     		ldr	r4, .L31+4
 308 0108 00E0     		b	.L24
 309              	.L29:
 310              		.loc 2 775 0
 311 010a 234C     		ldr	r4, .L31+16
 312              	.L24:
 313              	.LVL22:
 776:main.c        **** 		
 777:main.c        **** 		if (strstr(ReceiveBuffer, "stop ") == &ReceiveBuffer[0]) {
 314              		.loc 2 777 0
 315 010c 2349     		ldr	r1, .L31+20
 316 010e 2046     		mov	r0, r4
 317 0110 FFF7FEFF 		bl	strstr
 318              	.LVL23:
 319 0114 8442     		cmp	r4, r0
 320 0116 05D1     		bne	.L25
 778:main.c        **** 			G_Stop = 1;
 321              		.loc 2 778 0
ARM GAS  C:\Users\FRANKL~1\AppData\Local\Temp\ccXJlYBQ.s 			page 21


 322 0118 1D4B     		ldr	r3, .L31+8
 323 011a 0122     		movs	r2, #1
 324 011c 5A70     		strb	r2, [r3, #1]
 779:main.c        **** 			newData = 0;
 325              		.loc 2 779 0
 326 011e 0022     		movs	r2, #0
 327 0120 1A70     		strb	r2, [r3]
 328 0122 2BE0     		b	.L23
 329              	.L25:
 780:main.c        **** 		} else 
 781:main.c        **** 		if (strstr(ReceiveBuffer, "break ") == &ReceiveBuffer[0]) {
 330              		.loc 2 781 0
 331 0124 1E49     		ldr	r1, .L31+24
 332 0126 2046     		mov	r0, r4
 333 0128 FFF7FEFF 		bl	strstr
 334              	.LVL24:
 335 012c 8442     		cmp	r4, r0
 336 012e 05D1     		bne	.L26
 782:main.c        **** 			G_Break = 1;
 337              		.loc 2 782 0
 338 0130 174B     		ldr	r3, .L31+8
 339 0132 0122     		movs	r2, #1
 340 0134 9A70     		strb	r2, [r3, #2]
 783:main.c        **** 			newData = 0;
 341              		.loc 2 783 0
 342 0136 0022     		movs	r2, #0
 343 0138 1A70     		strb	r2, [r3]
 344 013a 1FE0     		b	.L23
 345              	.L26:
 784:main.c        **** 		} else 
 785:main.c        **** 		if (strstr(ReceiveBuffer, "pause ") == &ReceiveBuffer[0]) {
 346              		.loc 2 785 0
 347 013c 1949     		ldr	r1, .L31+28
 348 013e 2046     		mov	r0, r4
 349 0140 FFF7FEFF 		bl	strstr
 350              	.LVL25:
 351 0144 8442     		cmp	r4, r0
 352 0146 05D1     		bne	.L27
 786:main.c        **** 			G_Pause = 1;
 353              		.loc 2 786 0
 354 0148 114B     		ldr	r3, .L31+8
 355 014a 0122     		movs	r2, #1
 356 014c DA70     		strb	r2, [r3, #3]
 787:main.c        **** 			newData = 0;
 357              		.loc 2 787 0
 358 014e 0022     		movs	r2, #0
 359 0150 1A70     		strb	r2, [r3]
 360 0152 13E0     		b	.L23
 361              	.L27:
 788:main.c        **** 		} else 
 789:main.c        **** 		if (strstr(ReceiveBuffer, "resume ") == &ReceiveBuffer[0]) {
 362              		.loc 2 789 0
 363 0154 1449     		ldr	r1, .L31+32
 364 0156 2046     		mov	r0, r4
 365 0158 FFF7FEFF 		bl	strstr
 366              	.LVL26:
 367 015c 8442     		cmp	r4, r0
ARM GAS  C:\Users\FRANKL~1\AppData\Local\Temp\ccXJlYBQ.s 			page 22


 368 015e 04D1     		bne	.L28
 790:main.c        **** 			G_Pause = 0;
 369              		.loc 2 790 0
 370 0160 0B4B     		ldr	r3, .L31+8
 371 0162 0022     		movs	r2, #0
 372 0164 DA70     		strb	r2, [r3, #3]
 791:main.c        **** 			newData = 0;
 373              		.loc 2 791 0
 374 0166 1A70     		strb	r2, [r3]
 375 0168 08E0     		b	.L23
 376              	.L28:
 792:main.c        **** 		} else 
 793:main.c        **** 		if (strstr(ReceiveBuffer, "tristate ") == &ReceiveBuffer[0]) {
 377              		.loc 2 793 0
 378 016a 1049     		ldr	r1, .L31+36
 379 016c 2046     		mov	r0, r4
 380 016e FFF7FEFF 		bl	strstr
 381              	.LVL27:
 382 0172 8442     		cmp	r4, r0
 383 0174 02D1     		bne	.L23
 794:main.c        **** 			// To do
 795:main.c        **** 			newData = 0;
 384              		.loc 2 795 0
 385 0176 0022     		movs	r2, #0
 386 0178 054B     		ldr	r3, .L31+8
 387 017a 1A70     		strb	r2, [r3]
 388              	.LVL28:
 389              	.L23:
 390              	.LBE5:
 796:main.c        **** 		}
 797:main.c        **** 	}
 798:main.c        **** 	
 799:main.c        **** 	CommunicationInterrupt_ClearPending();
 391              		.loc 2 799 0
 392 017c FFF7FEFF 		bl	CommunicationInterrupt_ClearPending
 393              	.LVL29:
 800:main.c        **** 	CommunicationTimer_ReadStatusRegister();
 394              		.loc 2 800 0
 395 0180 FFF7FEFF 		bl	CommunicationTimer_ReadStatusRegister
 396              	.LVL30:
 801:main.c        **** }
 397              		.loc 2 801 0
 398 0184 11B0     		add	sp, sp, #68
 399              		.cfi_def_cfa_offset 12
 400              		@ sp needed
 401 0186 30BD     		pop	{r4, r5, pc}
 402              	.L32:
 403              		.align	2
 404              	.L31:
 405 0188 00000000 		.word	USBUART_Rx_Position
 406 018c 00000000 		.word	USBUART_Receive_Buffer
 407 0190 00000000 		.word	.LANCHOR0
 408 0194 00000000 		.word	UART_Rx_Position
 409 0198 00000000 		.word	UART_Receive_Buffer
 410 019c 00000000 		.word	.LC0
 411 01a0 08000000 		.word	.LC1
 412 01a4 10000000 		.word	.LC2
ARM GAS  C:\Users\FRANKL~1\AppData\Local\Temp\ccXJlYBQ.s 			page 23


 413 01a8 18000000 		.word	.LC3
 414 01ac 20000000 		.word	.LC4
 415              		.cfi_endproc
 416              	.LFE106:
 417              		.size	CommunicationHandlerISR, .-CommunicationHandlerISR
 418              		.section	.text.USBUARTH_Send,"ax",%progbits
 419              		.align	2
 420              		.global	USBUARTH_Send
 421              		.thumb
 422              		.thumb_func
 423              		.type	USBUARTH_Send, %function
 424              	USBUARTH_Send:
 425              	.LFB66:
  39:USBUART_Helpers.h **** 
  40:USBUART_Helpers.h **** 
  41:USBUART_Helpers.h **** uint8 USBUARTH_Send(char* buffer, uint16 count) {
 426              		.loc 1 41 0
 427              		.cfi_startproc
 428              		@ args = 0, pretend = 0, frame = 0
 429              		@ frame_needed = 0, uses_anonymous_args = 0
 430              	.LVL31:
  42:USBUART_Helpers.h **** 	if (count > 0) {
 431              		.loc 1 42 0
 432 0000 49B9     		cbnz	r1, .L39
  43:USBUART_Helpers.h **** 		// Wait until component is ready to send data to host.
  44:USBUART_Helpers.h **** 		for (uint32 tries = 0; tries < 10; tries++) {
  45:USBUART_Helpers.h **** 			USBUARTH_Maintain_Configuration();
  46:USBUART_Helpers.h **** 			if (USBUART_CDCIsReady()) break;
  47:USBUART_Helpers.h **** 		}
  48:USBUART_Helpers.h ****         
  49:USBUART_Helpers.h **** 		if (!USBUART_CDCIsReady()) return 0;
  50:USBUART_Helpers.h **** 		
  51:USBUART_Helpers.h **** 		// Send data to host
  52:USBUART_Helpers.h **** 		USBUART_PutData((uint8*) buffer, count);
  53:USBUART_Helpers.h **** 		
  54:USBUART_Helpers.h **** 		/* If the last sent packet is exactly the maximum packet 
  55:USBUART_Helpers.h **** 		*  size, it is followed by a zero-length packet to assure
  56:USBUART_Helpers.h **** 		*  that the end of the segment is properly identified by 
  57:USBUART_Helpers.h **** 		*  the terminal.
  58:USBUART_Helpers.h **** 		*/
  59:USBUART_Helpers.h **** 		if (USBUART_BUFFER_SIZE == count) {
  60:USBUART_Helpers.h **** 			// Wait until component is ready to send data to PC.
  61:USBUART_Helpers.h **** 			while (!USBUART_CDCIsReady());
  62:USBUART_Helpers.h ****             
  63:USBUART_Helpers.h **** 			// Send zero-length packet to PC.
  64:USBUART_Helpers.h **** 			USBUART_PutData(NULL, 0);
  65:USBUART_Helpers.h **** 		}
  66:USBUART_Helpers.h **** 	}
  67:USBUART_Helpers.h **** 	
  68:USBUART_Helpers.h **** 	return 1;
 433              		.loc 1 68 0
 434 0002 0123     		movs	r3, #1
  69:USBUART_Helpers.h **** }
 435              		.loc 1 69 0
 436 0004 1846     		mov	r0, r3
 437              	.LVL32:
 438 0006 7047     		bx	lr
ARM GAS  C:\Users\FRANKL~1\AppData\Local\Temp\ccXJlYBQ.s 			page 24


 439              	.LVL33:
 440              	.L37:
 441              		.cfi_def_cfa_offset 16
 442              		.cfi_offset 4, -16
 443              		.cfi_offset 5, -12
 444              		.cfi_offset 6, -8
 445              		.cfi_offset 14, -4
 446              	.LBB6:
  45:USBUART_Helpers.h **** 			if (USBUART_CDCIsReady()) break;
 447              		.loc 1 45 0
 448 0008 FFF7FEFF 		bl	USBUARTH_Maintain_Configuration
 449              	.LVL34:
  46:USBUART_Helpers.h **** 		}
 450              		.loc 1 46 0
 451 000c FFF7FEFF 		bl	USBUART_CDCIsReady
 452              	.LVL35:
 453 0010 38B9     		cbnz	r0, .L36
  44:USBUART_Helpers.h **** 			USBUARTH_Maintain_Configuration();
 454              		.loc 1 44 0 discriminator 2
 455 0012 0134     		adds	r4, r4, #1
 456              	.LVL36:
 457 0014 03E0     		b	.L34
 458              	.LVL37:
 459              	.L39:
 460              		.cfi_def_cfa_offset 0
 461              		.cfi_restore 4
 462              		.cfi_restore 5
 463              		.cfi_restore 6
 464              		.cfi_restore 14
 465              	.LBE6:
  41:USBUART_Helpers.h **** 	if (count > 0) {
 466              		.loc 1 41 0
 467 0016 70B5     		push	{r4, r5, r6, lr}
 468              		.cfi_def_cfa_offset 16
 469              		.cfi_offset 4, -16
 470              		.cfi_offset 5, -12
 471              		.cfi_offset 6, -8
 472              		.cfi_offset 14, -4
 473 0018 0D46     		mov	r5, r1
 474 001a 0646     		mov	r6, r0
 475 001c 0024     		movs	r4, #0
 476              	.LVL38:
 477              	.L34:
 478              	.LBB7:
  44:USBUART_Helpers.h **** 			USBUARTH_Maintain_Configuration();
 479              		.loc 1 44 0 discriminator 1
 480 001e 092C     		cmp	r4, #9
 481 0020 F2D9     		bls	.L37
 482              	.L36:
 483              	.LBE7:
  49:USBUART_Helpers.h **** 		
 484              		.loc 1 49 0
 485 0022 FFF7FEFF 		bl	USBUART_CDCIsReady
 486              	.LVL39:
 487 0026 0346     		mov	r3, r0
 488 0028 80B1     		cbz	r0, .L35
  52:USBUART_Helpers.h **** 		
ARM GAS  C:\Users\FRANKL~1\AppData\Local\Temp\ccXJlYBQ.s 			page 25


 489              		.loc 1 52 0
 490 002a 2946     		mov	r1, r5
 491 002c 3046     		mov	r0, r6
 492 002e FFF7FEFF 		bl	USBUART_PutData
 493              	.LVL40:
  59:USBUART_Helpers.h **** 			// Wait until component is ready to send data to PC.
 494              		.loc 1 59 0
 495 0032 402D     		cmp	r5, #64
 496 0034 09D1     		bne	.L40
 497              	.L38:
  61:USBUART_Helpers.h ****             
 498              		.loc 1 61 0 discriminator 1
 499 0036 FFF7FEFF 		bl	USBUART_CDCIsReady
 500              	.LVL41:
 501 003a 0028     		cmp	r0, #0
 502 003c FBD0     		beq	.L38
  64:USBUART_Helpers.h **** 		}
 503              		.loc 1 64 0
 504 003e 0021     		movs	r1, #0
 505 0040 0846     		mov	r0, r1
 506 0042 FFF7FEFF 		bl	USBUART_PutData
 507              	.LVL42:
  68:USBUART_Helpers.h **** }
 508              		.loc 1 68 0
 509 0046 0123     		movs	r3, #1
 510 0048 00E0     		b	.L35
 511              	.L40:
 512 004a 0123     		movs	r3, #1
 513              	.L35:
 514              		.loc 1 69 0
 515 004c 1846     		mov	r0, r3
 516 004e 70BD     		pop	{r4, r5, r6, pc}
 517              		.cfi_endproc
 518              	.LFE66:
 519              		.size	USBUARTH_Send, .-USBUARTH_Send
 520              		.section	.text.USBUARTH_Receive,"ax",%progbits
 521              		.align	2
 522              		.global	USBUARTH_Receive
 523              		.thumb
 524              		.thumb_func
 525              		.type	USBUARTH_Receive, %function
 526              	USBUARTH_Receive:
 527              	.LFB67:
  70:USBUART_Helpers.h **** 
  71:USBUART_Helpers.h **** uint8 USBUARTH_Receive(char* buffer, uint16* count) {
 528              		.loc 1 71 0
 529              		.cfi_startproc
 530              		@ args = 0, pretend = 0, frame = 0
 531              		@ frame_needed = 0, uses_anonymous_args = 0
 532              	.LVL43:
 533 0000 38B5     		push	{r3, r4, r5, lr}
 534              		.cfi_def_cfa_offset 16
 535              		.cfi_offset 3, -16
 536              		.cfi_offset 4, -12
 537              		.cfi_offset 5, -8
 538              		.cfi_offset 14, -4
 539 0002 0446     		mov	r4, r0
ARM GAS  C:\Users\FRANKL~1\AppData\Local\Temp\ccXJlYBQ.s 			page 26


 540 0004 0D46     		mov	r5, r1
  72:USBUART_Helpers.h **** 	// Wait for input data from host
  73:USBUART_Helpers.h **** 	while (!USBUART_DataIsReady()) USBUARTH_Maintain_Configuration();
 541              		.loc 1 73 0
 542 0006 01E0     		b	.L43
 543              	.LVL44:
 544              	.L44:
 545              		.loc 1 73 0 is_stmt 0 discriminator 2
 546 0008 FFF7FEFF 		bl	USBUARTH_Maintain_Configuration
 547              	.LVL45:
 548              	.L43:
 549              		.loc 1 73 0 discriminator 1
 550 000c FFF7FEFF 		bl	USBUART_DataIsReady
 551              	.LVL46:
 552 0010 0028     		cmp	r0, #0
 553 0012 F9D0     		beq	.L44
  74:USBUART_Helpers.h **** 	
  75:USBUART_Helpers.h **** 	// Read received data and re-enable OUT endpoint.
  76:USBUART_Helpers.h **** 	*count = USBUART_GetAll((uint8*) buffer);
 554              		.loc 1 76 0 is_stmt 1
 555 0014 2046     		mov	r0, r4
 556 0016 FFF7FEFF 		bl	USBUART_GetAll
 557              	.LVL47:
 558 001a 2880     		strh	r0, [r5]	@ movhi
  77:USBUART_Helpers.h **** 	
  78:USBUART_Helpers.h **** 	buffer[*count] = 0;
 559              		.loc 1 78 0
 560 001c 0023     		movs	r3, #0
 561 001e 2354     		strb	r3, [r4, r0]
  79:USBUART_Helpers.h **** 	
  80:USBUART_Helpers.h **** 	return 1u;
  81:USBUART_Helpers.h **** }
 562              		.loc 1 81 0
 563 0020 0120     		movs	r0, #1
 564 0022 38BD     		pop	{r3, r4, r5, pc}
 565              		.cfi_endproc
 566              	.LFE67:
 567              		.size	USBUARTH_Receive, .-USBUARTH_Receive
 568              		.section	.text.USBUARTH_GetChar,"ax",%progbits
 569              		.align	2
 570              		.global	USBUARTH_GetChar
 571              		.thumb
 572              		.thumb_func
 573              		.type	USBUARTH_GetChar, %function
 574              	USBUARTH_GetChar:
 575              	.LFB68:
  82:USBUART_Helpers.h **** 
  83:USBUART_Helpers.h **** char USBUARTH_GetChar() {
 576              		.loc 1 83 0
 577              		.cfi_startproc
 578              		@ args = 0, pretend = 0, frame = 0
 579              		@ frame_needed = 0, uses_anonymous_args = 0
 580 0000 08B5     		push	{r3, lr}
 581              		.cfi_def_cfa_offset 8
 582              		.cfi_offset 3, -8
 583              		.cfi_offset 14, -4
  84:USBUART_Helpers.h **** 	while (!USBUART_DataIsReady()) USBUARTH_Maintain_Configuration();
ARM GAS  C:\Users\FRANKL~1\AppData\Local\Temp\ccXJlYBQ.s 			page 27


 584              		.loc 1 84 0
 585 0002 01E0     		b	.L47
 586              	.L48:
 587              		.loc 1 84 0 is_stmt 0 discriminator 2
 588 0004 FFF7FEFF 		bl	USBUARTH_Maintain_Configuration
 589              	.LVL48:
 590              	.L47:
 591              		.loc 1 84 0 discriminator 1
 592 0008 FFF7FEFF 		bl	USBUART_DataIsReady
 593              	.LVL49:
 594 000c 0028     		cmp	r0, #0
 595 000e F9D0     		beq	.L48
  85:USBUART_Helpers.h **** 	
  86:USBUART_Helpers.h **** 	return USBUART_GetChar();
 596              		.loc 1 86 0 is_stmt 1
 597 0010 FFF7FEFF 		bl	USBUART_GetChar
 598              	.LVL50:
  87:USBUART_Helpers.h **** }
 599              		.loc 1 87 0
 600 0014 08BD     		pop	{r3, pc}
 601              		.cfi_endproc
 602              	.LFE68:
 603              		.size	USBUARTH_GetChar, .-USBUARTH_GetChar
 604 0016 00BF     		.section	.text.USBUARTH_Receive_Until,"ax",%progbits
 605              		.align	2
 606              		.global	USBUARTH_Receive_Until
 607              		.thumb
 608              		.thumb_func
 609              		.type	USBUARTH_Receive_Until, %function
 610              	USBUARTH_Receive_Until:
 611              	.LFB69:
  88:USBUART_Helpers.h **** 
  89:USBUART_Helpers.h **** uint8 USBUARTH_Receive_Until(char* buffer, uint16 maxLength, const char* termination) {
 612              		.loc 1 89 0
 613              		.cfi_startproc
 614              		@ args = 0, pretend = 0, frame = 0
 615              		@ frame_needed = 0, uses_anonymous_args = 0
 616              	.LVL51:
 617 0000 2DE9F041 		push	{r4, r5, r6, r7, r8, lr}
 618              		.cfi_def_cfa_offset 24
 619              		.cfi_offset 4, -24
 620              		.cfi_offset 5, -20
 621              		.cfi_offset 6, -16
 622              		.cfi_offset 7, -12
 623              		.cfi_offset 8, -8
 624              		.cfi_offset 14, -4
 625 0004 0546     		mov	r5, r0
 626 0006 0E46     		mov	r6, r1
 627 0008 1746     		mov	r7, r2
 628              	.LVL52:
 629              	.LBB8:
  90:USBUART_Helpers.h **** 	for (uint16 i = 0; i < maxLength; i++) {
 630              		.loc 1 90 0
 631 000a 0023     		movs	r3, #0
 632 000c 03E0     		b	.L51
 633              	.LVL53:
 634              	.L52:
ARM GAS  C:\Users\FRANKL~1\AppData\Local\Temp\ccXJlYBQ.s 			page 28


  91:USBUART_Helpers.h **** 		buffer[i] = 0;
 635              		.loc 1 91 0 discriminator 3
 636 000e 0022     		movs	r2, #0
 637 0010 EA54     		strb	r2, [r5, r3]
  90:USBUART_Helpers.h **** 	for (uint16 i = 0; i < maxLength; i++) {
 638              		.loc 1 90 0 discriminator 3
 639 0012 0133     		adds	r3, r3, #1
 640              	.LVL54:
 641 0014 9BB2     		uxth	r3, r3
 642              	.LVL55:
 643              	.L51:
  90:USBUART_Helpers.h **** 	for (uint16 i = 0; i < maxLength; i++) {
 644              		.loc 1 90 0 is_stmt 0 discriminator 1
 645 0016 B342     		cmp	r3, r6
 646 0018 F9D3     		bcc	.L52
 647 001a 0024     		movs	r4, #0
 648 001c 16E0     		b	.L53
 649              	.LVL56:
 650              	.L56:
 651              	.LBE8:
 652              	.LBB9:
  92:USBUART_Helpers.h **** 	}
  93:USBUART_Helpers.h **** 	
  94:USBUART_Helpers.h **** 	for (uint16 i = 0; i < maxLength - 1; i++) {
  95:USBUART_Helpers.h **** 		buffer[i] = USBUARTH_GetChar();
 653              		.loc 1 95 0 is_stmt 1
 654 001e FFF7FEFF 		bl	USBUARTH_GetChar
 655              	.LVL57:
 656 0022 2855     		strb	r0, [r5, r4]
  96:USBUART_Helpers.h **** 		buffer[i+1] = 0;
 657              		.loc 1 96 0
 658 0024 631C     		adds	r3, r4, #1
 659 0026 0022     		movs	r2, #0
 660 0028 EA54     		strb	r2, [r5, r3]
  97:USBUART_Helpers.h **** 		
  98:USBUART_Helpers.h **** 		if (strstr(buffer, termination)) {
 661              		.loc 1 98 0
 662 002a 3946     		mov	r1, r7
 663 002c 2846     		mov	r0, r5
 664 002e FFF7FEFF 		bl	strstr
 665              	.LVL58:
 666 0032 48B1     		cbz	r0, .L54
  99:USBUART_Helpers.h **** 			buffer[i + 1 - strlen(termination)] = 0;
 667              		.loc 1 99 0
 668 0034 3846     		mov	r0, r7
 669 0036 FFF7FEFF 		bl	strlen
 670              	.LVL59:
 671 003a 201A     		subs	r0, r4, r0
 672 003c 0130     		adds	r0, r0, #1
 673 003e 0023     		movs	r3, #0
 674 0040 2B54     		strb	r3, [r5, r0]
 100:USBUART_Helpers.h **** 			return 1;
 675              		.loc 1 100 0
 676 0042 0120     		movs	r0, #1
 677 0044 BDE8F081 		pop	{r4, r5, r6, r7, r8, pc}
 678              	.LVL60:
 679              	.L54:
ARM GAS  C:\Users\FRANKL~1\AppData\Local\Temp\ccXJlYBQ.s 			page 29


  94:USBUART_Helpers.h **** 		buffer[i] = USBUARTH_GetChar();
 680              		.loc 1 94 0 discriminator 2
 681 0048 0134     		adds	r4, r4, #1
 682              	.LVL61:
 683 004a A4B2     		uxth	r4, r4
 684              	.LVL62:
 685              	.L53:
  94:USBUART_Helpers.h **** 		buffer[i] = USBUARTH_GetChar();
 686              		.loc 1 94 0 is_stmt 0 discriminator 1
 687 004c 731E     		subs	r3, r6, #1
 688 004e 9C42     		cmp	r4, r3
 689 0050 E5DB     		blt	.L56
 690              	.LBE9:
 101:USBUART_Helpers.h **** 		}
 102:USBUART_Helpers.h **** 	}
 103:USBUART_Helpers.h **** 	
 104:USBUART_Helpers.h **** 	return 0;
 691              		.loc 1 104 0 is_stmt 1
 692 0052 0020     		movs	r0, #0
 105:USBUART_Helpers.h **** }
 693              		.loc 1 105 0
 694 0054 BDE8F081 		pop	{r4, r5, r6, r7, r8, pc}
 695              		.cfi_endproc
 696              	.LFE69:
 697              		.size	USBUARTH_Receive_Until, .-USBUARTH_Receive_Until
 698              		.section	.text.Setup_Selector_I2C_Struct,"ax",%progbits
 699              		.align	2
 700              		.global	Setup_Selector_I2C_Struct
 701              		.thumb
 702              		.thumb_func
 703              		.type	Setup_Selector_I2C_Struct, %function
 704              	Setup_Selector_I2C_Struct:
 705              	.LFB70:
  49:main.c        **** 	selector->write.subAddress = 1;
 706              		.loc 2 49 0
 707              		.cfi_startproc
 708              		@ args = 0, pretend = 0, frame = 0
 709              		@ frame_needed = 0, uses_anonymous_args = 0
 710              		@ link register save eliminated.
 711              	.LVL63:
  50:main.c        **** 	selector->read.subAddress = sizeof(selector->write) + 1;
 712              		.loc 2 50 0
 713 0000 0123     		movs	r3, #1
 714 0002 0370     		strb	r3, [r0]
  51:main.c        **** 	
 715              		.loc 2 51 0
 716 0004 8023     		movs	r3, #128
 717 0006 80F87F30 		strb	r3, [r0, #127]
 718              	.LVL64:
 719              	.LBB10:
  53:main.c        **** 		selector->write.data[i] = i + 6;
 720              		.loc 2 53 0
 721 000a 0023     		movs	r3, #0
 722 000c 04E0     		b	.L59
 723              	.LVL65:
 724              	.L60:
  54:main.c        **** 	}
ARM GAS  C:\Users\FRANKL~1\AppData\Local\Temp\ccXJlYBQ.s 			page 30


 725              		.loc 2 54 0 discriminator 3
 726 000e C218     		adds	r2, r0, r3
 727 0010 991D     		adds	r1, r3, #6
 728 0012 5170     		strb	r1, [r2, #1]
  53:main.c        **** 		selector->write.data[i] = i + 6;
 729              		.loc 2 53 0 discriminator 3
 730 0014 0133     		adds	r3, r3, #1
 731              	.LVL66:
 732 0016 9BB2     		uxth	r3, r3
 733              	.LVL67:
 734              	.L59:
  53:main.c        **** 		selector->write.data[i] = i + 6;
 735              		.loc 2 53 0 is_stmt 0 discriminator 1
 736 0018 7D2B     		cmp	r3, #125
 737 001a F8D9     		bls	.L60
 738 001c 0023     		movs	r3, #0
 739              	.LVL68:
 740 001e 05E0     		b	.L61
 741              	.LVL69:
 742              	.L62:
 743              	.LBE10:
 744              	.LBB11:
  57:main.c        **** 	}
 745              		.loc 2 57 0 is_stmt 1 discriminator 3
 746 0020 C218     		adds	r2, r0, r3
 747 0022 BE21     		movs	r1, #190
 748 0024 82F88010 		strb	r1, [r2, #128]
  56:main.c        **** 		selector->read.data[i] = 0xbe;
 749              		.loc 2 56 0 discriminator 3
 750 0028 0133     		adds	r3, r3, #1
 751              	.LVL70:
 752 002a 9BB2     		uxth	r3, r3
 753              	.LVL71:
 754              	.L61:
  56:main.c        **** 		selector->read.data[i] = 0xbe;
 755              		.loc 2 56 0 is_stmt 0 discriminator 1
 756 002c 7D2B     		cmp	r3, #125
 757 002e F7D9     		bls	.L62
 758              	.LBE11:
  59:main.c        **** 
 759              		.loc 2 59 0 is_stmt 1
 760 0030 7047     		bx	lr
 761              		.cfi_endproc
 762              	.LFE70:
 763              		.size	Setup_Selector_I2C_Struct, .-Setup_Selector_I2C_Struct
 764              		.global	__aeabi_dcmpge
 765              		.global	__aeabi_ui2d
 766              		.global	__aeabi_dcmplt
 767 0032 00BF     		.section	.text.Update_Selector,"ax",%progbits
 768              		.align	2
 769              		.global	Update_Selector
 770              		.thumb
 771              		.thumb_func
 772              		.type	Update_Selector, %function
 773              	Update_Selector:
 774              	.LFB71:
  61:main.c        **** 	sprintf(TransmitBuffer, "Updating Selector %u\r\n", selectori + 1);
ARM GAS  C:\Users\FRANKL~1\AppData\Local\Temp\ccXJlYBQ.s 			page 31


 775              		.loc 2 61 0
 776              		.cfi_startproc
 777              		@ args = 0, pretend = 0, frame = 0
 778              		@ frame_needed = 0, uses_anonymous_args = 0
 779              	.LVL72:
 780 0000 2DE9F041 		push	{r4, r5, r6, r7, r8, lr}
 781              		.cfi_def_cfa_offset 24
 782              		.cfi_offset 4, -24
 783              		.cfi_offset 5, -20
 784              		.cfi_offset 6, -16
 785              		.cfi_offset 7, -12
 786              		.cfi_offset 8, -8
 787              		.cfi_offset 14, -4
 788 0004 0446     		mov	r4, r0
  62:main.c        **** 	USBUARTH_Send(TransmitBuffer, strlen(TransmitBuffer));
 789              		.loc 2 62 0
 790 0006 00F10108 		add	r8, r0, #1
 791 000a 594D     		ldr	r5, .L74+16
 792 000c 4246     		mov	r2, r8
 793 000e 5949     		ldr	r1, .L74+20
 794 0010 2846     		mov	r0, r5
 795              	.LVL73:
 796 0012 FFF7FEFF 		bl	sprintf
 797              	.LVL74:
  63:main.c        **** 	UART_1_PutString(TransmitBuffer);
 798              		.loc 2 63 0
 799 0016 2846     		mov	r0, r5
 800 0018 FFF7FEFF 		bl	strlen
 801              	.LVL75:
 802 001c 81B2     		uxth	r1, r0
 803 001e 2846     		mov	r0, r5
 804 0020 FFF7FEFF 		bl	USBUARTH_Send
 805              	.LVL76:
  64:main.c        **** 	
 806              		.loc 2 64 0
 807 0024 2846     		mov	r0, r5
 808 0026 FFF7FEFF 		bl	UART_1_PutString
 809              	.LVL77:
  68:main.c        **** 	I2C_1_MasterWriteBuf(selector->busAddress, (uint8 *) &selector->write, sizeof(selector->write), I2
 810              		.loc 2 68 0
 811 002a FFF7FEFF 		bl	I2C_1_MasterClearStatus
 812              	.LVL78:
  69:main.c        **** 	for (uint32 i = 0; i < 4e5; i++) {
 813              		.loc 2 69 0
 814 002e C4EB0424 		rsb	r4, r4, r4, lsl #8
 815              	.LVL79:
 816 0032 514B     		ldr	r3, .L74+24
 817 0034 1C44     		add	r4, r4, r3
 818 0036 0023     		movs	r3, #0
 819 0038 7F22     		movs	r2, #127
 820 003a 2146     		mov	r1, r4
 821 003c 94F8FE00 		ldrb	r0, [r4, #254]	@ zero_extendqisi2
 822 0040 FFF7FEFF 		bl	I2C_1_MasterWriteBuf
 823              	.LVL80:
 824              	.LBB12:
  70:main.c        **** 		if ((I2C_1_MasterStatus() & I2C_1_MSTAT_WR_CMPLT)) break;
 825              		.loc 2 70 0
ARM GAS  C:\Users\FRANKL~1\AppData\Local\Temp\ccXJlYBQ.s 			page 32


 826 0044 0024     		movs	r4, #0
 827 0046 2CE0     		b	.L64
 828              	.LVL81:
 829              	.L69:
  71:main.c        **** 		if (i >= 4e5 - 1) {
 830              		.loc 2 71 0
 831 0048 FFF7FEFF 		bl	I2C_1_MasterStatus
 832              	.LVL82:
 833 004c 10F0020F 		tst	r0, #2
 834 0050 33D1     		bne	.L65
  72:main.c        **** 			sprintf(TransmitBuffer, "I2C Transfer Error! Type: Timeout\r\n");
 835              		.loc 2 72 0
 836 0052 43A3     		adr	r3, .L74
 837 0054 D3E90023 		ldrd	r2, [r3]
 838 0058 3046     		mov	r0, r6
 839 005a 3946     		mov	r1, r7
 840 005c FFF7FEFF 		bl	__aeabi_dcmpge
 841              	.LVL83:
 842 0060 F0B1     		cbz	r0, .L66
  73:main.c        **** 			USBUARTH_Send(TransmitBuffer, strlen(TransmitBuffer));
 843              		.loc 2 73 0
 844 0062 464F     		ldr	r7, .L74+28
 845 0064 424D     		ldr	r5, .L74+16
 846 0066 07F1200E 		add	lr, r7, #32
 847              	.L68:
 848 006a 3E46     		mov	r6, r7
 849 006c 0FCE     		ldmia	r6!, {r0, r1, r2, r3}
 850 006e 2860     		str	r0, [r5]	@ unaligned
 851 0070 6960     		str	r1, [r5, #4]	@ unaligned
 852 0072 AA60     		str	r2, [r5, #8]	@ unaligned
 853 0074 EB60     		str	r3, [r5, #12]	@ unaligned
 854 0076 3746     		mov	r7, r6
 855 0078 1035     		adds	r5, r5, #16
 856 007a 7645     		cmp	r6, lr
 857 007c F5D1     		bne	.L68
 858 007e 3068     		ldr	r0, [r6]	@ unaligned
 859 0080 2860     		str	r0, [r5]	@ unaligned
  74:main.c        **** 			UART_1_PutString(TransmitBuffer);
 860              		.loc 2 74 0
 861 0082 3B4D     		ldr	r5, .L74+16
 862 0084 2846     		mov	r0, r5
 863 0086 FFF7FEFF 		bl	strlen
 864              	.LVL84:
 865 008a 81B2     		uxth	r1, r0
 866 008c 2846     		mov	r0, r5
 867 008e FFF7FEFF 		bl	USBUARTH_Send
 868              	.LVL85:
  75:main.c        **** 			I2C_1_Stop();
 869              		.loc 2 75 0
 870 0092 2846     		mov	r0, r5
 871 0094 FFF7FEFF 		bl	UART_1_PutString
 872              	.LVL86:
  76:main.c        **** 			I2C_1_Start();
 873              		.loc 2 76 0
 874 0098 FFF7FEFF 		bl	I2C_1_Stop
 875              	.LVL87:
  77:main.c        **** 		}
ARM GAS  C:\Users\FRANKL~1\AppData\Local\Temp\ccXJlYBQ.s 			page 33


 876              		.loc 2 77 0
 877 009c FFF7FEFF 		bl	I2C_1_Start
 878              	.LVL88:
 879              	.L66:
  70:main.c        **** 		if ((I2C_1_MasterStatus() & I2C_1_MSTAT_WR_CMPLT)) break;
 880              		.loc 2 70 0 discriminator 2
 881 00a0 0134     		adds	r4, r4, #1
 882              	.LVL89:
 883              	.L64:
  70:main.c        **** 		if ((I2C_1_MasterStatus() & I2C_1_MSTAT_WR_CMPLT)) break;
 884              		.loc 2 70 0 is_stmt 0 discriminator 1
 885 00a2 2046     		mov	r0, r4
 886 00a4 FFF7FEFF 		bl	__aeabi_ui2d
 887              	.LVL90:
 888 00a8 0646     		mov	r6, r0
 889 00aa 0F46     		mov	r7, r1
 890 00ac 2EA3     		adr	r3, .L74+8
 891 00ae D3E90023 		ldrd	r2, [r3]
 892 00b2 FFF7FEFF 		bl	__aeabi_dcmplt
 893              	.LVL91:
 894 00b6 0028     		cmp	r0, #0
 895 00b8 C6D1     		bne	.L69
 896              	.L65:
 897              	.LBE12:
  92:main.c        **** 		sprintf(TransmitBuffer, "I2C Transfer Error! ");
 898              		.loc 2 92 0 is_stmt 1
 899 00ba FFF7FEFF 		bl	I2C_1_MasterStatus
 900              	.LVL92:
 901 00be 10F0800F 		tst	r0, #128
 902 00c2 39D0     		beq	.L70
  93:main.c        **** 		USBUARTH_Send(TransmitBuffer, strlen(TransmitBuffer));
 903              		.loc 2 93 0
 904 00c4 2A4C     		ldr	r4, .L74+16
 905              	.LVL93:
 906 00c6 2E4D     		ldr	r5, .L74+32
 907 00c8 0FCD     		ldmia	r5!, {r0, r1, r2, r3}
 908 00ca 2060     		str	r0, [r4]	@ unaligned
 909 00cc 6160     		str	r1, [r4, #4]	@ unaligned
 910 00ce A260     		str	r2, [r4, #8]	@ unaligned
 911 00d0 E360     		str	r3, [r4, #12]	@ unaligned
 912 00d2 2868     		ldr	r0, [r5]	@ unaligned
 913 00d4 2061     		str	r0, [r4, #16]	@ unaligned
 914 00d6 2B79     		ldrb	r3, [r5, #4]	@ zero_extendqisi2
 915 00d8 2375     		strb	r3, [r4, #20]
  94:main.c        **** 		UART_1_PutString(TransmitBuffer);
 916              		.loc 2 94 0
 917 00da 2046     		mov	r0, r4
 918 00dc FFF7FEFF 		bl	strlen
 919              	.LVL94:
 920 00e0 81B2     		uxth	r1, r0
 921 00e2 2046     		mov	r0, r4
 922 00e4 FFF7FEFF 		bl	USBUARTH_Send
 923              	.LVL95:
  95:main.c        **** 		
 924              		.loc 2 95 0
 925 00e8 2046     		mov	r0, r4
 926 00ea FFF7FEFF 		bl	UART_1_PutString
ARM GAS  C:\Users\FRANKL~1\AppData\Local\Temp\ccXJlYBQ.s 			page 34


 927              	.LVL96:
  97:main.c        **** 			sprintf(TransmitBuffer, "Type: NAK");
 928              		.loc 2 97 0
 929 00ee FFF7FEFF 		bl	I2C_1_MasterStatus
 930              	.LVL97:
 931 00f2 10F0200F 		tst	r0, #32
 932 00f6 0FD0     		beq	.L71
  98:main.c        **** 			USBUARTH_Send(TransmitBuffer, strlen(TransmitBuffer));
 933              		.loc 2 98 0
 934 00f8 224B     		ldr	r3, .L74+36
 935 00fa 03CB     		ldmia	r3!, {r0, r1}
 936 00fc 2060     		str	r0, [r4]	@ unaligned
 937 00fe 6160     		str	r1, [r4, #4]	@ unaligned
 938 0100 1B88     		ldrh	r3, [r3]	@ unaligned
 939 0102 2381     		strh	r3, [r4, #8]	@ unaligned
  99:main.c        **** 			UART_1_PutString(TransmitBuffer);
 940              		.loc 2 99 0
 941 0104 2046     		mov	r0, r4
 942 0106 FFF7FEFF 		bl	strlen
 943              	.LVL98:
 944 010a 81B2     		uxth	r1, r0
 945 010c 2046     		mov	r0, r4
 946 010e FFF7FEFF 		bl	USBUARTH_Send
 947              	.LVL99:
 100:main.c        **** 		}
 948              		.loc 2 100 0
 949 0112 2046     		mov	r0, r4
 950 0114 FFF7FEFF 		bl	UART_1_PutString
 951              	.LVL100:
 952              	.L71:
 103:main.c        **** 		USBUARTH_Send(TransmitBuffer, strlen(TransmitBuffer));
 953              		.loc 2 103 0
 954 0118 154C     		ldr	r4, .L74+16
 955 011a 1B4B     		ldr	r3, .L74+40
 956 011c 1A88     		ldrh	r2, [r3]	@ unaligned
 957 011e 9B78     		ldrb	r3, [r3, #2]	@ zero_extendqisi2
 958 0120 2280     		strh	r2, [r4]	@ unaligned
 959 0122 A370     		strb	r3, [r4, #2]
 104:main.c        **** 		UART_1_PutString(TransmitBuffer);
 960              		.loc 2 104 0
 961 0124 2046     		mov	r0, r4
 962 0126 FFF7FEFF 		bl	strlen
 963              	.LVL101:
 964 012a 81B2     		uxth	r1, r0
 965 012c 2046     		mov	r0, r4
 966 012e FFF7FEFF 		bl	USBUARTH_Send
 967              	.LVL102:
 105:main.c        **** 	}
 968              		.loc 2 105 0
 969 0132 2046     		mov	r0, r4
 970 0134 FFF7FEFF 		bl	UART_1_PutString
 971              	.LVL103:
 972              	.L70:
 108:main.c        **** 	USBUARTH_Send(TransmitBuffer, strlen(TransmitBuffer));
 973              		.loc 2 108 0
 974 0138 0D4C     		ldr	r4, .L74+16
 975 013a 4246     		mov	r2, r8
ARM GAS  C:\Users\FRANKL~1\AppData\Local\Temp\ccXJlYBQ.s 			page 35


 976 013c 1349     		ldr	r1, .L74+44
 977 013e 2046     		mov	r0, r4
 978 0140 FFF7FEFF 		bl	sprintf
 979              	.LVL104:
 109:main.c        **** 	UART_1_PutString(TransmitBuffer);
 980              		.loc 2 109 0
 981 0144 2046     		mov	r0, r4
 982 0146 FFF7FEFF 		bl	strlen
 983              	.LVL105:
 984 014a 81B2     		uxth	r1, r0
 985 014c 2046     		mov	r0, r4
 986 014e FFF7FEFF 		bl	USBUARTH_Send
 987              	.LVL106:
 110:main.c        **** }
 988              		.loc 2 110 0
 989 0152 2046     		mov	r0, r4
 990 0154 FFF7FEFF 		bl	UART_1_PutString
 991              	.LVL107:
 992 0158 BDE8F081 		pop	{r4, r5, r6, r7, r8, pc}
 993              	.LVL108:
 994              	.L75:
 995 015c AFF30080 		.align	3
 996              	.L74:
 997 0160 00000000 		.word	0
 998 0164 FC691841 		.word	1092119036
 999 0168 00000000 		.word	0
 1000 016c 006A1841 		.word	1092119040
 1001 0170 00000000 		.word	TransmitBuffer
 1002 0174 2C000000 		.word	.LC5
 1003 0178 00000000 		.word	selectors
 1004 017c 44000000 		.word	.LC6
 1005 0180 68000000 		.word	.LC7
 1006 0184 80000000 		.word	.LC8
 1007 0188 8C000000 		.word	.LC9
 1008 018c 90000000 		.word	.LC10
 1009              		.cfi_endproc
 1010              	.LFE71:
 1011              		.size	Update_Selector, .-Update_Selector
 1012              		.global	__aeabi_ui2f
 1013              		.global	__aeabi_fdiv
 1014              		.global	__aeabi_i2f
 1015              		.global	__aeabi_fmul
 1016              		.global	__aeabi_fadd
 1017              		.global	__aeabi_f2iz
 1018              		.global	__aeabi_fsub
 1019              		.section	.text.ADC_Measure_uV,"ax",%progbits
 1020              		.align	2
 1021              		.global	ADC_Measure_uV
 1022              		.thumb
 1023              		.thumb_func
 1024              		.type	ADC_Measure_uV, %function
 1025              	ADC_Measure_uV:
 1026              	.LFB72:
 114:main.c        **** 	int32 ADC_Result = 0;
 1027              		.loc 2 114 0
 1028              		.cfi_startproc
 1029              		@ args = 0, pretend = 0, frame = 8
ARM GAS  C:\Users\FRANKL~1\AppData\Local\Temp\ccXJlYBQ.s 			page 36


 1030              		@ frame_needed = 0, uses_anonymous_args = 0
 1031              	.LVL109:
 1032 0000 2DE9F04F 		push	{r4, r5, r6, r7, r8, r9, r10, fp, lr}
 1033              		.cfi_def_cfa_offset 36
 1034              		.cfi_offset 4, -36
 1035              		.cfi_offset 5, -32
 1036              		.cfi_offset 6, -28
 1037              		.cfi_offset 7, -24
 1038              		.cfi_offset 8, -20
 1039              		.cfi_offset 9, -16
 1040              		.cfi_offset 10, -12
 1041              		.cfi_offset 11, -8
 1042              		.cfi_offset 14, -4
 1043 0004 83B0     		sub	sp, sp, #12
 1044              		.cfi_def_cfa_offset 48
 1045 0006 0090     		str	r0, [sp]
 1046 0008 0191     		str	r1, [sp, #4]
 1047 000a 9346     		mov	fp, r2
 1048              	.LVL110:
 1049              	.LBB13:
 118:main.c        **** 		ADC_DelSig_1_StartConvert();
 1050              		.loc 2 118 0
 1051 000c 0124     		movs	r4, #1
 1052              	.LBE13:
 116:main.c        **** 	
 1053              		.loc 2 116 0
 1054 000e 4FF00009 		mov	r9, #0
 115:main.c        **** 	int32 ADC_SD = 0;
 1055              		.loc 2 115 0
 1056 0012 4D46     		mov	r5, r9
 1057              	.LBB15:
 118:main.c        **** 		ADC_DelSig_1_StartConvert();
 1058              		.loc 2 118 0
 1059 0014 45E0     		b	.L77
 1060              	.LVL111:
 1061              	.L79:
 1062              	.LBB14:
 119:main.c        **** 		while (!ADC_DelSig_1_IsEndConversion(ADC_DelSig_1_RETURN_STATUS));
 1063              		.loc 2 119 0
 1064 0016 FFF7FEFF 		bl	ADC_DelSig_1_StartConvert
 1065              	.LVL112:
 1066              	.L78:
 120:main.c        **** 		//int16 ADC_Result = ADC_DelSig_1_CountsTo_mVolts(ADC_DelSig_1_GetResult16());
 1067              		.loc 2 120 0 discriminator 1
 1068 001a 0120     		movs	r0, #1
 1069 001c FFF7FEFF 		bl	ADC_DelSig_1_IsEndConversion
 1070              	.LVL113:
 1071 0020 0028     		cmp	r0, #0
 1072 0022 FAD0     		beq	.L78
 122:main.c        **** 		
 1073              		.loc 2 122 0 discriminator 2
 1074 0024 FFF7FEFF 		bl	ADC_DelSig_1_GetResult32
 1075              	.LVL114:
 1076 0028 FFF7FEFF 		bl	ADC_DelSig_1_CountsTo_uVolts
 1077              	.LVL115:
 1078 002c 0746     		mov	r7, r0
 1079              	.LVL116:
ARM GAS  C:\Users\FRANKL~1\AppData\Local\Temp\ccXJlYBQ.s 			page 37


 124:main.c        **** 		ADC_Result += ((float)ADC_Result_Current - (float)ADC_Result)/(float)i;
 1080              		.loc 2 124 0 discriminator 2
 1081 002e 601E     		subs	r0, r4, #1
 1082              	.LVL117:
 1083 0030 FFF7FEFF 		bl	__aeabi_ui2f
 1084              	.LVL118:
 1085 0034 8046     		mov	r8, r0
 1086 0036 2046     		mov	r0, r4
 1087 0038 FFF7FEFF 		bl	__aeabi_ui2f
 1088              	.LVL119:
 1089 003c 0646     		mov	r6, r0
 1090 003e 0146     		mov	r1, r0
 1091 0040 4046     		mov	r0, r8
 1092 0042 FFF7FEFF 		bl	__aeabi_fdiv
 1093              	.LVL120:
 1094 0046 8246     		mov	r10, r0
 1095 0048 781B     		subs	r0, r7, r5
 1096 004a FFF7FEFF 		bl	__aeabi_i2f
 1097              	.LVL121:
 1098 004e 8046     		mov	r8, r0
 1099 0050 0146     		mov	r1, r0
 1100 0052 5046     		mov	r0, r10
 1101 0054 FFF7FEFF 		bl	__aeabi_fmul
 1102              	.LVL122:
 1103 0058 0146     		mov	r1, r0
 1104 005a 4046     		mov	r0, r8
 1105 005c FFF7FEFF 		bl	__aeabi_fmul
 1106              	.LVL123:
 1107 0060 8046     		mov	r8, r0
 1108 0062 4846     		mov	r0, r9
 1109 0064 FFF7FEFF 		bl	__aeabi_i2f
 1110              	.LVL124:
 1111 0068 4146     		mov	r1, r8
 1112 006a FFF7FEFF 		bl	__aeabi_fadd
 1113              	.LVL125:
 1114 006e FFF7FEFF 		bl	__aeabi_f2iz
 1115              	.LVL126:
 1116 0072 8146     		mov	r9, r0
 1117              	.LVL127:
 125:main.c        **** 	}
 1118              		.loc 2 125 0 discriminator 2
 1119 0074 3846     		mov	r0, r7
 1120              	.LVL128:
 1121 0076 FFF7FEFF 		bl	__aeabi_i2f
 1122              	.LVL129:
 1123 007a 0746     		mov	r7, r0
 1124              	.LVL130:
 1125 007c 2846     		mov	r0, r5
 1126 007e FFF7FEFF 		bl	__aeabi_i2f
 1127              	.LVL131:
 1128 0082 0546     		mov	r5, r0
 1129              	.LVL132:
 1130 0084 0146     		mov	r1, r0
 1131 0086 3846     		mov	r0, r7
 1132 0088 FFF7FEFF 		bl	__aeabi_fsub
 1133              	.LVL133:
 1134 008c 3146     		mov	r1, r6
ARM GAS  C:\Users\FRANKL~1\AppData\Local\Temp\ccXJlYBQ.s 			page 38


 1135 008e FFF7FEFF 		bl	__aeabi_fdiv
 1136              	.LVL134:
 1137 0092 0146     		mov	r1, r0
 1138 0094 2846     		mov	r0, r5
 1139 0096 FFF7FEFF 		bl	__aeabi_fadd
 1140              	.LVL135:
 1141 009a FFF7FEFF 		bl	__aeabi_f2iz
 1142              	.LVL136:
 1143 009e 0546     		mov	r5, r0
 1144              	.LVL137:
 1145              	.LBE14:
 118:main.c        **** 		ADC_DelSig_1_StartConvert();
 1146              		.loc 2 118 0 discriminator 2
 1147 00a0 0134     		adds	r4, r4, #1
 1148              	.LVL138:
 1149              	.L77:
 118:main.c        **** 		ADC_DelSig_1_StartConvert();
 1150              		.loc 2 118 0 is_stmt 0 discriminator 1
 1151 00a2 5C45     		cmp	r4, fp
 1152 00a4 B7D3     		bcc	.L79
 1153              	.LBE15:
 128:main.c        **** 	*standardDeviation = ADC_SD;
 1154              		.loc 2 128 0 is_stmt 1
 1155 00a6 009B     		ldr	r3, [sp]
 1156 00a8 1D60     		str	r5, [r3]
 129:main.c        **** }
 1157              		.loc 2 129 0
 1158 00aa 019B     		ldr	r3, [sp, #4]
 1159 00ac C3F80090 		str	r9, [r3]
 130:main.c        **** 
 1160              		.loc 2 130 0
 1161 00b0 03B0     		add	sp, sp, #12
 1162              		.cfi_def_cfa_offset 36
 1163              	.LVL139:
 1164              		@ sp needed
 1165 00b2 BDE8F08F 		pop	{r4, r5, r6, r7, r8, r9, r10, fp, pc}
 1166              		.cfi_endproc
 1167              	.LFE72:
 1168              		.size	ADC_Measure_uV, .-ADC_Measure_uV
 1169 00b6 00BF     		.section	.text.Measure_Sweep,"ax",%progbits
 1170              		.align	2
 1171              		.global	Measure_Sweep
 1172              		.thumb
 1173              		.thumb_func
 1174              		.type	Measure_Sweep, %function
 1175              	Measure_Sweep:
 1176              	.LFB73:
 132:main.c        **** 	VDAC_Vds_SetValue(90);
 1177              		.loc 2 132 0
 1178              		.cfi_startproc
 1179              		@ args = 0, pretend = 0, frame = 8
 1180              		@ frame_needed = 0, uses_anonymous_args = 0
 1181 0000 30B5     		push	{r4, r5, lr}
 1182              		.cfi_def_cfa_offset 12
 1183              		.cfi_offset 4, -12
 1184              		.cfi_offset 5, -8
 1185              		.cfi_offset 14, -4
ARM GAS  C:\Users\FRANKL~1\AppData\Local\Temp\ccXJlYBQ.s 			page 39


 1186 0002 83B0     		sub	sp, sp, #12
 1187              		.cfi_def_cfa_offset 24
 133:main.c        **** 	VDAC_Vgs_SetValue(254);
 1188              		.loc 2 133 0
 1189 0004 5A20     		movs	r0, #90
 1190 0006 FFF7FEFF 		bl	VDAC_Vds_SetValue
 1191              	.LVL140:
 134:main.c        **** 	
 1192              		.loc 2 134 0
 1193 000a FE20     		movs	r0, #254
 1194 000c FFF7FEFF 		bl	VDAC_Vgs_SetValue
 1195              	.LVL141:
 1196              	.LBB16:
 136:main.c        **** 		int32 IdsAverage = 0;
 1197              		.loc 2 136 0
 1198 0010 0024     		movs	r4, #0
 1199 0012 1EE0     		b	.L82
 1200              	.LVL142:
 1201              	.L83:
 1202              	.LBB17:
 137:main.c        **** 		int32 IdsStandardDeviation = 0;
 1203              		.loc 2 137 0 discriminator 3
 1204 0014 0023     		movs	r3, #0
 1205 0016 0093     		str	r3, [sp]
 138:main.c        **** 		
 1206              		.loc 2 138 0 discriminator 3
 1207 0018 02AD     		add	r5, sp, #8
 1208 001a 45F8043D 		str	r3, [r5, #-4]!
 140:main.c        **** 		
 1209              		.loc 2 140 0 discriminator 3
 1210 001e E0B2     		uxtb	r0, r4
 1211 0020 FFF7FEFF 		bl	VDAC_Vgs_SetValue
 1212              	.LVL143:
 142:main.c        **** 		
 1213              		.loc 2 142 0 discriminator 3
 1214 0024 6422     		movs	r2, #100
 1215 0026 2946     		mov	r1, r5
 1216 0028 6846     		mov	r0, sp
 1217 002a FFF7FEFF 		bl	ADC_Measure_uV
 1218              	.LVL144:
 146:main.c        **** 		USBUARTH_Send(TransmitBuffer, strlen(TransmitBuffer));
 1219              		.loc 2 146 0 discriminator 3
 1220 002e 0B4D     		ldr	r5, .L85
 1221 0030 009A     		ldr	r2, [sp]
 1222 0032 0B49     		ldr	r1, .L85+4
 1223 0034 2846     		mov	r0, r5
 1224 0036 FFF7FEFF 		bl	sprintf
 1225              	.LVL145:
 147:main.c        **** 		UART_1_PutString(TransmitBuffer);
 1226              		.loc 2 147 0 discriminator 3
 1227 003a 2846     		mov	r0, r5
 1228 003c FFF7FEFF 		bl	strlen
 1229              	.LVL146:
 1230 0040 81B2     		uxth	r1, r0
 1231 0042 2846     		mov	r0, r5
 1232 0044 FFF7FEFF 		bl	USBUARTH_Send
 1233              	.LVL147:
ARM GAS  C:\Users\FRANKL~1\AppData\Local\Temp\ccXJlYBQ.s 			page 40


 148:main.c        **** 	}
 1234              		.loc 2 148 0 discriminator 3
 1235 0048 2846     		mov	r0, r5
 1236 004a FFF7FEFF 		bl	UART_1_PutString
 1237              	.LVL148:
 1238              	.LBE17:
 136:main.c        **** 		int32 IdsAverage = 0;
 1239              		.loc 2 136 0 discriminator 3
 1240 004e 0134     		adds	r4, r4, #1
 1241              	.LVL149:
 1242 0050 A4B2     		uxth	r4, r4
 1243              	.LVL150:
 1244              	.L82:
 136:main.c        **** 		int32 IdsAverage = 0;
 1245              		.loc 2 136 0 is_stmt 0 discriminator 1
 1246 0052 FF2C     		cmp	r4, #255
 1247 0054 DED9     		bls	.L83
 1248              	.LBE16:
 150:main.c        **** 
 1249              		.loc 2 150 0 is_stmt 1
 1250 0056 03B0     		add	sp, sp, #12
 1251              		.cfi_def_cfa_offset 12
 1252              		@ sp needed
 1253 0058 30BD     		pop	{r4, r5, pc}
 1254              	.LVL151:
 1255              	.L86:
 1256 005a 00BF     		.align	2
 1257              	.L85:
 1258 005c 00000000 		.word	TransmitBuffer
 1259 0060 A8000000 		.word	.LC11
 1260              		.cfi_endproc
 1261              	.LFE73:
 1262              		.size	Measure_Sweep, .-Measure_Sweep
 1263              		.section	.text.Setup_Selectors,"ax",%progbits
 1264              		.align	2
 1265              		.global	Setup_Selectors
 1266              		.thumb
 1267              		.thumb_func
 1268              		.type	Setup_Selectors, %function
 1269              	Setup_Selectors:
 1270              	.LFB74:
 152:main.c        **** 	for (uint8 i = 0; i < SELECTOR_COUNT; i++) Setup_Selector_I2C_Struct(&selectors[i]);
 1271              		.loc 2 152 0
 1272              		.cfi_startproc
 1273              		@ args = 0, pretend = 0, frame = 0
 1274              		@ frame_needed = 0, uses_anonymous_args = 0
 1275 0000 10B5     		push	{r4, lr}
 1276              		.cfi_def_cfa_offset 8
 1277              		.cfi_offset 4, -8
 1278              		.cfi_offset 14, -4
 1279              	.LVL152:
 1280              	.LBB18:
 153:main.c        **** 	
 1281              		.loc 2 153 0
 1282 0002 0024     		movs	r4, #0
 1283 0004 07E0     		b	.L88
 1284              	.LVL153:
ARM GAS  C:\Users\FRANKL~1\AppData\Local\Temp\ccXJlYBQ.s 			page 41


 1285              	.L89:
 153:main.c        **** 	
 1286              		.loc 2 153 0 is_stmt 0 discriminator 3
 1287 0006 C4EB0423 		rsb	r3, r4, r4, lsl #8
 1288 000a 0B48     		ldr	r0, .L91
 1289 000c 1844     		add	r0, r0, r3
 1290 000e FFF7FEFF 		bl	Setup_Selector_I2C_Struct
 1291              	.LVL154:
 1292 0012 0134     		adds	r4, r4, #1
 1293              	.LVL155:
 1294 0014 E4B2     		uxtb	r4, r4
 1295              	.LVL156:
 1296              	.L88:
 153:main.c        **** 	
 1297              		.loc 2 153 0 discriminator 1
 1298 0016 032C     		cmp	r4, #3
 1299 0018 F5D9     		bls	.L89
 1300              	.LBE18:
 155:main.c        **** 	selectors[1].busAddress = 0x11;
 1301              		.loc 2 155 0 is_stmt 1
 1302 001a 074B     		ldr	r3, .L91
 1303 001c 6622     		movs	r2, #102
 1304 001e 83F8FE20 		strb	r2, [r3, #254]
 156:main.c        **** 	selectors[2].busAddress = 0x44;
 1305              		.loc 2 156 0
 1306 0022 1122     		movs	r2, #17
 1307 0024 83F8FD21 		strb	r2, [r3, #509]
 157:main.c        **** 	selectors[3].busAddress = 0x22;
 1308              		.loc 2 157 0
 1309 0028 4422     		movs	r2, #68
 1310 002a 83F8FC22 		strb	r2, [r3, #764]
 158:main.c        **** }
 1311              		.loc 2 158 0
 1312 002e 2222     		movs	r2, #34
 1313 0030 83F8FB23 		strb	r2, [r3, #1019]
 1314 0034 10BD     		pop	{r4, pc}
 1315              	.LVL157:
 1316              	.L92:
 1317 0036 00BF     		.align	2
 1318              	.L91:
 1319 0038 00000000 		.word	selectors
 1320              		.cfi_endproc
 1321              	.LFE74:
 1322              		.size	Setup_Selectors, .-Setup_Selectors
 1323              		.section	.text.Connect_Channel_On_Intermediate,"ax",%progbits
 1324              		.align	2
 1325              		.global	Connect_Channel_On_Intermediate
 1326              		.thumb
 1327              		.thumb_func
 1328              		.type	Connect_Channel_On_Intermediate, %function
 1329              	Connect_Channel_On_Intermediate:
 1330              	.LFB75:
 161:main.c        **** 	channel--;
 1331              		.loc 2 161 0
 1332              		.cfi_startproc
 1333              		@ args = 0, pretend = 0, frame = 0
 1334              		@ frame_needed = 0, uses_anonymous_args = 0
ARM GAS  C:\Users\FRANKL~1\AppData\Local\Temp\ccXJlYBQ.s 			page 42


 1335              	.LVL158:
 1336 0000 08B5     		push	{r3, lr}
 1337              		.cfi_def_cfa_offset 8
 1338              		.cfi_offset 3, -8
 1339              		.cfi_offset 14, -4
 162:main.c        **** 	intermediate--;
 1340              		.loc 2 162 0
 1341 0002 0138     		subs	r0, r0, #1
 1342              	.LVL159:
 1343 0004 C3B2     		uxtb	r3, r0
 1344              	.LVL160:
 165:main.c        **** 	if (intermediate >= INTERMEDIATE_COUNT) return;
 1345              		.loc 2 165 0
 1346 0006 212B     		cmp	r3, #33
 1347 0008 0CD8     		bhi	.L93
 1348 000a 0139     		subs	r1, r1, #1
 1349              	.LVL161:
 1350 000c C8B2     		uxtb	r0, r1
 166:main.c        **** 	
 1351              		.loc 2 166 0
 1352 000e 0328     		cmp	r0, #3
 1353 0010 08D8     		bhi	.L93
 168:main.c        **** 	Update_Selector(intermediate);
 1354              		.loc 2 168 0
 1355 0012 C0EB0022 		rsb	r2, r0, r0, lsl #8
 1356 0016 0449     		ldr	r1, .L96
 1357 0018 0A44     		add	r2, r2, r1
 1358 001a 1344     		add	r3, r3, r2
 1359              	.LVL162:
 1360 001c C022     		movs	r2, #192
 1361 001e 5A70     		strb	r2, [r3, #1]
 169:main.c        **** }
 1362              		.loc 2 169 0
 1363 0020 FFF7FEFF 		bl	Update_Selector
 1364              	.LVL163:
 1365              	.L93:
 1366 0024 08BD     		pop	{r3, pc}
 1367              	.L97:
 1368 0026 00BF     		.align	2
 1369              	.L96:
 1370 0028 00000000 		.word	selectors
 1371              		.cfi_endproc
 1372              	.LFE75:
 1373              		.size	Connect_Channel_On_Intermediate, .-Connect_Channel_On_Intermediate
 1374              		.section	.text.Connect_Contact_To_Intermediate,"ax",%progbits
 1375              		.align	2
 1376              		.global	Connect_Contact_To_Intermediate
 1377              		.thumb
 1378              		.thumb_func
 1379              		.type	Connect_Contact_To_Intermediate, %function
 1380              	Connect_Contact_To_Intermediate:
 1381              	.LFB76:
 172:main.c        **** 	contact--;
 1382              		.loc 2 172 0
 1383              		.cfi_startproc
 1384              		@ args = 0, pretend = 0, frame = 0
 1385              		@ frame_needed = 0, uses_anonymous_args = 0
ARM GAS  C:\Users\FRANKL~1\AppData\Local\Temp\ccXJlYBQ.s 			page 43


 1386              	.LVL164:
 173:main.c        **** 	intermediate--;
 1387              		.loc 2 173 0
 1388 0000 0138     		subs	r0, r0, #1
 1389              	.LVL165:
 1390 0002 C0B2     		uxtb	r0, r0
 1391              	.LVL166:
 176:main.c        **** 	if (intermediate >= INTERMEDIATE_COUNT) return;
 1392              		.loc 2 176 0
 1393 0004 3F28     		cmp	r0, #63
 1394 0006 13D8     		bhi	.L103
 172:main.c        **** 	contact--;
 1395              		.loc 2 172 0
 1396 0008 08B5     		push	{r3, lr}
 1397              		.cfi_def_cfa_offset 8
 1398              		.cfi_offset 3, -8
 1399              		.cfi_offset 14, -4
 1400 000a 4B1E     		subs	r3, r1, #1
 1401 000c DBB2     		uxtb	r3, r3
 177:main.c        **** 	
 1402              		.loc 2 177 0
 1403 000e 032B     		cmp	r3, #3
 1404 0010 0DD8     		bhi	.L98
 1405              	.LVL167:
 180:main.c        **** 		offset = CONTACT_COUNT/2;
 1406              		.loc 2 180 0
 1407 0012 012B     		cmp	r3, #1
 1408 0014 03D9     		bls	.L100
 1409              	.LVL168:
 182:main.c        **** 	} else {
 1410              		.loc 2 182 0
 1411 0016 1F28     		cmp	r0, #31
 1412 0018 09D9     		bls	.L98
 181:main.c        **** 		if (contact < CONTACT_COUNT/2) return;
 1413              		.loc 2 181 0
 1414 001a 2023     		movs	r3, #32
 1415 001c 02E0     		b	.L101
 1416              	.LVL169:
 1417              	.L100:
 184:main.c        **** 	}
 1418              		.loc 2 184 0
 1419 001e 1F28     		cmp	r0, #31
 1420 0020 05D8     		bhi	.L98
 179:main.c        **** 	if (intermediate >= INTERMEDIATE_COUNT/2) {
 1421              		.loc 2 179 0
 1422 0022 0023     		movs	r3, #0
 1423              	.LVL170:
 1424              	.L101:
 187:main.c        **** }
 1425              		.loc 2 187 0
 1426 0024 C01A     		subs	r0, r0, r3
 1427              	.LVL171:
 1428 0026 0130     		adds	r0, r0, #1
 1429 0028 C0B2     		uxtb	r0, r0
 1430 002a FFF7FEFF 		bl	Connect_Channel_On_Intermediate
 1431              	.LVL172:
 1432              	.L98:
ARM GAS  C:\Users\FRANKL~1\AppData\Local\Temp\ccXJlYBQ.s 			page 44


 1433 002e 08BD     		pop	{r3, pc}
 1434              	.LVL173:
 1435              	.L103:
 1436              		.cfi_def_cfa_offset 0
 1437              		.cfi_restore 3
 1438              		.cfi_restore 14
 1439 0030 7047     		bx	lr
 1440              		.cfi_endproc
 1441              	.LFE76:
 1442              		.size	Connect_Contact_To_Intermediate, .-Connect_Contact_To_Intermediate
 1443 0032 00BF     		.section	.text.Disconnect_Contact_From_Intermediate,"ax",%progbits
 1444              		.align	2
 1445              		.global	Disconnect_Contact_From_Intermediate
 1446              		.thumb
 1447              		.thumb_func
 1448              		.type	Disconnect_Contact_From_Intermediate, %function
 1449              	Disconnect_Contact_From_Intermediate:
 1450              	.LFB77:
 190:main.c        **** 	contact--;
 1451              		.loc 2 190 0
 1452              		.cfi_startproc
 1453              		@ args = 0, pretend = 0, frame = 0
 1454              		@ frame_needed = 0, uses_anonymous_args = 0
 1455              	.LVL174:
 1456 0000 08B5     		push	{r3, lr}
 1457              		.cfi_def_cfa_offset 8
 1458              		.cfi_offset 3, -8
 1459              		.cfi_offset 14, -4
 191:main.c        **** 	intermediate--;
 1460              		.loc 2 191 0
 1461 0002 0138     		subs	r0, r0, #1
 1462              	.LVL175:
 1463 0004 C3B2     		uxtb	r3, r0
 1464              	.LVL176:
 194:main.c        **** 	if (intermediate >= INTERMEDIATE_COUNT) return;
 1465              		.loc 2 194 0
 1466 0006 3F2B     		cmp	r3, #63
 1467 0008 16D8     		bhi	.L104
 1468 000a 0139     		subs	r1, r1, #1
 1469              	.LVL177:
 1470 000c C8B2     		uxtb	r0, r1
 195:main.c        **** 	
 1471              		.loc 2 195 0
 1472 000e 0328     		cmp	r0, #3
 1473 0010 12D8     		bhi	.L104
 1474              	.LVL178:
 198:main.c        **** 		offset = CONTACT_COUNT/2;
 1475              		.loc 2 198 0
 1476 0012 0128     		cmp	r0, #1
 1477 0014 03D9     		bls	.L106
 1478              	.LVL179:
 200:main.c        **** 	} else {
 1479              		.loc 2 200 0
 1480 0016 1F2B     		cmp	r3, #31
 1481 0018 0ED9     		bls	.L104
 199:main.c        **** 		if (contact < CONTACT_COUNT/2) return;
 1482              		.loc 2 199 0
ARM GAS  C:\Users\FRANKL~1\AppData\Local\Temp\ccXJlYBQ.s 			page 45


 1483 001a 2022     		movs	r2, #32
 1484 001c 02E0     		b	.L107
 1485              	.LVL180:
 1486              	.L106:
 202:main.c        **** 	}
 1487              		.loc 2 202 0
 1488 001e 1F2B     		cmp	r3, #31
 1489 0020 0AD8     		bhi	.L104
 197:main.c        **** 	if (intermediate >= INTERMEDIATE_COUNT/2) {
 1490              		.loc 2 197 0
 1491 0022 0022     		movs	r2, #0
 1492              	.LVL181:
 1493              	.L107:
 205:main.c        **** 	
 1494              		.loc 2 205 0
 1495 0024 9B1A     		subs	r3, r3, r2
 1496              	.LVL182:
 1497 0026 C0EB0022 		rsb	r2, r0, r0, lsl #8
 1498              	.LVL183:
 1499 002a 0449     		ldr	r1, .L109
 1500 002c 0A44     		add	r2, r2, r1
 1501 002e 1344     		add	r3, r3, r2
 1502 0030 D122     		movs	r2, #209
 1503 0032 5A70     		strb	r2, [r3, #1]
 207:main.c        **** }
 1504              		.loc 2 207 0
 1505 0034 FFF7FEFF 		bl	Update_Selector
 1506              	.LVL184:
 1507              	.L104:
 1508 0038 08BD     		pop	{r3, pc}
 1509              	.L110:
 1510 003a 00BF     		.align	2
 1511              	.L109:
 1512 003c 00000000 		.word	selectors
 1513              		.cfi_endproc
 1514              	.LFE77:
 1515              		.size	Disconnect_Contact_From_Intermediate, .-Disconnect_Contact_From_Intermediate
 1516              		.section	.text.Disconnect_Contact_From_All_Intermediates,"ax",%progbits
 1517              		.align	2
 1518              		.global	Disconnect_Contact_From_All_Intermediates
 1519              		.thumb
 1520              		.thumb_func
 1521              		.type	Disconnect_Contact_From_All_Intermediates, %function
 1522              	Disconnect_Contact_From_All_Intermediates:
 1523              	.LFB78:
 210:main.c        **** 	contact--;
 1524              		.loc 2 210 0
 1525              		.cfi_startproc
 1526              		@ args = 0, pretend = 0, frame = 0
 1527              		@ frame_needed = 0, uses_anonymous_args = 0
 1528              	.LVL185:
 1529 0000 38B5     		push	{r3, r4, r5, lr}
 1530              		.cfi_def_cfa_offset 16
 1531              		.cfi_offset 3, -16
 1532              		.cfi_offset 4, -12
 1533              		.cfi_offset 5, -8
 1534              		.cfi_offset 14, -4
ARM GAS  C:\Users\FRANKL~1\AppData\Local\Temp\ccXJlYBQ.s 			page 46


 211:main.c        **** 	
 1535              		.loc 2 211 0
 1536 0002 0138     		subs	r0, r0, #1
 1537              	.LVL186:
 1538 0004 C5B2     		uxtb	r5, r0
 1539              	.LVL187:
 1540              	.LBB19:
 213:main.c        **** 		
 1541              		.loc 2 213 0
 1542 0006 0024     		movs	r4, #0
 1543 0008 15E0     		b	.L112
 1544              	.LVL188:
 1545              	.L116:
 1546              	.LBB20:
 216:main.c        **** 			offset = CONTACT_COUNT/2;
 1547              		.loc 2 216 0
 1548 000a 012C     		cmp	r4, #1
 1549 000c 03D9     		bls	.L113
 1550              	.LVL189:
 218:main.c        **** 		} else {
 1551              		.loc 2 218 0
 1552 000e 1F2D     		cmp	r5, #31
 1553 0010 0FD9     		bls	.L114
 217:main.c        **** 			if (contact < CONTACT_COUNT/2) continue;
 1554              		.loc 2 217 0
 1555 0012 2023     		movs	r3, #32
 1556 0014 02E0     		b	.L115
 1557              	.LVL190:
 1558              	.L113:
 220:main.c        **** 		}
 1559              		.loc 2 220 0
 1560 0016 1F2D     		cmp	r5, #31
 1561 0018 0BD8     		bhi	.L114
 215:main.c        **** 		if (intermediate >= INTERMEDIATE_COUNT/2) {
 1562              		.loc 2 215 0
 1563 001a 0023     		movs	r3, #0
 1564              	.LVL191:
 1565              	.L115:
 223:main.c        **** 		
 1566              		.loc 2 223 0
 1567 001c EA1A     		subs	r2, r5, r3
 1568 001e C4EB0423 		rsb	r3, r4, r4, lsl #8
 1569              	.LVL192:
 1570 0022 0649     		ldr	r1, .L118
 1571 0024 0B44     		add	r3, r3, r1
 1572 0026 1344     		add	r3, r3, r2
 1573 0028 D122     		movs	r2, #209
 1574 002a 5A70     		strb	r2, [r3, #1]
 225:main.c        **** 	}
 1575              		.loc 2 225 0
 1576 002c 2046     		mov	r0, r4
 1577 002e FFF7FEFF 		bl	Update_Selector
 1578              	.LVL193:
 1579              	.L114:
 1580              	.LBE20:
 213:main.c        **** 		
 1581              		.loc 2 213 0 discriminator 2
ARM GAS  C:\Users\FRANKL~1\AppData\Local\Temp\ccXJlYBQ.s 			page 47


 1582 0032 0134     		adds	r4, r4, #1
 1583              	.LVL194:
 1584 0034 E4B2     		uxtb	r4, r4
 1585              	.LVL195:
 1586              	.L112:
 213:main.c        **** 		
 1587              		.loc 2 213 0 is_stmt 0 discriminator 1
 1588 0036 032C     		cmp	r4, #3
 1589 0038 E7D9     		bls	.L116
 1590              	.LBE19:
 227:main.c        **** 
 1591              		.loc 2 227 0 is_stmt 1
 1592 003a 38BD     		pop	{r3, r4, r5, pc}
 1593              	.LVL196:
 1594              	.L119:
 1595              		.align	2
 1596              	.L118:
 1597 003c 00000000 		.word	selectors
 1598              		.cfi_endproc
 1599              	.LFE78:
 1600              		.size	Disconnect_Contact_From_All_Intermediates, .-Disconnect_Contact_From_All_Intermediates
 1601              		.section	.text.Disconnect_All_Contacts_From_All_Intermediates,"ax",%progbits
 1602              		.align	2
 1603              		.global	Disconnect_All_Contacts_From_All_Intermediates
 1604              		.thumb
 1605              		.thumb_func
 1606              		.type	Disconnect_All_Contacts_From_All_Intermediates, %function
 1607              	Disconnect_All_Contacts_From_All_Intermediates:
 1608              	.LFB79:
 229:main.c        **** 	for (uint8 intermediate = 0; intermediate < INTERMEDIATE_COUNT/**//2; intermediate++) {
 1609              		.loc 2 229 0
 1610              		.cfi_startproc
 1611              		@ args = 0, pretend = 0, frame = 0
 1612              		@ frame_needed = 0, uses_anonymous_args = 0
 1613 0000 10B5     		push	{r4, lr}
 1614              		.cfi_def_cfa_offset 8
 1615              		.cfi_offset 4, -8
 1616              		.cfi_offset 14, -4
 1617              	.LVL197:
 1618              	.LBB21:
 230:main.c        **** 		for (uint8 contact = 0; contact < CONTACT_COUNT/2; contact++) {
 1619              		.loc 2 230 0
 1620 0002 0024     		movs	r4, #0
 1621 0004 11E0     		b	.L121
 1622              	.LVL198:
 1623              	.L122:
 1624              	.LBB22:
 232:main.c        **** 		}
 1625              		.loc 2 232 0 discriminator 3
 1626 0006 C4EB0422 		rsb	r2, r4, r4, lsl #8
 1627 000a 0949     		ldr	r1, .L126
 1628 000c 0A44     		add	r2, r2, r1
 1629 000e 1A44     		add	r2, r2, r3
 1630 0010 D121     		movs	r1, #209
 1631 0012 5170     		strb	r1, [r2, #1]
 231:main.c        **** 			selectors[intermediate].write.data[contact] = CONTACT_DISCONNECT_CODE;
 1632              		.loc 2 231 0 discriminator 3
ARM GAS  C:\Users\FRANKL~1\AppData\Local\Temp\ccXJlYBQ.s 			page 48


 1633 0014 0133     		adds	r3, r3, #1
 1634              	.LVL199:
 1635 0016 DBB2     		uxtb	r3, r3
 1636              	.LVL200:
 1637 0018 00E0     		b	.L123
 1638              	.LVL201:
 1639              	.L124:
 1640              	.LBE22:
 1641 001a 0023     		movs	r3, #0
 1642              	.L123:
 1643              	.LVL202:
 1644              	.LBB23:
 231:main.c        **** 			selectors[intermediate].write.data[contact] = CONTACT_DISCONNECT_CODE;
 1645              		.loc 2 231 0 is_stmt 0 discriminator 1
 1646 001c 1F2B     		cmp	r3, #31
 1647 001e F2D9     		bls	.L122
 1648              	.LBE23:
 235:main.c        **** 	}
 1649              		.loc 2 235 0 is_stmt 1 discriminator 2
 1650 0020 2046     		mov	r0, r4
 1651 0022 FFF7FEFF 		bl	Update_Selector
 1652              	.LVL203:
 230:main.c        **** 		for (uint8 contact = 0; contact < CONTACT_COUNT/2; contact++) {
 1653              		.loc 2 230 0 discriminator 2
 1654 0026 0134     		adds	r4, r4, #1
 1655              	.LVL204:
 1656 0028 E4B2     		uxtb	r4, r4
 1657              	.LVL205:
 1658              	.L121:
 230:main.c        **** 		for (uint8 contact = 0; contact < CONTACT_COUNT/2; contact++) {
 1659              		.loc 2 230 0 is_stmt 0 discriminator 1
 1660 002a 012C     		cmp	r4, #1
 1661 002c F5D9     		bls	.L124
 1662              	.LBE21:
 237:main.c        **** 
 1663              		.loc 2 237 0 is_stmt 1
 1664 002e 10BD     		pop	{r4, pc}
 1665              	.LVL206:
 1666              	.L127:
 1667              		.align	2
 1668              	.L126:
 1669 0030 00000000 		.word	selectors
 1670              		.cfi_endproc
 1671              	.LFE79:
 1672              		.size	Disconnect_All_Contacts_From_All_Intermediates, .-Disconnect_All_Contacts_From_All_Intermedi
 1673              		.section	.text.Disconnect_All_Contacts_From_Intermediate,"ax",%progbits
 1674              		.align	2
 1675              		.global	Disconnect_All_Contacts_From_Intermediate
 1676              		.thumb
 1677              		.thumb_func
 1678              		.type	Disconnect_All_Contacts_From_Intermediate, %function
 1679              	Disconnect_All_Contacts_From_Intermediate:
 1680              	.LFB80:
 239:main.c        **** 	intermediate--;
 1681              		.loc 2 239 0
 1682              		.cfi_startproc
 1683              		@ args = 0, pretend = 0, frame = 0
ARM GAS  C:\Users\FRANKL~1\AppData\Local\Temp\ccXJlYBQ.s 			page 49


 1684              		@ frame_needed = 0, uses_anonymous_args = 0
 1685              	.LVL207:
 1686 0000 08B5     		push	{r3, lr}
 1687              		.cfi_def_cfa_offset 8
 1688              		.cfi_offset 3, -8
 1689              		.cfi_offset 14, -4
 240:main.c        **** 	
 1690              		.loc 2 240 0
 1691 0002 0138     		subs	r0, r0, #1
 1692              	.LVL208:
 1693 0004 C0B2     		uxtb	r0, r0
 1694              	.LVL209:
 1695              	.LBB24:
 242:main.c        **** 		selectors[intermediate].write.data[contact] = CONTACT_DISCONNECT_CODE;
 1696              		.loc 2 242 0
 1697 0006 0023     		movs	r3, #0
 1698 0008 08E0     		b	.L129
 1699              	.LVL210:
 1700              	.L130:
 243:main.c        **** 	}
 1701              		.loc 2 243 0 discriminator 3
 1702 000a C0EB0022 		rsb	r2, r0, r0, lsl #8
 1703 000e 0649     		ldr	r1, .L132
 1704 0010 0A44     		add	r2, r2, r1
 1705 0012 1A44     		add	r2, r2, r3
 1706 0014 D121     		movs	r1, #209
 1707 0016 5170     		strb	r1, [r2, #1]
 242:main.c        **** 		selectors[intermediate].write.data[contact] = CONTACT_DISCONNECT_CODE;
 1708              		.loc 2 242 0 discriminator 3
 1709 0018 0133     		adds	r3, r3, #1
 1710              	.LVL211:
 1711 001a DBB2     		uxtb	r3, r3
 1712              	.LVL212:
 1713              	.L129:
 242:main.c        **** 		selectors[intermediate].write.data[contact] = CONTACT_DISCONNECT_CODE;
 1714              		.loc 2 242 0 is_stmt 0 discriminator 1
 1715 001c 1F2B     		cmp	r3, #31
 1716 001e F4D9     		bls	.L130
 1717              	.LBE24:
 246:main.c        **** }
 1718              		.loc 2 246 0 is_stmt 1
 1719 0020 FFF7FEFF 		bl	Update_Selector
 1720              	.LVL213:
 1721 0024 08BD     		pop	{r3, pc}
 1722              	.L133:
 1723 0026 00BF     		.align	2
 1724              	.L132:
 1725 0028 00000000 		.word	selectors
 1726              		.cfi_endproc
 1727              	.LFE80:
 1728              		.size	Disconnect_All_Contacts_From_Intermediate, .-Disconnect_All_Contacts_From_Intermediate
 1729              		.section	.text.Connect_Intermediate,"ax",%progbits
 1730              		.align	2
 1731              		.global	Connect_Intermediate
 1732              		.thumb
 1733              		.thumb_func
 1734              		.type	Connect_Intermediate, %function
ARM GAS  C:\Users\FRANKL~1\AppData\Local\Temp\ccXJlYBQ.s 			page 50


 1735              	Connect_Intermediate:
 1736              	.LFB81:
 249:main.c        **** 	switch (intermediate) {
 1737              		.loc 2 249 0
 1738              		.cfi_startproc
 1739              		@ args = 0, pretend = 0, frame = 0
 1740              		@ frame_needed = 0, uses_anonymous_args = 0
 1741              	.LVL214:
 1742 0000 08B5     		push	{r3, lr}
 1743              		.cfi_def_cfa_offset 8
 1744              		.cfi_offset 3, -8
 1745              		.cfi_offset 14, -4
 250:main.c        **** 		case 1: Connect_Channel_On_Intermediate(33, 1); break;
 1746              		.loc 2 250 0
 1747 0002 0138     		subs	r0, r0, #1
 1748              	.LVL215:
 1749 0004 0328     		cmp	r0, #3
 1750 0006 16D8     		bhi	.L134
 1751 0008 DFE800F0 		tbb	[pc, r0]
 1752              	.L137:
 1753 000c 02       		.byte	(.L136-.L137)/2
 1754 000d 07       		.byte	(.L138-.L137)/2
 1755 000e 0C       		.byte	(.L139-.L137)/2
 1756 000f 11       		.byte	(.L140-.L137)/2
 1757              		.p2align 1
 1758              	.L136:
 251:main.c        **** 		case 2: Connect_Channel_On_Intermediate(33, 2); break;
 1759              		.loc 2 251 0
 1760 0010 0121     		movs	r1, #1
 1761 0012 2120     		movs	r0, #33
 1762 0014 FFF7FEFF 		bl	Connect_Channel_On_Intermediate
 1763              	.LVL216:
 1764 0018 08BD     		pop	{r3, pc}
 1765              	.L138:
 252:main.c        **** 		case 3: Connect_Channel_On_Intermediate(33, 3); break;
 1766              		.loc 2 252 0
 1767 001a 0221     		movs	r1, #2
 1768 001c 2120     		movs	r0, #33
 1769 001e FFF7FEFF 		bl	Connect_Channel_On_Intermediate
 1770              	.LVL217:
 1771 0022 08BD     		pop	{r3, pc}
 1772              	.L139:
 253:main.c        **** 		case 4: Connect_Channel_On_Intermediate(33, 4); break;
 1773              		.loc 2 253 0
 1774 0024 0321     		movs	r1, #3
 1775 0026 2120     		movs	r0, #33
 1776 0028 FFF7FEFF 		bl	Connect_Channel_On_Intermediate
 1777              	.LVL218:
 1778 002c 08BD     		pop	{r3, pc}
 1779              	.L140:
 254:main.c        **** 		default: return;
 1780              		.loc 2 254 0
 1781 002e 0421     		movs	r1, #4
 1782 0030 2120     		movs	r0, #33
 1783 0032 FFF7FEFF 		bl	Connect_Channel_On_Intermediate
 1784              	.LVL219:
 1785              	.L134:
ARM GAS  C:\Users\FRANKL~1\AppData\Local\Temp\ccXJlYBQ.s 			page 51


 1786 0036 08BD     		pop	{r3, pc}
 1787              		.cfi_endproc
 1788              	.LFE81:
 1789              		.size	Connect_Intermediate, .-Connect_Intermediate
 1790              		.section	.text.Connect_Intermediates,"ax",%progbits
 1791              		.align	2
 1792              		.global	Connect_Intermediates
 1793              		.thumb
 1794              		.thumb_func
 1795              		.type	Connect_Intermediates, %function
 1796              	Connect_Intermediates:
 1797              	.LFB82:
 259:main.c        **** 	for (uint8 i = 1; i <= INTERMEDIATE_COUNT/**//2; i++) {
 1798              		.loc 2 259 0
 1799              		.cfi_startproc
 1800              		@ args = 0, pretend = 0, frame = 0
 1801              		@ frame_needed = 0, uses_anonymous_args = 0
 1802 0000 10B5     		push	{r4, lr}
 1803              		.cfi_def_cfa_offset 8
 1804              		.cfi_offset 4, -8
 1805              		.cfi_offset 14, -4
 1806              	.LVL220:
 1807              	.LBB25:
 260:main.c        **** 		Connect_Intermediate(i);
 1808              		.loc 2 260 0
 1809 0002 0124     		movs	r4, #1
 1810 0004 04E0     		b	.L143
 1811              	.LVL221:
 1812              	.L144:
 261:main.c        **** 	}
 1813              		.loc 2 261 0 discriminator 3
 1814 0006 2046     		mov	r0, r4
 1815 0008 FFF7FEFF 		bl	Connect_Intermediate
 1816              	.LVL222:
 260:main.c        **** 		Connect_Intermediate(i);
 1817              		.loc 2 260 0 discriminator 3
 1818 000c 0134     		adds	r4, r4, #1
 1819              	.LVL223:
 1820 000e E4B2     		uxtb	r4, r4
 1821              	.LVL224:
 1822              	.L143:
 260:main.c        **** 		Connect_Intermediate(i);
 1823              		.loc 2 260 0 is_stmt 0 discriminator 1
 1824 0010 022C     		cmp	r4, #2
 1825 0012 F8D9     		bls	.L144
 1826              	.LBE25:
 263:main.c        **** 
 1827              		.loc 2 263 0 is_stmt 1
 1828 0014 10BD     		pop	{r4, pc}
 1829              		.cfi_endproc
 1830              	.LFE82:
 1831              		.size	Connect_Intermediates, .-Connect_Intermediates
 1832              		.global	__aeabi_i2d
 1833              		.global	__aeabi_dcmpgt
 1834              		.global	__aeabi_f2d
 1835              		.global	__aeabi_dsub
 1836              		.global	__aeabi_ddiv
ARM GAS  C:\Users\FRANKL~1\AppData\Local\Temp\ccXJlYBQ.s 			page 52


 1837              		.global	__aeabi_dmul
 1838              		.global	__aeabi_dadd
 1839              		.global	__aeabi_d2f
 1840 0016 00BF     		.section	.text.Measure_Current_Vss,"ax",%progbits
 1841              		.align	2
 1842              		.global	Measure_Current_Vss
 1843              		.thumb
 1844              		.thumb_func
 1845              		.type	Measure_Current_Vss, %function
 1846              	Measure_Current_Vss:
 1847              	.LFB83:
 265:main.c        **** 	Compliance_Reached = 0;
 1848              		.loc 2 265 0
 1849              		.cfi_startproc
 1850              		@ args = 0, pretend = 0, frame = 24
 1851              		@ frame_needed = 0, uses_anonymous_args = 0
 1852              	.LVL225:
 1853 0000 2DE9F04F 		push	{r4, r5, r6, r7, r8, r9, r10, fp, lr}
 1854              		.cfi_def_cfa_offset 36
 1855              		.cfi_offset 4, -36
 1856              		.cfi_offset 5, -32
 1857              		.cfi_offset 6, -28
 1858              		.cfi_offset 7, -24
 1859              		.cfi_offset 8, -20
 1860              		.cfi_offset 9, -16
 1861              		.cfi_offset 10, -12
 1862              		.cfi_offset 11, -8
 1863              		.cfi_offset 14, -4
 1864 0004 87B0     		sub	sp, sp, #28
 1865              		.cfi_def_cfa_offset 64
 1866 0006 0290     		str	r0, [sp, #8]
 1867 0008 0391     		str	r1, [sp, #12]
 1868 000a 9346     		mov	fp, r2
 266:main.c        **** 	
 1869              		.loc 2 266 0
 1870 000c 0023     		movs	r3, #0
 1871 000e 3E4A     		ldr	r2, .L155+8
 1872              	.LVL226:
 1873 0010 1370     		strb	r3, [r2]
 269:main.c        **** 	int32 voltageSD = 0;
 1874              		.loc 2 269 0
 1875 0012 0593     		str	r3, [sp, #20]
 270:main.c        **** 	
 1876              		.loc 2 270 0
 1877 0014 06A9     		add	r1, sp, #24
 1878              	.LVL227:
 1879 0016 41F8083D 		str	r3, [r1, #-8]!
 1880              	.LVL228:
 282:main.c        **** 	
 1881              		.loc 2 282 0
 1882 001a 0322     		movs	r2, #3
 1883 001c 05A8     		add	r0, sp, #20
 1884              	.LVL229:
 1885 001e FFF7FEFF 		bl	ADC_Measure_uV
 1886              	.LVL230:
 1887              	.LBB26:
 285:main.c        **** 		ADC_Measure_uV(&voltage, &voltageSD, 1);
ARM GAS  C:\Users\FRANKL~1\AppData\Local\Temp\ccXJlYBQ.s 			page 53


 1888              		.loc 2 285 0
 1889 0022 0124     		movs	r4, #1
 1890              	.LBE26:
 276:main.c        **** 	
 1891              		.loc 2 276 0
 1892 0024 4FF00008 		mov	r8, #0
 275:main.c        **** 	float currentStdDev = 0;
 1893              		.loc 2 275 0
 1894 0028 C146     		mov	r9, r8
 1895              	.LBB27:
 285:main.c        **** 		ADC_Measure_uV(&voltage, &voltageSD, 1);
 1896              		.loc 2 285 0
 1897 002a 5DE0     		b	.L147
 1898              	.LVL231:
 1899              	.L151:
 286:main.c        **** 		
 1900              		.loc 2 286 0
 1901 002c 0122     		movs	r2, #1
 1902 002e 04A9     		add	r1, sp, #16
 1903 0030 05A8     		add	r0, sp, #20
 1904 0032 FFF7FEFF 		bl	ADC_Measure_uV
 1905              	.LVL232:
 288:main.c        **** 		
 1906              		.loc 2 288 0
 1907 0036 0598     		ldr	r0, [sp, #20]
 1908 0038 FFF7FEFF 		bl	__aeabi_i2f
 1909              	.LVL233:
 1910 003c 3349     		ldr	r1, .L155+12
 1911 003e FFF7FEFF 		bl	__aeabi_fmul
 1912              	.LVL234:
 1913 0042 0546     		mov	r5, r0
 1914              	.LVL235:
 290:main.c        **** 			Compliance_Reached += 1;
 1915              		.loc 2 290 0
 1916 0044 FFF7FEFF 		bl	__aeabi_f2iz
 1917              	.LVL236:
 1918 0048 0028     		cmp	r0, #0
 1919 004a B8BF     		it	lt
 1920 004c 4042     		rsblt	r0, r0, #0
 1921 004e FFF7FEFF 		bl	__aeabi_i2d
 1922              	.LVL237:
 1923 0052 2BA3     		adr	r3, .L155
 1924 0054 D3E90023 		ldrd	r2, [r3]
 1925 0058 FFF7FEFF 		bl	__aeabi_dcmpgt
 1926              	.LVL238:
 1927 005c 20B1     		cbz	r0, .L153
 291:main.c        **** 			break;
 1928              		.loc 2 291 0
 1929 005e 2A4A     		ldr	r2, .L155+8
 1930 0060 1378     		ldrb	r3, [r2]	@ zero_extendqisi2
 1931 0062 0133     		adds	r3, r3, #1
 1932 0064 1370     		strb	r3, [r2]
 292:main.c        **** 		} else {
 1933              		.loc 2 292 0
 1934 0066 41E0     		b	.L150
 1935              	.L153:
 294:main.c        **** 		}
ARM GAS  C:\Users\FRANKL~1\AppData\Local\Temp\ccXJlYBQ.s 			page 54


 1936              		.loc 2 294 0 discriminator 2
 1937 0068 0022     		movs	r2, #0
 1938 006a 274B     		ldr	r3, .L155+8
 1939 006c 1A70     		strb	r2, [r3]
 297:main.c        **** 		currentAverage += (currentNow - currentAverage)/(float)i;
 1940              		.loc 2 297 0 discriminator 2
 1941 006e 2046     		mov	r0, r4
 1942 0070 FFF7FEFF 		bl	__aeabi_ui2f
 1943              	.LVL239:
 1944 0074 8246     		mov	r10, r0
 1945 0076 FFF7FEFF 		bl	__aeabi_f2d
 1946              	.LVL240:
 1947 007a 0646     		mov	r6, r0
 1948 007c 0F46     		mov	r7, r1
 1949 007e 0022     		movs	r2, #0
 1950 0080 234B     		ldr	r3, .L155+16
 1951 0082 FFF7FEFF 		bl	__aeabi_dsub
 1952              	.LVL241:
 1953 0086 3246     		mov	r2, r6
 1954 0088 3B46     		mov	r3, r7
 1955 008a FFF7FEFF 		bl	__aeabi_ddiv
 1956              	.LVL242:
 1957 008e CDE90001 		strd	r0, [sp]
 1958 0092 4946     		mov	r1, r9
 1959 0094 2846     		mov	r0, r5
 1960 0096 FFF7FEFF 		bl	__aeabi_fsub
 1961              	.LVL243:
 1962 009a 0546     		mov	r5, r0
 1963              	.LVL244:
 1964 009c FFF7FEFF 		bl	__aeabi_f2d
 1965              	.LVL245:
 1966 00a0 0646     		mov	r6, r0
 1967 00a2 0F46     		mov	r7, r1
 1968 00a4 0246     		mov	r2, r0
 1969 00a6 0B46     		mov	r3, r1
 1970 00a8 DDE90001 		ldrd	r0, [sp]
 1971 00ac FFF7FEFF 		bl	__aeabi_dmul
 1972              	.LVL246:
 1973 00b0 0246     		mov	r2, r0
 1974 00b2 0B46     		mov	r3, r1
 1975 00b4 3046     		mov	r0, r6
 1976 00b6 3946     		mov	r1, r7
 1977 00b8 FFF7FEFF 		bl	__aeabi_dmul
 1978              	.LVL247:
 1979 00bc 0646     		mov	r6, r0
 1980 00be 0F46     		mov	r7, r1
 1981 00c0 4046     		mov	r0, r8
 1982 00c2 FFF7FEFF 		bl	__aeabi_f2d
 1983              	.LVL248:
 1984 00c6 3246     		mov	r2, r6
 1985 00c8 3B46     		mov	r3, r7
 1986 00ca FFF7FEFF 		bl	__aeabi_dadd
 1987              	.LVL249:
 1988 00ce FFF7FEFF 		bl	__aeabi_d2f
 1989              	.LVL250:
 1990 00d2 8046     		mov	r8, r0
 1991              	.LVL251:
ARM GAS  C:\Users\FRANKL~1\AppData\Local\Temp\ccXJlYBQ.s 			page 55


 298:main.c        **** 	}
 1992              		.loc 2 298 0 discriminator 2
 1993 00d4 5146     		mov	r1, r10
 1994 00d6 2846     		mov	r0, r5
 1995              	.LVL252:
 1996 00d8 FFF7FEFF 		bl	__aeabi_fdiv
 1997              	.LVL253:
 1998 00dc 0146     		mov	r1, r0
 1999 00de 4846     		mov	r0, r9
 2000 00e0 FFF7FEFF 		bl	__aeabi_fadd
 2001              	.LVL254:
 2002 00e4 8146     		mov	r9, r0
 2003              	.LVL255:
 285:main.c        **** 		ADC_Measure_uV(&voltage, &voltageSD, 1);
 2004              		.loc 2 285 0 discriminator 2
 2005 00e6 0134     		adds	r4, r4, #1
 2006              	.LVL256:
 2007              	.L147:
 285:main.c        **** 		ADC_Measure_uV(&voltage, &voltageSD, 1);
 2008              		.loc 2 285 0 is_stmt 0 discriminator 1
 2009 00e8 5C45     		cmp	r4, fp
 2010 00ea 9FD9     		bls	.L151
 2011              	.L150:
 2012              	.LBE27:
 301:main.c        **** 	*currentStdDevIn = currentStdDev;
 2013              		.loc 2 301 0 is_stmt 1
 2014 00ec 029B     		ldr	r3, [sp, #8]
 2015 00ee C3F80090 		str	r9, [r3]	@ float
 302:main.c        **** }
 2016              		.loc 2 302 0
 2017 00f2 039B     		ldr	r3, [sp, #12]
 2018 00f4 C3F80080 		str	r8, [r3]	@ float
 303:main.c        **** 
 2019              		.loc 2 303 0
 2020 00f8 07B0     		add	sp, sp, #28
 2021              		.cfi_def_cfa_offset 36
 2022              		@ sp needed
 2023 00fa BDE8F08F 		pop	{r4, r5, r6, r7, r8, r9, r10, fp, pc}
 2024              	.LVL257:
 2025              	.L156:
 2026 00fe 00BF     		.align	3
 2027              	.L155:
 2028 0100 F168E388 		.word	-1998362383
 2029 0104 B5F8E43E 		.word	1055193269
 2030 0108 00000000 		.word	Compliance_Reached
 2031 010c FFE65BAE 		.word	-1369708801
 2032 0110 0000F03F 		.word	1072693248
 2033              		.cfi_endproc
 2034              	.LFE83:
 2035              		.size	Measure_Current_Vss, .-Measure_Current_Vss
 2036              		.section	.text.At_Compliance,"ax",%progbits
 2037              		.align	2
 2038              		.global	At_Compliance
 2039              		.thumb
 2040              		.thumb_func
 2041              		.type	At_Compliance, %function
 2042              	At_Compliance:
ARM GAS  C:\Users\FRANKL~1\AppData\Local\Temp\ccXJlYBQ.s 			page 56


 2043              	.LFB84:
 305:main.c        **** 	Compliance_Reached = 0;
 2044              		.loc 2 305 0
 2045              		.cfi_startproc
 2046              		@ args = 0, pretend = 0, frame = 8
 2047              		@ frame_needed = 0, uses_anonymous_args = 0
 2048 0000 00B5     		push	{lr}
 2049              		.cfi_def_cfa_offset 4
 2050              		.cfi_offset 14, -4
 2051 0002 83B0     		sub	sp, sp, #12
 2052              		.cfi_def_cfa_offset 16
 306:main.c        **** 	
 2053              		.loc 2 306 0
 2054 0004 0022     		movs	r2, #0
 2055 0006 124B     		ldr	r3, .L164+8
 2056 0008 1A70     		strb	r2, [r3]
 308:main.c        **** 	float currentSD = 0;
 2057              		.loc 2 308 0
 2058 000a 0023     		movs	r3, #0
 2059 000c 0193     		str	r3, [sp, #4]	@ float
 309:main.c        **** 	
 2060              		.loc 2 309 0
 2061 000e 02A9     		add	r1, sp, #8
 2062 0010 41F8083D 		str	r3, [r1, #-8]!	@ float
 311:main.c        **** 	
 2063              		.loc 2 311 0
 2064 0014 0322     		movs	r2, #3
 2065 0016 01A8     		add	r0, sp, #4
 2066 0018 FFF7FEFF 		bl	Measure_Current_Vss
 2067              	.LVL258:
 313:main.c        **** 		Compliance_Reached = 1;
 2068              		.loc 2 313 0
 2069 001c 0198     		ldr	r0, [sp, #4]	@ float
 2070 001e FFF7FEFF 		bl	__aeabi_f2iz
 2071              	.LVL259:
 2072 0022 0028     		cmp	r0, #0
 2073 0024 B8BF     		it	lt
 2074 0026 4042     		rsblt	r0, r0, #0
 2075 0028 FFF7FEFF 		bl	__aeabi_i2d
 2076              	.LVL260:
 2077 002c 06A3     		adr	r3, .L164
 2078 002e D3E90023 		ldrd	r2, [r3]
 2079 0032 FFF7FEFF 		bl	__aeabi_dcmpgt
 2080              	.LVL261:
 2081 0036 18B1     		cbz	r0, .L162
 314:main.c        **** 		return 1;
 2082              		.loc 2 314 0
 2083 0038 0120     		movs	r0, #1
 2084 003a 054B     		ldr	r3, .L164+8
 2085 003c 1870     		strb	r0, [r3]
 315:main.c        **** 	}
 2086              		.loc 2 315 0
 2087 003e 00E0     		b	.L158
 2088              	.L162:
 318:main.c        **** }
 2089              		.loc 2 318 0
 2090 0040 0020     		movs	r0, #0
ARM GAS  C:\Users\FRANKL~1\AppData\Local\Temp\ccXJlYBQ.s 			page 57


 2091              	.L158:
 319:main.c        **** 
 2092              		.loc 2 319 0
 2093 0042 03B0     		add	sp, sp, #12
 2094              		.cfi_def_cfa_offset 4
 2095              		@ sp needed
 2096 0044 5DF804FB 		ldr	pc, [sp], #4
 2097              	.L165:
 2098              		.align	3
 2099              	.L164:
 2100 0048 F168E388 		.word	-1998362383
 2101 004c B5F8E43E 		.word	1055193269
 2102 0050 00000000 		.word	Compliance_Reached
 2103              		.cfi_endproc
 2104              	.LFE84:
 2105              		.size	At_Compliance, .-At_Compliance
 2106              		.section	.text.Handle_Compliance_Breach,"ax",%progbits
 2107              		.align	2
 2108              		.global	Handle_Compliance_Breach
 2109              		.thumb
 2110              		.thumb_func
 2111              		.type	Handle_Compliance_Breach, %function
 2112              	Handle_Compliance_Breach:
 2113              	.LFB85:
 321:main.c        **** 	uint8 istart = VDAC_Vds_Data;
 2114              		.loc 2 321 0
 2115              		.cfi_startproc
 2116              		@ args = 0, pretend = 0, frame = 0
 2117              		@ frame_needed = 0, uses_anonymous_args = 0
 2118 0000 70B5     		push	{r4, r5, r6, lr}
 2119              		.cfi_def_cfa_offset 16
 2120              		.cfi_offset 4, -16
 2121              		.cfi_offset 5, -12
 2122              		.cfi_offset 6, -8
 2123              		.cfi_offset 14, -4
 322:main.c        **** 	uint8 istop = VDAC_Ref_Data;
 2124              		.loc 2 322 0
 2125 0002 174B     		ldr	r3, .L177
 2126 0004 1C78     		ldrb	r4, [r3]	@ zero_extendqisi2
 2127 0006 E4B2     		uxtb	r4, r4
 2128              	.LVL262:
 323:main.c        **** 	int8 increment = 1;
 2129              		.loc 2 323 0
 2130 0008 0133     		adds	r3, r3, #1
 2131 000a 1D78     		ldrb	r5, [r3]	@ zero_extendqisi2
 2132 000c EDB2     		uxtb	r5, r5
 2133              	.LVL263:
 325:main.c        **** 	
 2134              		.loc 2 325 0
 2135 000e AC42     		cmp	r4, r5
 2136 0010 01D3     		bcc	.L174
 324:main.c        **** 	if (istart < istop) increment = -1;
 2137              		.loc 2 324 0
 2138 0012 0126     		movs	r6, #1
 2139 0014 0AE0     		b	.L168
 2140              	.L174:
 325:main.c        **** 	
ARM GAS  C:\Users\FRANKL~1\AppData\Local\Temp\ccXJlYBQ.s 			page 58


 2141              		.loc 2 325 0
 2142 0016 4FF0FF36 		mov	r6, #-1
 2143              	.LVL264:
 2144              	.LBB28:
 327:main.c        **** 		VDAC_Vds_SetValue(i);
 2145              		.loc 2 327 0
 2146 001a 07E0     		b	.L168
 2147              	.LVL265:
 2148              	.L170:
 328:main.c        **** 		
 2149              		.loc 2 328 0
 2150 001c 2046     		mov	r0, r4
 2151 001e FFF7FEFF 		bl	VDAC_Vds_SetValue
 2152              	.LVL266:
 330:main.c        **** 	}
 2153              		.loc 2 330 0
 2154 0022 FFF7FEFF 		bl	At_Compliance
 2155              	.LVL267:
 2156 0026 D0B1     		cbz	r0, .L166
 327:main.c        **** 		VDAC_Vds_SetValue(i);
 2157              		.loc 2 327 0 discriminator 2
 2158 0028 3444     		add	r4, r4, r6
 2159              	.LVL268:
 2160 002a E4B2     		uxtb	r4, r4
 2161              	.LVL269:
 2162              	.L168:
 327:main.c        **** 		VDAC_Vds_SetValue(i);
 2163              		.loc 2 327 0 is_stmt 0 discriminator 1
 2164 002c AC42     		cmp	r4, r5
 2165 002e F5D1     		bne	.L170
 2166              	.LBE28:
 333:main.c        **** 	istop = VDAC_Ref_Data;
 2167              		.loc 2 333 0 is_stmt 1
 2168 0030 0C4B     		ldr	r3, .L177+4
 2169 0032 1C78     		ldrb	r4, [r3]	@ zero_extendqisi2
 2170              	.LVL270:
 2171 0034 E4B2     		uxtb	r4, r4
 2172              	.LVL271:
 334:main.c        **** 	increment = 1;
 2173              		.loc 2 334 0
 2174 0036 023B     		subs	r3, r3, #2
 2175 0038 1D78     		ldrb	r5, [r3]	@ zero_extendqisi2
 2176              	.LVL272:
 2177 003a EDB2     		uxtb	r5, r5
 2178              	.LVL273:
 336:main.c        **** 	
 2179              		.loc 2 336 0
 2180 003c AC42     		cmp	r4, r5
 2181 003e 01D3     		bcc	.L175
 335:main.c        **** 	if (istart < istop) increment = -1;
 2182              		.loc 2 335 0
 2183 0040 0126     		movs	r6, #1
 2184 0042 0AE0     		b	.L172
 2185              	.L175:
 336:main.c        **** 	
 2186              		.loc 2 336 0
 2187 0044 4FF0FF36 		mov	r6, #-1
ARM GAS  C:\Users\FRANKL~1\AppData\Local\Temp\ccXJlYBQ.s 			page 59


 2188              	.LVL274:
 2189              	.LBB29:
 338:main.c        **** 		VDAC_Vgs_SetValue(i);
 2190              		.loc 2 338 0
 2191 0048 07E0     		b	.L172
 2192              	.LVL275:
 2193              	.L173:
 339:main.c        **** 		
 2194              		.loc 2 339 0
 2195 004a 2046     		mov	r0, r4
 2196 004c FFF7FEFF 		bl	VDAC_Vgs_SetValue
 2197              	.LVL276:
 341:main.c        **** 	}
 2198              		.loc 2 341 0
 2199 0050 FFF7FEFF 		bl	At_Compliance
 2200              	.LVL277:
 2201 0054 18B1     		cbz	r0, .L166
 338:main.c        **** 		VDAC_Vgs_SetValue(i);
 2202              		.loc 2 338 0 discriminator 2
 2203 0056 3444     		add	r4, r4, r6
 2204              	.LVL278:
 2205 0058 E4B2     		uxtb	r4, r4
 2206              	.LVL279:
 2207              	.L172:
 338:main.c        **** 		VDAC_Vgs_SetValue(i);
 2208              		.loc 2 338 0 is_stmt 0 discriminator 1
 2209 005a AC42     		cmp	r4, r5
 2210 005c F5D1     		bne	.L173
 2211              	.LVL280:
 2212              	.L166:
 2213 005e 70BD     		pop	{r4, r5, r6, pc}
 2214              	.LVL281:
 2215              	.L178:
 2216              		.align	2
 2217              	.L177:
 2218 0060 805B0040 		.word	1073765248
 2219 0064 835B0040 		.word	1073765251
 2220              	.LBE29:
 2221              		.cfi_endproc
 2222              	.LFE85:
 2223              		.size	Handle_Compliance_Breach, .-Handle_Compliance_Breach
 2224              		.section	.text.Set_Vds_Raw,"ax",%progbits
 2225              		.align	2
 2226              		.global	Set_Vds_Raw
 2227              		.thumb
 2228              		.thumb_func
 2229              		.type	Set_Vds_Raw, %function
 2230              	Set_Vds_Raw:
 2231              	.LFB86:
 347:main.c        **** 	Vds_Index_Goal_Relative = (int16)value - (int16)VDAC_Ref_Data;
 2232              		.loc 2 347 0 is_stmt 1
 2233              		.cfi_startproc
 2234              		@ args = 0, pretend = 0, frame = 0
 2235              		@ frame_needed = 0, uses_anonymous_args = 0
 2236              	.LVL282:
 2237 0000 2DE9F041 		push	{r4, r5, r6, r7, r8, lr}
 2238              		.cfi_def_cfa_offset 24
ARM GAS  C:\Users\FRANKL~1\AppData\Local\Temp\ccXJlYBQ.s 			page 60


 2239              		.cfi_offset 4, -24
 2240              		.cfi_offset 5, -20
 2241              		.cfi_offset 6, -16
 2242              		.cfi_offset 7, -12
 2243              		.cfi_offset 8, -8
 2244              		.cfi_offset 14, -4
 2245 0004 8046     		mov	r8, r0
 348:main.c        **** 	
 2246              		.loc 2 348 0
 2247 0006 184B     		ldr	r3, .L190
 2248 0008 1B78     		ldrb	r3, [r3]	@ zero_extendqisi2
 2249 000a C31A     		subs	r3, r0, r3
 2250 000c 174A     		ldr	r2, .L190+4
 2251 000e 1380     		strh	r3, [r2]	@ movhi
 350:main.c        **** 	int8 increment = 1;
 2252              		.loc 2 350 0
 2253 0010 174B     		ldr	r3, .L190+8
 2254 0012 1D78     		ldrb	r5, [r3]	@ zero_extendqisi2
 2255 0014 EDB2     		uxtb	r5, r5
 2256              	.LVL283:
 352:main.c        **** 	
 2257              		.loc 2 352 0
 2258 0016 A842     		cmp	r0, r5
 2259 0018 01D3     		bcc	.L187
 351:main.c        **** 	if (istart > value) increment = -1;
 2260              		.loc 2 351 0
 2261 001a 0126     		movs	r6, #1
 2262 001c 01E0     		b	.L180
 2263              	.L187:
 352:main.c        **** 	
 2264              		.loc 2 352 0
 2265 001e 4FF0FF36 		mov	r6, #-1
 2266              	.L180:
 2267              	.LVL284:
 2268              	.LBB30:
 354:main.c        **** 		if (At_Compliance()) {
 2269              		.loc 2 354 0
 2270 0022 0027     		movs	r7, #0
 2271 0024 1BE0     		b	.L181
 2272              	.LVL285:
 2273              	.L186:
 355:main.c        **** 			for (uint8 j = i; j != istart; j -= increment) {
 2274              		.loc 2 355 0
 2275 0026 FFF7FEFF 		bl	At_Compliance
 2276              	.LVL286:
 2277 002a 48B9     		cbnz	r0, .L188
 2278 002c 12E0     		b	.L183
 2279              	.LVL287:
 2280              	.L185:
 2281              	.LBB31:
 357:main.c        **** 				
 2282              		.loc 2 357 0
 2283 002e 2046     		mov	r0, r4
 2284 0030 FFF7FEFF 		bl	VDAC_Vds_SetValue
 2285              	.LVL288:
 359:main.c        **** 			}
 2286              		.loc 2 359 0
ARM GAS  C:\Users\FRANKL~1\AppData\Local\Temp\ccXJlYBQ.s 			page 61


 2287 0034 FFF7FEFF 		bl	At_Compliance
 2288              	.LVL289:
 2289 0038 98B1     		cbz	r0, .L179
 356:main.c        **** 				VDAC_Vds_SetValue(j);
 2290              		.loc 2 356 0 discriminator 2
 2291 003a A41B     		subs	r4, r4, r6
 2292              	.LVL290:
 2293 003c E4B2     		uxtb	r4, r4
 2294              	.LVL291:
 2295 003e 00E0     		b	.L182
 2296              	.LVL292:
 2297              	.L188:
 2298              	.LBE31:
 2299 0040 3C46     		mov	r4, r7
 2300              	.L182:
 2301              	.LVL293:
 2302              	.LBB32:
 356:main.c        **** 				VDAC_Vds_SetValue(j);
 2303              		.loc 2 356 0 is_stmt 0 discriminator 1
 2304 0042 AC42     		cmp	r4, r5
 2305 0044 F3D1     		bne	.L185
 2306              	.LBE32:
 361:main.c        **** 				Handle_Compliance_Breach();
 2307              		.loc 2 361 0 is_stmt 1
 2308 0046 FFF7FEFF 		bl	At_Compliance
 2309              	.LVL294:
 2310 004a 18B1     		cbz	r0, .L183
 362:main.c        **** 				return;
 2311              		.loc 2 362 0
 2312 004c FFF7FEFF 		bl	Handle_Compliance_Breach
 2313              	.LVL295:
 363:main.c        **** 			}
 2314              		.loc 2 363 0
 2315 0050 BDE8F081 		pop	{r4, r5, r6, r7, r8, pc}
 2316              	.LVL296:
 2317              	.L183:
 367:main.c        **** 	}
 2318              		.loc 2 367 0 discriminator 2
 2319 0054 3846     		mov	r0, r7
 2320 0056 FFF7FEFF 		bl	VDAC_Vds_SetValue
 2321              	.LVL297:
 354:main.c        **** 		if (At_Compliance()) {
 2322              		.loc 2 354 0 discriminator 2
 2323 005a 3744     		add	r7, r7, r6
 2324              	.LVL298:
 2325 005c FFB2     		uxtb	r7, r7
 2326              	.LVL299:
 2327              	.L181:
 354:main.c        **** 		if (At_Compliance()) {
 2328              		.loc 2 354 0 is_stmt 0 discriminator 1
 2329 005e 4745     		cmp	r7, r8
 2330 0060 E1D1     		bne	.L186
 2331              	.L179:
 2332 0062 BDE8F081 		pop	{r4, r5, r6, r7, r8, pc}
 2333              	.LVL300:
 2334              	.L191:
 2335 0066 00BF     		.align	2
ARM GAS  C:\Users\FRANKL~1\AppData\Local\Temp\ccXJlYBQ.s 			page 62


 2336              	.L190:
 2337 0068 815B0040 		.word	1073765249
 2338 006c 00000000 		.word	Vds_Index_Goal_Relative
 2339 0070 805B0040 		.word	1073765248
 2340              	.LBE30:
 2341              		.cfi_endproc
 2342              	.LFE86:
 2343              		.size	Set_Vds_Raw, .-Set_Vds_Raw
 2344              		.section	.text.Set_Vgs_Raw,"ax",%progbits
 2345              		.align	2
 2346              		.global	Set_Vgs_Raw
 2347              		.thumb
 2348              		.thumb_func
 2349              		.type	Set_Vgs_Raw, %function
 2350              	Set_Vgs_Raw:
 2351              	.LFB87:
 371:main.c        **** 	Vgs_Index_Goal_Relative = (int16)value - (int16)VDAC_Ref_Data;
 2352              		.loc 2 371 0 is_stmt 1
 2353              		.cfi_startproc
 2354              		@ args = 0, pretend = 0, frame = 0
 2355              		@ frame_needed = 0, uses_anonymous_args = 0
 2356              	.LVL301:
 2357 0000 2DE9F041 		push	{r4, r5, r6, r7, r8, lr}
 2358              		.cfi_def_cfa_offset 24
 2359              		.cfi_offset 4, -24
 2360              		.cfi_offset 5, -20
 2361              		.cfi_offset 6, -16
 2362              		.cfi_offset 7, -12
 2363              		.cfi_offset 8, -8
 2364              		.cfi_offset 14, -4
 2365 0004 8046     		mov	r8, r0
 372:main.c        **** 	
 2366              		.loc 2 372 0
 2367 0006 184B     		ldr	r3, .L203
 2368 0008 1B78     		ldrb	r3, [r3]	@ zero_extendqisi2
 2369 000a C31A     		subs	r3, r0, r3
 2370 000c 174A     		ldr	r2, .L203+4
 2371 000e 1380     		strh	r3, [r2]	@ movhi
 2372              	.LVL302:
 375:main.c        **** 	if (value < istart) increment = -1;
 2373              		.loc 2 375 0
 2374 0010 174B     		ldr	r3, .L203+8
 2375 0012 1D78     		ldrb	r5, [r3]	@ zero_extendqisi2
 2376 0014 EDB2     		uxtb	r5, r5
 2377              	.LVL303:
 376:main.c        **** 	
 2378              		.loc 2 376 0
 2379 0016 A842     		cmp	r0, r5
 2380 0018 01D3     		bcc	.L200
 374:main.c        **** 	uint8 istart = VDAC_Vgs_Data;
 2381              		.loc 2 374 0
 2382 001a 0126     		movs	r6, #1
 2383 001c 01E0     		b	.L193
 2384              	.L200:
 376:main.c        **** 	
 2385              		.loc 2 376 0
 2386 001e 4FF0FF36 		mov	r6, #-1
ARM GAS  C:\Users\FRANKL~1\AppData\Local\Temp\ccXJlYBQ.s 			page 63


 2387              	.L193:
 2388              	.LVL304:
 2389              	.LBB33:
 378:main.c        **** 		if (At_Compliance()) {
 2390              		.loc 2 378 0
 2391 0022 2F46     		mov	r7, r5
 2392 0024 1BE0     		b	.L194
 2393              	.LVL305:
 2394              	.L199:
 379:main.c        **** 			for (uint8 j = i; j != istart; j -= increment) {
 2395              		.loc 2 379 0
 2396 0026 FFF7FEFF 		bl	At_Compliance
 2397              	.LVL306:
 2398 002a 48B9     		cbnz	r0, .L201
 2399 002c 12E0     		b	.L196
 2400              	.LVL307:
 2401              	.L198:
 2402              	.LBB34:
 381:main.c        **** 				
 2403              		.loc 2 381 0
 2404 002e 2046     		mov	r0, r4
 2405 0030 FFF7FEFF 		bl	VDAC_Vgs_SetValue
 2406              	.LVL308:
 383:main.c        **** 			}
 2407              		.loc 2 383 0
 2408 0034 FFF7FEFF 		bl	At_Compliance
 2409              	.LVL309:
 2410 0038 98B1     		cbz	r0, .L192
 380:main.c        **** 				VDAC_Vgs_SetValue(j);
 2411              		.loc 2 380 0 discriminator 2
 2412 003a A41B     		subs	r4, r4, r6
 2413              	.LVL310:
 2414 003c E4B2     		uxtb	r4, r4
 2415              	.LVL311:
 2416 003e 00E0     		b	.L195
 2417              	.LVL312:
 2418              	.L201:
 2419              	.LBE34:
 2420 0040 3C46     		mov	r4, r7
 2421              	.L195:
 2422              	.LVL313:
 2423              	.LBB35:
 380:main.c        **** 				VDAC_Vgs_SetValue(j);
 2424              		.loc 2 380 0 is_stmt 0 discriminator 1
 2425 0042 AC42     		cmp	r4, r5
 2426 0044 F3D1     		bne	.L198
 2427              	.LBE35:
 385:main.c        **** 				Handle_Compliance_Breach();
 2428              		.loc 2 385 0 is_stmt 1
 2429 0046 FFF7FEFF 		bl	At_Compliance
 2430              	.LVL314:
 2431 004a 18B1     		cbz	r0, .L196
 386:main.c        **** 				return;
 2432              		.loc 2 386 0
 2433 004c FFF7FEFF 		bl	Handle_Compliance_Breach
 2434              	.LVL315:
 387:main.c        **** 			}
ARM GAS  C:\Users\FRANKL~1\AppData\Local\Temp\ccXJlYBQ.s 			page 64


 2435              		.loc 2 387 0
 2436 0050 BDE8F081 		pop	{r4, r5, r6, r7, r8, pc}
 2437              	.LVL316:
 2438              	.L196:
 391:main.c        **** 	}
 2439              		.loc 2 391 0 discriminator 2
 2440 0054 3846     		mov	r0, r7
 2441 0056 FFF7FEFF 		bl	VDAC_Vgs_SetValue
 2442              	.LVL317:
 378:main.c        **** 		if (At_Compliance()) {
 2443              		.loc 2 378 0 discriminator 2
 2444 005a 3744     		add	r7, r7, r6
 2445              	.LVL318:
 2446 005c FFB2     		uxtb	r7, r7
 2447              	.LVL319:
 2448              	.L194:
 378:main.c        **** 		if (At_Compliance()) {
 2449              		.loc 2 378 0 is_stmt 0 discriminator 1
 2450 005e 4745     		cmp	r7, r8
 2451 0060 E1D1     		bne	.L199
 2452              	.L192:
 2453 0062 BDE8F081 		pop	{r4, r5, r6, r7, r8, pc}
 2454              	.LVL320:
 2455              	.L204:
 2456 0066 00BF     		.align	2
 2457              	.L203:
 2458 0068 815B0040 		.word	1073765249
 2459 006c 00000000 		.word	Vgs_Index_Goal_Relative
 2460 0070 835B0040 		.word	1073765251
 2461              	.LBE33:
 2462              		.cfi_endproc
 2463              	.LFE87:
 2464              		.size	Set_Vgs_Raw, .-Set_Vgs_Raw
 2465              		.section	.text.Set_Ref_Raw,"ax",%progbits
 2466              		.align	2
 2467              		.global	Set_Ref_Raw
 2468              		.thumb
 2469              		.thumb_func
 2470              		.type	Set_Ref_Raw, %function
 2471              	Set_Ref_Raw:
 2472              	.LFB88:
 395:main.c        **** 	int8 increment = 1;
 2473              		.loc 2 395 0 is_stmt 1
 2474              		.cfi_startproc
 2475              		@ args = 0, pretend = 0, frame = 0
 2476              		@ frame_needed = 0, uses_anonymous_args = 0
 2477              	.LVL321:
 2478 0000 2DE9F041 		push	{r4, r5, r6, r7, r8, lr}
 2479              		.cfi_def_cfa_offset 24
 2480              		.cfi_offset 4, -24
 2481              		.cfi_offset 5, -20
 2482              		.cfi_offset 6, -16
 2483              		.cfi_offset 7, -12
 2484              		.cfi_offset 8, -8
 2485              		.cfi_offset 14, -4
 2486 0004 0746     		mov	r7, r0
 2487              	.LVL322:
ARM GAS  C:\Users\FRANKL~1\AppData\Local\Temp\ccXJlYBQ.s 			page 65


 397:main.c        **** 	
 2488              		.loc 2 397 0
 2489 0006 1A4B     		ldr	r3, .L220
 2490 0008 1B78     		ldrb	r3, [r3]	@ zero_extendqisi2
 2491 000a DBB2     		uxtb	r3, r3
 2492 000c 8342     		cmp	r3, r0
 2493 000e 02D8     		bhi	.L214
 396:main.c        **** 	if (value < VDAC_Ref_Data) increment = -1;
 2494              		.loc 2 396 0
 2495 0010 4FF00108 		mov	r8, #1
 2496 0014 01E0     		b	.L206
 2497              	.L214:
 397:main.c        **** 	
 2498              		.loc 2 397 0
 2499 0016 4FF0FF38 		mov	r8, #-1
 2500              	.L206:
 2501              	.LVL323:
 2502              	.LBB36:
 399:main.c        **** 		
 2503              		.loc 2 399 0
 2504 001a 154B     		ldr	r3, .L220
 2505 001c 1E78     		ldrb	r6, [r3]	@ zero_extendqisi2
 2506 001e F6B2     		uxtb	r6, r6
 2507              	.LVL324:
 2508 0020 22E0     		b	.L207
 2509              	.LVL325:
 2510              	.L213:
 2511              	.LBB37:
 401:main.c        **** 		
 2512              		.loc 2 401 0
 2513 0022 FFF7FEFF 		bl	At_Compliance
 2514              	.LVL326:
 2515 0026 08BB     		cbnz	r0, .L205
 403:main.c        **** 		int16 new_Vds = (int16)i + Vds_Index_Goal_Relative;
 2516              		.loc 2 403 0
 2517 0028 B4B2     		uxth	r4, r6
 2518 002a 124B     		ldr	r3, .L220+4
 2519 002c 1D88     		ldrh	r5, [r3]
 2520 002e 2544     		add	r5, r5, r4
 2521 0030 2DB2     		sxth	r5, r5
 2522              	.LVL327:
 404:main.c        **** 		
 2523              		.loc 2 404 0
 2524 0032 114B     		ldr	r3, .L220+8
 2525 0034 1B88     		ldrh	r3, [r3]
 2526 0036 1C44     		add	r4, r4, r3
 2527 0038 24B2     		sxth	r4, r4
 2528              	.LVL328:
 406:main.c        **** 		if (new_Vds > 255) new_Vds = 255;
 2529              		.loc 2 406 0
 2530 003a FF2D     		cmp	r5, #255
 2531 003c 00DD     		ble	.L209
 2532 003e FF25     		movs	r5, #255
 2533              	.LVL329:
 2534              	.L209:
 407:main.c        **** 		
 2535              		.loc 2 407 0
ARM GAS  C:\Users\FRANKL~1\AppData\Local\Temp\ccXJlYBQ.s 			page 66


 2536 0040 FF2C     		cmp	r4, #255
 2537 0042 00DD     		ble	.L210
 2538 0044 FF24     		movs	r4, #255
 2539              	.LVL330:
 2540              	.L210:
 409:main.c        **** 		if (new_Vds < 0) new_Vds = 0;
 2541              		.loc 2 409 0
 2542 0046 002D     		cmp	r5, #0
 2543 0048 00DA     		bge	.L211
 2544 004a 0025     		movs	r5, #0
 2545              	.LVL331:
 2546              	.L211:
 410:main.c        **** 		
 2547              		.loc 2 410 0
 2548 004c 002C     		cmp	r4, #0
 2549 004e 00DA     		bge	.L212
 2550 0050 0024     		movs	r4, #0
 2551              	.LVL332:
 2552              	.L212:
 412:main.c        **** 		VDAC_Vgs_SetValue(new_Vgs);
 2553              		.loc 2 412 0 discriminator 2
 2554 0052 3046     		mov	r0, r6
 2555 0054 FFF7FEFF 		bl	VDAC_Ref_SetValue
 2556              	.LVL333:
 413:main.c        **** 		VDAC_Vds_SetValue(new_Vds);
 2557              		.loc 2 413 0 discriminator 2
 2558 0058 E8B2     		uxtb	r0, r5
 2559 005a FFF7FEFF 		bl	VDAC_Vgs_SetValue
 2560              	.LVL334:
 414:main.c        **** 	}
 2561              		.loc 2 414 0 discriminator 2
 2562 005e E0B2     		uxtb	r0, r4
 2563 0060 FFF7FEFF 		bl	VDAC_Vds_SetValue
 2564              	.LVL335:
 2565              	.LBE37:
 399:main.c        **** 		
 2566              		.loc 2 399 0 discriminator 2
 2567 0064 4644     		add	r6, r6, r8
 2568              	.LVL336:
 2569 0066 F6B2     		uxtb	r6, r6
 2570              	.LVL337:
 2571              	.L207:
 399:main.c        **** 		
 2572              		.loc 2 399 0 is_stmt 0 discriminator 1
 2573 0068 BE42     		cmp	r6, r7
 2574 006a DAD1     		bne	.L213
 2575              	.L205:
 2576 006c BDE8F081 		pop	{r4, r5, r6, r7, r8, pc}
 2577              	.LVL338:
 2578              	.L221:
 2579              		.align	2
 2580              	.L220:
 2581 0070 815B0040 		.word	1073765249
 2582 0074 00000000 		.word	Vgs_Index_Goal_Relative
 2583 0078 00000000 		.word	Vds_Index_Goal_Relative
 2584              	.LBE36:
 2585              		.cfi_endproc
ARM GAS  C:\Users\FRANKL~1\AppData\Local\Temp\ccXJlYBQ.s 			page 67


 2586              	.LFE88:
 2587              		.size	Set_Ref_Raw, .-Set_Ref_Raw
 2588              		.section	.text.Set_Vds_Rel,"ax",%progbits
 2589              		.align	2
 2590              		.global	Set_Vds_Rel
 2591              		.thumb
 2592              		.thumb_func
 2593              		.type	Set_Vds_Rel, %function
 2594              	Set_Vds_Rel:
 2595              	.LFB89:
 418:main.c        **** 	if (value > 255) value = 255;
 2596              		.loc 2 418 0 is_stmt 1
 2597              		.cfi_startproc
 2598              		@ args = 0, pretend = 0, frame = 0
 2599              		@ frame_needed = 0, uses_anonymous_args = 0
 2600              	.LVL339:
 2601 0000 10B5     		push	{r4, lr}
 2602              		.cfi_def_cfa_offset 8
 2603              		.cfi_offset 4, -8
 2604              		.cfi_offset 14, -4
 2605 0002 0446     		mov	r4, r0
 419:main.c        **** 	if (value < -255) value = -255;
 2606              		.loc 2 419 0
 2607 0004 FF28     		cmp	r0, #255
 2608 0006 00DD     		ble	.L223
 2609 0008 FF24     		movs	r4, #255
 2610              	.L223:
 2611              	.LVL340:
 420:main.c        **** 	
 2612              		.loc 2 420 0
 2613 000a 14F1FF0F 		cmn	r4, #255
 2614 000e 01DA     		bge	.L224
 2615 0010 6FF0FE04 		mvn	r4, #254
 2616              	.LVL341:
 2617              	.L224:
 422:main.c        **** 	
 2618              		.loc 2 422 0
 2619 0014 114B     		ldr	r3, .L231
 2620 0016 1878     		ldrb	r0, [r3]	@ zero_extendqisi2
 2621 0018 2044     		add	r0, r0, r4
 2622 001a 80B2     		uxth	r0, r0
 2623 001c 03B2     		sxth	r3, r0
 2624              	.LVL342:
 424:main.c        **** 		Set_Ref_Raw(VDAC_Ref_Data - (absolute - 255));
 2625              		.loc 2 424 0
 2626 001e FF2B     		cmp	r3, #255
 2627 0020 0ADD     		ble	.L225
 425:main.c        **** 		Set_Vds_Raw(255);
 2628              		.loc 2 425 0
 2629 0022 0E4B     		ldr	r3, .L231
 2630              	.LVL343:
 2631 0024 1B78     		ldrb	r3, [r3]	@ zero_extendqisi2
 2632 0026 181A     		subs	r0, r3, r0
 2633              	.LVL344:
 2634 0028 0138     		subs	r0, r0, #1
 2635 002a C0B2     		uxtb	r0, r0
 2636 002c FFF7FEFF 		bl	Set_Ref_Raw
ARM GAS  C:\Users\FRANKL~1\AppData\Local\Temp\ccXJlYBQ.s 			page 68


 2637              	.LVL345:
 426:main.c        **** 	} else if (absolute < 0) {
 2638              		.loc 2 426 0
 2639 0030 FF20     		movs	r0, #255
 2640 0032 FFF7FEFF 		bl	Set_Vds_Raw
 2641              	.LVL346:
 2642 0036 0EE0     		b	.L226
 2643              	.LVL347:
 2644              	.L225:
 427:main.c        **** 		Set_Ref_Raw(VDAC_Ref_Data - absolute);
 2645              		.loc 2 427 0
 2646 0038 002B     		cmp	r3, #0
 2647 003a 09DA     		bge	.L227
 428:main.c        **** 		Set_Vds_Raw(0);
 2648              		.loc 2 428 0
 2649 003c 074B     		ldr	r3, .L231
 2650              	.LVL348:
 2651 003e 1B78     		ldrb	r3, [r3]	@ zero_extendqisi2
 2652 0040 181A     		subs	r0, r3, r0
 2653              	.LVL349:
 2654 0042 C0B2     		uxtb	r0, r0
 2655 0044 FFF7FEFF 		bl	Set_Ref_Raw
 2656              	.LVL350:
 429:main.c        **** 	} else {
 2657              		.loc 2 429 0
 2658 0048 0020     		movs	r0, #0
 2659 004a FFF7FEFF 		bl	Set_Vds_Raw
 2660              	.LVL351:
 2661 004e 02E0     		b	.L226
 2662              	.LVL352:
 2663              	.L227:
 431:main.c        **** 	}
 2664              		.loc 2 431 0
 2665 0050 C0B2     		uxtb	r0, r0
 2666 0052 FFF7FEFF 		bl	Set_Vds_Raw
 2667              	.LVL353:
 2668              	.L226:
 434:main.c        **** }
 2669              		.loc 2 434 0
 2670 0056 024B     		ldr	r3, .L231+4
 2671 0058 1C80     		strh	r4, [r3]	@ movhi
 2672 005a 10BD     		pop	{r4, pc}
 2673              	.LVL354:
 2674              	.L232:
 2675              		.align	2
 2676              	.L231:
 2677 005c 815B0040 		.word	1073765249
 2678 0060 00000000 		.word	Vds_Index_Goal_Relative
 2679              		.cfi_endproc
 2680              	.LFE89:
 2681              		.size	Set_Vds_Rel, .-Set_Vds_Rel
 2682              		.section	.text.Set_Vgs_Rel,"ax",%progbits
 2683              		.align	2
 2684              		.global	Set_Vgs_Rel
 2685              		.thumb
 2686              		.thumb_func
 2687              		.type	Set_Vgs_Rel, %function
ARM GAS  C:\Users\FRANKL~1\AppData\Local\Temp\ccXJlYBQ.s 			page 69


 2688              	Set_Vgs_Rel:
 2689              	.LFB90:
 437:main.c        **** 	if (value > 255) value = 255;
 2690              		.loc 2 437 0
 2691              		.cfi_startproc
 2692              		@ args = 0, pretend = 0, frame = 0
 2693              		@ frame_needed = 0, uses_anonymous_args = 0
 2694              	.LVL355:
 2695 0000 10B5     		push	{r4, lr}
 2696              		.cfi_def_cfa_offset 8
 2697              		.cfi_offset 4, -8
 2698              		.cfi_offset 14, -4
 2699 0002 0446     		mov	r4, r0
 438:main.c        **** 	if (value < -255) value = -255;
 2700              		.loc 2 438 0
 2701 0004 FF28     		cmp	r0, #255
 2702 0006 00DD     		ble	.L234
 2703 0008 FF24     		movs	r4, #255
 2704              	.L234:
 2705              	.LVL356:
 439:main.c        **** 	
 2706              		.loc 2 439 0
 2707 000a 14F1FF0F 		cmn	r4, #255
 2708 000e 01DA     		bge	.L235
 2709 0010 6FF0FE04 		mvn	r4, #254
 2710              	.LVL357:
 2711              	.L235:
 441:main.c        **** 	
 2712              		.loc 2 441 0
 2713 0014 114B     		ldr	r3, .L242
 2714 0016 1878     		ldrb	r0, [r3]	@ zero_extendqisi2
 2715 0018 2044     		add	r0, r0, r4
 2716 001a 80B2     		uxth	r0, r0
 2717 001c 03B2     		sxth	r3, r0
 2718              	.LVL358:
 443:main.c        **** 		Set_Ref_Raw(VDAC_Ref_Data - (absolute - 255));
 2719              		.loc 2 443 0
 2720 001e FF2B     		cmp	r3, #255
 2721 0020 0ADD     		ble	.L236
 444:main.c        **** 		Set_Vgs_Raw(255);
 2722              		.loc 2 444 0
 2723 0022 0E4B     		ldr	r3, .L242
 2724              	.LVL359:
 2725 0024 1B78     		ldrb	r3, [r3]	@ zero_extendqisi2
 2726 0026 181A     		subs	r0, r3, r0
 2727              	.LVL360:
 2728 0028 0138     		subs	r0, r0, #1
 2729 002a C0B2     		uxtb	r0, r0
 2730 002c FFF7FEFF 		bl	Set_Ref_Raw
 2731              	.LVL361:
 445:main.c        **** 	} else if (absolute < 0) {
 2732              		.loc 2 445 0
 2733 0030 FF20     		movs	r0, #255
 2734 0032 FFF7FEFF 		bl	Set_Vgs_Raw
 2735              	.LVL362:
 2736 0036 0EE0     		b	.L237
 2737              	.LVL363:
ARM GAS  C:\Users\FRANKL~1\AppData\Local\Temp\ccXJlYBQ.s 			page 70


 2738              	.L236:
 446:main.c        **** 		Set_Ref_Raw(VDAC_Ref_Data - absolute);
 2739              		.loc 2 446 0
 2740 0038 002B     		cmp	r3, #0
 2741 003a 09DA     		bge	.L238
 447:main.c        **** 		Set_Vgs_Raw(0);
 2742              		.loc 2 447 0
 2743 003c 074B     		ldr	r3, .L242
 2744              	.LVL364:
 2745 003e 1B78     		ldrb	r3, [r3]	@ zero_extendqisi2
 2746 0040 181A     		subs	r0, r3, r0
 2747              	.LVL365:
 2748 0042 C0B2     		uxtb	r0, r0
 2749 0044 FFF7FEFF 		bl	Set_Ref_Raw
 2750              	.LVL366:
 448:main.c        **** 	} else {
 2751              		.loc 2 448 0
 2752 0048 0020     		movs	r0, #0
 2753 004a FFF7FEFF 		bl	Set_Vgs_Raw
 2754              	.LVL367:
 2755 004e 02E0     		b	.L237
 2756              	.LVL368:
 2757              	.L238:
 450:main.c        **** 	}
 2758              		.loc 2 450 0
 2759 0050 C0B2     		uxtb	r0, r0
 2760 0052 FFF7FEFF 		bl	Set_Vgs_Raw
 2761              	.LVL369:
 2762              	.L237:
 453:main.c        **** }
 2763              		.loc 2 453 0
 2764 0056 024B     		ldr	r3, .L242+4
 2765 0058 1C80     		strh	r4, [r3]	@ movhi
 2766 005a 10BD     		pop	{r4, pc}
 2767              	.LVL370:
 2768              	.L243:
 2769              		.align	2
 2770              	.L242:
 2771 005c 815B0040 		.word	1073765249
 2772 0060 00000000 		.word	Vgs_Index_Goal_Relative
 2773              		.cfi_endproc
 2774              	.LFE90:
 2775              		.size	Set_Vgs_Rel, .-Set_Vgs_Rel
 2776              		.global	__aeabi_d2iz
 2777              		.section	.text.Set_Vgs,"ax",%progbits
 2778              		.align	2
 2779              		.global	Set_Vgs
 2780              		.thumb
 2781              		.thumb_func
 2782              		.type	Set_Vgs, %function
 2783              	Set_Vgs:
 2784              	.LFB91:
 456:main.c        **** 	Set_Vgs_Rel((voltage/4.080)*255.0);
 2785              		.loc 2 456 0
 2786              		.cfi_startproc
 2787              		@ args = 0, pretend = 0, frame = 0
 2788              		@ frame_needed = 0, uses_anonymous_args = 0
ARM GAS  C:\Users\FRANKL~1\AppData\Local\Temp\ccXJlYBQ.s 			page 71


 2789              	.LVL371:
 2790 0000 08B5     		push	{r3, lr}
 2791              		.cfi_def_cfa_offset 8
 2792              		.cfi_offset 3, -8
 2793              		.cfi_offset 14, -4
 457:main.c        **** }
 2794              		.loc 2 457 0
 2795 0002 FFF7FEFF 		bl	__aeabi_f2d
 2796              	.LVL372:
 2797 0006 08A3     		adr	r3, .L246
 2798 0008 D3E90023 		ldrd	r2, [r3]
 2799 000c FFF7FEFF 		bl	__aeabi_ddiv
 2800              	.LVL373:
 2801 0010 07A3     		adr	r3, .L246+8
 2802 0012 D3E90023 		ldrd	r2, [r3]
 2803 0016 FFF7FEFF 		bl	__aeabi_dmul
 2804              	.LVL374:
 2805 001a FFF7FEFF 		bl	__aeabi_d2iz
 2806              	.LVL375:
 2807 001e 00B2     		sxth	r0, r0
 2808 0020 FFF7FEFF 		bl	Set_Vgs_Rel
 2809              	.LVL376:
 2810 0024 08BD     		pop	{r3, pc}
 2811              	.L247:
 2812 0026 00BF     		.align	3
 2813              	.L246:
 2814 0028 52B81E85 		.word	-2061584302
 2815 002c EB511040 		.word	1074811371
 2816 0030 00000000 		.word	0
 2817 0034 00E06F40 		.word	1081073664
 2818              		.cfi_endproc
 2819              	.LFE91:
 2820              		.size	Set_Vgs, .-Set_Vgs
 2821              		.section	.text.Set_Vds,"ax",%progbits
 2822              		.align	2
 2823              		.global	Set_Vds
 2824              		.thumb
 2825              		.thumb_func
 2826              		.type	Set_Vds, %function
 2827              	Set_Vds:
 2828              	.LFB92:
 460:main.c        **** 	Set_Vds_Rel((voltage/4.080)*255.0);
 2829              		.loc 2 460 0
 2830              		.cfi_startproc
 2831              		@ args = 0, pretend = 0, frame = 0
 2832              		@ frame_needed = 0, uses_anonymous_args = 0
 2833              	.LVL377:
 2834 0000 08B5     		push	{r3, lr}
 2835              		.cfi_def_cfa_offset 8
 2836              		.cfi_offset 3, -8
 2837              		.cfi_offset 14, -4
 461:main.c        **** }
 2838              		.loc 2 461 0
 2839 0002 FFF7FEFF 		bl	__aeabi_f2d
 2840              	.LVL378:
 2841 0006 08A3     		adr	r3, .L250
 2842 0008 D3E90023 		ldrd	r2, [r3]
ARM GAS  C:\Users\FRANKL~1\AppData\Local\Temp\ccXJlYBQ.s 			page 72


 2843 000c FFF7FEFF 		bl	__aeabi_ddiv
 2844              	.LVL379:
 2845 0010 07A3     		adr	r3, .L250+8
 2846 0012 D3E90023 		ldrd	r2, [r3]
 2847 0016 FFF7FEFF 		bl	__aeabi_dmul
 2848              	.LVL380:
 2849 001a FFF7FEFF 		bl	__aeabi_d2iz
 2850              	.LVL381:
 2851 001e 00B2     		sxth	r0, r0
 2852 0020 FFF7FEFF 		bl	Set_Vds_Rel
 2853              	.LVL382:
 2854 0024 08BD     		pop	{r3, pc}
 2855              	.L251:
 2856 0026 00BF     		.align	3
 2857              	.L250:
 2858 0028 52B81E85 		.word	-2061584302
 2859 002c EB511040 		.word	1074811371
 2860 0030 00000000 		.word	0
 2861 0034 00E06F40 		.word	1081073664
 2862              		.cfi_endproc
 2863              	.LFE92:
 2864              		.size	Set_Vds, .-Set_Vds
 2865              		.section	.text.Set_Vgs_mV,"ax",%progbits
 2866              		.align	2
 2867              		.global	Set_Vgs_mV
 2868              		.thumb
 2869              		.thumb_func
 2870              		.type	Set_Vgs_mV, %function
 2871              	Set_Vgs_mV:
 2872              	.LFB93:
 464:main.c        **** 	Set_Vgs(mV/1000.0);
 2873              		.loc 2 464 0
 2874              		.cfi_startproc
 2875              		@ args = 0, pretend = 0, frame = 0
 2876              		@ frame_needed = 0, uses_anonymous_args = 0
 2877              	.LVL383:
 2878 0000 08B5     		push	{r3, lr}
 2879              		.cfi_def_cfa_offset 8
 2880              		.cfi_offset 3, -8
 2881              		.cfi_offset 14, -4
 465:main.c        **** }
 2882              		.loc 2 465 0
 2883 0002 0349     		ldr	r1, .L254
 2884 0004 FFF7FEFF 		bl	__aeabi_fdiv
 2885              	.LVL384:
 2886 0008 FFF7FEFF 		bl	Set_Vgs
 2887              	.LVL385:
 2888 000c 08BD     		pop	{r3, pc}
 2889              	.L255:
 2890 000e 00BF     		.align	2
 2891              	.L254:
 2892 0010 00007A44 		.word	1148846080
 2893              		.cfi_endproc
 2894              	.LFE93:
 2895              		.size	Set_Vgs_mV, .-Set_Vgs_mV
 2896              		.section	.text.Set_Vds_mV,"ax",%progbits
 2897              		.align	2
ARM GAS  C:\Users\FRANKL~1\AppData\Local\Temp\ccXJlYBQ.s 			page 73


 2898              		.global	Set_Vds_mV
 2899              		.thumb
 2900              		.thumb_func
 2901              		.type	Set_Vds_mV, %function
 2902              	Set_Vds_mV:
 2903              	.LFB94:
 468:main.c        **** 	Set_Vds(mV/1000.0);
 2904              		.loc 2 468 0
 2905              		.cfi_startproc
 2906              		@ args = 0, pretend = 0, frame = 0
 2907              		@ frame_needed = 0, uses_anonymous_args = 0
 2908              	.LVL386:
 2909 0000 08B5     		push	{r3, lr}
 2910              		.cfi_def_cfa_offset 8
 2911              		.cfi_offset 3, -8
 2912              		.cfi_offset 14, -4
 469:main.c        **** }
 2913              		.loc 2 469 0
 2914 0002 0349     		ldr	r1, .L258
 2915 0004 FFF7FEFF 		bl	__aeabi_fdiv
 2916              	.LVL387:
 2917 0008 FFF7FEFF 		bl	Set_Vds
 2918              	.LVL388:
 2919 000c 08BD     		pop	{r3, pc}
 2920              	.L259:
 2921 000e 00BF     		.align	2
 2922              	.L258:
 2923 0010 00007A44 		.word	1148846080
 2924              		.cfi_endproc
 2925              	.LFE94:
 2926              		.size	Set_Vds_mV, .-Set_Vds_mV
 2927              		.section	.text.Get_Ref,"ax",%progbits
 2928              		.align	2
 2929              		.global	Get_Ref
 2930              		.thumb
 2931              		.thumb_func
 2932              		.type	Get_Ref, %function
 2933              	Get_Ref:
 2934              	.LFB95:
 472:main.c        **** 	float result = 4.080/255.0*VDAC_Ref_Data;
 2935              		.loc 2 472 0
 2936              		.cfi_startproc
 2937              		@ args = 0, pretend = 0, frame = 0
 2938              		@ frame_needed = 0, uses_anonymous_args = 0
 2939 0000 08B5     		push	{r3, lr}
 2940              		.cfi_def_cfa_offset 8
 2941              		.cfi_offset 3, -8
 2942              		.cfi_offset 14, -4
 473:main.c        **** 	if (VDAC_Ref_CR0 & (VDAC_Ref_RANGE_1V & VDAC_Ref_RANGE_MASK)) {
 2943              		.loc 2 473 0
 2944 0002 094B     		ldr	r3, .L262+8
 2945 0004 1878     		ldrb	r0, [r3]	@ zero_extendqisi2
 2946 0006 FFF7FEFF 		bl	__aeabi_i2d
 2947              	.LVL389:
 2948 000a 05A3     		adr	r3, .L262
 2949 000c D3E90023 		ldrd	r2, [r3]
 2950 0010 FFF7FEFF 		bl	__aeabi_dmul
ARM GAS  C:\Users\FRANKL~1\AppData\Local\Temp\ccXJlYBQ.s 			page 74


 2951              	.LVL390:
 2952 0014 FFF7FEFF 		bl	__aeabi_d2f
 2953              	.LVL391:
 474:main.c        **** 		result = 1.020/255.0*VDAC_Ref_Data;
 2954              		.loc 2 474 0
 2955 0018 044B     		ldr	r3, .L262+12
 2956 001a 1B78     		ldrb	r3, [r3]	@ zero_extendqisi2
 478:main.c        **** 
 2957              		.loc 2 478 0
 2958 001c 08BD     		pop	{r3, pc}
 2959              	.L263:
 2960 001e 00BF     		.align	3
 2961              	.L262:
 2962 0020 FCA9F1D2 		.word	-755914244
 2963 0024 4D62903F 		.word	1066426957
 2964 0028 815B0040 		.word	1073765249
 2965 002c 24580040 		.word	1073764388
 2966              		.cfi_endproc
 2967              	.LFE95:
 2968              		.size	Get_Ref, .-Get_Ref
 2969              		.section	.text.Get_Vgs,"ax",%progbits
 2970              		.align	2
 2971              		.global	Get_Vgs
 2972              		.thumb
 2973              		.thumb_func
 2974              		.type	Get_Vgs, %function
 2975              	Get_Vgs:
 2976              	.LFB96:
 480:main.c        **** 	float result = 4.080/255.0*VDAC_Vgs_Data - Get_Ref();
 2977              		.loc 2 480 0
 2978              		.cfi_startproc
 2979              		@ args = 0, pretend = 0, frame = 0
 2980              		@ frame_needed = 0, uses_anonymous_args = 0
 2981 0000 38B5     		push	{r3, r4, r5, lr}
 2982              		.cfi_def_cfa_offset 16
 2983              		.cfi_offset 3, -16
 2984              		.cfi_offset 4, -12
 2985              		.cfi_offset 5, -8
 2986              		.cfi_offset 14, -4
 481:main.c        **** 	if (VDAC_Vgs_CR0 & (VDAC_Vgs_RANGE_1V & VDAC_Vgs_RANGE_MASK)) {
 2987              		.loc 2 481 0
 2988 0002 0F4B     		ldr	r3, .L266+8
 2989 0004 1878     		ldrb	r0, [r3]	@ zero_extendqisi2
 2990 0006 FFF7FEFF 		bl	__aeabi_i2d
 2991              	.LVL392:
 2992 000a 0BA3     		adr	r3, .L266
 2993 000c D3E90023 		ldrd	r2, [r3]
 2994 0010 FFF7FEFF 		bl	__aeabi_dmul
 2995              	.LVL393:
 2996 0014 0446     		mov	r4, r0
 2997 0016 0D46     		mov	r5, r1
 2998 0018 FFF7FEFF 		bl	Get_Ref
 2999              	.LVL394:
 3000 001c FFF7FEFF 		bl	__aeabi_f2d
 3001              	.LVL395:
 3002 0020 0246     		mov	r2, r0
 3003 0022 0B46     		mov	r3, r1
ARM GAS  C:\Users\FRANKL~1\AppData\Local\Temp\ccXJlYBQ.s 			page 75


 3004 0024 2046     		mov	r0, r4
 3005 0026 2946     		mov	r1, r5
 3006 0028 FFF7FEFF 		bl	__aeabi_dsub
 3007              	.LVL396:
 3008 002c FFF7FEFF 		bl	__aeabi_d2f
 3009              	.LVL397:
 482:main.c        **** 		result = 1.020/255.0*VDAC_Vgs_Data - Get_Ref();
 3010              		.loc 2 482 0
 3011 0030 044B     		ldr	r3, .L266+12
 3012 0032 1B78     		ldrb	r3, [r3]	@ zero_extendqisi2
 486:main.c        **** 
 3013              		.loc 2 486 0
 3014 0034 38BD     		pop	{r3, r4, r5, pc}
 3015              	.L267:
 3016 0036 00BF     		.align	3
 3017              	.L266:
 3018 0038 FCA9F1D2 		.word	-755914244
 3019 003c 4D62903F 		.word	1066426957
 3020 0040 835B0040 		.word	1073765251
 3021 0044 2C580040 		.word	1073764396
 3022              		.cfi_endproc
 3023              	.LFE96:
 3024              		.size	Get_Vgs, .-Get_Vgs
 3025              		.section	.text.Get_Vds,"ax",%progbits
 3026              		.align	2
 3027              		.global	Get_Vds
 3028              		.thumb
 3029              		.thumb_func
 3030              		.type	Get_Vds, %function
 3031              	Get_Vds:
 3032              	.LFB97:
 488:main.c        **** 	float result = 4.080/255.0*VDAC_Vds_Data - Get_Ref();
 3033              		.loc 2 488 0
 3034              		.cfi_startproc
 3035              		@ args = 0, pretend = 0, frame = 0
 3036              		@ frame_needed = 0, uses_anonymous_args = 0
 3037 0000 38B5     		push	{r3, r4, r5, lr}
 3038              		.cfi_def_cfa_offset 16
 3039              		.cfi_offset 3, -16
 3040              		.cfi_offset 4, -12
 3041              		.cfi_offset 5, -8
 3042              		.cfi_offset 14, -4
 489:main.c        **** 	if (VDAC_Vds_CR0 & (VDAC_Vds_RANGE_1V & VDAC_Vds_RANGE_MASK)) {
 3043              		.loc 2 489 0
 3044 0002 0F4B     		ldr	r3, .L270+8
 3045 0004 1878     		ldrb	r0, [r3]	@ zero_extendqisi2
 3046 0006 FFF7FEFF 		bl	__aeabi_i2d
 3047              	.LVL398:
 3048 000a 0BA3     		adr	r3, .L270
 3049 000c D3E90023 		ldrd	r2, [r3]
 3050 0010 FFF7FEFF 		bl	__aeabi_dmul
 3051              	.LVL399:
 3052 0014 0446     		mov	r4, r0
 3053 0016 0D46     		mov	r5, r1
 3054 0018 FFF7FEFF 		bl	Get_Ref
 3055              	.LVL400:
 3056 001c FFF7FEFF 		bl	__aeabi_f2d
ARM GAS  C:\Users\FRANKL~1\AppData\Local\Temp\ccXJlYBQ.s 			page 76


 3057              	.LVL401:
 3058 0020 0246     		mov	r2, r0
 3059 0022 0B46     		mov	r3, r1
 3060 0024 2046     		mov	r0, r4
 3061 0026 2946     		mov	r1, r5
 3062 0028 FFF7FEFF 		bl	__aeabi_dsub
 3063              	.LVL402:
 3064 002c FFF7FEFF 		bl	__aeabi_d2f
 3065              	.LVL403:
 490:main.c        **** 		result = 1.020/255.0*VDAC_Vds_Data - Get_Ref();
 3066              		.loc 2 490 0
 3067 0030 044B     		ldr	r3, .L270+12
 3068 0032 1B78     		ldrb	r3, [r3]	@ zero_extendqisi2
 494:main.c        **** 
 3069              		.loc 2 494 0
 3070 0034 38BD     		pop	{r3, r4, r5, pc}
 3071              	.L271:
 3072 0036 00BF     		.align	3
 3073              	.L270:
 3074 0038 FCA9F1D2 		.word	-755914244
 3075 003c 4D62903F 		.word	1066426957
 3076 0040 805B0040 		.word	1073765248
 3077 0044 20580040 		.word	1073764384
 3078              		.cfi_endproc
 3079              	.LFE97:
 3080              		.size	Get_Vds, .-Get_Vds
 3081              		.section	.text.Zero_All_DACs,"ax",%progbits
 3082              		.align	2
 3083              		.global	Zero_All_DACs
 3084              		.thumb
 3085              		.thumb_func
 3086              		.type	Zero_All_DACs, %function
 3087              	Zero_All_DACs:
 3088              	.LFB98:
 496:main.c        **** 	Set_Vds_Raw(0);
 3089              		.loc 2 496 0
 3090              		.cfi_startproc
 3091              		@ args = 0, pretend = 0, frame = 0
 3092              		@ frame_needed = 0, uses_anonymous_args = 0
 3093 0000 08B5     		push	{r3, lr}
 3094              		.cfi_def_cfa_offset 8
 3095              		.cfi_offset 3, -8
 3096              		.cfi_offset 14, -4
 497:main.c        **** 	Set_Vgs_Raw(0);
 3097              		.loc 2 497 0
 3098 0002 0020     		movs	r0, #0
 3099 0004 FFF7FEFF 		bl	Set_Vds_Raw
 3100              	.LVL404:
 498:main.c        **** 	
 3101              		.loc 2 498 0
 3102 0008 0020     		movs	r0, #0
 3103 000a FFF7FEFF 		bl	Set_Vgs_Raw
 3104              	.LVL405:
 500:main.c        **** 	VDAC_Vgs_SetValue(0);
 3105              		.loc 2 500 0
 3106 000e 0020     		movs	r0, #0
 3107 0010 FFF7FEFF 		bl	VDAC_Vds_SetValue
ARM GAS  C:\Users\FRANKL~1\AppData\Local\Temp\ccXJlYBQ.s 			page 77


 3108              	.LVL406:
 501:main.c        **** }
 3109              		.loc 2 501 0
 3110 0014 0020     		movs	r0, #0
 3111 0016 FFF7FEFF 		bl	VDAC_Vgs_SetValue
 3112              	.LVL407:
 3113 001a 08BD     		pop	{r3, pc}
 3114              		.cfi_endproc
 3115              	.LFE98:
 3116              		.size	Zero_All_DACs, .-Zero_All_DACs
 3117              		.section	.text.Measure,"ax",%progbits
 3118              		.align	2
 3119              		.global	Measure
 3120              		.thumb
 3121              		.thumb_func
 3122              		.type	Measure, %function
 3123              	Measure:
 3124              	.LFB99:
 504:main.c        **** 	int32 IdsAverage = 0;
 3125              		.loc 2 504 0
 3126              		.cfi_startproc
 3127              		@ args = 0, pretend = 0, frame = 8
 3128              		@ frame_needed = 0, uses_anonymous_args = 0
 3129 0000 2DE9F047 		push	{r4, r5, r6, r7, r8, r9, r10, lr}
 3130              		.cfi_def_cfa_offset 32
 3131              		.cfi_offset 4, -32
 3132              		.cfi_offset 5, -28
 3133              		.cfi_offset 6, -24
 3134              		.cfi_offset 7, -20
 3135              		.cfi_offset 8, -16
 3136              		.cfi_offset 9, -12
 3137              		.cfi_offset 10, -8
 3138              		.cfi_offset 14, -4
 3139 0004 8AB0     		sub	sp, sp, #40
 3140              		.cfi_def_cfa_offset 72
 505:main.c        **** 	int32 IdsStandardDeviation = 0;
 3141              		.loc 2 505 0
 3142 0006 0023     		movs	r3, #0
 3143 0008 0993     		str	r3, [sp, #36]
 506:main.c        **** 	
 3144              		.loc 2 506 0
 3145 000a 0AA9     		add	r1, sp, #40
 3146 000c 41F8083D 		str	r3, [r1, #-8]!
 508:main.c        **** 	
 3147              		.loc 2 508 0
 3148 0010 6422     		movs	r2, #100
 3149 0012 09A8     		add	r0, sp, #36
 3150 0014 FFF7FEFF 		bl	ADC_Measure_uV
 3151              	.LVL408:
 510:main.c        **** 	
 3152              		.loc 2 510 0
 3153 0018 0998     		ldr	r0, [sp, #36]
 3154 001a FFF7FEFF 		bl	__aeabi_i2d
 3155              	.LVL409:
 3156 001e 2AA3     		adr	r3, .L278
 3157 0020 D3E90023 		ldrd	r2, [r3]
 3158 0024 FFF7FEFF 		bl	__aeabi_dmul
ARM GAS  C:\Users\FRANKL~1\AppData\Local\Temp\ccXJlYBQ.s 			page 78


 3159              	.LVL410:
 3160 0028 FFF7FEFF 		bl	__aeabi_d2f
 3161              	.LVL411:
 3162 002c 0446     		mov	r4, r0
 3163              	.LVL412:
 512:main.c        **** 	ADC_SAR_2_StartConvert();
 3164              		.loc 2 512 0
 3165 002e FFF7FEFF 		bl	ADC_SAR_1_StartConvert
 3166              	.LVL413:
 513:main.c        **** 	while (!ADC_SAR_1_IsEndConversion(ADC_SAR_1_RETURN_STATUS));
 3167              		.loc 2 513 0
 3168 0032 FFF7FEFF 		bl	ADC_SAR_2_StartConvert
 3169              	.LVL414:
 3170              	.L275:
 514:main.c        **** 	while (!ADC_SAR_2_IsEndConversion(ADC_SAR_2_RETURN_STATUS));
 3171              		.loc 2 514 0 discriminator 1
 3172 0036 0120     		movs	r0, #1
 3173 0038 FFF7FEFF 		bl	ADC_SAR_1_IsEndConversion
 3174              	.LVL415:
 3175 003c 0028     		cmp	r0, #0
 3176 003e FAD0     		beq	.L275
 3177              	.L276:
 515:main.c        **** 	
 3178              		.loc 2 515 0 discriminator 1
 3179 0040 0120     		movs	r0, #1
 3180 0042 FFF7FEFF 		bl	ADC_SAR_2_IsEndConversion
 3181              	.LVL416:
 3182 0046 0028     		cmp	r0, #0
 3183 0048 FAD0     		beq	.L276
 517:main.c        **** 	float SAR2 = ADC_SAR_2_CountsTo_Volts(ADC_SAR_2_GetResult16());
 3184              		.loc 2 517 0
 3185 004a FFF7FEFF 		bl	ADC_SAR_1_GetResult16
 3186              	.LVL417:
 3187 004e FFF7FEFF 		bl	ADC_SAR_1_CountsTo_Volts
 3188              	.LVL418:
 3189 0052 8146     		mov	r9, r0
 3190              	.LVL419:
 518:main.c        **** 	
 3191              		.loc 2 518 0
 3192 0054 FFF7FEFF 		bl	ADC_SAR_2_GetResult16
 3193              	.LVL420:
 3194 0058 FFF7FEFF 		bl	ADC_SAR_2_CountsTo_Volts
 3195              	.LVL421:
 3196 005c 8246     		mov	r10, r0
 3197              	.LVL422:
 520:main.c        **** 	USBUARTH_Send(TransmitBuffer, strlen(TransmitBuffer));
 3198              		.loc 2 520 0
 3199 005e FFF7FEFF 		bl	Get_Vgs
 3200              	.LVL423:
 3201 0062 0546     		mov	r5, r0
 3202 0064 FFF7FEFF 		bl	Get_Vds
 3203              	.LVL424:
 3204 0068 8046     		mov	r8, r0
 3205 006a 2046     		mov	r0, r4
 3206 006c FFF7FEFF 		bl	__aeabi_f2d
 3207              	.LVL425:
 3208 0070 0646     		mov	r6, r0
ARM GAS  C:\Users\FRANKL~1\AppData\Local\Temp\ccXJlYBQ.s 			page 79


 3209 0072 0F46     		mov	r7, r1
 3210 0074 164C     		ldr	r4, .L278+8
 3211              	.LVL426:
 3212 0076 5046     		mov	r0, r10
 3213 0078 FFF7FEFF 		bl	__aeabi_f2d
 3214              	.LVL427:
 3215 007c CDE90601 		strd	r0, [sp, #24]
 3216 0080 4846     		mov	r0, r9
 3217 0082 FFF7FEFF 		bl	__aeabi_f2d
 3218              	.LVL428:
 3219 0086 CDE90401 		strd	r0, [sp, #16]
 3220 008a 4046     		mov	r0, r8
 3221 008c FFF7FEFF 		bl	__aeabi_f2d
 3222              	.LVL429:
 3223 0090 CDE90201 		strd	r0, [sp, #8]
 3224 0094 2846     		mov	r0, r5
 3225 0096 FFF7FEFF 		bl	__aeabi_f2d
 3226              	.LVL430:
 3227 009a CDE90001 		strd	r0, [sp]
 3228 009e 3246     		mov	r2, r6
 3229 00a0 3B46     		mov	r3, r7
 3230 00a2 0C49     		ldr	r1, .L278+12
 3231 00a4 2046     		mov	r0, r4
 3232 00a6 FFF7FEFF 		bl	sprintf
 3233              	.LVL431:
 521:main.c        **** 	UART_1_PutString(TransmitBuffer);
 3234              		.loc 2 521 0
 3235 00aa 2046     		mov	r0, r4
 3236 00ac FFF7FEFF 		bl	strlen
 3237              	.LVL432:
 3238 00b0 81B2     		uxth	r1, r0
 3239 00b2 2046     		mov	r0, r4
 3240 00b4 FFF7FEFF 		bl	USBUARTH_Send
 3241              	.LVL433:
 522:main.c        **** }
 3242              		.loc 2 522 0
 3243 00b8 2046     		mov	r0, r4
 3244 00ba FFF7FEFF 		bl	UART_1_PutString
 3245              	.LVL434:
 523:main.c        **** 
 3246              		.loc 2 523 0
 3247 00be 0AB0     		add	sp, sp, #40
 3248              		.cfi_def_cfa_offset 32
 3249              		@ sp needed
 3250 00c0 BDE8F087 		pop	{r4, r5, r6, r7, r8, r9, r10, pc}
 3251              	.LVL435:
 3252              	.L279:
 3253 00c4 AFF30080 		.align	3
 3254              	.L278:
 3255 00c8 BABDD7D9 		.word	-640172614
 3256 00cc DF7CCBBD 		.word	-1110737697
 3257 00d0 00000000 		.word	TransmitBuffer
 3258 00d4 B0000000 		.word	.LC12
 3259              		.cfi_endproc
 3260              	.LFE99:
 3261              		.size	Measure, .-Measure
 3262              		.section	.text.Measure_Multiple,"ax",%progbits
ARM GAS  C:\Users\FRANKL~1\AppData\Local\Temp\ccXJlYBQ.s 			page 80


 3263              		.align	2
 3264              		.global	Measure_Multiple
 3265              		.thumb
 3266              		.thumb_func
 3267              		.type	Measure_Multiple, %function
 3268              	Measure_Multiple:
 3269              	.LFB100:
 525:main.c        **** 	for (uint32 i = 0; i < n; i++) {
 3270              		.loc 2 525 0
 3271              		.cfi_startproc
 3272              		@ args = 0, pretend = 0, frame = 0
 3273              		@ frame_needed = 0, uses_anonymous_args = 0
 3274              	.LVL436:
 3275 0000 38B5     		push	{r3, r4, r5, lr}
 3276              		.cfi_def_cfa_offset 16
 3277              		.cfi_offset 3, -16
 3278              		.cfi_offset 4, -12
 3279              		.cfi_offset 5, -8
 3280              		.cfi_offset 14, -4
 3281 0002 0546     		mov	r5, r0
 3282              	.LVL437:
 3283              	.LBB38:
 526:main.c        **** 		Measure();
 3284              		.loc 2 526 0
 3285 0004 0024     		movs	r4, #0
 3286 0006 02E0     		b	.L281
 3287              	.LVL438:
 3288              	.L282:
 527:main.c        **** 	}
 3289              		.loc 2 527 0 discriminator 3
 3290 0008 FFF7FEFF 		bl	Measure
 3291              	.LVL439:
 526:main.c        **** 		Measure();
 3292              		.loc 2 526 0 discriminator 3
 3293 000c 0134     		adds	r4, r4, #1
 3294              	.LVL440:
 3295              	.L281:
 526:main.c        **** 		Measure();
 3296              		.loc 2 526 0 is_stmt 0 discriminator 1
 3297 000e AC42     		cmp	r4, r5
 3298 0010 FAD3     		bcc	.L282
 3299              	.LBE38:
 529:main.c        **** 
 3300              		.loc 2 529 0 is_stmt 1
 3301 0012 38BD     		pop	{r3, r4, r5, pc}
 3302              		.cfi_endproc
 3303              	.LFE100:
 3304              		.size	Measure_Multiple, .-Measure_Multiple
 3305              		.section	.text.Measure_Gate_Sweep_New,"ax",%progbits
 3306              		.align	2
 3307              		.global	Measure_Gate_Sweep_New
 3308              		.thumb
 3309              		.thumb_func
 3310              		.type	Measure_Gate_Sweep_New, %function
 3311              	Measure_Gate_Sweep_New:
 3312              	.LFB101:
 531:main.c        **** 	uint8 refTurn = 1;
ARM GAS  C:\Users\FRANKL~1\AppData\Local\Temp\ccXJlYBQ.s 			page 81


 3313              		.loc 2 531 0
 3314              		.cfi_startproc
 3315              		@ args = 0, pretend = 0, frame = 0
 3316              		@ frame_needed = 0, uses_anonymous_args = 0
 3317 0000 2DE9F843 		push	{r3, r4, r5, r6, r7, r8, r9, lr}
 3318              		.cfi_def_cfa_offset 32
 3319              		.cfi_offset 3, -32
 3320              		.cfi_offset 4, -28
 3321              		.cfi_offset 5, -24
 3322              		.cfi_offset 6, -20
 3323              		.cfi_offset 7, -16
 3324              		.cfi_offset 8, -12
 3325              		.cfi_offset 9, -8
 3326              		.cfi_offset 14, -4
 3327              	.LVL441:
 543:main.c        **** 	
 3328              		.loc 2 543 0
 3329 0004 0027     		movs	r7, #0
 542:main.c        **** 	uint8 gateArrived = 0;
 3330              		.loc 2 542 0
 3331 0006 3E46     		mov	r6, r7
 537:main.c        **** 	
 3332              		.loc 2 537 0
 3333 0008 B946     		mov	r9, r7
 536:main.c        **** 	uint8 refArrived = 0;
 3334              		.loc 2 536 0
 3335 000a 3D46     		mov	r5, r7
 532:main.c        **** 	int8 refIncrement = 1;
 3336              		.loc 2 532 0
 3337 000c 0124     		movs	r4, #1
 546:main.c        **** 		gateArrived = abs(gateIndex-endGateIndex) < abs(gateIncrement);
 3338              		.loc 2 546 0
 3339 000e 36E0     		b	.L285
 3340              	.LVL442:
 3341              	.L293:
 547:main.c        **** 		refArrived = abs(refIndex-endRefIndex) < abs(refIncrement);
 3342              		.loc 2 547 0
 3343 0010 86EAE673 		eor	r3, r6, r6, asr #31
 3344 0014 A3EBE673 		sub	r3, r3, r6, asr #31
 3345 0018 002B     		cmp	r3, #0
 3346 001a CCBF     		ite	gt
 3347 001c 0027     		movgt	r7, #0
 3348              	.LVL443:
 3349 001e 0127     		movle	r7, #1
 3350              	.LVL444:
 548:main.c        **** 		
 3351              		.loc 2 548 0
 3352 0020 85EAE572 		eor	r2, r5, r5, asr #31
 3353 0024 A2EBE572 		sub	r2, r2, r5, asr #31
 3354 0028 002A     		cmp	r2, #0
 3355 002a CCBF     		ite	gt
 3356 002c 4FF00009 		movgt	r9, #0
 3357              	.LVL445:
 3358 0030 4FF00109 		movle	r9, #1
 3359              	.LVL446:
 550:main.c        **** 		
 3360              		.loc 2 550 0
ARM GAS  C:\Users\FRANKL~1\AppData\Local\Temp\ccXJlYBQ.s 			page 82


 3361 0034 002C     		cmp	r4, #0
 3362 0036 0CBF     		ite	eq
 3363 0038 4FF00108 		moveq	r8, #1
 3364 003c 4FF00008 		movne	r8, #0
 3365              	.LVL447:
 552:main.c        **** 		if (!refTurn && gateArrived) continue;
 3366              		.loc 2 552 0
 3367 0040 01D1     		bne	.L286
 552:main.c        **** 		if (!refTurn && gateArrived) continue;
 3368              		.loc 2 552 0 is_stmt 0 discriminator 1
 3369 0042 002A     		cmp	r2, #0
 3370 0044 1ADD     		ble	.L287
 3371              	.L286:
 553:main.c        **** 		
 3372              		.loc 2 553 0 is_stmt 1
 3373 0046 0CB1     		cbz	r4, .L288
 553:main.c        **** 		
 3374              		.loc 2 553 0 is_stmt 0 discriminator 1
 3375 0048 002B     		cmp	r3, #0
 3376 004a 17DD     		ble	.L287
 3377              	.L288:
 555:main.c        **** 		Set_Vgs_Raw(gateIndex);
 3378              		.loc 2 555 0 is_stmt 1
 3379 004c 2846     		mov	r0, r5
 3380 004e FFF7FEFF 		bl	Set_Ref_Raw
 3381              	.LVL448:
 556:main.c        **** 		
 3382              		.loc 2 556 0
 3383 0052 3046     		mov	r0, r6
 3384 0054 FFF7FEFF 		bl	Set_Vgs_Raw
 3385              	.LVL449:
 558:main.c        **** 		
 3386              		.loc 2 558 0
 3387 0058 FFF7FEFF 		bl	Measure
 3388              	.LVL450:
 560:main.c        **** 			refIndex += refIncrement;
 3389              		.loc 2 560 0
 3390 005c 14B9     		cbnz	r4, .L289
 561:main.c        **** 		} else {
 3391              		.loc 2 561 0
 3392 005e 0135     		adds	r5, r5, #1
 3393              	.LVL451:
 3394 0060 EDB2     		uxtb	r5, r5
 3395              	.LVL452:
 3396 0062 01E0     		b	.L290
 3397              	.L289:
 563:main.c        **** 		}
 3398              		.loc 2 563 0
 3399 0064 0136     		adds	r6, r6, #1
 3400              	.LVL453:
 3401 0066 F6B2     		uxtb	r6, r6
 3402              	.LVL454:
 3403              	.L290:
 566:main.c        **** 		while (G_Pause);
 3404              		.loc 2 566 0
 3405 0068 084B     		ldr	r3, .L295
 3406 006a 5B78     		ldrb	r3, [r3, #1]	@ zero_extendqisi2
ARM GAS  C:\Users\FRANKL~1\AppData\Local\Temp\ccXJlYBQ.s 			page 83


 3407 006c 13F0FF0F 		tst	r3, #255
 3408 0070 0AD1     		bne	.L284
 3409              	.L292:
 567:main.c        **** 	}
 3410              		.loc 2 567 0 discriminator 1
 3411 0072 064B     		ldr	r3, .L295
 3412 0074 DB78     		ldrb	r3, [r3, #3]	@ zero_extendqisi2
 3413 0076 13F0FF0F 		tst	r3, #255
 3414 007a FAD1     		bne	.L292
 3415              	.L287:
 531:main.c        **** 	uint8 refTurn = 1;
 3416              		.loc 2 531 0
 3417 007c 4446     		mov	r4, r8
 3418              	.LVL455:
 3419              	.L285:
 546:main.c        **** 		gateArrived = abs(gateIndex-endGateIndex) < abs(gateIncrement);
 3420              		.loc 2 546 0
 3421 007e 002F     		cmp	r7, #0
 3422 0080 C6D0     		beq	.L293
 546:main.c        **** 		gateArrived = abs(gateIndex-endGateIndex) < abs(gateIncrement);
 3423              		.loc 2 546 0 is_stmt 0 discriminator 1
 3424 0082 B9F1000F 		cmp	r9, #0
 3425 0086 C3D0     		beq	.L293
 3426              	.LVL456:
 3427              	.L284:
 3428 0088 BDE8F883 		pop	{r3, r4, r5, r6, r7, r8, r9, pc}
 3429              	.LVL457:
 3430              	.L296:
 3431              		.align	2
 3432              	.L295:
 3433 008c 00000000 		.word	.LANCHOR0
 3434              		.cfi_endproc
 3435              	.LFE101:
 3436              		.size	Measure_Gate_Sweep_New, .-Measure_Gate_Sweep_New
 3437              		.section	.text.Measure_Gate_Sweep,"ax",%progbits
 3438              		.align	2
 3439              		.global	Measure_Gate_Sweep
 3440              		.thumb
 3441              		.thumb_func
 3442              		.type	Measure_Gate_Sweep, %function
 3443              	Measure_Gate_Sweep:
 3444              	.LFB102:
 571:main.c        **** 	
 3445              		.loc 2 571 0 is_stmt 1
 3446              		.cfi_startproc
 3447              		@ args = 0, pretend = 0, frame = 32
 3448              		@ frame_needed = 0, uses_anonymous_args = 0
 3449              	.LVL458:
 3450 0000 2DE9F04F 		push	{r4, r5, r6, r7, r8, r9, r10, fp, lr}
 3451              		.cfi_def_cfa_offset 36
 3452              		.cfi_offset 4, -36
 3453              		.cfi_offset 5, -32
 3454              		.cfi_offset 6, -28
 3455              		.cfi_offset 7, -24
 3456              		.cfi_offset 8, -20
 3457              		.cfi_offset 9, -16
 3458              		.cfi_offset 10, -12
ARM GAS  C:\Users\FRANKL~1\AppData\Local\Temp\ccXJlYBQ.s 			page 84


 3459              		.cfi_offset 11, -8
 3460              		.cfi_offset 14, -4
 3461 0004 91B0     		sub	sp, sp, #68
 3462              		.cfi_def_cfa_offset 104
 3463 0006 0D90     		str	r0, [sp, #52]
 573:main.c        **** 		Set_Ref_Raw(254 - Vds_Index_Goal_Relative);
 3464              		.loc 2 573 0
 3465 0008 594B     		ldr	r3, .L315+8
 3466 000a B3F90030 		ldrsh	r3, [r3]
 3467 000e 002B     		cmp	r3, #0
 3468 0010 07DD     		ble	.L298
 574:main.c        **** 	} else {
 3469              		.loc 2 574 0
 3470 0012 C3F1FE00 		rsb	r0, r3, #254
 3471              	.LVL459:
 3472 0016 C0B2     		uxtb	r0, r0
 3473 0018 FFF7FEFF 		bl	Set_Ref_Raw
 3474              	.LVL460:
 3475              	.L300:
 3476              	.LBB39:
 3477              	.LBB40:
 3478              	.LBB41:
 3479 001c 0023     		movs	r3, #0
 3480 001e 0C93     		str	r3, [sp, #48]
 3481 0020 97E0     		b	.L299
 3482              	.LVL461:
 3483              	.L298:
 3484              	.LBE41:
 3485              	.LBE40:
 3486              	.LBE39:
 576:main.c        **** 	}
 3487              		.loc 2 576 0
 3488 0022 FE20     		movs	r0, #254
 3489              	.LVL462:
 3490 0024 FFF7FEFF 		bl	Set_Ref_Raw
 3491              	.LVL463:
 3492 0028 F8E7     		b	.L300
 3493              	.LVL464:
 3494              	.L311:
 3495              	.LBB47:
 3496              	.LBB46:
 590:main.c        **** 			direction = -1*speed;
 3497              		.loc 2 590 0
 3498 002a 0C9B     		ldr	r3, [sp, #48]
 3499 002c 13F0010F 		tst	r3, #1
 3500 0030 07D1     		bne	.L312
 588:main.c        **** 		
 3501              		.loc 2 588 0
 3502 0032 4FF0F008 		mov	r8, #240
 583:main.c        **** 		if (Vds_Index_Goal_Relative < 0) {
 3503              		.loc 2 583 0
 3504 0036 0027     		movs	r7, #0
 582:main.c        **** 		uint8 istart = 0;
 3505              		.loc 2 582 0
 3506 0038 1026     		movs	r6, #16
 3507 003a 3B46     		mov	r3, r7
 3508 003c 4746     		mov	r7, r8
ARM GAS  C:\Users\FRANKL~1\AppData\Local\Temp\ccXJlYBQ.s 			page 85


 3509 003e 9846     		mov	r8, r3
 3510 0040 81E0     		b	.L302
 3511              	.L312:
 593:main.c        **** 		}
 3512              		.loc 2 593 0
 3513 0042 4FF00008 		mov	r8, #0
 592:main.c        **** 			istop = 0;
 3514              		.loc 2 592 0
 3515 0046 F027     		movs	r7, #240
 591:main.c        **** 			istart = 256-speed;
 3516              		.loc 2 591 0
 3517 0048 6FF00F06 		mvn	r6, #15
 3518              	.LVL465:
 3519 004c 3B46     		mov	r3, r7
 3520 004e 4746     		mov	r7, r8
 3521              	.LVL466:
 3522 0050 9846     		mov	r8, r3
 3523              	.LVL467:
 3524              	.LBB45:
 596:main.c        **** 			for (uint8 j = 0; j <= 1; j++) {
 3525              		.loc 2 596 0
 3526 0052 78E0     		b	.L302
 3527              	.LVL468:
 3528              	.L310:
 3529              	.LBB42:
 3530              	.LBB43:
 598:main.c        **** 				int32 IdsStandardDeviation = 0;
 3531              		.loc 2 598 0
 3532 0054 0023     		movs	r3, #0
 3533 0056 0E93     		str	r3, [sp, #56]
 599:main.c        **** 				
 3534              		.loc 2 599 0
 3535 0058 0F93     		str	r3, [sp, #60]
 601:main.c        **** 				Set_Vgs_Raw(i);
 3536              		.loc 2 601 0
 3537 005a 012C     		cmp	r4, #1
 3538 005c 04D1     		bne	.L303
 601:main.c        **** 				Set_Vgs_Raw(i);
 3539              		.loc 2 601 0 is_stmt 0 discriminator 1
 3540 005e 6FEA0800 		mvn	r0, r8
 3541 0062 C0B2     		uxtb	r0, r0
 3542 0064 FFF7FEFF 		bl	Set_Ref_Raw
 3543              	.LVL469:
 3544              	.L303:
 602:main.c        **** 				
 3545              		.loc 2 602 0 is_stmt 1
 3546 0068 4046     		mov	r0, r8
 3547 006a FFF7FEFF 		bl	Set_Vgs_Raw
 3548              	.LVL470:
 604:main.c        **** 				
 3549              		.loc 2 604 0
 3550 006e 2122     		movs	r2, #33
 3551 0070 0FA9     		add	r1, sp, #60
 3552 0072 0EA8     		add	r0, sp, #56
 3553 0074 FFF7FEFF 		bl	ADC_Measure_uV
 3554              	.LVL471:
 606:main.c        **** 				
ARM GAS  C:\Users\FRANKL~1\AppData\Local\Temp\ccXJlYBQ.s 			page 86


 3555              		.loc 2 606 0
 3556 0078 0E98     		ldr	r0, [sp, #56]
 3557 007a FFF7FEFF 		bl	__aeabi_i2d
 3558              	.LVL472:
 3559 007e 3AA3     		adr	r3, .L315
 3560 0080 D3E90023 		ldrd	r2, [r3]
 3561 0084 FFF7FEFF 		bl	__aeabi_dmul
 3562              	.LVL473:
 3563 0088 FFF7FEFF 		bl	__aeabi_d2f
 3564              	.LVL474:
 3565 008c 0546     		mov	r5, r0
 3566              	.LVL475:
 608:main.c        **** 				ADC_SAR_2_StartConvert();
 3567              		.loc 2 608 0
 3568 008e FFF7FEFF 		bl	ADC_SAR_1_StartConvert
 3569              	.LVL476:
 609:main.c        **** 				while (!ADC_SAR_1_IsEndConversion(ADC_SAR_1_RETURN_STATUS));
 3570              		.loc 2 609 0
 3571 0092 FFF7FEFF 		bl	ADC_SAR_2_StartConvert
 3572              	.LVL477:
 3573              	.L304:
 610:main.c        **** 				while (!ADC_SAR_2_IsEndConversion(ADC_SAR_2_RETURN_STATUS));
 3574              		.loc 2 610 0 discriminator 1
 3575 0096 0120     		movs	r0, #1
 3576 0098 FFF7FEFF 		bl	ADC_SAR_1_IsEndConversion
 3577              	.LVL478:
 3578 009c 0028     		cmp	r0, #0
 3579 009e FAD0     		beq	.L304
 3580              	.L305:
 611:main.c        **** 				
 3581              		.loc 2 611 0 discriminator 1
 3582 00a0 0120     		movs	r0, #1
 3583 00a2 FFF7FEFF 		bl	ADC_SAR_2_IsEndConversion
 3584              	.LVL479:
 3585 00a6 0028     		cmp	r0, #0
 3586 00a8 FAD0     		beq	.L305
 613:main.c        **** 				float SAR2 = ADC_SAR_2_CountsTo_Volts(ADC_SAR_2_GetResult16());
 3587              		.loc 2 613 0
 3588 00aa FFF7FEFF 		bl	ADC_SAR_1_GetResult16
 3589              	.LVL480:
 3590 00ae FFF7FEFF 		bl	ADC_SAR_1_CountsTo_Volts
 3591              	.LVL481:
 3592 00b2 8246     		mov	r10, r0
 3593              	.LVL482:
 614:main.c        **** 				
 3594              		.loc 2 614 0
 3595 00b4 FFF7FEFF 		bl	ADC_SAR_2_GetResult16
 3596              	.LVL483:
 3597 00b8 FFF7FEFF 		bl	ADC_SAR_2_CountsTo_Volts
 3598              	.LVL484:
 3599 00bc 8346     		mov	fp, r0
 3600              	.LVL485:
 616:main.c        **** 				USBUARTH_Send(TransmitBuffer, strlen(TransmitBuffer));
 3601              		.loc 2 616 0
 3602 00be FFF7FEFF 		bl	Get_Vgs
 3603              	.LVL486:
 3604 00c2 0990     		str	r0, [sp, #36]	@ float
ARM GAS  C:\Users\FRANKL~1\AppData\Local\Temp\ccXJlYBQ.s 			page 87


 3605 00c4 FFF7FEFF 		bl	Get_Vds
 3606              	.LVL487:
 3607 00c8 8146     		mov	r9, r0
 3608 00ca 2846     		mov	r0, r5
 3609 00cc FFF7FEFF 		bl	__aeabi_f2d
 3610              	.LVL488:
 3611 00d0 CDE90A01 		strd	r0, [sp, #40]
 3612 00d4 274D     		ldr	r5, .L315+12
 3613              	.LVL489:
 3614 00d6 5846     		mov	r0, fp
 3615 00d8 FFF7FEFF 		bl	__aeabi_f2d
 3616              	.LVL490:
 3617 00dc CDE90601 		strd	r0, [sp, #24]
 3618 00e0 5046     		mov	r0, r10
 3619 00e2 FFF7FEFF 		bl	__aeabi_f2d
 3620              	.LVL491:
 3621 00e6 CDE90401 		strd	r0, [sp, #16]
 3622 00ea 4846     		mov	r0, r9
 3623 00ec FFF7FEFF 		bl	__aeabi_f2d
 3624              	.LVL492:
 3625 00f0 CDE90201 		strd	r0, [sp, #8]
 3626 00f4 0998     		ldr	r0, [sp, #36]	@ float
 3627 00f6 FFF7FEFF 		bl	__aeabi_f2d
 3628              	.LVL493:
 3629 00fa CDE90001 		strd	r0, [sp]
 3630 00fe DDE90A23 		ldrd	r2, [sp, #40]
 3631 0102 1D49     		ldr	r1, .L315+16
 3632 0104 2846     		mov	r0, r5
 3633 0106 FFF7FEFF 		bl	sprintf
 3634              	.LVL494:
 617:main.c        **** 				UART_1_PutString(TransmitBuffer);
 3635              		.loc 2 617 0
 3636 010a 2846     		mov	r0, r5
 3637 010c FFF7FEFF 		bl	strlen
 3638              	.LVL495:
 3639 0110 81B2     		uxth	r1, r0
 3640 0112 2846     		mov	r0, r5
 3641 0114 FFF7FEFF 		bl	USBUARTH_Send
 3642              	.LVL496:
 618:main.c        **** 				
 3643              		.loc 2 618 0
 3644 0118 2846     		mov	r0, r5
 3645 011a FFF7FEFF 		bl	UART_1_PutString
 3646              	.LVL497:
 620:main.c        **** 				while (G_Pause);
 3647              		.loc 2 620 0
 3648 011e 174B     		ldr	r3, .L315+20
 3649 0120 5B78     		ldrb	r3, [r3, #1]	@ zero_extendqisi2
 3650 0122 13F0FF0F 		tst	r3, #255
 3651 0126 0AD1     		bne	.L309
 3652              	.L307:
 621:main.c        **** 			}
 3653              		.loc 2 621 0 discriminator 1
 3654 0128 144B     		ldr	r3, .L315+20
 3655 012a DB78     		ldrb	r3, [r3, #3]	@ zero_extendqisi2
 3656 012c 13F0FF0F 		tst	r3, #255
 3657 0130 FAD1     		bne	.L307
ARM GAS  C:\Users\FRANKL~1\AppData\Local\Temp\ccXJlYBQ.s 			page 88


 3658              	.LBE43:
 597:main.c        **** 				int32 IdsAverage = 0;
 3659              		.loc 2 597 0
 3660 0132 0134     		adds	r4, r4, #1
 3661              	.LVL498:
 3662 0134 E4B2     		uxtb	r4, r4
 3663              	.LVL499:
 3664 0136 00E0     		b	.L308
 3665              	.LVL500:
 3666              	.L313:
 3667              	.LBE42:
 3668 0138 0024     		movs	r4, #0
 3669              	.L308:
 3670              	.LVL501:
 3671              	.LBB44:
 597:main.c        **** 				int32 IdsAverage = 0;
 3672              		.loc 2 597 0 is_stmt 0 discriminator 1
 3673 013a 012C     		cmp	r4, #1
 3674 013c 8AD9     		bls	.L310
 3675              	.L309:
 3676              	.LBE44:
 596:main.c        **** 			for (uint8 j = 0; j <= 1; j++) {
 3677              		.loc 2 596 0 is_stmt 1 discriminator 2
 3678 013e 08EB0603 		add	r3, r8, r6
 3679 0142 5FFA83F8 		uxtb	r8, r3
 3680              	.LVL502:
 3681              	.L302:
 596:main.c        **** 			for (uint8 j = 0; j <= 1; j++) {
 3682              		.loc 2 596 0 is_stmt 0 discriminator 1
 3683 0146 4745     		cmp	r7, r8
 3684 0148 F6D1     		bne	.L313
 3685              	.LBE45:
 3686              	.LBE46:
 581:main.c        **** 		int8 direction = 1*speed;
 3687              		.loc 2 581 0 is_stmt 1 discriminator 2
 3688 014a 0C9B     		ldr	r3, [sp, #48]
 3689 014c 0133     		adds	r3, r3, #1
 3690 014e DBB2     		uxtb	r3, r3
 3691 0150 0C93     		str	r3, [sp, #48]
 3692              	.LVL503:
 3693              	.L299:
 581:main.c        **** 		int8 direction = 1*speed;
 3694              		.loc 2 581 0 is_stmt 0 discriminator 1
 3695 0152 0C9B     		ldr	r3, [sp, #48]
 3696 0154 0D9A     		ldr	r2, [sp, #52]
 3697 0156 9342     		cmp	r3, r2
 3698 0158 7FF667AF 		bls	.L311
 3699              	.LBE47:
 625:main.c        **** 
 3700              		.loc 2 625 0 is_stmt 1
 3701 015c 11B0     		add	sp, sp, #68
 3702              		.cfi_def_cfa_offset 36
 3703              		@ sp needed
 3704 015e BDE8F08F 		pop	{r4, r5, r6, r7, r8, r9, r10, fp, pc}
 3705              	.LVL504:
 3706              	.L316:
 3707 0162 00BFAFF3 		.align	3
ARM GAS  C:\Users\FRANKL~1\AppData\Local\Temp\ccXJlYBQ.s 			page 89


 3707      0080
 3708              	.L315:
 3709 0168 BABDD7D9 		.word	-640172614
 3710 016c DF7CCBBD 		.word	-1110737697
 3711 0170 00000000 		.word	Vds_Index_Goal_Relative
 3712 0174 00000000 		.word	TransmitBuffer
 3713 0178 B0000000 		.word	.LC12
 3714 017c 00000000 		.word	.LANCHOR0
 3715              		.cfi_endproc
 3716              	.LFE102:
 3717              		.size	Measure_Gate_Sweep, .-Measure_Gate_Sweep
 3718              		.section	.text.Measure_Wide_Gate_Sweep,"ax",%progbits
 3719              		.align	2
 3720              		.global	Measure_Wide_Gate_Sweep
 3721              		.thumb
 3722              		.thumb_func
 3723              		.type	Measure_Wide_Gate_Sweep, %function
 3724              	Measure_Wide_Gate_Sweep:
 3725              	.LFB103:
 627:main.c        **** 	Set_Ref_Raw(254);
 3726              		.loc 2 627 0
 3727              		.cfi_startproc
 3728              		@ args = 0, pretend = 0, frame = 32
 3729              		@ frame_needed = 0, uses_anonymous_args = 0
 3730              	.LVL505:
 3731 0000 2DE9F04F 		push	{r4, r5, r6, r7, r8, r9, r10, fp, lr}
 3732              		.cfi_def_cfa_offset 36
 3733              		.cfi_offset 4, -36
 3734              		.cfi_offset 5, -32
 3735              		.cfi_offset 6, -28
 3736              		.cfi_offset 7, -24
 3737              		.cfi_offset 8, -20
 3738              		.cfi_offset 9, -16
 3739              		.cfi_offset 10, -12
 3740              		.cfi_offset 11, -8
 3741              		.cfi_offset 14, -4
 3742 0004 91B0     		sub	sp, sp, #68
 3743              		.cfi_def_cfa_offset 104
 3744 0006 0D90     		str	r0, [sp, #52]
 628:main.c        **** 	
 3745              		.loc 2 628 0
 3746 0008 FE20     		movs	r0, #254
 3747              	.LVL506:
 3748 000a FFF7FEFF 		bl	Set_Ref_Raw
 3749              	.LVL507:
 3750              	.LBB48:
 632:main.c        **** 		int8 direction = 1*speed;
 3751              		.loc 2 632 0
 3752 000e 0023     		movs	r3, #0
 3753 0010 0C93     		str	r3, [sp, #48]
 3754 0012 93E0     		b	.L318
 3755              	.LVL508:
 3756              	.L329:
 3757              	.LBB49:
 637:main.c        **** 			direction = -1*speed;
 3758              		.loc 2 637 0
 3759 0014 0C9B     		ldr	r3, [sp, #48]
ARM GAS  C:\Users\FRANKL~1\AppData\Local\Temp\ccXJlYBQ.s 			page 90


 3760 0016 13F0010F 		tst	r3, #1
 3761 001a 07D1     		bne	.L330
 635:main.c        **** 		
 3762              		.loc 2 635 0
 3763 001c 4FF0F008 		mov	r8, #240
 634:main.c        **** 		uint8 istop = 256-speed;
 3764              		.loc 2 634 0
 3765 0020 0027     		movs	r7, #0
 633:main.c        **** 		uint8 istart = 0;
 3766              		.loc 2 633 0
 3767 0022 1026     		movs	r6, #16
 3768 0024 3B46     		mov	r3, r7
 3769 0026 4746     		mov	r7, r8
 3770 0028 9846     		mov	r8, r3
 3771 002a 81E0     		b	.L320
 3772              	.L330:
 640:main.c        **** 		}
 3773              		.loc 2 640 0
 3774 002c 4FF00008 		mov	r8, #0
 639:main.c        **** 			istop = 0;
 3775              		.loc 2 639 0
 3776 0030 F027     		movs	r7, #240
 638:main.c        **** 			istart = 256-speed;
 3777              		.loc 2 638 0
 3778 0032 6FF00F06 		mvn	r6, #15
 3779              	.LVL509:
 3780 0036 3B46     		mov	r3, r7
 3781 0038 4746     		mov	r7, r8
 3782              	.LVL510:
 3783 003a 9846     		mov	r8, r3
 3784              	.LVL511:
 3785              	.LBB50:
 643:main.c        **** 			for (uint8 j = 0; j <= 1; j++) {
 3786              		.loc 2 643 0
 3787 003c 78E0     		b	.L320
 3788              	.LVL512:
 3789              	.L328:
 3790              	.LBB51:
 3791              	.LBB52:
 645:main.c        **** 				int32 IdsStandardDeviation = 0;
 3792              		.loc 2 645 0
 3793 003e 0023     		movs	r3, #0
 3794 0040 0E93     		str	r3, [sp, #56]
 646:main.c        **** 				
 3795              		.loc 2 646 0
 3796 0042 0F93     		str	r3, [sp, #60]
 648:main.c        **** 				Set_Vgs_Raw(i);
 3797              		.loc 2 648 0
 3798 0044 012C     		cmp	r4, #1
 3799 0046 04D1     		bne	.L321
 648:main.c        **** 				Set_Vgs_Raw(i);
 3800              		.loc 2 648 0 is_stmt 0 discriminator 1
 3801 0048 6FEA0800 		mvn	r0, r8
 3802 004c C0B2     		uxtb	r0, r0
 3803 004e FFF7FEFF 		bl	Set_Ref_Raw
 3804              	.LVL513:
 3805              	.L321:
ARM GAS  C:\Users\FRANKL~1\AppData\Local\Temp\ccXJlYBQ.s 			page 91


 649:main.c        **** 				
 3806              		.loc 2 649 0 is_stmt 1
 3807 0052 4046     		mov	r0, r8
 3808 0054 FFF7FEFF 		bl	Set_Vgs_Raw
 3809              	.LVL514:
 651:main.c        **** 				
 3810              		.loc 2 651 0
 3811 0058 2122     		movs	r2, #33
 3812 005a 0FA9     		add	r1, sp, #60
 3813 005c 0EA8     		add	r0, sp, #56
 3814 005e FFF7FEFF 		bl	ADC_Measure_uV
 3815              	.LVL515:
 653:main.c        **** 				
 3816              		.loc 2 653 0
 3817 0062 0E98     		ldr	r0, [sp, #56]
 3818 0064 FFF7FEFF 		bl	__aeabi_i2d
 3819              	.LVL516:
 3820 0068 39A3     		adr	r3, .L333
 3821 006a D3E90023 		ldrd	r2, [r3]
 3822 006e FFF7FEFF 		bl	__aeabi_dmul
 3823              	.LVL517:
 3824 0072 FFF7FEFF 		bl	__aeabi_d2f
 3825              	.LVL518:
 3826 0076 0546     		mov	r5, r0
 3827              	.LVL519:
 655:main.c        **** 				ADC_SAR_2_StartConvert();
 3828              		.loc 2 655 0
 3829 0078 FFF7FEFF 		bl	ADC_SAR_1_StartConvert
 3830              	.LVL520:
 656:main.c        **** 				while (!ADC_SAR_1_IsEndConversion(ADC_SAR_1_RETURN_STATUS));
 3831              		.loc 2 656 0
 3832 007c FFF7FEFF 		bl	ADC_SAR_2_StartConvert
 3833              	.LVL521:
 3834              	.L322:
 657:main.c        **** 				while (!ADC_SAR_2_IsEndConversion(ADC_SAR_2_RETURN_STATUS));
 3835              		.loc 2 657 0 discriminator 1
 3836 0080 0120     		movs	r0, #1
 3837 0082 FFF7FEFF 		bl	ADC_SAR_1_IsEndConversion
 3838              	.LVL522:
 3839 0086 0028     		cmp	r0, #0
 3840 0088 FAD0     		beq	.L322
 3841              	.L323:
 658:main.c        **** 				
 3842              		.loc 2 658 0 discriminator 1
 3843 008a 0120     		movs	r0, #1
 3844 008c FFF7FEFF 		bl	ADC_SAR_2_IsEndConversion
 3845              	.LVL523:
 3846 0090 0028     		cmp	r0, #0
 3847 0092 FAD0     		beq	.L323
 660:main.c        **** 				float SAR2 = ADC_SAR_2_CountsTo_Volts(ADC_SAR_2_GetResult16());
 3848              		.loc 2 660 0
 3849 0094 FFF7FEFF 		bl	ADC_SAR_1_GetResult16
 3850              	.LVL524:
 3851 0098 FFF7FEFF 		bl	ADC_SAR_1_CountsTo_Volts
 3852              	.LVL525:
 3853 009c 8246     		mov	r10, r0
 3854              	.LVL526:
ARM GAS  C:\Users\FRANKL~1\AppData\Local\Temp\ccXJlYBQ.s 			page 92


 661:main.c        **** 				
 3855              		.loc 2 661 0
 3856 009e FFF7FEFF 		bl	ADC_SAR_2_GetResult16
 3857              	.LVL527:
 3858 00a2 FFF7FEFF 		bl	ADC_SAR_2_CountsTo_Volts
 3859              	.LVL528:
 3860 00a6 8346     		mov	fp, r0
 3861              	.LVL529:
 663:main.c        **** 				USBUARTH_Send(TransmitBuffer, strlen(TransmitBuffer));
 3862              		.loc 2 663 0
 3863 00a8 FFF7FEFF 		bl	Get_Vgs
 3864              	.LVL530:
 3865 00ac 0990     		str	r0, [sp, #36]	@ float
 3866 00ae FFF7FEFF 		bl	Get_Vds
 3867              	.LVL531:
 3868 00b2 8146     		mov	r9, r0
 3869 00b4 2846     		mov	r0, r5
 3870 00b6 FFF7FEFF 		bl	__aeabi_f2d
 3871              	.LVL532:
 3872 00ba CDE90A01 		strd	r0, [sp, #40]
 3873 00be 264D     		ldr	r5, .L333+8
 3874              	.LVL533:
 3875 00c0 5846     		mov	r0, fp
 3876 00c2 FFF7FEFF 		bl	__aeabi_f2d
 3877              	.LVL534:
 3878 00c6 CDE90601 		strd	r0, [sp, #24]
 3879 00ca 5046     		mov	r0, r10
 3880 00cc FFF7FEFF 		bl	__aeabi_f2d
 3881              	.LVL535:
 3882 00d0 CDE90401 		strd	r0, [sp, #16]
 3883 00d4 4846     		mov	r0, r9
 3884 00d6 FFF7FEFF 		bl	__aeabi_f2d
 3885              	.LVL536:
 3886 00da CDE90201 		strd	r0, [sp, #8]
 3887 00de 0998     		ldr	r0, [sp, #36]	@ float
 3888 00e0 FFF7FEFF 		bl	__aeabi_f2d
 3889              	.LVL537:
 3890 00e4 CDE90001 		strd	r0, [sp]
 3891 00e8 DDE90A23 		ldrd	r2, [sp, #40]
 3892 00ec 1B49     		ldr	r1, .L333+12
 3893 00ee 2846     		mov	r0, r5
 3894 00f0 FFF7FEFF 		bl	sprintf
 3895              	.LVL538:
 664:main.c        **** 				UART_1_PutString(TransmitBuffer);
 3896              		.loc 2 664 0
 3897 00f4 2846     		mov	r0, r5
 3898 00f6 FFF7FEFF 		bl	strlen
 3899              	.LVL539:
 3900 00fa 81B2     		uxth	r1, r0
 3901 00fc 2846     		mov	r0, r5
 3902 00fe FFF7FEFF 		bl	USBUARTH_Send
 3903              	.LVL540:
 665:main.c        **** 				
 3904              		.loc 2 665 0
 3905 0102 2846     		mov	r0, r5
 3906 0104 FFF7FEFF 		bl	UART_1_PutString
 3907              	.LVL541:
ARM GAS  C:\Users\FRANKL~1\AppData\Local\Temp\ccXJlYBQ.s 			page 93


 667:main.c        **** 				while (G_Pause);
 3908              		.loc 2 667 0
 3909 0108 154B     		ldr	r3, .L333+16
 3910 010a 5B78     		ldrb	r3, [r3, #1]	@ zero_extendqisi2
 3911 010c 13F0FF0F 		tst	r3, #255
 3912 0110 0AD1     		bne	.L327
 3913              	.L325:
 668:main.c        **** 			}
 3914              		.loc 2 668 0 discriminator 1
 3915 0112 134B     		ldr	r3, .L333+16
 3916 0114 DB78     		ldrb	r3, [r3, #3]	@ zero_extendqisi2
 3917 0116 13F0FF0F 		tst	r3, #255
 3918 011a FAD1     		bne	.L325
 3919              	.LBE52:
 644:main.c        **** 				int32 IdsAverage = 0;
 3920              		.loc 2 644 0
 3921 011c 0134     		adds	r4, r4, #1
 3922              	.LVL542:
 3923 011e E4B2     		uxtb	r4, r4
 3924              	.LVL543:
 3925 0120 00E0     		b	.L326
 3926              	.LVL544:
 3927              	.L331:
 3928              	.LBE51:
 3929 0122 0024     		movs	r4, #0
 3930              	.L326:
 3931              	.LVL545:
 3932              	.LBB53:
 644:main.c        **** 				int32 IdsAverage = 0;
 3933              		.loc 2 644 0 is_stmt 0 discriminator 1
 3934 0124 012C     		cmp	r4, #1
 3935 0126 8AD9     		bls	.L328
 3936              	.L327:
 3937              	.LBE53:
 643:main.c        **** 			for (uint8 j = 0; j <= 1; j++) {
 3938              		.loc 2 643 0 is_stmt 1 discriminator 2
 3939 0128 08EB0603 		add	r3, r8, r6
 3940 012c 5FFA83F8 		uxtb	r8, r3
 3941              	.LVL546:
 3942              	.L320:
 643:main.c        **** 			for (uint8 j = 0; j <= 1; j++) {
 3943              		.loc 2 643 0 is_stmt 0 discriminator 1
 3944 0130 4745     		cmp	r7, r8
 3945 0132 F6D1     		bne	.L331
 3946              	.LBE50:
 3947              	.LBE49:
 632:main.c        **** 		int8 direction = 1*speed;
 3948              		.loc 2 632 0 is_stmt 1 discriminator 2
 3949 0134 0C9B     		ldr	r3, [sp, #48]
 3950 0136 0133     		adds	r3, r3, #1
 3951 0138 DBB2     		uxtb	r3, r3
 3952 013a 0C93     		str	r3, [sp, #48]
 3953              	.LVL547:
 3954              	.L318:
 632:main.c        **** 		int8 direction = 1*speed;
 3955              		.loc 2 632 0 is_stmt 0 discriminator 1
 3956 013c 0C9B     		ldr	r3, [sp, #48]
ARM GAS  C:\Users\FRANKL~1\AppData\Local\Temp\ccXJlYBQ.s 			page 94


 3957 013e 0D9A     		ldr	r2, [sp, #52]
 3958 0140 9342     		cmp	r3, r2
 3959 0142 7FF667AF 		bls	.L329
 3960              	.LBE48:
 672:main.c        **** 
 3961              		.loc 2 672 0 is_stmt 1
 3962 0146 11B0     		add	sp, sp, #68
 3963              		.cfi_def_cfa_offset 36
 3964              		@ sp needed
 3965 0148 BDE8F08F 		pop	{r4, r5, r6, r7, r8, r9, r10, fp, pc}
 3966              	.LVL548:
 3967              	.L334:
 3968 014c AFF30080 		.align	3
 3969              	.L333:
 3970 0150 BABDD7D9 		.word	-640172614
 3971 0154 DF7CCBBD 		.word	-1110737697
 3972 0158 00000000 		.word	TransmitBuffer
 3973 015c B0000000 		.word	.LC12
 3974 0160 00000000 		.word	.LANCHOR0
 3975              		.cfi_endproc
 3976              	.LFE103:
 3977              		.size	Measure_Wide_Gate_Sweep, .-Measure_Wide_Gate_Sweep
 3978              		.section	.text.Scan,"ax",%progbits
 3979              		.align	2
 3980              		.global	Scan
 3981              		.thumb
 3982              		.thumb_func
 3983              		.type	Scan, %function
 3984              	Scan:
 3985              	.LFB104:
 674:main.c        **** 	for (uint8 device = 1; device <= CONTACT_COUNT/**//2; device++) {
 3986              		.loc 2 674 0
 3987              		.cfi_startproc
 3988              		@ args = 0, pretend = 0, frame = 0
 3989              		@ frame_needed = 0, uses_anonymous_args = 0
 3990              	.LVL549:
 3991 0000 2DE9F041 		push	{r4, r5, r6, r7, r8, lr}
 3992              		.cfi_def_cfa_offset 24
 3993              		.cfi_offset 4, -24
 3994              		.cfi_offset 5, -20
 3995              		.cfi_offset 6, -16
 3996              		.cfi_offset 7, -12
 3997              		.cfi_offset 8, -8
 3998              		.cfi_offset 14, -4
 3999 0004 0746     		mov	r7, r0
 4000 0006 8846     		mov	r8, r1
 4001              	.LVL550:
 4002              	.LBB54:
 675:main.c        **** 		uint8 contact1 = device;
 4003              		.loc 2 675 0
 4004 0008 0124     		movs	r4, #1
 4005 000a 37E0     		b	.L336
 4006              	.LVL551:
 4007              	.L341:
 4008              	.LBB55:
 677:main.c        **** 		uint8 intermediate1 = 1;
 4009              		.loc 2 677 0
ARM GAS  C:\Users\FRANKL~1\AppData\Local\Temp\ccXJlYBQ.s 			page 95


 4010 000c 661C     		adds	r6, r4, #1
 4011 000e F6B2     		uxtb	r6, r6
 4012              	.LVL552:
 681:main.c        **** 		Zero_All_DACs();
 4013              		.loc 2 681 0
 4014 0010 FFF7FEFF 		bl	Disconnect_All_Contacts_From_All_Intermediates
 4015              	.LVL553:
 682:main.c        **** 		Connect_Intermediates();
 4016              		.loc 2 682 0
 4017 0014 FFF7FEFF 		bl	Zero_All_DACs
 4018              	.LVL554:
 683:main.c        **** 		Connect_Contact_To_Intermediate(contact1, intermediate1);
 4019              		.loc 2 683 0
 4020 0018 FFF7FEFF 		bl	Connect_Intermediates
 4021              	.LVL555:
 684:main.c        **** 		Connect_Contact_To_Intermediate(contact2, intermediate2);
 4022              		.loc 2 684 0
 4023 001c 0121     		movs	r1, #1
 4024 001e 2046     		mov	r0, r4
 4025 0020 FFF7FEFF 		bl	Connect_Contact_To_Intermediate
 4026              	.LVL556:
 685:main.c        **** 		
 4027              		.loc 2 685 0
 4028 0024 0221     		movs	r1, #2
 4029 0026 3046     		mov	r0, r6
 4030 0028 FFF7FEFF 		bl	Connect_Contact_To_Intermediate
 4031              	.LVL557:
 687:main.c        **** 		USBUARTH_Send(TransmitBuffer, strlen(TransmitBuffer));
 4032              		.loc 2 687 0
 4033 002c 154D     		ldr	r5, .L343
 4034 002e 2246     		mov	r2, r4
 4035 0030 1549     		ldr	r1, .L343+4
 4036 0032 2846     		mov	r0, r5
 4037 0034 FFF7FEFF 		bl	sprintf
 4038              	.LVL558:
 688:main.c        **** 		UART_1_PutString(TransmitBuffer);
 4039              		.loc 2 688 0
 4040 0038 2846     		mov	r0, r5
 4041 003a FFF7FEFF 		bl	strlen
 4042              	.LVL559:
 4043 003e 81B2     		uxth	r1, r0
 4044 0040 2846     		mov	r0, r5
 4045 0042 FFF7FEFF 		bl	USBUARTH_Send
 4046              	.LVL560:
 689:main.c        **** 		
 4047              		.loc 2 689 0
 4048 0046 2846     		mov	r0, r5
 4049 0048 FFF7FEFF 		bl	UART_1_PutString
 4050              	.LVL561:
 691:main.c        **** 			Measure_Wide_Gate_Sweep(loop);
 4051              		.loc 2 691 0
 4052 004c 1FB1     		cbz	r7, .L337
 692:main.c        **** 		} else {
 4053              		.loc 2 692 0
 4054 004e 4046     		mov	r0, r8
 4055 0050 FFF7FEFF 		bl	Measure_Wide_Gate_Sweep
 4056              	.LVL562:
ARM GAS  C:\Users\FRANKL~1\AppData\Local\Temp\ccXJlYBQ.s 			page 96


 4057 0054 02E0     		b	.L338
 4058              	.L337:
 694:main.c        **** 		}
 4059              		.loc 2 694 0
 4060 0056 4046     		mov	r0, r8
 4061 0058 FFF7FEFF 		bl	Measure_Gate_Sweep
 4062              	.LVL563:
 4063              	.L338:
 697:main.c        **** 		while (G_Pause);
 4064              		.loc 2 697 0
 4065 005c 0B4B     		ldr	r3, .L343+8
 4066 005e 9B78     		ldrb	r3, [r3, #2]	@ zero_extendqisi2
 4067 0060 13F0FF0F 		tst	r3, #255
 4068 0064 0CD1     		bne	.L335
 697:main.c        **** 		while (G_Pause);
 4069              		.loc 2 697 0 is_stmt 0 discriminator 1
 4070 0066 094B     		ldr	r3, .L343+8
 4071 0068 5B78     		ldrb	r3, [r3, #1]	@ zero_extendqisi2
 4072 006a 13F0FF0F 		tst	r3, #255
 4073 006e 07D1     		bne	.L335
 4074              	.L340:
 698:main.c        **** 	}
 4075              		.loc 2 698 0 is_stmt 1 discriminator 1
 4076 0070 064B     		ldr	r3, .L343+8
 4077 0072 DB78     		ldrb	r3, [r3, #3]	@ zero_extendqisi2
 4078 0074 13F0FF0F 		tst	r3, #255
 4079 0078 FAD1     		bne	.L340
 4080              	.LBE55:
 675:main.c        **** 		uint8 contact1 = device;
 4081              		.loc 2 675 0
 4082 007a 3446     		mov	r4, r6
 4083              	.LVL564:
 4084              	.L336:
 675:main.c        **** 		uint8 contact1 = device;
 4085              		.loc 2 675 0 is_stmt 0 discriminator 1
 4086 007c 202C     		cmp	r4, #32
 4087 007e C5D9     		bls	.L341
 4088              	.L335:
 4089 0080 BDE8F081 		pop	{r4, r5, r6, r7, r8, pc}
 4090              	.LVL565:
 4091              	.L344:
 4092              		.align	2
 4093              	.L343:
 4094 0084 00000000 		.word	TransmitBuffer
 4095 0088 C4000000 		.word	.LC13
 4096 008c 00000000 		.word	.LANCHOR0
 4097              	.LBE54:
 4098              		.cfi_endproc
 4099              	.LFE104:
 4100              		.size	Scan, .-Scan
 4101              		.section	.text.Scan_Range,"ax",%progbits
 4102              		.align	2
 4103              		.global	Scan_Range
 4104              		.thumb
 4105              		.thumb_func
 4106              		.type	Scan_Range, %function
 4107              	Scan_Range:
ARM GAS  C:\Users\FRANKL~1\AppData\Local\Temp\ccXJlYBQ.s 			page 97


 4108              	.LFB105:
 702:main.c        **** 	if (startDevice >= CONTACT_COUNT) return;
 4109              		.loc 2 702 0 is_stmt 1
 4110              		.cfi_startproc
 4111              		@ args = 0, pretend = 0, frame = 0
 4112              		@ frame_needed = 0, uses_anonymous_args = 0
 4113              	.LVL566:
 703:main.c        **** 	if (stopDevice >= CONTACT_COUNT) return;
 4114              		.loc 2 703 0
 4115 0000 3F28     		cmp	r0, #63
 4116 0002 47D8     		bhi	.L353
 702:main.c        **** 	if (startDevice >= CONTACT_COUNT) return;
 4117              		.loc 2 702 0
 4118 0004 2DE9F843 		push	{r3, r4, r5, r6, r7, r8, r9, lr}
 4119              		.cfi_def_cfa_offset 32
 4120              		.cfi_offset 3, -32
 4121              		.cfi_offset 4, -28
 4122              		.cfi_offset 5, -24
 4123              		.cfi_offset 6, -20
 4124              		.cfi_offset 7, -16
 4125              		.cfi_offset 8, -12
 4126              		.cfi_offset 9, -8
 4127              		.cfi_offset 14, -4
 4128 0008 0446     		mov	r4, r0
 4129 000a 0F46     		mov	r7, r1
 4130 000c 9046     		mov	r8, r2
 4131 000e 9946     		mov	r9, r3
 704:main.c        **** 	
 4132              		.loc 2 704 0
 4133 0010 3F29     		cmp	r1, #63
 4134 0012 3BD9     		bls	.L347
 4135 0014 BDE8F883 		pop	{r3, r4, r5, r6, r7, r8, r9, pc}
 4136              	.LVL567:
 4137              	.L351:
 4138              	.LBB56:
 4139              	.LBB57:
 708:main.c        **** 		uint8 intermediate1 = 1;
 4140              		.loc 2 708 0
 4141 0018 661C     		adds	r6, r4, #1
 4142 001a F6B2     		uxtb	r6, r6
 4143              	.LVL568:
 712:main.c        **** 		Zero_All_DACs();
 4144              		.loc 2 712 0
 4145 001c FFF7FEFF 		bl	Disconnect_All_Contacts_From_All_Intermediates
 4146              	.LVL569:
 713:main.c        **** 		Connect_Intermediates();
 4147              		.loc 2 713 0
 4148 0020 FFF7FEFF 		bl	Zero_All_DACs
 4149              	.LVL570:
 714:main.c        **** 		Connect_Contact_To_Intermediate(contact1, intermediate1);
 4150              		.loc 2 714 0
 4151 0024 FFF7FEFF 		bl	Connect_Intermediates
 4152              	.LVL571:
 715:main.c        **** 		Connect_Contact_To_Intermediate(contact2, intermediate2);
 4153              		.loc 2 715 0
 4154 0028 0121     		movs	r1, #1
 4155 002a 2046     		mov	r0, r4
ARM GAS  C:\Users\FRANKL~1\AppData\Local\Temp\ccXJlYBQ.s 			page 98


 4156 002c FFF7FEFF 		bl	Connect_Contact_To_Intermediate
 4157              	.LVL572:
 716:main.c        **** 		
 4158              		.loc 2 716 0
 4159 0030 0221     		movs	r1, #2
 4160 0032 3046     		mov	r0, r6
 4161 0034 FFF7FEFF 		bl	Connect_Contact_To_Intermediate
 4162              	.LVL573:
 718:main.c        **** 		USBUARTH_Send(TransmitBuffer, strlen(TransmitBuffer));
 4163              		.loc 2 718 0
 4164 0038 174D     		ldr	r5, .L354
 4165 003a 2246     		mov	r2, r4
 4166 003c 1749     		ldr	r1, .L354+4
 4167 003e 2846     		mov	r0, r5
 4168 0040 FFF7FEFF 		bl	sprintf
 4169              	.LVL574:
 719:main.c        **** 		UART_1_PutString(TransmitBuffer);
 4170              		.loc 2 719 0
 4171 0044 2846     		mov	r0, r5
 4172 0046 FFF7FEFF 		bl	strlen
 4173              	.LVL575:
 4174 004a 81B2     		uxth	r1, r0
 4175 004c 2846     		mov	r0, r5
 4176 004e FFF7FEFF 		bl	USBUARTH_Send
 4177              	.LVL576:
 720:main.c        **** 		
 4178              		.loc 2 720 0
 4179 0052 2846     		mov	r0, r5
 4180 0054 FFF7FEFF 		bl	UART_1_PutString
 4181              	.LVL577:
 722:main.c        **** 			Measure_Wide_Gate_Sweep(loop);
 4182              		.loc 2 722 0
 4183 0058 B8F1000F 		cmp	r8, #0
 4184 005c 03D0     		beq	.L348
 723:main.c        **** 		} else {
 4185              		.loc 2 723 0
 4186 005e 4846     		mov	r0, r9
 4187 0060 FFF7FEFF 		bl	Measure_Wide_Gate_Sweep
 4188              	.LVL578:
 4189 0064 02E0     		b	.L349
 4190              	.L348:
 725:main.c        **** 		}
 4191              		.loc 2 725 0
 4192 0066 4846     		mov	r0, r9
 4193 0068 FFF7FEFF 		bl	Measure_Gate_Sweep
 4194              	.LVL579:
 4195              	.L349:
 728:main.c        **** 		while (G_Pause);
 4196              		.loc 2 728 0
 4197 006c 0C4B     		ldr	r3, .L354+8
 4198 006e 9B78     		ldrb	r3, [r3, #2]	@ zero_extendqisi2
 4199 0070 13F0FF0F 		tst	r3, #255
 4200 0074 0CD1     		bne	.L345
 728:main.c        **** 		while (G_Pause);
 4201              		.loc 2 728 0 is_stmt 0 discriminator 1
 4202 0076 0A4B     		ldr	r3, .L354+8
 4203 0078 5B78     		ldrb	r3, [r3, #1]	@ zero_extendqisi2
ARM GAS  C:\Users\FRANKL~1\AppData\Local\Temp\ccXJlYBQ.s 			page 99


 4204 007a 13F0FF0F 		tst	r3, #255
 4205 007e 07D1     		bne	.L345
 4206              	.L350:
 729:main.c        **** 	}
 4207              		.loc 2 729 0 is_stmt 1 discriminator 1
 4208 0080 074B     		ldr	r3, .L354+8
 4209 0082 DB78     		ldrb	r3, [r3, #3]	@ zero_extendqisi2
 4210 0084 13F0FF0F 		tst	r3, #255
 4211 0088 FAD1     		bne	.L350
 4212              	.LBE57:
 706:main.c        **** 		uint8 contact1 = device;
 4213              		.loc 2 706 0
 4214 008a 3446     		mov	r4, r6
 4215              	.LVL580:
 4216              	.L347:
 706:main.c        **** 		uint8 contact1 = device;
 4217              		.loc 2 706 0 is_stmt 0 discriminator 1
 4218 008c BC42     		cmp	r4, r7
 4219 008e C3D9     		bls	.L351
 4220              	.L345:
 4221 0090 BDE8F883 		pop	{r3, r4, r5, r6, r7, r8, r9, pc}
 4222              	.LVL581:
 4223              	.L353:
 4224              		.cfi_def_cfa_offset 0
 4225              		.cfi_restore 3
 4226              		.cfi_restore 4
 4227              		.cfi_restore 5
 4228              		.cfi_restore 6
 4229              		.cfi_restore 7
 4230              		.cfi_restore 8
 4231              		.cfi_restore 9
 4232              		.cfi_restore 14
 4233 0094 7047     		bx	lr
 4234              	.L355:
 4235 0096 00BF     		.align	2
 4236              	.L354:
 4237 0098 00000000 		.word	TransmitBuffer
 4238 009c C4000000 		.word	.LC13
 4239 00a0 00000000 		.word	.LANCHOR0
 4240              	.LBE56:
 4241              		.cfi_endproc
 4242              	.LFE105:
 4243              		.size	Scan_Range, .-Scan_Range
 4244              		.section	.text.main,"ax",%progbits
 4245              		.align	2
 4246              		.global	main
 4247              		.thumb
 4248              		.thumb_func
 4249              		.type	main, %function
 4250              	main:
 4251              	.LFB107:
 802:main.c        **** 
 803:main.c        **** int main(void) {
 4252              		.loc 2 803 0 is_stmt 1
 4253              		.cfi_startproc
 4254              		@ args = 0, pretend = 0, frame = 8
 4255              		@ frame_needed = 0, uses_anonymous_args = 0
ARM GAS  C:\Users\FRANKL~1\AppData\Local\Temp\ccXJlYBQ.s 			page 100


 4256 0000 F0B5     		push	{r4, r5, r6, r7, lr}
 4257              		.cfi_def_cfa_offset 20
 4258              		.cfi_offset 4, -20
 4259              		.cfi_offset 5, -16
 4260              		.cfi_offset 6, -12
 4261              		.cfi_offset 7, -8
 4262              		.cfi_offset 14, -4
 4263 0002 83B0     		sub	sp, sp, #12
 4264              		.cfi_def_cfa_offset 32
 804:main.c        **** 	CyGlobalIntEnable;
 4265              		.loc 2 804 0
 4266              		.syntax unified
 4267              	@ 804 "main.c" 1
 4268 0004 62B6     		CPSIE   i
 4269              	@ 0 "" 2
 805:main.c        **** 	
 806:main.c        **** 	Setup_Selectors();
 4270              		.loc 2 806 0
 4271              		.thumb
 4272              		.syntax unified
 4273 0006 FFF7FEFF 		bl	Setup_Selectors
 4274              	.LVL582:
 807:main.c        **** 	
 808:main.c        **** 	USBUART_Start(0u, USBUART_5V_OPERATION);
 4275              		.loc 2 808 0
 4276 000a 0121     		movs	r1, #1
 4277 000c 0020     		movs	r0, #0
 4278 000e FFF7FEFF 		bl	USBUART_Start
 4279              	.LVL583:
 809:main.c        **** 	UART_1_Start();
 4280              		.loc 2 809 0
 4281 0012 FFF7FEFF 		bl	UART_1_Start
 4282              	.LVL584:
 810:main.c        **** 	VDAC_Vds_Start();
 4283              		.loc 2 810 0
 4284 0016 FFF7FEFF 		bl	VDAC_Vds_Start
 4285              	.LVL585:
 811:main.c        **** 	VDAC_Vgs_Start();
 4286              		.loc 2 811 0
 4287 001a FFF7FEFF 		bl	VDAC_Vgs_Start
 4288              	.LVL586:
 812:main.c        **** 	VDAC_Ref_Start();
 4289              		.loc 2 812 0
 4290 001e FFF7FEFF 		bl	VDAC_Ref_Start
 4291              	.LVL587:
 813:main.c        **** 	ADC_DelSig_1_Start();
 4292              		.loc 2 813 0
 4293 0022 FFF7FEFF 		bl	ADC_DelSig_1_Start
 4294              	.LVL588:
 814:main.c        **** 	TIA_1_Start();
 4295              		.loc 2 814 0
 4296 0026 FFF7FEFF 		bl	TIA_1_Start
 4297              	.LVL589:
 815:main.c        **** 	I2C_1_Start();
 4298              		.loc 2 815 0
 4299 002a FFF7FEFF 		bl	I2C_1_Start
 4300              	.LVL590:
ARM GAS  C:\Users\FRANKL~1\AppData\Local\Temp\ccXJlYBQ.s 			page 101


 816:main.c        **** 	ADC_SAR_1_Start();
 4301              		.loc 2 816 0
 4302 002e FFF7FEFF 		bl	ADC_SAR_1_Start
 4303              	.LVL591:
 817:main.c        **** 	ADC_SAR_2_Start();
 4304              		.loc 2 817 0
 4305 0032 FFF7FEFF 		bl	ADC_SAR_2_Start
 4306              	.LVL592:
 818:main.c        **** 	
 819:main.c        **** 	CyDelay(1000);
 4307              		.loc 2 819 0
 4308 0036 4FF47A70 		mov	r0, #1000
 4309 003a FFF7FEFF 		bl	CyDelay
 4310              	.LVL593:
 820:main.c        **** 	
 821:main.c        **** 	UART_1_PutString("\r\n# Starting\r\n");
 4311              		.loc 2 821 0
 4312 003e AF48     		ldr	r0, .L392
 4313 0040 FFF7FEFF 		bl	UART_1_PutString
 4314              	.LVL594:
 822:main.c        **** 	
 823:main.c        **** 	Connect_Intermediates();
 4315              		.loc 2 823 0
 4316 0044 FFF7FEFF 		bl	Connect_Intermediates
 4317              	.LVL595:
 824:main.c        **** 	
 825:main.c        **** 	newData = 0;
 4318              		.loc 2 825 0
 4319 0048 0023     		movs	r3, #0
 4320 004a AD4A     		ldr	r2, .L392+4
 4321 004c 1370     		strb	r3, [r2]
 826:main.c        **** 	UART_Rx_Position = 0;
 4322              		.loc 2 826 0
 4323 004e AD4A     		ldr	r2, .L392+8
 4324 0050 1370     		strb	r3, [r2]
 827:main.c        **** 	USBUART_Rx_Position = 0;
 4325              		.loc 2 827 0
 4326 0052 AD4A     		ldr	r2, .L392+12
 4327 0054 1370     		strb	r3, [r2]
 828:main.c        **** 	
 829:main.c        **** 	CommunicationTimer_Start();
 4328              		.loc 2 829 0
 4329 0056 FFF7FEFF 		bl	CommunicationTimer_Start
 4330              	.LVL596:
 830:main.c        **** 	CommunicationInterrupt_StartEx(CommunicationHandlerISR);
 4331              		.loc 2 830 0
 4332 005a AC48     		ldr	r0, .L392+16
 4333 005c FFF7FEFF 		bl	CommunicationInterrupt_StartEx
 4334              	.LVL597:
 831:main.c        **** 	
 832:main.c        **** 	Current_Measurement_Sample_Count = 100;
 4335              		.loc 2 832 0
 4336 0060 6422     		movs	r2, #100
 4337 0062 AB4B     		ldr	r3, .L392+20
 4338 0064 1A60     		str	r2, [r3]
 4339              	.L358:
 833:main.c        **** 	
ARM GAS  C:\Users\FRANKL~1\AppData\Local\Temp\ccXJlYBQ.s 			page 102


 834:main.c        **** 	while (1) {
 835:main.c        **** 		G_Stop = 0;
 4340              		.loc 2 835 0
 4341 0066 A64B     		ldr	r3, .L392+4
 4342 0068 0022     		movs	r2, #0
 4343 006a 5A70     		strb	r2, [r3, #1]
 836:main.c        **** 		G_Break = 0;
 4344              		.loc 2 836 0
 4345 006c 9A70     		strb	r2, [r3, #2]
 837:main.c        **** 		
 838:main.c        **** 		if (newData) {
 4346              		.loc 2 838 0
 4347 006e 1B78     		ldrb	r3, [r3]	@ zero_extendqisi2
 4348 0070 13F0FF0F 		tst	r3, #255
 4349 0074 F7D0     		beq	.L358
 4350              	.LVL598:
 4351              	.LBB58:
 839:main.c        **** 			char* ReceiveBuffer = &USBUART_Receive_Buffer[0];
 840:main.c        **** 			if (newData == 2) ReceiveBuffer = &UART_Receive_Buffer[0];
 4352              		.loc 2 840 0
 4353 0076 A24B     		ldr	r3, .L392+4
 4354 0078 1B78     		ldrb	r3, [r3]	@ zero_extendqisi2
 4355 007a DBB2     		uxtb	r3, r3
 4356 007c 022B     		cmp	r3, #2
 4357 007e 01D0     		beq	.L390
 839:main.c        **** 			char* ReceiveBuffer = &USBUART_Receive_Buffer[0];
 4358              		.loc 2 839 0
 4359 0080 A44C     		ldr	r4, .L392+24
 4360 0082 00E0     		b	.L359
 4361              	.L390:
 4362              		.loc 2 840 0
 4363 0084 A44C     		ldr	r4, .L392+28
 4364              	.L359:
 4365              	.LVL599:
 841:main.c        **** 			
 842:main.c        **** 			newData = 0;
 4366              		.loc 2 842 0
 4367 0086 0022     		movs	r2, #0
 4368 0088 9D4B     		ldr	r3, .L392+4
 4369 008a 1A70     		strb	r2, [r3]
 843:main.c        **** 			
 844:main.c        **** 			if (strstr(ReceiveBuffer, "measure ") == &ReceiveBuffer[0]) {
 4370              		.loc 2 844 0
 4371 008c A349     		ldr	r1, .L392+32
 4372 008e 2046     		mov	r0, r4
 4373 0090 FFF7FEFF 		bl	strstr
 4374              	.LVL600:
 4375 0094 8442     		cmp	r4, r0
 4376 0096 02D1     		bne	.L360
 845:main.c        **** 				Measure();
 4377              		.loc 2 845 0
 4378 0098 FFF7FEFF 		bl	Measure
 4379              	.LVL601:
 4380 009c E3E7     		b	.L358
 4381              	.L360:
 846:main.c        **** 			} else 
 847:main.c        **** 			if (strstr(ReceiveBuffer, "measure-multiple ") == &ReceiveBuffer[0]) {
ARM GAS  C:\Users\FRANKL~1\AppData\Local\Temp\ccXJlYBQ.s 			page 103


 4382              		.loc 2 847 0
 4383 009e A049     		ldr	r1, .L392+36
 4384 00a0 2046     		mov	r0, r4
 4385 00a2 FFF7FEFF 		bl	strstr
 4386              	.LVL602:
 4387 00a6 8442     		cmp	r4, r0
 4388 00a8 0CD1     		bne	.L362
 4389              	.LBB59:
 848:main.c        **** 				char* location = strstr(ReceiveBuffer, " ");
 4390              		.loc 2 848 0
 4391 00aa 2021     		movs	r1, #32
 4392 00ac 2046     		mov	r0, r4
 4393 00ae FFF7FEFF 		bl	strchr
 4394              	.LVL603:
 4395 00b2 02A9     		add	r1, sp, #8
 4396 00b4 41F8040D 		str	r0, [r1, #-4]!
 849:main.c        **** 				uint32 n = strtol(location, &location, 10);
 4397              		.loc 2 849 0
 4398 00b8 0A22     		movs	r2, #10
 4399 00ba FFF7FEFF 		bl	strtol
 4400              	.LVL604:
 850:main.c        **** 				
 851:main.c        **** 				Measure_Multiple(n);
 4401              		.loc 2 851 0
 4402 00be FFF7FEFF 		bl	Measure_Multiple
 4403              	.LVL605:
 4404              	.LBE59:
 4405 00c2 D0E7     		b	.L358
 4406              	.L362:
 852:main.c        **** 			} else 
 853:main.c        **** 			if (strstr(ReceiveBuffer, "measure-sweep ") == &ReceiveBuffer[0]) {
 4407              		.loc 2 853 0
 4408 00c4 9749     		ldr	r1, .L392+40
 4409 00c6 2046     		mov	r0, r4
 4410 00c8 FFF7FEFF 		bl	strstr
 4411              	.LVL606:
 4412 00cc 8442     		cmp	r4, r0
 4413 00ce 02D1     		bne	.L363
 854:main.c        **** 				Measure_Sweep();
 4414              		.loc 2 854 0
 4415 00d0 FFF7FEFF 		bl	Measure_Sweep
 4416              	.LVL607:
 4417 00d4 C7E7     		b	.L358
 4418              	.L363:
 855:main.c        **** 			} else 
 856:main.c        **** 			if (strstr(ReceiveBuffer, "measure-gate-sweep ") == &ReceiveBuffer[0]) {
 4419              		.loc 2 856 0
 4420 00d6 9449     		ldr	r1, .L392+44
 4421 00d8 2046     		mov	r0, r4
 4422 00da FFF7FEFF 		bl	strstr
 4423              	.LVL608:
 4424 00de 8442     		cmp	r4, r0
 4425 00e0 03D1     		bne	.L364
 857:main.c        **** 				Measure_Gate_Sweep(0);
 4426              		.loc 2 857 0
 4427 00e2 0020     		movs	r0, #0
 4428 00e4 FFF7FEFF 		bl	Measure_Gate_Sweep
ARM GAS  C:\Users\FRANKL~1\AppData\Local\Temp\ccXJlYBQ.s 			page 104


 4429              	.LVL609:
 4430 00e8 BDE7     		b	.L358
 4431              	.L364:
 858:main.c        **** 			} else 
 859:main.c        **** 			if (strstr(ReceiveBuffer, "measure-gate-sweep-loop ") == &ReceiveBuffer[0]) {
 4432              		.loc 2 859 0
 4433 00ea 9049     		ldr	r1, .L392+48
 4434 00ec 2046     		mov	r0, r4
 4435 00ee FFF7FEFF 		bl	strstr
 4436              	.LVL610:
 4437 00f2 8442     		cmp	r4, r0
 4438 00f4 03D1     		bne	.L365
 860:main.c        **** 				Measure_Gate_Sweep(1);
 4439              		.loc 2 860 0
 4440 00f6 0120     		movs	r0, #1
 4441 00f8 FFF7FEFF 		bl	Measure_Gate_Sweep
 4442              	.LVL611:
 4443 00fc B3E7     		b	.L358
 4444              	.L365:
 861:main.c        **** 			} else 
 862:main.c        **** 			if (strstr(ReceiveBuffer, "set-vgs-raw ") == &ReceiveBuffer[0]) {
 4445              		.loc 2 862 0
 4446 00fe 8C49     		ldr	r1, .L392+52
 4447 0100 2046     		mov	r0, r4
 4448 0102 FFF7FEFF 		bl	strstr
 4449              	.LVL612:
 4450 0106 8442     		cmp	r4, r0
 4451 0108 0DD1     		bne	.L366
 4452              	.LBB60:
 863:main.c        **** 				char* location = strstr(ReceiveBuffer, " ");
 4453              		.loc 2 863 0 discriminator 2
 4454 010a 2021     		movs	r1, #32
 4455 010c 2046     		mov	r0, r4
 4456 010e FFF7FEFF 		bl	strchr
 4457              	.LVL613:
 4458 0112 02A9     		add	r1, sp, #8
 4459 0114 41F8040D 		str	r0, [r1, #-4]!
 864:main.c        **** 				uint8 vgsi = strtol(location, &location, 10);
 4460              		.loc 2 864 0 discriminator 2
 4461 0118 0A22     		movs	r2, #10
 4462 011a FFF7FEFF 		bl	strtol
 4463              	.LVL614:
 865:main.c        **** 				
 866:main.c        **** 				Set_Vgs_Raw(vgsi);
 4464              		.loc 2 866 0 discriminator 2
 4465 011e C0B2     		uxtb	r0, r0
 4466 0120 FFF7FEFF 		bl	Set_Vgs_Raw
 4467              	.LVL615:
 4468              	.LBE60:
 4469 0124 9FE7     		b	.L358
 4470              	.L366:
 867:main.c        **** 			} else 
 868:main.c        **** 			if (strstr(ReceiveBuffer, "set-vds-raw ") == &ReceiveBuffer[0]) {
 4471              		.loc 2 868 0
 4472 0126 8349     		ldr	r1, .L392+56
 4473 0128 2046     		mov	r0, r4
 4474 012a FFF7FEFF 		bl	strstr
ARM GAS  C:\Users\FRANKL~1\AppData\Local\Temp\ccXJlYBQ.s 			page 105


 4475              	.LVL616:
 4476 012e 8442     		cmp	r4, r0
 4477 0130 0DD1     		bne	.L367
 4478              	.LBB61:
 869:main.c        **** 				char* location = strstr(ReceiveBuffer, " ");
 4479              		.loc 2 869 0 discriminator 3
 4480 0132 2021     		movs	r1, #32
 4481 0134 2046     		mov	r0, r4
 4482 0136 FFF7FEFF 		bl	strchr
 4483              	.LVL617:
 4484 013a 02A9     		add	r1, sp, #8
 4485 013c 41F8040D 		str	r0, [r1, #-4]!
 870:main.c        **** 				uint8 vdsi = strtol(location, &location, 10);
 4486              		.loc 2 870 0 discriminator 3
 4487 0140 0A22     		movs	r2, #10
 4488 0142 FFF7FEFF 		bl	strtol
 4489              	.LVL618:
 871:main.c        **** 				
 872:main.c        **** 				Set_Vds_Raw(vdsi);
 4490              		.loc 2 872 0 discriminator 3
 4491 0146 C0B2     		uxtb	r0, r0
 4492 0148 FFF7FEFF 		bl	Set_Vds_Raw
 4493              	.LVL619:
 4494              	.LBE61:
 4495 014c 8BE7     		b	.L358
 4496              	.L367:
 873:main.c        **** 			} else 
 874:main.c        **** 			if (strstr(ReceiveBuffer, "set-vgs-rel ") == &ReceiveBuffer[0]) {
 4497              		.loc 2 874 0
 4498 014e 7A49     		ldr	r1, .L392+60
 4499 0150 2046     		mov	r0, r4
 4500 0152 FFF7FEFF 		bl	strstr
 4501              	.LVL620:
 4502 0156 8442     		cmp	r4, r0
 4503 0158 0DD1     		bne	.L368
 4504              	.LBB62:
 875:main.c        **** 				char* location = strstr(ReceiveBuffer, " ");
 4505              		.loc 2 875 0 discriminator 4
 4506 015a 2021     		movs	r1, #32
 4507 015c 2046     		mov	r0, r4
 4508 015e FFF7FEFF 		bl	strchr
 4509              	.LVL621:
 4510 0162 02A9     		add	r1, sp, #8
 4511 0164 41F8040D 		str	r0, [r1, #-4]!
 876:main.c        **** 				int8 vgsi = strtol(location, &location, 10);
 4512              		.loc 2 876 0 discriminator 4
 4513 0168 0A22     		movs	r2, #10
 4514 016a FFF7FEFF 		bl	strtol
 4515              	.LVL622:
 877:main.c        **** 				
 878:main.c        **** 				Set_Vgs_Rel(vgsi);
 4516              		.loc 2 878 0 discriminator 4
 4517 016e 40B2     		sxtb	r0, r0
 4518 0170 FFF7FEFF 		bl	Set_Vgs_Rel
 4519              	.LVL623:
 4520              	.LBE62:
 4521 0174 77E7     		b	.L358
ARM GAS  C:\Users\FRANKL~1\AppData\Local\Temp\ccXJlYBQ.s 			page 106


 4522              	.L368:
 879:main.c        **** 			} else 
 880:main.c        **** 			if (strstr(ReceiveBuffer, "set-vds-rel ") == &ReceiveBuffer[0]) {
 4523              		.loc 2 880 0
 4524 0176 7149     		ldr	r1, .L392+64
 4525 0178 2046     		mov	r0, r4
 4526 017a FFF7FEFF 		bl	strstr
 4527              	.LVL624:
 4528 017e 8442     		cmp	r4, r0
 4529 0180 0DD1     		bne	.L369
 4530              	.LBB63:
 881:main.c        **** 				char* location = strstr(ReceiveBuffer, " ");
 4531              		.loc 2 881 0 discriminator 5
 4532 0182 2021     		movs	r1, #32
 4533 0184 2046     		mov	r0, r4
 4534 0186 FFF7FEFF 		bl	strchr
 4535              	.LVL625:
 4536 018a 02A9     		add	r1, sp, #8
 4537 018c 41F8040D 		str	r0, [r1, #-4]!
 882:main.c        **** 				int8 vdsi = strtol(location, &location, 10);
 4538              		.loc 2 882 0 discriminator 5
 4539 0190 0A22     		movs	r2, #10
 4540 0192 FFF7FEFF 		bl	strtol
 4541              	.LVL626:
 883:main.c        **** 				
 884:main.c        **** 				Set_Vds_Rel(vdsi);
 4542              		.loc 2 884 0 discriminator 5
 4543 0196 40B2     		sxtb	r0, r0
 4544 0198 FFF7FEFF 		bl	Set_Vds_Rel
 4545              	.LVL627:
 4546              	.LBE63:
 4547 019c 63E7     		b	.L358
 4548              	.L369:
 885:main.c        **** 			} else 
 886:main.c        **** 			if (strstr(ReceiveBuffer, "set-vgs ") == &ReceiveBuffer[0]) {
 4549              		.loc 2 886 0
 4550 019e 6849     		ldr	r1, .L392+68
 4551 01a0 2046     		mov	r0, r4
 4552 01a2 FFF7FEFF 		bl	strstr
 4553              	.LVL628:
 4554 01a6 8442     		cmp	r4, r0
 4555 01a8 0ED1     		bne	.L370
 4556              	.LBB64:
 887:main.c        **** 				char* location = strstr(ReceiveBuffer, " ");
 4557              		.loc 2 887 0 discriminator 6
 4558 01aa 2021     		movs	r1, #32
 4559 01ac 2046     		mov	r0, r4
 4560 01ae FFF7FEFF 		bl	strchr
 4561              	.LVL629:
 888:main.c        **** 				float vgs = 0;
 4562              		.loc 2 888 0 discriminator 6
 4563 01b2 02AA     		add	r2, sp, #8
 4564 01b4 0023     		movs	r3, #0
 4565 01b6 42F8043D 		str	r3, [r2, #-4]!	@ float
 889:main.c        **** 				int8 success = sscanf(location, "%f", &vgs);
 4566              		.loc 2 889 0 discriminator 6
 4567 01ba 6249     		ldr	r1, .L392+72
ARM GAS  C:\Users\FRANKL~1\AppData\Local\Temp\ccXJlYBQ.s 			page 107


 4568 01bc FFF7FEFF 		bl	sscanf
 4569              	.LVL630:
 890:main.c        **** 				
 891:main.c        **** 				Set_Vgs(vgs);
 4570              		.loc 2 891 0 discriminator 6
 4571 01c0 0198     		ldr	r0, [sp, #4]	@ float
 4572 01c2 FFF7FEFF 		bl	Set_Vgs
 4573              	.LVL631:
 4574              	.LBE64:
 4575 01c6 4EE7     		b	.L358
 4576              	.L370:
 892:main.c        **** 			} else 
 893:main.c        **** 			if (strstr(ReceiveBuffer, "set-vds ") == &ReceiveBuffer[0]) {
 4577              		.loc 2 893 0
 4578 01c8 5F49     		ldr	r1, .L392+76
 4579 01ca 2046     		mov	r0, r4
 4580 01cc FFF7FEFF 		bl	strstr
 4581              	.LVL632:
 4582 01d0 8442     		cmp	r4, r0
 4583 01d2 0ED1     		bne	.L371
 4584              	.LBB65:
 894:main.c        **** 				char* location = strstr(ReceiveBuffer, " ");
 4585              		.loc 2 894 0 discriminator 7
 4586 01d4 2021     		movs	r1, #32
 4587 01d6 2046     		mov	r0, r4
 4588 01d8 FFF7FEFF 		bl	strchr
 4589              	.LVL633:
 895:main.c        **** 				float vds = 0;
 4590              		.loc 2 895 0 discriminator 7
 4591 01dc 02AA     		add	r2, sp, #8
 4592 01de 0023     		movs	r3, #0
 4593 01e0 42F8043D 		str	r3, [r2, #-4]!	@ float
 896:main.c        **** 				int8 success = sscanf(location, "%f", &vds);
 4594              		.loc 2 896 0 discriminator 7
 4595 01e4 5749     		ldr	r1, .L392+72
 4596 01e6 FFF7FEFF 		bl	sscanf
 4597              	.LVL634:
 897:main.c        **** 				
 898:main.c        **** 				Set_Vds(vds);
 4598              		.loc 2 898 0 discriminator 7
 4599 01ea 0198     		ldr	r0, [sp, #4]	@ float
 4600 01ec FFF7FEFF 		bl	Set_Vds
 4601              	.LVL635:
 4602              	.LBE65:
 4603 01f0 39E7     		b	.L358
 4604              	.L371:
 899:main.c        **** 			} else 
 900:main.c        **** 			if (strstr(ReceiveBuffer, "set-vgs-mv ") == &ReceiveBuffer[0]) {
 4605              		.loc 2 900 0
 4606 01f2 5649     		ldr	r1, .L392+80
 4607 01f4 2046     		mov	r0, r4
 4608 01f6 FFF7FEFF 		bl	strstr
 4609              	.LVL636:
 4610 01fa 8442     		cmp	r4, r0
 4611 01fc 23D1     		bne	.L372
 4612              	.LBB66:
 901:main.c        **** 				char* location = strstr(ReceiveBuffer, " ");
ARM GAS  C:\Users\FRANKL~1\AppData\Local\Temp\ccXJlYBQ.s 			page 108


 4613              		.loc 2 901 0 discriminator 8
 4614 01fe 2021     		movs	r1, #32
 4615 0200 2046     		mov	r0, r4
 4616 0202 FFF7FEFF 		bl	strchr
 4617              	.LVL637:
 4618 0206 02A9     		add	r1, sp, #8
 4619 0208 41F8040D 		str	r0, [r1, #-4]!
 902:main.c        **** 				float Vgs_mV = (float)(strtol(location, &location, 10));
 4620              		.loc 2 902 0 discriminator 8
 4621 020c 0A22     		movs	r2, #10
 4622 020e FFF7FEFF 		bl	strtol
 4623              	.LVL638:
 4624 0212 FFF7FEFF 		bl	__aeabi_i2f
 4625              	.LVL639:
 4626 0216 0446     		mov	r4, r0
 4627              	.LVL640:
 903:main.c        **** 				
 904:main.c        **** 				Set_Vgs_mV(Vgs_mV);
 4628              		.loc 2 904 0 discriminator 8
 4629 0218 FFF7FEFF 		bl	Set_Vgs_mV
 4630              	.LVL641:
 905:main.c        **** 				
 906:main.c        **** 				sprintf(TransmitBuffer, "# Vgs set to %f mV\r\n", Vgs_mV);
 4631              		.loc 2 906 0 discriminator 8
 4632 021c 2046     		mov	r0, r4
 4633 021e FFF7FEFF 		bl	__aeabi_f2d
 4634              	.LVL642:
 4635 0222 4B4C     		ldr	r4, .L392+84
 4636              	.LVL643:
 4637 0224 0246     		mov	r2, r0
 4638 0226 0B46     		mov	r3, r1
 4639 0228 4A49     		ldr	r1, .L392+88
 4640 022a 2046     		mov	r0, r4
 4641 022c FFF7FEFF 		bl	sprintf
 4642              	.LVL644:
 907:main.c        **** 				USBUARTH_Send(TransmitBuffer, strlen(TransmitBuffer));
 4643              		.loc 2 907 0 discriminator 8
 4644 0230 2046     		mov	r0, r4
 4645 0232 FFF7FEFF 		bl	strlen
 4646              	.LVL645:
 4647 0236 81B2     		uxth	r1, r0
 4648 0238 2046     		mov	r0, r4
 4649 023a FFF7FEFF 		bl	USBUARTH_Send
 4650              	.LVL646:
 908:main.c        **** 				UART_1_PutString(TransmitBuffer);
 4651              		.loc 2 908 0 discriminator 8
 4652 023e 2046     		mov	r0, r4
 4653 0240 FFF7FEFF 		bl	UART_1_PutString
 4654              	.LVL647:
 4655              	.LBE66:
 4656 0244 0FE7     		b	.L358
 4657              	.LVL648:
 4658              	.L372:
 909:main.c        **** 			} else 
 910:main.c        **** 			if (strstr(ReceiveBuffer, "set-vds-mv ") == &ReceiveBuffer[0]) {
 4659              		.loc 2 910 0
 4660 0246 4449     		ldr	r1, .L392+92
ARM GAS  C:\Users\FRANKL~1\AppData\Local\Temp\ccXJlYBQ.s 			page 109


 4661 0248 2046     		mov	r0, r4
 4662 024a FFF7FEFF 		bl	strstr
 4663              	.LVL649:
 4664 024e 8442     		cmp	r4, r0
 4665 0250 23D1     		bne	.L373
 4666              	.LBB67:
 911:main.c        **** 				char* location = strstr(ReceiveBuffer, " ");
 4667              		.loc 2 911 0 discriminator 9
 4668 0252 2021     		movs	r1, #32
 4669 0254 2046     		mov	r0, r4
 4670 0256 FFF7FEFF 		bl	strchr
 4671              	.LVL650:
 4672 025a 02A9     		add	r1, sp, #8
 4673 025c 41F8040D 		str	r0, [r1, #-4]!
 912:main.c        **** 				float Vds_mV = (float)(strtol(location, &location, 10));
 4674              		.loc 2 912 0 discriminator 9
 4675 0260 0A22     		movs	r2, #10
 4676 0262 FFF7FEFF 		bl	strtol
 4677              	.LVL651:
 4678 0266 FFF7FEFF 		bl	__aeabi_i2f
 4679              	.LVL652:
 4680 026a 0446     		mov	r4, r0
 4681              	.LVL653:
 913:main.c        **** 				
 914:main.c        **** 				Set_Vds_mV(Vds_mV);
 4682              		.loc 2 914 0 discriminator 9
 4683 026c FFF7FEFF 		bl	Set_Vds_mV
 4684              	.LVL654:
 915:main.c        **** 				
 916:main.c        **** 				sprintf(TransmitBuffer, "# Vds set to %f mV\r\n", Vds_mV);
 4685              		.loc 2 916 0 discriminator 9
 4686 0270 2046     		mov	r0, r4
 4687 0272 FFF7FEFF 		bl	__aeabi_f2d
 4688              	.LVL655:
 4689 0276 364C     		ldr	r4, .L392+84
 4690              	.LVL656:
 4691 0278 0246     		mov	r2, r0
 4692 027a 0B46     		mov	r3, r1
 4693 027c 3749     		ldr	r1, .L392+96
 4694 027e 2046     		mov	r0, r4
 4695 0280 FFF7FEFF 		bl	sprintf
 4696              	.LVL657:
 917:main.c        **** 				USBUARTH_Send(TransmitBuffer, strlen(TransmitBuffer));
 4697              		.loc 2 917 0 discriminator 9
 4698 0284 2046     		mov	r0, r4
 4699 0286 FFF7FEFF 		bl	strlen
 4700              	.LVL658:
 4701 028a 81B2     		uxth	r1, r0
 4702 028c 2046     		mov	r0, r4
 4703 028e FFF7FEFF 		bl	USBUARTH_Send
 4704              	.LVL659:
 918:main.c        **** 				UART_1_PutString(TransmitBuffer);
 4705              		.loc 2 918 0 discriminator 9
 4706 0292 2046     		mov	r0, r4
 4707 0294 FFF7FEFF 		bl	UART_1_PutString
 4708              	.LVL660:
 4709              	.LBE67:
ARM GAS  C:\Users\FRANKL~1\AppData\Local\Temp\ccXJlYBQ.s 			page 110


 4710 0298 E5E6     		b	.L358
 4711              	.LVL661:
 4712              	.L373:
 919:main.c        **** 			} else 
 920:main.c        **** 			if (strstr(ReceiveBuffer, "scan ") == &ReceiveBuffer[0]) {
 4713              		.loc 2 920 0
 4714 029a 3149     		ldr	r1, .L392+100
 4715 029c 2046     		mov	r0, r4
 4716 029e FFF7FEFF 		bl	strstr
 4717              	.LVL662:
 4718 02a2 8442     		cmp	r4, r0
 4719 02a4 62D1     		bne	.L374
 921:main.c        **** 				sprintf(TransmitBuffer, "\r\n# Scan Starting\r\n");
 4720              		.loc 2 921 0
 4721 02a6 2A4C     		ldr	r4, .L392+84
 4722              	.LVL663:
 4723 02a8 2E4D     		ldr	r5, .L392+104
 4724 02aa 0FCD     		ldmia	r5!, {r0, r1, r2, r3}
 4725 02ac 2060     		str	r0, [r4]	@ unaligned
 4726 02ae 6160     		str	r1, [r4, #4]	@ unaligned
 4727 02b0 A260     		str	r2, [r4, #8]	@ unaligned
 4728 02b2 E360     		str	r3, [r4, #12]	@ unaligned
 4729 02b4 2868     		ldr	r0, [r5]	@ unaligned
 4730 02b6 2061     		str	r0, [r4, #16]	@ unaligned
 922:main.c        **** 				USBUARTH_Send(TransmitBuffer, strlen(TransmitBuffer));
 4731              		.loc 2 922 0
 4732 02b8 2046     		mov	r0, r4
 4733 02ba FFF7FEFF 		bl	strlen
 4734              	.LVL664:
 4735 02be 81B2     		uxth	r1, r0
 4736 02c0 2046     		mov	r0, r4
 4737 02c2 FFF7FEFF 		bl	USBUARTH_Send
 4738              	.LVL665:
 923:main.c        **** 				UART_1_PutString(TransmitBuffer);
 4739              		.loc 2 923 0
 4740 02c6 2046     		mov	r0, r4
 4741 02c8 FFF7FEFF 		bl	UART_1_PutString
 4742              	.LVL666:
 924:main.c        **** 				
 925:main.c        **** 				Scan(0, 0);
 4743              		.loc 2 925 0
 4744 02cc 0021     		movs	r1, #0
 4745 02ce 0846     		mov	r0, r1
 4746 02d0 FFF7FEFF 		bl	Scan
 4747              	.LVL667:
 926:main.c        **** 				
 927:main.c        **** 				sprintf(TransmitBuffer, "\r\n# Scan Complete\r\n");
 4748              		.loc 2 927 0
 4749 02d4 244D     		ldr	r5, .L392+108
 4750 02d6 0FCD     		ldmia	r5!, {r0, r1, r2, r3}
 4751 02d8 2060     		str	r0, [r4]	@ unaligned
 4752 02da 6160     		str	r1, [r4, #4]	@ unaligned
 4753 02dc A260     		str	r2, [r4, #8]	@ unaligned
 4754 02de E360     		str	r3, [r4, #12]	@ unaligned
 4755 02e0 2868     		ldr	r0, [r5]	@ unaligned
 4756 02e2 2061     		str	r0, [r4, #16]	@ unaligned
 928:main.c        **** 				USBUARTH_Send(TransmitBuffer, strlen(TransmitBuffer));
ARM GAS  C:\Users\FRANKL~1\AppData\Local\Temp\ccXJlYBQ.s 			page 111


 4757              		.loc 2 928 0
 4758 02e4 2046     		mov	r0, r4
 4759 02e6 FFF7FEFF 		bl	strlen
 4760              	.LVL668:
 4761 02ea 81B2     		uxth	r1, r0
 4762 02ec 2046     		mov	r0, r4
 4763 02ee FFF7FEFF 		bl	USBUARTH_Send
 4764              	.LVL669:
 929:main.c        **** 				UART_1_PutString(TransmitBuffer);
 4765              		.loc 2 929 0
 4766 02f2 2046     		mov	r0, r4
 4767 02f4 FFF7FEFF 		bl	UART_1_PutString
 4768              	.LVL670:
 4769 02f8 B5E6     		b	.L358
 4770              	.L393:
 4771 02fa 00BF     		.align	2
 4772              	.L392:
 4773 02fc CC000000 		.word	.LC14
 4774 0300 00000000 		.word	.LANCHOR0
 4775 0304 00000000 		.word	UART_Rx_Position
 4776 0308 00000000 		.word	USBUART_Rx_Position
 4777 030c 00000000 		.word	CommunicationHandlerISR
 4778 0310 00000000 		.word	Current_Measurement_Sample_Count
 4779 0314 00000000 		.word	USBUART_Receive_Buffer
 4780 0318 00000000 		.word	UART_Receive_Buffer
 4781 031c DC000000 		.word	.LC15
 4782 0320 E8000000 		.word	.LC16
 4783 0324 FC000000 		.word	.LC17
 4784 0328 0C010000 		.word	.LC18
 4785 032c 20010000 		.word	.LC19
 4786 0330 3C010000 		.word	.LC20
 4787 0334 4C010000 		.word	.LC21
 4788 0338 5C010000 		.word	.LC22
 4789 033c 6C010000 		.word	.LC23
 4790 0340 7C010000 		.word	.LC24
 4791 0344 88010000 		.word	.LC25
 4792 0348 8C010000 		.word	.LC26
 4793 034c 98010000 		.word	.LC27
 4794 0350 00000000 		.word	TransmitBuffer
 4795 0354 A4010000 		.word	.LC28
 4796 0358 BC010000 		.word	.LC29
 4797 035c C8010000 		.word	.LC30
 4798 0360 E0010000 		.word	.LC31
 4799 0364 E8010000 		.word	.LC32
 4800 0368 FC010000 		.word	.LC33
 4801              	.LVL671:
 4802              	.L374:
 930:main.c        **** 			} else 
 931:main.c        **** 			if (strstr(ReceiveBuffer, "scan-range ") == &ReceiveBuffer[0]) {
 4803              		.loc 2 931 0
 4804 036c CD49     		ldr	r1, .L394
 4805 036e 2046     		mov	r0, r4
 4806 0370 FFF7FEFF 		bl	strstr
 4807              	.LVL672:
 4808 0374 8442     		cmp	r4, r0
 4809 0376 42D1     		bne	.L375
 4810              	.LBB68:
ARM GAS  C:\Users\FRANKL~1\AppData\Local\Temp\ccXJlYBQ.s 			page 112


 932:main.c        **** 				sprintf(TransmitBuffer, "\r\n# Scan-Range Starting\r\n");
 4811              		.loc 2 932 0 discriminator 10
 4812 0378 CB4D     		ldr	r5, .L394+4
 4813 037a CC4E     		ldr	r6, .L394+8
 4814 037c 0FCE     		ldmia	r6!, {r0, r1, r2, r3}
 4815 037e 2860     		str	r0, [r5]	@ unaligned
 4816 0380 6960     		str	r1, [r5, #4]	@ unaligned
 4817 0382 AA60     		str	r2, [r5, #8]	@ unaligned
 4818 0384 EB60     		str	r3, [r5, #12]	@ unaligned
 4819 0386 03CE     		ldmia	r6!, {r0, r1}
 4820 0388 2861     		str	r0, [r5, #16]	@ unaligned
 4821 038a 6961     		str	r1, [r5, #20]	@ unaligned
 4822 038c 3388     		ldrh	r3, [r6]	@ unaligned
 4823 038e 2B83     		strh	r3, [r5, #24]	@ unaligned
 933:main.c        **** 				USBUARTH_Send(TransmitBuffer, strlen(TransmitBuffer));
 4824              		.loc 2 933 0 discriminator 10
 4825 0390 2846     		mov	r0, r5
 4826 0392 FFF7FEFF 		bl	strlen
 4827              	.LVL673:
 4828 0396 81B2     		uxth	r1, r0
 4829 0398 2846     		mov	r0, r5
 4830 039a FFF7FEFF 		bl	USBUARTH_Send
 4831              	.LVL674:
 934:main.c        **** 				UART_1_PutString(TransmitBuffer);
 4832              		.loc 2 934 0 discriminator 10
 4833 039e 2846     		mov	r0, r5
 4834 03a0 FFF7FEFF 		bl	UART_1_PutString
 4835              	.LVL675:
 935:main.c        **** 				
 936:main.c        **** 				char* location = strstr(ReceiveBuffer, " ");
 4836              		.loc 2 936 0 discriminator 10
 4837 03a4 2021     		movs	r1, #32
 4838 03a6 2046     		mov	r0, r4
 4839 03a8 FFF7FEFF 		bl	strchr
 4840              	.LVL676:
 4841 03ac 02AC     		add	r4, sp, #8
 4842              	.LVL677:
 4843 03ae 44F8040D 		str	r0, [r4, #-4]!
 937:main.c        **** 				uint8 startDevice = strtol(location, &location, 10);
 4844              		.loc 2 937 0 discriminator 10
 4845 03b2 0A22     		movs	r2, #10
 4846 03b4 2146     		mov	r1, r4
 4847 03b6 FFF7FEFF 		bl	strtol
 4848              	.LVL678:
 4849 03ba C6B2     		uxtb	r6, r0
 4850              	.LVL679:
 938:main.c        **** 				uint8 stopDevice = strtol(location, &location, 10);
 4851              		.loc 2 938 0 discriminator 10
 4852 03bc 0A22     		movs	r2, #10
 4853 03be 2146     		mov	r1, r4
 4854 03c0 0198     		ldr	r0, [sp, #4]
 4855 03c2 FFF7FEFF 		bl	strtol
 4856              	.LVL680:
 939:main.c        **** 				Scan_Range(startDevice, stopDevice, 0, 0);
 4857              		.loc 2 939 0 discriminator 10
 4858 03c6 0023     		movs	r3, #0
 4859 03c8 1A46     		mov	r2, r3
ARM GAS  C:\Users\FRANKL~1\AppData\Local\Temp\ccXJlYBQ.s 			page 113


 4860 03ca C1B2     		uxtb	r1, r0
 4861 03cc 3046     		mov	r0, r6
 4862              	.LVL681:
 4863 03ce FFF7FEFF 		bl	Scan_Range
 4864              	.LVL682:
 940:main.c        **** 				
 941:main.c        **** 				sprintf(TransmitBuffer, "\r\n# Scan Range Complete\r\n");
 4865              		.loc 2 941 0 discriminator 10
 4866 03d2 B74C     		ldr	r4, .L394+12
 4867 03d4 0FCC     		ldmia	r4!, {r0, r1, r2, r3}
 4868 03d6 2860     		str	r0, [r5]	@ unaligned
 4869 03d8 6960     		str	r1, [r5, #4]	@ unaligned
 4870 03da AA60     		str	r2, [r5, #8]	@ unaligned
 4871 03dc EB60     		str	r3, [r5, #12]	@ unaligned
 4872 03de 03CC     		ldmia	r4!, {r0, r1}
 4873 03e0 2861     		str	r0, [r5, #16]	@ unaligned
 4874 03e2 6961     		str	r1, [r5, #20]	@ unaligned
 4875 03e4 2388     		ldrh	r3, [r4]	@ unaligned
 4876 03e6 2B83     		strh	r3, [r5, #24]	@ unaligned
 942:main.c        **** 				USBUARTH_Send(TransmitBuffer, strlen(TransmitBuffer));
 4877              		.loc 2 942 0 discriminator 10
 4878 03e8 2846     		mov	r0, r5
 4879 03ea FFF7FEFF 		bl	strlen
 4880              	.LVL683:
 4881 03ee 81B2     		uxth	r1, r0
 4882 03f0 2846     		mov	r0, r5
 4883 03f2 FFF7FEFF 		bl	USBUARTH_Send
 4884              	.LVL684:
 943:main.c        **** 				UART_1_PutString(TransmitBuffer);
 4885              		.loc 2 943 0 discriminator 10
 4886 03f6 2846     		mov	r0, r5
 4887 03f8 FFF7FEFF 		bl	UART_1_PutString
 4888              	.LVL685:
 4889              	.LBE68:
 4890 03fc 33E6     		b	.L358
 4891              	.LVL686:
 4892              	.L375:
 944:main.c        **** 			} else 
 945:main.c        **** 			if (strstr(ReceiveBuffer, "scan-range-loop ") == &ReceiveBuffer[0]) {
 4893              		.loc 2 945 0
 4894 03fe AD49     		ldr	r1, .L394+16
 4895 0400 2046     		mov	r0, r4
 4896 0402 FFF7FEFF 		bl	strstr
 4897              	.LVL687:
 4898 0406 8442     		cmp	r4, r0
 4899 0408 48D1     		bne	.L376
 4900              	.LBB69:
 946:main.c        **** 				sprintf(TransmitBuffer, "\r\n# Scan-Range-Loop Starting\r\n");
 4901              		.loc 2 946 0 discriminator 11
 4902 040a A74D     		ldr	r5, .L394+4
 4903 040c AA4E     		ldr	r6, .L394+20
 4904 040e 0FCE     		ldmia	r6!, {r0, r1, r2, r3}
 4905 0410 2860     		str	r0, [r5]	@ unaligned
 4906 0412 6960     		str	r1, [r5, #4]	@ unaligned
 4907 0414 AA60     		str	r2, [r5, #8]	@ unaligned
 4908 0416 EB60     		str	r3, [r5, #12]	@ unaligned
 4909 0418 07CE     		ldmia	r6!, {r0, r1, r2}
ARM GAS  C:\Users\FRANKL~1\AppData\Local\Temp\ccXJlYBQ.s 			page 114


 4910 041a 2861     		str	r0, [r5, #16]	@ unaligned
 4911 041c 6961     		str	r1, [r5, #20]	@ unaligned
 4912 041e AA61     		str	r2, [r5, #24]	@ unaligned
 4913 0420 3288     		ldrh	r2, [r6]	@ unaligned
 4914 0422 B378     		ldrb	r3, [r6, #2]	@ zero_extendqisi2
 4915 0424 AA83     		strh	r2, [r5, #28]	@ unaligned
 4916 0426 AB77     		strb	r3, [r5, #30]
 947:main.c        **** 				USBUARTH_Send(TransmitBuffer, strlen(TransmitBuffer));
 4917              		.loc 2 947 0 discriminator 11
 4918 0428 2846     		mov	r0, r5
 4919 042a FFF7FEFF 		bl	strlen
 4920              	.LVL688:
 4921 042e 81B2     		uxth	r1, r0
 4922 0430 2846     		mov	r0, r5
 4923 0432 FFF7FEFF 		bl	USBUARTH_Send
 4924              	.LVL689:
 948:main.c        **** 				UART_1_PutString(TransmitBuffer);
 4925              		.loc 2 948 0 discriminator 11
 4926 0436 2846     		mov	r0, r5
 4927 0438 FFF7FEFF 		bl	UART_1_PutString
 4928              	.LVL690:
 949:main.c        **** 				
 950:main.c        **** 				char* location = strstr(ReceiveBuffer, " ");
 4929              		.loc 2 950 0 discriminator 11
 4930 043c 2021     		movs	r1, #32
 4931 043e 2046     		mov	r0, r4
 4932 0440 FFF7FEFF 		bl	strchr
 4933              	.LVL691:
 4934 0444 02AC     		add	r4, sp, #8
 4935              	.LVL692:
 4936 0446 44F8040D 		str	r0, [r4, #-4]!
 951:main.c        **** 				uint8 startDevice = strtol(location, &location, 10);
 4937              		.loc 2 951 0 discriminator 11
 4938 044a 0A22     		movs	r2, #10
 4939 044c 2146     		mov	r1, r4
 4940 044e FFF7FEFF 		bl	strtol
 4941              	.LVL693:
 4942 0452 C6B2     		uxtb	r6, r0
 4943              	.LVL694:
 952:main.c        **** 				uint8 stopDevice = strtol(location, &location, 10);
 4944              		.loc 2 952 0 discriminator 11
 4945 0454 0A22     		movs	r2, #10
 4946 0456 2146     		mov	r1, r4
 4947 0458 0198     		ldr	r0, [sp, #4]
 4948 045a FFF7FEFF 		bl	strtol
 4949              	.LVL695:
 953:main.c        **** 				Scan_Range(startDevice, stopDevice, 0, 1);
 4950              		.loc 2 953 0 discriminator 11
 4951 045e 0123     		movs	r3, #1
 4952 0460 0022     		movs	r2, #0
 4953 0462 C1B2     		uxtb	r1, r0
 4954 0464 3046     		mov	r0, r6
 4955              	.LVL696:
 4956 0466 FFF7FEFF 		bl	Scan_Range
 4957              	.LVL697:
 954:main.c        **** 				
 955:main.c        **** 				sprintf(TransmitBuffer, "\r\n# Scan Range Loop Complete\r\n");
ARM GAS  C:\Users\FRANKL~1\AppData\Local\Temp\ccXJlYBQ.s 			page 115


 4958              		.loc 2 955 0 discriminator 11
 4959 046a 944C     		ldr	r4, .L394+24
 4960 046c 0FCC     		ldmia	r4!, {r0, r1, r2, r3}
 4961 046e 2860     		str	r0, [r5]	@ unaligned
 4962 0470 6960     		str	r1, [r5, #4]	@ unaligned
 4963 0472 AA60     		str	r2, [r5, #8]	@ unaligned
 4964 0474 EB60     		str	r3, [r5, #12]	@ unaligned
 4965 0476 07CC     		ldmia	r4!, {r0, r1, r2}
 4966 0478 2861     		str	r0, [r5, #16]	@ unaligned
 4967 047a 6961     		str	r1, [r5, #20]	@ unaligned
 4968 047c AA61     		str	r2, [r5, #24]	@ unaligned
 4969 047e 2288     		ldrh	r2, [r4]	@ unaligned
 4970 0480 A378     		ldrb	r3, [r4, #2]	@ zero_extendqisi2
 4971 0482 AA83     		strh	r2, [r5, #28]	@ unaligned
 4972 0484 AB77     		strb	r3, [r5, #30]
 956:main.c        **** 				USBUARTH_Send(TransmitBuffer, strlen(TransmitBuffer));
 4973              		.loc 2 956 0 discriminator 11
 4974 0486 2846     		mov	r0, r5
 4975 0488 FFF7FEFF 		bl	strlen
 4976              	.LVL698:
 4977 048c 81B2     		uxth	r1, r0
 4978 048e 2846     		mov	r0, r5
 4979 0490 FFF7FEFF 		bl	USBUARTH_Send
 4980              	.LVL699:
 957:main.c        **** 				UART_1_PutString(TransmitBuffer);
 4981              		.loc 2 957 0 discriminator 11
 4982 0494 2846     		mov	r0, r5
 4983 0496 FFF7FEFF 		bl	UART_1_PutString
 4984              	.LVL700:
 4985              	.LBE69:
 4986 049a E4E5     		b	.L358
 4987              	.LVL701:
 4988              	.L376:
 958:main.c        **** 			} else 
 959:main.c        **** 			if (strstr(ReceiveBuffer, "scan-range-wide-loop ") == &ReceiveBuffer[0]) {
 4989              		.loc 2 959 0
 4990 049c 8849     		ldr	r1, .L394+28
 4991 049e 2046     		mov	r0, r4
 4992 04a0 FFF7FEFF 		bl	strstr
 4993              	.LVL702:
 4994 04a4 8442     		cmp	r4, r0
 4995 04a6 4DD1     		bne	.L377
 4996              	.LBB70:
 960:main.c        **** 				sprintf(TransmitBuffer, "\r\n# Scan-Range-Wide-Loop Starting\r\n");
 4997              		.loc 2 960 0 discriminator 12
 4998 04a8 864F     		ldr	r7, .L394+32
 4999 04aa 7F4D     		ldr	r5, .L394+4
 5000 04ac 07F1200E 		add	lr, r7, #32
 5001              	.L378:
 5002 04b0 3E46     		mov	r6, r7
 5003 04b2 0FCE     		ldmia	r6!, {r0, r1, r2, r3}
 5004 04b4 2860     		str	r0, [r5]	@ unaligned
 5005 04b6 6960     		str	r1, [r5, #4]	@ unaligned
 5006 04b8 AA60     		str	r2, [r5, #8]	@ unaligned
 5007 04ba EB60     		str	r3, [r5, #12]	@ unaligned
 5008 04bc 3746     		mov	r7, r6
 5009 04be 1035     		adds	r5, r5, #16
ARM GAS  C:\Users\FRANKL~1\AppData\Local\Temp\ccXJlYBQ.s 			page 116


 5010 04c0 7645     		cmp	r6, lr
 5011 04c2 F5D1     		bne	.L378
 5012 04c4 3068     		ldr	r0, [r6]	@ unaligned
 5013 04c6 2860     		str	r0, [r5]	@ unaligned
 961:main.c        **** 				USBUARTH_Send(TransmitBuffer, strlen(TransmitBuffer));
 5014              		.loc 2 961 0 discriminator 12
 5015 04c8 774D     		ldr	r5, .L394+4
 5016 04ca 2846     		mov	r0, r5
 5017 04cc FFF7FEFF 		bl	strlen
 5018              	.LVL703:
 5019 04d0 81B2     		uxth	r1, r0
 5020 04d2 2846     		mov	r0, r5
 5021 04d4 FFF7FEFF 		bl	USBUARTH_Send
 5022              	.LVL704:
 962:main.c        **** 				UART_1_PutString(TransmitBuffer);
 5023              		.loc 2 962 0 discriminator 12
 5024 04d8 2846     		mov	r0, r5
 5025 04da FFF7FEFF 		bl	UART_1_PutString
 5026              	.LVL705:
 963:main.c        **** 				
 964:main.c        **** 				char* location = strstr(ReceiveBuffer, " ");
 5027              		.loc 2 964 0 discriminator 12
 5028 04de 2021     		movs	r1, #32
 5029 04e0 2046     		mov	r0, r4
 5030 04e2 FFF7FEFF 		bl	strchr
 5031              	.LVL706:
 5032 04e6 02AC     		add	r4, sp, #8
 5033              	.LVL707:
 5034 04e8 44F8040D 		str	r0, [r4, #-4]!
 965:main.c        **** 				uint8 startDevice = strtol(location, &location, 10);
 5035              		.loc 2 965 0 discriminator 12
 5036 04ec 0A22     		movs	r2, #10
 5037 04ee 2146     		mov	r1, r4
 5038 04f0 FFF7FEFF 		bl	strtol
 5039              	.LVL708:
 5040 04f4 C6B2     		uxtb	r6, r0
 5041              	.LVL709:
 966:main.c        **** 				uint8 stopDevice = strtol(location, &location, 10);
 5042              		.loc 2 966 0 discriminator 12
 5043 04f6 0A22     		movs	r2, #10
 5044 04f8 2146     		mov	r1, r4
 5045 04fa 0198     		ldr	r0, [sp, #4]
 5046 04fc FFF7FEFF 		bl	strtol
 5047              	.LVL710:
 967:main.c        **** 				Scan_Range(startDevice, stopDevice, 1, 1);
 5048              		.loc 2 967 0 discriminator 12
 5049 0500 0123     		movs	r3, #1
 5050 0502 1A46     		mov	r2, r3
 5051 0504 C1B2     		uxtb	r1, r0
 5052 0506 3046     		mov	r0, r6
 5053              	.LVL711:
 5054 0508 FFF7FEFF 		bl	Scan_Range
 5055              	.LVL712:
 968:main.c        **** 				
 969:main.c        **** 				sprintf(TransmitBuffer, "\r\n# Scan Range Wide Loop Complete\r\n");
 5056              		.loc 2 969 0 discriminator 12
 5057 050c 6E4E     		ldr	r6, .L394+36
ARM GAS  C:\Users\FRANKL~1\AppData\Local\Temp\ccXJlYBQ.s 			page 117


 5058              	.LVL713:
 5059 050e 2C46     		mov	r4, r5
 5060 0510 06F12007 		add	r7, r6, #32
 5061              	.L379:
 5062 0514 3546     		mov	r5, r6
 5063 0516 0FCD     		ldmia	r5!, {r0, r1, r2, r3}
 5064 0518 2060     		str	r0, [r4]	@ unaligned
 5065 051a 6160     		str	r1, [r4, #4]	@ unaligned
 5066 051c A260     		str	r2, [r4, #8]	@ unaligned
 5067 051e E360     		str	r3, [r4, #12]	@ unaligned
 5068 0520 2E46     		mov	r6, r5
 5069 0522 1034     		adds	r4, r4, #16
 5070 0524 BD42     		cmp	r5, r7
 5071 0526 F5D1     		bne	.L379
 5072 0528 2868     		ldr	r0, [r5]	@ unaligned
 5073 052a 2060     		str	r0, [r4]	@ unaligned
 970:main.c        **** 				USBUARTH_Send(TransmitBuffer, strlen(TransmitBuffer));
 5074              		.loc 2 970 0 discriminator 12
 5075 052c 5E4C     		ldr	r4, .L394+4
 5076 052e 2046     		mov	r0, r4
 5077 0530 FFF7FEFF 		bl	strlen
 5078              	.LVL714:
 5079 0534 81B2     		uxth	r1, r0
 5080 0536 2046     		mov	r0, r4
 5081 0538 FFF7FEFF 		bl	USBUARTH_Send
 5082              	.LVL715:
 971:main.c        **** 				UART_1_PutString(TransmitBuffer);
 5083              		.loc 2 971 0 discriminator 12
 5084 053c 2046     		mov	r0, r4
 5085 053e FFF7FEFF 		bl	UART_1_PutString
 5086              	.LVL716:
 5087              	.LBE70:
 5088 0542 90E5     		b	.L358
 5089              	.LVL717:
 5090              	.L377:
 972:main.c        **** 			} else 
 973:main.c        **** 			if (strstr(ReceiveBuffer, "connect ") == &ReceiveBuffer[0]) {
 5091              		.loc 2 973 0
 5092 0544 6149     		ldr	r1, .L394+40
 5093 0546 2046     		mov	r0, r4
 5094 0548 FFF7FEFF 		bl	strstr
 5095              	.LVL718:
 5096 054c 8442     		cmp	r4, r0
 5097 054e 27D1     		bne	.L380
 5098              	.LBB71:
 974:main.c        **** 				char* location = strstr(ReceiveBuffer, " ");
 5099              		.loc 2 974 0 discriminator 13
 5100 0550 2021     		movs	r1, #32
 5101 0552 2046     		mov	r0, r4
 5102 0554 FFF7FEFF 		bl	strchr
 5103              	.LVL719:
 5104 0558 02AC     		add	r4, sp, #8
 5105              	.LVL720:
 5106 055a 44F8040D 		str	r0, [r4, #-4]!
 975:main.c        **** 				uint8 contact = strtol(location, &location, 10);
 5107              		.loc 2 975 0 discriminator 13
 5108 055e 0A22     		movs	r2, #10
ARM GAS  C:\Users\FRANKL~1\AppData\Local\Temp\ccXJlYBQ.s 			page 118


 5109 0560 2146     		mov	r1, r4
 5110 0562 FFF7FEFF 		bl	strtol
 5111              	.LVL721:
 5112 0566 C5B2     		uxtb	r5, r0
 5113              	.LVL722:
 976:main.c        **** 				uint8 intermediate = strtol(location, &location, 10);
 5114              		.loc 2 976 0 discriminator 13
 5115 0568 0A22     		movs	r2, #10
 5116 056a 2146     		mov	r1, r4
 5117 056c 0198     		ldr	r0, [sp, #4]
 5118 056e FFF7FEFF 		bl	strtol
 5119              	.LVL723:
 5120 0572 C6B2     		uxtb	r6, r0
 5121              	.LVL724:
 977:main.c        **** 				Connect_Contact_To_Intermediate(contact, intermediate);
 5122              		.loc 2 977 0 discriminator 13
 5123 0574 3146     		mov	r1, r6
 5124 0576 2846     		mov	r0, r5
 5125 0578 FFF7FEFF 		bl	Connect_Contact_To_Intermediate
 5126              	.LVL725:
 978:main.c        **** 				
 979:main.c        **** 				sprintf(TransmitBuffer, "# Connected %u to %u\r\n", contact, intermediate);
 5127              		.loc 2 979 0 discriminator 13
 5128 057c 4A4C     		ldr	r4, .L394+4
 5129 057e 3346     		mov	r3, r6
 5130 0580 2A46     		mov	r2, r5
 5131 0582 5349     		ldr	r1, .L394+44
 5132 0584 2046     		mov	r0, r4
 5133 0586 FFF7FEFF 		bl	sprintf
 5134              	.LVL726:
 980:main.c        **** 				USBUARTH_Send(TransmitBuffer, strlen(TransmitBuffer));
 5135              		.loc 2 980 0 discriminator 13
 5136 058a 2046     		mov	r0, r4
 5137 058c FFF7FEFF 		bl	strlen
 5138              	.LVL727:
 5139 0590 81B2     		uxth	r1, r0
 5140 0592 2046     		mov	r0, r4
 5141 0594 FFF7FEFF 		bl	USBUARTH_Send
 5142              	.LVL728:
 981:main.c        **** 				UART_1_PutString(TransmitBuffer);
 5143              		.loc 2 981 0 discriminator 13
 5144 0598 2046     		mov	r0, r4
 5145 059a FFF7FEFF 		bl	UART_1_PutString
 5146              	.LVL729:
 5147              	.LBE71:
 5148 059e 62E5     		b	.L358
 5149              	.LVL730:
 5150              	.L380:
 982:main.c        **** 			} else 
 983:main.c        **** 			if (strstr(ReceiveBuffer, "connect-c ") == &ReceiveBuffer[0]) {
 5151              		.loc 2 983 0
 5152 05a0 4C49     		ldr	r1, .L394+48
 5153 05a2 2046     		mov	r0, r4
 5154 05a4 FFF7FEFF 		bl	strstr
 5155              	.LVL731:
 5156 05a8 8442     		cmp	r4, r0
 5157 05aa 27D1     		bne	.L381
ARM GAS  C:\Users\FRANKL~1\AppData\Local\Temp\ccXJlYBQ.s 			page 119


 5158              	.LBB72:
 984:main.c        **** 				char* location = strstr(ReceiveBuffer, " ");
 5159              		.loc 2 984 0 discriminator 14
 5160 05ac 2021     		movs	r1, #32
 5161 05ae 2046     		mov	r0, r4
 5162 05b0 FFF7FEFF 		bl	strchr
 5163              	.LVL732:
 5164 05b4 02AC     		add	r4, sp, #8
 5165              	.LVL733:
 5166 05b6 44F8040D 		str	r0, [r4, #-4]!
 985:main.c        **** 				uint8 channel = strtol(location, &location, 10);
 5167              		.loc 2 985 0 discriminator 14
 5168 05ba 0A22     		movs	r2, #10
 5169 05bc 2146     		mov	r1, r4
 5170 05be FFF7FEFF 		bl	strtol
 5171              	.LVL734:
 5172 05c2 C5B2     		uxtb	r5, r0
 5173              	.LVL735:
 986:main.c        **** 				uint8 intermediate = strtol(location, &location, 10);
 5174              		.loc 2 986 0 discriminator 14
 5175 05c4 0A22     		movs	r2, #10
 5176 05c6 2146     		mov	r1, r4
 5177 05c8 0198     		ldr	r0, [sp, #4]
 5178 05ca FFF7FEFF 		bl	strtol
 5179              	.LVL736:
 5180 05ce C6B2     		uxtb	r6, r0
 5181              	.LVL737:
 987:main.c        **** 				Connect_Channel_On_Intermediate(channel, intermediate);
 5182              		.loc 2 987 0 discriminator 14
 5183 05d0 3146     		mov	r1, r6
 5184 05d2 2846     		mov	r0, r5
 5185 05d4 FFF7FEFF 		bl	Connect_Channel_On_Intermediate
 5186              	.LVL738:
 988:main.c        **** 				
 989:main.c        **** 				sprintf(TransmitBuffer, "# Connected channel %u to %u\r\n", channel, intermediate);
 5187              		.loc 2 989 0 discriminator 14
 5188 05d8 334C     		ldr	r4, .L394+4
 5189 05da 3346     		mov	r3, r6
 5190 05dc 2A46     		mov	r2, r5
 5191 05de 3E49     		ldr	r1, .L394+52
 5192 05e0 2046     		mov	r0, r4
 5193 05e2 FFF7FEFF 		bl	sprintf
 5194              	.LVL739:
 990:main.c        **** 				USBUARTH_Send(TransmitBuffer, strlen(TransmitBuffer));
 5195              		.loc 2 990 0 discriminator 14
 5196 05e6 2046     		mov	r0, r4
 5197 05e8 FFF7FEFF 		bl	strlen
 5198              	.LVL740:
 5199 05ec 81B2     		uxth	r1, r0
 5200 05ee 2046     		mov	r0, r4
 5201 05f0 FFF7FEFF 		bl	USBUARTH_Send
 5202              	.LVL741:
 991:main.c        **** 				UART_1_PutString(TransmitBuffer);
 5203              		.loc 2 991 0 discriminator 14
 5204 05f4 2046     		mov	r0, r4
 5205 05f6 FFF7FEFF 		bl	UART_1_PutString
 5206              	.LVL742:
ARM GAS  C:\Users\FRANKL~1\AppData\Local\Temp\ccXJlYBQ.s 			page 120


 5207              	.LBE72:
 5208 05fa 34E5     		b	.L358
 5209              	.LVL743:
 5210              	.L381:
 992:main.c        **** 			} else 
 993:main.c        **** 			if (strstr(ReceiveBuffer, "disconnect ") == &ReceiveBuffer[0]) {
 5211              		.loc 2 993 0
 5212 05fc 3749     		ldr	r1, .L394+56
 5213 05fe 2046     		mov	r0, r4
 5214 0600 FFF7FEFF 		bl	strstr
 5215              	.LVL744:
 5216 0604 8442     		cmp	r4, r0
 5217 0606 27D1     		bne	.L382
 5218              	.LBB73:
 994:main.c        **** 				char* location = strstr(ReceiveBuffer, " ");
 5219              		.loc 2 994 0 discriminator 15
 5220 0608 2021     		movs	r1, #32
 5221 060a 2046     		mov	r0, r4
 5222 060c FFF7FEFF 		bl	strchr
 5223              	.LVL745:
 5224 0610 02AC     		add	r4, sp, #8
 5225              	.LVL746:
 5226 0612 44F8040D 		str	r0, [r4, #-4]!
 995:main.c        **** 				uint8 contact = strtol(location, &location, 10);
 5227              		.loc 2 995 0 discriminator 15
 5228 0616 0A22     		movs	r2, #10
 5229 0618 2146     		mov	r1, r4
 5230 061a FFF7FEFF 		bl	strtol
 5231              	.LVL747:
 5232 061e C5B2     		uxtb	r5, r0
 5233              	.LVL748:
 996:main.c        **** 				uint8 intermediate = strtol(location, &location, 10);
 5234              		.loc 2 996 0 discriminator 15
 5235 0620 0A22     		movs	r2, #10
 5236 0622 2146     		mov	r1, r4
 5237 0624 0198     		ldr	r0, [sp, #4]
 5238 0626 FFF7FEFF 		bl	strtol
 5239              	.LVL749:
 5240 062a C6B2     		uxtb	r6, r0
 5241              	.LVL750:
 997:main.c        **** 				Disconnect_Contact_From_Intermediate(contact, intermediate);
 5242              		.loc 2 997 0 discriminator 15
 5243 062c 3146     		mov	r1, r6
 5244 062e 2846     		mov	r0, r5
 5245 0630 FFF7FEFF 		bl	Disconnect_Contact_From_Intermediate
 5246              	.LVL751:
 998:main.c        **** 				
 999:main.c        **** 				sprintf(TransmitBuffer, "# Disonnected %u from %u\r\n", contact, intermediate);
 5247              		.loc 2 999 0 discriminator 15
 5248 0634 1C4C     		ldr	r4, .L394+4
 5249 0636 3346     		mov	r3, r6
 5250 0638 2A46     		mov	r2, r5
 5251 063a 2949     		ldr	r1, .L394+60
 5252 063c 2046     		mov	r0, r4
 5253 063e FFF7FEFF 		bl	sprintf
 5254              	.LVL752:
1000:main.c        **** 				USBUARTH_Send(TransmitBuffer, strlen(TransmitBuffer));
ARM GAS  C:\Users\FRANKL~1\AppData\Local\Temp\ccXJlYBQ.s 			page 121


 5255              		.loc 2 1000 0 discriminator 15
 5256 0642 2046     		mov	r0, r4
 5257 0644 FFF7FEFF 		bl	strlen
 5258              	.LVL753:
 5259 0648 81B2     		uxth	r1, r0
 5260 064a 2046     		mov	r0, r4
 5261 064c FFF7FEFF 		bl	USBUARTH_Send
 5262              	.LVL754:
1001:main.c        **** 				UART_1_PutString(TransmitBuffer);
 5263              		.loc 2 1001 0 discriminator 15
 5264 0650 2046     		mov	r0, r4
 5265 0652 FFF7FEFF 		bl	UART_1_PutString
 5266              	.LVL755:
 5267              	.LBE73:
 5268 0656 06E5     		b	.L358
 5269              	.LVL756:
 5270              	.L382:
1002:main.c        **** 			} else 
1003:main.c        **** 			if (strstr(ReceiveBuffer, "disconnect-all-from ") == &ReceiveBuffer[0]) {
 5271              		.loc 2 1003 0
 5272 0658 2249     		ldr	r1, .L394+64
 5273 065a 2046     		mov	r0, r4
 5274 065c FFF7FEFF 		bl	strstr
 5275              	.LVL757:
 5276 0660 8442     		cmp	r4, r0
 5277 0662 43D1     		bne	.L383
 5278              	.LBB74:
1004:main.c        **** 				char* location = strstr(ReceiveBuffer, " ");
 5279              		.loc 2 1004 0 discriminator 16
 5280 0664 2021     		movs	r1, #32
 5281 0666 2046     		mov	r0, r4
 5282 0668 FFF7FEFF 		bl	strchr
 5283              	.LVL758:
 5284 066c 02A9     		add	r1, sp, #8
 5285 066e 41F8040D 		str	r0, [r1, #-4]!
1005:main.c        **** 				uint8 intermediate = strtol(location, &location, 10);
 5286              		.loc 2 1005 0 discriminator 16
 5287 0672 0A22     		movs	r2, #10
 5288 0674 FFF7FEFF 		bl	strtol
 5289              	.LVL759:
 5290 0678 C5B2     		uxtb	r5, r0
 5291              	.LVL760:
1006:main.c        **** 				Disconnect_All_Contacts_From_Intermediate(intermediate);
 5292              		.loc 2 1006 0 discriminator 16
 5293 067a 2846     		mov	r0, r5
 5294 067c FFF7FEFF 		bl	Disconnect_All_Contacts_From_Intermediate
 5295              	.LVL761:
1007:main.c        **** 				
1008:main.c        **** 				sprintf(TransmitBuffer, "# Disconnected all from  %u\r\n", intermediate);
 5296              		.loc 2 1008 0 discriminator 16
 5297 0680 094C     		ldr	r4, .L394+4
 5298              	.LVL762:
 5299 0682 2A46     		mov	r2, r5
 5300 0684 1849     		ldr	r1, .L394+68
 5301 0686 2046     		mov	r0, r4
 5302 0688 FFF7FEFF 		bl	sprintf
 5303              	.LVL763:
ARM GAS  C:\Users\FRANKL~1\AppData\Local\Temp\ccXJlYBQ.s 			page 122


1009:main.c        **** 				USBUARTH_Send(TransmitBuffer, strlen(TransmitBuffer));
 5304              		.loc 2 1009 0 discriminator 16
 5305 068c 2046     		mov	r0, r4
 5306 068e FFF7FEFF 		bl	strlen
 5307              	.LVL764:
 5308 0692 81B2     		uxth	r1, r0
 5309 0694 2046     		mov	r0, r4
 5310 0696 FFF7FEFF 		bl	USBUARTH_Send
 5311              	.LVL765:
1010:main.c        **** 				UART_1_PutString(TransmitBuffer);
 5312              		.loc 2 1010 0 discriminator 16
 5313 069a 2046     		mov	r0, r4
 5314 069c FFF7FEFF 		bl	UART_1_PutString
 5315              	.LVL766:
 5316              	.LBE74:
 5317 06a0 E1E4     		b	.L358
 5318              	.L395:
 5319 06a2 00BF     		.align	2
 5320              	.L394:
 5321 06a4 10020000 		.word	.LC34
 5322 06a8 00000000 		.word	TransmitBuffer
 5323 06ac 1C020000 		.word	.LC35
 5324 06b0 38020000 		.word	.LC36
 5325 06b4 54020000 		.word	.LC37
 5326 06b8 68020000 		.word	.LC38
 5327 06bc 88020000 		.word	.LC39
 5328 06c0 A8020000 		.word	.LC40
 5329 06c4 C0020000 		.word	.LC41
 5330 06c8 E4020000 		.word	.LC42
 5331 06cc 08030000 		.word	.LC43
 5332 06d0 14030000 		.word	.LC44
 5333 06d4 2C030000 		.word	.LC45
 5334 06d8 38030000 		.word	.LC46
 5335 06dc 58030000 		.word	.LC47
 5336 06e0 64030000 		.word	.LC48
 5337 06e4 80030000 		.word	.LC49
 5338 06e8 98030000 		.word	.LC50
 5339              	.LVL767:
 5340              	.L383:
1011:main.c        **** 			} else 
1012:main.c        **** 			if (strstr(ReceiveBuffer, "disconnect-all-from-all ") == &ReceiveBuffer[0]) {
 5341              		.loc 2 1012 0
 5342 06ec 6549     		ldr	r1, .L396
 5343 06ee 2046     		mov	r0, r4
 5344 06f0 FFF7FEFF 		bl	strstr
 5345              	.LVL768:
 5346 06f4 8442     		cmp	r4, r0
 5347 06f6 19D1     		bne	.L384
1013:main.c        **** 				Disconnect_All_Contacts_From_All_Intermediates();
 5348              		.loc 2 1013 0
 5349 06f8 FFF7FEFF 		bl	Disconnect_All_Contacts_From_All_Intermediates
 5350              	.LVL769:
1014:main.c        **** 				
1015:main.c        **** 				sprintf(TransmitBuffer, "# Disconnected all from all\r\n");
 5351              		.loc 2 1015 0
 5352 06fc 624D     		ldr	r5, .L396+4
 5353 06fe 634C     		ldr	r4, .L396+8
ARM GAS  C:\Users\FRANKL~1\AppData\Local\Temp\ccXJlYBQ.s 			page 123


 5354              	.LVL770:
 5355 0700 0FCC     		ldmia	r4!, {r0, r1, r2, r3}
 5356 0702 2860     		str	r0, [r5]	@ unaligned
 5357 0704 6960     		str	r1, [r5, #4]	@ unaligned
 5358 0706 AA60     		str	r2, [r5, #8]	@ unaligned
 5359 0708 EB60     		str	r3, [r5, #12]	@ unaligned
 5360 070a 07CC     		ldmia	r4!, {r0, r1, r2}
 5361 070c 2861     		str	r0, [r5, #16]	@ unaligned
 5362 070e 6961     		str	r1, [r5, #20]	@ unaligned
 5363 0710 AA61     		str	r2, [r5, #24]	@ unaligned
 5364 0712 2388     		ldrh	r3, [r4]	@ unaligned
 5365 0714 AB83     		strh	r3, [r5, #28]	@ unaligned
1016:main.c        **** 				USBUARTH_Send(TransmitBuffer, strlen(TransmitBuffer));
 5366              		.loc 2 1016 0
 5367 0716 2846     		mov	r0, r5
 5368 0718 FFF7FEFF 		bl	strlen
 5369              	.LVL771:
 5370 071c 81B2     		uxth	r1, r0
 5371 071e 2846     		mov	r0, r5
 5372 0720 FFF7FEFF 		bl	USBUARTH_Send
 5373              	.LVL772:
1017:main.c        **** 				UART_1_PutString(TransmitBuffer);
 5374              		.loc 2 1017 0
 5375 0724 2846     		mov	r0, r5
 5376 0726 FFF7FEFF 		bl	UART_1_PutString
 5377              	.LVL773:
 5378 072a 9CE4     		b	.L358
 5379              	.LVL774:
 5380              	.L384:
1018:main.c        **** 			} else 
1019:main.c        **** 			if (strstr(ReceiveBuffer, "disconnect-from-all ") == &ReceiveBuffer[0]) {
 5381              		.loc 2 1019 0
 5382 072c 5849     		ldr	r1, .L396+12
 5383 072e 2046     		mov	r0, r4
 5384 0730 FFF7FEFF 		bl	strstr
 5385              	.LVL775:
 5386 0734 8442     		cmp	r4, r0
 5387 0736 1ED1     		bne	.L385
 5388              	.LBB75:
1020:main.c        **** 				char* location = strstr(ReceiveBuffer, " ");
 5389              		.loc 2 1020 0 discriminator 17
 5390 0738 2021     		movs	r1, #32
 5391 073a 2046     		mov	r0, r4
 5392 073c FFF7FEFF 		bl	strchr
 5393              	.LVL776:
 5394 0740 02A9     		add	r1, sp, #8
 5395 0742 41F8040D 		str	r0, [r1, #-4]!
1021:main.c        **** 				uint8 contact = strtol(location, &location, 10);
 5396              		.loc 2 1021 0 discriminator 17
 5397 0746 0A22     		movs	r2, #10
 5398 0748 FFF7FEFF 		bl	strtol
 5399              	.LVL777:
 5400 074c C5B2     		uxtb	r5, r0
 5401              	.LVL778:
1022:main.c        **** 				Disconnect_Contact_From_All_Intermediates(contact);
 5402              		.loc 2 1022 0 discriminator 17
 5403 074e 2846     		mov	r0, r5
ARM GAS  C:\Users\FRANKL~1\AppData\Local\Temp\ccXJlYBQ.s 			page 124


 5404 0750 FFF7FEFF 		bl	Disconnect_Contact_From_All_Intermediates
 5405              	.LVL779:
1023:main.c        **** 				
1024:main.c        **** 				sprintf(TransmitBuffer, "# Disconnected %u from all\r\n", contact);
 5406              		.loc 2 1024 0 discriminator 17
 5407 0754 4C4C     		ldr	r4, .L396+4
 5408              	.LVL780:
 5409 0756 2A46     		mov	r2, r5
 5410 0758 4E49     		ldr	r1, .L396+16
 5411 075a 2046     		mov	r0, r4
 5412 075c FFF7FEFF 		bl	sprintf
 5413              	.LVL781:
1025:main.c        **** 				USBUARTH_Send(TransmitBuffer, strlen(TransmitBuffer));
 5414              		.loc 2 1025 0 discriminator 17
 5415 0760 2046     		mov	r0, r4
 5416 0762 FFF7FEFF 		bl	strlen
 5417              	.LVL782:
 5418 0766 81B2     		uxth	r1, r0
 5419 0768 2046     		mov	r0, r4
 5420 076a FFF7FEFF 		bl	USBUARTH_Send
 5421              	.LVL783:
1026:main.c        **** 				UART_1_PutString(TransmitBuffer);
 5422              		.loc 2 1026 0 discriminator 17
 5423 076e 2046     		mov	r0, r4
 5424 0770 FFF7FEFF 		bl	UART_1_PutString
 5425              	.LVL784:
 5426              	.LBE75:
 5427 0774 77E4     		b	.L358
 5428              	.LVL785:
 5429              	.L385:
1027:main.c        **** 			} else 
1028:main.c        **** 			if (strstr(ReceiveBuffer, "connect-intermediate ") == &ReceiveBuffer[0]) {
 5430              		.loc 2 1028 0
 5431 0776 4849     		ldr	r1, .L396+20
 5432 0778 2046     		mov	r0, r4
 5433 077a FFF7FEFF 		bl	strstr
 5434              	.LVL786:
 5435 077e 8442     		cmp	r4, r0
 5436 0780 1ED1     		bne	.L386
 5437              	.LBB76:
1029:main.c        **** 				char* location = strstr(ReceiveBuffer, " ");
 5438              		.loc 2 1029 0 discriminator 18
 5439 0782 2021     		movs	r1, #32
 5440 0784 2046     		mov	r0, r4
 5441 0786 FFF7FEFF 		bl	strchr
 5442              	.LVL787:
 5443 078a 02A9     		add	r1, sp, #8
 5444 078c 41F8040D 		str	r0, [r1, #-4]!
1030:main.c        **** 				uint8 intermediate = strtol(location, &location, 10);
 5445              		.loc 2 1030 0 discriminator 18
 5446 0790 0A22     		movs	r2, #10
 5447 0792 FFF7FEFF 		bl	strtol
 5448              	.LVL788:
 5449 0796 C5B2     		uxtb	r5, r0
 5450              	.LVL789:
1031:main.c        **** 				Connect_Intermediate(intermediate);
 5451              		.loc 2 1031 0 discriminator 18
ARM GAS  C:\Users\FRANKL~1\AppData\Local\Temp\ccXJlYBQ.s 			page 125


 5452 0798 2846     		mov	r0, r5
 5453 079a FFF7FEFF 		bl	Connect_Intermediate
 5454              	.LVL790:
1032:main.c        **** 				
1033:main.c        **** 				sprintf(TransmitBuffer, "# Connected intermediate %u\r\n", intermediate);
 5455              		.loc 2 1033 0 discriminator 18
 5456 079e 3A4C     		ldr	r4, .L396+4
 5457              	.LVL791:
 5458 07a0 2A46     		mov	r2, r5
 5459 07a2 3E49     		ldr	r1, .L396+24
 5460 07a4 2046     		mov	r0, r4
 5461 07a6 FFF7FEFF 		bl	sprintf
 5462              	.LVL792:
1034:main.c        **** 				USBUARTH_Send(TransmitBuffer, strlen(TransmitBuffer));
 5463              		.loc 2 1034 0 discriminator 18
 5464 07aa 2046     		mov	r0, r4
 5465 07ac FFF7FEFF 		bl	strlen
 5466              	.LVL793:
 5467 07b0 81B2     		uxth	r1, r0
 5468 07b2 2046     		mov	r0, r4
 5469 07b4 FFF7FEFF 		bl	USBUARTH_Send
 5470              	.LVL794:
1035:main.c        **** 				UART_1_PutString(TransmitBuffer);
 5471              		.loc 2 1035 0 discriminator 18
 5472 07b8 2046     		mov	r0, r4
 5473 07ba FFF7FEFF 		bl	UART_1_PutString
 5474              	.LVL795:
 5475              	.LBE76:
 5476 07be 52E4     		b	.L358
 5477              	.LVL796:
 5478              	.L386:
1036:main.c        **** 			} else 
1037:main.c        **** 			if (strstr(ReceiveBuffer, "connect-intermediates ") == &ReceiveBuffer[0]) {
 5479              		.loc 2 1037 0
 5480 07c0 3749     		ldr	r1, .L396+28
 5481 07c2 2046     		mov	r0, r4
 5482 07c4 FFF7FEFF 		bl	strstr
 5483              	.LVL797:
 5484 07c8 8442     		cmp	r4, r0
 5485 07ca 17D1     		bne	.L387
1038:main.c        **** 				Connect_Intermediates();
 5486              		.loc 2 1038 0
 5487 07cc FFF7FEFF 		bl	Connect_Intermediates
 5488              	.LVL798:
1039:main.c        **** 				
1040:main.c        **** 				sprintf(TransmitBuffer, "# Connected intermediates\r\n");
 5489              		.loc 2 1040 0
 5490 07d0 2D4D     		ldr	r5, .L396+4
 5491 07d2 344C     		ldr	r4, .L396+32
 5492              	.LVL799:
 5493 07d4 0FCC     		ldmia	r4!, {r0, r1, r2, r3}
 5494 07d6 2860     		str	r0, [r5]	@ unaligned
 5495 07d8 6960     		str	r1, [r5, #4]	@ unaligned
 5496 07da AA60     		str	r2, [r5, #8]	@ unaligned
 5497 07dc EB60     		str	r3, [r5, #12]	@ unaligned
 5498 07de 07CC     		ldmia	r4!, {r0, r1, r2}
 5499 07e0 2861     		str	r0, [r5, #16]	@ unaligned
ARM GAS  C:\Users\FRANKL~1\AppData\Local\Temp\ccXJlYBQ.s 			page 126


 5500 07e2 6961     		str	r1, [r5, #20]	@ unaligned
 5501 07e4 AA61     		str	r2, [r5, #24]	@ unaligned
1041:main.c        **** 				USBUARTH_Send(TransmitBuffer, strlen(TransmitBuffer));
 5502              		.loc 2 1041 0
 5503 07e6 2846     		mov	r0, r5
 5504 07e8 FFF7FEFF 		bl	strlen
 5505              	.LVL800:
 5506 07ec 81B2     		uxth	r1, r0
 5507 07ee 2846     		mov	r0, r5
 5508 07f0 FFF7FEFF 		bl	USBUARTH_Send
 5509              	.LVL801:
1042:main.c        **** 				UART_1_PutString(TransmitBuffer);
 5510              		.loc 2 1042 0
 5511 07f4 2846     		mov	r0, r5
 5512 07f6 FFF7FEFF 		bl	UART_1_PutString
 5513              	.LVL802:
 5514 07fa 34E4     		b	.L358
 5515              	.LVL803:
 5516              	.L387:
1043:main.c        **** 			} else 
1044:main.c        **** 			if (strstr(ReceiveBuffer, "Set_Current_Measurement_Sample_Count ") == &ReceiveBuffer[0]) {
 5517              		.loc 2 1044 0
 5518 07fc 2A49     		ldr	r1, .L396+36
 5519 07fe 2046     		mov	r0, r4
 5520 0800 FFF7FEFF 		bl	strstr
 5521              	.LVL804:
 5522 0804 8442     		cmp	r4, r0
 5523 0806 2AD1     		bne	.L388
 5524              	.LBB77:
1045:main.c        **** 				char* location = strstr(ReceiveBuffer, " ");
 5525              		.loc 2 1045 0 discriminator 19
 5526 0808 2021     		movs	r1, #32
 5527 080a 2046     		mov	r0, r4
 5528 080c FFF7FEFF 		bl	strchr
 5529              	.LVL805:
 5530 0810 02A9     		add	r1, sp, #8
 5531 0812 41F8040D 		str	r0, [r1, #-4]!
1046:main.c        **** 				uint32 sampleCount = strtol(location, &location, 10);
 5532              		.loc 2 1046 0 discriminator 19
 5533 0816 0A22     		movs	r2, #10
 5534 0818 FFF7FEFF 		bl	strtol
 5535              	.LVL806:
1047:main.c        **** 				
1048:main.c        **** 				Current_Measurement_Sample_Count = sampleCount;
 5536              		.loc 2 1048 0 discriminator 19
 5537 081c 234B     		ldr	r3, .L396+40
 5538 081e 1860     		str	r0, [r3]
1049:main.c        **** 				
1050:main.c        **** 				sprintf(TransmitBuffer, "# Set Current Measurement Sample Count\r\n");
 5539              		.loc 2 1050 0 discriminator 19
 5540 0820 234C     		ldr	r4, .L396+44
 5541              	.LVL807:
 5542 0822 194D     		ldr	r5, .L396+4
 5543 0824 04F12007 		add	r7, r4, #32
 5544              	.LVL808:
 5545              	.L389:
 5546 0828 2646     		mov	r6, r4
ARM GAS  C:\Users\FRANKL~1\AppData\Local\Temp\ccXJlYBQ.s 			page 127


 5547 082a 0FCE     		ldmia	r6!, {r0, r1, r2, r3}
 5548 082c 2860     		str	r0, [r5]	@ unaligned
 5549 082e 6960     		str	r1, [r5, #4]	@ unaligned
 5550 0830 AA60     		str	r2, [r5, #8]	@ unaligned
 5551 0832 EB60     		str	r3, [r5, #12]	@ unaligned
 5552 0834 3446     		mov	r4, r6
 5553 0836 1035     		adds	r5, r5, #16
 5554 0838 BE42     		cmp	r6, r7
 5555 083a F5D1     		bne	.L389
 5556 083c 03CC     		ldmia	r4!, {r0, r1}
 5557 083e 2860     		str	r0, [r5]	@ unaligned
 5558 0840 6960     		str	r1, [r5, #4]	@ unaligned
 5559 0842 2378     		ldrb	r3, [r4]	@ zero_extendqisi2
 5560 0844 2B72     		strb	r3, [r5, #8]
1051:main.c        **** 				USBUARTH_Send(TransmitBuffer, strlen(TransmitBuffer));
 5561              		.loc 2 1051 0 discriminator 19
 5562 0846 104C     		ldr	r4, .L396+4
 5563 0848 2046     		mov	r0, r4
 5564 084a FFF7FEFF 		bl	strlen
 5565              	.LVL809:
 5566 084e 81B2     		uxth	r1, r0
 5567 0850 2046     		mov	r0, r4
 5568 0852 FFF7FEFF 		bl	USBUARTH_Send
 5569              	.LVL810:
1052:main.c        **** 				UART_1_PutString(TransmitBuffer);
 5570              		.loc 2 1052 0 discriminator 19
 5571 0856 2046     		mov	r0, r4
 5572 0858 FFF7FEFF 		bl	UART_1_PutString
 5573              	.LVL811:
 5574              	.LBE77:
 5575 085c 03E4     		b	.L358
 5576              	.LVL812:
 5577              	.L388:
1053:main.c        **** 			} else {
1054:main.c        **** 				sprintf(TransmitBuffer, "! Unidentified command: |%s|\r\n", ReceiveBuffer);
 5578              		.loc 2 1054 0
 5579 085e 0A4D     		ldr	r5, .L396+4
 5580 0860 2246     		mov	r2, r4
 5581 0862 1449     		ldr	r1, .L396+48
 5582 0864 2846     		mov	r0, r5
 5583 0866 FFF7FEFF 		bl	sprintf
 5584              	.LVL813:
1055:main.c        **** 				USBUARTH_Send(TransmitBuffer, strlen(TransmitBuffer));
 5585              		.loc 2 1055 0
 5586 086a 2846     		mov	r0, r5
 5587 086c FFF7FEFF 		bl	strlen
 5588              	.LVL814:
 5589 0870 81B2     		uxth	r1, r0
 5590 0872 2846     		mov	r0, r5
 5591 0874 FFF7FEFF 		bl	USBUARTH_Send
 5592              	.LVL815:
1056:main.c        **** 				UART_1_PutString(TransmitBuffer);
 5593              		.loc 2 1056 0
 5594 0878 2846     		mov	r0, r5
 5595 087a FFF7FEFF 		bl	UART_1_PutString
 5596              	.LVL816:
 5597 087e FFF7F2BB 		b	.L358
ARM GAS  C:\Users\FRANKL~1\AppData\Local\Temp\ccXJlYBQ.s 			page 128


 5598              	.L397:
 5599 0882 00BF     		.align	2
 5600              	.L396:
 5601 0884 B8030000 		.word	.LC51
 5602 0888 00000000 		.word	TransmitBuffer
 5603 088c D4030000 		.word	.LC52
 5604 0890 F4030000 		.word	.LC53
 5605 0894 0C040000 		.word	.LC54
 5606 0898 2C040000 		.word	.LC55
 5607 089c 44040000 		.word	.LC56
 5608 08a0 64040000 		.word	.LC57
 5609 08a4 7C040000 		.word	.LC58
 5610 08a8 98040000 		.word	.LC59
 5611 08ac 00000000 		.word	Current_Measurement_Sample_Count
 5612 08b0 C0040000 		.word	.LC60
 5613 08b4 EC040000 		.word	.LC61
 5614              	.LBE58:
 5615              		.cfi_endproc
 5616              	.LFE107:
 5617              		.size	main, .-main
 5618              		.comm	Current_Measurement_Sample_Count,4,4
 5619              		.comm	Vds_Index_Goal_Relative,2,2
 5620              		.comm	Vgs_Index_Goal_Relative,2,2
 5621              		.comm	Compliance_Reached,1,1
 5622              		.comm	USBUART_Rx_Position,1,1
 5623              		.comm	USBUART_Receive_Buffer,64,4
 5624              		.comm	UART_Rx_Position,1,1
 5625              		.comm	UART_Receive_Buffer,64,4
 5626              		.global	G_Pause
 5627              		.global	G_Break
 5628              		.global	G_Stop
 5629              		.global	newData
 5630              		.comm	TransmitBuffer,64,4
 5631              		.comm	selectors,1020,4
 5632              		.section	.rodata.str1.4,"aMS",%progbits,1
 5633              		.align	2
 5634              	.LC0:
 5635 0000 73746F70 		.ascii	"stop \000"
 5635      2000
 5636 0006 0000     		.space	2
 5637              	.LC1:
 5638 0008 62726561 		.ascii	"break \000"
 5638      6B2000
 5639 000f 00       		.space	1
 5640              	.LC2:
 5641 0010 70617573 		.ascii	"pause \000"
 5641      652000
 5642 0017 00       		.space	1
 5643              	.LC3:
 5644 0018 72657375 		.ascii	"resume \000"
 5644      6D652000 
 5645              	.LC4:
 5646 0020 74726973 		.ascii	"tristate \000"
 5646      74617465 
 5646      2000
 5647 002a 0000     		.space	2
 5648              	.LC5:
ARM GAS  C:\Users\FRANKL~1\AppData\Local\Temp\ccXJlYBQ.s 			page 129


 5649 002c 55706461 		.ascii	"Updating Selector %u\015\012\000"
 5649      74696E67 
 5649      2053656C 
 5649      6563746F 
 5649      72202575 
 5650 0043 00       		.space	1
 5651              	.LC6:
 5652 0044 49324320 		.ascii	"I2C Transfer Error! Type: Timeout\015\012\000"
 5652      5472616E 
 5652      73666572 
 5652      20457272 
 5652      6F722120 
 5653              	.LC7:
 5654 0068 49324320 		.ascii	"I2C Transfer Error! \000"
 5654      5472616E 
 5654      73666572 
 5654      20457272 
 5654      6F722120 
 5655 007d 000000   		.space	3
 5656              	.LC8:
 5657 0080 54797065 		.ascii	"Type: NAK\000"
 5657      3A204E41 
 5657      4B00
 5658 008a 0000     		.space	2
 5659              	.LC9:
 5660 008c 0D0A00   		.ascii	"\015\012\000"
 5661 008f 00       		.space	1
 5662              	.LC10:
 5663 0090 55706461 		.ascii	"Updated Selector %u\015\012\000"
 5663      74656420 
 5663      53656C65 
 5663      63746F72 
 5663      2025750D 
 5664 00a6 0000     		.space	2
 5665              	.LC11:
 5666 00a8 256C752C 		.ascii	"%lu,\000"
 5666      00
 5667 00ad 000000   		.space	3
 5668              	.LC12:
 5669 00b0 5B25652C 		.ascii	"[%e,%f,%f,%f,%f]\015\012\000"
 5669      25662C25 
 5669      662C2566 
 5669      2C25665D 
 5669      0D0A00
 5670 00c3 00       		.space	1
 5671              	.LC13:
 5672 00c4 0D0A2575 		.ascii	"\015\012%u\015\012\000"
 5672      0D0A00
 5673 00cb 00       		.space	1
 5674              	.LC14:
 5675 00cc 0D0A2320 		.ascii	"\015\012# Starting\015\012\000"
 5675      53746172 
 5675      74696E67 
 5675      0D0A00
 5676 00db 00       		.space	1
 5677              	.LC15:
 5678 00dc 6D656173 		.ascii	"measure \000"
ARM GAS  C:\Users\FRANKL~1\AppData\Local\Temp\ccXJlYBQ.s 			page 130


 5678      75726520 
 5678      00
 5679 00e5 000000   		.space	3
 5680              	.LC16:
 5681 00e8 6D656173 		.ascii	"measure-multiple \000"
 5681      7572652D 
 5681      6D756C74 
 5681      69706C65 
 5681      2000
 5682 00fa 0000     		.space	2
 5683              	.LC17:
 5684 00fc 6D656173 		.ascii	"measure-sweep \000"
 5684      7572652D 
 5684      73776565 
 5684      702000
 5685 010b 00       		.space	1
 5686              	.LC18:
 5687 010c 6D656173 		.ascii	"measure-gate-sweep \000"
 5687      7572652D 
 5687      67617465 
 5687      2D737765 
 5687      65702000 
 5688              	.LC19:
 5689 0120 6D656173 		.ascii	"measure-gate-sweep-loop \000"
 5689      7572652D 
 5689      67617465 
 5689      2D737765 
 5689      65702D6C 
 5690 0139 000000   		.space	3
 5691              	.LC20:
 5692 013c 7365742D 		.ascii	"set-vgs-raw \000"
 5692      7667732D 
 5692      72617720 
 5692      00
 5693 0149 000000   		.space	3
 5694              	.LC21:
 5695 014c 7365742D 		.ascii	"set-vds-raw \000"
 5695      7664732D 
 5695      72617720 
 5695      00
 5696 0159 000000   		.space	3
 5697              	.LC22:
 5698 015c 7365742D 		.ascii	"set-vgs-rel \000"
 5698      7667732D 
 5698      72656C20 
 5698      00
 5699 0169 000000   		.space	3
 5700              	.LC23:
 5701 016c 7365742D 		.ascii	"set-vds-rel \000"
 5701      7664732D 
 5701      72656C20 
 5701      00
 5702 0179 000000   		.space	3
 5703              	.LC24:
 5704 017c 7365742D 		.ascii	"set-vgs \000"
 5704      76677320 
 5704      00
ARM GAS  C:\Users\FRANKL~1\AppData\Local\Temp\ccXJlYBQ.s 			page 131


 5705 0185 000000   		.space	3
 5706              	.LC25:
 5707 0188 256600   		.ascii	"%f\000"
 5708 018b 00       		.space	1
 5709              	.LC26:
 5710 018c 7365742D 		.ascii	"set-vds \000"
 5710      76647320 
 5710      00
 5711 0195 000000   		.space	3
 5712              	.LC27:
 5713 0198 7365742D 		.ascii	"set-vgs-mv \000"
 5713      7667732D 
 5713      6D762000 
 5714              	.LC28:
 5715 01a4 23205667 		.ascii	"# Vgs set to %f mV\015\012\000"
 5715      73207365 
 5715      7420746F 
 5715      20256620 
 5715      6D560D0A 
 5716 01b9 000000   		.space	3
 5717              	.LC29:
 5718 01bc 7365742D 		.ascii	"set-vds-mv \000"
 5718      7664732D 
 5718      6D762000 
 5719              	.LC30:
 5720 01c8 23205664 		.ascii	"# Vds set to %f mV\015\012\000"
 5720      73207365 
 5720      7420746F 
 5720      20256620 
 5720      6D560D0A 
 5721 01dd 000000   		.space	3
 5722              	.LC31:
 5723 01e0 7363616E 		.ascii	"scan \000"
 5723      2000
 5724 01e6 0000     		.space	2
 5725              	.LC32:
 5726 01e8 0D0A2320 		.ascii	"\015\012# Scan Starting\015\012\000"
 5726      5363616E 
 5726      20537461 
 5726      7274696E 
 5726      670D0A00 
 5727              	.LC33:
 5728 01fc 0D0A2320 		.ascii	"\015\012# Scan Complete\015\012\000"
 5728      5363616E 
 5728      20436F6D 
 5728      706C6574 
 5728      650D0A00 
 5729              	.LC34:
 5730 0210 7363616E 		.ascii	"scan-range \000"
 5730      2D72616E 
 5730      67652000 
 5731              	.LC35:
 5732 021c 0D0A2320 		.ascii	"\015\012# Scan-Range Starting\015\012\000"
 5732      5363616E 
 5732      2D52616E 
 5732      67652053 
 5732      74617274 
ARM GAS  C:\Users\FRANKL~1\AppData\Local\Temp\ccXJlYBQ.s 			page 132


 5733 0236 0000     		.space	2
 5734              	.LC36:
 5735 0238 0D0A2320 		.ascii	"\015\012# Scan Range Complete\015\012\000"
 5735      5363616E 
 5735      2052616E 
 5735      67652043 
 5735      6F6D706C 
 5736 0252 0000     		.space	2
 5737              	.LC37:
 5738 0254 7363616E 		.ascii	"scan-range-loop \000"
 5738      2D72616E 
 5738      67652D6C 
 5738      6F6F7020 
 5738      00
 5739 0265 000000   		.space	3
 5740              	.LC38:
 5741 0268 0D0A2320 		.ascii	"\015\012# Scan-Range-Loop Starting\015\012\000"
 5741      5363616E 
 5741      2D52616E 
 5741      67652D4C 
 5741      6F6F7020 
 5742 0287 00       		.space	1
 5743              	.LC39:
 5744 0288 0D0A2320 		.ascii	"\015\012# Scan Range Loop Complete\015\012\000"
 5744      5363616E 
 5744      2052616E 
 5744      6765204C 
 5744      6F6F7020 
 5745 02a7 00       		.space	1
 5746              	.LC40:
 5747 02a8 7363616E 		.ascii	"scan-range-wide-loop \000"
 5747      2D72616E 
 5747      67652D77 
 5747      6964652D 
 5747      6C6F6F70 
 5748 02be 0000     		.space	2
 5749              	.LC41:
 5750 02c0 0D0A2320 		.ascii	"\015\012# Scan-Range-Wide-Loop Starting\015\012\000"
 5750      5363616E 
 5750      2D52616E 
 5750      67652D57 
 5750      6964652D 
 5751              	.LC42:
 5752 02e4 0D0A2320 		.ascii	"\015\012# Scan Range Wide Loop Complete\015\012\000"
 5752      5363616E 
 5752      2052616E 
 5752      67652057 
 5752      69646520 
 5753              	.LC43:
 5754 0308 636F6E6E 		.ascii	"connect \000"
 5754      65637420 
 5754      00
 5755 0311 000000   		.space	3
 5756              	.LC44:
 5757 0314 2320436F 		.ascii	"# Connected %u to %u\015\012\000"
 5757      6E6E6563 
 5757      74656420 
ARM GAS  C:\Users\FRANKL~1\AppData\Local\Temp\ccXJlYBQ.s 			page 133


 5757      25752074 
 5757      6F202575 
 5758 032b 00       		.space	1
 5759              	.LC45:
 5760 032c 636F6E6E 		.ascii	"connect-c \000"
 5760      6563742D 
 5760      632000
 5761 0337 00       		.space	1
 5762              	.LC46:
 5763 0338 2320436F 		.ascii	"# Connected channel %u to %u\015\012\000"
 5763      6E6E6563 
 5763      74656420 
 5763      6368616E 
 5763      6E656C20 
 5764 0357 00       		.space	1
 5765              	.LC47:
 5766 0358 64697363 		.ascii	"disconnect \000"
 5766      6F6E6E65 
 5766      63742000 
 5767              	.LC48:
 5768 0364 23204469 		.ascii	"# Disonnected %u from %u\015\012\000"
 5768      736F6E6E 
 5768      65637465 
 5768      64202575 
 5768      2066726F 
 5769 037f 00       		.space	1
 5770              	.LC49:
 5771 0380 64697363 		.ascii	"disconnect-all-from \000"
 5771      6F6E6E65 
 5771      63742D61 
 5771      6C6C2D66 
 5771      726F6D20 
 5772 0395 000000   		.space	3
 5773              	.LC50:
 5774 0398 23204469 		.ascii	"# Disconnected all from  %u\015\012\000"
 5774      73636F6E 
 5774      6E656374 
 5774      65642061 
 5774      6C6C2066 
 5775 03b6 0000     		.space	2
 5776              	.LC51:
 5777 03b8 64697363 		.ascii	"disconnect-all-from-all \000"
 5777      6F6E6E65 
 5777      63742D61 
 5777      6C6C2D66 
 5777      726F6D2D 
 5778 03d1 000000   		.space	3
 5779              	.LC52:
 5780 03d4 23204469 		.ascii	"# Disconnected all from all\015\012\000"
 5780      73636F6E 
 5780      6E656374 
 5780      65642061 
 5780      6C6C2066 
 5781 03f2 0000     		.space	2
 5782              	.LC53:
 5783 03f4 64697363 		.ascii	"disconnect-from-all \000"
 5783      6F6E6E65 
ARM GAS  C:\Users\FRANKL~1\AppData\Local\Temp\ccXJlYBQ.s 			page 134


 5783      63742D66 
 5783      726F6D2D 
 5783      616C6C20 
 5784 0409 000000   		.space	3
 5785              	.LC54:
 5786 040c 23204469 		.ascii	"# Disconnected %u from all\015\012\000"
 5786      73636F6E 
 5786      6E656374 
 5786      65642025 
 5786      75206672 
 5787 0429 000000   		.space	3
 5788              	.LC55:
 5789 042c 636F6E6E 		.ascii	"connect-intermediate \000"
 5789      6563742D 
 5789      696E7465 
 5789      726D6564 
 5789      69617465 
 5790 0442 0000     		.space	2
 5791              	.LC56:
 5792 0444 2320436F 		.ascii	"# Connected intermediate %u\015\012\000"
 5792      6E6E6563 
 5792      74656420 
 5792      696E7465 
 5792      726D6564 
 5793 0462 0000     		.space	2
 5794              	.LC57:
 5795 0464 636F6E6E 		.ascii	"connect-intermediates \000"
 5795      6563742D 
 5795      696E7465 
 5795      726D6564 
 5795      69617465 
 5796 047b 00       		.space	1
 5797              	.LC58:
 5798 047c 2320436F 		.ascii	"# Connected intermediates\015\012\000"
 5798      6E6E6563 
 5798      74656420 
 5798      696E7465 
 5798      726D6564 
 5799              	.LC59:
 5800 0498 5365745F 		.ascii	"Set_Current_Measurement_Sample_Count \000"
 5800      43757272 
 5800      656E745F 
 5800      4D656173 
 5800      7572656D 
 5801 04be 0000     		.space	2
 5802              	.LC60:
 5803 04c0 23205365 		.ascii	"# Set Current Measurement Sample Count\015\012\000"
 5803      74204375 
 5803      7272656E 
 5803      74204D65 
 5803      61737572 
 5804 04e9 000000   		.space	3
 5805              	.LC61:
 5806 04ec 2120556E 		.ascii	"! Unidentified command: |%s|\015\012\000"
 5806      6964656E 
 5806      74696669 
 5806      65642063 
ARM GAS  C:\Users\FRANKL~1\AppData\Local\Temp\ccXJlYBQ.s 			page 135


 5806      6F6D6D61 
 5807              		.bss
 5808              		.set	.LANCHOR0,. + 0
 5809              		.type	newData, %object
 5810              		.size	newData, 1
 5811              	newData:
 5812 0000 00       		.space	1
 5813              		.type	G_Stop, %object
 5814              		.size	G_Stop, 1
 5815              	G_Stop:
 5816 0001 00       		.space	1
 5817              		.type	G_Break, %object
 5818              		.size	G_Break, 1
 5819              	G_Break:
 5820 0002 00       		.space	1
 5821              		.type	G_Pause, %object
 5822              		.size	G_Pause, 1
 5823              	G_Pause:
 5824 0003 00       		.space	1
 5825              		.text
 5826              	.Letext0:
 5827              		.file 3 "c:\\program files (x86)\\cypress\\psoc creator\\4.1\\psoc creator\\import\\gnu\\arm\\5.4.
 5828              		.file 4 "c:\\program files (x86)\\cypress\\psoc creator\\4.1\\psoc creator\\import\\gnu\\arm\\5.4.
 5829              		.file 5 "Generated_Source\\PSoC5/cytypes.h"
 5830              		.file 6 "Generated_Source\\PSoC5/core_cm3.h"
 5831              		.file 7 "Generated_Source\\PSoC5/USBUART.h"
 5832              		.file 8 "Generated_Source\\PSoC5/USBUART_cdc.h"
 5833              		.file 9 "c:\\program files (x86)\\cypress\\psoc creator\\4.1\\psoc creator\\import\\gnu\\arm\\5.4.
 5834              		.file 10 "Generated_Source\\PSoC5/UART_1.h"
 5835              		.file 11 "Generated_Source\\PSoC5/CommunicationInterrupt.h"
 5836              		.file 12 "Generated_Source\\PSoC5/CommunicationTimer.h"
 5837              		.file 13 "Generated_Source\\PSoC5/I2C_1.h"
 5838              		.file 14 "c:\\program files (x86)\\cypress\\psoc creator\\4.1\\psoc creator\\import\\gnu\\arm\\5.4
 5839              		.file 15 "Generated_Source\\PSoC5/ADC_DelSig_1.h"
 5840              		.file 16 "Generated_Source\\PSoC5/VDAC_Vgs.h"
 5841              		.file 17 "Generated_Source\\PSoC5/VDAC_Vds.h"
 5842              		.file 18 "Generated_Source\\PSoC5/VDAC_Ref.h"
 5843              		.file 19 "Generated_Source\\PSoC5/ADC_SAR_1.h"
 5844              		.file 20 "Generated_Source\\PSoC5/ADC_SAR_2.h"
 5845              		.file 21 "c:\\program files (x86)\\cypress\\psoc creator\\4.1\\psoc creator\\import\\gnu\\arm\\5.4
 5846              		.file 22 "Generated_Source\\PSoC5/TIA_1.h"
 5847              		.file 23 "Generated_Source\\PSoC5/CyLib.h"
 5848              		.file 24 "<built-in>"
 5849              		.section	.debug_info,"",%progbits
 5850              	.Ldebug_info0:
 5851 0000 6E340000 		.4byte	0x346e
 5852 0004 0400     		.2byte	0x4
 5853 0006 00000000 		.4byte	.Ldebug_abbrev0
 5854 000a 04       		.byte	0x4
 5855 000b 01       		.uleb128 0x1
 5856 000c 94080000 		.4byte	.LASF210
 5857 0010 0C       		.byte	0xc
 5858 0011 F5060000 		.4byte	.LASF211
 5859 0015 2D000000 		.4byte	.LASF212
 5860 0019 08010000 		.4byte	.Ldebug_ranges0+0x108
 5861 001d 00000000 		.4byte	0
 5862 0021 00000000 		.4byte	.Ldebug_line0
ARM GAS  C:\Users\FRANKL~1\AppData\Local\Temp\ccXJlYBQ.s 			page 136


 5863 0025 02       		.uleb128 0x2
 5864 0026 04       		.byte	0x4
 5865 0027 04       		.byte	0x4
 5866 0028 4E070000 		.4byte	.LASF0
 5867 002c 02       		.uleb128 0x2
 5868 002d 08       		.byte	0x8
 5869 002e 04       		.byte	0x4
 5870 002f 65030000 		.4byte	.LASF1
 5871 0033 02       		.uleb128 0x2
 5872 0034 04       		.byte	0x4
 5873 0035 07       		.byte	0x7
 5874 0036 6E040000 		.4byte	.LASF2
 5875 003a 03       		.uleb128 0x3
 5876 003b 04       		.byte	0x4
 5877 003c 05       		.byte	0x5
 5878 003d 696E7400 		.ascii	"int\000"
 5879 0041 02       		.uleb128 0x2
 5880 0042 08       		.byte	0x8
 5881 0043 05       		.byte	0x5
 5882 0044 43020000 		.4byte	.LASF3
 5883 0048 02       		.uleb128 0x2
 5884 0049 08       		.byte	0x8
 5885 004a 04       		.byte	0x4
 5886 004b 98090000 		.4byte	.LASF4
 5887 004f 02       		.uleb128 0x2
 5888 0050 01       		.byte	0x1
 5889 0051 06       		.byte	0x6
 5890 0052 51020000 		.4byte	.LASF5
 5891 0056 02       		.uleb128 0x2
 5892 0057 01       		.byte	0x1
 5893 0058 08       		.byte	0x8
 5894 0059 CA070000 		.4byte	.LASF6
 5895 005d 02       		.uleb128 0x2
 5896 005e 02       		.byte	0x2
 5897 005f 05       		.byte	0x5
 5898 0060 CB050000 		.4byte	.LASF7
 5899 0064 02       		.uleb128 0x2
 5900 0065 02       		.byte	0x2
 5901 0066 07       		.byte	0x7
 5902 0067 42050000 		.4byte	.LASF8
 5903 006b 04       		.uleb128 0x4
 5904 006c D5050000 		.4byte	.LASF14
 5905 0070 03       		.byte	0x3
 5906 0071 3F       		.byte	0x3f
 5907 0072 76000000 		.4byte	0x76
 5908 0076 02       		.uleb128 0x2
 5909 0077 04       		.byte	0x4
 5910 0078 05       		.byte	0x5
 5911 0079 0D030000 		.4byte	.LASF9
 5912 007d 02       		.uleb128 0x2
 5913 007e 04       		.byte	0x4
 5914 007f 07       		.byte	0x7
 5915 0080 F2040000 		.4byte	.LASF10
 5916 0084 02       		.uleb128 0x2
 5917 0085 08       		.byte	0x8
 5918 0086 07       		.byte	0x7
 5919 0087 37010000 		.4byte	.LASF11
ARM GAS  C:\Users\FRANKL~1\AppData\Local\Temp\ccXJlYBQ.s 			page 137


 5920 008b 02       		.uleb128 0x2
 5921 008c 04       		.byte	0x4
 5922 008d 07       		.byte	0x7
 5923 008e 52060000 		.4byte	.LASF12
 5924 0092 05       		.uleb128 0x5
 5925 0093 04       		.byte	0x4
 5926 0094 98000000 		.4byte	0x98
 5927 0098 02       		.uleb128 0x2
 5928 0099 01       		.byte	0x1
 5929 009a 08       		.byte	0x8
 5930 009b CE090000 		.4byte	.LASF13
 5931 009f 05       		.uleb128 0x5
 5932 00a0 04       		.byte	0x4
 5933 00a1 A5000000 		.4byte	0xa5
 5934 00a5 06       		.uleb128 0x6
 5935 00a6 98000000 		.4byte	0x98
 5936 00aa 04       		.uleb128 0x4
 5937 00ab C2070000 		.4byte	.LASF15
 5938 00af 04       		.byte	0x4
 5939 00b0 2C       		.byte	0x2c
 5940 00b1 6B000000 		.4byte	0x6b
 5941 00b5 07       		.uleb128 0x7
 5942 00b6 51030000 		.4byte	.LASF16
 5943 00ba 05       		.byte	0x5
 5944 00bb 9201     		.2byte	0x192
 5945 00bd 56000000 		.4byte	0x56
 5946 00c1 07       		.uleb128 0x7
 5947 00c2 11040000 		.4byte	.LASF17
 5948 00c6 05       		.byte	0x5
 5949 00c7 9301     		.2byte	0x193
 5950 00c9 64000000 		.4byte	0x64
 5951 00cd 07       		.uleb128 0x7
 5952 00ce 99030000 		.4byte	.LASF18
 5953 00d2 05       		.byte	0x5
 5954 00d3 9401     		.2byte	0x194
 5955 00d5 7D000000 		.4byte	0x7d
 5956 00d9 07       		.uleb128 0x7
 5957 00da 5E050000 		.4byte	.LASF19
 5958 00de 05       		.byte	0x5
 5959 00df 9501     		.2byte	0x195
 5960 00e1 4F000000 		.4byte	0x4f
 5961 00e5 07       		.uleb128 0x7
 5962 00e6 D10B0000 		.4byte	.LASF20
 5963 00ea 05       		.byte	0x5
 5964 00eb 9601     		.2byte	0x196
 5965 00ed 5D000000 		.4byte	0x5d
 5966 00f1 07       		.uleb128 0x7
 5967 00f2 B5020000 		.4byte	.LASF21
 5968 00f6 05       		.byte	0x5
 5969 00f7 9701     		.2byte	0x197
 5970 00f9 76000000 		.4byte	0x76
 5971 00fd 07       		.uleb128 0x7
 5972 00fe AE070000 		.4byte	.LASF22
 5973 0102 05       		.byte	0x5
 5974 0103 3C02     		.2byte	0x23c
 5975 0105 09010000 		.4byte	0x109
 5976 0109 08       		.uleb128 0x8
ARM GAS  C:\Users\FRANKL~1\AppData\Local\Temp\ccXJlYBQ.s 			page 138


 5977 010a B5000000 		.4byte	0xb5
 5978 010e 09       		.uleb128 0x9
 5979 010f 7F       		.byte	0x7f
 5980 0110 02       		.byte	0x2
 5981 0111 08       		.byte	0x8
 5982 0112 2F010000 		.4byte	0x12f
 5983 0116 0A       		.uleb128 0xa
 5984 0117 CD0C0000 		.4byte	.LASF23
 5985 011b 02       		.byte	0x2
 5986 011c 09       		.byte	0x9
 5987 011d B5000000 		.4byte	0xb5
 5988 0121 00       		.byte	0
 5989 0122 0A       		.uleb128 0xa
 5990 0123 3D050000 		.4byte	.LASF24
 5991 0127 02       		.byte	0x2
 5992 0128 0A       		.byte	0xa
 5993 0129 2F010000 		.4byte	0x12f
 5994 012d 01       		.byte	0x1
 5995 012e 00       		.byte	0
 5996 012f 0B       		.uleb128 0xb
 5997 0130 B5000000 		.4byte	0xb5
 5998 0134 3F010000 		.4byte	0x13f
 5999 0138 0C       		.uleb128 0xc
 6000 0139 8B000000 		.4byte	0x8b
 6001 013d 7D       		.byte	0x7d
 6002 013e 00       		.byte	0
 6003 013f 09       		.uleb128 0x9
 6004 0140 7F       		.byte	0x7f
 6005 0141 02       		.byte	0x2
 6006 0142 0C       		.byte	0xc
 6007 0143 60010000 		.4byte	0x160
 6008 0147 0A       		.uleb128 0xa
 6009 0148 CD0C0000 		.4byte	.LASF23
 6010 014c 02       		.byte	0x2
 6011 014d 0D       		.byte	0xd
 6012 014e B5000000 		.4byte	0xb5
 6013 0152 00       		.byte	0
 6014 0153 0A       		.uleb128 0xa
 6015 0154 3D050000 		.4byte	.LASF24
 6016 0158 02       		.byte	0x2
 6017 0159 0E       		.byte	0xe
 6018 015a 2F010000 		.4byte	0x12f
 6019 015e 01       		.byte	0x1
 6020 015f 00       		.byte	0
 6021 0160 0D       		.uleb128 0xd
 6022 0161 1D0A0000 		.4byte	.LASF213
 6023 0165 FF       		.byte	0xff
 6024 0166 02       		.byte	0x2
 6025 0167 07       		.byte	0x7
 6026 0168 91010000 		.4byte	0x191
 6027 016c 0A       		.uleb128 0xa
 6028 016d 0A060000 		.4byte	.LASF25
 6029 0171 02       		.byte	0x2
 6030 0172 0B       		.byte	0xb
 6031 0173 0E010000 		.4byte	0x10e
 6032 0177 00       		.byte	0
 6033 0178 0A       		.uleb128 0xa
ARM GAS  C:\Users\FRANKL~1\AppData\Local\Temp\ccXJlYBQ.s 			page 139


 6034 0179 E20B0000 		.4byte	.LASF26
 6035 017d 02       		.byte	0x2
 6036 017e 0F       		.byte	0xf
 6037 017f 3F010000 		.4byte	0x13f
 6038 0183 7F       		.byte	0x7f
 6039 0184 0A       		.uleb128 0xa
 6040 0185 18040000 		.4byte	.LASF27
 6041 0189 02       		.byte	0x2
 6042 018a 10       		.byte	0x10
 6043 018b B5000000 		.4byte	0xb5
 6044 018f FE       		.byte	0xfe
 6045 0190 00       		.byte	0
 6046 0191 0E       		.uleb128 0xe
 6047 0192 83020000 		.4byte	.LASF53
 6048 0196 01       		.byte	0x1
 6049 0197 10       		.byte	0x10
 6050 0198 00000000 		.4byte	.LFB64
 6051 019c 18000000 		.4byte	.LFE64-.LFB64
 6052 01a0 01       		.uleb128 0x1
 6053 01a1 9C       		.byte	0x9c
 6054 01a2 DA010000 		.4byte	0x1da
 6055 01a6 0F       		.uleb128 0xf
 6056 01a7 D8070000 		.4byte	.LASF30
 6057 01ab 01       		.byte	0x1
 6058 01ac 11       		.byte	0x11
 6059 01ad 7D000000 		.4byte	0x7d
 6060 01b1 00000000 		.4byte	.LLST0
 6061 01b5 10       		.uleb128 0x10
 6062 01b6 06000000 		.4byte	.LVL1
 6063 01ba 39320000 		.4byte	0x3239
 6064 01be 10       		.uleb128 0x10
 6065 01bf 0C000000 		.4byte	.LVL2
 6066 01c3 45320000 		.4byte	0x3245
 6067 01c7 10       		.uleb128 0x10
 6068 01c8 12000000 		.4byte	.LVL3
 6069 01cc 51320000 		.4byte	0x3251
 6070 01d0 10       		.uleb128 0x10
 6071 01d1 16000000 		.4byte	.LVL4
 6072 01d5 45320000 		.4byte	0x3245
 6073 01d9 00       		.byte	0
 6074 01da 11       		.uleb128 0x11
 6075 01db 170C0000 		.4byte	.LASF28
 6076 01df 01       		.byte	0x1
 6077 01e0 22       		.byte	0x22
 6078 01e1 B5000000 		.4byte	0xb5
 6079 01e5 00000000 		.4byte	.LFB65
 6080 01e9 1E000000 		.4byte	.LFE65-.LFB65
 6081 01ed 01       		.uleb128 0x1
 6082 01ee 9C       		.byte	0x9c
 6083 01ef 0F020000 		.4byte	0x20f
 6084 01f3 10       		.uleb128 0x10
 6085 01f4 06000000 		.4byte	.LVL5
 6086 01f8 91010000 		.4byte	0x191
 6087 01fc 10       		.uleb128 0x10
 6088 01fd 0A000000 		.4byte	.LVL6
 6089 0201 45320000 		.4byte	0x3245
 6090 0205 10       		.uleb128 0x10
ARM GAS  C:\Users\FRANKL~1\AppData\Local\Temp\ccXJlYBQ.s 			page 140


 6091 0206 10000000 		.4byte	.LVL7
 6092 020a 5C320000 		.4byte	0x325c
 6093 020e 00       		.byte	0
 6094 020f 12       		.uleb128 0x12
 6095 0210 DB090000 		.4byte	.LASF29
 6096 0214 02       		.byte	0x2
 6097 0215 DD02     		.2byte	0x2dd
 6098 0217 00000000 		.4byte	.LFB106
 6099 021b B0010000 		.4byte	.LFE106-.LFB106
 6100 021f 01       		.uleb128 0x1
 6101 0220 9C       		.byte	0x9c
 6102 0221 70030000 		.4byte	0x370
 6103 0225 13       		.uleb128 0x13
 6104 0226 0C000000 		.4byte	.LBB2
 6105 022a 70000000 		.4byte	.LBE2-.LBB2
 6106 022e 97020000 		.4byte	0x297
 6107 0232 14       		.uleb128 0x14
 6108 0233 B10A0000 		.4byte	.LASF31
 6109 0237 02       		.byte	0x2
 6110 0238 E102     		.2byte	0x2e1
 6111 023a 70030000 		.4byte	0x370
 6112 023e 03       		.uleb128 0x3
 6113 023f 91       		.byte	0x91
 6114 0240 B07F     		.sleb128 -80
 6115 0242 15       		.uleb128 0x15
 6116 0243 C60B0000 		.4byte	.LASF32
 6117 0247 02       		.byte	0x2
 6118 0248 E202     		.2byte	0x2e2
 6119 024a B5000000 		.4byte	0xb5
 6120 024e 20000000 		.4byte	.LLST1
 6121 0252 13       		.uleb128 0x13
 6122 0253 14000000 		.4byte	.LBB3
 6123 0257 68000000 		.4byte	.LBE3-.LBB3
 6124 025b 86020000 		.4byte	0x286
 6125 025f 16       		.uleb128 0x16
 6126 0260 6900     		.ascii	"i\000"
 6127 0262 02       		.byte	0x2
 6128 0263 E402     		.2byte	0x2e4
 6129 0265 B5000000 		.4byte	0xb5
 6130 0269 33000000 		.4byte	.LLST2
 6131 026d 17       		.uleb128 0x17
 6132 026e 18000000 		.4byte	.LBB4
 6133 0272 5A000000 		.4byte	.LBE4-.LBB4
 6134 0276 16       		.uleb128 0x16
 6135 0277 6300     		.ascii	"c\000"
 6136 0279 02       		.byte	0x2
 6137 027a E502     		.2byte	0x2e5
 6138 027c 98000000 		.4byte	0x98
 6139 0280 5D000000 		.4byte	.LLST3
 6140 0284 00       		.byte	0
 6141 0285 00       		.byte	0
 6142 0286 18       		.uleb128 0x18
 6143 0287 12000000 		.4byte	.LVL9
 6144 028b 67320000 		.4byte	0x3267
 6145 028f 19       		.uleb128 0x19
 6146 0290 01       		.uleb128 0x1
 6147 0291 50       		.byte	0x50
ARM GAS  C:\Users\FRANKL~1\AppData\Local\Temp\ccXJlYBQ.s 			page 141


 6148 0292 02       		.uleb128 0x2
 6149 0293 7D       		.byte	0x7d
 6150 0294 00       		.sleb128 0
 6151 0295 00       		.byte	0
 6152 0296 00       		.byte	0
 6153 0297 13       		.uleb128 0x13
 6154 0298 FC000000 		.4byte	.LBB5
 6155 029c 80000000 		.4byte	.LBE5-.LBB5
 6156 02a0 42030000 		.4byte	0x342
 6157 02a4 15       		.uleb128 0x15
 6158 02a5 1F000000 		.4byte	.LASF33
 6159 02a9 02       		.byte	0x2
 6160 02aa 0603     		.2byte	0x306
 6161 02ac 92000000 		.4byte	0x92
 6162 02b0 B1000000 		.4byte	.LLST4
 6163 02b4 1A       		.uleb128 0x1a
 6164 02b5 14010000 		.4byte	.LVL23
 6165 02b9 72320000 		.4byte	0x3272
 6166 02bd D1020000 		.4byte	0x2d1
 6167 02c1 19       		.uleb128 0x19
 6168 02c2 01       		.uleb128 0x1
 6169 02c3 50       		.byte	0x50
 6170 02c4 02       		.uleb128 0x2
 6171 02c5 74       		.byte	0x74
 6172 02c6 00       		.sleb128 0
 6173 02c7 19       		.uleb128 0x19
 6174 02c8 01       		.uleb128 0x1
 6175 02c9 51       		.byte	0x51
 6176 02ca 05       		.uleb128 0x5
 6177 02cb 03       		.byte	0x3
 6178 02cc 00000000 		.4byte	.LC0
 6179 02d0 00       		.byte	0
 6180 02d1 1A       		.uleb128 0x1a
 6181 02d2 2C010000 		.4byte	.LVL24
 6182 02d6 72320000 		.4byte	0x3272
 6183 02da EE020000 		.4byte	0x2ee
 6184 02de 19       		.uleb128 0x19
 6185 02df 01       		.uleb128 0x1
 6186 02e0 50       		.byte	0x50
 6187 02e1 02       		.uleb128 0x2
 6188 02e2 74       		.byte	0x74
 6189 02e3 00       		.sleb128 0
 6190 02e4 19       		.uleb128 0x19
 6191 02e5 01       		.uleb128 0x1
 6192 02e6 51       		.byte	0x51
 6193 02e7 05       		.uleb128 0x5
 6194 02e8 03       		.byte	0x3
 6195 02e9 08000000 		.4byte	.LC1
 6196 02ed 00       		.byte	0
 6197 02ee 1A       		.uleb128 0x1a
 6198 02ef 44010000 		.4byte	.LVL25
 6199 02f3 72320000 		.4byte	0x3272
 6200 02f7 0B030000 		.4byte	0x30b
 6201 02fb 19       		.uleb128 0x19
 6202 02fc 01       		.uleb128 0x1
 6203 02fd 50       		.byte	0x50
 6204 02fe 02       		.uleb128 0x2
ARM GAS  C:\Users\FRANKL~1\AppData\Local\Temp\ccXJlYBQ.s 			page 142


 6205 02ff 74       		.byte	0x74
 6206 0300 00       		.sleb128 0
 6207 0301 19       		.uleb128 0x19
 6208 0302 01       		.uleb128 0x1
 6209 0303 51       		.byte	0x51
 6210 0304 05       		.uleb128 0x5
 6211 0305 03       		.byte	0x3
 6212 0306 10000000 		.4byte	.LC2
 6213 030a 00       		.byte	0
 6214 030b 1A       		.uleb128 0x1a
 6215 030c 5C010000 		.4byte	.LVL26
 6216 0310 72320000 		.4byte	0x3272
 6217 0314 28030000 		.4byte	0x328
 6218 0318 19       		.uleb128 0x19
 6219 0319 01       		.uleb128 0x1
 6220 031a 50       		.byte	0x50
 6221 031b 02       		.uleb128 0x2
 6222 031c 74       		.byte	0x74
 6223 031d 00       		.sleb128 0
 6224 031e 19       		.uleb128 0x19
 6225 031f 01       		.uleb128 0x1
 6226 0320 51       		.byte	0x51
 6227 0321 05       		.uleb128 0x5
 6228 0322 03       		.byte	0x3
 6229 0323 18000000 		.4byte	.LC3
 6230 0327 00       		.byte	0
 6231 0328 18       		.uleb128 0x18
 6232 0329 72010000 		.4byte	.LVL27
 6233 032d 72320000 		.4byte	0x3272
 6234 0331 19       		.uleb128 0x19
 6235 0332 01       		.uleb128 0x1
 6236 0333 50       		.byte	0x50
 6237 0334 02       		.uleb128 0x2
 6238 0335 74       		.byte	0x74
 6239 0336 00       		.sleb128 0
 6240 0337 19       		.uleb128 0x19
 6241 0338 01       		.uleb128 0x1
 6242 0339 51       		.byte	0x51
 6243 033a 05       		.uleb128 0x5
 6244 033b 03       		.byte	0x3
 6245 033c 20000000 		.4byte	.LC4
 6246 0340 00       		.byte	0
 6247 0341 00       		.byte	0
 6248 0342 10       		.uleb128 0x10
 6249 0343 08000000 		.4byte	.LVL8
 6250 0347 DA010000 		.4byte	0x1da
 6251 034b 10       		.uleb128 0x10
 6252 034c 80000000 		.4byte	.LVL19
 6253 0350 7D320000 		.4byte	0x327d
 6254 0354 10       		.uleb128 0x10
 6255 0355 8E000000 		.4byte	.LVL20
 6256 0359 88320000 		.4byte	0x3288
 6257 035d 10       		.uleb128 0x10
 6258 035e 80010000 		.4byte	.LVL29
 6259 0362 93320000 		.4byte	0x3293
 6260 0366 10       		.uleb128 0x10
 6261 0367 84010000 		.4byte	.LVL30
ARM GAS  C:\Users\FRANKL~1\AppData\Local\Temp\ccXJlYBQ.s 			page 143


 6262 036b 9E320000 		.4byte	0x329e
 6263 036f 00       		.byte	0
 6264 0370 0B       		.uleb128 0xb
 6265 0371 98000000 		.4byte	0x98
 6266 0375 80030000 		.4byte	0x380
 6267 0379 0C       		.uleb128 0xc
 6268 037a 8B000000 		.4byte	0x8b
 6269 037e 3F       		.byte	0x3f
 6270 037f 00       		.byte	0
 6271 0380 1B       		.uleb128 0x1b
 6272 0381 1E050000 		.4byte	.LASF36
 6273 0385 01       		.byte	0x1
 6274 0386 29       		.byte	0x29
 6275 0387 B5000000 		.4byte	0xb5
 6276 038b 00000000 		.4byte	.LFB66
 6277 038f 50000000 		.4byte	.LFE66-.LFB66
 6278 0393 01       		.uleb128 0x1
 6279 0394 9C       		.byte	0x9c
 6280 0395 23040000 		.4byte	0x423
 6281 0399 1C       		.uleb128 0x1c
 6282 039a 3C0A0000 		.4byte	.LASF34
 6283 039e 01       		.byte	0x1
 6284 039f 29       		.byte	0x29
 6285 03a0 92000000 		.4byte	0x92
 6286 03a4 D4000000 		.4byte	.LLST5
 6287 03a8 1C       		.uleb128 0x1c
 6288 03a9 0A000000 		.4byte	.LASF35
 6289 03ad 01       		.byte	0x1
 6290 03ae 29       		.byte	0x29
 6291 03af C1000000 		.4byte	0xc1
 6292 03b3 16010000 		.4byte	.LLST6
 6293 03b7 1D       		.uleb128 0x1d
 6294 03b8 00000000 		.4byte	.Ldebug_ranges0+0
 6295 03bc E2030000 		.4byte	0x3e2
 6296 03c0 0F       		.uleb128 0xf
 6297 03c1 D8070000 		.4byte	.LASF30
 6298 03c5 01       		.byte	0x1
 6299 03c6 2C       		.byte	0x2c
 6300 03c7 CD000000 		.4byte	0xcd
 6301 03cb 50010000 		.4byte	.LLST7
 6302 03cf 10       		.uleb128 0x10
 6303 03d0 0C000000 		.4byte	.LVL34
 6304 03d4 91010000 		.4byte	0x191
 6305 03d8 10       		.uleb128 0x10
 6306 03d9 10000000 		.4byte	.LVL35
 6307 03dd A9320000 		.4byte	0x32a9
 6308 03e1 00       		.byte	0
 6309 03e2 10       		.uleb128 0x10
 6310 03e3 26000000 		.4byte	.LVL39
 6311 03e7 A9320000 		.4byte	0x32a9
 6312 03eb 1A       		.uleb128 0x1a
 6313 03ec 32000000 		.4byte	.LVL40
 6314 03f0 B4320000 		.4byte	0x32b4
 6315 03f4 05040000 		.4byte	0x405
 6316 03f8 19       		.uleb128 0x19
 6317 03f9 01       		.uleb128 0x1
 6318 03fa 50       		.byte	0x50
ARM GAS  C:\Users\FRANKL~1\AppData\Local\Temp\ccXJlYBQ.s 			page 144


 6319 03fb 02       		.uleb128 0x2
 6320 03fc 76       		.byte	0x76
 6321 03fd 00       		.sleb128 0
 6322 03fe 19       		.uleb128 0x19
 6323 03ff 01       		.uleb128 0x1
 6324 0400 51       		.byte	0x51
 6325 0401 02       		.uleb128 0x2
 6326 0402 75       		.byte	0x75
 6327 0403 00       		.sleb128 0
 6328 0404 00       		.byte	0
 6329 0405 10       		.uleb128 0x10
 6330 0406 3A000000 		.4byte	.LVL41
 6331 040a A9320000 		.4byte	0x32a9
 6332 040e 18       		.uleb128 0x18
 6333 040f 46000000 		.4byte	.LVL42
 6334 0413 B4320000 		.4byte	0x32b4
 6335 0417 19       		.uleb128 0x19
 6336 0418 01       		.uleb128 0x1
 6337 0419 50       		.byte	0x50
 6338 041a 01       		.uleb128 0x1
 6339 041b 30       		.byte	0x30
 6340 041c 19       		.uleb128 0x19
 6341 041d 01       		.uleb128 0x1
 6342 041e 51       		.byte	0x51
 6343 041f 01       		.uleb128 0x1
 6344 0420 30       		.byte	0x30
 6345 0421 00       		.byte	0
 6346 0422 00       		.byte	0
 6347 0423 1B       		.uleb128 0x1b
 6348 0424 220B0000 		.4byte	.LASF37
 6349 0428 01       		.byte	0x1
 6350 0429 47       		.byte	0x47
 6351 042a B5000000 		.4byte	0xb5
 6352 042e 00000000 		.4byte	.LFB67
 6353 0432 24000000 		.4byte	.LFE67-.LFB67
 6354 0436 01       		.uleb128 0x1
 6355 0437 9C       		.byte	0x9c
 6356 0438 7D040000 		.4byte	0x47d
 6357 043c 1C       		.uleb128 0x1c
 6358 043d 3C0A0000 		.4byte	.LASF34
 6359 0441 01       		.byte	0x1
 6360 0442 47       		.byte	0x47
 6361 0443 92000000 		.4byte	0x92
 6362 0447 6E010000 		.4byte	.LLST8
 6363 044b 1C       		.uleb128 0x1c
 6364 044c 0A000000 		.4byte	.LASF35
 6365 0450 01       		.byte	0x1
 6366 0451 47       		.byte	0x47
 6367 0452 7D040000 		.4byte	0x47d
 6368 0456 8C010000 		.4byte	.LLST9
 6369 045a 10       		.uleb128 0x10
 6370 045b 0C000000 		.4byte	.LVL45
 6371 045f 91010000 		.4byte	0x191
 6372 0463 10       		.uleb128 0x10
 6373 0464 10000000 		.4byte	.LVL46
 6374 0468 5C320000 		.4byte	0x325c
 6375 046c 18       		.uleb128 0x18
ARM GAS  C:\Users\FRANKL~1\AppData\Local\Temp\ccXJlYBQ.s 			page 145


 6376 046d 1A000000 		.4byte	.LVL47
 6377 0471 67320000 		.4byte	0x3267
 6378 0475 19       		.uleb128 0x19
 6379 0476 01       		.uleb128 0x1
 6380 0477 50       		.byte	0x50
 6381 0478 02       		.uleb128 0x2
 6382 0479 74       		.byte	0x74
 6383 047a 00       		.sleb128 0
 6384 047b 00       		.byte	0
 6385 047c 00       		.byte	0
 6386 047d 05       		.uleb128 0x5
 6387 047e 04       		.byte	0x4
 6388 047f C1000000 		.4byte	0xc1
 6389 0483 11       		.uleb128 0x11
 6390 0484 DE070000 		.4byte	.LASF38
 6391 0488 01       		.byte	0x1
 6392 0489 53       		.byte	0x53
 6393 048a 98000000 		.4byte	0x98
 6394 048e 00000000 		.4byte	.LFB68
 6395 0492 16000000 		.4byte	.LFE68-.LFB68
 6396 0496 01       		.uleb128 0x1
 6397 0497 9C       		.byte	0x9c
 6398 0498 B8040000 		.4byte	0x4b8
 6399 049c 10       		.uleb128 0x10
 6400 049d 08000000 		.4byte	.LVL48
 6401 04a1 91010000 		.4byte	0x191
 6402 04a5 10       		.uleb128 0x10
 6403 04a6 0C000000 		.4byte	.LVL49
 6404 04aa 5C320000 		.4byte	0x325c
 6405 04ae 10       		.uleb128 0x10
 6406 04af 14000000 		.4byte	.LVL50
 6407 04b3 BF320000 		.4byte	0x32bf
 6408 04b7 00       		.byte	0
 6409 04b8 1B       		.uleb128 0x1b
 6410 04b9 0B010000 		.4byte	.LASF39
 6411 04bd 01       		.byte	0x1
 6412 04be 59       		.byte	0x59
 6413 04bf B5000000 		.4byte	0xb5
 6414 04c3 00000000 		.4byte	.LFB69
 6415 04c7 58000000 		.4byte	.LFE69-.LFB69
 6416 04cb 01       		.uleb128 0x1
 6417 04cc 9C       		.byte	0x9c
 6418 04cd 64050000 		.4byte	0x564
 6419 04d1 1C       		.uleb128 0x1c
 6420 04d2 3C0A0000 		.4byte	.LASF34
 6421 04d6 01       		.byte	0x1
 6422 04d7 59       		.byte	0x59
 6423 04d8 92000000 		.4byte	0x92
 6424 04dc AA010000 		.4byte	.LLST10
 6425 04e0 1C       		.uleb128 0x1c
 6426 04e1 BC0B0000 		.4byte	.LASF40
 6427 04e5 01       		.byte	0x1
 6428 04e6 59       		.byte	0x59
 6429 04e7 C1000000 		.4byte	0xc1
 6430 04eb C8010000 		.4byte	.LLST11
 6431 04ef 1C       		.uleb128 0x1c
 6432 04f0 14080000 		.4byte	.LASF41
ARM GAS  C:\Users\FRANKL~1\AppData\Local\Temp\ccXJlYBQ.s 			page 146


 6433 04f4 01       		.byte	0x1
 6434 04f5 59       		.byte	0x59
 6435 04f6 9F000000 		.4byte	0x9f
 6436 04fa E9010000 		.4byte	.LLST12
 6437 04fe 13       		.uleb128 0x13
 6438 04ff 0A000000 		.4byte	.LBB8
 6439 0503 14000000 		.4byte	.LBE8-.LBB8
 6440 0507 19050000 		.4byte	0x519
 6441 050b 1E       		.uleb128 0x1e
 6442 050c 6900     		.ascii	"i\000"
 6443 050e 01       		.byte	0x1
 6444 050f 5A       		.byte	0x5a
 6445 0510 C1000000 		.4byte	0xc1
 6446 0514 07020000 		.4byte	.LLST13
 6447 0518 00       		.byte	0
 6448 0519 17       		.uleb128 0x17
 6449 051a 1E000000 		.4byte	.LBB9
 6450 051e 34000000 		.4byte	.LBE9-.LBB9
 6451 0522 1E       		.uleb128 0x1e
 6452 0523 6900     		.ascii	"i\000"
 6453 0525 01       		.byte	0x1
 6454 0526 5E       		.byte	0x5e
 6455 0527 C1000000 		.4byte	0xc1
 6456 052b 31020000 		.4byte	.LLST14
 6457 052f 10       		.uleb128 0x10
 6458 0530 22000000 		.4byte	.LVL57
 6459 0534 83040000 		.4byte	0x483
 6460 0538 1A       		.uleb128 0x1a
 6461 0539 32000000 		.4byte	.LVL58
 6462 053d 72320000 		.4byte	0x3272
 6463 0541 52050000 		.4byte	0x552
 6464 0545 19       		.uleb128 0x19
 6465 0546 01       		.uleb128 0x1
 6466 0547 50       		.byte	0x50
 6467 0548 02       		.uleb128 0x2
 6468 0549 75       		.byte	0x75
 6469 054a 00       		.sleb128 0
 6470 054b 19       		.uleb128 0x19
 6471 054c 01       		.uleb128 0x1
 6472 054d 51       		.byte	0x51
 6473 054e 02       		.uleb128 0x2
 6474 054f 77       		.byte	0x77
 6475 0550 00       		.sleb128 0
 6476 0551 00       		.byte	0
 6477 0552 18       		.uleb128 0x18
 6478 0553 3A000000 		.4byte	.LVL59
 6479 0557 CA320000 		.4byte	0x32ca
 6480 055b 19       		.uleb128 0x19
 6481 055c 01       		.uleb128 0x1
 6482 055d 50       		.byte	0x50
 6483 055e 02       		.uleb128 0x2
 6484 055f 77       		.byte	0x77
 6485 0560 00       		.sleb128 0
 6486 0561 00       		.byte	0
 6487 0562 00       		.byte	0
 6488 0563 00       		.byte	0
 6489 0564 1F       		.uleb128 0x1f
ARM GAS  C:\Users\FRANKL~1\AppData\Local\Temp\ccXJlYBQ.s 			page 147


 6490 0565 23040000 		.4byte	.LASF42
 6491 0569 02       		.byte	0x2
 6492 056a 31       		.byte	0x31
 6493 056b 00000000 		.4byte	.LFB70
 6494 056f 32000000 		.4byte	.LFE70-.LFB70
 6495 0573 01       		.uleb128 0x1
 6496 0574 9C       		.byte	0x9c
 6497 0575 B9050000 		.4byte	0x5b9
 6498 0579 20       		.uleb128 0x20
 6499 057a A00B0000 		.4byte	.LASF43
 6500 057e 02       		.byte	0x2
 6501 057f 31       		.byte	0x31
 6502 0580 B9050000 		.4byte	0x5b9
 6503 0584 01       		.uleb128 0x1
 6504 0585 50       		.byte	0x50
 6505 0586 13       		.uleb128 0x13
 6506 0587 0A000000 		.4byte	.LBB10
 6507 058b 16000000 		.4byte	.LBE10-.LBB10
 6508 058f A1050000 		.4byte	0x5a1
 6509 0593 1E       		.uleb128 0x1e
 6510 0594 6900     		.ascii	"i\000"
 6511 0596 02       		.byte	0x2
 6512 0597 35       		.byte	0x35
 6513 0598 C1000000 		.4byte	0xc1
 6514 059c 4F020000 		.4byte	.LLST15
 6515 05a0 00       		.byte	0
 6516 05a1 17       		.uleb128 0x17
 6517 05a2 20000000 		.4byte	.LBB11
 6518 05a6 10000000 		.4byte	.LBE11-.LBB11
 6519 05aa 1E       		.uleb128 0x1e
 6520 05ab 6900     		.ascii	"i\000"
 6521 05ad 02       		.byte	0x2
 6522 05ae 38       		.byte	0x38
 6523 05af C1000000 		.4byte	0xc1
 6524 05b3 79020000 		.4byte	.LLST16
 6525 05b7 00       		.byte	0
 6526 05b8 00       		.byte	0
 6527 05b9 05       		.uleb128 0x5
 6528 05ba 04       		.byte	0x4
 6529 05bb 60010000 		.4byte	0x160
 6530 05bf 21       		.uleb128 0x21
 6531 05c0 D1010000 		.4byte	.LASF44
 6532 05c4 02       		.byte	0x2
 6533 05c5 3D       		.byte	0x3d
 6534 05c6 00000000 		.4byte	.LFB71
 6535 05ca 90010000 		.4byte	.LFE71-.LFB71
 6536 05ce 01       		.uleb128 0x1
 6537 05cf 9C       		.byte	0x9c
 6538 05d0 0D080000 		.4byte	0x80d
 6539 05d4 1C       		.uleb128 0x1c
 6540 05d5 F90B0000 		.4byte	.LASF45
 6541 05d9 02       		.byte	0x2
 6542 05da 3D       		.byte	0x3d
 6543 05db B5000000 		.4byte	0xb5
 6544 05df 97020000 		.4byte	.LLST17
 6545 05e3 0F       		.uleb128 0xf
 6546 05e4 A00B0000 		.4byte	.LASF43
ARM GAS  C:\Users\FRANKL~1\AppData\Local\Temp\ccXJlYBQ.s 			page 148


 6547 05e8 02       		.byte	0x2
 6548 05e9 42       		.byte	0x42
 6549 05ea B9050000 		.4byte	0x5b9
 6550 05ee B8020000 		.4byte	.LLST18
 6551 05f2 13       		.uleb128 0x13
 6552 05f3 44000000 		.4byte	.LBB12
 6553 05f7 76000000 		.4byte	.LBE12-.LBB12
 6554 05fb 64060000 		.4byte	0x664
 6555 05ff 1E       		.uleb128 0x1e
 6556 0600 6900     		.ascii	"i\000"
 6557 0602 02       		.byte	0x2
 6558 0603 46       		.byte	0x46
 6559 0604 CD000000 		.4byte	0xcd
 6560 0608 EC020000 		.4byte	.LLST19
 6561 060c 10       		.uleb128 0x10
 6562 060d 4C000000 		.4byte	.LVL82
 6563 0611 D5320000 		.4byte	0x32d5
 6564 0615 1A       		.uleb128 0x1a
 6565 0616 8A000000 		.4byte	.LVL84
 6566 061a CA320000 		.4byte	0x32ca
 6567 061e 29060000 		.4byte	0x629
 6568 0622 19       		.uleb128 0x19
 6569 0623 01       		.uleb128 0x1
 6570 0624 50       		.byte	0x50
 6571 0625 02       		.uleb128 0x2
 6572 0626 75       		.byte	0x75
 6573 0627 00       		.sleb128 0
 6574 0628 00       		.byte	0
 6575 0629 1A       		.uleb128 0x1a
 6576 062a 92000000 		.4byte	.LVL85
 6577 062e 80030000 		.4byte	0x380
 6578 0632 3D060000 		.4byte	0x63d
 6579 0636 19       		.uleb128 0x19
 6580 0637 01       		.uleb128 0x1
 6581 0638 50       		.byte	0x50
 6582 0639 02       		.uleb128 0x2
 6583 063a 75       		.byte	0x75
 6584 063b 00       		.sleb128 0
 6585 063c 00       		.byte	0
 6586 063d 1A       		.uleb128 0x1a
 6587 063e 98000000 		.4byte	.LVL86
 6588 0642 E0320000 		.4byte	0x32e0
 6589 0646 51060000 		.4byte	0x651
 6590 064a 19       		.uleb128 0x19
 6591 064b 01       		.uleb128 0x1
 6592 064c 50       		.byte	0x50
 6593 064d 02       		.uleb128 0x2
 6594 064e 75       		.byte	0x75
 6595 064f 00       		.sleb128 0
 6596 0650 00       		.byte	0
 6597 0651 10       		.uleb128 0x10
 6598 0652 9C000000 		.4byte	.LVL87
 6599 0656 EB320000 		.4byte	0x32eb
 6600 065a 10       		.uleb128 0x10
 6601 065b A0000000 		.4byte	.LVL88
 6602 065f F6320000 		.4byte	0x32f6
 6603 0663 00       		.byte	0
ARM GAS  C:\Users\FRANKL~1\AppData\Local\Temp\ccXJlYBQ.s 			page 149


 6604 0664 1A       		.uleb128 0x1a
 6605 0665 16000000 		.4byte	.LVL74
 6606 0669 01330000 		.4byte	0x3301
 6607 066d 87060000 		.4byte	0x687
 6608 0671 19       		.uleb128 0x19
 6609 0672 01       		.uleb128 0x1
 6610 0673 50       		.byte	0x50
 6611 0674 02       		.uleb128 0x2
 6612 0675 75       		.byte	0x75
 6613 0676 00       		.sleb128 0
 6614 0677 19       		.uleb128 0x19
 6615 0678 01       		.uleb128 0x1
 6616 0679 51       		.byte	0x51
 6617 067a 05       		.uleb128 0x5
 6618 067b 03       		.byte	0x3
 6619 067c 2C000000 		.4byte	.LC5
 6620 0680 19       		.uleb128 0x19
 6621 0681 01       		.uleb128 0x1
 6622 0682 52       		.byte	0x52
 6623 0683 02       		.uleb128 0x2
 6624 0684 78       		.byte	0x78
 6625 0685 00       		.sleb128 0
 6626 0686 00       		.byte	0
 6627 0687 1A       		.uleb128 0x1a
 6628 0688 1C000000 		.4byte	.LVL75
 6629 068c CA320000 		.4byte	0x32ca
 6630 0690 9B060000 		.4byte	0x69b
 6631 0694 19       		.uleb128 0x19
 6632 0695 01       		.uleb128 0x1
 6633 0696 50       		.byte	0x50
 6634 0697 02       		.uleb128 0x2
 6635 0698 75       		.byte	0x75
 6636 0699 00       		.sleb128 0
 6637 069a 00       		.byte	0
 6638 069b 1A       		.uleb128 0x1a
 6639 069c 24000000 		.4byte	.LVL76
 6640 06a0 80030000 		.4byte	0x380
 6641 06a4 AF060000 		.4byte	0x6af
 6642 06a8 19       		.uleb128 0x19
 6643 06a9 01       		.uleb128 0x1
 6644 06aa 50       		.byte	0x50
 6645 06ab 02       		.uleb128 0x2
 6646 06ac 75       		.byte	0x75
 6647 06ad 00       		.sleb128 0
 6648 06ae 00       		.byte	0
 6649 06af 1A       		.uleb128 0x1a
 6650 06b0 2A000000 		.4byte	.LVL77
 6651 06b4 E0320000 		.4byte	0x32e0
 6652 06b8 C3060000 		.4byte	0x6c3
 6653 06bc 19       		.uleb128 0x19
 6654 06bd 01       		.uleb128 0x1
 6655 06be 50       		.byte	0x50
 6656 06bf 02       		.uleb128 0x2
 6657 06c0 75       		.byte	0x75
 6658 06c1 00       		.sleb128 0
 6659 06c2 00       		.byte	0
 6660 06c3 10       		.uleb128 0x10
ARM GAS  C:\Users\FRANKL~1\AppData\Local\Temp\ccXJlYBQ.s 			page 150


 6661 06c4 2E000000 		.4byte	.LVL78
 6662 06c8 0C330000 		.4byte	0x330c
 6663 06cc 1A       		.uleb128 0x1a
 6664 06cd 44000000 		.4byte	.LVL80
 6665 06d1 17330000 		.4byte	0x3317
 6666 06d5 EB060000 		.4byte	0x6eb
 6667 06d9 19       		.uleb128 0x19
 6668 06da 01       		.uleb128 0x1
 6669 06db 51       		.byte	0x51
 6670 06dc 02       		.uleb128 0x2
 6671 06dd 74       		.byte	0x74
 6672 06de 00       		.sleb128 0
 6673 06df 19       		.uleb128 0x19
 6674 06e0 01       		.uleb128 0x1
 6675 06e1 52       		.byte	0x52
 6676 06e2 02       		.uleb128 0x2
 6677 06e3 08       		.byte	0x8
 6678 06e4 7F       		.byte	0x7f
 6679 06e5 19       		.uleb128 0x19
 6680 06e6 01       		.uleb128 0x1
 6681 06e7 53       		.byte	0x53
 6682 06e8 01       		.uleb128 0x1
 6683 06e9 30       		.byte	0x30
 6684 06ea 00       		.byte	0
 6685 06eb 10       		.uleb128 0x10
 6686 06ec BE000000 		.4byte	.LVL92
 6687 06f0 D5320000 		.4byte	0x32d5
 6688 06f4 1A       		.uleb128 0x1a
 6689 06f5 E0000000 		.4byte	.LVL94
 6690 06f9 CA320000 		.4byte	0x32ca
 6691 06fd 08070000 		.4byte	0x708
 6692 0701 19       		.uleb128 0x19
 6693 0702 01       		.uleb128 0x1
 6694 0703 50       		.byte	0x50
 6695 0704 02       		.uleb128 0x2
 6696 0705 75       		.byte	0x75
 6697 0706 00       		.sleb128 0
 6698 0707 00       		.byte	0
 6699 0708 1A       		.uleb128 0x1a
 6700 0709 E8000000 		.4byte	.LVL95
 6701 070d 80030000 		.4byte	0x380
 6702 0711 1C070000 		.4byte	0x71c
 6703 0715 19       		.uleb128 0x19
 6704 0716 01       		.uleb128 0x1
 6705 0717 50       		.byte	0x50
 6706 0718 02       		.uleb128 0x2
 6707 0719 75       		.byte	0x75
 6708 071a 00       		.sleb128 0
 6709 071b 00       		.byte	0
 6710 071c 1A       		.uleb128 0x1a
 6711 071d EE000000 		.4byte	.LVL96
 6712 0721 E0320000 		.4byte	0x32e0
 6713 0725 30070000 		.4byte	0x730
 6714 0729 19       		.uleb128 0x19
 6715 072a 01       		.uleb128 0x1
 6716 072b 50       		.byte	0x50
 6717 072c 02       		.uleb128 0x2
ARM GAS  C:\Users\FRANKL~1\AppData\Local\Temp\ccXJlYBQ.s 			page 151


 6718 072d 75       		.byte	0x75
 6719 072e 00       		.sleb128 0
 6720 072f 00       		.byte	0
 6721 0730 10       		.uleb128 0x10
 6722 0731 F2000000 		.4byte	.LVL97
 6723 0735 D5320000 		.4byte	0x32d5
 6724 0739 1A       		.uleb128 0x1a
 6725 073a 0A010000 		.4byte	.LVL98
 6726 073e CA320000 		.4byte	0x32ca
 6727 0742 4D070000 		.4byte	0x74d
 6728 0746 19       		.uleb128 0x19
 6729 0747 01       		.uleb128 0x1
 6730 0748 50       		.byte	0x50
 6731 0749 02       		.uleb128 0x2
 6732 074a 75       		.byte	0x75
 6733 074b 00       		.sleb128 0
 6734 074c 00       		.byte	0
 6735 074d 1A       		.uleb128 0x1a
 6736 074e 12010000 		.4byte	.LVL99
 6737 0752 80030000 		.4byte	0x380
 6738 0756 61070000 		.4byte	0x761
 6739 075a 19       		.uleb128 0x19
 6740 075b 01       		.uleb128 0x1
 6741 075c 50       		.byte	0x50
 6742 075d 02       		.uleb128 0x2
 6743 075e 75       		.byte	0x75
 6744 075f 00       		.sleb128 0
 6745 0760 00       		.byte	0
 6746 0761 1A       		.uleb128 0x1a
 6747 0762 18010000 		.4byte	.LVL100
 6748 0766 E0320000 		.4byte	0x32e0
 6749 076a 75070000 		.4byte	0x775
 6750 076e 19       		.uleb128 0x19
 6751 076f 01       		.uleb128 0x1
 6752 0770 50       		.byte	0x50
 6753 0771 02       		.uleb128 0x2
 6754 0772 75       		.byte	0x75
 6755 0773 00       		.sleb128 0
 6756 0774 00       		.byte	0
 6757 0775 1A       		.uleb128 0x1a
 6758 0776 2A010000 		.4byte	.LVL101
 6759 077a CA320000 		.4byte	0x32ca
 6760 077e 89070000 		.4byte	0x789
 6761 0782 19       		.uleb128 0x19
 6762 0783 01       		.uleb128 0x1
 6763 0784 50       		.byte	0x50
 6764 0785 02       		.uleb128 0x2
 6765 0786 74       		.byte	0x74
 6766 0787 00       		.sleb128 0
 6767 0788 00       		.byte	0
 6768 0789 1A       		.uleb128 0x1a
 6769 078a 32010000 		.4byte	.LVL102
 6770 078e 80030000 		.4byte	0x380
 6771 0792 9D070000 		.4byte	0x79d
 6772 0796 19       		.uleb128 0x19
 6773 0797 01       		.uleb128 0x1
 6774 0798 50       		.byte	0x50
ARM GAS  C:\Users\FRANKL~1\AppData\Local\Temp\ccXJlYBQ.s 			page 152


 6775 0799 02       		.uleb128 0x2
 6776 079a 74       		.byte	0x74
 6777 079b 00       		.sleb128 0
 6778 079c 00       		.byte	0
 6779 079d 1A       		.uleb128 0x1a
 6780 079e 38010000 		.4byte	.LVL103
 6781 07a2 E0320000 		.4byte	0x32e0
 6782 07a6 B1070000 		.4byte	0x7b1
 6783 07aa 19       		.uleb128 0x19
 6784 07ab 01       		.uleb128 0x1
 6785 07ac 50       		.byte	0x50
 6786 07ad 02       		.uleb128 0x2
 6787 07ae 74       		.byte	0x74
 6788 07af 00       		.sleb128 0
 6789 07b0 00       		.byte	0
 6790 07b1 1A       		.uleb128 0x1a
 6791 07b2 44010000 		.4byte	.LVL104
 6792 07b6 01330000 		.4byte	0x3301
 6793 07ba D4070000 		.4byte	0x7d4
 6794 07be 19       		.uleb128 0x19
 6795 07bf 01       		.uleb128 0x1
 6796 07c0 50       		.byte	0x50
 6797 07c1 02       		.uleb128 0x2
 6798 07c2 74       		.byte	0x74
 6799 07c3 00       		.sleb128 0
 6800 07c4 19       		.uleb128 0x19
 6801 07c5 01       		.uleb128 0x1
 6802 07c6 51       		.byte	0x51
 6803 07c7 05       		.uleb128 0x5
 6804 07c8 03       		.byte	0x3
 6805 07c9 90000000 		.4byte	.LC10
 6806 07cd 19       		.uleb128 0x19
 6807 07ce 01       		.uleb128 0x1
 6808 07cf 52       		.byte	0x52
 6809 07d0 02       		.uleb128 0x2
 6810 07d1 78       		.byte	0x78
 6811 07d2 00       		.sleb128 0
 6812 07d3 00       		.byte	0
 6813 07d4 1A       		.uleb128 0x1a
 6814 07d5 4A010000 		.4byte	.LVL105
 6815 07d9 CA320000 		.4byte	0x32ca
 6816 07dd E8070000 		.4byte	0x7e8
 6817 07e1 19       		.uleb128 0x19
 6818 07e2 01       		.uleb128 0x1
 6819 07e3 50       		.byte	0x50
 6820 07e4 02       		.uleb128 0x2
 6821 07e5 74       		.byte	0x74
 6822 07e6 00       		.sleb128 0
 6823 07e7 00       		.byte	0
 6824 07e8 1A       		.uleb128 0x1a
 6825 07e9 52010000 		.4byte	.LVL106
 6826 07ed 80030000 		.4byte	0x380
 6827 07f1 FC070000 		.4byte	0x7fc
 6828 07f5 19       		.uleb128 0x19
 6829 07f6 01       		.uleb128 0x1
 6830 07f7 50       		.byte	0x50
 6831 07f8 02       		.uleb128 0x2
ARM GAS  C:\Users\FRANKL~1\AppData\Local\Temp\ccXJlYBQ.s 			page 153


 6832 07f9 74       		.byte	0x74
 6833 07fa 00       		.sleb128 0
 6834 07fb 00       		.byte	0
 6835 07fc 18       		.uleb128 0x18
 6836 07fd 58010000 		.4byte	.LVL107
 6837 0801 E0320000 		.4byte	0x32e0
 6838 0805 19       		.uleb128 0x19
 6839 0806 01       		.uleb128 0x1
 6840 0807 50       		.byte	0x50
 6841 0808 02       		.uleb128 0x2
 6842 0809 74       		.byte	0x74
 6843 080a 00       		.sleb128 0
 6844 080b 00       		.byte	0
 6845 080c 00       		.byte	0
 6846 080d 21       		.uleb128 0x21
 6847 080e BC050000 		.4byte	.LASF46
 6848 0812 02       		.byte	0x2
 6849 0813 72       		.byte	0x72
 6850 0814 00000000 		.4byte	.LFB72
 6851 0818 B6000000 		.4byte	.LFE72-.LFB72
 6852 081c 01       		.uleb128 0x1
 6853 081d 9C       		.byte	0x9c
 6854 081e C8080000 		.4byte	0x8c8
 6855 0822 1C       		.uleb128 0x1c
 6856 0823 A7030000 		.4byte	.LASF47
 6857 0827 02       		.byte	0x2
 6858 0828 72       		.byte	0x72
 6859 0829 C8080000 		.4byte	0x8c8
 6860 082d 0B030000 		.4byte	.LLST20
 6861 0831 1C       		.uleb128 0x1c
 6862 0832 F3090000 		.4byte	.LASF48
 6863 0836 02       		.byte	0x2
 6864 0837 72       		.byte	0x72
 6865 0838 C8080000 		.4byte	0x8c8
 6866 083c 36030000 		.4byte	.LLST21
 6867 0840 1C       		.uleb128 0x1c
 6868 0841 110A0000 		.4byte	.LASF49
 6869 0845 02       		.byte	0x2
 6870 0846 72       		.byte	0x72
 6871 0847 CD000000 		.4byte	0xcd
 6872 084b 55030000 		.4byte	.LLST22
 6873 084f 0F       		.uleb128 0xf
 6874 0850 A90B0000 		.4byte	.LASF50
 6875 0854 02       		.byte	0x2
 6876 0855 73       		.byte	0x73
 6877 0856 F1000000 		.4byte	0xf1
 6878 085a 73030000 		.4byte	.LLST23
 6879 085e 0F       		.uleb128 0xf
 6880 085f 3D040000 		.4byte	.LASF51
 6881 0863 02       		.byte	0x2
 6882 0864 74       		.byte	0x74
 6883 0865 F1000000 		.4byte	0xf1
 6884 0869 A8030000 		.4byte	.LLST24
 6885 086d 22       		.uleb128 0x22
 6886 086e 18000000 		.4byte	.Ldebug_ranges0+0x18
 6887 0872 1E       		.uleb128 0x1e
 6888 0873 6900     		.ascii	"i\000"
ARM GAS  C:\Users\FRANKL~1\AppData\Local\Temp\ccXJlYBQ.s 			page 154


 6889 0875 02       		.byte	0x2
 6890 0876 76       		.byte	0x76
 6891 0877 CD000000 		.4byte	0xcd
 6892 087b DD030000 		.4byte	.LLST25
 6893 087f 17       		.uleb128 0x17
 6894 0880 16000000 		.4byte	.LBB14
 6895 0884 8A000000 		.4byte	.LBE14-.LBB14
 6896 0888 0F       		.uleb128 0xf
 6897 0889 30020000 		.4byte	.LASF52
 6898 088d 02       		.byte	0x2
 6899 088e 7A       		.byte	0x7a
 6900 088f F1000000 		.4byte	0xf1
 6901 0893 FC030000 		.4byte	.LLST26
 6902 0897 10       		.uleb128 0x10
 6903 0898 1A000000 		.4byte	.LVL112
 6904 089c 22330000 		.4byte	0x3322
 6905 08a0 1A       		.uleb128 0x1a
 6906 08a1 20000000 		.4byte	.LVL113
 6907 08a5 2D330000 		.4byte	0x332d
 6908 08a9 B3080000 		.4byte	0x8b3
 6909 08ad 19       		.uleb128 0x19
 6910 08ae 01       		.uleb128 0x1
 6911 08af 50       		.byte	0x50
 6912 08b0 01       		.uleb128 0x1
 6913 08b1 31       		.byte	0x31
 6914 08b2 00       		.byte	0
 6915 08b3 10       		.uleb128 0x10
 6916 08b4 28000000 		.4byte	.LVL114
 6917 08b8 38330000 		.4byte	0x3338
 6918 08bc 10       		.uleb128 0x10
 6919 08bd 2C000000 		.4byte	.LVL115
 6920 08c1 43330000 		.4byte	0x3343
 6921 08c5 00       		.byte	0
 6922 08c6 00       		.byte	0
 6923 08c7 00       		.byte	0
 6924 08c8 05       		.uleb128 0x5
 6925 08c9 04       		.byte	0x4
 6926 08ca F1000000 		.4byte	0xf1
 6927 08ce 0E       		.uleb128 0xe
 6928 08cf 5D0B0000 		.4byte	.LASF54
 6929 08d3 02       		.byte	0x2
 6930 08d4 84       		.byte	0x84
 6931 08d5 00000000 		.4byte	.LFB73
 6932 08d9 64000000 		.4byte	.LFE73-.LFB73
 6933 08dd 01       		.uleb128 0x1
 6934 08de 9C       		.byte	0x9c
 6935 08df D4090000 		.4byte	0x9d4
 6936 08e3 13       		.uleb128 0x13
 6937 08e4 10000000 		.4byte	.LBB16
 6938 08e8 46000000 		.4byte	.LBE16-.LBB16
 6939 08ec AF090000 		.4byte	0x9af
 6940 08f0 0F       		.uleb128 0xf
 6941 08f1 79090000 		.4byte	.LASF55
 6942 08f5 02       		.byte	0x2
 6943 08f6 88       		.byte	0x88
 6944 08f7 C1000000 		.4byte	0xc1
 6945 08fb 1A040000 		.4byte	.LLST27
ARM GAS  C:\Users\FRANKL~1\AppData\Local\Temp\ccXJlYBQ.s 			page 155


 6946 08ff 17       		.uleb128 0x17
 6947 0900 14000000 		.4byte	.LBB17
 6948 0904 3A000000 		.4byte	.LBE17-.LBB17
 6949 0908 23       		.uleb128 0x23
 6950 0909 22090000 		.4byte	.LASF56
 6951 090d 02       		.byte	0x2
 6952 090e 89       		.byte	0x89
 6953 090f F1000000 		.4byte	0xf1
 6954 0913 02       		.uleb128 0x2
 6955 0914 91       		.byte	0x91
 6956 0915 68       		.sleb128 -24
 6957 0916 23       		.uleb128 0x23
 6958 0917 C8040000 		.4byte	.LASF57
 6959 091b 02       		.byte	0x2
 6960 091c 8A       		.byte	0x8a
 6961 091d F1000000 		.4byte	0xf1
 6962 0921 02       		.uleb128 0x2
 6963 0922 91       		.byte	0x91
 6964 0923 6C       		.sleb128 -20
 6965 0924 1A       		.uleb128 0x1a
 6966 0925 24000000 		.4byte	.LVL143
 6967 0929 4E330000 		.4byte	0x334e
 6968 092d 38090000 		.4byte	0x938
 6969 0931 19       		.uleb128 0x19
 6970 0932 01       		.uleb128 0x1
 6971 0933 50       		.byte	0x50
 6972 0934 02       		.uleb128 0x2
 6973 0935 74       		.byte	0x74
 6974 0936 00       		.sleb128 0
 6975 0937 00       		.byte	0
 6976 0938 1A       		.uleb128 0x1a
 6977 0939 2E000000 		.4byte	.LVL144
 6978 093d 0D080000 		.4byte	0x80d
 6979 0941 58090000 		.4byte	0x958
 6980 0945 19       		.uleb128 0x19
 6981 0946 01       		.uleb128 0x1
 6982 0947 50       		.byte	0x50
 6983 0948 02       		.uleb128 0x2
 6984 0949 7D       		.byte	0x7d
 6985 094a 00       		.sleb128 0
 6986 094b 19       		.uleb128 0x19
 6987 094c 01       		.uleb128 0x1
 6988 094d 51       		.byte	0x51
 6989 094e 02       		.uleb128 0x2
 6990 094f 75       		.byte	0x75
 6991 0950 00       		.sleb128 0
 6992 0951 19       		.uleb128 0x19
 6993 0952 01       		.uleb128 0x1
 6994 0953 52       		.byte	0x52
 6995 0954 02       		.uleb128 0x2
 6996 0955 08       		.byte	0x8
 6997 0956 64       		.byte	0x64
 6998 0957 00       		.byte	0
 6999 0958 1A       		.uleb128 0x1a
 7000 0959 3A000000 		.4byte	.LVL145
 7001 095d 01330000 		.4byte	0x3301
 7002 0961 75090000 		.4byte	0x975
ARM GAS  C:\Users\FRANKL~1\AppData\Local\Temp\ccXJlYBQ.s 			page 156


 7003 0965 19       		.uleb128 0x19
 7004 0966 01       		.uleb128 0x1
 7005 0967 50       		.byte	0x50
 7006 0968 02       		.uleb128 0x2
 7007 0969 75       		.byte	0x75
 7008 096a 00       		.sleb128 0
 7009 096b 19       		.uleb128 0x19
 7010 096c 01       		.uleb128 0x1
 7011 096d 51       		.byte	0x51
 7012 096e 05       		.uleb128 0x5
 7013 096f 03       		.byte	0x3
 7014 0970 A8000000 		.4byte	.LC11
 7015 0974 00       		.byte	0
 7016 0975 1A       		.uleb128 0x1a
 7017 0976 40000000 		.4byte	.LVL146
 7018 097a CA320000 		.4byte	0x32ca
 7019 097e 89090000 		.4byte	0x989
 7020 0982 19       		.uleb128 0x19
 7021 0983 01       		.uleb128 0x1
 7022 0984 50       		.byte	0x50
 7023 0985 02       		.uleb128 0x2
 7024 0986 75       		.byte	0x75
 7025 0987 00       		.sleb128 0
 7026 0988 00       		.byte	0
 7027 0989 1A       		.uleb128 0x1a
 7028 098a 48000000 		.4byte	.LVL147
 7029 098e 80030000 		.4byte	0x380
 7030 0992 9D090000 		.4byte	0x99d
 7031 0996 19       		.uleb128 0x19
 7032 0997 01       		.uleb128 0x1
 7033 0998 50       		.byte	0x50
 7034 0999 02       		.uleb128 0x2
 7035 099a 75       		.byte	0x75
 7036 099b 00       		.sleb128 0
 7037 099c 00       		.byte	0
 7038 099d 18       		.uleb128 0x18
 7039 099e 4E000000 		.4byte	.LVL148
 7040 09a2 E0320000 		.4byte	0x32e0
 7041 09a6 19       		.uleb128 0x19
 7042 09a7 01       		.uleb128 0x1
 7043 09a8 50       		.byte	0x50
 7044 09a9 02       		.uleb128 0x2
 7045 09aa 75       		.byte	0x75
 7046 09ab 00       		.sleb128 0
 7047 09ac 00       		.byte	0
 7048 09ad 00       		.byte	0
 7049 09ae 00       		.byte	0
 7050 09af 1A       		.uleb128 0x1a
 7051 09b0 0A000000 		.4byte	.LVL140
 7052 09b4 59330000 		.4byte	0x3359
 7053 09b8 C3090000 		.4byte	0x9c3
 7054 09bc 19       		.uleb128 0x19
 7055 09bd 01       		.uleb128 0x1
 7056 09be 50       		.byte	0x50
 7057 09bf 02       		.uleb128 0x2
 7058 09c0 08       		.byte	0x8
 7059 09c1 5A       		.byte	0x5a
ARM GAS  C:\Users\FRANKL~1\AppData\Local\Temp\ccXJlYBQ.s 			page 157


 7060 09c2 00       		.byte	0
 7061 09c3 18       		.uleb128 0x18
 7062 09c4 10000000 		.4byte	.LVL141
 7063 09c8 4E330000 		.4byte	0x334e
 7064 09cc 19       		.uleb128 0x19
 7065 09cd 01       		.uleb128 0x1
 7066 09ce 50       		.byte	0x50
 7067 09cf 02       		.uleb128 0x2
 7068 09d0 09       		.byte	0x9
 7069 09d1 FE       		.byte	0xfe
 7070 09d2 00       		.byte	0
 7071 09d3 00       		.byte	0
 7072 09d4 0E       		.uleb128 0xe
 7073 09d5 DE0A0000 		.4byte	.LASF58
 7074 09d9 02       		.byte	0x2
 7075 09da 98       		.byte	0x98
 7076 09db 00000000 		.4byte	.LFB74
 7077 09df 3C000000 		.4byte	.LFE74-.LFB74
 7078 09e3 01       		.uleb128 0x1
 7079 09e4 9C       		.byte	0x9c
 7080 09e5 1C0A0000 		.4byte	0xa1c
 7081 09e9 17       		.uleb128 0x17
 7082 09ea 02000000 		.4byte	.LBB18
 7083 09ee 18000000 		.4byte	.LBE18-.LBB18
 7084 09f2 1E       		.uleb128 0x1e
 7085 09f3 6900     		.ascii	"i\000"
 7086 09f5 02       		.byte	0x2
 7087 09f6 99       		.byte	0x99
 7088 09f7 B5000000 		.4byte	0xb5
 7089 09fb 44040000 		.4byte	.LLST28
 7090 09ff 18       		.uleb128 0x18
 7091 0a00 12000000 		.4byte	.LVL154
 7092 0a04 64050000 		.4byte	0x564
 7093 0a08 19       		.uleb128 0x19
 7094 0a09 01       		.uleb128 0x1
 7095 0a0a 50       		.byte	0x50
 7096 0a0b 0D       		.uleb128 0xd
 7097 0a0c 74       		.byte	0x74
 7098 0a0d 00       		.sleb128 0
 7099 0a0e 38       		.byte	0x38
 7100 0a0f 24       		.byte	0x24
 7101 0a10 74       		.byte	0x74
 7102 0a11 00       		.sleb128 0
 7103 0a12 1C       		.byte	0x1c
 7104 0a13 03       		.byte	0x3
 7105 0a14 00000000 		.4byte	selectors
 7106 0a18 22       		.byte	0x22
 7107 0a19 00       		.byte	0
 7108 0a1a 00       		.byte	0
 7109 0a1b 00       		.byte	0
 7110 0a1c 1F       		.uleb128 0x1f
 7111 0a1d 4E010000 		.4byte	.LASF59
 7112 0a21 02       		.byte	0x2
 7113 0a22 A1       		.byte	0xa1
 7114 0a23 00000000 		.4byte	.LFB75
 7115 0a27 2C000000 		.4byte	.LFE75-.LFB75
 7116 0a2b 01       		.uleb128 0x1
ARM GAS  C:\Users\FRANKL~1\AppData\Local\Temp\ccXJlYBQ.s 			page 158


 7117 0a2c 9C       		.byte	0x9c
 7118 0a2d 590A0000 		.4byte	0xa59
 7119 0a31 1C       		.uleb128 0x1c
 7120 0a32 B40B0000 		.4byte	.LASF60
 7121 0a36 02       		.byte	0x2
 7122 0a37 A1       		.byte	0xa1
 7123 0a38 B5000000 		.4byte	0xb5
 7124 0a3c 6E040000 		.4byte	.LLST29
 7125 0a40 1C       		.uleb128 0x1c
 7126 0a41 930B0000 		.4byte	.LASF61
 7127 0a45 02       		.byte	0x2
 7128 0a46 A1       		.byte	0xa1
 7129 0a47 B5000000 		.4byte	0xb5
 7130 0a4b 9A040000 		.4byte	.LLST30
 7131 0a4f 10       		.uleb128 0x10
 7132 0a50 24000000 		.4byte	.LVL163
 7133 0a54 BF050000 		.4byte	0x5bf
 7134 0a58 00       		.byte	0
 7135 0a59 1F       		.uleb128 0x1f
 7136 0a5a 7D010000 		.4byte	.LASF62
 7137 0a5e 02       		.byte	0x2
 7138 0a5f AC       		.byte	0xac
 7139 0a60 00000000 		.4byte	.LFB76
 7140 0a64 32000000 		.4byte	.LFE76-.LFB76
 7141 0a68 01       		.uleb128 0x1
 7142 0a69 9C       		.byte	0x9c
 7143 0a6a A50A0000 		.4byte	0xaa5
 7144 0a6e 1C       		.uleb128 0x1c
 7145 0a6f 64020000 		.4byte	.LASF63
 7146 0a73 02       		.byte	0x2
 7147 0a74 AC       		.byte	0xac
 7148 0a75 B5000000 		.4byte	0xb5
 7149 0a79 CA040000 		.4byte	.LLST31
 7150 0a7d 1C       		.uleb128 0x1c
 7151 0a7e 930B0000 		.4byte	.LASF61
 7152 0a82 02       		.byte	0x2
 7153 0a83 AC       		.byte	0xac
 7154 0a84 B5000000 		.4byte	0xb5
 7155 0a88 01050000 		.4byte	.LLST32
 7156 0a8c 0F       		.uleb128 0xf
 7157 0a8d 780A0000 		.4byte	.LASF64
 7158 0a91 02       		.byte	0x2
 7159 0a92 B3       		.byte	0xb3
 7160 0a93 B5000000 		.4byte	0xb5
 7161 0a97 3E050000 		.4byte	.LLST33
 7162 0a9b 10       		.uleb128 0x10
 7163 0a9c 2E000000 		.4byte	.LVL172
 7164 0aa0 1C0A0000 		.4byte	0xa1c
 7165 0aa4 00       		.byte	0
 7166 0aa5 1F       		.uleb128 0x1f
 7167 0aa6 EF070000 		.4byte	.LASF65
 7168 0aaa 02       		.byte	0x2
 7169 0aab BE       		.byte	0xbe
 7170 0aac 00000000 		.4byte	.LFB77
 7171 0ab0 40000000 		.4byte	.LFE77-.LFB77
 7172 0ab4 01       		.uleb128 0x1
 7173 0ab5 9C       		.byte	0x9c
ARM GAS  C:\Users\FRANKL~1\AppData\Local\Temp\ccXJlYBQ.s 			page 159


 7174 0ab6 F10A0000 		.4byte	0xaf1
 7175 0aba 1C       		.uleb128 0x1c
 7176 0abb 64020000 		.4byte	.LASF63
 7177 0abf 02       		.byte	0x2
 7178 0ac0 BE       		.byte	0xbe
 7179 0ac1 B5000000 		.4byte	0xb5
 7180 0ac5 76050000 		.4byte	.LLST34
 7181 0ac9 1C       		.uleb128 0x1c
 7182 0aca 930B0000 		.4byte	.LASF61
 7183 0ace 02       		.byte	0x2
 7184 0acf BE       		.byte	0xbe
 7185 0ad0 B5000000 		.4byte	0xb5
 7186 0ad4 A2050000 		.4byte	.LLST35
 7187 0ad8 0F       		.uleb128 0xf
 7188 0ad9 780A0000 		.4byte	.LASF64
 7189 0add 02       		.byte	0x2
 7190 0ade C5       		.byte	0xc5
 7191 0adf B5000000 		.4byte	0xb5
 7192 0ae3 D2050000 		.4byte	.LLST36
 7193 0ae7 10       		.uleb128 0x10
 7194 0ae8 38000000 		.4byte	.LVL184
 7195 0aec BF050000 		.4byte	0x5bf
 7196 0af0 00       		.byte	0
 7197 0af1 1F       		.uleb128 0x1f
 7198 0af2 E7030000 		.4byte	.LASF66
 7199 0af6 02       		.byte	0x2
 7200 0af7 D2       		.byte	0xd2
 7201 0af8 00000000 		.4byte	.LFB78
 7202 0afc 40000000 		.4byte	.LFE78-.LFB78
 7203 0b00 01       		.uleb128 0x1
 7204 0b01 9C       		.byte	0x9c
 7205 0b02 580B0000 		.4byte	0xb58
 7206 0b06 1C       		.uleb128 0x1c
 7207 0b07 64020000 		.4byte	.LASF63
 7208 0b0b 02       		.byte	0x2
 7209 0b0c D2       		.byte	0xd2
 7210 0b0d B5000000 		.4byte	0xb5
 7211 0b11 0A060000 		.4byte	.LLST37
 7212 0b15 17       		.uleb128 0x17
 7213 0b16 06000000 		.4byte	.LBB19
 7214 0b1a 34000000 		.4byte	.LBE19-.LBB19
 7215 0b1e 0F       		.uleb128 0xf
 7216 0b1f 930B0000 		.4byte	.LASF61
 7217 0b23 02       		.byte	0x2
 7218 0b24 D5       		.byte	0xd5
 7219 0b25 B5000000 		.4byte	0xb5
 7220 0b29 36060000 		.4byte	.LLST38
 7221 0b2d 17       		.uleb128 0x17
 7222 0b2e 0A000000 		.4byte	.LBB20
 7223 0b32 28000000 		.4byte	.LBE20-.LBB20
 7224 0b36 0F       		.uleb128 0xf
 7225 0b37 780A0000 		.4byte	.LASF64
 7226 0b3b 02       		.byte	0x2
 7227 0b3c D7       		.byte	0xd7
 7228 0b3d B5000000 		.4byte	0xb5
 7229 0b41 60060000 		.4byte	.LLST39
 7230 0b45 18       		.uleb128 0x18
ARM GAS  C:\Users\FRANKL~1\AppData\Local\Temp\ccXJlYBQ.s 			page 160


 7231 0b46 32000000 		.4byte	.LVL193
 7232 0b4a BF050000 		.4byte	0x5bf
 7233 0b4e 19       		.uleb128 0x19
 7234 0b4f 01       		.uleb128 0x1
 7235 0b50 50       		.byte	0x50
 7236 0b51 02       		.uleb128 0x2
 7237 0b52 74       		.byte	0x74
 7238 0b53 00       		.sleb128 0
 7239 0b54 00       		.byte	0
 7240 0b55 00       		.byte	0
 7241 0b56 00       		.byte	0
 7242 0b57 00       		.byte	0
 7243 0b58 0E       		.uleb128 0xe
 7244 0b59 3F0C0000 		.4byte	.LASF67
 7245 0b5d 02       		.byte	0x2
 7246 0b5e E5       		.byte	0xe5
 7247 0b5f 00000000 		.4byte	.LFB79
 7248 0b63 34000000 		.4byte	.LFE79-.LFB79
 7249 0b67 01       		.uleb128 0x1
 7250 0b68 9C       		.byte	0x9c
 7251 0b69 B00B0000 		.4byte	0xbb0
 7252 0b6d 17       		.uleb128 0x17
 7253 0b6e 02000000 		.4byte	.LBB21
 7254 0b72 2C000000 		.4byte	.LBE21-.LBB21
 7255 0b76 0F       		.uleb128 0xf
 7256 0b77 930B0000 		.4byte	.LASF61
 7257 0b7b 02       		.byte	0x2
 7258 0b7c E6       		.byte	0xe6
 7259 0b7d B5000000 		.4byte	0xb5
 7260 0b81 98060000 		.4byte	.LLST40
 7261 0b85 1D       		.uleb128 0x1d
 7262 0b86 30000000 		.4byte	.Ldebug_ranges0+0x30
 7263 0b8a 9E0B0000 		.4byte	0xb9e
 7264 0b8e 0F       		.uleb128 0xf
 7265 0b8f 64020000 		.4byte	.LASF63
 7266 0b93 02       		.byte	0x2
 7267 0b94 E7       		.byte	0xe7
 7268 0b95 B5000000 		.4byte	0xb5
 7269 0b99 C2060000 		.4byte	.LLST41
 7270 0b9d 00       		.byte	0
 7271 0b9e 18       		.uleb128 0x18
 7272 0b9f 26000000 		.4byte	.LVL203
 7273 0ba3 BF050000 		.4byte	0x5bf
 7274 0ba7 19       		.uleb128 0x19
 7275 0ba8 01       		.uleb128 0x1
 7276 0ba9 50       		.byte	0x50
 7277 0baa 02       		.uleb128 0x2
 7278 0bab 74       		.byte	0x74
 7279 0bac 00       		.sleb128 0
 7280 0bad 00       		.byte	0
 7281 0bae 00       		.byte	0
 7282 0baf 00       		.byte	0
 7283 0bb0 1F       		.uleb128 0x1f
 7284 0bb1 330B0000 		.4byte	.LASF68
 7285 0bb5 02       		.byte	0x2
 7286 0bb6 EF       		.byte	0xef
 7287 0bb7 00000000 		.4byte	.LFB80
ARM GAS  C:\Users\FRANKL~1\AppData\Local\Temp\ccXJlYBQ.s 			page 161


 7288 0bbb 2C000000 		.4byte	.LFE80-.LFB80
 7289 0bbf 01       		.uleb128 0x1
 7290 0bc0 9C       		.byte	0x9c
 7291 0bc1 FB0B0000 		.4byte	0xbfb
 7292 0bc5 1C       		.uleb128 0x1c
 7293 0bc6 930B0000 		.4byte	.LASF61
 7294 0bca 02       		.byte	0x2
 7295 0bcb EF       		.byte	0xef
 7296 0bcc B5000000 		.4byte	0xb5
 7297 0bd0 EB060000 		.4byte	.LLST42
 7298 0bd4 13       		.uleb128 0x13
 7299 0bd5 06000000 		.4byte	.LBB24
 7300 0bd9 1A000000 		.4byte	.LBE24-.LBB24
 7301 0bdd F10B0000 		.4byte	0xbf1
 7302 0be1 0F       		.uleb128 0xf
 7303 0be2 64020000 		.4byte	.LASF63
 7304 0be6 02       		.byte	0x2
 7305 0be7 F2       		.byte	0xf2
 7306 0be8 B5000000 		.4byte	0xb5
 7307 0bec 17070000 		.4byte	.LLST43
 7308 0bf0 00       		.byte	0
 7309 0bf1 10       		.uleb128 0x10
 7310 0bf2 24000000 		.4byte	.LVL213
 7311 0bf6 BF050000 		.4byte	0x5bf
 7312 0bfa 00       		.byte	0
 7313 0bfb 1F       		.uleb128 0x1f
 7314 0bfc 22010000 		.4byte	.LASF69
 7315 0c00 02       		.byte	0x2
 7316 0c01 F9       		.byte	0xf9
 7317 0c02 00000000 		.4byte	.LFB81
 7318 0c06 38000000 		.4byte	.LFE81-.LFB81
 7319 0c0a 01       		.uleb128 0x1
 7320 0c0b 9C       		.byte	0x9c
 7321 0c0c 800C0000 		.4byte	0xc80
 7322 0c10 1C       		.uleb128 0x1c
 7323 0c11 930B0000 		.4byte	.LASF61
 7324 0c15 02       		.byte	0x2
 7325 0c16 F9       		.byte	0xf9
 7326 0c17 B5000000 		.4byte	0xb5
 7327 0c1b 41070000 		.4byte	.LLST44
 7328 0c1f 1A       		.uleb128 0x1a
 7329 0c20 18000000 		.4byte	.LVL216
 7330 0c24 1C0A0000 		.4byte	0xa1c
 7331 0c28 380C0000 		.4byte	0xc38
 7332 0c2c 19       		.uleb128 0x19
 7333 0c2d 01       		.uleb128 0x1
 7334 0c2e 50       		.byte	0x50
 7335 0c2f 02       		.uleb128 0x2
 7336 0c30 08       		.byte	0x8
 7337 0c31 21       		.byte	0x21
 7338 0c32 19       		.uleb128 0x19
 7339 0c33 01       		.uleb128 0x1
 7340 0c34 51       		.byte	0x51
 7341 0c35 01       		.uleb128 0x1
 7342 0c36 31       		.byte	0x31
 7343 0c37 00       		.byte	0
 7344 0c38 1A       		.uleb128 0x1a
ARM GAS  C:\Users\FRANKL~1\AppData\Local\Temp\ccXJlYBQ.s 			page 162


 7345 0c39 22000000 		.4byte	.LVL217
 7346 0c3d 1C0A0000 		.4byte	0xa1c
 7347 0c41 510C0000 		.4byte	0xc51
 7348 0c45 19       		.uleb128 0x19
 7349 0c46 01       		.uleb128 0x1
 7350 0c47 50       		.byte	0x50
 7351 0c48 02       		.uleb128 0x2
 7352 0c49 08       		.byte	0x8
 7353 0c4a 21       		.byte	0x21
 7354 0c4b 19       		.uleb128 0x19
 7355 0c4c 01       		.uleb128 0x1
 7356 0c4d 51       		.byte	0x51
 7357 0c4e 01       		.uleb128 0x1
 7358 0c4f 32       		.byte	0x32
 7359 0c50 00       		.byte	0
 7360 0c51 1A       		.uleb128 0x1a
 7361 0c52 2C000000 		.4byte	.LVL218
 7362 0c56 1C0A0000 		.4byte	0xa1c
 7363 0c5a 6A0C0000 		.4byte	0xc6a
 7364 0c5e 19       		.uleb128 0x19
 7365 0c5f 01       		.uleb128 0x1
 7366 0c60 50       		.byte	0x50
 7367 0c61 02       		.uleb128 0x2
 7368 0c62 08       		.byte	0x8
 7369 0c63 21       		.byte	0x21
 7370 0c64 19       		.uleb128 0x19
 7371 0c65 01       		.uleb128 0x1
 7372 0c66 51       		.byte	0x51
 7373 0c67 01       		.uleb128 0x1
 7374 0c68 33       		.byte	0x33
 7375 0c69 00       		.byte	0
 7376 0c6a 18       		.uleb128 0x18
 7377 0c6b 36000000 		.4byte	.LVL219
 7378 0c6f 1C0A0000 		.4byte	0xa1c
 7379 0c73 19       		.uleb128 0x19
 7380 0c74 01       		.uleb128 0x1
 7381 0c75 50       		.byte	0x50
 7382 0c76 02       		.uleb128 0x2
 7383 0c77 08       		.byte	0x8
 7384 0c78 21       		.byte	0x21
 7385 0c79 19       		.uleb128 0x19
 7386 0c7a 01       		.uleb128 0x1
 7387 0c7b 51       		.byte	0x51
 7388 0c7c 01       		.uleb128 0x1
 7389 0c7d 34       		.byte	0x34
 7390 0c7e 00       		.byte	0
 7391 0c7f 00       		.byte	0
 7392 0c80 24       		.uleb128 0x24
 7393 0c81 9B050000 		.4byte	.LASF70
 7394 0c85 02       		.byte	0x2
 7395 0c86 0301     		.2byte	0x103
 7396 0c88 00000000 		.4byte	.LFB82
 7397 0c8c 16000000 		.4byte	.LFE82-.LFB82
 7398 0c90 01       		.uleb128 0x1
 7399 0c91 9C       		.byte	0x9c
 7400 0c92 BF0C0000 		.4byte	0xcbf
 7401 0c96 17       		.uleb128 0x17
ARM GAS  C:\Users\FRANKL~1\AppData\Local\Temp\ccXJlYBQ.s 			page 163


 7402 0c97 02000000 		.4byte	.LBB25
 7403 0c9b 12000000 		.4byte	.LBE25-.LBB25
 7404 0c9f 16       		.uleb128 0x16
 7405 0ca0 6900     		.ascii	"i\000"
 7406 0ca2 02       		.byte	0x2
 7407 0ca3 0401     		.2byte	0x104
 7408 0ca5 B5000000 		.4byte	0xb5
 7409 0ca9 62070000 		.4byte	.LLST45
 7410 0cad 18       		.uleb128 0x18
 7411 0cae 0C000000 		.4byte	.LVL222
 7412 0cb2 FB0B0000 		.4byte	0xbfb
 7413 0cb6 19       		.uleb128 0x19
 7414 0cb7 01       		.uleb128 0x1
 7415 0cb8 50       		.byte	0x50
 7416 0cb9 02       		.uleb128 0x2
 7417 0cba 74       		.byte	0x74
 7418 0cbb 00       		.sleb128 0
 7419 0cbc 00       		.byte	0
 7420 0cbd 00       		.byte	0
 7421 0cbe 00       		.byte	0
 7422 0cbf 25       		.uleb128 0x25
 7423 0cc0 BD0A0000 		.4byte	.LASF71
 7424 0cc4 02       		.byte	0x2
 7425 0cc5 0901     		.2byte	0x109
 7426 0cc7 00000000 		.4byte	.LFB83
 7427 0ccb 14010000 		.4byte	.LFE83-.LFB83
 7428 0ccf 01       		.uleb128 0x1
 7429 0cd0 9C       		.byte	0x9c
 7430 0cd1 C40D0000 		.4byte	0xdc4
 7431 0cd5 26       		.uleb128 0x26
 7432 0cd6 BD090000 		.4byte	.LASF72
 7433 0cda 02       		.byte	0x2
 7434 0cdb 0901     		.2byte	0x109
 7435 0cdd C40D0000 		.4byte	0xdc4
 7436 0ce1 8C070000 		.4byte	.LLST46
 7437 0ce5 26       		.uleb128 0x26
 7438 0ce6 A4060000 		.4byte	.LASF73
 7439 0cea 02       		.byte	0x2
 7440 0ceb 0901     		.2byte	0x109
 7441 0ced C40D0000 		.4byte	0xdc4
 7442 0cf1 B7070000 		.4byte	.LLST47
 7443 0cf5 26       		.uleb128 0x26
 7444 0cf6 110A0000 		.4byte	.LASF49
 7445 0cfa 02       		.byte	0x2
 7446 0cfb 0901     		.2byte	0x109
 7447 0cfd CD000000 		.4byte	0xcd
 7448 0d01 E2070000 		.4byte	.LLST48
 7449 0d05 14       		.uleb128 0x14
 7450 0d06 A5010000 		.4byte	.LASF74
 7451 0d0a 02       		.byte	0x2
 7452 0d0b 0D01     		.2byte	0x10d
 7453 0d0d F1000000 		.4byte	0xf1
 7454 0d11 02       		.uleb128 0x2
 7455 0d12 91       		.byte	0x91
 7456 0d13 54       		.sleb128 -44
 7457 0d14 14       		.uleb128 0x14
 7458 0d15 4A040000 		.4byte	.LASF75
ARM GAS  C:\Users\FRANKL~1\AppData\Local\Temp\ccXJlYBQ.s 			page 164


 7459 0d19 02       		.byte	0x2
 7460 0d1a 0E01     		.2byte	0x10e
 7461 0d1c F1000000 		.4byte	0xf1
 7462 0d20 02       		.uleb128 0x2
 7463 0d21 91       		.byte	0x91
 7464 0d22 50       		.sleb128 -48
 7465 0d23 15       		.uleb128 0x15
 7466 0d24 6C030000 		.4byte	.LASF76
 7467 0d28 02       		.byte	0x2
 7468 0d29 1101     		.2byte	0x111
 7469 0d2b 25000000 		.4byte	0x25
 7470 0d2f 0E080000 		.4byte	.LLST49
 7471 0d33 15       		.uleb128 0x15
 7472 0d34 D6060000 		.4byte	.LASF77
 7473 0d38 02       		.byte	0x2
 7474 0d39 1301     		.2byte	0x113
 7475 0d3b 25000000 		.4byte	0x25
 7476 0d3f 3C080000 		.4byte	.LLST50
 7477 0d43 15       		.uleb128 0x15
 7478 0d44 850B0000 		.4byte	.LASF78
 7479 0d48 02       		.byte	0x2
 7480 0d49 1401     		.2byte	0x114
 7481 0d4b 25000000 		.4byte	0x25
 7482 0d4f 75080000 		.4byte	.LLST51
 7483 0d53 27       		.uleb128 0x27
 7484 0d54 690A0000 		.4byte	.LASF79
 7485 0d58 02       		.byte	0x2
 7486 0d59 1601     		.2byte	0x116
 7487 0d5b 25000000 		.4byte	0x25
 7488 0d5f 04       		.byte	0x4
 7489 0d60 00409C46 		.4byte	0x469c4000
 7490 0d64 27       		.uleb128 0x27
 7491 0d65 E5020000 		.4byte	.LASF80
 7492 0d69 02       		.byte	0x2
 7493 0d6a 1701     		.2byte	0x117
 7494 0d6c 25000000 		.4byte	0x25
 7495 0d70 04       		.byte	0x4
 7496 0d71 FFE65BAE 		.4byte	0xae5be6ff
 7497 0d75 1D       		.uleb128 0x1d
 7498 0d76 48000000 		.4byte	.Ldebug_ranges0+0x48
 7499 0d7a A80D0000 		.4byte	0xda8
 7500 0d7e 16       		.uleb128 0x16
 7501 0d7f 6900     		.ascii	"i\000"
 7502 0d81 02       		.byte	0x2
 7503 0d82 1D01     		.2byte	0x11d
 7504 0d84 CD000000 		.4byte	0xcd
 7505 0d88 BA080000 		.4byte	.LLST52
 7506 0d8c 18       		.uleb128 0x18
 7507 0d8d 36000000 		.4byte	.LVL232
 7508 0d91 0D080000 		.4byte	0x80d
 7509 0d95 19       		.uleb128 0x19
 7510 0d96 01       		.uleb128 0x1
 7511 0d97 50       		.byte	0x50
 7512 0d98 02       		.uleb128 0x2
 7513 0d99 91       		.byte	0x91
 7514 0d9a 54       		.sleb128 -44
 7515 0d9b 19       		.uleb128 0x19
ARM GAS  C:\Users\FRANKL~1\AppData\Local\Temp\ccXJlYBQ.s 			page 165


 7516 0d9c 01       		.uleb128 0x1
 7517 0d9d 51       		.byte	0x51
 7518 0d9e 02       		.uleb128 0x2
 7519 0d9f 91       		.byte	0x91
 7520 0da0 50       		.sleb128 -48
 7521 0da1 19       		.uleb128 0x19
 7522 0da2 01       		.uleb128 0x1
 7523 0da3 52       		.byte	0x52
 7524 0da4 01       		.uleb128 0x1
 7525 0da5 31       		.byte	0x31
 7526 0da6 00       		.byte	0
 7527 0da7 00       		.byte	0
 7528 0da8 18       		.uleb128 0x18
 7529 0da9 22000000 		.4byte	.LVL230
 7530 0dad 0D080000 		.4byte	0x80d
 7531 0db1 19       		.uleb128 0x19
 7532 0db2 01       		.uleb128 0x1
 7533 0db3 50       		.byte	0x50
 7534 0db4 02       		.uleb128 0x2
 7535 0db5 91       		.byte	0x91
 7536 0db6 54       		.sleb128 -44
 7537 0db7 19       		.uleb128 0x19
 7538 0db8 01       		.uleb128 0x1
 7539 0db9 51       		.byte	0x51
 7540 0dba 02       		.uleb128 0x2
 7541 0dbb 91       		.byte	0x91
 7542 0dbc 50       		.sleb128 -48
 7543 0dbd 19       		.uleb128 0x19
 7544 0dbe 01       		.uleb128 0x1
 7545 0dbf 52       		.byte	0x52
 7546 0dc0 01       		.uleb128 0x1
 7547 0dc1 33       		.byte	0x33
 7548 0dc2 00       		.byte	0
 7549 0dc3 00       		.byte	0
 7550 0dc4 05       		.uleb128 0x5
 7551 0dc5 04       		.byte	0x4
 7552 0dc6 25000000 		.4byte	0x25
 7553 0dca 28       		.uleb128 0x28
 7554 0dcb 60060000 		.4byte	.LASF81
 7555 0dcf 02       		.byte	0x2
 7556 0dd0 3101     		.2byte	0x131
 7557 0dd2 B5000000 		.4byte	0xb5
 7558 0dd6 00000000 		.4byte	.LFB84
 7559 0dda 54000000 		.4byte	.LFE84-.LFB84
 7560 0dde 01       		.uleb128 0x1
 7561 0ddf 9C       		.byte	0x9c
 7562 0de0 1E0E0000 		.4byte	0xe1e
 7563 0de4 14       		.uleb128 0x14
 7564 0de5 14070000 		.4byte	.LASF82
 7565 0de9 02       		.byte	0x2
 7566 0dea 3401     		.2byte	0x134
 7567 0dec 25000000 		.4byte	0x25
 7568 0df0 02       		.uleb128 0x2
 7569 0df1 91       		.byte	0x91
 7570 0df2 74       		.sleb128 -12
 7571 0df3 14       		.uleb128 0x14
 7572 0df4 9A060000 		.4byte	.LASF83
ARM GAS  C:\Users\FRANKL~1\AppData\Local\Temp\ccXJlYBQ.s 			page 166


 7573 0df8 02       		.byte	0x2
 7574 0df9 3501     		.2byte	0x135
 7575 0dfb 25000000 		.4byte	0x25
 7576 0dff 02       		.uleb128 0x2
 7577 0e00 91       		.byte	0x91
 7578 0e01 70       		.sleb128 -16
 7579 0e02 18       		.uleb128 0x18
 7580 0e03 1C000000 		.4byte	.LVL258
 7581 0e07 BF0C0000 		.4byte	0xcbf
 7582 0e0b 19       		.uleb128 0x19
 7583 0e0c 01       		.uleb128 0x1
 7584 0e0d 50       		.byte	0x50
 7585 0e0e 02       		.uleb128 0x2
 7586 0e0f 91       		.byte	0x91
 7587 0e10 74       		.sleb128 -12
 7588 0e11 19       		.uleb128 0x19
 7589 0e12 01       		.uleb128 0x1
 7590 0e13 51       		.byte	0x51
 7591 0e14 02       		.uleb128 0x2
 7592 0e15 91       		.byte	0x91
 7593 0e16 70       		.sleb128 -16
 7594 0e17 19       		.uleb128 0x19
 7595 0e18 01       		.uleb128 0x1
 7596 0e19 52       		.byte	0x52
 7597 0e1a 01       		.uleb128 0x1
 7598 0e1b 33       		.byte	0x33
 7599 0e1c 00       		.byte	0
 7600 0e1d 00       		.byte	0
 7601 0e1e 24       		.uleb128 0x24
 7602 0e1f F4020000 		.4byte	.LASF84
 7603 0e23 02       		.byte	0x2
 7604 0e24 4101     		.2byte	0x141
 7605 0e26 00000000 		.4byte	.LFB85
 7606 0e2a 68000000 		.4byte	.LFE85-.LFB85
 7607 0e2e 01       		.uleb128 0x1
 7608 0e2f 9C       		.byte	0x9c
 7609 0e30 D30E0000 		.4byte	0xed3
 7610 0e34 15       		.uleb128 0x15
 7611 0e35 F4000000 		.4byte	.LASF85
 7612 0e39 02       		.byte	0x2
 7613 0e3a 4201     		.2byte	0x142
 7614 0e3c B5000000 		.4byte	0xb5
 7615 0e40 D9080000 		.4byte	.LLST53
 7616 0e44 15       		.uleb128 0x15
 7617 0e45 BC070000 		.4byte	.LASF86
 7618 0e49 02       		.byte	0x2
 7619 0e4a 4301     		.2byte	0x143
 7620 0e4c B5000000 		.4byte	0xb5
 7621 0e50 F7080000 		.4byte	.LLST54
 7622 0e54 15       		.uleb128 0x15
 7623 0e55 00000000 		.4byte	.LASF87
 7624 0e59 02       		.byte	0x2
 7625 0e5a 4401     		.2byte	0x144
 7626 0e5c D9000000 		.4byte	0xd9
 7627 0e60 15090000 		.4byte	.LLST55
 7628 0e64 13       		.uleb128 0x13
 7629 0e65 1A000000 		.4byte	.LBB28
ARM GAS  C:\Users\FRANKL~1\AppData\Local\Temp\ccXJlYBQ.s 			page 167


 7630 0e69 16000000 		.4byte	.LBE28-.LBB28
 7631 0e6d 9D0E0000 		.4byte	0xe9d
 7632 0e71 16       		.uleb128 0x16
 7633 0e72 6900     		.ascii	"i\000"
 7634 0e74 02       		.byte	0x2
 7635 0e75 4701     		.2byte	0x147
 7636 0e77 B5000000 		.4byte	0xb5
 7637 0e7b 4B090000 		.4byte	.LLST56
 7638 0e7f 1A       		.uleb128 0x1a
 7639 0e80 22000000 		.4byte	.LVL266
 7640 0e84 59330000 		.4byte	0x3359
 7641 0e88 930E0000 		.4byte	0xe93
 7642 0e8c 19       		.uleb128 0x19
 7643 0e8d 01       		.uleb128 0x1
 7644 0e8e 50       		.byte	0x50
 7645 0e8f 02       		.uleb128 0x2
 7646 0e90 74       		.byte	0x74
 7647 0e91 00       		.sleb128 0
 7648 0e92 00       		.byte	0
 7649 0e93 10       		.uleb128 0x10
 7650 0e94 26000000 		.4byte	.LVL267
 7651 0e98 CA0D0000 		.4byte	0xdca
 7652 0e9c 00       		.byte	0
 7653 0e9d 17       		.uleb128 0x17
 7654 0e9e 48000000 		.4byte	.LBB29
 7655 0ea2 20000000 		.4byte	.LBE29-.LBB29
 7656 0ea6 16       		.uleb128 0x16
 7657 0ea7 6900     		.ascii	"i\000"
 7658 0ea9 02       		.byte	0x2
 7659 0eaa 5201     		.2byte	0x152
 7660 0eac B5000000 		.4byte	0xb5
 7661 0eb0 69090000 		.4byte	.LLST57
 7662 0eb4 1A       		.uleb128 0x1a
 7663 0eb5 50000000 		.4byte	.LVL276
 7664 0eb9 4E330000 		.4byte	0x334e
 7665 0ebd C80E0000 		.4byte	0xec8
 7666 0ec1 19       		.uleb128 0x19
 7667 0ec2 01       		.uleb128 0x1
 7668 0ec3 50       		.byte	0x50
 7669 0ec4 02       		.uleb128 0x2
 7670 0ec5 74       		.byte	0x74
 7671 0ec6 00       		.sleb128 0
 7672 0ec7 00       		.byte	0
 7673 0ec8 10       		.uleb128 0x10
 7674 0ec9 54000000 		.4byte	.LVL277
 7675 0ecd CA0D0000 		.4byte	0xdca
 7676 0ed1 00       		.byte	0
 7677 0ed2 00       		.byte	0
 7678 0ed3 12       		.uleb128 0x12
 7679 0ed4 050A0000 		.4byte	.LASF88
 7680 0ed8 02       		.byte	0x2
 7681 0ed9 5B01     		.2byte	0x15b
 7682 0edb 00000000 		.4byte	.LFB86
 7683 0edf 74000000 		.4byte	.LFE86-.LFB86
 7684 0ee3 01       		.uleb128 0x1
 7685 0ee4 9C       		.byte	0x9c
 7686 0ee5 920F0000 		.4byte	0xf92
ARM GAS  C:\Users\FRANKL~1\AppData\Local\Temp\ccXJlYBQ.s 			page 168


 7687 0ee9 26       		.uleb128 0x26
 7688 0eea 44040000 		.4byte	.LASF89
 7689 0eee 02       		.byte	0x2
 7690 0eef 5B01     		.2byte	0x15b
 7691 0ef1 B5000000 		.4byte	0xb5
 7692 0ef5 87090000 		.4byte	.LLST58
 7693 0ef9 15       		.uleb128 0x15
 7694 0efa F4000000 		.4byte	.LASF85
 7695 0efe 02       		.byte	0x2
 7696 0eff 5E01     		.2byte	0x15e
 7697 0f01 B5000000 		.4byte	0xb5
 7698 0f05 A8090000 		.4byte	.LLST59
 7699 0f09 15       		.uleb128 0x15
 7700 0f0a 00000000 		.4byte	.LASF87
 7701 0f0e 02       		.byte	0x2
 7702 0f0f 5F01     		.2byte	0x15f
 7703 0f11 D9000000 		.4byte	0xd9
 7704 0f15 BB090000 		.4byte	.LLST60
 7705 0f19 17       		.uleb128 0x17
 7706 0f1a 22000000 		.4byte	.LBB30
 7707 0f1e 52000000 		.4byte	.LBE30-.LBB30
 7708 0f22 16       		.uleb128 0x16
 7709 0f23 6900     		.ascii	"i\000"
 7710 0f25 02       		.byte	0x2
 7711 0f26 6201     		.2byte	0x162
 7712 0f28 B5000000 		.4byte	0xb5
 7713 0f2c DA090000 		.4byte	.LLST61
 7714 0f30 1D       		.uleb128 0x1d
 7715 0f31 60000000 		.4byte	.Ldebug_ranges0+0x60
 7716 0f35 650F0000 		.4byte	0xf65
 7717 0f39 16       		.uleb128 0x16
 7718 0f3a 6A00     		.ascii	"j\000"
 7719 0f3c 02       		.byte	0x2
 7720 0f3d 6401     		.2byte	0x164
 7721 0f3f B5000000 		.4byte	0xb5
 7722 0f43 040A0000 		.4byte	.LLST62
 7723 0f47 1A       		.uleb128 0x1a
 7724 0f48 34000000 		.4byte	.LVL288
 7725 0f4c 59330000 		.4byte	0x3359
 7726 0f50 5B0F0000 		.4byte	0xf5b
 7727 0f54 19       		.uleb128 0x19
 7728 0f55 01       		.uleb128 0x1
 7729 0f56 50       		.byte	0x50
 7730 0f57 02       		.uleb128 0x2
 7731 0f58 74       		.byte	0x74
 7732 0f59 00       		.sleb128 0
 7733 0f5a 00       		.byte	0
 7734 0f5b 10       		.uleb128 0x10
 7735 0f5c 38000000 		.4byte	.LVL289
 7736 0f60 CA0D0000 		.4byte	0xdca
 7737 0f64 00       		.byte	0
 7738 0f65 10       		.uleb128 0x10
 7739 0f66 2A000000 		.4byte	.LVL286
 7740 0f6a CA0D0000 		.4byte	0xdca
 7741 0f6e 10       		.uleb128 0x10
 7742 0f6f 4A000000 		.4byte	.LVL294
 7743 0f73 CA0D0000 		.4byte	0xdca
ARM GAS  C:\Users\FRANKL~1\AppData\Local\Temp\ccXJlYBQ.s 			page 169


 7744 0f77 10       		.uleb128 0x10
 7745 0f78 50000000 		.4byte	.LVL295
 7746 0f7c 1E0E0000 		.4byte	0xe1e
 7747 0f80 18       		.uleb128 0x18
 7748 0f81 5A000000 		.4byte	.LVL297
 7749 0f85 59330000 		.4byte	0x3359
 7750 0f89 19       		.uleb128 0x19
 7751 0f8a 01       		.uleb128 0x1
 7752 0f8b 50       		.byte	0x50
 7753 0f8c 02       		.uleb128 0x2
 7754 0f8d 77       		.byte	0x77
 7755 0f8e 00       		.sleb128 0
 7756 0f8f 00       		.byte	0
 7757 0f90 00       		.byte	0
 7758 0f91 00       		.byte	0
 7759 0f92 12       		.uleb128 0x12
 7760 0f93 16030000 		.4byte	.LASF90
 7761 0f97 02       		.byte	0x2
 7762 0f98 7301     		.2byte	0x173
 7763 0f9a 00000000 		.4byte	.LFB87
 7764 0f9e 74000000 		.4byte	.LFE87-.LFB87
 7765 0fa2 01       		.uleb128 0x1
 7766 0fa3 9C       		.byte	0x9c
 7767 0fa4 51100000 		.4byte	0x1051
 7768 0fa8 26       		.uleb128 0x26
 7769 0fa9 44040000 		.4byte	.LASF89
 7770 0fad 02       		.byte	0x2
 7771 0fae 7301     		.2byte	0x173
 7772 0fb0 B5000000 		.4byte	0xb5
 7773 0fb4 2D0A0000 		.4byte	.LLST63
 7774 0fb8 15       		.uleb128 0x15
 7775 0fb9 00000000 		.4byte	.LASF87
 7776 0fbd 02       		.byte	0x2
 7777 0fbe 7601     		.2byte	0x176
 7778 0fc0 D9000000 		.4byte	0xd9
 7779 0fc4 4E0A0000 		.4byte	.LLST64
 7780 0fc8 15       		.uleb128 0x15
 7781 0fc9 F4000000 		.4byte	.LASF85
 7782 0fcd 02       		.byte	0x2
 7783 0fce 7701     		.2byte	0x177
 7784 0fd0 B5000000 		.4byte	0xb5
 7785 0fd4 6D0A0000 		.4byte	.LLST65
 7786 0fd8 17       		.uleb128 0x17
 7787 0fd9 22000000 		.4byte	.LBB33
 7788 0fdd 52000000 		.4byte	.LBE33-.LBB33
 7789 0fe1 16       		.uleb128 0x16
 7790 0fe2 6900     		.ascii	"i\000"
 7791 0fe4 02       		.byte	0x2
 7792 0fe5 7A01     		.2byte	0x17a
 7793 0fe7 B5000000 		.4byte	0xb5
 7794 0feb 800A0000 		.4byte	.LLST66
 7795 0fef 1D       		.uleb128 0x1d
 7796 0ff0 78000000 		.4byte	.Ldebug_ranges0+0x78
 7797 0ff4 24100000 		.4byte	0x1024
 7798 0ff8 16       		.uleb128 0x16
 7799 0ff9 6A00     		.ascii	"j\000"
 7800 0ffb 02       		.byte	0x2
ARM GAS  C:\Users\FRANKL~1\AppData\Local\Temp\ccXJlYBQ.s 			page 170


 7801 0ffc 7C01     		.2byte	0x17c
 7802 0ffe B5000000 		.4byte	0xb5
 7803 1002 A90A0000 		.4byte	.LLST67
 7804 1006 1A       		.uleb128 0x1a
 7805 1007 34000000 		.4byte	.LVL308
 7806 100b 4E330000 		.4byte	0x334e
 7807 100f 1A100000 		.4byte	0x101a
 7808 1013 19       		.uleb128 0x19
 7809 1014 01       		.uleb128 0x1
 7810 1015 50       		.byte	0x50
 7811 1016 02       		.uleb128 0x2
 7812 1017 74       		.byte	0x74
 7813 1018 00       		.sleb128 0
 7814 1019 00       		.byte	0
 7815 101a 10       		.uleb128 0x10
 7816 101b 38000000 		.4byte	.LVL309
 7817 101f CA0D0000 		.4byte	0xdca
 7818 1023 00       		.byte	0
 7819 1024 10       		.uleb128 0x10
 7820 1025 2A000000 		.4byte	.LVL306
 7821 1029 CA0D0000 		.4byte	0xdca
 7822 102d 10       		.uleb128 0x10
 7823 102e 4A000000 		.4byte	.LVL314
 7824 1032 CA0D0000 		.4byte	0xdca
 7825 1036 10       		.uleb128 0x10
 7826 1037 50000000 		.4byte	.LVL315
 7827 103b 1E0E0000 		.4byte	0xe1e
 7828 103f 18       		.uleb128 0x18
 7829 1040 5A000000 		.4byte	.LVL317
 7830 1044 4E330000 		.4byte	0x334e
 7831 1048 19       		.uleb128 0x19
 7832 1049 01       		.uleb128 0x1
 7833 104a 50       		.byte	0x50
 7834 104b 02       		.uleb128 0x2
 7835 104c 77       		.byte	0x77
 7836 104d 00       		.sleb128 0
 7837 104e 00       		.byte	0
 7838 104f 00       		.byte	0
 7839 1050 00       		.byte	0
 7840 1051 12       		.uleb128 0x12
 7841 1052 8F050000 		.4byte	.LASF91
 7842 1056 02       		.byte	0x2
 7843 1057 8B01     		.2byte	0x18b
 7844 1059 00000000 		.4byte	.LFB88
 7845 105d 7C000000 		.4byte	.LFE88-.LFB88
 7846 1061 01       		.uleb128 0x1
 7847 1062 9C       		.byte	0x9c
 7848 1063 0B110000 		.4byte	0x110b
 7849 1067 26       		.uleb128 0x26
 7850 1068 44040000 		.4byte	.LASF89
 7851 106c 02       		.byte	0x2
 7852 106d 8B01     		.2byte	0x18b
 7853 106f B5000000 		.4byte	0xb5
 7854 1073 D20A0000 		.4byte	.LLST68
 7855 1077 15       		.uleb128 0x15
 7856 1078 00000000 		.4byte	.LASF87
 7857 107c 02       		.byte	0x2
ARM GAS  C:\Users\FRANKL~1\AppData\Local\Temp\ccXJlYBQ.s 			page 171


 7858 107d 8C01     		.2byte	0x18c
 7859 107f D9000000 		.4byte	0xd9
 7860 1083 F30A0000 		.4byte	.LLST69
 7861 1087 17       		.uleb128 0x17
 7862 1088 1A000000 		.4byte	.LBB36
 7863 108c 62000000 		.4byte	.LBE36-.LBB36
 7864 1090 16       		.uleb128 0x16
 7865 1091 6900     		.ascii	"i\000"
 7866 1093 02       		.byte	0x2
 7867 1094 8F01     		.2byte	0x18f
 7868 1096 B5000000 		.4byte	0xb5
 7869 109a 120B0000 		.4byte	.LLST70
 7870 109e 17       		.uleb128 0x17
 7871 109f 22000000 		.4byte	.LBB37
 7872 10a3 42000000 		.4byte	.LBE37-.LBB37
 7873 10a7 15       		.uleb128 0x15
 7874 10a8 9D010000 		.4byte	.LASF92
 7875 10ac 02       		.byte	0x2
 7876 10ad 9301     		.2byte	0x193
 7877 10af E5000000 		.4byte	0xe5
 7878 10b3 300B0000 		.4byte	.LLST71
 7879 10b7 15       		.uleb128 0x15
 7880 10b8 39090000 		.4byte	.LASF93
 7881 10bc 02       		.byte	0x2
 7882 10bd 9401     		.2byte	0x194
 7883 10bf E5000000 		.4byte	0xe5
 7884 10c3 430B0000 		.4byte	.LLST72
 7885 10c7 10       		.uleb128 0x10
 7886 10c8 26000000 		.4byte	.LVL326
 7887 10cc CA0D0000 		.4byte	0xdca
 7888 10d0 1A       		.uleb128 0x1a
 7889 10d1 58000000 		.4byte	.LVL333
 7890 10d5 64330000 		.4byte	0x3364
 7891 10d9 E4100000 		.4byte	0x10e4
 7892 10dd 19       		.uleb128 0x19
 7893 10de 01       		.uleb128 0x1
 7894 10df 50       		.byte	0x50
 7895 10e0 02       		.uleb128 0x2
 7896 10e1 76       		.byte	0x76
 7897 10e2 00       		.sleb128 0
 7898 10e3 00       		.byte	0
 7899 10e4 1A       		.uleb128 0x1a
 7900 10e5 5E000000 		.4byte	.LVL334
 7901 10e9 4E330000 		.4byte	0x334e
 7902 10ed F8100000 		.4byte	0x10f8
 7903 10f1 19       		.uleb128 0x19
 7904 10f2 01       		.uleb128 0x1
 7905 10f3 50       		.byte	0x50
 7906 10f4 02       		.uleb128 0x2
 7907 10f5 75       		.byte	0x75
 7908 10f6 00       		.sleb128 0
 7909 10f7 00       		.byte	0
 7910 10f8 18       		.uleb128 0x18
 7911 10f9 64000000 		.4byte	.LVL335
 7912 10fd 59330000 		.4byte	0x3359
 7913 1101 19       		.uleb128 0x19
 7914 1102 01       		.uleb128 0x1
ARM GAS  C:\Users\FRANKL~1\AppData\Local\Temp\ccXJlYBQ.s 			page 172


 7915 1103 50       		.byte	0x50
 7916 1104 02       		.uleb128 0x2
 7917 1105 74       		.byte	0x74
 7918 1106 00       		.sleb128 0
 7919 1107 00       		.byte	0
 7920 1108 00       		.byte	0
 7921 1109 00       		.byte	0
 7922 110a 00       		.byte	0
 7923 110b 12       		.uleb128 0x12
 7924 110c B4000000 		.4byte	.LASF94
 7925 1110 02       		.byte	0x2
 7926 1111 A201     		.2byte	0x1a2
 7927 1113 00000000 		.4byte	.LFB89
 7928 1117 64000000 		.4byte	.LFE89-.LFB89
 7929 111b 01       		.uleb128 0x1
 7930 111c 9C       		.byte	0x9c
 7931 111d 84110000 		.4byte	0x1184
 7932 1121 26       		.uleb128 0x26
 7933 1122 44040000 		.4byte	.LASF89
 7934 1126 02       		.byte	0x2
 7935 1127 A201     		.2byte	0x1a2
 7936 1129 E5000000 		.4byte	0xe5
 7937 112d 560B0000 		.4byte	.LLST73
 7938 1131 15       		.uleb128 0x15
 7939 1132 55050000 		.4byte	.LASF95
 7940 1136 02       		.byte	0x2
 7941 1137 A601     		.2byte	0x1a6
 7942 1139 E5000000 		.4byte	0xe5
 7943 113d 830B0000 		.4byte	.LLST74
 7944 1141 10       		.uleb128 0x10
 7945 1142 30000000 		.4byte	.LVL345
 7946 1146 51100000 		.4byte	0x1051
 7947 114a 1A       		.uleb128 0x1a
 7948 114b 36000000 		.4byte	.LVL346
 7949 114f D30E0000 		.4byte	0xed3
 7950 1153 5E110000 		.4byte	0x115e
 7951 1157 19       		.uleb128 0x19
 7952 1158 01       		.uleb128 0x1
 7953 1159 50       		.byte	0x50
 7954 115a 02       		.uleb128 0x2
 7955 115b 09       		.byte	0x9
 7956 115c FF       		.byte	0xff
 7957 115d 00       		.byte	0
 7958 115e 10       		.uleb128 0x10
 7959 115f 48000000 		.4byte	.LVL350
 7960 1163 51100000 		.4byte	0x1051
 7961 1167 1A       		.uleb128 0x1a
 7962 1168 4E000000 		.4byte	.LVL351
 7963 116c D30E0000 		.4byte	0xed3
 7964 1170 7A110000 		.4byte	0x117a
 7965 1174 19       		.uleb128 0x19
 7966 1175 01       		.uleb128 0x1
 7967 1176 50       		.byte	0x50
 7968 1177 01       		.uleb128 0x1
 7969 1178 30       		.byte	0x30
 7970 1179 00       		.byte	0
 7971 117a 10       		.uleb128 0x10
ARM GAS  C:\Users\FRANKL~1\AppData\Local\Temp\ccXJlYBQ.s 			page 173


 7972 117b 56000000 		.4byte	.LVL353
 7973 117f D30E0000 		.4byte	0xed3
 7974 1183 00       		.byte	0
 7975 1184 12       		.uleb128 0x12
 7976 1185 2D090000 		.4byte	.LASF96
 7977 1189 02       		.byte	0x2
 7978 118a B501     		.2byte	0x1b5
 7979 118c 00000000 		.4byte	.LFB90
 7980 1190 64000000 		.4byte	.LFE90-.LFB90
 7981 1194 01       		.uleb128 0x1
 7982 1195 9C       		.byte	0x9c
 7983 1196 FD110000 		.4byte	0x11fd
 7984 119a 26       		.uleb128 0x26
 7985 119b 44040000 		.4byte	.LASF89
 7986 119f 02       		.byte	0x2
 7987 11a0 B501     		.2byte	0x1b5
 7988 11a2 E5000000 		.4byte	0xe5
 7989 11a6 C20B0000 		.4byte	.LLST75
 7990 11aa 15       		.uleb128 0x15
 7991 11ab 55050000 		.4byte	.LASF95
 7992 11af 02       		.byte	0x2
 7993 11b0 B901     		.2byte	0x1b9
 7994 11b2 E5000000 		.4byte	0xe5
 7995 11b6 EF0B0000 		.4byte	.LLST76
 7996 11ba 10       		.uleb128 0x10
 7997 11bb 30000000 		.4byte	.LVL361
 7998 11bf 51100000 		.4byte	0x1051
 7999 11c3 1A       		.uleb128 0x1a
 8000 11c4 36000000 		.4byte	.LVL362
 8001 11c8 920F0000 		.4byte	0xf92
 8002 11cc D7110000 		.4byte	0x11d7
 8003 11d0 19       		.uleb128 0x19
 8004 11d1 01       		.uleb128 0x1
 8005 11d2 50       		.byte	0x50
 8006 11d3 02       		.uleb128 0x2
 8007 11d4 09       		.byte	0x9
 8008 11d5 FF       		.byte	0xff
 8009 11d6 00       		.byte	0
 8010 11d7 10       		.uleb128 0x10
 8011 11d8 48000000 		.4byte	.LVL366
 8012 11dc 51100000 		.4byte	0x1051
 8013 11e0 1A       		.uleb128 0x1a
 8014 11e1 4E000000 		.4byte	.LVL367
 8015 11e5 920F0000 		.4byte	0xf92
 8016 11e9 F3110000 		.4byte	0x11f3
 8017 11ed 19       		.uleb128 0x19
 8018 11ee 01       		.uleb128 0x1
 8019 11ef 50       		.byte	0x50
 8020 11f0 01       		.uleb128 0x1
 8021 11f1 30       		.byte	0x30
 8022 11f2 00       		.byte	0
 8023 11f3 10       		.uleb128 0x10
 8024 11f4 56000000 		.4byte	.LVL369
 8025 11f8 920F0000 		.4byte	0xf92
 8026 11fc 00       		.byte	0
 8027 11fd 25       		.uleb128 0x25
 8028 11fe 71090000 		.4byte	.LASF97
ARM GAS  C:\Users\FRANKL~1\AppData\Local\Temp\ccXJlYBQ.s 			page 174


 8029 1202 02       		.byte	0x2
 8030 1203 C801     		.2byte	0x1c8
 8031 1205 00000000 		.4byte	.LFB91
 8032 1209 38000000 		.4byte	.LFE91-.LFB91
 8033 120d 01       		.uleb128 0x1
 8034 120e 9C       		.byte	0x9c
 8035 120f 2D120000 		.4byte	0x122d
 8036 1213 26       		.uleb128 0x26
 8037 1214 A5010000 		.4byte	.LASF74
 8038 1218 02       		.byte	0x2
 8039 1219 C801     		.2byte	0x1c8
 8040 121b 25000000 		.4byte	0x25
 8041 121f 2E0C0000 		.4byte	.LLST77
 8042 1223 10       		.uleb128 0x10
 8043 1224 24000000 		.4byte	.LVL376
 8044 1228 84110000 		.4byte	0x1184
 8045 122c 00       		.byte	0
 8046 122d 25       		.uleb128 0x25
 8047 122e 54040000 		.4byte	.LASF98
 8048 1232 02       		.byte	0x2
 8049 1233 CC01     		.2byte	0x1cc
 8050 1235 00000000 		.4byte	.LFB92
 8051 1239 38000000 		.4byte	.LFE92-.LFB92
 8052 123d 01       		.uleb128 0x1
 8053 123e 9C       		.byte	0x9c
 8054 123f 5D120000 		.4byte	0x125d
 8055 1243 26       		.uleb128 0x26
 8056 1244 A5010000 		.4byte	.LASF74
 8057 1248 02       		.byte	0x2
 8058 1249 CC01     		.2byte	0x1cc
 8059 124b 25000000 		.4byte	0x25
 8060 124f 510C0000 		.4byte	.LLST78
 8061 1253 10       		.uleb128 0x10
 8062 1254 24000000 		.4byte	.LVL382
 8063 1258 0B110000 		.4byte	0x110b
 8064 125c 00       		.byte	0
 8065 125d 25       		.uleb128 0x25
 8066 125e 52080000 		.4byte	.LASF99
 8067 1262 02       		.byte	0x2
 8068 1263 D001     		.2byte	0x1d0
 8069 1265 00000000 		.4byte	.LFB93
 8070 1269 14000000 		.4byte	.LFE93-.LFB93
 8071 126d 01       		.uleb128 0x1
 8072 126e 9C       		.byte	0x9c
 8073 126f 8C120000 		.4byte	0x128c
 8074 1273 29       		.uleb128 0x29
 8075 1274 6D5600   		.ascii	"mV\000"
 8076 1277 02       		.byte	0x2
 8077 1278 D001     		.2byte	0x1d0
 8078 127a 25000000 		.4byte	0x25
 8079 127e 740C0000 		.4byte	.LLST79
 8080 1282 10       		.uleb128 0x10
 8081 1283 0C000000 		.4byte	.LVL385
 8082 1287 FD110000 		.4byte	0x11fd
 8083 128b 00       		.byte	0
 8084 128c 25       		.uleb128 0x25
 8085 128d 310A0000 		.4byte	.LASF100
ARM GAS  C:\Users\FRANKL~1\AppData\Local\Temp\ccXJlYBQ.s 			page 175


 8086 1291 02       		.byte	0x2
 8087 1292 D401     		.2byte	0x1d4
 8088 1294 00000000 		.4byte	.LFB94
 8089 1298 14000000 		.4byte	.LFE94-.LFB94
 8090 129c 01       		.uleb128 0x1
 8091 129d 9C       		.byte	0x9c
 8092 129e BB120000 		.4byte	0x12bb
 8093 12a2 29       		.uleb128 0x29
 8094 12a3 6D5600   		.ascii	"mV\000"
 8095 12a6 02       		.byte	0x2
 8096 12a7 D401     		.2byte	0x1d4
 8097 12a9 25000000 		.4byte	0x25
 8098 12ad 970C0000 		.4byte	.LLST80
 8099 12b1 10       		.uleb128 0x10
 8100 12b2 0C000000 		.4byte	.LVL388
 8101 12b6 2D120000 		.4byte	0x122d
 8102 12ba 00       		.byte	0
 8103 12bb 28       		.uleb128 0x28
 8104 12bc 4A080000 		.4byte	.LASF101
 8105 12c0 02       		.byte	0x2
 8106 12c1 D801     		.2byte	0x1d8
 8107 12c3 25000000 		.4byte	0x25
 8108 12c7 00000000 		.4byte	.LFB95
 8109 12cb 30000000 		.4byte	.LFE95-.LFB95
 8110 12cf 01       		.uleb128 0x1
 8111 12d0 9C       		.byte	0x9c
 8112 12d1 E4120000 		.4byte	0x12e4
 8113 12d5 14       		.uleb128 0x14
 8114 12d6 D80C0000 		.4byte	.LASF102
 8115 12da 02       		.byte	0x2
 8116 12db D901     		.2byte	0x1d9
 8117 12dd 25000000 		.4byte	0x25
 8118 12e1 01       		.uleb128 0x1
 8119 12e2 50       		.byte	0x50
 8120 12e3 00       		.byte	0
 8121 12e4 28       		.uleb128 0x28
 8122 12e5 AD010000 		.4byte	.LASF103
 8123 12e9 02       		.byte	0x2
 8124 12ea E001     		.2byte	0x1e0
 8125 12ec 25000000 		.4byte	0x25
 8126 12f0 00000000 		.4byte	.LFB96
 8127 12f4 48000000 		.4byte	.LFE96-.LFB96
 8128 12f8 01       		.uleb128 0x1
 8129 12f9 9C       		.byte	0x9c
 8130 12fa 16130000 		.4byte	0x1316
 8131 12fe 14       		.uleb128 0x14
 8132 12ff D80C0000 		.4byte	.LASF102
 8133 1303 02       		.byte	0x2
 8134 1304 E101     		.2byte	0x1e1
 8135 1306 25000000 		.4byte	0x25
 8136 130a 01       		.uleb128 0x1
 8137 130b 50       		.byte	0x50
 8138 130c 10       		.uleb128 0x10
 8139 130d 1C000000 		.4byte	.LVL394
 8140 1311 BB120000 		.4byte	0x12bb
 8141 1315 00       		.byte	0
 8142 1316 28       		.uleb128 0x28
ARM GAS  C:\Users\FRANKL~1\AppData\Local\Temp\ccXJlYBQ.s 			page 176


 8143 1317 D60A0000 		.4byte	.LASF104
 8144 131b 02       		.byte	0x2
 8145 131c E801     		.2byte	0x1e8
 8146 131e 25000000 		.4byte	0x25
 8147 1322 00000000 		.4byte	.LFB97
 8148 1326 48000000 		.4byte	.LFE97-.LFB97
 8149 132a 01       		.uleb128 0x1
 8150 132b 9C       		.byte	0x9c
 8151 132c 48130000 		.4byte	0x1348
 8152 1330 14       		.uleb128 0x14
 8153 1331 D80C0000 		.4byte	.LASF102
 8154 1335 02       		.byte	0x2
 8155 1336 E901     		.2byte	0x1e9
 8156 1338 25000000 		.4byte	0x25
 8157 133c 01       		.uleb128 0x1
 8158 133d 50       		.byte	0x50
 8159 133e 10       		.uleb128 0x10
 8160 133f 1C000000 		.4byte	.LVL400
 8161 1343 BB120000 		.4byte	0x12bb
 8162 1347 00       		.byte	0
 8163 1348 24       		.uleb128 0x24
 8164 1349 B5040000 		.4byte	.LASF105
 8165 134d 02       		.byte	0x2
 8166 134e F001     		.2byte	0x1f0
 8167 1350 00000000 		.4byte	.LFB98
 8168 1354 1C000000 		.4byte	.LFE98-.LFB98
 8169 1358 01       		.uleb128 0x1
 8170 1359 9C       		.byte	0x9c
 8171 135a A7130000 		.4byte	0x13a7
 8172 135e 1A       		.uleb128 0x1a
 8173 135f 08000000 		.4byte	.LVL404
 8174 1363 D30E0000 		.4byte	0xed3
 8175 1367 71130000 		.4byte	0x1371
 8176 136b 19       		.uleb128 0x19
 8177 136c 01       		.uleb128 0x1
 8178 136d 50       		.byte	0x50
 8179 136e 01       		.uleb128 0x1
 8180 136f 30       		.byte	0x30
 8181 1370 00       		.byte	0
 8182 1371 1A       		.uleb128 0x1a
 8183 1372 0E000000 		.4byte	.LVL405
 8184 1376 920F0000 		.4byte	0xf92
 8185 137a 84130000 		.4byte	0x1384
 8186 137e 19       		.uleb128 0x19
 8187 137f 01       		.uleb128 0x1
 8188 1380 50       		.byte	0x50
 8189 1381 01       		.uleb128 0x1
 8190 1382 30       		.byte	0x30
 8191 1383 00       		.byte	0
 8192 1384 1A       		.uleb128 0x1a
 8193 1385 14000000 		.4byte	.LVL406
 8194 1389 59330000 		.4byte	0x3359
 8195 138d 97130000 		.4byte	0x1397
 8196 1391 19       		.uleb128 0x19
 8197 1392 01       		.uleb128 0x1
 8198 1393 50       		.byte	0x50
 8199 1394 01       		.uleb128 0x1
ARM GAS  C:\Users\FRANKL~1\AppData\Local\Temp\ccXJlYBQ.s 			page 177


 8200 1395 30       		.byte	0x30
 8201 1396 00       		.byte	0
 8202 1397 18       		.uleb128 0x18
 8203 1398 1A000000 		.4byte	.LVL407
 8204 139c 4E330000 		.4byte	0x334e
 8205 13a0 19       		.uleb128 0x19
 8206 13a1 01       		.uleb128 0x1
 8207 13a2 50       		.byte	0x50
 8208 13a3 01       		.uleb128 0x1
 8209 13a4 30       		.byte	0x30
 8210 13a5 00       		.byte	0
 8211 13a6 00       		.byte	0
 8212 13a7 2A       		.uleb128 0x2a
 8213 13a8 160D0000 		.4byte	.LASF106
 8214 13ac 02       		.byte	0x2
 8215 13ad F801     		.2byte	0x1f8
 8216 13af 00000000 		.4byte	.LFB99
 8217 13b3 D8000000 		.4byte	.LFE99-.LFB99
 8218 13b7 01       		.uleb128 0x1
 8219 13b8 9C       		.byte	0x9c
 8220 13b9 EF140000 		.4byte	0x14ef
 8221 13bd 14       		.uleb128 0x14
 8222 13be 22090000 		.4byte	.LASF56
 8223 13c2 02       		.byte	0x2
 8224 13c3 F901     		.2byte	0x1f9
 8225 13c5 F1000000 		.4byte	0xf1
 8226 13c9 02       		.uleb128 0x2
 8227 13ca 91       		.byte	0x91
 8228 13cb 5C       		.sleb128 -36
 8229 13cc 14       		.uleb128 0x14
 8230 13cd C8040000 		.4byte	.LASF57
 8231 13d1 02       		.byte	0x2
 8232 13d2 FA01     		.2byte	0x1fa
 8233 13d4 F1000000 		.4byte	0xf1
 8234 13d8 02       		.uleb128 0x2
 8235 13d9 91       		.byte	0x91
 8236 13da 58       		.sleb128 -40
 8237 13db 15       		.uleb128 0x15
 8238 13dc 430A0000 		.4byte	.LASF107
 8239 13e0 02       		.byte	0x2
 8240 13e1 FE01     		.2byte	0x1fe
 8241 13e3 25000000 		.4byte	0x25
 8242 13e7 BA0C0000 		.4byte	.LLST81
 8243 13eb 15       		.uleb128 0x15
 8244 13ec DF050000 		.4byte	.LASF108
 8245 13f0 02       		.byte	0x2
 8246 13f1 0502     		.2byte	0x205
 8247 13f3 25000000 		.4byte	0x25
 8248 13f7 D80C0000 		.4byte	.LLST82
 8249 13fb 15       		.uleb128 0x15
 8250 13fc E4050000 		.4byte	.LASF109
 8251 1400 02       		.byte	0x2
 8252 1401 0602     		.2byte	0x206
 8253 1403 25000000 		.4byte	0x25
 8254 1407 F60C0000 		.4byte	.LLST83
 8255 140b 1A       		.uleb128 0x1a
 8256 140c 18000000 		.4byte	.LVL408
ARM GAS  C:\Users\FRANKL~1\AppData\Local\Temp\ccXJlYBQ.s 			page 178


 8257 1410 0D080000 		.4byte	0x80d
 8258 1414 2B140000 		.4byte	0x142b
 8259 1418 19       		.uleb128 0x19
 8260 1419 01       		.uleb128 0x1
 8261 141a 50       		.byte	0x50
 8262 141b 02       		.uleb128 0x2
 8263 141c 91       		.byte	0x91
 8264 141d 5C       		.sleb128 -36
 8265 141e 19       		.uleb128 0x19
 8266 141f 01       		.uleb128 0x1
 8267 1420 51       		.byte	0x51
 8268 1421 02       		.uleb128 0x2
 8269 1422 91       		.byte	0x91
 8270 1423 58       		.sleb128 -40
 8271 1424 19       		.uleb128 0x19
 8272 1425 01       		.uleb128 0x1
 8273 1426 52       		.byte	0x52
 8274 1427 02       		.uleb128 0x2
 8275 1428 08       		.byte	0x8
 8276 1429 64       		.byte	0x64
 8277 142a 00       		.byte	0
 8278 142b 10       		.uleb128 0x10
 8279 142c 32000000 		.4byte	.LVL413
 8280 1430 6F330000 		.4byte	0x336f
 8281 1434 10       		.uleb128 0x10
 8282 1435 36000000 		.4byte	.LVL414
 8283 1439 7A330000 		.4byte	0x337a
 8284 143d 1A       		.uleb128 0x1a
 8285 143e 3C000000 		.4byte	.LVL415
 8286 1442 85330000 		.4byte	0x3385
 8287 1446 50140000 		.4byte	0x1450
 8288 144a 19       		.uleb128 0x19
 8289 144b 01       		.uleb128 0x1
 8290 144c 50       		.byte	0x50
 8291 144d 01       		.uleb128 0x1
 8292 144e 31       		.byte	0x31
 8293 144f 00       		.byte	0
 8294 1450 1A       		.uleb128 0x1a
 8295 1451 46000000 		.4byte	.LVL416
 8296 1455 90330000 		.4byte	0x3390
 8297 1459 63140000 		.4byte	0x1463
 8298 145d 19       		.uleb128 0x19
 8299 145e 01       		.uleb128 0x1
 8300 145f 50       		.byte	0x50
 8301 1460 01       		.uleb128 0x1
 8302 1461 31       		.byte	0x31
 8303 1462 00       		.byte	0
 8304 1463 10       		.uleb128 0x10
 8305 1464 4E000000 		.4byte	.LVL417
 8306 1468 9B330000 		.4byte	0x339b
 8307 146c 10       		.uleb128 0x10
 8308 146d 52000000 		.4byte	.LVL418
 8309 1471 A6330000 		.4byte	0x33a6
 8310 1475 10       		.uleb128 0x10
 8311 1476 58000000 		.4byte	.LVL420
 8312 147a B1330000 		.4byte	0x33b1
 8313 147e 10       		.uleb128 0x10
ARM GAS  C:\Users\FRANKL~1\AppData\Local\Temp\ccXJlYBQ.s 			page 179


 8314 147f 5C000000 		.4byte	.LVL421
 8315 1483 BC330000 		.4byte	0x33bc
 8316 1487 10       		.uleb128 0x10
 8317 1488 62000000 		.4byte	.LVL423
 8318 148c E4120000 		.4byte	0x12e4
 8319 1490 10       		.uleb128 0x10
 8320 1491 68000000 		.4byte	.LVL424
 8321 1495 16130000 		.4byte	0x1316
 8322 1499 1A       		.uleb128 0x1a
 8323 149a AA000000 		.4byte	.LVL431
 8324 149e 01330000 		.4byte	0x3301
 8325 14a2 B6140000 		.4byte	0x14b6
 8326 14a6 19       		.uleb128 0x19
 8327 14a7 01       		.uleb128 0x1
 8328 14a8 50       		.byte	0x50
 8329 14a9 02       		.uleb128 0x2
 8330 14aa 74       		.byte	0x74
 8331 14ab 00       		.sleb128 0
 8332 14ac 19       		.uleb128 0x19
 8333 14ad 01       		.uleb128 0x1
 8334 14ae 51       		.byte	0x51
 8335 14af 05       		.uleb128 0x5
 8336 14b0 03       		.byte	0x3
 8337 14b1 B0000000 		.4byte	.LC12
 8338 14b5 00       		.byte	0
 8339 14b6 1A       		.uleb128 0x1a
 8340 14b7 B0000000 		.4byte	.LVL432
 8341 14bb CA320000 		.4byte	0x32ca
 8342 14bf CA140000 		.4byte	0x14ca
 8343 14c3 19       		.uleb128 0x19
 8344 14c4 01       		.uleb128 0x1
 8345 14c5 50       		.byte	0x50
 8346 14c6 02       		.uleb128 0x2
 8347 14c7 74       		.byte	0x74
 8348 14c8 00       		.sleb128 0
 8349 14c9 00       		.byte	0
 8350 14ca 1A       		.uleb128 0x1a
 8351 14cb B8000000 		.4byte	.LVL433
 8352 14cf 80030000 		.4byte	0x380
 8353 14d3 DE140000 		.4byte	0x14de
 8354 14d7 19       		.uleb128 0x19
 8355 14d8 01       		.uleb128 0x1
 8356 14d9 50       		.byte	0x50
 8357 14da 02       		.uleb128 0x2
 8358 14db 74       		.byte	0x74
 8359 14dc 00       		.sleb128 0
 8360 14dd 00       		.byte	0
 8361 14de 18       		.uleb128 0x18
 8362 14df BE000000 		.4byte	.LVL434
 8363 14e3 E0320000 		.4byte	0x32e0
 8364 14e7 19       		.uleb128 0x19
 8365 14e8 01       		.uleb128 0x1
 8366 14e9 50       		.byte	0x50
 8367 14ea 02       		.uleb128 0x2
 8368 14eb 74       		.byte	0x74
 8369 14ec 00       		.sleb128 0
 8370 14ed 00       		.byte	0
ARM GAS  C:\Users\FRANKL~1\AppData\Local\Temp\ccXJlYBQ.s 			page 180


 8371 14ee 00       		.byte	0
 8372 14ef 12       		.uleb128 0x12
 8373 14f0 A00A0000 		.4byte	.LASF110
 8374 14f4 02       		.byte	0x2
 8375 14f5 0D02     		.2byte	0x20d
 8376 14f7 00000000 		.4byte	.LFB100
 8377 14fb 14000000 		.4byte	.LFE100-.LFB100
 8378 14ff 01       		.uleb128 0x1
 8379 1500 9C       		.byte	0x9c
 8380 1501 35150000 		.4byte	0x1535
 8381 1505 29       		.uleb128 0x29
 8382 1506 6E00     		.ascii	"n\000"
 8383 1508 02       		.byte	0x2
 8384 1509 0D02     		.2byte	0x20d
 8385 150b CD000000 		.4byte	0xcd
 8386 150f 140D0000 		.4byte	.LLST84
 8387 1513 17       		.uleb128 0x17
 8388 1514 04000000 		.4byte	.LBB38
 8389 1518 0E000000 		.4byte	.LBE38-.LBB38
 8390 151c 16       		.uleb128 0x16
 8391 151d 6900     		.ascii	"i\000"
 8392 151f 02       		.byte	0x2
 8393 1520 0E02     		.2byte	0x20e
 8394 1522 CD000000 		.4byte	0xcd
 8395 1526 320D0000 		.4byte	.LLST85
 8396 152a 10       		.uleb128 0x10
 8397 152b 0C000000 		.4byte	.LVL439
 8398 152f A7130000 		.4byte	0x13a7
 8399 1533 00       		.byte	0
 8400 1534 00       		.byte	0
 8401 1535 24       		.uleb128 0x24
 8402 1536 06020000 		.4byte	.LASF111
 8403 153a 02       		.byte	0x2
 8404 153b 1302     		.2byte	0x213
 8405 153d 00000000 		.4byte	.LFB101
 8406 1541 90000000 		.4byte	.LFE101-.LFB101
 8407 1545 01       		.uleb128 0x1
 8408 1546 9C       		.byte	0x9c
 8409 1547 1B160000 		.4byte	0x161b
 8410 154b 15       		.uleb128 0x15
 8411 154c 75060000 		.4byte	.LASF112
 8412 1550 02       		.byte	0x2
 8413 1551 1402     		.2byte	0x214
 8414 1553 B5000000 		.4byte	0xb5
 8415 1557 510D0000 		.4byte	.LLST86
 8416 155b 2B       		.uleb128 0x2b
 8417 155c 6E070000 		.4byte	.LASF113
 8418 1560 02       		.byte	0x2
 8419 1561 1502     		.2byte	0x215
 8420 1563 D9000000 		.4byte	0xd9
 8421 1567 01       		.byte	0x1
 8422 1568 2B       		.uleb128 0x2b
 8423 1569 04050000 		.4byte	.LASF114
 8424 156d 02       		.byte	0x2
 8425 156e 1602     		.2byte	0x216
 8426 1570 B5000000 		.4byte	0xb5
 8427 1574 00       		.byte	0
ARM GAS  C:\Users\FRANKL~1\AppData\Local\Temp\ccXJlYBQ.s 			page 181


 8428 1575 2B       		.uleb128 0x2b
 8429 1576 ED0B0000 		.4byte	.LASF115
 8430 157a 02       		.byte	0x2
 8431 157b 1702     		.2byte	0x217
 8432 157d B5000000 		.4byte	0xb5
 8433 1581 00       		.byte	0
 8434 1582 15       		.uleb128 0x15
 8435 1583 B3070000 		.4byte	.LASF116
 8436 1587 02       		.byte	0x2
 8437 1588 1802     		.2byte	0x218
 8438 158a B5000000 		.4byte	0xb5
 8439 158e 860D0000 		.4byte	.LLST87
 8440 1592 15       		.uleb128 0x15
 8441 1593 B1050000 		.4byte	.LASF117
 8442 1597 02       		.byte	0x2
 8443 1598 1902     		.2byte	0x219
 8444 159a B5000000 		.4byte	0xb5
 8445 159e B00D0000 		.4byte	.LLST88
 8446 15a2 2B       		.uleb128 0x2b
 8447 15a3 44060000 		.4byte	.LASF118
 8448 15a7 02       		.byte	0x2
 8449 15a8 1B02     		.2byte	0x21b
 8450 15aa D9000000 		.4byte	0xd9
 8451 15ae 01       		.byte	0x1
 8452 15af 2B       		.uleb128 0x2b
 8453 15b0 DB000000 		.4byte	.LASF119
 8454 15b4 02       		.byte	0x2
 8455 15b5 1C02     		.2byte	0x21c
 8456 15b7 B5000000 		.4byte	0xb5
 8457 15bb 00       		.byte	0
 8458 15bc 2B       		.uleb128 0x2b
 8459 15bd A1070000 		.4byte	.LASF120
 8460 15c1 02       		.byte	0x2
 8461 15c2 1D02     		.2byte	0x21d
 8462 15c4 B5000000 		.4byte	0xb5
 8463 15c8 00       		.byte	0
 8464 15c9 15       		.uleb128 0x15
 8465 15ca 1C070000 		.4byte	.LASF121
 8466 15ce 02       		.byte	0x2
 8467 15cf 1E02     		.2byte	0x21e
 8468 15d1 B5000000 		.4byte	0xb5
 8469 15d5 DA0D0000 		.4byte	.LLST89
 8470 15d9 15       		.uleb128 0x15
 8471 15da 1D020000 		.4byte	.LASF122
 8472 15de 02       		.byte	0x2
 8473 15df 1F02     		.2byte	0x21f
 8474 15e1 B5000000 		.4byte	0xb5
 8475 15e5 040E0000 		.4byte	.LLST90
 8476 15e9 1A       		.uleb128 0x1a
 8477 15ea 52000000 		.4byte	.LVL448
 8478 15ee 51100000 		.4byte	0x1051
 8479 15f2 FD150000 		.4byte	0x15fd
 8480 15f6 19       		.uleb128 0x19
 8481 15f7 01       		.uleb128 0x1
 8482 15f8 50       		.byte	0x50
 8483 15f9 02       		.uleb128 0x2
 8484 15fa 75       		.byte	0x75
ARM GAS  C:\Users\FRANKL~1\AppData\Local\Temp\ccXJlYBQ.s 			page 182


 8485 15fb 00       		.sleb128 0
 8486 15fc 00       		.byte	0
 8487 15fd 1A       		.uleb128 0x1a
 8488 15fe 58000000 		.4byte	.LVL449
 8489 1602 920F0000 		.4byte	0xf92
 8490 1606 11160000 		.4byte	0x1611
 8491 160a 19       		.uleb128 0x19
 8492 160b 01       		.uleb128 0x1
 8493 160c 50       		.byte	0x50
 8494 160d 02       		.uleb128 0x2
 8495 160e 76       		.byte	0x76
 8496 160f 00       		.sleb128 0
 8497 1610 00       		.byte	0
 8498 1611 10       		.uleb128 0x10
 8499 1612 5C000000 		.4byte	.LVL450
 8500 1616 A7130000 		.4byte	0x13a7
 8501 161a 00       		.byte	0
 8502 161b 25       		.uleb128 0x25
 8503 161c 7B040000 		.4byte	.LASF123
 8504 1620 02       		.byte	0x2
 8505 1621 3B02     		.2byte	0x23b
 8506 1623 00000000 		.4byte	.LFB102
 8507 1627 80010000 		.4byte	.LFE102-.LFB102
 8508 162b 01       		.uleb128 0x1
 8509 162c 9C       		.byte	0x9c
 8510 162d 4F180000 		.4byte	0x184f
 8511 1631 26       		.uleb128 0x26
 8512 1632 C3040000 		.4byte	.LASF124
 8513 1636 02       		.byte	0x2
 8514 1637 3B02     		.2byte	0x23b
 8515 1639 B5000000 		.4byte	0xb5
 8516 163d 2E0E0000 		.4byte	.LLST91
 8517 1641 2C       		.uleb128 0x2c
 8518 1642 E70B0000 		.4byte	.LASF127
 8519 1646 02       		.byte	0x2
 8520 1647 4302     		.2byte	0x243
 8521 1649 D9000000 		.4byte	0xd9
 8522 164d 1D       		.uleb128 0x1d
 8523 164e 90000000 		.4byte	.Ldebug_ranges0+0x90
 8524 1652 35180000 		.4byte	0x1835
 8525 1656 16       		.uleb128 0x16
 8526 1657 6C00     		.ascii	"l\000"
 8527 1659 02       		.byte	0x2
 8528 165a 4502     		.2byte	0x245
 8529 165c B5000000 		.4byte	0xb5
 8530 1660 680E0000 		.4byte	.LLST92
 8531 1664 22       		.uleb128 0x22
 8532 1665 A8000000 		.4byte	.Ldebug_ranges0+0xa8
 8533 1669 15       		.uleb128 0x15
 8534 166a EA000000 		.4byte	.LASF125
 8535 166e 02       		.byte	0x2
 8536 166f 4602     		.2byte	0x246
 8537 1671 D9000000 		.4byte	0xd9
 8538 1675 880E0000 		.4byte	.LLST93
 8539 1679 15       		.uleb128 0x15
 8540 167a F4000000 		.4byte	.LASF85
 8541 167e 02       		.byte	0x2
ARM GAS  C:\Users\FRANKL~1\AppData\Local\Temp\ccXJlYBQ.s 			page 183


 8542 167f 4702     		.2byte	0x247
 8543 1681 B5000000 		.4byte	0xb5
 8544 1685 A70E0000 		.4byte	.LLST94
 8545 1689 15       		.uleb128 0x15
 8546 168a BC070000 		.4byte	.LASF86
 8547 168e 02       		.byte	0x2
 8548 168f 4C02     		.2byte	0x24c
 8549 1691 B5000000 		.4byte	0xb5
 8550 1695 D10E0000 		.4byte	.LLST95
 8551 1699 22       		.uleb128 0x22
 8552 169a C0000000 		.4byte	.Ldebug_ranges0+0xc0
 8553 169e 16       		.uleb128 0x16
 8554 169f 6900     		.ascii	"i\000"
 8555 16a1 02       		.byte	0x2
 8556 16a2 5402     		.2byte	0x254
 8557 16a4 B5000000 		.4byte	0xb5
 8558 16a8 FC0E0000 		.4byte	.LLST96
 8559 16ac 22       		.uleb128 0x22
 8560 16ad D8000000 		.4byte	.Ldebug_ranges0+0xd8
 8561 16b1 16       		.uleb128 0x16
 8562 16b2 6A00     		.ascii	"j\000"
 8563 16b4 02       		.byte	0x2
 8564 16b5 5502     		.2byte	0x255
 8565 16b7 B5000000 		.4byte	0xb5
 8566 16bb 250F0000 		.4byte	.LLST97
 8567 16bf 17       		.uleb128 0x17
 8568 16c0 54000000 		.4byte	.LBB43
 8569 16c4 DE000000 		.4byte	.LBE43-.LBB43
 8570 16c8 14       		.uleb128 0x14
 8571 16c9 22090000 		.4byte	.LASF56
 8572 16cd 02       		.byte	0x2
 8573 16ce 5602     		.2byte	0x256
 8574 16d0 F1000000 		.4byte	0xf1
 8575 16d4 02       		.uleb128 0x2
 8576 16d5 91       		.byte	0x91
 8577 16d6 50       		.sleb128 -48
 8578 16d7 14       		.uleb128 0x14
 8579 16d8 C8040000 		.4byte	.LASF57
 8580 16dc 02       		.byte	0x2
 8581 16dd 5702     		.2byte	0x257
 8582 16df F1000000 		.4byte	0xf1
 8583 16e3 02       		.uleb128 0x2
 8584 16e4 91       		.byte	0x91
 8585 16e5 54       		.sleb128 -44
 8586 16e6 15       		.uleb128 0x15
 8587 16e7 430A0000 		.4byte	.LASF107
 8588 16eb 02       		.byte	0x2
 8589 16ec 5E02     		.2byte	0x25e
 8590 16ee 25000000 		.4byte	0x25
 8591 16f2 4E0F0000 		.4byte	.LLST98
 8592 16f6 15       		.uleb128 0x15
 8593 16f7 DF050000 		.4byte	.LASF108
 8594 16fb 02       		.byte	0x2
 8595 16fc 6502     		.2byte	0x265
 8596 16fe 25000000 		.4byte	0x25
 8597 1702 6C0F0000 		.4byte	.LLST99
 8598 1706 15       		.uleb128 0x15
ARM GAS  C:\Users\FRANKL~1\AppData\Local\Temp\ccXJlYBQ.s 			page 184


 8599 1707 E4050000 		.4byte	.LASF109
 8600 170b 02       		.byte	0x2
 8601 170c 6602     		.2byte	0x266
 8602 170e 25000000 		.4byte	0x25
 8603 1712 8A0F0000 		.4byte	.LLST100
 8604 1716 1A       		.uleb128 0x1a
 8605 1717 68000000 		.4byte	.LVL469
 8606 171b 51100000 		.4byte	0x1051
 8607 171f 2B170000 		.4byte	0x172b
 8608 1723 19       		.uleb128 0x19
 8609 1724 01       		.uleb128 0x1
 8610 1725 50       		.byte	0x50
 8611 1726 03       		.uleb128 0x3
 8612 1727 78       		.byte	0x78
 8613 1728 00       		.sleb128 0
 8614 1729 20       		.byte	0x20
 8615 172a 00       		.byte	0
 8616 172b 1A       		.uleb128 0x1a
 8617 172c 6E000000 		.4byte	.LVL470
 8618 1730 920F0000 		.4byte	0xf92
 8619 1734 3F170000 		.4byte	0x173f
 8620 1738 19       		.uleb128 0x19
 8621 1739 01       		.uleb128 0x1
 8622 173a 50       		.byte	0x50
 8623 173b 02       		.uleb128 0x2
 8624 173c 78       		.byte	0x78
 8625 173d 00       		.sleb128 0
 8626 173e 00       		.byte	0
 8627 173f 1A       		.uleb128 0x1a
 8628 1740 78000000 		.4byte	.LVL471
 8629 1744 0D080000 		.4byte	0x80d
 8630 1748 5F170000 		.4byte	0x175f
 8631 174c 19       		.uleb128 0x19
 8632 174d 01       		.uleb128 0x1
 8633 174e 50       		.byte	0x50
 8634 174f 02       		.uleb128 0x2
 8635 1750 91       		.byte	0x91
 8636 1751 50       		.sleb128 -48
 8637 1752 19       		.uleb128 0x19
 8638 1753 01       		.uleb128 0x1
 8639 1754 51       		.byte	0x51
 8640 1755 02       		.uleb128 0x2
 8641 1756 91       		.byte	0x91
 8642 1757 54       		.sleb128 -44
 8643 1758 19       		.uleb128 0x19
 8644 1759 01       		.uleb128 0x1
 8645 175a 52       		.byte	0x52
 8646 175b 02       		.uleb128 0x2
 8647 175c 08       		.byte	0x8
 8648 175d 21       		.byte	0x21
 8649 175e 00       		.byte	0
 8650 175f 10       		.uleb128 0x10
 8651 1760 92000000 		.4byte	.LVL476
 8652 1764 6F330000 		.4byte	0x336f
 8653 1768 10       		.uleb128 0x10
 8654 1769 96000000 		.4byte	.LVL477
 8655 176d 7A330000 		.4byte	0x337a
ARM GAS  C:\Users\FRANKL~1\AppData\Local\Temp\ccXJlYBQ.s 			page 185


 8656 1771 1A       		.uleb128 0x1a
 8657 1772 9C000000 		.4byte	.LVL478
 8658 1776 85330000 		.4byte	0x3385
 8659 177a 84170000 		.4byte	0x1784
 8660 177e 19       		.uleb128 0x19
 8661 177f 01       		.uleb128 0x1
 8662 1780 50       		.byte	0x50
 8663 1781 01       		.uleb128 0x1
 8664 1782 31       		.byte	0x31
 8665 1783 00       		.byte	0
 8666 1784 1A       		.uleb128 0x1a
 8667 1785 A6000000 		.4byte	.LVL479
 8668 1789 90330000 		.4byte	0x3390
 8669 178d 97170000 		.4byte	0x1797
 8670 1791 19       		.uleb128 0x19
 8671 1792 01       		.uleb128 0x1
 8672 1793 50       		.byte	0x50
 8673 1794 01       		.uleb128 0x1
 8674 1795 31       		.byte	0x31
 8675 1796 00       		.byte	0
 8676 1797 10       		.uleb128 0x10
 8677 1798 AE000000 		.4byte	.LVL480
 8678 179c 9B330000 		.4byte	0x339b
 8679 17a0 10       		.uleb128 0x10
 8680 17a1 B2000000 		.4byte	.LVL481
 8681 17a5 A6330000 		.4byte	0x33a6
 8682 17a9 10       		.uleb128 0x10
 8683 17aa B8000000 		.4byte	.LVL483
 8684 17ae B1330000 		.4byte	0x33b1
 8685 17b2 10       		.uleb128 0x10
 8686 17b3 BC000000 		.4byte	.LVL484
 8687 17b7 BC330000 		.4byte	0x33bc
 8688 17bb 10       		.uleb128 0x10
 8689 17bc C2000000 		.4byte	.LVL486
 8690 17c0 E4120000 		.4byte	0x12e4
 8691 17c4 10       		.uleb128 0x10
 8692 17c5 C8000000 		.4byte	.LVL487
 8693 17c9 16130000 		.4byte	0x1316
 8694 17cd 1A       		.uleb128 0x1a
 8695 17ce 0A010000 		.4byte	.LVL494
 8696 17d2 01330000 		.4byte	0x3301
 8697 17d6 F8170000 		.4byte	0x17f8
 8698 17da 19       		.uleb128 0x19
 8699 17db 01       		.uleb128 0x1
 8700 17dc 50       		.byte	0x50
 8701 17dd 02       		.uleb128 0x2
 8702 17de 75       		.byte	0x75
 8703 17df 00       		.sleb128 0
 8704 17e0 19       		.uleb128 0x19
 8705 17e1 01       		.uleb128 0x1
 8706 17e2 51       		.byte	0x51
 8707 17e3 05       		.uleb128 0x5
 8708 17e4 03       		.byte	0x3
 8709 17e5 B0000000 		.4byte	.LC12
 8710 17e9 19       		.uleb128 0x19
 8711 17ea 06       		.uleb128 0x6
 8712 17eb 52       		.byte	0x52
ARM GAS  C:\Users\FRANKL~1\AppData\Local\Temp\ccXJlYBQ.s 			page 186


 8713 17ec 93       		.byte	0x93
 8714 17ed 04       		.uleb128 0x4
 8715 17ee 53       		.byte	0x53
 8716 17ef 93       		.byte	0x93
 8717 17f0 04       		.uleb128 0x4
 8718 17f1 05       		.uleb128 0x5
 8719 17f2 91       		.byte	0x91
 8720 17f3 40       		.sleb128 -64
 8721 17f4 F6       		.byte	0xf6
 8722 17f5 08       		.byte	0x8
 8723 17f6 2C       		.uleb128 0x2c
 8724 17f7 00       		.byte	0
 8725 17f8 1A       		.uleb128 0x1a
 8726 17f9 10010000 		.4byte	.LVL495
 8727 17fd CA320000 		.4byte	0x32ca
 8728 1801 0C180000 		.4byte	0x180c
 8729 1805 19       		.uleb128 0x19
 8730 1806 01       		.uleb128 0x1
 8731 1807 50       		.byte	0x50
 8732 1808 02       		.uleb128 0x2
 8733 1809 75       		.byte	0x75
 8734 180a 00       		.sleb128 0
 8735 180b 00       		.byte	0
 8736 180c 1A       		.uleb128 0x1a
 8737 180d 18010000 		.4byte	.LVL496
 8738 1811 80030000 		.4byte	0x380
 8739 1815 20180000 		.4byte	0x1820
 8740 1819 19       		.uleb128 0x19
 8741 181a 01       		.uleb128 0x1
 8742 181b 50       		.byte	0x50
 8743 181c 02       		.uleb128 0x2
 8744 181d 75       		.byte	0x75
 8745 181e 00       		.sleb128 0
 8746 181f 00       		.byte	0
 8747 1820 18       		.uleb128 0x18
 8748 1821 1E010000 		.4byte	.LVL497
 8749 1825 E0320000 		.4byte	0x32e0
 8750 1829 19       		.uleb128 0x19
 8751 182a 01       		.uleb128 0x1
 8752 182b 50       		.byte	0x50
 8753 182c 02       		.uleb128 0x2
 8754 182d 75       		.byte	0x75
 8755 182e 00       		.sleb128 0
 8756 182f 00       		.byte	0
 8757 1830 00       		.byte	0
 8758 1831 00       		.byte	0
 8759 1832 00       		.byte	0
 8760 1833 00       		.byte	0
 8761 1834 00       		.byte	0
 8762 1835 10       		.uleb128 0x10
 8763 1836 1C000000 		.4byte	.LVL460
 8764 183a 51100000 		.4byte	0x1051
 8765 183e 18       		.uleb128 0x18
 8766 183f 28000000 		.4byte	.LVL463
 8767 1843 51100000 		.4byte	0x1051
 8768 1847 19       		.uleb128 0x19
 8769 1848 01       		.uleb128 0x1
ARM GAS  C:\Users\FRANKL~1\AppData\Local\Temp\ccXJlYBQ.s 			page 187


 8770 1849 50       		.byte	0x50
 8771 184a 02       		.uleb128 0x2
 8772 184b 09       		.byte	0x9
 8773 184c FE       		.byte	0xfe
 8774 184d 00       		.byte	0
 8775 184e 00       		.byte	0
 8776 184f 25       		.uleb128 0x25
 8777 1850 2C060000 		.4byte	.LASF126
 8778 1854 02       		.byte	0x2
 8779 1855 7302     		.2byte	0x273
 8780 1857 00000000 		.4byte	.LFB103
 8781 185b 64010000 		.4byte	.LFE103-.LFB103
 8782 185f 01       		.uleb128 0x1
 8783 1860 9C       		.byte	0x9c
 8784 1861 871A0000 		.4byte	0x1a87
 8785 1865 26       		.uleb128 0x26
 8786 1866 C3040000 		.4byte	.LASF124
 8787 186a 02       		.byte	0x2
 8788 186b 7302     		.2byte	0x273
 8789 186d B5000000 		.4byte	0xb5
 8790 1871 A80F0000 		.4byte	.LLST101
 8791 1875 2B       		.uleb128 0x2b
 8792 1876 E70B0000 		.4byte	.LASF127
 8793 187a 02       		.byte	0x2
 8794 187b 7602     		.2byte	0x276
 8795 187d D9000000 		.4byte	0xd9
 8796 1881 10       		.byte	0x10
 8797 1882 13       		.uleb128 0x13
 8798 1883 0E000000 		.4byte	.LBB48
 8799 1887 38010000 		.4byte	.LBE48-.LBB48
 8800 188b 761A0000 		.4byte	0x1a76
 8801 188f 16       		.uleb128 0x16
 8802 1890 6C00     		.ascii	"l\000"
 8803 1892 02       		.byte	0x2
 8804 1893 7802     		.2byte	0x278
 8805 1895 B5000000 		.4byte	0xb5
 8806 1899 C90F0000 		.4byte	.LLST102
 8807 189d 17       		.uleb128 0x17
 8808 189e 14000000 		.4byte	.LBB49
 8809 18a2 20010000 		.4byte	.LBE49-.LBB49
 8810 18a6 15       		.uleb128 0x15
 8811 18a7 EA000000 		.4byte	.LASF125
 8812 18ab 02       		.byte	0x2
 8813 18ac 7902     		.2byte	0x279
 8814 18ae D9000000 		.4byte	0xd9
 8815 18b2 F50F0000 		.4byte	.LLST103
 8816 18b6 15       		.uleb128 0x15
 8817 18b7 F4000000 		.4byte	.LASF85
 8818 18bb 02       		.byte	0x2
 8819 18bc 7A02     		.2byte	0x27a
 8820 18be B5000000 		.4byte	0xb5
 8821 18c2 14100000 		.4byte	.LLST104
 8822 18c6 15       		.uleb128 0x15
 8823 18c7 BC070000 		.4byte	.LASF86
 8824 18cb 02       		.byte	0x2
 8825 18cc 7B02     		.2byte	0x27b
 8826 18ce B5000000 		.4byte	0xb5
ARM GAS  C:\Users\FRANKL~1\AppData\Local\Temp\ccXJlYBQ.s 			page 188


 8827 18d2 3E100000 		.4byte	.LLST105
 8828 18d6 17       		.uleb128 0x17
 8829 18d7 3C000000 		.4byte	.LBB50
 8830 18db F8000000 		.4byte	.LBE50-.LBB50
 8831 18df 16       		.uleb128 0x16
 8832 18e0 6900     		.ascii	"i\000"
 8833 18e2 02       		.byte	0x2
 8834 18e3 8302     		.2byte	0x283
 8835 18e5 B5000000 		.4byte	0xb5
 8836 18e9 69100000 		.4byte	.LLST106
 8837 18ed 22       		.uleb128 0x22
 8838 18ee F0000000 		.4byte	.Ldebug_ranges0+0xf0
 8839 18f2 16       		.uleb128 0x16
 8840 18f3 6A00     		.ascii	"j\000"
 8841 18f5 02       		.byte	0x2
 8842 18f6 8402     		.2byte	0x284
 8843 18f8 B5000000 		.4byte	0xb5
 8844 18fc 92100000 		.4byte	.LLST107
 8845 1900 17       		.uleb128 0x17
 8846 1901 3E000000 		.4byte	.LBB52
 8847 1905 DE000000 		.4byte	.LBE52-.LBB52
 8848 1909 14       		.uleb128 0x14
 8849 190a 22090000 		.4byte	.LASF56
 8850 190e 02       		.byte	0x2
 8851 190f 8502     		.2byte	0x285
 8852 1911 F1000000 		.4byte	0xf1
 8853 1915 02       		.uleb128 0x2
 8854 1916 91       		.byte	0x91
 8855 1917 50       		.sleb128 -48
 8856 1918 14       		.uleb128 0x14
 8857 1919 C8040000 		.4byte	.LASF57
 8858 191d 02       		.byte	0x2
 8859 191e 8602     		.2byte	0x286
 8860 1920 F1000000 		.4byte	0xf1
 8861 1924 02       		.uleb128 0x2
 8862 1925 91       		.byte	0x91
 8863 1926 54       		.sleb128 -44
 8864 1927 15       		.uleb128 0x15
 8865 1928 D10A0000 		.4byte	.LASF128
 8866 192c 02       		.byte	0x2
 8867 192d 8D02     		.2byte	0x28d
 8868 192f 25000000 		.4byte	0x25
 8869 1933 BB100000 		.4byte	.LLST108
 8870 1937 15       		.uleb128 0x15
 8871 1938 DF050000 		.4byte	.LASF108
 8872 193c 02       		.byte	0x2
 8873 193d 9402     		.2byte	0x294
 8874 193f 25000000 		.4byte	0x25
 8875 1943 D9100000 		.4byte	.LLST109
 8876 1947 15       		.uleb128 0x15
 8877 1948 E4050000 		.4byte	.LASF109
 8878 194c 02       		.byte	0x2
 8879 194d 9502     		.2byte	0x295
 8880 194f 25000000 		.4byte	0x25
 8881 1953 F7100000 		.4byte	.LLST110
 8882 1957 1A       		.uleb128 0x1a
 8883 1958 52000000 		.4byte	.LVL513
ARM GAS  C:\Users\FRANKL~1\AppData\Local\Temp\ccXJlYBQ.s 			page 189


 8884 195c 51100000 		.4byte	0x1051
 8885 1960 6C190000 		.4byte	0x196c
 8886 1964 19       		.uleb128 0x19
 8887 1965 01       		.uleb128 0x1
 8888 1966 50       		.byte	0x50
 8889 1967 03       		.uleb128 0x3
 8890 1968 78       		.byte	0x78
 8891 1969 00       		.sleb128 0
 8892 196a 20       		.byte	0x20
 8893 196b 00       		.byte	0
 8894 196c 1A       		.uleb128 0x1a
 8895 196d 58000000 		.4byte	.LVL514
 8896 1971 920F0000 		.4byte	0xf92
 8897 1975 80190000 		.4byte	0x1980
 8898 1979 19       		.uleb128 0x19
 8899 197a 01       		.uleb128 0x1
 8900 197b 50       		.byte	0x50
 8901 197c 02       		.uleb128 0x2
 8902 197d 78       		.byte	0x78
 8903 197e 00       		.sleb128 0
 8904 197f 00       		.byte	0
 8905 1980 1A       		.uleb128 0x1a
 8906 1981 62000000 		.4byte	.LVL515
 8907 1985 0D080000 		.4byte	0x80d
 8908 1989 A0190000 		.4byte	0x19a0
 8909 198d 19       		.uleb128 0x19
 8910 198e 01       		.uleb128 0x1
 8911 198f 50       		.byte	0x50
 8912 1990 02       		.uleb128 0x2
 8913 1991 91       		.byte	0x91
 8914 1992 50       		.sleb128 -48
 8915 1993 19       		.uleb128 0x19
 8916 1994 01       		.uleb128 0x1
 8917 1995 51       		.byte	0x51
 8918 1996 02       		.uleb128 0x2
 8919 1997 91       		.byte	0x91
 8920 1998 54       		.sleb128 -44
 8921 1999 19       		.uleb128 0x19
 8922 199a 01       		.uleb128 0x1
 8923 199b 52       		.byte	0x52
 8924 199c 02       		.uleb128 0x2
 8925 199d 08       		.byte	0x8
 8926 199e 21       		.byte	0x21
 8927 199f 00       		.byte	0
 8928 19a0 10       		.uleb128 0x10
 8929 19a1 7C000000 		.4byte	.LVL520
 8930 19a5 6F330000 		.4byte	0x336f
 8931 19a9 10       		.uleb128 0x10
 8932 19aa 80000000 		.4byte	.LVL521
 8933 19ae 7A330000 		.4byte	0x337a
 8934 19b2 1A       		.uleb128 0x1a
 8935 19b3 86000000 		.4byte	.LVL522
 8936 19b7 85330000 		.4byte	0x3385
 8937 19bb C5190000 		.4byte	0x19c5
 8938 19bf 19       		.uleb128 0x19
 8939 19c0 01       		.uleb128 0x1
 8940 19c1 50       		.byte	0x50
ARM GAS  C:\Users\FRANKL~1\AppData\Local\Temp\ccXJlYBQ.s 			page 190


 8941 19c2 01       		.uleb128 0x1
 8942 19c3 31       		.byte	0x31
 8943 19c4 00       		.byte	0
 8944 19c5 1A       		.uleb128 0x1a
 8945 19c6 90000000 		.4byte	.LVL523
 8946 19ca 90330000 		.4byte	0x3390
 8947 19ce D8190000 		.4byte	0x19d8
 8948 19d2 19       		.uleb128 0x19
 8949 19d3 01       		.uleb128 0x1
 8950 19d4 50       		.byte	0x50
 8951 19d5 01       		.uleb128 0x1
 8952 19d6 31       		.byte	0x31
 8953 19d7 00       		.byte	0
 8954 19d8 10       		.uleb128 0x10
 8955 19d9 98000000 		.4byte	.LVL524
 8956 19dd 9B330000 		.4byte	0x339b
 8957 19e1 10       		.uleb128 0x10
 8958 19e2 9C000000 		.4byte	.LVL525
 8959 19e6 A6330000 		.4byte	0x33a6
 8960 19ea 10       		.uleb128 0x10
 8961 19eb A2000000 		.4byte	.LVL527
 8962 19ef B1330000 		.4byte	0x33b1
 8963 19f3 10       		.uleb128 0x10
 8964 19f4 A6000000 		.4byte	.LVL528
 8965 19f8 BC330000 		.4byte	0x33bc
 8966 19fc 10       		.uleb128 0x10
 8967 19fd AC000000 		.4byte	.LVL530
 8968 1a01 E4120000 		.4byte	0x12e4
 8969 1a05 10       		.uleb128 0x10
 8970 1a06 B2000000 		.4byte	.LVL531
 8971 1a0a 16130000 		.4byte	0x1316
 8972 1a0e 1A       		.uleb128 0x1a
 8973 1a0f F4000000 		.4byte	.LVL538
 8974 1a13 01330000 		.4byte	0x3301
 8975 1a17 391A0000 		.4byte	0x1a39
 8976 1a1b 19       		.uleb128 0x19
 8977 1a1c 01       		.uleb128 0x1
 8978 1a1d 50       		.byte	0x50
 8979 1a1e 02       		.uleb128 0x2
 8980 1a1f 75       		.byte	0x75
 8981 1a20 00       		.sleb128 0
 8982 1a21 19       		.uleb128 0x19
 8983 1a22 01       		.uleb128 0x1
 8984 1a23 51       		.byte	0x51
 8985 1a24 05       		.uleb128 0x5
 8986 1a25 03       		.byte	0x3
 8987 1a26 B0000000 		.4byte	.LC12
 8988 1a2a 19       		.uleb128 0x19
 8989 1a2b 06       		.uleb128 0x6
 8990 1a2c 52       		.byte	0x52
 8991 1a2d 93       		.byte	0x93
 8992 1a2e 04       		.uleb128 0x4
 8993 1a2f 53       		.byte	0x53
 8994 1a30 93       		.byte	0x93
 8995 1a31 04       		.uleb128 0x4
 8996 1a32 05       		.uleb128 0x5
 8997 1a33 91       		.byte	0x91
ARM GAS  C:\Users\FRANKL~1\AppData\Local\Temp\ccXJlYBQ.s 			page 191


 8998 1a34 40       		.sleb128 -64
 8999 1a35 F6       		.byte	0xf6
 9000 1a36 08       		.byte	0x8
 9001 1a37 2C       		.uleb128 0x2c
 9002 1a38 00       		.byte	0
 9003 1a39 1A       		.uleb128 0x1a
 9004 1a3a FA000000 		.4byte	.LVL539
 9005 1a3e CA320000 		.4byte	0x32ca
 9006 1a42 4D1A0000 		.4byte	0x1a4d
 9007 1a46 19       		.uleb128 0x19
 9008 1a47 01       		.uleb128 0x1
 9009 1a48 50       		.byte	0x50
 9010 1a49 02       		.uleb128 0x2
 9011 1a4a 75       		.byte	0x75
 9012 1a4b 00       		.sleb128 0
 9013 1a4c 00       		.byte	0
 9014 1a4d 1A       		.uleb128 0x1a
 9015 1a4e 02010000 		.4byte	.LVL540
 9016 1a52 80030000 		.4byte	0x380
 9017 1a56 611A0000 		.4byte	0x1a61
 9018 1a5a 19       		.uleb128 0x19
 9019 1a5b 01       		.uleb128 0x1
 9020 1a5c 50       		.byte	0x50
 9021 1a5d 02       		.uleb128 0x2
 9022 1a5e 75       		.byte	0x75
 9023 1a5f 00       		.sleb128 0
 9024 1a60 00       		.byte	0
 9025 1a61 18       		.uleb128 0x18
 9026 1a62 08010000 		.4byte	.LVL541
 9027 1a66 E0320000 		.4byte	0x32e0
 9028 1a6a 19       		.uleb128 0x19
 9029 1a6b 01       		.uleb128 0x1
 9030 1a6c 50       		.byte	0x50
 9031 1a6d 02       		.uleb128 0x2
 9032 1a6e 75       		.byte	0x75
 9033 1a6f 00       		.sleb128 0
 9034 1a70 00       		.byte	0
 9035 1a71 00       		.byte	0
 9036 1a72 00       		.byte	0
 9037 1a73 00       		.byte	0
 9038 1a74 00       		.byte	0
 9039 1a75 00       		.byte	0
 9040 1a76 18       		.uleb128 0x18
 9041 1a77 0E000000 		.4byte	.LVL507
 9042 1a7b 51100000 		.4byte	0x1051
 9043 1a7f 19       		.uleb128 0x19
 9044 1a80 01       		.uleb128 0x1
 9045 1a81 50       		.byte	0x50
 9046 1a82 02       		.uleb128 0x2
 9047 1a83 09       		.byte	0x9
 9048 1a84 FE       		.byte	0xfe
 9049 1a85 00       		.byte	0
 9050 1a86 00       		.byte	0
 9051 1a87 12       		.uleb128 0x12
 9052 1a88 8A050000 		.4byte	.LASF129
 9053 1a8c 02       		.byte	0x2
 9054 1a8d A202     		.2byte	0x2a2
ARM GAS  C:\Users\FRANKL~1\AppData\Local\Temp\ccXJlYBQ.s 			page 192


 9055 1a8f 00000000 		.4byte	.LFB104
 9056 1a93 90000000 		.4byte	.LFE104-.LFB104
 9057 1a97 01       		.uleb128 0x1
 9058 1a98 9C       		.byte	0x9c
 9059 1a99 F21B0000 		.4byte	0x1bf2
 9060 1a9d 26       		.uleb128 0x26
 9061 1a9e C5000000 		.4byte	.LASF130
 9062 1aa2 02       		.byte	0x2
 9063 1aa3 A202     		.2byte	0x2a2
 9064 1aa5 B5000000 		.4byte	0xb5
 9065 1aa9 15110000 		.4byte	.LLST111
 9066 1aad 26       		.uleb128 0x26
 9067 1aae C3040000 		.4byte	.LASF124
 9068 1ab2 02       		.byte	0x2
 9069 1ab3 A202     		.2byte	0x2a2
 9070 1ab5 B5000000 		.4byte	0xb5
 9071 1ab9 36110000 		.4byte	.LLST112
 9072 1abd 17       		.uleb128 0x17
 9073 1abe 08000000 		.4byte	.LBB54
 9074 1ac2 88000000 		.4byte	.LBE54-.LBB54
 9075 1ac6 15       		.uleb128 0x15
 9076 1ac7 29020000 		.4byte	.LASF131
 9077 1acb 02       		.byte	0x2
 9078 1acc A302     		.2byte	0x2a3
 9079 1ace B5000000 		.4byte	0xb5
 9080 1ad2 57110000 		.4byte	.LLST113
 9081 1ad6 17       		.uleb128 0x17
 9082 1ad7 0C000000 		.4byte	.LBB55
 9083 1adb 6E000000 		.4byte	.LBE55-.LBB55
 9084 1adf 15       		.uleb128 0x15
 9085 1ae0 65070000 		.4byte	.LASF132
 9086 1ae4 02       		.byte	0x2
 9087 1ae5 A402     		.2byte	0x2a4
 9088 1ae7 B5000000 		.4byte	0xb5
 9089 1aeb 76110000 		.4byte	.LLST114
 9090 1aef 15       		.uleb128 0x15
 9091 1af0 34050000 		.4byte	.LASF133
 9092 1af4 02       		.byte	0x2
 9093 1af5 A502     		.2byte	0x2a5
 9094 1af7 B5000000 		.4byte	0xb5
 9095 1afb 89110000 		.4byte	.LLST115
 9096 1aff 15       		.uleb128 0x15
 9097 1b00 10060000 		.4byte	.LASF134
 9098 1b04 02       		.byte	0x2
 9099 1b05 A602     		.2byte	0x2a6
 9100 1b07 B5000000 		.4byte	0xb5
 9101 1b0b 9C110000 		.4byte	.LLST116
 9102 1b0f 15       		.uleb128 0x15
 9103 1b10 1E060000 		.4byte	.LASF135
 9104 1b14 02       		.byte	0x2
 9105 1b15 A702     		.2byte	0x2a7
 9106 1b17 B5000000 		.4byte	0xb5
 9107 1b1b B0110000 		.4byte	.LLST117
 9108 1b1f 10       		.uleb128 0x10
 9109 1b20 14000000 		.4byte	.LVL553
 9110 1b24 580B0000 		.4byte	0xb58
 9111 1b28 10       		.uleb128 0x10
ARM GAS  C:\Users\FRANKL~1\AppData\Local\Temp\ccXJlYBQ.s 			page 193


 9112 1b29 18000000 		.4byte	.LVL554
 9113 1b2d 48130000 		.4byte	0x1348
 9114 1b31 10       		.uleb128 0x10
 9115 1b32 1C000000 		.4byte	.LVL555
 9116 1b36 800C0000 		.4byte	0xc80
 9117 1b3a 1A       		.uleb128 0x1a
 9118 1b3b 24000000 		.4byte	.LVL556
 9119 1b3f 590A0000 		.4byte	0xa59
 9120 1b43 531B0000 		.4byte	0x1b53
 9121 1b47 19       		.uleb128 0x19
 9122 1b48 01       		.uleb128 0x1
 9123 1b49 50       		.byte	0x50
 9124 1b4a 02       		.uleb128 0x2
 9125 1b4b 74       		.byte	0x74
 9126 1b4c 00       		.sleb128 0
 9127 1b4d 19       		.uleb128 0x19
 9128 1b4e 01       		.uleb128 0x1
 9129 1b4f 51       		.byte	0x51
 9130 1b50 01       		.uleb128 0x1
 9131 1b51 31       		.byte	0x31
 9132 1b52 00       		.byte	0
 9133 1b53 1A       		.uleb128 0x1a
 9134 1b54 2C000000 		.4byte	.LVL557
 9135 1b58 590A0000 		.4byte	0xa59
 9136 1b5c 6C1B0000 		.4byte	0x1b6c
 9137 1b60 19       		.uleb128 0x19
 9138 1b61 01       		.uleb128 0x1
 9139 1b62 50       		.byte	0x50
 9140 1b63 02       		.uleb128 0x2
 9141 1b64 76       		.byte	0x76
 9142 1b65 00       		.sleb128 0
 9143 1b66 19       		.uleb128 0x19
 9144 1b67 01       		.uleb128 0x1
 9145 1b68 51       		.byte	0x51
 9146 1b69 01       		.uleb128 0x1
 9147 1b6a 32       		.byte	0x32
 9148 1b6b 00       		.byte	0
 9149 1b6c 1A       		.uleb128 0x1a
 9150 1b6d 38000000 		.4byte	.LVL558
 9151 1b71 01330000 		.4byte	0x3301
 9152 1b75 8F1B0000 		.4byte	0x1b8f
 9153 1b79 19       		.uleb128 0x19
 9154 1b7a 01       		.uleb128 0x1
 9155 1b7b 50       		.byte	0x50
 9156 1b7c 02       		.uleb128 0x2
 9157 1b7d 75       		.byte	0x75
 9158 1b7e 00       		.sleb128 0
 9159 1b7f 19       		.uleb128 0x19
 9160 1b80 01       		.uleb128 0x1
 9161 1b81 51       		.byte	0x51
 9162 1b82 05       		.uleb128 0x5
 9163 1b83 03       		.byte	0x3
 9164 1b84 C4000000 		.4byte	.LC13
 9165 1b88 19       		.uleb128 0x19
 9166 1b89 01       		.uleb128 0x1
 9167 1b8a 52       		.byte	0x52
 9168 1b8b 02       		.uleb128 0x2
ARM GAS  C:\Users\FRANKL~1\AppData\Local\Temp\ccXJlYBQ.s 			page 194


 9169 1b8c 74       		.byte	0x74
 9170 1b8d 00       		.sleb128 0
 9171 1b8e 00       		.byte	0
 9172 1b8f 1A       		.uleb128 0x1a
 9173 1b90 3E000000 		.4byte	.LVL559
 9174 1b94 CA320000 		.4byte	0x32ca
 9175 1b98 A31B0000 		.4byte	0x1ba3
 9176 1b9c 19       		.uleb128 0x19
 9177 1b9d 01       		.uleb128 0x1
 9178 1b9e 50       		.byte	0x50
 9179 1b9f 02       		.uleb128 0x2
 9180 1ba0 75       		.byte	0x75
 9181 1ba1 00       		.sleb128 0
 9182 1ba2 00       		.byte	0
 9183 1ba3 1A       		.uleb128 0x1a
 9184 1ba4 46000000 		.4byte	.LVL560
 9185 1ba8 80030000 		.4byte	0x380
 9186 1bac B71B0000 		.4byte	0x1bb7
 9187 1bb0 19       		.uleb128 0x19
 9188 1bb1 01       		.uleb128 0x1
 9189 1bb2 50       		.byte	0x50
 9190 1bb3 02       		.uleb128 0x2
 9191 1bb4 75       		.byte	0x75
 9192 1bb5 00       		.sleb128 0
 9193 1bb6 00       		.byte	0
 9194 1bb7 1A       		.uleb128 0x1a
 9195 1bb8 4C000000 		.4byte	.LVL561
 9196 1bbc E0320000 		.4byte	0x32e0
 9197 1bc0 CB1B0000 		.4byte	0x1bcb
 9198 1bc4 19       		.uleb128 0x19
 9199 1bc5 01       		.uleb128 0x1
 9200 1bc6 50       		.byte	0x50
 9201 1bc7 02       		.uleb128 0x2
 9202 1bc8 75       		.byte	0x75
 9203 1bc9 00       		.sleb128 0
 9204 1bca 00       		.byte	0
 9205 1bcb 1A       		.uleb128 0x1a
 9206 1bcc 54000000 		.4byte	.LVL562
 9207 1bd0 4F180000 		.4byte	0x184f
 9208 1bd4 DF1B0000 		.4byte	0x1bdf
 9209 1bd8 19       		.uleb128 0x19
 9210 1bd9 01       		.uleb128 0x1
 9211 1bda 50       		.byte	0x50
 9212 1bdb 02       		.uleb128 0x2
 9213 1bdc 78       		.byte	0x78
 9214 1bdd 00       		.sleb128 0
 9215 1bde 00       		.byte	0
 9216 1bdf 18       		.uleb128 0x18
 9217 1be0 5C000000 		.4byte	.LVL563
 9218 1be4 1B160000 		.4byte	0x161b
 9219 1be8 19       		.uleb128 0x19
 9220 1be9 01       		.uleb128 0x1
 9221 1bea 50       		.byte	0x50
 9222 1beb 02       		.uleb128 0x2
 9223 1bec 78       		.byte	0x78
 9224 1bed 00       		.sleb128 0
 9225 1bee 00       		.byte	0
ARM GAS  C:\Users\FRANKL~1\AppData\Local\Temp\ccXJlYBQ.s 			page 195


 9226 1bef 00       		.byte	0
 9227 1bf0 00       		.byte	0
 9228 1bf1 00       		.byte	0
 9229 1bf2 12       		.uleb128 0x12
 9230 1bf3 D70B0000 		.4byte	.LASF136
 9231 1bf7 02       		.byte	0x2
 9232 1bf8 BE02     		.2byte	0x2be
 9233 1bfa 00000000 		.4byte	.LFB105
 9234 1bfe A4000000 		.4byte	.LFE105-.LFB105
 9235 1c02 01       		.uleb128 0x1
 9236 1c03 9C       		.byte	0x9c
 9237 1c04 7D1D0000 		.4byte	0x1d7d
 9238 1c08 26       		.uleb128 0x26
 9239 1c09 E1010000 		.4byte	.LASF137
 9240 1c0d 02       		.byte	0x2
 9241 1c0e BE02     		.2byte	0x2be
 9242 1c10 B5000000 		.4byte	0xb5
 9243 1c14 C4110000 		.4byte	.LLST118
 9244 1c18 26       		.uleb128 0x26
 9245 1c19 A1000000 		.4byte	.LASF138
 9246 1c1d 02       		.byte	0x2
 9247 1c1e BE02     		.2byte	0x2be
 9248 1c20 B5000000 		.4byte	0xb5
 9249 1c24 F0110000 		.4byte	.LLST119
 9250 1c28 26       		.uleb128 0x26
 9251 1c29 C5000000 		.4byte	.LASF130
 9252 1c2d 02       		.byte	0x2
 9253 1c2e BE02     		.2byte	0x2be
 9254 1c30 B5000000 		.4byte	0xb5
 9255 1c34 1C120000 		.4byte	.LLST120
 9256 1c38 26       		.uleb128 0x26
 9257 1c39 C3040000 		.4byte	.LASF124
 9258 1c3d 02       		.byte	0x2
 9259 1c3e BE02     		.2byte	0x2be
 9260 1c40 B5000000 		.4byte	0xb5
 9261 1c44 48120000 		.4byte	.LLST121
 9262 1c48 17       		.uleb128 0x17
 9263 1c49 18000000 		.4byte	.LBB56
 9264 1c4d 8C000000 		.4byte	.LBE56-.LBB56
 9265 1c51 15       		.uleb128 0x15
 9266 1c52 29020000 		.4byte	.LASF131
 9267 1c56 02       		.byte	0x2
 9268 1c57 C202     		.2byte	0x2c2
 9269 1c59 B5000000 		.4byte	0xb5
 9270 1c5d 74120000 		.4byte	.LLST122
 9271 1c61 17       		.uleb128 0x17
 9272 1c62 18000000 		.4byte	.LBB57
 9273 1c66 72000000 		.4byte	.LBE57-.LBB57
 9274 1c6a 15       		.uleb128 0x15
 9275 1c6b 65070000 		.4byte	.LASF132
 9276 1c6f 02       		.byte	0x2
 9277 1c70 C302     		.2byte	0x2c3
 9278 1c72 B5000000 		.4byte	0xb5
 9279 1c76 87120000 		.4byte	.LLST123
 9280 1c7a 15       		.uleb128 0x15
 9281 1c7b 34050000 		.4byte	.LASF133
 9282 1c7f 02       		.byte	0x2
ARM GAS  C:\Users\FRANKL~1\AppData\Local\Temp\ccXJlYBQ.s 			page 196


 9283 1c80 C402     		.2byte	0x2c4
 9284 1c82 B5000000 		.4byte	0xb5
 9285 1c86 9A120000 		.4byte	.LLST124
 9286 1c8a 15       		.uleb128 0x15
 9287 1c8b 10060000 		.4byte	.LASF134
 9288 1c8f 02       		.byte	0x2
 9289 1c90 C502     		.2byte	0x2c5
 9290 1c92 B5000000 		.4byte	0xb5
 9291 1c96 AD120000 		.4byte	.LLST125
 9292 1c9a 15       		.uleb128 0x15
 9293 1c9b 1E060000 		.4byte	.LASF135
 9294 1c9f 02       		.byte	0x2
 9295 1ca0 C602     		.2byte	0x2c6
 9296 1ca2 B5000000 		.4byte	0xb5
 9297 1ca6 C1120000 		.4byte	.LLST126
 9298 1caa 10       		.uleb128 0x10
 9299 1cab 20000000 		.4byte	.LVL569
 9300 1caf 580B0000 		.4byte	0xb58
 9301 1cb3 10       		.uleb128 0x10
 9302 1cb4 24000000 		.4byte	.LVL570
 9303 1cb8 48130000 		.4byte	0x1348
 9304 1cbc 10       		.uleb128 0x10
 9305 1cbd 28000000 		.4byte	.LVL571
 9306 1cc1 800C0000 		.4byte	0xc80
 9307 1cc5 1A       		.uleb128 0x1a
 9308 1cc6 30000000 		.4byte	.LVL572
 9309 1cca 590A0000 		.4byte	0xa59
 9310 1cce DE1C0000 		.4byte	0x1cde
 9311 1cd2 19       		.uleb128 0x19
 9312 1cd3 01       		.uleb128 0x1
 9313 1cd4 50       		.byte	0x50
 9314 1cd5 02       		.uleb128 0x2
 9315 1cd6 74       		.byte	0x74
 9316 1cd7 00       		.sleb128 0
 9317 1cd8 19       		.uleb128 0x19
 9318 1cd9 01       		.uleb128 0x1
 9319 1cda 51       		.byte	0x51
 9320 1cdb 01       		.uleb128 0x1
 9321 1cdc 31       		.byte	0x31
 9322 1cdd 00       		.byte	0
 9323 1cde 1A       		.uleb128 0x1a
 9324 1cdf 38000000 		.4byte	.LVL573
 9325 1ce3 590A0000 		.4byte	0xa59
 9326 1ce7 F71C0000 		.4byte	0x1cf7
 9327 1ceb 19       		.uleb128 0x19
 9328 1cec 01       		.uleb128 0x1
 9329 1ced 50       		.byte	0x50
 9330 1cee 02       		.uleb128 0x2
 9331 1cef 76       		.byte	0x76
 9332 1cf0 00       		.sleb128 0
 9333 1cf1 19       		.uleb128 0x19
 9334 1cf2 01       		.uleb128 0x1
 9335 1cf3 51       		.byte	0x51
 9336 1cf4 01       		.uleb128 0x1
 9337 1cf5 32       		.byte	0x32
 9338 1cf6 00       		.byte	0
 9339 1cf7 1A       		.uleb128 0x1a
ARM GAS  C:\Users\FRANKL~1\AppData\Local\Temp\ccXJlYBQ.s 			page 197


 9340 1cf8 44000000 		.4byte	.LVL574
 9341 1cfc 01330000 		.4byte	0x3301
 9342 1d00 1A1D0000 		.4byte	0x1d1a
 9343 1d04 19       		.uleb128 0x19
 9344 1d05 01       		.uleb128 0x1
 9345 1d06 50       		.byte	0x50
 9346 1d07 02       		.uleb128 0x2
 9347 1d08 75       		.byte	0x75
 9348 1d09 00       		.sleb128 0
 9349 1d0a 19       		.uleb128 0x19
 9350 1d0b 01       		.uleb128 0x1
 9351 1d0c 51       		.byte	0x51
 9352 1d0d 05       		.uleb128 0x5
 9353 1d0e 03       		.byte	0x3
 9354 1d0f C4000000 		.4byte	.LC13
 9355 1d13 19       		.uleb128 0x19
 9356 1d14 01       		.uleb128 0x1
 9357 1d15 52       		.byte	0x52
 9358 1d16 02       		.uleb128 0x2
 9359 1d17 74       		.byte	0x74
 9360 1d18 00       		.sleb128 0
 9361 1d19 00       		.byte	0
 9362 1d1a 1A       		.uleb128 0x1a
 9363 1d1b 4A000000 		.4byte	.LVL575
 9364 1d1f CA320000 		.4byte	0x32ca
 9365 1d23 2E1D0000 		.4byte	0x1d2e
 9366 1d27 19       		.uleb128 0x19
 9367 1d28 01       		.uleb128 0x1
 9368 1d29 50       		.byte	0x50
 9369 1d2a 02       		.uleb128 0x2
 9370 1d2b 75       		.byte	0x75
 9371 1d2c 00       		.sleb128 0
 9372 1d2d 00       		.byte	0
 9373 1d2e 1A       		.uleb128 0x1a
 9374 1d2f 52000000 		.4byte	.LVL576
 9375 1d33 80030000 		.4byte	0x380
 9376 1d37 421D0000 		.4byte	0x1d42
 9377 1d3b 19       		.uleb128 0x19
 9378 1d3c 01       		.uleb128 0x1
 9379 1d3d 50       		.byte	0x50
 9380 1d3e 02       		.uleb128 0x2
 9381 1d3f 75       		.byte	0x75
 9382 1d40 00       		.sleb128 0
 9383 1d41 00       		.byte	0
 9384 1d42 1A       		.uleb128 0x1a
 9385 1d43 58000000 		.4byte	.LVL577
 9386 1d47 E0320000 		.4byte	0x32e0
 9387 1d4b 561D0000 		.4byte	0x1d56
 9388 1d4f 19       		.uleb128 0x19
 9389 1d50 01       		.uleb128 0x1
 9390 1d51 50       		.byte	0x50
 9391 1d52 02       		.uleb128 0x2
 9392 1d53 75       		.byte	0x75
 9393 1d54 00       		.sleb128 0
 9394 1d55 00       		.byte	0
 9395 1d56 1A       		.uleb128 0x1a
 9396 1d57 64000000 		.4byte	.LVL578
ARM GAS  C:\Users\FRANKL~1\AppData\Local\Temp\ccXJlYBQ.s 			page 198


 9397 1d5b 4F180000 		.4byte	0x184f
 9398 1d5f 6A1D0000 		.4byte	0x1d6a
 9399 1d63 19       		.uleb128 0x19
 9400 1d64 01       		.uleb128 0x1
 9401 1d65 50       		.byte	0x50
 9402 1d66 02       		.uleb128 0x2
 9403 1d67 79       		.byte	0x79
 9404 1d68 00       		.sleb128 0
 9405 1d69 00       		.byte	0
 9406 1d6a 18       		.uleb128 0x18
 9407 1d6b 6C000000 		.4byte	.LVL579
 9408 1d6f 1B160000 		.4byte	0x161b
 9409 1d73 19       		.uleb128 0x19
 9410 1d74 01       		.uleb128 0x1
 9411 1d75 50       		.byte	0x50
 9412 1d76 02       		.uleb128 0x2
 9413 1d77 79       		.byte	0x79
 9414 1d78 00       		.sleb128 0
 9415 1d79 00       		.byte	0
 9416 1d7a 00       		.byte	0
 9417 1d7b 00       		.byte	0
 9418 1d7c 00       		.byte	0
 9419 1d7d 2D       		.uleb128 0x2d
 9420 1d7e C80C0000 		.4byte	.LASF214
 9421 1d82 02       		.byte	0x2
 9422 1d83 2303     		.2byte	0x323
 9423 1d85 3A000000 		.4byte	0x3a
 9424 1d89 00000000 		.4byte	.LFB107
 9425 1d8d B8080000 		.4byte	.LFE107-.LFB107
 9426 1d91 01       		.uleb128 0x1
 9427 1d92 9C       		.byte	0x9c
 9428 1d93 0B310000 		.4byte	0x310b
 9429 1d97 13       		.uleb128 0x13
 9430 1d98 76000000 		.4byte	.LBB58
 9431 1d9c 42080000 		.4byte	.LBE58-.LBB58
 9432 1da0 47300000 		.4byte	0x3047
 9433 1da4 15       		.uleb128 0x15
 9434 1da5 1F000000 		.4byte	.LASF33
 9435 1da9 02       		.byte	0x2
 9436 1daa 4703     		.2byte	0x347
 9437 1dac 92000000 		.4byte	0x92
 9438 1db0 D5120000 		.4byte	.LLST127
 9439 1db4 13       		.uleb128 0x13
 9440 1db5 AA000000 		.4byte	.LBB59
 9441 1db9 18000000 		.4byte	.LBE59-.LBB59
 9442 1dbd 1B1E0000 		.4byte	0x1e1b
 9443 1dc1 14       		.uleb128 0x14
 9444 1dc2 8F090000 		.4byte	.LASF139
 9445 1dc6 02       		.byte	0x2
 9446 1dc7 5003     		.2byte	0x350
 9447 1dc9 92000000 		.4byte	0x92
 9448 1dcd 02       		.uleb128 0x2
 9449 1dce 91       		.byte	0x91
 9450 1dcf 64       		.sleb128 -28
 9451 1dd0 16       		.uleb128 0x16
 9452 1dd1 6E00     		.ascii	"n\000"
 9453 1dd3 02       		.byte	0x2
ARM GAS  C:\Users\FRANKL~1\AppData\Local\Temp\ccXJlYBQ.s 			page 199


 9454 1dd4 5103     		.2byte	0x351
 9455 1dd6 CD000000 		.4byte	0xcd
 9456 1dda 9D130000 		.4byte	.LLST128
 9457 1dde 1A       		.uleb128 0x1a
 9458 1ddf B2000000 		.4byte	.LVL603
 9459 1de3 C7330000 		.4byte	0x33c7
 9460 1de7 F81D0000 		.4byte	0x1df8
 9461 1deb 19       		.uleb128 0x19
 9462 1dec 01       		.uleb128 0x1
 9463 1ded 50       		.byte	0x50
 9464 1dee 02       		.uleb128 0x2
 9465 1def 74       		.byte	0x74
 9466 1df0 00       		.sleb128 0
 9467 1df1 19       		.uleb128 0x19
 9468 1df2 01       		.uleb128 0x1
 9469 1df3 51       		.byte	0x51
 9470 1df4 02       		.uleb128 0x2
 9471 1df5 08       		.byte	0x8
 9472 1df6 20       		.byte	0x20
 9473 1df7 00       		.byte	0
 9474 1df8 1A       		.uleb128 0x1a
 9475 1df9 BE000000 		.4byte	.LVL604
 9476 1dfd D6330000 		.4byte	0x33d6
 9477 1e01 111E0000 		.4byte	0x1e11
 9478 1e05 19       		.uleb128 0x19
 9479 1e06 01       		.uleb128 0x1
 9480 1e07 51       		.byte	0x51
 9481 1e08 02       		.uleb128 0x2
 9482 1e09 91       		.byte	0x91
 9483 1e0a 64       		.sleb128 -28
 9484 1e0b 19       		.uleb128 0x19
 9485 1e0c 01       		.uleb128 0x1
 9486 1e0d 52       		.byte	0x52
 9487 1e0e 01       		.uleb128 0x1
 9488 1e0f 3A       		.byte	0x3a
 9489 1e10 00       		.byte	0
 9490 1e11 10       		.uleb128 0x10
 9491 1e12 C2000000 		.4byte	.LVL605
 9492 1e16 EF140000 		.4byte	0x14ef
 9493 1e1a 00       		.byte	0
 9494 1e1b 13       		.uleb128 0x13
 9495 1e1c 0A010000 		.4byte	.LBB60
 9496 1e20 1A000000 		.4byte	.LBE60-.LBB60
 9497 1e24 841E0000 		.4byte	0x1e84
 9498 1e28 14       		.uleb128 0x14
 9499 1e29 8F090000 		.4byte	.LASF139
 9500 1e2d 02       		.byte	0x2
 9501 1e2e 5F03     		.2byte	0x35f
 9502 1e30 92000000 		.4byte	0x92
 9503 1e34 02       		.uleb128 0x2
 9504 1e35 91       		.byte	0x91
 9505 1e36 64       		.sleb128 -28
 9506 1e37 15       		.uleb128 0x15
 9507 1e38 5B060000 		.4byte	.LASF140
 9508 1e3c 02       		.byte	0x2
 9509 1e3d 6003     		.2byte	0x360
 9510 1e3f B5000000 		.4byte	0xb5
ARM GAS  C:\Users\FRANKL~1\AppData\Local\Temp\ccXJlYBQ.s 			page 200


 9511 1e43 B0130000 		.4byte	.LLST129
 9512 1e47 1A       		.uleb128 0x1a
 9513 1e48 12010000 		.4byte	.LVL613
 9514 1e4c C7330000 		.4byte	0x33c7
 9515 1e50 611E0000 		.4byte	0x1e61
 9516 1e54 19       		.uleb128 0x19
 9517 1e55 01       		.uleb128 0x1
 9518 1e56 50       		.byte	0x50
 9519 1e57 02       		.uleb128 0x2
 9520 1e58 74       		.byte	0x74
 9521 1e59 00       		.sleb128 0
 9522 1e5a 19       		.uleb128 0x19
 9523 1e5b 01       		.uleb128 0x1
 9524 1e5c 51       		.byte	0x51
 9525 1e5d 02       		.uleb128 0x2
 9526 1e5e 08       		.byte	0x8
 9527 1e5f 20       		.byte	0x20
 9528 1e60 00       		.byte	0
 9529 1e61 1A       		.uleb128 0x1a
 9530 1e62 1E010000 		.4byte	.LVL614
 9531 1e66 D6330000 		.4byte	0x33d6
 9532 1e6a 7A1E0000 		.4byte	0x1e7a
 9533 1e6e 19       		.uleb128 0x19
 9534 1e6f 01       		.uleb128 0x1
 9535 1e70 51       		.byte	0x51
 9536 1e71 02       		.uleb128 0x2
 9537 1e72 91       		.byte	0x91
 9538 1e73 64       		.sleb128 -28
 9539 1e74 19       		.uleb128 0x19
 9540 1e75 01       		.uleb128 0x1
 9541 1e76 52       		.byte	0x52
 9542 1e77 01       		.uleb128 0x1
 9543 1e78 3A       		.byte	0x3a
 9544 1e79 00       		.byte	0
 9545 1e7a 10       		.uleb128 0x10
 9546 1e7b 24010000 		.4byte	.LVL615
 9547 1e7f 920F0000 		.4byte	0xf92
 9548 1e83 00       		.byte	0
 9549 1e84 13       		.uleb128 0x13
 9550 1e85 32010000 		.4byte	.LBB61
 9551 1e89 1A000000 		.4byte	.LBE61-.LBB61
 9552 1e8d ED1E0000 		.4byte	0x1eed
 9553 1e91 14       		.uleb128 0x14
 9554 1e92 8F090000 		.4byte	.LASF139
 9555 1e96 02       		.byte	0x2
 9556 1e97 6503     		.2byte	0x365
 9557 1e99 92000000 		.4byte	0x92
 9558 1e9d 02       		.uleb128 0x2
 9559 1e9e 91       		.byte	0x91
 9560 1e9f 64       		.sleb128 -28
 9561 1ea0 15       		.uleb128 0x15
 9562 1ea1 C0000000 		.4byte	.LASF141
 9563 1ea5 02       		.byte	0x2
 9564 1ea6 6603     		.2byte	0x366
 9565 1ea8 B5000000 		.4byte	0xb5
 9566 1eac C3130000 		.4byte	.LLST130
 9567 1eb0 1A       		.uleb128 0x1a
ARM GAS  C:\Users\FRANKL~1\AppData\Local\Temp\ccXJlYBQ.s 			page 201


 9568 1eb1 3A010000 		.4byte	.LVL617
 9569 1eb5 C7330000 		.4byte	0x33c7
 9570 1eb9 CA1E0000 		.4byte	0x1eca
 9571 1ebd 19       		.uleb128 0x19
 9572 1ebe 01       		.uleb128 0x1
 9573 1ebf 50       		.byte	0x50
 9574 1ec0 02       		.uleb128 0x2
 9575 1ec1 74       		.byte	0x74
 9576 1ec2 00       		.sleb128 0
 9577 1ec3 19       		.uleb128 0x19
 9578 1ec4 01       		.uleb128 0x1
 9579 1ec5 51       		.byte	0x51
 9580 1ec6 02       		.uleb128 0x2
 9581 1ec7 08       		.byte	0x8
 9582 1ec8 20       		.byte	0x20
 9583 1ec9 00       		.byte	0
 9584 1eca 1A       		.uleb128 0x1a
 9585 1ecb 46010000 		.4byte	.LVL618
 9586 1ecf D6330000 		.4byte	0x33d6
 9587 1ed3 E31E0000 		.4byte	0x1ee3
 9588 1ed7 19       		.uleb128 0x19
 9589 1ed8 01       		.uleb128 0x1
 9590 1ed9 51       		.byte	0x51
 9591 1eda 02       		.uleb128 0x2
 9592 1edb 91       		.byte	0x91
 9593 1edc 64       		.sleb128 -28
 9594 1edd 19       		.uleb128 0x19
 9595 1ede 01       		.uleb128 0x1
 9596 1edf 52       		.byte	0x52
 9597 1ee0 01       		.uleb128 0x1
 9598 1ee1 3A       		.byte	0x3a
 9599 1ee2 00       		.byte	0
 9600 1ee3 10       		.uleb128 0x10
 9601 1ee4 4C010000 		.4byte	.LVL619
 9602 1ee8 D30E0000 		.4byte	0xed3
 9603 1eec 00       		.byte	0
 9604 1eed 13       		.uleb128 0x13
 9605 1eee 5A010000 		.4byte	.LBB62
 9606 1ef2 1A000000 		.4byte	.LBE62-.LBB62
 9607 1ef6 561F0000 		.4byte	0x1f56
 9608 1efa 14       		.uleb128 0x14
 9609 1efb 8F090000 		.4byte	.LASF139
 9610 1eff 02       		.byte	0x2
 9611 1f00 6B03     		.2byte	0x36b
 9612 1f02 92000000 		.4byte	0x92
 9613 1f06 02       		.uleb128 0x2
 9614 1f07 91       		.byte	0x91
 9615 1f08 64       		.sleb128 -28
 9616 1f09 15       		.uleb128 0x15
 9617 1f0a 5B060000 		.4byte	.LASF140
 9618 1f0e 02       		.byte	0x2
 9619 1f0f 6C03     		.2byte	0x36c
 9620 1f11 D9000000 		.4byte	0xd9
 9621 1f15 D6130000 		.4byte	.LLST131
 9622 1f19 1A       		.uleb128 0x1a
 9623 1f1a 62010000 		.4byte	.LVL621
 9624 1f1e C7330000 		.4byte	0x33c7
ARM GAS  C:\Users\FRANKL~1\AppData\Local\Temp\ccXJlYBQ.s 			page 202


 9625 1f22 331F0000 		.4byte	0x1f33
 9626 1f26 19       		.uleb128 0x19
 9627 1f27 01       		.uleb128 0x1
 9628 1f28 50       		.byte	0x50
 9629 1f29 02       		.uleb128 0x2
 9630 1f2a 74       		.byte	0x74
 9631 1f2b 00       		.sleb128 0
 9632 1f2c 19       		.uleb128 0x19
 9633 1f2d 01       		.uleb128 0x1
 9634 1f2e 51       		.byte	0x51
 9635 1f2f 02       		.uleb128 0x2
 9636 1f30 08       		.byte	0x8
 9637 1f31 20       		.byte	0x20
 9638 1f32 00       		.byte	0
 9639 1f33 1A       		.uleb128 0x1a
 9640 1f34 6E010000 		.4byte	.LVL622
 9641 1f38 D6330000 		.4byte	0x33d6
 9642 1f3c 4C1F0000 		.4byte	0x1f4c
 9643 1f40 19       		.uleb128 0x19
 9644 1f41 01       		.uleb128 0x1
 9645 1f42 51       		.byte	0x51
 9646 1f43 02       		.uleb128 0x2
 9647 1f44 91       		.byte	0x91
 9648 1f45 64       		.sleb128 -28
 9649 1f46 19       		.uleb128 0x19
 9650 1f47 01       		.uleb128 0x1
 9651 1f48 52       		.byte	0x52
 9652 1f49 01       		.uleb128 0x1
 9653 1f4a 3A       		.byte	0x3a
 9654 1f4b 00       		.byte	0
 9655 1f4c 10       		.uleb128 0x10
 9656 1f4d 74010000 		.4byte	.LVL623
 9657 1f51 84110000 		.4byte	0x1184
 9658 1f55 00       		.byte	0
 9659 1f56 13       		.uleb128 0x13
 9660 1f57 82010000 		.4byte	.LBB63
 9661 1f5b 1A000000 		.4byte	.LBE63-.LBB63
 9662 1f5f BF1F0000 		.4byte	0x1fbf
 9663 1f63 14       		.uleb128 0x14
 9664 1f64 8F090000 		.4byte	.LASF139
 9665 1f68 02       		.byte	0x2
 9666 1f69 7103     		.2byte	0x371
 9667 1f6b 92000000 		.4byte	0x92
 9668 1f6f 02       		.uleb128 0x2
 9669 1f70 91       		.byte	0x91
 9670 1f71 64       		.sleb128 -28
 9671 1f72 15       		.uleb128 0x15
 9672 1f73 C0000000 		.4byte	.LASF141
 9673 1f77 02       		.byte	0x2
 9674 1f78 7203     		.2byte	0x372
 9675 1f7a D9000000 		.4byte	0xd9
 9676 1f7e E9130000 		.4byte	.LLST132
 9677 1f82 1A       		.uleb128 0x1a
 9678 1f83 8A010000 		.4byte	.LVL625
 9679 1f87 C7330000 		.4byte	0x33c7
 9680 1f8b 9C1F0000 		.4byte	0x1f9c
 9681 1f8f 19       		.uleb128 0x19
ARM GAS  C:\Users\FRANKL~1\AppData\Local\Temp\ccXJlYBQ.s 			page 203


 9682 1f90 01       		.uleb128 0x1
 9683 1f91 50       		.byte	0x50
 9684 1f92 02       		.uleb128 0x2
 9685 1f93 74       		.byte	0x74
 9686 1f94 00       		.sleb128 0
 9687 1f95 19       		.uleb128 0x19
 9688 1f96 01       		.uleb128 0x1
 9689 1f97 51       		.byte	0x51
 9690 1f98 02       		.uleb128 0x2
 9691 1f99 08       		.byte	0x8
 9692 1f9a 20       		.byte	0x20
 9693 1f9b 00       		.byte	0
 9694 1f9c 1A       		.uleb128 0x1a
 9695 1f9d 96010000 		.4byte	.LVL626
 9696 1fa1 D6330000 		.4byte	0x33d6
 9697 1fa5 B51F0000 		.4byte	0x1fb5
 9698 1fa9 19       		.uleb128 0x19
 9699 1faa 01       		.uleb128 0x1
 9700 1fab 51       		.byte	0x51
 9701 1fac 02       		.uleb128 0x2
 9702 1fad 91       		.byte	0x91
 9703 1fae 64       		.sleb128 -28
 9704 1faf 19       		.uleb128 0x19
 9705 1fb0 01       		.uleb128 0x1
 9706 1fb1 52       		.byte	0x52
 9707 1fb2 01       		.uleb128 0x1
 9708 1fb3 3A       		.byte	0x3a
 9709 1fb4 00       		.byte	0
 9710 1fb5 10       		.uleb128 0x10
 9711 1fb6 9C010000 		.4byte	.LVL627
 9712 1fba 0B110000 		.4byte	0x110b
 9713 1fbe 00       		.byte	0
 9714 1fbf 13       		.uleb128 0x13
 9715 1fc0 AA010000 		.4byte	.LBB64
 9716 1fc4 1C000000 		.4byte	.LBE64-.LBB64
 9717 1fc8 38200000 		.4byte	0x2038
 9718 1fcc 15       		.uleb128 0x15
 9719 1fcd 8F090000 		.4byte	.LASF139
 9720 1fd1 02       		.byte	0x2
 9721 1fd2 7703     		.2byte	0x377
 9722 1fd4 92000000 		.4byte	0x92
 9723 1fd8 FC130000 		.4byte	.LLST133
 9724 1fdc 2E       		.uleb128 0x2e
 9725 1fdd 76677300 		.ascii	"vgs\000"
 9726 1fe1 02       		.byte	0x2
 9727 1fe2 7803     		.2byte	0x378
 9728 1fe4 25000000 		.4byte	0x25
 9729 1fe8 02       		.uleb128 0x2
 9730 1fe9 91       		.byte	0x91
 9731 1fea 64       		.sleb128 -28
 9732 1feb 2C       		.uleb128 0x2c
 9733 1fec CE060000 		.4byte	.LASF142
 9734 1ff0 02       		.byte	0x2
 9735 1ff1 7903     		.2byte	0x379
 9736 1ff3 D9000000 		.4byte	0xd9
 9737 1ff7 1A       		.uleb128 0x1a
 9738 1ff8 B2010000 		.4byte	.LVL629
ARM GAS  C:\Users\FRANKL~1\AppData\Local\Temp\ccXJlYBQ.s 			page 204


 9739 1ffc C7330000 		.4byte	0x33c7
 9740 2000 11200000 		.4byte	0x2011
 9741 2004 19       		.uleb128 0x19
 9742 2005 01       		.uleb128 0x1
 9743 2006 50       		.byte	0x50
 9744 2007 02       		.uleb128 0x2
 9745 2008 74       		.byte	0x74
 9746 2009 00       		.sleb128 0
 9747 200a 19       		.uleb128 0x19
 9748 200b 01       		.uleb128 0x1
 9749 200c 51       		.byte	0x51
 9750 200d 02       		.uleb128 0x2
 9751 200e 08       		.byte	0x8
 9752 200f 20       		.byte	0x20
 9753 2010 00       		.byte	0
 9754 2011 1A       		.uleb128 0x1a
 9755 2012 C0010000 		.4byte	.LVL630
 9756 2016 E1330000 		.4byte	0x33e1
 9757 201a 2E200000 		.4byte	0x202e
 9758 201e 19       		.uleb128 0x19
 9759 201f 01       		.uleb128 0x1
 9760 2020 51       		.byte	0x51
 9761 2021 05       		.uleb128 0x5
 9762 2022 03       		.byte	0x3
 9763 2023 88010000 		.4byte	.LC25
 9764 2027 19       		.uleb128 0x19
 9765 2028 01       		.uleb128 0x1
 9766 2029 52       		.byte	0x52
 9767 202a 02       		.uleb128 0x2
 9768 202b 91       		.byte	0x91
 9769 202c 64       		.sleb128 -28
 9770 202d 00       		.byte	0
 9771 202e 10       		.uleb128 0x10
 9772 202f C6010000 		.4byte	.LVL631
 9773 2033 FD110000 		.4byte	0x11fd
 9774 2037 00       		.byte	0
 9775 2038 13       		.uleb128 0x13
 9776 2039 D4010000 		.4byte	.LBB65
 9777 203d 1C000000 		.4byte	.LBE65-.LBB65
 9778 2041 B1200000 		.4byte	0x20b1
 9779 2045 15       		.uleb128 0x15
 9780 2046 8F090000 		.4byte	.LASF139
 9781 204a 02       		.byte	0x2
 9782 204b 7E03     		.2byte	0x37e
 9783 204d 92000000 		.4byte	0x92
 9784 2051 0F140000 		.4byte	.LLST134
 9785 2055 2E       		.uleb128 0x2e
 9786 2056 76647300 		.ascii	"vds\000"
 9787 205a 02       		.byte	0x2
 9788 205b 7F03     		.2byte	0x37f
 9789 205d 25000000 		.4byte	0x25
 9790 2061 02       		.uleb128 0x2
 9791 2062 91       		.byte	0x91
 9792 2063 64       		.sleb128 -28
 9793 2064 2C       		.uleb128 0x2c
 9794 2065 CE060000 		.4byte	.LASF142
 9795 2069 02       		.byte	0x2
ARM GAS  C:\Users\FRANKL~1\AppData\Local\Temp\ccXJlYBQ.s 			page 205


 9796 206a 8003     		.2byte	0x380
 9797 206c D9000000 		.4byte	0xd9
 9798 2070 1A       		.uleb128 0x1a
 9799 2071 DC010000 		.4byte	.LVL633
 9800 2075 C7330000 		.4byte	0x33c7
 9801 2079 8A200000 		.4byte	0x208a
 9802 207d 19       		.uleb128 0x19
 9803 207e 01       		.uleb128 0x1
 9804 207f 50       		.byte	0x50
 9805 2080 02       		.uleb128 0x2
 9806 2081 74       		.byte	0x74
 9807 2082 00       		.sleb128 0
 9808 2083 19       		.uleb128 0x19
 9809 2084 01       		.uleb128 0x1
 9810 2085 51       		.byte	0x51
 9811 2086 02       		.uleb128 0x2
 9812 2087 08       		.byte	0x8
 9813 2088 20       		.byte	0x20
 9814 2089 00       		.byte	0
 9815 208a 1A       		.uleb128 0x1a
 9816 208b EA010000 		.4byte	.LVL634
 9817 208f E1330000 		.4byte	0x33e1
 9818 2093 A7200000 		.4byte	0x20a7
 9819 2097 19       		.uleb128 0x19
 9820 2098 01       		.uleb128 0x1
 9821 2099 51       		.byte	0x51
 9822 209a 05       		.uleb128 0x5
 9823 209b 03       		.byte	0x3
 9824 209c 88010000 		.4byte	.LC25
 9825 20a0 19       		.uleb128 0x19
 9826 20a1 01       		.uleb128 0x1
 9827 20a2 52       		.byte	0x52
 9828 20a3 02       		.uleb128 0x2
 9829 20a4 91       		.byte	0x91
 9830 20a5 64       		.sleb128 -28
 9831 20a6 00       		.byte	0
 9832 20a7 10       		.uleb128 0x10
 9833 20a8 F0010000 		.4byte	.LVL635
 9834 20ac 2D120000 		.4byte	0x122d
 9835 20b0 00       		.byte	0
 9836 20b1 13       		.uleb128 0x13
 9837 20b2 FE010000 		.4byte	.LBB66
 9838 20b6 46000000 		.4byte	.LBE66-.LBB66
 9839 20ba 7B210000 		.4byte	0x217b
 9840 20be 14       		.uleb128 0x14
 9841 20bf 8F090000 		.4byte	.LASF139
 9842 20c3 02       		.byte	0x2
 9843 20c4 8503     		.2byte	0x385
 9844 20c6 92000000 		.4byte	0x92
 9845 20ca 02       		.uleb128 0x2
 9846 20cb 91       		.byte	0x91
 9847 20cc 64       		.sleb128 -28
 9848 20cd 15       		.uleb128 0x15
 9849 20ce 6C020000 		.4byte	.LASF143
 9850 20d2 02       		.byte	0x2
 9851 20d3 8603     		.2byte	0x386
 9852 20d5 25000000 		.4byte	0x25
ARM GAS  C:\Users\FRANKL~1\AppData\Local\Temp\ccXJlYBQ.s 			page 206


 9853 20d9 22140000 		.4byte	.LLST135
 9854 20dd 1A       		.uleb128 0x1a
 9855 20de 06020000 		.4byte	.LVL637
 9856 20e2 C7330000 		.4byte	0x33c7
 9857 20e6 F7200000 		.4byte	0x20f7
 9858 20ea 19       		.uleb128 0x19
 9859 20eb 01       		.uleb128 0x1
 9860 20ec 50       		.byte	0x50
 9861 20ed 02       		.uleb128 0x2
 9862 20ee 74       		.byte	0x74
 9863 20ef 00       		.sleb128 0
 9864 20f0 19       		.uleb128 0x19
 9865 20f1 01       		.uleb128 0x1
 9866 20f2 51       		.byte	0x51
 9867 20f3 02       		.uleb128 0x2
 9868 20f4 08       		.byte	0x8
 9869 20f5 20       		.byte	0x20
 9870 20f6 00       		.byte	0
 9871 20f7 1A       		.uleb128 0x1a
 9872 20f8 12020000 		.4byte	.LVL638
 9873 20fc D6330000 		.4byte	0x33d6
 9874 2100 10210000 		.4byte	0x2110
 9875 2104 19       		.uleb128 0x19
 9876 2105 01       		.uleb128 0x1
 9877 2106 51       		.byte	0x51
 9878 2107 02       		.uleb128 0x2
 9879 2108 91       		.byte	0x91
 9880 2109 64       		.sleb128 -28
 9881 210a 19       		.uleb128 0x19
 9882 210b 01       		.uleb128 0x1
 9883 210c 52       		.byte	0x52
 9884 210d 01       		.uleb128 0x1
 9885 210e 3A       		.byte	0x3a
 9886 210f 00       		.byte	0
 9887 2110 1A       		.uleb128 0x1a
 9888 2111 1C020000 		.4byte	.LVL641
 9889 2115 5D120000 		.4byte	0x125d
 9890 2119 25210000 		.4byte	0x2125
 9891 211d 19       		.uleb128 0x19
 9892 211e 01       		.uleb128 0x1
 9893 211f 50       		.byte	0x50
 9894 2120 03       		.uleb128 0x3
 9895 2121 F5       		.byte	0xf5
 9896 2122 04       		.uleb128 0x4
 9897 2123 25       		.uleb128 0x25
 9898 2124 00       		.byte	0
 9899 2125 1A       		.uleb128 0x1a
 9900 2126 30020000 		.4byte	.LVL644
 9901 212a 01330000 		.4byte	0x3301
 9902 212e 42210000 		.4byte	0x2142
 9903 2132 19       		.uleb128 0x19
 9904 2133 01       		.uleb128 0x1
 9905 2134 50       		.byte	0x50
 9906 2135 02       		.uleb128 0x2
 9907 2136 74       		.byte	0x74
 9908 2137 00       		.sleb128 0
 9909 2138 19       		.uleb128 0x19
ARM GAS  C:\Users\FRANKL~1\AppData\Local\Temp\ccXJlYBQ.s 			page 207


 9910 2139 01       		.uleb128 0x1
 9911 213a 51       		.byte	0x51
 9912 213b 05       		.uleb128 0x5
 9913 213c 03       		.byte	0x3
 9914 213d A4010000 		.4byte	.LC28
 9915 2141 00       		.byte	0
 9916 2142 1A       		.uleb128 0x1a
 9917 2143 36020000 		.4byte	.LVL645
 9918 2147 CA320000 		.4byte	0x32ca
 9919 214b 56210000 		.4byte	0x2156
 9920 214f 19       		.uleb128 0x19
 9921 2150 01       		.uleb128 0x1
 9922 2151 50       		.byte	0x50
 9923 2152 02       		.uleb128 0x2
 9924 2153 74       		.byte	0x74
 9925 2154 00       		.sleb128 0
 9926 2155 00       		.byte	0
 9927 2156 1A       		.uleb128 0x1a
 9928 2157 3E020000 		.4byte	.LVL646
 9929 215b 80030000 		.4byte	0x380
 9930 215f 6A210000 		.4byte	0x216a
 9931 2163 19       		.uleb128 0x19
 9932 2164 01       		.uleb128 0x1
 9933 2165 50       		.byte	0x50
 9934 2166 02       		.uleb128 0x2
 9935 2167 74       		.byte	0x74
 9936 2168 00       		.sleb128 0
 9937 2169 00       		.byte	0
 9938 216a 18       		.uleb128 0x18
 9939 216b 44020000 		.4byte	.LVL647
 9940 216f E0320000 		.4byte	0x32e0
 9941 2173 19       		.uleb128 0x19
 9942 2174 01       		.uleb128 0x1
 9943 2175 50       		.byte	0x50
 9944 2176 02       		.uleb128 0x2
 9945 2177 74       		.byte	0x74
 9946 2178 00       		.sleb128 0
 9947 2179 00       		.byte	0
 9948 217a 00       		.byte	0
 9949 217b 13       		.uleb128 0x13
 9950 217c 52020000 		.4byte	.LBB67
 9951 2180 46000000 		.4byte	.LBE67-.LBB67
 9952 2184 45220000 		.4byte	0x2245
 9953 2188 14       		.uleb128 0x14
 9954 2189 8F090000 		.4byte	.LASF139
 9955 218d 02       		.byte	0x2
 9956 218e 8F03     		.2byte	0x38f
 9957 2190 92000000 		.4byte	0x92
 9958 2194 02       		.uleb128 0x2
 9959 2195 91       		.byte	0x91
 9960 2196 64       		.sleb128 -28
 9961 2197 15       		.uleb128 0x15
 9962 2198 A0030000 		.4byte	.LASF144
 9963 219c 02       		.byte	0x2
 9964 219d 9003     		.2byte	0x390
 9965 219f 25000000 		.4byte	0x25
 9966 21a3 40140000 		.4byte	.LLST136
ARM GAS  C:\Users\FRANKL~1\AppData\Local\Temp\ccXJlYBQ.s 			page 208


 9967 21a7 1A       		.uleb128 0x1a
 9968 21a8 5A020000 		.4byte	.LVL650
 9969 21ac C7330000 		.4byte	0x33c7
 9970 21b0 C1210000 		.4byte	0x21c1
 9971 21b4 19       		.uleb128 0x19
 9972 21b5 01       		.uleb128 0x1
 9973 21b6 50       		.byte	0x50
 9974 21b7 02       		.uleb128 0x2
 9975 21b8 74       		.byte	0x74
 9976 21b9 00       		.sleb128 0
 9977 21ba 19       		.uleb128 0x19
 9978 21bb 01       		.uleb128 0x1
 9979 21bc 51       		.byte	0x51
 9980 21bd 02       		.uleb128 0x2
 9981 21be 08       		.byte	0x8
 9982 21bf 20       		.byte	0x20
 9983 21c0 00       		.byte	0
 9984 21c1 1A       		.uleb128 0x1a
 9985 21c2 66020000 		.4byte	.LVL651
 9986 21c6 D6330000 		.4byte	0x33d6
 9987 21ca DA210000 		.4byte	0x21da
 9988 21ce 19       		.uleb128 0x19
 9989 21cf 01       		.uleb128 0x1
 9990 21d0 51       		.byte	0x51
 9991 21d1 02       		.uleb128 0x2
 9992 21d2 91       		.byte	0x91
 9993 21d3 64       		.sleb128 -28
 9994 21d4 19       		.uleb128 0x19
 9995 21d5 01       		.uleb128 0x1
 9996 21d6 52       		.byte	0x52
 9997 21d7 01       		.uleb128 0x1
 9998 21d8 3A       		.byte	0x3a
 9999 21d9 00       		.byte	0
 10000 21da 1A       		.uleb128 0x1a
 10001 21db 70020000 		.4byte	.LVL654
 10002 21df 8C120000 		.4byte	0x128c
 10003 21e3 EF210000 		.4byte	0x21ef
 10004 21e7 19       		.uleb128 0x19
 10005 21e8 01       		.uleb128 0x1
 10006 21e9 50       		.byte	0x50
 10007 21ea 03       		.uleb128 0x3
 10008 21eb F5       		.byte	0xf5
 10009 21ec 04       		.uleb128 0x4
 10010 21ed 25       		.uleb128 0x25
 10011 21ee 00       		.byte	0
 10012 21ef 1A       		.uleb128 0x1a
 10013 21f0 84020000 		.4byte	.LVL657
 10014 21f4 01330000 		.4byte	0x3301
 10015 21f8 0C220000 		.4byte	0x220c
 10016 21fc 19       		.uleb128 0x19
 10017 21fd 01       		.uleb128 0x1
 10018 21fe 50       		.byte	0x50
 10019 21ff 02       		.uleb128 0x2
 10020 2200 74       		.byte	0x74
 10021 2201 00       		.sleb128 0
 10022 2202 19       		.uleb128 0x19
 10023 2203 01       		.uleb128 0x1
ARM GAS  C:\Users\FRANKL~1\AppData\Local\Temp\ccXJlYBQ.s 			page 209


 10024 2204 51       		.byte	0x51
 10025 2205 05       		.uleb128 0x5
 10026 2206 03       		.byte	0x3
 10027 2207 C8010000 		.4byte	.LC30
 10028 220b 00       		.byte	0
 10029 220c 1A       		.uleb128 0x1a
 10030 220d 8A020000 		.4byte	.LVL658
 10031 2211 CA320000 		.4byte	0x32ca
 10032 2215 20220000 		.4byte	0x2220
 10033 2219 19       		.uleb128 0x19
 10034 221a 01       		.uleb128 0x1
 10035 221b 50       		.byte	0x50
 10036 221c 02       		.uleb128 0x2
 10037 221d 74       		.byte	0x74
 10038 221e 00       		.sleb128 0
 10039 221f 00       		.byte	0
 10040 2220 1A       		.uleb128 0x1a
 10041 2221 92020000 		.4byte	.LVL659
 10042 2225 80030000 		.4byte	0x380
 10043 2229 34220000 		.4byte	0x2234
 10044 222d 19       		.uleb128 0x19
 10045 222e 01       		.uleb128 0x1
 10046 222f 50       		.byte	0x50
 10047 2230 02       		.uleb128 0x2
 10048 2231 74       		.byte	0x74
 10049 2232 00       		.sleb128 0
 10050 2233 00       		.byte	0
 10051 2234 18       		.uleb128 0x18
 10052 2235 98020000 		.4byte	.LVL660
 10053 2239 E0320000 		.4byte	0x32e0
 10054 223d 19       		.uleb128 0x19
 10055 223e 01       		.uleb128 0x1
 10056 223f 50       		.byte	0x50
 10057 2240 02       		.uleb128 0x2
 10058 2241 74       		.byte	0x74
 10059 2242 00       		.sleb128 0
 10060 2243 00       		.byte	0
 10061 2244 00       		.byte	0
 10062 2245 13       		.uleb128 0x13
 10063 2246 78030000 		.4byte	.LBB68
 10064 224a 84000000 		.4byte	.LBE68-.LBB68
 10065 224e 60230000 		.4byte	0x2360
 10066 2252 14       		.uleb128 0x14
 10067 2253 8F090000 		.4byte	.LASF139
 10068 2257 02       		.byte	0x2
 10069 2258 A803     		.2byte	0x3a8
 10070 225a 92000000 		.4byte	0x92
 10071 225e 02       		.uleb128 0x2
 10072 225f 91       		.byte	0x91
 10073 2260 64       		.sleb128 -28
 10074 2261 15       		.uleb128 0x15
 10075 2262 E1010000 		.4byte	.LASF137
 10076 2266 02       		.byte	0x2
 10077 2267 A903     		.2byte	0x3a9
 10078 2269 B5000000 		.4byte	0xb5
 10079 226d 5E140000 		.4byte	.LLST137
 10080 2271 15       		.uleb128 0x15
ARM GAS  C:\Users\FRANKL~1\AppData\Local\Temp\ccXJlYBQ.s 			page 210


 10081 2272 A1000000 		.4byte	.LASF138
 10082 2276 02       		.byte	0x2
 10083 2277 AA03     		.2byte	0x3aa
 10084 2279 B5000000 		.4byte	0xb5
 10085 227d 71140000 		.4byte	.LLST138
 10086 2281 1A       		.uleb128 0x1a
 10087 2282 96030000 		.4byte	.LVL673
 10088 2286 CA320000 		.4byte	0x32ca
 10089 228a 95220000 		.4byte	0x2295
 10090 228e 19       		.uleb128 0x19
 10091 228f 01       		.uleb128 0x1
 10092 2290 50       		.byte	0x50
 10093 2291 02       		.uleb128 0x2
 10094 2292 75       		.byte	0x75
 10095 2293 00       		.sleb128 0
 10096 2294 00       		.byte	0
 10097 2295 1A       		.uleb128 0x1a
 10098 2296 9E030000 		.4byte	.LVL674
 10099 229a 80030000 		.4byte	0x380
 10100 229e A9220000 		.4byte	0x22a9
 10101 22a2 19       		.uleb128 0x19
 10102 22a3 01       		.uleb128 0x1
 10103 22a4 50       		.byte	0x50
 10104 22a5 02       		.uleb128 0x2
 10105 22a6 75       		.byte	0x75
 10106 22a7 00       		.sleb128 0
 10107 22a8 00       		.byte	0
 10108 22a9 1A       		.uleb128 0x1a
 10109 22aa A4030000 		.4byte	.LVL675
 10110 22ae E0320000 		.4byte	0x32e0
 10111 22b2 BD220000 		.4byte	0x22bd
 10112 22b6 19       		.uleb128 0x19
 10113 22b7 01       		.uleb128 0x1
 10114 22b8 50       		.byte	0x50
 10115 22b9 02       		.uleb128 0x2
 10116 22ba 75       		.byte	0x75
 10117 22bb 00       		.sleb128 0
 10118 22bc 00       		.byte	0
 10119 22bd 1A       		.uleb128 0x1a
 10120 22be AC030000 		.4byte	.LVL676
 10121 22c2 C7330000 		.4byte	0x33c7
 10122 22c6 D7220000 		.4byte	0x22d7
 10123 22ca 19       		.uleb128 0x19
 10124 22cb 01       		.uleb128 0x1
 10125 22cc 50       		.byte	0x50
 10126 22cd 02       		.uleb128 0x2
 10127 22ce 74       		.byte	0x74
 10128 22cf 00       		.sleb128 0
 10129 22d0 19       		.uleb128 0x19
 10130 22d1 01       		.uleb128 0x1
 10131 22d2 51       		.byte	0x51
 10132 22d3 02       		.uleb128 0x2
 10133 22d4 08       		.byte	0x8
 10134 22d5 20       		.byte	0x20
 10135 22d6 00       		.byte	0
 10136 22d7 1A       		.uleb128 0x1a
 10137 22d8 BA030000 		.4byte	.LVL678
ARM GAS  C:\Users\FRANKL~1\AppData\Local\Temp\ccXJlYBQ.s 			page 211


 10138 22dc D6330000 		.4byte	0x33d6
 10139 22e0 F0220000 		.4byte	0x22f0
 10140 22e4 19       		.uleb128 0x19
 10141 22e5 01       		.uleb128 0x1
 10142 22e6 51       		.byte	0x51
 10143 22e7 02       		.uleb128 0x2
 10144 22e8 74       		.byte	0x74
 10145 22e9 00       		.sleb128 0
 10146 22ea 19       		.uleb128 0x19
 10147 22eb 01       		.uleb128 0x1
 10148 22ec 52       		.byte	0x52
 10149 22ed 01       		.uleb128 0x1
 10150 22ee 3A       		.byte	0x3a
 10151 22ef 00       		.byte	0
 10152 22f0 1A       		.uleb128 0x1a
 10153 22f1 C6030000 		.4byte	.LVL680
 10154 22f5 D6330000 		.4byte	0x33d6
 10155 22f9 09230000 		.4byte	0x2309
 10156 22fd 19       		.uleb128 0x19
 10157 22fe 01       		.uleb128 0x1
 10158 22ff 51       		.byte	0x51
 10159 2300 02       		.uleb128 0x2
 10160 2301 74       		.byte	0x74
 10161 2302 00       		.sleb128 0
 10162 2303 19       		.uleb128 0x19
 10163 2304 01       		.uleb128 0x1
 10164 2305 52       		.byte	0x52
 10165 2306 01       		.uleb128 0x1
 10166 2307 3A       		.byte	0x3a
 10167 2308 00       		.byte	0
 10168 2309 1A       		.uleb128 0x1a
 10169 230a D2030000 		.4byte	.LVL682
 10170 230e F21B0000 		.4byte	0x1bf2
 10171 2312 27230000 		.4byte	0x2327
 10172 2316 19       		.uleb128 0x19
 10173 2317 01       		.uleb128 0x1
 10174 2318 50       		.byte	0x50
 10175 2319 02       		.uleb128 0x2
 10176 231a 76       		.byte	0x76
 10177 231b 00       		.sleb128 0
 10178 231c 19       		.uleb128 0x19
 10179 231d 01       		.uleb128 0x1
 10180 231e 52       		.byte	0x52
 10181 231f 01       		.uleb128 0x1
 10182 2320 30       		.byte	0x30
 10183 2321 19       		.uleb128 0x19
 10184 2322 01       		.uleb128 0x1
 10185 2323 53       		.byte	0x53
 10186 2324 01       		.uleb128 0x1
 10187 2325 30       		.byte	0x30
 10188 2326 00       		.byte	0
 10189 2327 1A       		.uleb128 0x1a
 10190 2328 EE030000 		.4byte	.LVL683
 10191 232c CA320000 		.4byte	0x32ca
 10192 2330 3B230000 		.4byte	0x233b
 10193 2334 19       		.uleb128 0x19
 10194 2335 01       		.uleb128 0x1
ARM GAS  C:\Users\FRANKL~1\AppData\Local\Temp\ccXJlYBQ.s 			page 212


 10195 2336 50       		.byte	0x50
 10196 2337 02       		.uleb128 0x2
 10197 2338 75       		.byte	0x75
 10198 2339 00       		.sleb128 0
 10199 233a 00       		.byte	0
 10200 233b 1A       		.uleb128 0x1a
 10201 233c F6030000 		.4byte	.LVL684
 10202 2340 80030000 		.4byte	0x380
 10203 2344 4F230000 		.4byte	0x234f
 10204 2348 19       		.uleb128 0x19
 10205 2349 01       		.uleb128 0x1
 10206 234a 50       		.byte	0x50
 10207 234b 02       		.uleb128 0x2
 10208 234c 75       		.byte	0x75
 10209 234d 00       		.sleb128 0
 10210 234e 00       		.byte	0
 10211 234f 18       		.uleb128 0x18
 10212 2350 FC030000 		.4byte	.LVL685
 10213 2354 E0320000 		.4byte	0x32e0
 10214 2358 19       		.uleb128 0x19
 10215 2359 01       		.uleb128 0x1
 10216 235a 50       		.byte	0x50
 10217 235b 02       		.uleb128 0x2
 10218 235c 75       		.byte	0x75
 10219 235d 00       		.sleb128 0
 10220 235e 00       		.byte	0
 10221 235f 00       		.byte	0
 10222 2360 13       		.uleb128 0x13
 10223 2361 0A040000 		.4byte	.LBB69
 10224 2365 90000000 		.4byte	.LBE69-.LBB69
 10225 2369 7B240000 		.4byte	0x247b
 10226 236d 14       		.uleb128 0x14
 10227 236e 8F090000 		.4byte	.LASF139
 10228 2372 02       		.byte	0x2
 10229 2373 B603     		.2byte	0x3b6
 10230 2375 92000000 		.4byte	0x92
 10231 2379 02       		.uleb128 0x2
 10232 237a 91       		.byte	0x91
 10233 237b 64       		.sleb128 -28
 10234 237c 15       		.uleb128 0x15
 10235 237d E1010000 		.4byte	.LASF137
 10236 2381 02       		.byte	0x2
 10237 2382 B703     		.2byte	0x3b7
 10238 2384 B5000000 		.4byte	0xb5
 10239 2388 8F140000 		.4byte	.LLST139
 10240 238c 15       		.uleb128 0x15
 10241 238d A1000000 		.4byte	.LASF138
 10242 2391 02       		.byte	0x2
 10243 2392 B803     		.2byte	0x3b8
 10244 2394 B5000000 		.4byte	0xb5
 10245 2398 A2140000 		.4byte	.LLST140
 10246 239c 1A       		.uleb128 0x1a
 10247 239d 2E040000 		.4byte	.LVL688
 10248 23a1 CA320000 		.4byte	0x32ca
 10249 23a5 B0230000 		.4byte	0x23b0
 10250 23a9 19       		.uleb128 0x19
 10251 23aa 01       		.uleb128 0x1
ARM GAS  C:\Users\FRANKL~1\AppData\Local\Temp\ccXJlYBQ.s 			page 213


 10252 23ab 50       		.byte	0x50
 10253 23ac 02       		.uleb128 0x2
 10254 23ad 75       		.byte	0x75
 10255 23ae 00       		.sleb128 0
 10256 23af 00       		.byte	0
 10257 23b0 1A       		.uleb128 0x1a
 10258 23b1 36040000 		.4byte	.LVL689
 10259 23b5 80030000 		.4byte	0x380
 10260 23b9 C4230000 		.4byte	0x23c4
 10261 23bd 19       		.uleb128 0x19
 10262 23be 01       		.uleb128 0x1
 10263 23bf 50       		.byte	0x50
 10264 23c0 02       		.uleb128 0x2
 10265 23c1 75       		.byte	0x75
 10266 23c2 00       		.sleb128 0
 10267 23c3 00       		.byte	0
 10268 23c4 1A       		.uleb128 0x1a
 10269 23c5 3C040000 		.4byte	.LVL690
 10270 23c9 E0320000 		.4byte	0x32e0
 10271 23cd D8230000 		.4byte	0x23d8
 10272 23d1 19       		.uleb128 0x19
 10273 23d2 01       		.uleb128 0x1
 10274 23d3 50       		.byte	0x50
 10275 23d4 02       		.uleb128 0x2
 10276 23d5 75       		.byte	0x75
 10277 23d6 00       		.sleb128 0
 10278 23d7 00       		.byte	0
 10279 23d8 1A       		.uleb128 0x1a
 10280 23d9 44040000 		.4byte	.LVL691
 10281 23dd C7330000 		.4byte	0x33c7
 10282 23e1 F2230000 		.4byte	0x23f2
 10283 23e5 19       		.uleb128 0x19
 10284 23e6 01       		.uleb128 0x1
 10285 23e7 50       		.byte	0x50
 10286 23e8 02       		.uleb128 0x2
 10287 23e9 74       		.byte	0x74
 10288 23ea 00       		.sleb128 0
 10289 23eb 19       		.uleb128 0x19
 10290 23ec 01       		.uleb128 0x1
 10291 23ed 51       		.byte	0x51
 10292 23ee 02       		.uleb128 0x2
 10293 23ef 08       		.byte	0x8
 10294 23f0 20       		.byte	0x20
 10295 23f1 00       		.byte	0
 10296 23f2 1A       		.uleb128 0x1a
 10297 23f3 52040000 		.4byte	.LVL693
 10298 23f7 D6330000 		.4byte	0x33d6
 10299 23fb 0B240000 		.4byte	0x240b
 10300 23ff 19       		.uleb128 0x19
 10301 2400 01       		.uleb128 0x1
 10302 2401 51       		.byte	0x51
 10303 2402 02       		.uleb128 0x2
 10304 2403 74       		.byte	0x74
 10305 2404 00       		.sleb128 0
 10306 2405 19       		.uleb128 0x19
 10307 2406 01       		.uleb128 0x1
 10308 2407 52       		.byte	0x52
ARM GAS  C:\Users\FRANKL~1\AppData\Local\Temp\ccXJlYBQ.s 			page 214


 10309 2408 01       		.uleb128 0x1
 10310 2409 3A       		.byte	0x3a
 10311 240a 00       		.byte	0
 10312 240b 1A       		.uleb128 0x1a
 10313 240c 5E040000 		.4byte	.LVL695
 10314 2410 D6330000 		.4byte	0x33d6
 10315 2414 24240000 		.4byte	0x2424
 10316 2418 19       		.uleb128 0x19
 10317 2419 01       		.uleb128 0x1
 10318 241a 51       		.byte	0x51
 10319 241b 02       		.uleb128 0x2
 10320 241c 74       		.byte	0x74
 10321 241d 00       		.sleb128 0
 10322 241e 19       		.uleb128 0x19
 10323 241f 01       		.uleb128 0x1
 10324 2420 52       		.byte	0x52
 10325 2421 01       		.uleb128 0x1
 10326 2422 3A       		.byte	0x3a
 10327 2423 00       		.byte	0
 10328 2424 1A       		.uleb128 0x1a
 10329 2425 6A040000 		.4byte	.LVL697
 10330 2429 F21B0000 		.4byte	0x1bf2
 10331 242d 42240000 		.4byte	0x2442
 10332 2431 19       		.uleb128 0x19
 10333 2432 01       		.uleb128 0x1
 10334 2433 50       		.byte	0x50
 10335 2434 02       		.uleb128 0x2
 10336 2435 76       		.byte	0x76
 10337 2436 00       		.sleb128 0
 10338 2437 19       		.uleb128 0x19
 10339 2438 01       		.uleb128 0x1
 10340 2439 52       		.byte	0x52
 10341 243a 01       		.uleb128 0x1
 10342 243b 30       		.byte	0x30
 10343 243c 19       		.uleb128 0x19
 10344 243d 01       		.uleb128 0x1
 10345 243e 53       		.byte	0x53
 10346 243f 01       		.uleb128 0x1
 10347 2440 31       		.byte	0x31
 10348 2441 00       		.byte	0
 10349 2442 1A       		.uleb128 0x1a
 10350 2443 8C040000 		.4byte	.LVL698
 10351 2447 CA320000 		.4byte	0x32ca
 10352 244b 56240000 		.4byte	0x2456
 10353 244f 19       		.uleb128 0x19
 10354 2450 01       		.uleb128 0x1
 10355 2451 50       		.byte	0x50
 10356 2452 02       		.uleb128 0x2
 10357 2453 75       		.byte	0x75
 10358 2454 00       		.sleb128 0
 10359 2455 00       		.byte	0
 10360 2456 1A       		.uleb128 0x1a
 10361 2457 94040000 		.4byte	.LVL699
 10362 245b 80030000 		.4byte	0x380
 10363 245f 6A240000 		.4byte	0x246a
 10364 2463 19       		.uleb128 0x19
 10365 2464 01       		.uleb128 0x1
ARM GAS  C:\Users\FRANKL~1\AppData\Local\Temp\ccXJlYBQ.s 			page 215


 10366 2465 50       		.byte	0x50
 10367 2466 02       		.uleb128 0x2
 10368 2467 75       		.byte	0x75
 10369 2468 00       		.sleb128 0
 10370 2469 00       		.byte	0
 10371 246a 18       		.uleb128 0x18
 10372 246b 9A040000 		.4byte	.LVL700
 10373 246f E0320000 		.4byte	0x32e0
 10374 2473 19       		.uleb128 0x19
 10375 2474 01       		.uleb128 0x1
 10376 2475 50       		.byte	0x50
 10377 2476 02       		.uleb128 0x2
 10378 2477 75       		.byte	0x75
 10379 2478 00       		.sleb128 0
 10380 2479 00       		.byte	0
 10381 247a 00       		.byte	0
 10382 247b 13       		.uleb128 0x13
 10383 247c A8040000 		.4byte	.LBB70
 10384 2480 9A000000 		.4byte	.LBE70-.LBB70
 10385 2484 96250000 		.4byte	0x2596
 10386 2488 14       		.uleb128 0x14
 10387 2489 8F090000 		.4byte	.LASF139
 10388 248d 02       		.byte	0x2
 10389 248e C403     		.2byte	0x3c4
 10390 2490 92000000 		.4byte	0x92
 10391 2494 02       		.uleb128 0x2
 10392 2495 91       		.byte	0x91
 10393 2496 64       		.sleb128 -28
 10394 2497 15       		.uleb128 0x15
 10395 2498 E1010000 		.4byte	.LASF137
 10396 249c 02       		.byte	0x2
 10397 249d C503     		.2byte	0x3c5
 10398 249f B5000000 		.4byte	0xb5
 10399 24a3 C0140000 		.4byte	.LLST141
 10400 24a7 15       		.uleb128 0x15
 10401 24a8 A1000000 		.4byte	.LASF138
 10402 24ac 02       		.byte	0x2
 10403 24ad C603     		.2byte	0x3c6
 10404 24af B5000000 		.4byte	0xb5
 10405 24b3 D3140000 		.4byte	.LLST142
 10406 24b7 1A       		.uleb128 0x1a
 10407 24b8 D0040000 		.4byte	.LVL703
 10408 24bc CA320000 		.4byte	0x32ca
 10409 24c0 CB240000 		.4byte	0x24cb
 10410 24c4 19       		.uleb128 0x19
 10411 24c5 01       		.uleb128 0x1
 10412 24c6 50       		.byte	0x50
 10413 24c7 02       		.uleb128 0x2
 10414 24c8 75       		.byte	0x75
 10415 24c9 00       		.sleb128 0
 10416 24ca 00       		.byte	0
 10417 24cb 1A       		.uleb128 0x1a
 10418 24cc D8040000 		.4byte	.LVL704
 10419 24d0 80030000 		.4byte	0x380
 10420 24d4 DF240000 		.4byte	0x24df
 10421 24d8 19       		.uleb128 0x19
 10422 24d9 01       		.uleb128 0x1
ARM GAS  C:\Users\FRANKL~1\AppData\Local\Temp\ccXJlYBQ.s 			page 216


 10423 24da 50       		.byte	0x50
 10424 24db 02       		.uleb128 0x2
 10425 24dc 75       		.byte	0x75
 10426 24dd 00       		.sleb128 0
 10427 24de 00       		.byte	0
 10428 24df 1A       		.uleb128 0x1a
 10429 24e0 DE040000 		.4byte	.LVL705
 10430 24e4 E0320000 		.4byte	0x32e0
 10431 24e8 F3240000 		.4byte	0x24f3
 10432 24ec 19       		.uleb128 0x19
 10433 24ed 01       		.uleb128 0x1
 10434 24ee 50       		.byte	0x50
 10435 24ef 02       		.uleb128 0x2
 10436 24f0 75       		.byte	0x75
 10437 24f1 00       		.sleb128 0
 10438 24f2 00       		.byte	0
 10439 24f3 1A       		.uleb128 0x1a
 10440 24f4 E6040000 		.4byte	.LVL706
 10441 24f8 C7330000 		.4byte	0x33c7
 10442 24fc 0D250000 		.4byte	0x250d
 10443 2500 19       		.uleb128 0x19
 10444 2501 01       		.uleb128 0x1
 10445 2502 50       		.byte	0x50
 10446 2503 02       		.uleb128 0x2
 10447 2504 74       		.byte	0x74
 10448 2505 00       		.sleb128 0
 10449 2506 19       		.uleb128 0x19
 10450 2507 01       		.uleb128 0x1
 10451 2508 51       		.byte	0x51
 10452 2509 02       		.uleb128 0x2
 10453 250a 08       		.byte	0x8
 10454 250b 20       		.byte	0x20
 10455 250c 00       		.byte	0
 10456 250d 1A       		.uleb128 0x1a
 10457 250e F4040000 		.4byte	.LVL708
 10458 2512 D6330000 		.4byte	0x33d6
 10459 2516 26250000 		.4byte	0x2526
 10460 251a 19       		.uleb128 0x19
 10461 251b 01       		.uleb128 0x1
 10462 251c 51       		.byte	0x51
 10463 251d 02       		.uleb128 0x2
 10464 251e 74       		.byte	0x74
 10465 251f 00       		.sleb128 0
 10466 2520 19       		.uleb128 0x19
 10467 2521 01       		.uleb128 0x1
 10468 2522 52       		.byte	0x52
 10469 2523 01       		.uleb128 0x1
 10470 2524 3A       		.byte	0x3a
 10471 2525 00       		.byte	0
 10472 2526 1A       		.uleb128 0x1a
 10473 2527 00050000 		.4byte	.LVL710
 10474 252b D6330000 		.4byte	0x33d6
 10475 252f 3F250000 		.4byte	0x253f
 10476 2533 19       		.uleb128 0x19
 10477 2534 01       		.uleb128 0x1
 10478 2535 51       		.byte	0x51
 10479 2536 02       		.uleb128 0x2
ARM GAS  C:\Users\FRANKL~1\AppData\Local\Temp\ccXJlYBQ.s 			page 217


 10480 2537 74       		.byte	0x74
 10481 2538 00       		.sleb128 0
 10482 2539 19       		.uleb128 0x19
 10483 253a 01       		.uleb128 0x1
 10484 253b 52       		.byte	0x52
 10485 253c 01       		.uleb128 0x1
 10486 253d 3A       		.byte	0x3a
 10487 253e 00       		.byte	0
 10488 253f 1A       		.uleb128 0x1a
 10489 2540 0C050000 		.4byte	.LVL712
 10490 2544 F21B0000 		.4byte	0x1bf2
 10491 2548 5D250000 		.4byte	0x255d
 10492 254c 19       		.uleb128 0x19
 10493 254d 01       		.uleb128 0x1
 10494 254e 50       		.byte	0x50
 10495 254f 02       		.uleb128 0x2
 10496 2550 76       		.byte	0x76
 10497 2551 00       		.sleb128 0
 10498 2552 19       		.uleb128 0x19
 10499 2553 01       		.uleb128 0x1
 10500 2554 52       		.byte	0x52
 10501 2555 01       		.uleb128 0x1
 10502 2556 31       		.byte	0x31
 10503 2557 19       		.uleb128 0x19
 10504 2558 01       		.uleb128 0x1
 10505 2559 53       		.byte	0x53
 10506 255a 01       		.uleb128 0x1
 10507 255b 31       		.byte	0x31
 10508 255c 00       		.byte	0
 10509 255d 1A       		.uleb128 0x1a
 10510 255e 34050000 		.4byte	.LVL714
 10511 2562 CA320000 		.4byte	0x32ca
 10512 2566 71250000 		.4byte	0x2571
 10513 256a 19       		.uleb128 0x19
 10514 256b 01       		.uleb128 0x1
 10515 256c 50       		.byte	0x50
 10516 256d 02       		.uleb128 0x2
 10517 256e 74       		.byte	0x74
 10518 256f 00       		.sleb128 0
 10519 2570 00       		.byte	0
 10520 2571 1A       		.uleb128 0x1a
 10521 2572 3C050000 		.4byte	.LVL715
 10522 2576 80030000 		.4byte	0x380
 10523 257a 85250000 		.4byte	0x2585
 10524 257e 19       		.uleb128 0x19
 10525 257f 01       		.uleb128 0x1
 10526 2580 50       		.byte	0x50
 10527 2581 02       		.uleb128 0x2
 10528 2582 74       		.byte	0x74
 10529 2583 00       		.sleb128 0
 10530 2584 00       		.byte	0
 10531 2585 18       		.uleb128 0x18
 10532 2586 42050000 		.4byte	.LVL716
 10533 258a E0320000 		.4byte	0x32e0
 10534 258e 19       		.uleb128 0x19
 10535 258f 01       		.uleb128 0x1
 10536 2590 50       		.byte	0x50
ARM GAS  C:\Users\FRANKL~1\AppData\Local\Temp\ccXJlYBQ.s 			page 218


 10537 2591 02       		.uleb128 0x2
 10538 2592 74       		.byte	0x74
 10539 2593 00       		.sleb128 0
 10540 2594 00       		.byte	0
 10541 2595 00       		.byte	0
 10542 2596 13       		.uleb128 0x13
 10543 2597 50050000 		.4byte	.LBB71
 10544 259b 4E000000 		.4byte	.LBE71-.LBB71
 10545 259f 9A260000 		.4byte	0x269a
 10546 25a3 14       		.uleb128 0x14
 10547 25a4 8F090000 		.4byte	.LASF139
 10548 25a8 02       		.byte	0x2
 10549 25a9 CE03     		.2byte	0x3ce
 10550 25ab 92000000 		.4byte	0x92
 10551 25af 02       		.uleb128 0x2
 10552 25b0 91       		.byte	0x91
 10553 25b1 64       		.sleb128 -28
 10554 25b2 15       		.uleb128 0x15
 10555 25b3 64020000 		.4byte	.LASF63
 10556 25b7 02       		.byte	0x2
 10557 25b8 CF03     		.2byte	0x3cf
 10558 25ba B5000000 		.4byte	0xb5
 10559 25be F1140000 		.4byte	.LLST143
 10560 25c2 15       		.uleb128 0x15
 10561 25c3 930B0000 		.4byte	.LASF61
 10562 25c7 02       		.byte	0x2
 10563 25c8 D003     		.2byte	0x3d0
 10564 25ca B5000000 		.4byte	0xb5
 10565 25ce 04150000 		.4byte	.LLST144
 10566 25d2 1A       		.uleb128 0x1a
 10567 25d3 58050000 		.4byte	.LVL719
 10568 25d7 C7330000 		.4byte	0x33c7
 10569 25db EC250000 		.4byte	0x25ec
 10570 25df 19       		.uleb128 0x19
 10571 25e0 01       		.uleb128 0x1
 10572 25e1 50       		.byte	0x50
 10573 25e2 02       		.uleb128 0x2
 10574 25e3 74       		.byte	0x74
 10575 25e4 00       		.sleb128 0
 10576 25e5 19       		.uleb128 0x19
 10577 25e6 01       		.uleb128 0x1
 10578 25e7 51       		.byte	0x51
 10579 25e8 02       		.uleb128 0x2
 10580 25e9 08       		.byte	0x8
 10581 25ea 20       		.byte	0x20
 10582 25eb 00       		.byte	0
 10583 25ec 1A       		.uleb128 0x1a
 10584 25ed 66050000 		.4byte	.LVL721
 10585 25f1 D6330000 		.4byte	0x33d6
 10586 25f5 05260000 		.4byte	0x2605
 10587 25f9 19       		.uleb128 0x19
 10588 25fa 01       		.uleb128 0x1
 10589 25fb 51       		.byte	0x51
 10590 25fc 02       		.uleb128 0x2
 10591 25fd 74       		.byte	0x74
 10592 25fe 00       		.sleb128 0
 10593 25ff 19       		.uleb128 0x19
ARM GAS  C:\Users\FRANKL~1\AppData\Local\Temp\ccXJlYBQ.s 			page 219


 10594 2600 01       		.uleb128 0x1
 10595 2601 52       		.byte	0x52
 10596 2602 01       		.uleb128 0x1
 10597 2603 3A       		.byte	0x3a
 10598 2604 00       		.byte	0
 10599 2605 1A       		.uleb128 0x1a
 10600 2606 72050000 		.4byte	.LVL723
 10601 260a D6330000 		.4byte	0x33d6
 10602 260e 1E260000 		.4byte	0x261e
 10603 2612 19       		.uleb128 0x19
 10604 2613 01       		.uleb128 0x1
 10605 2614 51       		.byte	0x51
 10606 2615 02       		.uleb128 0x2
 10607 2616 74       		.byte	0x74
 10608 2617 00       		.sleb128 0
 10609 2618 19       		.uleb128 0x19
 10610 2619 01       		.uleb128 0x1
 10611 261a 52       		.byte	0x52
 10612 261b 01       		.uleb128 0x1
 10613 261c 3A       		.byte	0x3a
 10614 261d 00       		.byte	0
 10615 261e 1A       		.uleb128 0x1a
 10616 261f 7C050000 		.4byte	.LVL725
 10617 2623 590A0000 		.4byte	0xa59
 10618 2627 38260000 		.4byte	0x2638
 10619 262b 19       		.uleb128 0x19
 10620 262c 01       		.uleb128 0x1
 10621 262d 50       		.byte	0x50
 10622 262e 02       		.uleb128 0x2
 10623 262f 75       		.byte	0x75
 10624 2630 00       		.sleb128 0
 10625 2631 19       		.uleb128 0x19
 10626 2632 01       		.uleb128 0x1
 10627 2633 51       		.byte	0x51
 10628 2634 02       		.uleb128 0x2
 10629 2635 76       		.byte	0x76
 10630 2636 00       		.sleb128 0
 10631 2637 00       		.byte	0
 10632 2638 1A       		.uleb128 0x1a
 10633 2639 8A050000 		.4byte	.LVL726
 10634 263d 01330000 		.4byte	0x3301
 10635 2641 61260000 		.4byte	0x2661
 10636 2645 19       		.uleb128 0x19
 10637 2646 01       		.uleb128 0x1
 10638 2647 50       		.byte	0x50
 10639 2648 02       		.uleb128 0x2
 10640 2649 74       		.byte	0x74
 10641 264a 00       		.sleb128 0
 10642 264b 19       		.uleb128 0x19
 10643 264c 01       		.uleb128 0x1
 10644 264d 51       		.byte	0x51
 10645 264e 05       		.uleb128 0x5
 10646 264f 03       		.byte	0x3
 10647 2650 14030000 		.4byte	.LC44
 10648 2654 19       		.uleb128 0x19
 10649 2655 01       		.uleb128 0x1
 10650 2656 52       		.byte	0x52
ARM GAS  C:\Users\FRANKL~1\AppData\Local\Temp\ccXJlYBQ.s 			page 220


 10651 2657 02       		.uleb128 0x2
 10652 2658 75       		.byte	0x75
 10653 2659 00       		.sleb128 0
 10654 265a 19       		.uleb128 0x19
 10655 265b 01       		.uleb128 0x1
 10656 265c 53       		.byte	0x53
 10657 265d 02       		.uleb128 0x2
 10658 265e 76       		.byte	0x76
 10659 265f 00       		.sleb128 0
 10660 2660 00       		.byte	0
 10661 2661 1A       		.uleb128 0x1a
 10662 2662 90050000 		.4byte	.LVL727
 10663 2666 CA320000 		.4byte	0x32ca
 10664 266a 75260000 		.4byte	0x2675
 10665 266e 19       		.uleb128 0x19
 10666 266f 01       		.uleb128 0x1
 10667 2670 50       		.byte	0x50
 10668 2671 02       		.uleb128 0x2
 10669 2672 74       		.byte	0x74
 10670 2673 00       		.sleb128 0
 10671 2674 00       		.byte	0
 10672 2675 1A       		.uleb128 0x1a
 10673 2676 98050000 		.4byte	.LVL728
 10674 267a 80030000 		.4byte	0x380
 10675 267e 89260000 		.4byte	0x2689
 10676 2682 19       		.uleb128 0x19
 10677 2683 01       		.uleb128 0x1
 10678 2684 50       		.byte	0x50
 10679 2685 02       		.uleb128 0x2
 10680 2686 74       		.byte	0x74
 10681 2687 00       		.sleb128 0
 10682 2688 00       		.byte	0
 10683 2689 18       		.uleb128 0x18
 10684 268a 9E050000 		.4byte	.LVL729
 10685 268e E0320000 		.4byte	0x32e0
 10686 2692 19       		.uleb128 0x19
 10687 2693 01       		.uleb128 0x1
 10688 2694 50       		.byte	0x50
 10689 2695 02       		.uleb128 0x2
 10690 2696 74       		.byte	0x74
 10691 2697 00       		.sleb128 0
 10692 2698 00       		.byte	0
 10693 2699 00       		.byte	0
 10694 269a 13       		.uleb128 0x13
 10695 269b AC050000 		.4byte	.LBB72
 10696 269f 4E000000 		.4byte	.LBE72-.LBB72
 10697 26a3 9E270000 		.4byte	0x279e
 10698 26a7 14       		.uleb128 0x14
 10699 26a8 8F090000 		.4byte	.LASF139
 10700 26ac 02       		.byte	0x2
 10701 26ad D803     		.2byte	0x3d8
 10702 26af 92000000 		.4byte	0x92
 10703 26b3 02       		.uleb128 0x2
 10704 26b4 91       		.byte	0x91
 10705 26b5 64       		.sleb128 -28
 10706 26b6 15       		.uleb128 0x15
 10707 26b7 B40B0000 		.4byte	.LASF60
ARM GAS  C:\Users\FRANKL~1\AppData\Local\Temp\ccXJlYBQ.s 			page 221


 10708 26bb 02       		.byte	0x2
 10709 26bc D903     		.2byte	0x3d9
 10710 26be B5000000 		.4byte	0xb5
 10711 26c2 17150000 		.4byte	.LLST145
 10712 26c6 15       		.uleb128 0x15
 10713 26c7 930B0000 		.4byte	.LASF61
 10714 26cb 02       		.byte	0x2
 10715 26cc DA03     		.2byte	0x3da
 10716 26ce B5000000 		.4byte	0xb5
 10717 26d2 2A150000 		.4byte	.LLST146
 10718 26d6 1A       		.uleb128 0x1a
 10719 26d7 B4050000 		.4byte	.LVL732
 10720 26db C7330000 		.4byte	0x33c7
 10721 26df F0260000 		.4byte	0x26f0
 10722 26e3 19       		.uleb128 0x19
 10723 26e4 01       		.uleb128 0x1
 10724 26e5 50       		.byte	0x50
 10725 26e6 02       		.uleb128 0x2
 10726 26e7 74       		.byte	0x74
 10727 26e8 00       		.sleb128 0
 10728 26e9 19       		.uleb128 0x19
 10729 26ea 01       		.uleb128 0x1
 10730 26eb 51       		.byte	0x51
 10731 26ec 02       		.uleb128 0x2
 10732 26ed 08       		.byte	0x8
 10733 26ee 20       		.byte	0x20
 10734 26ef 00       		.byte	0
 10735 26f0 1A       		.uleb128 0x1a
 10736 26f1 C2050000 		.4byte	.LVL734
 10737 26f5 D6330000 		.4byte	0x33d6
 10738 26f9 09270000 		.4byte	0x2709
 10739 26fd 19       		.uleb128 0x19
 10740 26fe 01       		.uleb128 0x1
 10741 26ff 51       		.byte	0x51
 10742 2700 02       		.uleb128 0x2
 10743 2701 74       		.byte	0x74
 10744 2702 00       		.sleb128 0
 10745 2703 19       		.uleb128 0x19
 10746 2704 01       		.uleb128 0x1
 10747 2705 52       		.byte	0x52
 10748 2706 01       		.uleb128 0x1
 10749 2707 3A       		.byte	0x3a
 10750 2708 00       		.byte	0
 10751 2709 1A       		.uleb128 0x1a
 10752 270a CE050000 		.4byte	.LVL736
 10753 270e D6330000 		.4byte	0x33d6
 10754 2712 22270000 		.4byte	0x2722
 10755 2716 19       		.uleb128 0x19
 10756 2717 01       		.uleb128 0x1
 10757 2718 51       		.byte	0x51
 10758 2719 02       		.uleb128 0x2
 10759 271a 74       		.byte	0x74
 10760 271b 00       		.sleb128 0
 10761 271c 19       		.uleb128 0x19
 10762 271d 01       		.uleb128 0x1
 10763 271e 52       		.byte	0x52
 10764 271f 01       		.uleb128 0x1
ARM GAS  C:\Users\FRANKL~1\AppData\Local\Temp\ccXJlYBQ.s 			page 222


 10765 2720 3A       		.byte	0x3a
 10766 2721 00       		.byte	0
 10767 2722 1A       		.uleb128 0x1a
 10768 2723 D8050000 		.4byte	.LVL738
 10769 2727 1C0A0000 		.4byte	0xa1c
 10770 272b 3C270000 		.4byte	0x273c
 10771 272f 19       		.uleb128 0x19
 10772 2730 01       		.uleb128 0x1
 10773 2731 50       		.byte	0x50
 10774 2732 02       		.uleb128 0x2
 10775 2733 75       		.byte	0x75
 10776 2734 00       		.sleb128 0
 10777 2735 19       		.uleb128 0x19
 10778 2736 01       		.uleb128 0x1
 10779 2737 51       		.byte	0x51
 10780 2738 02       		.uleb128 0x2
 10781 2739 76       		.byte	0x76
 10782 273a 00       		.sleb128 0
 10783 273b 00       		.byte	0
 10784 273c 1A       		.uleb128 0x1a
 10785 273d E6050000 		.4byte	.LVL739
 10786 2741 01330000 		.4byte	0x3301
 10787 2745 65270000 		.4byte	0x2765
 10788 2749 19       		.uleb128 0x19
 10789 274a 01       		.uleb128 0x1
 10790 274b 50       		.byte	0x50
 10791 274c 02       		.uleb128 0x2
 10792 274d 74       		.byte	0x74
 10793 274e 00       		.sleb128 0
 10794 274f 19       		.uleb128 0x19
 10795 2750 01       		.uleb128 0x1
 10796 2751 51       		.byte	0x51
 10797 2752 05       		.uleb128 0x5
 10798 2753 03       		.byte	0x3
 10799 2754 38030000 		.4byte	.LC46
 10800 2758 19       		.uleb128 0x19
 10801 2759 01       		.uleb128 0x1
 10802 275a 52       		.byte	0x52
 10803 275b 02       		.uleb128 0x2
 10804 275c 75       		.byte	0x75
 10805 275d 00       		.sleb128 0
 10806 275e 19       		.uleb128 0x19
 10807 275f 01       		.uleb128 0x1
 10808 2760 53       		.byte	0x53
 10809 2761 02       		.uleb128 0x2
 10810 2762 76       		.byte	0x76
 10811 2763 00       		.sleb128 0
 10812 2764 00       		.byte	0
 10813 2765 1A       		.uleb128 0x1a
 10814 2766 EC050000 		.4byte	.LVL740
 10815 276a CA320000 		.4byte	0x32ca
 10816 276e 79270000 		.4byte	0x2779
 10817 2772 19       		.uleb128 0x19
 10818 2773 01       		.uleb128 0x1
 10819 2774 50       		.byte	0x50
 10820 2775 02       		.uleb128 0x2
 10821 2776 74       		.byte	0x74
ARM GAS  C:\Users\FRANKL~1\AppData\Local\Temp\ccXJlYBQ.s 			page 223


 10822 2777 00       		.sleb128 0
 10823 2778 00       		.byte	0
 10824 2779 1A       		.uleb128 0x1a
 10825 277a F4050000 		.4byte	.LVL741
 10826 277e 80030000 		.4byte	0x380
 10827 2782 8D270000 		.4byte	0x278d
 10828 2786 19       		.uleb128 0x19
 10829 2787 01       		.uleb128 0x1
 10830 2788 50       		.byte	0x50
 10831 2789 02       		.uleb128 0x2
 10832 278a 74       		.byte	0x74
 10833 278b 00       		.sleb128 0
 10834 278c 00       		.byte	0
 10835 278d 18       		.uleb128 0x18
 10836 278e FA050000 		.4byte	.LVL742
 10837 2792 E0320000 		.4byte	0x32e0
 10838 2796 19       		.uleb128 0x19
 10839 2797 01       		.uleb128 0x1
 10840 2798 50       		.byte	0x50
 10841 2799 02       		.uleb128 0x2
 10842 279a 74       		.byte	0x74
 10843 279b 00       		.sleb128 0
 10844 279c 00       		.byte	0
 10845 279d 00       		.byte	0
 10846 279e 13       		.uleb128 0x13
 10847 279f 08060000 		.4byte	.LBB73
 10848 27a3 4E000000 		.4byte	.LBE73-.LBB73
 10849 27a7 A2280000 		.4byte	0x28a2
 10850 27ab 14       		.uleb128 0x14
 10851 27ac 8F090000 		.4byte	.LASF139
 10852 27b0 02       		.byte	0x2
 10853 27b1 E203     		.2byte	0x3e2
 10854 27b3 92000000 		.4byte	0x92
 10855 27b7 02       		.uleb128 0x2
 10856 27b8 91       		.byte	0x91
 10857 27b9 64       		.sleb128 -28
 10858 27ba 15       		.uleb128 0x15
 10859 27bb 64020000 		.4byte	.LASF63
 10860 27bf 02       		.byte	0x2
 10861 27c0 E303     		.2byte	0x3e3
 10862 27c2 B5000000 		.4byte	0xb5
 10863 27c6 3D150000 		.4byte	.LLST147
 10864 27ca 15       		.uleb128 0x15
 10865 27cb 930B0000 		.4byte	.LASF61
 10866 27cf 02       		.byte	0x2
 10867 27d0 E403     		.2byte	0x3e4
 10868 27d2 B5000000 		.4byte	0xb5
 10869 27d6 50150000 		.4byte	.LLST148
 10870 27da 1A       		.uleb128 0x1a
 10871 27db 10060000 		.4byte	.LVL745
 10872 27df C7330000 		.4byte	0x33c7
 10873 27e3 F4270000 		.4byte	0x27f4
 10874 27e7 19       		.uleb128 0x19
 10875 27e8 01       		.uleb128 0x1
 10876 27e9 50       		.byte	0x50
 10877 27ea 02       		.uleb128 0x2
 10878 27eb 74       		.byte	0x74
ARM GAS  C:\Users\FRANKL~1\AppData\Local\Temp\ccXJlYBQ.s 			page 224


 10879 27ec 00       		.sleb128 0
 10880 27ed 19       		.uleb128 0x19
 10881 27ee 01       		.uleb128 0x1
 10882 27ef 51       		.byte	0x51
 10883 27f0 02       		.uleb128 0x2
 10884 27f1 08       		.byte	0x8
 10885 27f2 20       		.byte	0x20
 10886 27f3 00       		.byte	0
 10887 27f4 1A       		.uleb128 0x1a
 10888 27f5 1E060000 		.4byte	.LVL747
 10889 27f9 D6330000 		.4byte	0x33d6
 10890 27fd 0D280000 		.4byte	0x280d
 10891 2801 19       		.uleb128 0x19
 10892 2802 01       		.uleb128 0x1
 10893 2803 51       		.byte	0x51
 10894 2804 02       		.uleb128 0x2
 10895 2805 74       		.byte	0x74
 10896 2806 00       		.sleb128 0
 10897 2807 19       		.uleb128 0x19
 10898 2808 01       		.uleb128 0x1
 10899 2809 52       		.byte	0x52
 10900 280a 01       		.uleb128 0x1
 10901 280b 3A       		.byte	0x3a
 10902 280c 00       		.byte	0
 10903 280d 1A       		.uleb128 0x1a
 10904 280e 2A060000 		.4byte	.LVL749
 10905 2812 D6330000 		.4byte	0x33d6
 10906 2816 26280000 		.4byte	0x2826
 10907 281a 19       		.uleb128 0x19
 10908 281b 01       		.uleb128 0x1
 10909 281c 51       		.byte	0x51
 10910 281d 02       		.uleb128 0x2
 10911 281e 74       		.byte	0x74
 10912 281f 00       		.sleb128 0
 10913 2820 19       		.uleb128 0x19
 10914 2821 01       		.uleb128 0x1
 10915 2822 52       		.byte	0x52
 10916 2823 01       		.uleb128 0x1
 10917 2824 3A       		.byte	0x3a
 10918 2825 00       		.byte	0
 10919 2826 1A       		.uleb128 0x1a
 10920 2827 34060000 		.4byte	.LVL751
 10921 282b A50A0000 		.4byte	0xaa5
 10922 282f 40280000 		.4byte	0x2840
 10923 2833 19       		.uleb128 0x19
 10924 2834 01       		.uleb128 0x1
 10925 2835 50       		.byte	0x50
 10926 2836 02       		.uleb128 0x2
 10927 2837 75       		.byte	0x75
 10928 2838 00       		.sleb128 0
 10929 2839 19       		.uleb128 0x19
 10930 283a 01       		.uleb128 0x1
 10931 283b 51       		.byte	0x51
 10932 283c 02       		.uleb128 0x2
 10933 283d 76       		.byte	0x76
 10934 283e 00       		.sleb128 0
 10935 283f 00       		.byte	0
ARM GAS  C:\Users\FRANKL~1\AppData\Local\Temp\ccXJlYBQ.s 			page 225


 10936 2840 1A       		.uleb128 0x1a
 10937 2841 42060000 		.4byte	.LVL752
 10938 2845 01330000 		.4byte	0x3301
 10939 2849 69280000 		.4byte	0x2869
 10940 284d 19       		.uleb128 0x19
 10941 284e 01       		.uleb128 0x1
 10942 284f 50       		.byte	0x50
 10943 2850 02       		.uleb128 0x2
 10944 2851 74       		.byte	0x74
 10945 2852 00       		.sleb128 0
 10946 2853 19       		.uleb128 0x19
 10947 2854 01       		.uleb128 0x1
 10948 2855 51       		.byte	0x51
 10949 2856 05       		.uleb128 0x5
 10950 2857 03       		.byte	0x3
 10951 2858 64030000 		.4byte	.LC48
 10952 285c 19       		.uleb128 0x19
 10953 285d 01       		.uleb128 0x1
 10954 285e 52       		.byte	0x52
 10955 285f 02       		.uleb128 0x2
 10956 2860 75       		.byte	0x75
 10957 2861 00       		.sleb128 0
 10958 2862 19       		.uleb128 0x19
 10959 2863 01       		.uleb128 0x1
 10960 2864 53       		.byte	0x53
 10961 2865 02       		.uleb128 0x2
 10962 2866 76       		.byte	0x76
 10963 2867 00       		.sleb128 0
 10964 2868 00       		.byte	0
 10965 2869 1A       		.uleb128 0x1a
 10966 286a 48060000 		.4byte	.LVL753
 10967 286e CA320000 		.4byte	0x32ca
 10968 2872 7D280000 		.4byte	0x287d
 10969 2876 19       		.uleb128 0x19
 10970 2877 01       		.uleb128 0x1
 10971 2878 50       		.byte	0x50
 10972 2879 02       		.uleb128 0x2
 10973 287a 74       		.byte	0x74
 10974 287b 00       		.sleb128 0
 10975 287c 00       		.byte	0
 10976 287d 1A       		.uleb128 0x1a
 10977 287e 50060000 		.4byte	.LVL754
 10978 2882 80030000 		.4byte	0x380
 10979 2886 91280000 		.4byte	0x2891
 10980 288a 19       		.uleb128 0x19
 10981 288b 01       		.uleb128 0x1
 10982 288c 50       		.byte	0x50
 10983 288d 02       		.uleb128 0x2
 10984 288e 74       		.byte	0x74
 10985 288f 00       		.sleb128 0
 10986 2890 00       		.byte	0
 10987 2891 18       		.uleb128 0x18
 10988 2892 56060000 		.4byte	.LVL755
 10989 2896 E0320000 		.4byte	0x32e0
 10990 289a 19       		.uleb128 0x19
 10991 289b 01       		.uleb128 0x1
 10992 289c 50       		.byte	0x50
ARM GAS  C:\Users\FRANKL~1\AppData\Local\Temp\ccXJlYBQ.s 			page 226


 10993 289d 02       		.uleb128 0x2
 10994 289e 74       		.byte	0x74
 10995 289f 00       		.sleb128 0
 10996 28a0 00       		.byte	0
 10997 28a1 00       		.byte	0
 10998 28a2 13       		.uleb128 0x13
 10999 28a3 64060000 		.4byte	.LBB74
 11000 28a7 3C000000 		.4byte	.LBE74-.LBB74
 11001 28ab 71290000 		.4byte	0x2971
 11002 28af 14       		.uleb128 0x14
 11003 28b0 8F090000 		.4byte	.LASF139
 11004 28b4 02       		.byte	0x2
 11005 28b5 EC03     		.2byte	0x3ec
 11006 28b7 92000000 		.4byte	0x92
 11007 28bb 02       		.uleb128 0x2
 11008 28bc 91       		.byte	0x91
 11009 28bd 64       		.sleb128 -28
 11010 28be 15       		.uleb128 0x15
 11011 28bf 930B0000 		.4byte	.LASF61
 11012 28c3 02       		.byte	0x2
 11013 28c4 ED03     		.2byte	0x3ed
 11014 28c6 B5000000 		.4byte	0xb5
 11015 28ca 63150000 		.4byte	.LLST149
 11016 28ce 1A       		.uleb128 0x1a
 11017 28cf 6C060000 		.4byte	.LVL758
 11018 28d3 C7330000 		.4byte	0x33c7
 11019 28d7 E8280000 		.4byte	0x28e8
 11020 28db 19       		.uleb128 0x19
 11021 28dc 01       		.uleb128 0x1
 11022 28dd 50       		.byte	0x50
 11023 28de 02       		.uleb128 0x2
 11024 28df 74       		.byte	0x74
 11025 28e0 00       		.sleb128 0
 11026 28e1 19       		.uleb128 0x19
 11027 28e2 01       		.uleb128 0x1
 11028 28e3 51       		.byte	0x51
 11029 28e4 02       		.uleb128 0x2
 11030 28e5 08       		.byte	0x8
 11031 28e6 20       		.byte	0x20
 11032 28e7 00       		.byte	0
 11033 28e8 1A       		.uleb128 0x1a
 11034 28e9 78060000 		.4byte	.LVL759
 11035 28ed D6330000 		.4byte	0x33d6
 11036 28f1 01290000 		.4byte	0x2901
 11037 28f5 19       		.uleb128 0x19
 11038 28f6 01       		.uleb128 0x1
 11039 28f7 51       		.byte	0x51
 11040 28f8 02       		.uleb128 0x2
 11041 28f9 91       		.byte	0x91
 11042 28fa 64       		.sleb128 -28
 11043 28fb 19       		.uleb128 0x19
 11044 28fc 01       		.uleb128 0x1
 11045 28fd 52       		.byte	0x52
 11046 28fe 01       		.uleb128 0x1
 11047 28ff 3A       		.byte	0x3a
 11048 2900 00       		.byte	0
 11049 2901 1A       		.uleb128 0x1a
ARM GAS  C:\Users\FRANKL~1\AppData\Local\Temp\ccXJlYBQ.s 			page 227


 11050 2902 80060000 		.4byte	.LVL761
 11051 2906 B00B0000 		.4byte	0xbb0
 11052 290a 15290000 		.4byte	0x2915
 11053 290e 19       		.uleb128 0x19
 11054 290f 01       		.uleb128 0x1
 11055 2910 50       		.byte	0x50
 11056 2911 02       		.uleb128 0x2
 11057 2912 75       		.byte	0x75
 11058 2913 00       		.sleb128 0
 11059 2914 00       		.byte	0
 11060 2915 1A       		.uleb128 0x1a
 11061 2916 8C060000 		.4byte	.LVL763
 11062 291a 01330000 		.4byte	0x3301
 11063 291e 38290000 		.4byte	0x2938
 11064 2922 19       		.uleb128 0x19
 11065 2923 01       		.uleb128 0x1
 11066 2924 50       		.byte	0x50
 11067 2925 02       		.uleb128 0x2
 11068 2926 74       		.byte	0x74
 11069 2927 00       		.sleb128 0
 11070 2928 19       		.uleb128 0x19
 11071 2929 01       		.uleb128 0x1
 11072 292a 51       		.byte	0x51
 11073 292b 05       		.uleb128 0x5
 11074 292c 03       		.byte	0x3
 11075 292d 98030000 		.4byte	.LC50
 11076 2931 19       		.uleb128 0x19
 11077 2932 01       		.uleb128 0x1
 11078 2933 52       		.byte	0x52
 11079 2934 02       		.uleb128 0x2
 11080 2935 75       		.byte	0x75
 11081 2936 00       		.sleb128 0
 11082 2937 00       		.byte	0
 11083 2938 1A       		.uleb128 0x1a
 11084 2939 92060000 		.4byte	.LVL764
 11085 293d CA320000 		.4byte	0x32ca
 11086 2941 4C290000 		.4byte	0x294c
 11087 2945 19       		.uleb128 0x19
 11088 2946 01       		.uleb128 0x1
 11089 2947 50       		.byte	0x50
 11090 2948 02       		.uleb128 0x2
 11091 2949 74       		.byte	0x74
 11092 294a 00       		.sleb128 0
 11093 294b 00       		.byte	0
 11094 294c 1A       		.uleb128 0x1a
 11095 294d 9A060000 		.4byte	.LVL765
 11096 2951 80030000 		.4byte	0x380
 11097 2955 60290000 		.4byte	0x2960
 11098 2959 19       		.uleb128 0x19
 11099 295a 01       		.uleb128 0x1
 11100 295b 50       		.byte	0x50
 11101 295c 02       		.uleb128 0x2
 11102 295d 74       		.byte	0x74
 11103 295e 00       		.sleb128 0
 11104 295f 00       		.byte	0
 11105 2960 18       		.uleb128 0x18
 11106 2961 A0060000 		.4byte	.LVL766
ARM GAS  C:\Users\FRANKL~1\AppData\Local\Temp\ccXJlYBQ.s 			page 228


 11107 2965 E0320000 		.4byte	0x32e0
 11108 2969 19       		.uleb128 0x19
 11109 296a 01       		.uleb128 0x1
 11110 296b 50       		.byte	0x50
 11111 296c 02       		.uleb128 0x2
 11112 296d 74       		.byte	0x74
 11113 296e 00       		.sleb128 0
 11114 296f 00       		.byte	0
 11115 2970 00       		.byte	0
 11116 2971 13       		.uleb128 0x13
 11117 2972 38070000 		.4byte	.LBB75
 11118 2976 3C000000 		.4byte	.LBE75-.LBB75
 11119 297a 402A0000 		.4byte	0x2a40
 11120 297e 14       		.uleb128 0x14
 11121 297f 8F090000 		.4byte	.LASF139
 11122 2983 02       		.byte	0x2
 11123 2984 FC03     		.2byte	0x3fc
 11124 2986 92000000 		.4byte	0x92
 11125 298a 02       		.uleb128 0x2
 11126 298b 91       		.byte	0x91
 11127 298c 64       		.sleb128 -28
 11128 298d 15       		.uleb128 0x15
 11129 298e 64020000 		.4byte	.LASF63
 11130 2992 02       		.byte	0x2
 11131 2993 FD03     		.2byte	0x3fd
 11132 2995 B5000000 		.4byte	0xb5
 11133 2999 76150000 		.4byte	.LLST150
 11134 299d 1A       		.uleb128 0x1a
 11135 299e 40070000 		.4byte	.LVL776
 11136 29a2 C7330000 		.4byte	0x33c7
 11137 29a6 B7290000 		.4byte	0x29b7
 11138 29aa 19       		.uleb128 0x19
 11139 29ab 01       		.uleb128 0x1
 11140 29ac 50       		.byte	0x50
 11141 29ad 02       		.uleb128 0x2
 11142 29ae 74       		.byte	0x74
 11143 29af 00       		.sleb128 0
 11144 29b0 19       		.uleb128 0x19
 11145 29b1 01       		.uleb128 0x1
 11146 29b2 51       		.byte	0x51
 11147 29b3 02       		.uleb128 0x2
 11148 29b4 08       		.byte	0x8
 11149 29b5 20       		.byte	0x20
 11150 29b6 00       		.byte	0
 11151 29b7 1A       		.uleb128 0x1a
 11152 29b8 4C070000 		.4byte	.LVL777
 11153 29bc D6330000 		.4byte	0x33d6
 11154 29c0 D0290000 		.4byte	0x29d0
 11155 29c4 19       		.uleb128 0x19
 11156 29c5 01       		.uleb128 0x1
 11157 29c6 51       		.byte	0x51
 11158 29c7 02       		.uleb128 0x2
 11159 29c8 91       		.byte	0x91
 11160 29c9 64       		.sleb128 -28
 11161 29ca 19       		.uleb128 0x19
 11162 29cb 01       		.uleb128 0x1
 11163 29cc 52       		.byte	0x52
ARM GAS  C:\Users\FRANKL~1\AppData\Local\Temp\ccXJlYBQ.s 			page 229


 11164 29cd 01       		.uleb128 0x1
 11165 29ce 3A       		.byte	0x3a
 11166 29cf 00       		.byte	0
 11167 29d0 1A       		.uleb128 0x1a
 11168 29d1 54070000 		.4byte	.LVL779
 11169 29d5 F10A0000 		.4byte	0xaf1
 11170 29d9 E4290000 		.4byte	0x29e4
 11171 29dd 19       		.uleb128 0x19
 11172 29de 01       		.uleb128 0x1
 11173 29df 50       		.byte	0x50
 11174 29e0 02       		.uleb128 0x2
 11175 29e1 75       		.byte	0x75
 11176 29e2 00       		.sleb128 0
 11177 29e3 00       		.byte	0
 11178 29e4 1A       		.uleb128 0x1a
 11179 29e5 60070000 		.4byte	.LVL781
 11180 29e9 01330000 		.4byte	0x3301
 11181 29ed 072A0000 		.4byte	0x2a07
 11182 29f1 19       		.uleb128 0x19
 11183 29f2 01       		.uleb128 0x1
 11184 29f3 50       		.byte	0x50
 11185 29f4 02       		.uleb128 0x2
 11186 29f5 74       		.byte	0x74
 11187 29f6 00       		.sleb128 0
 11188 29f7 19       		.uleb128 0x19
 11189 29f8 01       		.uleb128 0x1
 11190 29f9 51       		.byte	0x51
 11191 29fa 05       		.uleb128 0x5
 11192 29fb 03       		.byte	0x3
 11193 29fc 0C040000 		.4byte	.LC54
 11194 2a00 19       		.uleb128 0x19
 11195 2a01 01       		.uleb128 0x1
 11196 2a02 52       		.byte	0x52
 11197 2a03 02       		.uleb128 0x2
 11198 2a04 75       		.byte	0x75
 11199 2a05 00       		.sleb128 0
 11200 2a06 00       		.byte	0
 11201 2a07 1A       		.uleb128 0x1a
 11202 2a08 66070000 		.4byte	.LVL782
 11203 2a0c CA320000 		.4byte	0x32ca
 11204 2a10 1B2A0000 		.4byte	0x2a1b
 11205 2a14 19       		.uleb128 0x19
 11206 2a15 01       		.uleb128 0x1
 11207 2a16 50       		.byte	0x50
 11208 2a17 02       		.uleb128 0x2
 11209 2a18 74       		.byte	0x74
 11210 2a19 00       		.sleb128 0
 11211 2a1a 00       		.byte	0
 11212 2a1b 1A       		.uleb128 0x1a
 11213 2a1c 6E070000 		.4byte	.LVL783
 11214 2a20 80030000 		.4byte	0x380
 11215 2a24 2F2A0000 		.4byte	0x2a2f
 11216 2a28 19       		.uleb128 0x19
 11217 2a29 01       		.uleb128 0x1
 11218 2a2a 50       		.byte	0x50
 11219 2a2b 02       		.uleb128 0x2
 11220 2a2c 74       		.byte	0x74
ARM GAS  C:\Users\FRANKL~1\AppData\Local\Temp\ccXJlYBQ.s 			page 230


 11221 2a2d 00       		.sleb128 0
 11222 2a2e 00       		.byte	0
 11223 2a2f 18       		.uleb128 0x18
 11224 2a30 74070000 		.4byte	.LVL784
 11225 2a34 E0320000 		.4byte	0x32e0
 11226 2a38 19       		.uleb128 0x19
 11227 2a39 01       		.uleb128 0x1
 11228 2a3a 50       		.byte	0x50
 11229 2a3b 02       		.uleb128 0x2
 11230 2a3c 74       		.byte	0x74
 11231 2a3d 00       		.sleb128 0
 11232 2a3e 00       		.byte	0
 11233 2a3f 00       		.byte	0
 11234 2a40 13       		.uleb128 0x13
 11235 2a41 82070000 		.4byte	.LBB76
 11236 2a45 3C000000 		.4byte	.LBE76-.LBB76
 11237 2a49 0F2B0000 		.4byte	0x2b0f
 11238 2a4d 14       		.uleb128 0x14
 11239 2a4e 8F090000 		.4byte	.LASF139
 11240 2a52 02       		.byte	0x2
 11241 2a53 0504     		.2byte	0x405
 11242 2a55 92000000 		.4byte	0x92
 11243 2a59 02       		.uleb128 0x2
 11244 2a5a 91       		.byte	0x91
 11245 2a5b 64       		.sleb128 -28
 11246 2a5c 15       		.uleb128 0x15
 11247 2a5d 930B0000 		.4byte	.LASF61
 11248 2a61 02       		.byte	0x2
 11249 2a62 0604     		.2byte	0x406
 11250 2a64 B5000000 		.4byte	0xb5
 11251 2a68 89150000 		.4byte	.LLST151
 11252 2a6c 1A       		.uleb128 0x1a
 11253 2a6d 8A070000 		.4byte	.LVL787
 11254 2a71 C7330000 		.4byte	0x33c7
 11255 2a75 862A0000 		.4byte	0x2a86
 11256 2a79 19       		.uleb128 0x19
 11257 2a7a 01       		.uleb128 0x1
 11258 2a7b 50       		.byte	0x50
 11259 2a7c 02       		.uleb128 0x2
 11260 2a7d 74       		.byte	0x74
 11261 2a7e 00       		.sleb128 0
 11262 2a7f 19       		.uleb128 0x19
 11263 2a80 01       		.uleb128 0x1
 11264 2a81 51       		.byte	0x51
 11265 2a82 02       		.uleb128 0x2
 11266 2a83 08       		.byte	0x8
 11267 2a84 20       		.byte	0x20
 11268 2a85 00       		.byte	0
 11269 2a86 1A       		.uleb128 0x1a
 11270 2a87 96070000 		.4byte	.LVL788
 11271 2a8b D6330000 		.4byte	0x33d6
 11272 2a8f 9F2A0000 		.4byte	0x2a9f
 11273 2a93 19       		.uleb128 0x19
 11274 2a94 01       		.uleb128 0x1
 11275 2a95 51       		.byte	0x51
 11276 2a96 02       		.uleb128 0x2
 11277 2a97 91       		.byte	0x91
ARM GAS  C:\Users\FRANKL~1\AppData\Local\Temp\ccXJlYBQ.s 			page 231


 11278 2a98 64       		.sleb128 -28
 11279 2a99 19       		.uleb128 0x19
 11280 2a9a 01       		.uleb128 0x1
 11281 2a9b 52       		.byte	0x52
 11282 2a9c 01       		.uleb128 0x1
 11283 2a9d 3A       		.byte	0x3a
 11284 2a9e 00       		.byte	0
 11285 2a9f 1A       		.uleb128 0x1a
 11286 2aa0 9E070000 		.4byte	.LVL790
 11287 2aa4 FB0B0000 		.4byte	0xbfb
 11288 2aa8 B32A0000 		.4byte	0x2ab3
 11289 2aac 19       		.uleb128 0x19
 11290 2aad 01       		.uleb128 0x1
 11291 2aae 50       		.byte	0x50
 11292 2aaf 02       		.uleb128 0x2
 11293 2ab0 75       		.byte	0x75
 11294 2ab1 00       		.sleb128 0
 11295 2ab2 00       		.byte	0
 11296 2ab3 1A       		.uleb128 0x1a
 11297 2ab4 AA070000 		.4byte	.LVL792
 11298 2ab8 01330000 		.4byte	0x3301
 11299 2abc D62A0000 		.4byte	0x2ad6
 11300 2ac0 19       		.uleb128 0x19
 11301 2ac1 01       		.uleb128 0x1
 11302 2ac2 50       		.byte	0x50
 11303 2ac3 02       		.uleb128 0x2
 11304 2ac4 74       		.byte	0x74
 11305 2ac5 00       		.sleb128 0
 11306 2ac6 19       		.uleb128 0x19
 11307 2ac7 01       		.uleb128 0x1
 11308 2ac8 51       		.byte	0x51
 11309 2ac9 05       		.uleb128 0x5
 11310 2aca 03       		.byte	0x3
 11311 2acb 44040000 		.4byte	.LC56
 11312 2acf 19       		.uleb128 0x19
 11313 2ad0 01       		.uleb128 0x1
 11314 2ad1 52       		.byte	0x52
 11315 2ad2 02       		.uleb128 0x2
 11316 2ad3 75       		.byte	0x75
 11317 2ad4 00       		.sleb128 0
 11318 2ad5 00       		.byte	0
 11319 2ad6 1A       		.uleb128 0x1a
 11320 2ad7 B0070000 		.4byte	.LVL793
 11321 2adb CA320000 		.4byte	0x32ca
 11322 2adf EA2A0000 		.4byte	0x2aea
 11323 2ae3 19       		.uleb128 0x19
 11324 2ae4 01       		.uleb128 0x1
 11325 2ae5 50       		.byte	0x50
 11326 2ae6 02       		.uleb128 0x2
 11327 2ae7 74       		.byte	0x74
 11328 2ae8 00       		.sleb128 0
 11329 2ae9 00       		.byte	0
 11330 2aea 1A       		.uleb128 0x1a
 11331 2aeb B8070000 		.4byte	.LVL794
 11332 2aef 80030000 		.4byte	0x380
 11333 2af3 FE2A0000 		.4byte	0x2afe
 11334 2af7 19       		.uleb128 0x19
ARM GAS  C:\Users\FRANKL~1\AppData\Local\Temp\ccXJlYBQ.s 			page 232


 11335 2af8 01       		.uleb128 0x1
 11336 2af9 50       		.byte	0x50
 11337 2afa 02       		.uleb128 0x2
 11338 2afb 74       		.byte	0x74
 11339 2afc 00       		.sleb128 0
 11340 2afd 00       		.byte	0
 11341 2afe 18       		.uleb128 0x18
 11342 2aff BE070000 		.4byte	.LVL795
 11343 2b03 E0320000 		.4byte	0x32e0
 11344 2b07 19       		.uleb128 0x19
 11345 2b08 01       		.uleb128 0x1
 11346 2b09 50       		.byte	0x50
 11347 2b0a 02       		.uleb128 0x2
 11348 2b0b 74       		.byte	0x74
 11349 2b0c 00       		.sleb128 0
 11350 2b0d 00       		.byte	0
 11351 2b0e 00       		.byte	0
 11352 2b0f 13       		.uleb128 0x13
 11353 2b10 08080000 		.4byte	.LBB77
 11354 2b14 54000000 		.4byte	.LBE77-.LBB77
 11355 2b18 A72B0000 		.4byte	0x2ba7
 11356 2b1c 14       		.uleb128 0x14
 11357 2b1d 8F090000 		.4byte	.LASF139
 11358 2b21 02       		.byte	0x2
 11359 2b22 1504     		.2byte	0x415
 11360 2b24 92000000 		.4byte	0x92
 11361 2b28 02       		.uleb128 0x2
 11362 2b29 91       		.byte	0x91
 11363 2b2a 64       		.sleb128 -28
 11364 2b2b 15       		.uleb128 0x15
 11365 2b2c 110A0000 		.4byte	.LASF49
 11366 2b30 02       		.byte	0x2
 11367 2b31 1604     		.2byte	0x416
 11368 2b33 CD000000 		.4byte	0xcd
 11369 2b37 9C150000 		.4byte	.LLST152
 11370 2b3b 1A       		.uleb128 0x1a
 11371 2b3c 10080000 		.4byte	.LVL805
 11372 2b40 C7330000 		.4byte	0x33c7
 11373 2b44 552B0000 		.4byte	0x2b55
 11374 2b48 19       		.uleb128 0x19
 11375 2b49 01       		.uleb128 0x1
 11376 2b4a 50       		.byte	0x50
 11377 2b4b 02       		.uleb128 0x2
 11378 2b4c 74       		.byte	0x74
 11379 2b4d 00       		.sleb128 0
 11380 2b4e 19       		.uleb128 0x19
 11381 2b4f 01       		.uleb128 0x1
 11382 2b50 51       		.byte	0x51
 11383 2b51 02       		.uleb128 0x2
 11384 2b52 08       		.byte	0x8
 11385 2b53 20       		.byte	0x20
 11386 2b54 00       		.byte	0
 11387 2b55 1A       		.uleb128 0x1a
 11388 2b56 1C080000 		.4byte	.LVL806
 11389 2b5a D6330000 		.4byte	0x33d6
 11390 2b5e 6E2B0000 		.4byte	0x2b6e
 11391 2b62 19       		.uleb128 0x19
ARM GAS  C:\Users\FRANKL~1\AppData\Local\Temp\ccXJlYBQ.s 			page 233


 11392 2b63 01       		.uleb128 0x1
 11393 2b64 51       		.byte	0x51
 11394 2b65 02       		.uleb128 0x2
 11395 2b66 91       		.byte	0x91
 11396 2b67 64       		.sleb128 -28
 11397 2b68 19       		.uleb128 0x19
 11398 2b69 01       		.uleb128 0x1
 11399 2b6a 52       		.byte	0x52
 11400 2b6b 01       		.uleb128 0x1
 11401 2b6c 3A       		.byte	0x3a
 11402 2b6d 00       		.byte	0
 11403 2b6e 1A       		.uleb128 0x1a
 11404 2b6f 4E080000 		.4byte	.LVL809
 11405 2b73 CA320000 		.4byte	0x32ca
 11406 2b77 822B0000 		.4byte	0x2b82
 11407 2b7b 19       		.uleb128 0x19
 11408 2b7c 01       		.uleb128 0x1
 11409 2b7d 50       		.byte	0x50
 11410 2b7e 02       		.uleb128 0x2
 11411 2b7f 74       		.byte	0x74
 11412 2b80 00       		.sleb128 0
 11413 2b81 00       		.byte	0
 11414 2b82 1A       		.uleb128 0x1a
 11415 2b83 56080000 		.4byte	.LVL810
 11416 2b87 80030000 		.4byte	0x380
 11417 2b8b 962B0000 		.4byte	0x2b96
 11418 2b8f 19       		.uleb128 0x19
 11419 2b90 01       		.uleb128 0x1
 11420 2b91 50       		.byte	0x50
 11421 2b92 02       		.uleb128 0x2
 11422 2b93 74       		.byte	0x74
 11423 2b94 00       		.sleb128 0
 11424 2b95 00       		.byte	0
 11425 2b96 18       		.uleb128 0x18
 11426 2b97 5C080000 		.4byte	.LVL811
 11427 2b9b E0320000 		.4byte	0x32e0
 11428 2b9f 19       		.uleb128 0x19
 11429 2ba0 01       		.uleb128 0x1
 11430 2ba1 50       		.byte	0x50
 11431 2ba2 02       		.uleb128 0x2
 11432 2ba3 74       		.byte	0x74
 11433 2ba4 00       		.sleb128 0
 11434 2ba5 00       		.byte	0
 11435 2ba6 00       		.byte	0
 11436 2ba7 1A       		.uleb128 0x1a
 11437 2ba8 94000000 		.4byte	.LVL600
 11438 2bac 72320000 		.4byte	0x3272
 11439 2bb0 C42B0000 		.4byte	0x2bc4
 11440 2bb4 19       		.uleb128 0x19
 11441 2bb5 01       		.uleb128 0x1
 11442 2bb6 50       		.byte	0x50
 11443 2bb7 02       		.uleb128 0x2
 11444 2bb8 74       		.byte	0x74
 11445 2bb9 00       		.sleb128 0
 11446 2bba 19       		.uleb128 0x19
 11447 2bbb 01       		.uleb128 0x1
 11448 2bbc 51       		.byte	0x51
ARM GAS  C:\Users\FRANKL~1\AppData\Local\Temp\ccXJlYBQ.s 			page 234


 11449 2bbd 05       		.uleb128 0x5
 11450 2bbe 03       		.byte	0x3
 11451 2bbf DC000000 		.4byte	.LC15
 11452 2bc3 00       		.byte	0
 11453 2bc4 10       		.uleb128 0x10
 11454 2bc5 9C000000 		.4byte	.LVL601
 11455 2bc9 A7130000 		.4byte	0x13a7
 11456 2bcd 1A       		.uleb128 0x1a
 11457 2bce A6000000 		.4byte	.LVL602
 11458 2bd2 72320000 		.4byte	0x3272
 11459 2bd6 EA2B0000 		.4byte	0x2bea
 11460 2bda 19       		.uleb128 0x19
 11461 2bdb 01       		.uleb128 0x1
 11462 2bdc 50       		.byte	0x50
 11463 2bdd 02       		.uleb128 0x2
 11464 2bde 74       		.byte	0x74
 11465 2bdf 00       		.sleb128 0
 11466 2be0 19       		.uleb128 0x19
 11467 2be1 01       		.uleb128 0x1
 11468 2be2 51       		.byte	0x51
 11469 2be3 05       		.uleb128 0x5
 11470 2be4 03       		.byte	0x3
 11471 2be5 E8000000 		.4byte	.LC16
 11472 2be9 00       		.byte	0
 11473 2bea 1A       		.uleb128 0x1a
 11474 2beb CC000000 		.4byte	.LVL606
 11475 2bef 72320000 		.4byte	0x3272
 11476 2bf3 072C0000 		.4byte	0x2c07
 11477 2bf7 19       		.uleb128 0x19
 11478 2bf8 01       		.uleb128 0x1
 11479 2bf9 50       		.byte	0x50
 11480 2bfa 02       		.uleb128 0x2
 11481 2bfb 74       		.byte	0x74
 11482 2bfc 00       		.sleb128 0
 11483 2bfd 19       		.uleb128 0x19
 11484 2bfe 01       		.uleb128 0x1
 11485 2bff 51       		.byte	0x51
 11486 2c00 05       		.uleb128 0x5
 11487 2c01 03       		.byte	0x3
 11488 2c02 FC000000 		.4byte	.LC17
 11489 2c06 00       		.byte	0
 11490 2c07 10       		.uleb128 0x10
 11491 2c08 D4000000 		.4byte	.LVL607
 11492 2c0c CE080000 		.4byte	0x8ce
 11493 2c10 1A       		.uleb128 0x1a
 11494 2c11 DE000000 		.4byte	.LVL608
 11495 2c15 72320000 		.4byte	0x3272
 11496 2c19 2D2C0000 		.4byte	0x2c2d
 11497 2c1d 19       		.uleb128 0x19
 11498 2c1e 01       		.uleb128 0x1
 11499 2c1f 50       		.byte	0x50
 11500 2c20 02       		.uleb128 0x2
 11501 2c21 74       		.byte	0x74
 11502 2c22 00       		.sleb128 0
 11503 2c23 19       		.uleb128 0x19
 11504 2c24 01       		.uleb128 0x1
 11505 2c25 51       		.byte	0x51
ARM GAS  C:\Users\FRANKL~1\AppData\Local\Temp\ccXJlYBQ.s 			page 235


 11506 2c26 05       		.uleb128 0x5
 11507 2c27 03       		.byte	0x3
 11508 2c28 0C010000 		.4byte	.LC18
 11509 2c2c 00       		.byte	0
 11510 2c2d 1A       		.uleb128 0x1a
 11511 2c2e E8000000 		.4byte	.LVL609
 11512 2c32 1B160000 		.4byte	0x161b
 11513 2c36 402C0000 		.4byte	0x2c40
 11514 2c3a 19       		.uleb128 0x19
 11515 2c3b 01       		.uleb128 0x1
 11516 2c3c 50       		.byte	0x50
 11517 2c3d 01       		.uleb128 0x1
 11518 2c3e 30       		.byte	0x30
 11519 2c3f 00       		.byte	0
 11520 2c40 1A       		.uleb128 0x1a
 11521 2c41 F2000000 		.4byte	.LVL610
 11522 2c45 72320000 		.4byte	0x3272
 11523 2c49 5D2C0000 		.4byte	0x2c5d
 11524 2c4d 19       		.uleb128 0x19
 11525 2c4e 01       		.uleb128 0x1
 11526 2c4f 50       		.byte	0x50
 11527 2c50 02       		.uleb128 0x2
 11528 2c51 74       		.byte	0x74
 11529 2c52 00       		.sleb128 0
 11530 2c53 19       		.uleb128 0x19
 11531 2c54 01       		.uleb128 0x1
 11532 2c55 51       		.byte	0x51
 11533 2c56 05       		.uleb128 0x5
 11534 2c57 03       		.byte	0x3
 11535 2c58 20010000 		.4byte	.LC19
 11536 2c5c 00       		.byte	0
 11537 2c5d 1A       		.uleb128 0x1a
 11538 2c5e FC000000 		.4byte	.LVL611
 11539 2c62 1B160000 		.4byte	0x161b
 11540 2c66 702C0000 		.4byte	0x2c70
 11541 2c6a 19       		.uleb128 0x19
 11542 2c6b 01       		.uleb128 0x1
 11543 2c6c 50       		.byte	0x50
 11544 2c6d 01       		.uleb128 0x1
 11545 2c6e 31       		.byte	0x31
 11546 2c6f 00       		.byte	0
 11547 2c70 1A       		.uleb128 0x1a
 11548 2c71 06010000 		.4byte	.LVL612
 11549 2c75 72320000 		.4byte	0x3272
 11550 2c79 8D2C0000 		.4byte	0x2c8d
 11551 2c7d 19       		.uleb128 0x19
 11552 2c7e 01       		.uleb128 0x1
 11553 2c7f 50       		.byte	0x50
 11554 2c80 02       		.uleb128 0x2
 11555 2c81 74       		.byte	0x74
 11556 2c82 00       		.sleb128 0
 11557 2c83 19       		.uleb128 0x19
 11558 2c84 01       		.uleb128 0x1
 11559 2c85 51       		.byte	0x51
 11560 2c86 05       		.uleb128 0x5
 11561 2c87 03       		.byte	0x3
 11562 2c88 3C010000 		.4byte	.LC20
ARM GAS  C:\Users\FRANKL~1\AppData\Local\Temp\ccXJlYBQ.s 			page 236


 11563 2c8c 00       		.byte	0
 11564 2c8d 1A       		.uleb128 0x1a
 11565 2c8e 2E010000 		.4byte	.LVL616
 11566 2c92 72320000 		.4byte	0x3272
 11567 2c96 AA2C0000 		.4byte	0x2caa
 11568 2c9a 19       		.uleb128 0x19
 11569 2c9b 01       		.uleb128 0x1
 11570 2c9c 50       		.byte	0x50
 11571 2c9d 02       		.uleb128 0x2
 11572 2c9e 74       		.byte	0x74
 11573 2c9f 00       		.sleb128 0
 11574 2ca0 19       		.uleb128 0x19
 11575 2ca1 01       		.uleb128 0x1
 11576 2ca2 51       		.byte	0x51
 11577 2ca3 05       		.uleb128 0x5
 11578 2ca4 03       		.byte	0x3
 11579 2ca5 4C010000 		.4byte	.LC21
 11580 2ca9 00       		.byte	0
 11581 2caa 1A       		.uleb128 0x1a
 11582 2cab 56010000 		.4byte	.LVL620
 11583 2caf 72320000 		.4byte	0x3272
 11584 2cb3 C72C0000 		.4byte	0x2cc7
 11585 2cb7 19       		.uleb128 0x19
 11586 2cb8 01       		.uleb128 0x1
 11587 2cb9 50       		.byte	0x50
 11588 2cba 02       		.uleb128 0x2
 11589 2cbb 74       		.byte	0x74
 11590 2cbc 00       		.sleb128 0
 11591 2cbd 19       		.uleb128 0x19
 11592 2cbe 01       		.uleb128 0x1
 11593 2cbf 51       		.byte	0x51
 11594 2cc0 05       		.uleb128 0x5
 11595 2cc1 03       		.byte	0x3
 11596 2cc2 5C010000 		.4byte	.LC22
 11597 2cc6 00       		.byte	0
 11598 2cc7 1A       		.uleb128 0x1a
 11599 2cc8 7E010000 		.4byte	.LVL624
 11600 2ccc 72320000 		.4byte	0x3272
 11601 2cd0 E42C0000 		.4byte	0x2ce4
 11602 2cd4 19       		.uleb128 0x19
 11603 2cd5 01       		.uleb128 0x1
 11604 2cd6 50       		.byte	0x50
 11605 2cd7 02       		.uleb128 0x2
 11606 2cd8 74       		.byte	0x74
 11607 2cd9 00       		.sleb128 0
 11608 2cda 19       		.uleb128 0x19
 11609 2cdb 01       		.uleb128 0x1
 11610 2cdc 51       		.byte	0x51
 11611 2cdd 05       		.uleb128 0x5
 11612 2cde 03       		.byte	0x3
 11613 2cdf 6C010000 		.4byte	.LC23
 11614 2ce3 00       		.byte	0
 11615 2ce4 1A       		.uleb128 0x1a
 11616 2ce5 A6010000 		.4byte	.LVL628
 11617 2ce9 72320000 		.4byte	0x3272
 11618 2ced 012D0000 		.4byte	0x2d01
 11619 2cf1 19       		.uleb128 0x19
ARM GAS  C:\Users\FRANKL~1\AppData\Local\Temp\ccXJlYBQ.s 			page 237


 11620 2cf2 01       		.uleb128 0x1
 11621 2cf3 50       		.byte	0x50
 11622 2cf4 02       		.uleb128 0x2
 11623 2cf5 74       		.byte	0x74
 11624 2cf6 00       		.sleb128 0
 11625 2cf7 19       		.uleb128 0x19
 11626 2cf8 01       		.uleb128 0x1
 11627 2cf9 51       		.byte	0x51
 11628 2cfa 05       		.uleb128 0x5
 11629 2cfb 03       		.byte	0x3
 11630 2cfc 7C010000 		.4byte	.LC24
 11631 2d00 00       		.byte	0
 11632 2d01 1A       		.uleb128 0x1a
 11633 2d02 D0010000 		.4byte	.LVL632
 11634 2d06 72320000 		.4byte	0x3272
 11635 2d0a 1E2D0000 		.4byte	0x2d1e
 11636 2d0e 19       		.uleb128 0x19
 11637 2d0f 01       		.uleb128 0x1
 11638 2d10 50       		.byte	0x50
 11639 2d11 02       		.uleb128 0x2
 11640 2d12 74       		.byte	0x74
 11641 2d13 00       		.sleb128 0
 11642 2d14 19       		.uleb128 0x19
 11643 2d15 01       		.uleb128 0x1
 11644 2d16 51       		.byte	0x51
 11645 2d17 05       		.uleb128 0x5
 11646 2d18 03       		.byte	0x3
 11647 2d19 8C010000 		.4byte	.LC26
 11648 2d1d 00       		.byte	0
 11649 2d1e 1A       		.uleb128 0x1a
 11650 2d1f FA010000 		.4byte	.LVL636
 11651 2d23 72320000 		.4byte	0x3272
 11652 2d27 3B2D0000 		.4byte	0x2d3b
 11653 2d2b 19       		.uleb128 0x19
 11654 2d2c 01       		.uleb128 0x1
 11655 2d2d 50       		.byte	0x50
 11656 2d2e 02       		.uleb128 0x2
 11657 2d2f 74       		.byte	0x74
 11658 2d30 00       		.sleb128 0
 11659 2d31 19       		.uleb128 0x19
 11660 2d32 01       		.uleb128 0x1
 11661 2d33 51       		.byte	0x51
 11662 2d34 05       		.uleb128 0x5
 11663 2d35 03       		.byte	0x3
 11664 2d36 98010000 		.4byte	.LC27
 11665 2d3a 00       		.byte	0
 11666 2d3b 1A       		.uleb128 0x1a
 11667 2d3c 4E020000 		.4byte	.LVL649
 11668 2d40 72320000 		.4byte	0x3272
 11669 2d44 582D0000 		.4byte	0x2d58
 11670 2d48 19       		.uleb128 0x19
 11671 2d49 01       		.uleb128 0x1
 11672 2d4a 50       		.byte	0x50
 11673 2d4b 02       		.uleb128 0x2
 11674 2d4c 74       		.byte	0x74
 11675 2d4d 00       		.sleb128 0
 11676 2d4e 19       		.uleb128 0x19
ARM GAS  C:\Users\FRANKL~1\AppData\Local\Temp\ccXJlYBQ.s 			page 238


 11677 2d4f 01       		.uleb128 0x1
 11678 2d50 51       		.byte	0x51
 11679 2d51 05       		.uleb128 0x5
 11680 2d52 03       		.byte	0x3
 11681 2d53 BC010000 		.4byte	.LC29
 11682 2d57 00       		.byte	0
 11683 2d58 1A       		.uleb128 0x1a
 11684 2d59 A2020000 		.4byte	.LVL662
 11685 2d5d 72320000 		.4byte	0x3272
 11686 2d61 752D0000 		.4byte	0x2d75
 11687 2d65 19       		.uleb128 0x19
 11688 2d66 01       		.uleb128 0x1
 11689 2d67 50       		.byte	0x50
 11690 2d68 02       		.uleb128 0x2
 11691 2d69 74       		.byte	0x74
 11692 2d6a 00       		.sleb128 0
 11693 2d6b 19       		.uleb128 0x19
 11694 2d6c 01       		.uleb128 0x1
 11695 2d6d 51       		.byte	0x51
 11696 2d6e 05       		.uleb128 0x5
 11697 2d6f 03       		.byte	0x3
 11698 2d70 E0010000 		.4byte	.LC31
 11699 2d74 00       		.byte	0
 11700 2d75 1A       		.uleb128 0x1a
 11701 2d76 BE020000 		.4byte	.LVL664
 11702 2d7a CA320000 		.4byte	0x32ca
 11703 2d7e 892D0000 		.4byte	0x2d89
 11704 2d82 19       		.uleb128 0x19
 11705 2d83 01       		.uleb128 0x1
 11706 2d84 50       		.byte	0x50
 11707 2d85 02       		.uleb128 0x2
 11708 2d86 74       		.byte	0x74
 11709 2d87 00       		.sleb128 0
 11710 2d88 00       		.byte	0
 11711 2d89 1A       		.uleb128 0x1a
 11712 2d8a C6020000 		.4byte	.LVL665
 11713 2d8e 80030000 		.4byte	0x380
 11714 2d92 9D2D0000 		.4byte	0x2d9d
 11715 2d96 19       		.uleb128 0x19
 11716 2d97 01       		.uleb128 0x1
 11717 2d98 50       		.byte	0x50
 11718 2d99 02       		.uleb128 0x2
 11719 2d9a 74       		.byte	0x74
 11720 2d9b 00       		.sleb128 0
 11721 2d9c 00       		.byte	0
 11722 2d9d 1A       		.uleb128 0x1a
 11723 2d9e CC020000 		.4byte	.LVL666
 11724 2da2 E0320000 		.4byte	0x32e0
 11725 2da6 B12D0000 		.4byte	0x2db1
 11726 2daa 19       		.uleb128 0x19
 11727 2dab 01       		.uleb128 0x1
 11728 2dac 50       		.byte	0x50
 11729 2dad 02       		.uleb128 0x2
 11730 2dae 74       		.byte	0x74
 11731 2daf 00       		.sleb128 0
 11732 2db0 00       		.byte	0
 11733 2db1 1A       		.uleb128 0x1a
ARM GAS  C:\Users\FRANKL~1\AppData\Local\Temp\ccXJlYBQ.s 			page 239


 11734 2db2 D4020000 		.4byte	.LVL667
 11735 2db6 871A0000 		.4byte	0x1a87
 11736 2dba C92D0000 		.4byte	0x2dc9
 11737 2dbe 19       		.uleb128 0x19
 11738 2dbf 01       		.uleb128 0x1
 11739 2dc0 50       		.byte	0x50
 11740 2dc1 01       		.uleb128 0x1
 11741 2dc2 30       		.byte	0x30
 11742 2dc3 19       		.uleb128 0x19
 11743 2dc4 01       		.uleb128 0x1
 11744 2dc5 51       		.byte	0x51
 11745 2dc6 01       		.uleb128 0x1
 11746 2dc7 30       		.byte	0x30
 11747 2dc8 00       		.byte	0
 11748 2dc9 1A       		.uleb128 0x1a
 11749 2dca EA020000 		.4byte	.LVL668
 11750 2dce CA320000 		.4byte	0x32ca
 11751 2dd2 DD2D0000 		.4byte	0x2ddd
 11752 2dd6 19       		.uleb128 0x19
 11753 2dd7 01       		.uleb128 0x1
 11754 2dd8 50       		.byte	0x50
 11755 2dd9 02       		.uleb128 0x2
 11756 2dda 74       		.byte	0x74
 11757 2ddb 00       		.sleb128 0
 11758 2ddc 00       		.byte	0
 11759 2ddd 1A       		.uleb128 0x1a
 11760 2dde F2020000 		.4byte	.LVL669
 11761 2de2 80030000 		.4byte	0x380
 11762 2de6 F12D0000 		.4byte	0x2df1
 11763 2dea 19       		.uleb128 0x19
 11764 2deb 01       		.uleb128 0x1
 11765 2dec 50       		.byte	0x50
 11766 2ded 02       		.uleb128 0x2
 11767 2dee 74       		.byte	0x74
 11768 2def 00       		.sleb128 0
 11769 2df0 00       		.byte	0
 11770 2df1 1A       		.uleb128 0x1a
 11771 2df2 F8020000 		.4byte	.LVL670
 11772 2df6 E0320000 		.4byte	0x32e0
 11773 2dfa 052E0000 		.4byte	0x2e05
 11774 2dfe 19       		.uleb128 0x19
 11775 2dff 01       		.uleb128 0x1
 11776 2e00 50       		.byte	0x50
 11777 2e01 02       		.uleb128 0x2
 11778 2e02 74       		.byte	0x74
 11779 2e03 00       		.sleb128 0
 11780 2e04 00       		.byte	0
 11781 2e05 1A       		.uleb128 0x1a
 11782 2e06 74030000 		.4byte	.LVL672
 11783 2e0a 72320000 		.4byte	0x3272
 11784 2e0e 222E0000 		.4byte	0x2e22
 11785 2e12 19       		.uleb128 0x19
 11786 2e13 01       		.uleb128 0x1
 11787 2e14 50       		.byte	0x50
 11788 2e15 02       		.uleb128 0x2
 11789 2e16 74       		.byte	0x74
 11790 2e17 00       		.sleb128 0
ARM GAS  C:\Users\FRANKL~1\AppData\Local\Temp\ccXJlYBQ.s 			page 240


 11791 2e18 19       		.uleb128 0x19
 11792 2e19 01       		.uleb128 0x1
 11793 2e1a 51       		.byte	0x51
 11794 2e1b 05       		.uleb128 0x5
 11795 2e1c 03       		.byte	0x3
 11796 2e1d 10020000 		.4byte	.LC34
 11797 2e21 00       		.byte	0
 11798 2e22 1A       		.uleb128 0x1a
 11799 2e23 06040000 		.4byte	.LVL687
 11800 2e27 72320000 		.4byte	0x3272
 11801 2e2b 3F2E0000 		.4byte	0x2e3f
 11802 2e2f 19       		.uleb128 0x19
 11803 2e30 01       		.uleb128 0x1
 11804 2e31 50       		.byte	0x50
 11805 2e32 02       		.uleb128 0x2
 11806 2e33 74       		.byte	0x74
 11807 2e34 00       		.sleb128 0
 11808 2e35 19       		.uleb128 0x19
 11809 2e36 01       		.uleb128 0x1
 11810 2e37 51       		.byte	0x51
 11811 2e38 05       		.uleb128 0x5
 11812 2e39 03       		.byte	0x3
 11813 2e3a 54020000 		.4byte	.LC37
 11814 2e3e 00       		.byte	0
 11815 2e3f 1A       		.uleb128 0x1a
 11816 2e40 A4040000 		.4byte	.LVL702
 11817 2e44 72320000 		.4byte	0x3272
 11818 2e48 5C2E0000 		.4byte	0x2e5c
 11819 2e4c 19       		.uleb128 0x19
 11820 2e4d 01       		.uleb128 0x1
 11821 2e4e 50       		.byte	0x50
 11822 2e4f 02       		.uleb128 0x2
 11823 2e50 74       		.byte	0x74
 11824 2e51 00       		.sleb128 0
 11825 2e52 19       		.uleb128 0x19
 11826 2e53 01       		.uleb128 0x1
 11827 2e54 51       		.byte	0x51
 11828 2e55 05       		.uleb128 0x5
 11829 2e56 03       		.byte	0x3
 11830 2e57 A8020000 		.4byte	.LC40
 11831 2e5b 00       		.byte	0
 11832 2e5c 1A       		.uleb128 0x1a
 11833 2e5d 4C050000 		.4byte	.LVL718
 11834 2e61 72320000 		.4byte	0x3272
 11835 2e65 792E0000 		.4byte	0x2e79
 11836 2e69 19       		.uleb128 0x19
 11837 2e6a 01       		.uleb128 0x1
 11838 2e6b 50       		.byte	0x50
 11839 2e6c 02       		.uleb128 0x2
 11840 2e6d 74       		.byte	0x74
 11841 2e6e 00       		.sleb128 0
 11842 2e6f 19       		.uleb128 0x19
 11843 2e70 01       		.uleb128 0x1
 11844 2e71 51       		.byte	0x51
 11845 2e72 05       		.uleb128 0x5
 11846 2e73 03       		.byte	0x3
 11847 2e74 08030000 		.4byte	.LC43
ARM GAS  C:\Users\FRANKL~1\AppData\Local\Temp\ccXJlYBQ.s 			page 241


 11848 2e78 00       		.byte	0
 11849 2e79 1A       		.uleb128 0x1a
 11850 2e7a A8050000 		.4byte	.LVL731
 11851 2e7e 72320000 		.4byte	0x3272
 11852 2e82 962E0000 		.4byte	0x2e96
 11853 2e86 19       		.uleb128 0x19
 11854 2e87 01       		.uleb128 0x1
 11855 2e88 50       		.byte	0x50
 11856 2e89 02       		.uleb128 0x2
 11857 2e8a 74       		.byte	0x74
 11858 2e8b 00       		.sleb128 0
 11859 2e8c 19       		.uleb128 0x19
 11860 2e8d 01       		.uleb128 0x1
 11861 2e8e 51       		.byte	0x51
 11862 2e8f 05       		.uleb128 0x5
 11863 2e90 03       		.byte	0x3
 11864 2e91 2C030000 		.4byte	.LC45
 11865 2e95 00       		.byte	0
 11866 2e96 1A       		.uleb128 0x1a
 11867 2e97 04060000 		.4byte	.LVL744
 11868 2e9b 72320000 		.4byte	0x3272
 11869 2e9f B32E0000 		.4byte	0x2eb3
 11870 2ea3 19       		.uleb128 0x19
 11871 2ea4 01       		.uleb128 0x1
 11872 2ea5 50       		.byte	0x50
 11873 2ea6 02       		.uleb128 0x2
 11874 2ea7 74       		.byte	0x74
 11875 2ea8 00       		.sleb128 0
 11876 2ea9 19       		.uleb128 0x19
 11877 2eaa 01       		.uleb128 0x1
 11878 2eab 51       		.byte	0x51
 11879 2eac 05       		.uleb128 0x5
 11880 2ead 03       		.byte	0x3
 11881 2eae 58030000 		.4byte	.LC47
 11882 2eb2 00       		.byte	0
 11883 2eb3 1A       		.uleb128 0x1a
 11884 2eb4 60060000 		.4byte	.LVL757
 11885 2eb8 72320000 		.4byte	0x3272
 11886 2ebc D02E0000 		.4byte	0x2ed0
 11887 2ec0 19       		.uleb128 0x19
 11888 2ec1 01       		.uleb128 0x1
 11889 2ec2 50       		.byte	0x50
 11890 2ec3 02       		.uleb128 0x2
 11891 2ec4 74       		.byte	0x74
 11892 2ec5 00       		.sleb128 0
 11893 2ec6 19       		.uleb128 0x19
 11894 2ec7 01       		.uleb128 0x1
 11895 2ec8 51       		.byte	0x51
 11896 2ec9 05       		.uleb128 0x5
 11897 2eca 03       		.byte	0x3
 11898 2ecb 80030000 		.4byte	.LC49
 11899 2ecf 00       		.byte	0
 11900 2ed0 1A       		.uleb128 0x1a
 11901 2ed1 F4060000 		.4byte	.LVL768
 11902 2ed5 72320000 		.4byte	0x3272
 11903 2ed9 ED2E0000 		.4byte	0x2eed
 11904 2edd 19       		.uleb128 0x19
ARM GAS  C:\Users\FRANKL~1\AppData\Local\Temp\ccXJlYBQ.s 			page 242


 11905 2ede 01       		.uleb128 0x1
 11906 2edf 50       		.byte	0x50
 11907 2ee0 02       		.uleb128 0x2
 11908 2ee1 74       		.byte	0x74
 11909 2ee2 00       		.sleb128 0
 11910 2ee3 19       		.uleb128 0x19
 11911 2ee4 01       		.uleb128 0x1
 11912 2ee5 51       		.byte	0x51
 11913 2ee6 05       		.uleb128 0x5
 11914 2ee7 03       		.byte	0x3
 11915 2ee8 B8030000 		.4byte	.LC51
 11916 2eec 00       		.byte	0
 11917 2eed 10       		.uleb128 0x10
 11918 2eee FC060000 		.4byte	.LVL769
 11919 2ef2 580B0000 		.4byte	0xb58
 11920 2ef6 1A       		.uleb128 0x1a
 11921 2ef7 1C070000 		.4byte	.LVL771
 11922 2efb CA320000 		.4byte	0x32ca
 11923 2eff 0A2F0000 		.4byte	0x2f0a
 11924 2f03 19       		.uleb128 0x19
 11925 2f04 01       		.uleb128 0x1
 11926 2f05 50       		.byte	0x50
 11927 2f06 02       		.uleb128 0x2
 11928 2f07 75       		.byte	0x75
 11929 2f08 00       		.sleb128 0
 11930 2f09 00       		.byte	0
 11931 2f0a 1A       		.uleb128 0x1a
 11932 2f0b 24070000 		.4byte	.LVL772
 11933 2f0f 80030000 		.4byte	0x380
 11934 2f13 1E2F0000 		.4byte	0x2f1e
 11935 2f17 19       		.uleb128 0x19
 11936 2f18 01       		.uleb128 0x1
 11937 2f19 50       		.byte	0x50
 11938 2f1a 02       		.uleb128 0x2
 11939 2f1b 75       		.byte	0x75
 11940 2f1c 00       		.sleb128 0
 11941 2f1d 00       		.byte	0
 11942 2f1e 1A       		.uleb128 0x1a
 11943 2f1f 2A070000 		.4byte	.LVL773
 11944 2f23 E0320000 		.4byte	0x32e0
 11945 2f27 322F0000 		.4byte	0x2f32
 11946 2f2b 19       		.uleb128 0x19
 11947 2f2c 01       		.uleb128 0x1
 11948 2f2d 50       		.byte	0x50
 11949 2f2e 02       		.uleb128 0x2
 11950 2f2f 75       		.byte	0x75
 11951 2f30 00       		.sleb128 0
 11952 2f31 00       		.byte	0
 11953 2f32 1A       		.uleb128 0x1a
 11954 2f33 34070000 		.4byte	.LVL775
 11955 2f37 72320000 		.4byte	0x3272
 11956 2f3b 4F2F0000 		.4byte	0x2f4f
 11957 2f3f 19       		.uleb128 0x19
 11958 2f40 01       		.uleb128 0x1
 11959 2f41 50       		.byte	0x50
 11960 2f42 02       		.uleb128 0x2
 11961 2f43 74       		.byte	0x74
ARM GAS  C:\Users\FRANKL~1\AppData\Local\Temp\ccXJlYBQ.s 			page 243


 11962 2f44 00       		.sleb128 0
 11963 2f45 19       		.uleb128 0x19
 11964 2f46 01       		.uleb128 0x1
 11965 2f47 51       		.byte	0x51
 11966 2f48 05       		.uleb128 0x5
 11967 2f49 03       		.byte	0x3
 11968 2f4a F4030000 		.4byte	.LC53
 11969 2f4e 00       		.byte	0
 11970 2f4f 1A       		.uleb128 0x1a
 11971 2f50 7E070000 		.4byte	.LVL786
 11972 2f54 72320000 		.4byte	0x3272
 11973 2f58 6C2F0000 		.4byte	0x2f6c
 11974 2f5c 19       		.uleb128 0x19
 11975 2f5d 01       		.uleb128 0x1
 11976 2f5e 50       		.byte	0x50
 11977 2f5f 02       		.uleb128 0x2
 11978 2f60 74       		.byte	0x74
 11979 2f61 00       		.sleb128 0
 11980 2f62 19       		.uleb128 0x19
 11981 2f63 01       		.uleb128 0x1
 11982 2f64 51       		.byte	0x51
 11983 2f65 05       		.uleb128 0x5
 11984 2f66 03       		.byte	0x3
 11985 2f67 2C040000 		.4byte	.LC55
 11986 2f6b 00       		.byte	0
 11987 2f6c 1A       		.uleb128 0x1a
 11988 2f6d C8070000 		.4byte	.LVL797
 11989 2f71 72320000 		.4byte	0x3272
 11990 2f75 892F0000 		.4byte	0x2f89
 11991 2f79 19       		.uleb128 0x19
 11992 2f7a 01       		.uleb128 0x1
 11993 2f7b 50       		.byte	0x50
 11994 2f7c 02       		.uleb128 0x2
 11995 2f7d 74       		.byte	0x74
 11996 2f7e 00       		.sleb128 0
 11997 2f7f 19       		.uleb128 0x19
 11998 2f80 01       		.uleb128 0x1
 11999 2f81 51       		.byte	0x51
 12000 2f82 05       		.uleb128 0x5
 12001 2f83 03       		.byte	0x3
 12002 2f84 64040000 		.4byte	.LC57
 12003 2f88 00       		.byte	0
 12004 2f89 10       		.uleb128 0x10
 12005 2f8a D0070000 		.4byte	.LVL798
 12006 2f8e 800C0000 		.4byte	0xc80
 12007 2f92 1A       		.uleb128 0x1a
 12008 2f93 EC070000 		.4byte	.LVL800
 12009 2f97 CA320000 		.4byte	0x32ca
 12010 2f9b A62F0000 		.4byte	0x2fa6
 12011 2f9f 19       		.uleb128 0x19
 12012 2fa0 01       		.uleb128 0x1
 12013 2fa1 50       		.byte	0x50
 12014 2fa2 02       		.uleb128 0x2
 12015 2fa3 75       		.byte	0x75
 12016 2fa4 00       		.sleb128 0
 12017 2fa5 00       		.byte	0
 12018 2fa6 1A       		.uleb128 0x1a
ARM GAS  C:\Users\FRANKL~1\AppData\Local\Temp\ccXJlYBQ.s 			page 244


 12019 2fa7 F4070000 		.4byte	.LVL801
 12020 2fab 80030000 		.4byte	0x380
 12021 2faf BA2F0000 		.4byte	0x2fba
 12022 2fb3 19       		.uleb128 0x19
 12023 2fb4 01       		.uleb128 0x1
 12024 2fb5 50       		.byte	0x50
 12025 2fb6 02       		.uleb128 0x2
 12026 2fb7 75       		.byte	0x75
 12027 2fb8 00       		.sleb128 0
 12028 2fb9 00       		.byte	0
 12029 2fba 1A       		.uleb128 0x1a
 12030 2fbb FA070000 		.4byte	.LVL802
 12031 2fbf E0320000 		.4byte	0x32e0
 12032 2fc3 CE2F0000 		.4byte	0x2fce
 12033 2fc7 19       		.uleb128 0x19
 12034 2fc8 01       		.uleb128 0x1
 12035 2fc9 50       		.byte	0x50
 12036 2fca 02       		.uleb128 0x2
 12037 2fcb 75       		.byte	0x75
 12038 2fcc 00       		.sleb128 0
 12039 2fcd 00       		.byte	0
 12040 2fce 1A       		.uleb128 0x1a
 12041 2fcf 04080000 		.4byte	.LVL804
 12042 2fd3 72320000 		.4byte	0x3272
 12043 2fd7 EB2F0000 		.4byte	0x2feb
 12044 2fdb 19       		.uleb128 0x19
 12045 2fdc 01       		.uleb128 0x1
 12046 2fdd 50       		.byte	0x50
 12047 2fde 02       		.uleb128 0x2
 12048 2fdf 74       		.byte	0x74
 12049 2fe0 00       		.sleb128 0
 12050 2fe1 19       		.uleb128 0x19
 12051 2fe2 01       		.uleb128 0x1
 12052 2fe3 51       		.byte	0x51
 12053 2fe4 05       		.uleb128 0x5
 12054 2fe5 03       		.byte	0x3
 12055 2fe6 98040000 		.4byte	.LC59
 12056 2fea 00       		.byte	0
 12057 2feb 1A       		.uleb128 0x1a
 12058 2fec 6A080000 		.4byte	.LVL813
 12059 2ff0 01330000 		.4byte	0x3301
 12060 2ff4 0E300000 		.4byte	0x300e
 12061 2ff8 19       		.uleb128 0x19
 12062 2ff9 01       		.uleb128 0x1
 12063 2ffa 50       		.byte	0x50
 12064 2ffb 02       		.uleb128 0x2
 12065 2ffc 75       		.byte	0x75
 12066 2ffd 00       		.sleb128 0
 12067 2ffe 19       		.uleb128 0x19
 12068 2fff 01       		.uleb128 0x1
 12069 3000 51       		.byte	0x51
 12070 3001 05       		.uleb128 0x5
 12071 3002 03       		.byte	0x3
 12072 3003 EC040000 		.4byte	.LC61
 12073 3007 19       		.uleb128 0x19
 12074 3008 01       		.uleb128 0x1
 12075 3009 52       		.byte	0x52
ARM GAS  C:\Users\FRANKL~1\AppData\Local\Temp\ccXJlYBQ.s 			page 245


 12076 300a 02       		.uleb128 0x2
 12077 300b 74       		.byte	0x74
 12078 300c 00       		.sleb128 0
 12079 300d 00       		.byte	0
 12080 300e 1A       		.uleb128 0x1a
 12081 300f 70080000 		.4byte	.LVL814
 12082 3013 CA320000 		.4byte	0x32ca
 12083 3017 22300000 		.4byte	0x3022
 12084 301b 19       		.uleb128 0x19
 12085 301c 01       		.uleb128 0x1
 12086 301d 50       		.byte	0x50
 12087 301e 02       		.uleb128 0x2
 12088 301f 75       		.byte	0x75
 12089 3020 00       		.sleb128 0
 12090 3021 00       		.byte	0
 12091 3022 1A       		.uleb128 0x1a
 12092 3023 78080000 		.4byte	.LVL815
 12093 3027 80030000 		.4byte	0x380
 12094 302b 36300000 		.4byte	0x3036
 12095 302f 19       		.uleb128 0x19
 12096 3030 01       		.uleb128 0x1
 12097 3031 50       		.byte	0x50
 12098 3032 02       		.uleb128 0x2
 12099 3033 75       		.byte	0x75
 12100 3034 00       		.sleb128 0
 12101 3035 00       		.byte	0
 12102 3036 18       		.uleb128 0x18
 12103 3037 7E080000 		.4byte	.LVL816
 12104 303b E0320000 		.4byte	0x32e0
 12105 303f 19       		.uleb128 0x19
 12106 3040 01       		.uleb128 0x1
 12107 3041 50       		.byte	0x50
 12108 3042 02       		.uleb128 0x2
 12109 3043 75       		.byte	0x75
 12110 3044 00       		.sleb128 0
 12111 3045 00       		.byte	0
 12112 3046 00       		.byte	0
 12113 3047 10       		.uleb128 0x10
 12114 3048 0A000000 		.4byte	.LVL582
 12115 304c D4090000 		.4byte	0x9d4
 12116 3050 1A       		.uleb128 0x1a
 12117 3051 12000000 		.4byte	.LVL583
 12118 3055 EC330000 		.4byte	0x33ec
 12119 3059 68300000 		.4byte	0x3068
 12120 305d 19       		.uleb128 0x19
 12121 305e 01       		.uleb128 0x1
 12122 305f 50       		.byte	0x50
 12123 3060 01       		.uleb128 0x1
 12124 3061 30       		.byte	0x30
 12125 3062 19       		.uleb128 0x19
 12126 3063 01       		.uleb128 0x1
 12127 3064 51       		.byte	0x51
 12128 3065 01       		.uleb128 0x1
 12129 3066 31       		.byte	0x31
 12130 3067 00       		.byte	0
 12131 3068 10       		.uleb128 0x10
 12132 3069 16000000 		.4byte	.LVL584
ARM GAS  C:\Users\FRANKL~1\AppData\Local\Temp\ccXJlYBQ.s 			page 246


 12133 306d F8330000 		.4byte	0x33f8
 12134 3071 10       		.uleb128 0x10
 12135 3072 1A000000 		.4byte	.LVL585
 12136 3076 03340000 		.4byte	0x3403
 12137 307a 10       		.uleb128 0x10
 12138 307b 1E000000 		.4byte	.LVL586
 12139 307f 0E340000 		.4byte	0x340e
 12140 3083 10       		.uleb128 0x10
 12141 3084 22000000 		.4byte	.LVL587
 12142 3088 19340000 		.4byte	0x3419
 12143 308c 10       		.uleb128 0x10
 12144 308d 26000000 		.4byte	.LVL588
 12145 3091 24340000 		.4byte	0x3424
 12146 3095 10       		.uleb128 0x10
 12147 3096 2A000000 		.4byte	.LVL589
 12148 309a 2F340000 		.4byte	0x342f
 12149 309e 10       		.uleb128 0x10
 12150 309f 2E000000 		.4byte	.LVL590
 12151 30a3 F6320000 		.4byte	0x32f6
 12152 30a7 10       		.uleb128 0x10
 12153 30a8 32000000 		.4byte	.LVL591
 12154 30ac 3A340000 		.4byte	0x343a
 12155 30b0 10       		.uleb128 0x10
 12156 30b1 36000000 		.4byte	.LVL592
 12157 30b5 45340000 		.4byte	0x3445
 12158 30b9 1A       		.uleb128 0x1a
 12159 30ba 3E000000 		.4byte	.LVL593
 12160 30be 50340000 		.4byte	0x3450
 12161 30c2 CE300000 		.4byte	0x30ce
 12162 30c6 19       		.uleb128 0x19
 12163 30c7 01       		.uleb128 0x1
 12164 30c8 50       		.byte	0x50
 12165 30c9 03       		.uleb128 0x3
 12166 30ca 0A       		.byte	0xa
 12167 30cb E803     		.2byte	0x3e8
 12168 30cd 00       		.byte	0
 12169 30ce 1A       		.uleb128 0x1a
 12170 30cf 44000000 		.4byte	.LVL594
 12171 30d3 E0320000 		.4byte	0x32e0
 12172 30d7 E5300000 		.4byte	0x30e5
 12173 30db 19       		.uleb128 0x19
 12174 30dc 01       		.uleb128 0x1
 12175 30dd 50       		.byte	0x50
 12176 30de 05       		.uleb128 0x5
 12177 30df 03       		.byte	0x3
 12178 30e0 CC000000 		.4byte	.LC14
 12179 30e4 00       		.byte	0
 12180 30e5 10       		.uleb128 0x10
 12181 30e6 48000000 		.4byte	.LVL595
 12182 30ea 800C0000 		.4byte	0xc80
 12183 30ee 10       		.uleb128 0x10
 12184 30ef 5A000000 		.4byte	.LVL596
 12185 30f3 5B340000 		.4byte	0x345b
 12186 30f7 18       		.uleb128 0x18
 12187 30f8 60000000 		.4byte	.LVL597
 12188 30fc 66340000 		.4byte	0x3466
 12189 3100 19       		.uleb128 0x19
ARM GAS  C:\Users\FRANKL~1\AppData\Local\Temp\ccXJlYBQ.s 			page 247


 12190 3101 01       		.uleb128 0x1
 12191 3102 50       		.byte	0x50
 12192 3103 05       		.uleb128 0x5
 12193 3104 03       		.byte	0x3
 12194 3105 00000000 		.4byte	CommunicationHandlerISR
 12195 3109 00       		.byte	0
 12196 310a 00       		.byte	0
 12197 310b 2F       		.uleb128 0x2f
 12198 310c C4010000 		.4byte	.LASF145
 12199 3110 06       		.byte	0x6
 12200 3111 1207     		.2byte	0x712
 12201 3113 17310000 		.4byte	0x3117
 12202 3117 08       		.uleb128 0x8
 12203 3118 AA000000 		.4byte	0xaa
 12204 311c 0B       		.uleb128 0xb
 12205 311d 60010000 		.4byte	0x160
 12206 3121 2C310000 		.4byte	0x312c
 12207 3125 0C       		.uleb128 0xc
 12208 3126 8B000000 		.4byte	0x8b
 12209 312a 03       		.byte	0x3
 12210 312b 00       		.byte	0
 12211 312c 30       		.uleb128 0x30
 12212 312d CA000000 		.4byte	.LASF146
 12213 3131 02       		.byte	0x2
 12214 3132 1D       		.byte	0x1d
 12215 3133 1C310000 		.4byte	0x311c
 12216 3137 05       		.uleb128 0x5
 12217 3138 03       		.byte	0x3
 12218 3139 00000000 		.4byte	selectors
 12219 313d 30       		.uleb128 0x30
 12220 313e F60A0000 		.4byte	.LASF147
 12221 3142 02       		.byte	0x2
 12222 3143 1E       		.byte	0x1e
 12223 3144 70030000 		.4byte	0x370
 12224 3148 05       		.uleb128 0x5
 12225 3149 03       		.byte	0x3
 12226 314a 00000000 		.4byte	TransmitBuffer
 12227 314e 30       		.uleb128 0x30
 12228 314f D3090000 		.4byte	.LASF148
 12229 3153 02       		.byte	0x2
 12230 3154 20       		.byte	0x20
 12231 3155 09010000 		.4byte	0x109
 12232 3159 05       		.uleb128 0x5
 12233 315a 03       		.byte	0x3
 12234 315b 00000000 		.4byte	newData
 12235 315f 30       		.uleb128 0x30
 12236 3160 870A0000 		.4byte	.LASF149
 12237 3164 02       		.byte	0x2
 12238 3165 21       		.byte	0x21
 12239 3166 09010000 		.4byte	0x109
 12240 316a 05       		.uleb128 0x5
 12241 316b 03       		.byte	0x3
 12242 316c 00000000 		.4byte	G_Stop
 12243 3170 30       		.uleb128 0x30
 12244 3171 EE0A0000 		.4byte	.LASF150
 12245 3175 02       		.byte	0x2
 12246 3176 22       		.byte	0x22
ARM GAS  C:\Users\FRANKL~1\AppData\Local\Temp\ccXJlYBQ.s 			page 248


 12247 3177 09010000 		.4byte	0x109
 12248 317b 05       		.uleb128 0x5
 12249 317c 03       		.byte	0x3
 12250 317d 00000000 		.4byte	G_Break
 12251 3181 30       		.uleb128 0x30
 12252 3182 2C050000 		.4byte	.LASF151
 12253 3186 02       		.byte	0x2
 12254 3187 23       		.byte	0x23
 12255 3188 09010000 		.4byte	0x109
 12256 318c 05       		.uleb128 0x5
 12257 318d 03       		.byte	0x3
 12258 318e 00000000 		.4byte	G_Pause
 12259 3192 0B       		.uleb128 0xb
 12260 3193 A2310000 		.4byte	0x31a2
 12261 3197 A2310000 		.4byte	0x31a2
 12262 319b 0C       		.uleb128 0xc
 12263 319c 8B000000 		.4byte	0x8b
 12264 31a0 3F       		.byte	0x3f
 12265 31a1 00       		.byte	0
 12266 31a2 08       		.uleb128 0x8
 12267 31a3 98000000 		.4byte	0x98
 12268 31a7 30       		.uleb128 0x30
 12269 31a8 030C0000 		.4byte	.LASF152
 12270 31ac 02       		.byte	0x2
 12271 31ad 25       		.byte	0x25
 12272 31ae B8310000 		.4byte	0x31b8
 12273 31b2 05       		.uleb128 0x5
 12274 31b3 03       		.byte	0x3
 12275 31b4 00000000 		.4byte	UART_Receive_Buffer
 12276 31b8 08       		.uleb128 0x8
 12277 31b9 92310000 		.4byte	0x3192
 12278 31bd 30       		.uleb128 0x30
 12279 31be D4020000 		.4byte	.LASF153
 12280 31c2 02       		.byte	0x2
 12281 31c3 26       		.byte	0x26
 12282 31c4 09010000 		.4byte	0x109
 12283 31c8 05       		.uleb128 0x5
 12284 31c9 03       		.byte	0x3
 12285 31ca 00000000 		.4byte	UART_Rx_Position
 12286 31ce 30       		.uleb128 0x30
 12287 31cf 37070000 		.4byte	.LASF154
 12288 31d3 02       		.byte	0x2
 12289 31d4 28       		.byte	0x28
 12290 31d5 DF310000 		.4byte	0x31df
 12291 31d9 05       		.uleb128 0x5
 12292 31da 03       		.byte	0x3
 12293 31db 00000000 		.4byte	USBUART_Receive_Buffer
 12294 31df 08       		.uleb128 0x8
 12295 31e0 92310000 		.4byte	0x3192
 12296 31e4 30       		.uleb128 0x30
 12297 31e5 9B0C0000 		.4byte	.LASF155
 12298 31e9 02       		.byte	0x2
 12299 31ea 29       		.byte	0x29
 12300 31eb 09010000 		.4byte	0x109
 12301 31ef 05       		.uleb128 0x5
 12302 31f0 03       		.byte	0x3
 12303 31f1 00000000 		.4byte	USBUART_Rx_Position
ARM GAS  C:\Users\FRANKL~1\AppData\Local\Temp\ccXJlYBQ.s 			page 249


 12304 31f5 30       		.uleb128 0x30
 12305 31f6 2C0C0000 		.4byte	.LASF156
 12306 31fa 02       		.byte	0x2
 12307 31fb 2B       		.byte	0x2b
 12308 31fc B5000000 		.4byte	0xb5
 12309 3200 05       		.uleb128 0x5
 12310 3201 03       		.byte	0x3
 12311 3202 00000000 		.4byte	Compliance_Reached
 12312 3206 30       		.uleb128 0x30
 12313 3207 5D080000 		.4byte	.LASF157
 12314 320b 02       		.byte	0x2
 12315 320c 2C       		.byte	0x2c
 12316 320d E5000000 		.4byte	0xe5
 12317 3211 05       		.uleb128 0x5
 12318 3212 03       		.byte	0x3
 12319 3213 00000000 		.4byte	Vgs_Index_Goal_Relative
 12320 3217 30       		.uleb128 0x30
 12321 3218 FC060000 		.4byte	.LASF158
 12322 321c 02       		.byte	0x2
 12323 321d 2D       		.byte	0x2d
 12324 321e E5000000 		.4byte	0xe5
 12325 3222 05       		.uleb128 0x5
 12326 3223 03       		.byte	0x3
 12327 3224 00000000 		.4byte	Vds_Index_Goal_Relative
 12328 3228 30       		.uleb128 0x30
 12329 3229 E9050000 		.4byte	.LASF159
 12330 322d 02       		.byte	0x2
 12331 322e 2F       		.byte	0x2f
 12332 322f CD000000 		.4byte	0xcd
 12333 3233 05       		.uleb128 0x5
 12334 3234 03       		.byte	0x3
 12335 3235 00000000 		.4byte	Current_Measurement_Sample_Count
 12336 3239 31       		.uleb128 0x31
 12337 323a C8030000 		.4byte	.LASF160
 12338 323e C8030000 		.4byte	.LASF160
 12339 3242 07       		.byte	0x7
 12340 3243 2E01     		.2byte	0x12e
 12341 3245 31       		.uleb128 0x31
 12342 3246 ED010000 		.4byte	.LASF161
 12343 324a ED010000 		.4byte	.LASF161
 12344 324e 07       		.byte	0x7
 12345 324f 2D01     		.2byte	0x12d
 12346 3251 32       		.uleb128 0x32
 12347 3252 7E090000 		.4byte	.LASF162
 12348 3256 7E090000 		.4byte	.LASF162
 12349 325a 08       		.byte	0x8
 12350 325b 22       		.byte	0x22
 12351 325c 32       		.uleb128 0x32
 12352 325d 9A040000 		.4byte	.LASF163
 12353 3261 9A040000 		.4byte	.LASF163
 12354 3265 08       		.byte	0x8
 12355 3266 29       		.byte	0x29
 12356 3267 32       		.uleb128 0x32
 12357 3268 63050000 		.4byte	.LASF164
 12358 326c 63050000 		.4byte	.LASF164
 12359 3270 08       		.byte	0x8
 12360 3271 2B       		.byte	0x2b
ARM GAS  C:\Users\FRANKL~1\AppData\Local\Temp\ccXJlYBQ.s 			page 250


 12361 3272 32       		.uleb128 0x32
 12362 3273 D4000000 		.4byte	.LASF165
 12363 3277 D4000000 		.4byte	.LASF165
 12364 327b 09       		.byte	0x9
 12365 327c 28       		.byte	0x28
 12366 327d 32       		.uleb128 0x32
 12367 327e 20080000 		.4byte	.LASF166
 12368 3282 20080000 		.4byte	.LASF166
 12369 3286 0A       		.byte	0xa
 12370 3287 73       		.byte	0x73
 12371 3288 32       		.uleb128 0x32
 12372 3289 77030000 		.4byte	.LASF167
 12373 328d 77030000 		.4byte	.LASF167
 12374 3291 0A       		.byte	0xa
 12375 3292 71       		.byte	0x71
 12376 3293 32       		.uleb128 0x32
 12377 3294 DF0C0000 		.4byte	.LASF168
 12378 3298 DF0C0000 		.4byte	.LASF168
 12379 329c 0B       		.byte	0xb
 12380 329d 28       		.byte	0x28
 12381 329e 32       		.uleb128 0x32
 12382 329f 7B070000 		.4byte	.LASF169
 12383 32a3 7B070000 		.4byte	.LASF169
 12384 32a7 0C       		.byte	0xc
 12385 32a8 5E       		.byte	0x5e
 12386 32a9 32       		.uleb128 0x32
 12387 32aa 37080000 		.4byte	.LASF170
 12388 32ae 37080000 		.4byte	.LASF170
 12389 32b2 08       		.byte	0x8
 12390 32b3 28       		.byte	0x28
 12391 32b4 32       		.uleb128 0x32
 12392 32b5 41030000 		.4byte	.LASF171
 12393 32b9 41030000 		.4byte	.LASF171
 12394 32bd 08       		.byte	0x8
 12395 32be 23       		.byte	0x23
 12396 32bf 32       		.uleb128 0x32
 12397 32c0 73020000 		.4byte	.LASF172
 12398 32c4 73020000 		.4byte	.LASF172
 12399 32c8 08       		.byte	0x8
 12400 32c9 2C       		.byte	0x2c
 12401 32ca 32       		.uleb128 0x32
 12402 32cb AE040000 		.4byte	.LASF173
 12403 32cf AE040000 		.4byte	.LASF173
 12404 32d3 09       		.byte	0x9
 12405 32d4 21       		.byte	0x21
 12406 32d5 32       		.uleb128 0x32
 12407 32d6 030D0000 		.4byte	.LASF174
 12408 32da 030D0000 		.4byte	.LASF174
 12409 32de 0D       		.byte	0xd
 12410 32df A3       		.byte	0xa3
 12411 32e0 32       		.uleb128 0x32
 12412 32e1 54070000 		.4byte	.LASF175
 12413 32e5 54070000 		.4byte	.LASF175
 12414 32e9 0A       		.byte	0xa
 12415 32ea 8B       		.byte	0x8b
 12416 32eb 32       		.uleb128 0x32
 12417 32ec 29030000 		.4byte	.LASF176
ARM GAS  C:\Users\FRANKL~1\AppData\Local\Temp\ccXJlYBQ.s 			page 251


 12418 32f0 29030000 		.4byte	.LASF176
 12419 32f4 0D       		.byte	0xd
 12420 32f5 94       		.byte	0x94
 12421 32f6 32       		.uleb128 0x32
 12422 32f7 12050000 		.4byte	.LASF177
 12423 32fb 12050000 		.4byte	.LASF177
 12424 32ff 0D       		.byte	0xd
 12425 3300 93       		.byte	0x93
 12426 3301 32       		.uleb128 0x32
 12427 3302 AC000000 		.4byte	.LASF178
 12428 3306 AC000000 		.4byte	.LASF178
 12429 330a 0E       		.byte	0xe
 12430 330b E7       		.byte	0xe7
 12431 330c 32       		.uleb128 0x32
 12432 330d 72050000 		.4byte	.LASF179
 12433 3311 72050000 		.4byte	.LASF179
 12434 3315 0D       		.byte	0xd
 12435 3316 A4       		.byte	0xa4
 12436 3317 32       		.uleb128 0x32
 12437 3318 DD040000 		.4byte	.LASF180
 12438 331c DD040000 		.4byte	.LASF180
 12439 3320 0D       		.byte	0xd
 12440 3321 A7       		.byte	0xa7
 12441 3322 32       		.uleb128 0x32
 12442 3323 57090000 		.4byte	.LASF181
 12443 3327 57090000 		.4byte	.LASF181
 12444 332b 0F       		.byte	0xf
 12445 332c 3D       		.byte	0x3d
 12446 332d 32       		.uleb128 0x32
 12447 332e 050B0000 		.4byte	.LASF182
 12448 3332 050B0000 		.4byte	.LASF182
 12449 3336 0F       		.byte	0xf
 12450 3337 3F       		.byte	0x3f
 12451 3338 32       		.uleb128 0x32
 12452 3339 A4090000 		.4byte	.LASF183
 12453 333d A4090000 		.4byte	.LASF183
 12454 3341 0F       		.byte	0xf
 12455 3342 42       		.byte	0x42
 12456 3343 32       		.uleb128 0x32
 12457 3344 7D060000 		.4byte	.LASF184
 12458 3348 7D060000 		.4byte	.LASF184
 12459 334c 0F       		.byte	0xf
 12460 334d 48       		.byte	0x48
 12461 334e 32       		.uleb128 0x32
 12462 334f 8E0A0000 		.4byte	.LASF185
 12463 3353 8E0A0000 		.4byte	.LASF185
 12464 3357 10       		.byte	0x10
 12465 3358 37       		.byte	0x37
 12466 3359 32       		.uleb128 0x32
 12467 335a 5C040000 		.4byte	.LASF186
 12468 335e 5C040000 		.4byte	.LASF186
 12469 3362 11       		.byte	0x11
 12470 3363 37       		.byte	0x37
 12471 3364 32       		.uleb128 0x32
 12472 3365 A3020000 		.4byte	.LASF187
 12473 3369 A3020000 		.4byte	.LASF187
 12474 336d 12       		.byte	0x12
ARM GAS  C:\Users\FRANKL~1\AppData\Local\Temp\ccXJlYBQ.s 			page 252


 12475 336e 37       		.byte	0x37
 12476 336f 32       		.uleb128 0x32
 12477 3370 6E0C0000 		.4byte	.LASF188
 12478 3374 6E0C0000 		.4byte	.LASF188
 12479 3378 13       		.byte	0x13
 12480 3379 D1       		.byte	0xd1
 12481 337a 32       		.uleb128 0x32
 12482 337b 520A0000 		.4byte	.LASF189
 12483 337f 520A0000 		.4byte	.LASF189
 12484 3383 14       		.byte	0x14
 12485 3384 D1       		.byte	0xd1
 12486 3385 32       		.uleb128 0x32
 12487 3386 6B0B0000 		.4byte	.LASF190
 12488 338a 6B0B0000 		.4byte	.LASF190
 12489 338e 13       		.byte	0x13
 12490 338f 39       		.byte	0x39
 12491 3390 32       		.uleb128 0x32
 12492 3391 B4060000 		.4byte	.LASF191
 12493 3395 B4060000 		.4byte	.LASF191
 12494 3399 14       		.byte	0x14
 12495 339a 39       		.byte	0x39
 12496 339b 32       		.uleb128 0x32
 12497 339c 41090000 		.4byte	.LASF192
 12498 33a0 41090000 		.4byte	.LASF192
 12499 33a4 13       		.byte	0x13
 12500 33a5 3B       		.byte	0x3b
 12501 33a6 32       		.uleb128 0x32
 12502 33a7 AF0C0000 		.4byte	.LASF193
 12503 33ab AF0C0000 		.4byte	.LASF193
 12504 33af 13       		.byte	0x13
 12505 33b0 41       		.byte	0x41
 12506 33b1 32       		.uleb128 0x32
 12507 33b2 850C0000 		.4byte	.LASF194
 12508 33b6 850C0000 		.4byte	.LASF194
 12509 33ba 14       		.byte	0x14
 12510 33bb 3B       		.byte	0x3b
 12511 33bc 32       		.uleb128 0x32
 12512 33bd AF030000 		.4byte	.LASF195
 12513 33c1 AF030000 		.4byte	.LASF195
 12514 33c5 14       		.byte	0x14
 12515 33c6 41       		.byte	0x41
 12516 33c7 33       		.uleb128 0x33
 12517 33c8 5D020000 		.4byte	.LASF215
 12518 33cc 26070000 		.4byte	.LASF216
 12519 33d0 18       		.byte	0x18
 12520 33d1 00       		.byte	0
 12521 33d2 5D020000 		.4byte	.LASF215
 12522 33d6 32       		.uleb128 0x32
 12523 33d7 22030000 		.4byte	.LASF196
 12524 33db 22030000 		.4byte	.LASF196
 12525 33df 15       		.byte	0x15
 12526 33e0 A2       		.byte	0xa2
 12527 33e1 32       		.uleb128 0x32
 12528 33e2 6E060000 		.4byte	.LASF197
 12529 33e6 6E060000 		.4byte	.LASF197
 12530 33ea 0E       		.byte	0xe
 12531 33eb BF       		.byte	0xbf
ARM GAS  C:\Users\FRANKL~1\AppData\Local\Temp\ccXJlYBQ.s 			page 253


 12532 33ec 31       		.uleb128 0x31
 12533 33ed 57030000 		.4byte	.LASF198
 12534 33f1 57030000 		.4byte	.LASF198
 12535 33f5 07       		.byte	0x7
 12536 33f6 2A01     		.2byte	0x12a
 12537 33f8 32       		.uleb128 0x32
 12538 33f9 34030000 		.4byte	.LASF199
 12539 33fd 34030000 		.4byte	.LASF199
 12540 3401 0A       		.byte	0xa
 12541 3402 54       		.byte	0x54
 12542 3403 32       		.uleb128 0x32
 12543 3404 10000000 		.4byte	.LASF200
 12544 3408 10000000 		.4byte	.LASF200
 12545 340c 11       		.byte	0x11
 12546 340d 33       		.byte	0x33
 12547 340e 32       		.uleb128 0x32
 12548 340f 6E010000 		.4byte	.LASF201
 12549 3413 6E010000 		.4byte	.LASF201
 12550 3417 10       		.byte	0x10
 12551 3418 33       		.byte	0x33
 12552 3419 32       		.uleb128 0x32
 12553 341a B5010000 		.4byte	.LASF202
 12554 341e B5010000 		.4byte	.LASF202
 12555 3422 12       		.byte	0x12
 12556 3423 33       		.byte	0x33
 12557 3424 32       		.uleb128 0x32
 12558 3425 86030000 		.4byte	.LASF203
 12559 3429 86030000 		.4byte	.LASF203
 12560 342d 0F       		.byte	0xf
 12561 342e 3A       		.byte	0x3a
 12562 342f 32       		.uleb128 0x32
 12563 3430 8E040000 		.4byte	.LASF204
 12564 3434 8E040000 		.4byte	.LASF204
 12565 3438 16       		.byte	0x16
 12566 3439 3D       		.byte	0x3d
 12567 343a 32       		.uleb128 0x32
 12568 343b E5060000 		.4byte	.LASF205
 12569 343f E5060000 		.4byte	.LASF205
 12570 3443 13       		.byte	0x13
 12571 3444 34       		.byte	0x34
 12572 3445 32       		.uleb128 0x32
 12573 3446 FB000000 		.4byte	.LASF206
 12574 344a FB000000 		.4byte	.LASF206
 12575 344e 14       		.byte	0x14
 12576 344f 34       		.byte	0x34
 12577 3450 32       		.uleb128 0x32
 12578 3451 7F0A0000 		.4byte	.LASF207
 12579 3455 7F0A0000 		.4byte	.LASF207
 12580 3459 17       		.byte	0x17
 12581 345a 76       		.byte	0x76
 12582 345b 32       		.uleb128 0x32
 12583 345c BB020000 		.4byte	.LASF208
 12584 3460 BB020000 		.4byte	.LASF208
 12585 3464 0C       		.byte	0xc
 12586 3465 5A       		.byte	0x5a
 12587 3466 32       		.uleb128 0x32
 12588 3467 75080000 		.4byte	.LASF209
ARM GAS  C:\Users\FRANKL~1\AppData\Local\Temp\ccXJlYBQ.s 			page 254


 12589 346b 75080000 		.4byte	.LASF209
 12590 346f 0B       		.byte	0xb
 12591 3470 18       		.byte	0x18
 12592 3471 00       		.byte	0
 12593              		.section	.debug_abbrev,"",%progbits
 12594              	.Ldebug_abbrev0:
 12595 0000 01       		.uleb128 0x1
 12596 0001 11       		.uleb128 0x11
 12597 0002 01       		.byte	0x1
 12598 0003 25       		.uleb128 0x25
 12599 0004 0E       		.uleb128 0xe
 12600 0005 13       		.uleb128 0x13
 12601 0006 0B       		.uleb128 0xb
 12602 0007 03       		.uleb128 0x3
 12603 0008 0E       		.uleb128 0xe
 12604 0009 1B       		.uleb128 0x1b
 12605 000a 0E       		.uleb128 0xe
 12606 000b 55       		.uleb128 0x55
 12607 000c 17       		.uleb128 0x17
 12608 000d 11       		.uleb128 0x11
 12609 000e 01       		.uleb128 0x1
 12610 000f 10       		.uleb128 0x10
 12611 0010 17       		.uleb128 0x17
 12612 0011 00       		.byte	0
 12613 0012 00       		.byte	0
 12614 0013 02       		.uleb128 0x2
 12615 0014 24       		.uleb128 0x24
 12616 0015 00       		.byte	0
 12617 0016 0B       		.uleb128 0xb
 12618 0017 0B       		.uleb128 0xb
 12619 0018 3E       		.uleb128 0x3e
 12620 0019 0B       		.uleb128 0xb
 12621 001a 03       		.uleb128 0x3
 12622 001b 0E       		.uleb128 0xe
 12623 001c 00       		.byte	0
 12624 001d 00       		.byte	0
 12625 001e 03       		.uleb128 0x3
 12626 001f 24       		.uleb128 0x24
 12627 0020 00       		.byte	0
 12628 0021 0B       		.uleb128 0xb
 12629 0022 0B       		.uleb128 0xb
 12630 0023 3E       		.uleb128 0x3e
 12631 0024 0B       		.uleb128 0xb
 12632 0025 03       		.uleb128 0x3
 12633 0026 08       		.uleb128 0x8
 12634 0027 00       		.byte	0
 12635 0028 00       		.byte	0
 12636 0029 04       		.uleb128 0x4
 12637 002a 16       		.uleb128 0x16
 12638 002b 00       		.byte	0
 12639 002c 03       		.uleb128 0x3
 12640 002d 0E       		.uleb128 0xe
 12641 002e 3A       		.uleb128 0x3a
 12642 002f 0B       		.uleb128 0xb
 12643 0030 3B       		.uleb128 0x3b
 12644 0031 0B       		.uleb128 0xb
 12645 0032 49       		.uleb128 0x49
ARM GAS  C:\Users\FRANKL~1\AppData\Local\Temp\ccXJlYBQ.s 			page 255


 12646 0033 13       		.uleb128 0x13
 12647 0034 00       		.byte	0
 12648 0035 00       		.byte	0
 12649 0036 05       		.uleb128 0x5
 12650 0037 0F       		.uleb128 0xf
 12651 0038 00       		.byte	0
 12652 0039 0B       		.uleb128 0xb
 12653 003a 0B       		.uleb128 0xb
 12654 003b 49       		.uleb128 0x49
 12655 003c 13       		.uleb128 0x13
 12656 003d 00       		.byte	0
 12657 003e 00       		.byte	0
 12658 003f 06       		.uleb128 0x6
 12659 0040 26       		.uleb128 0x26
 12660 0041 00       		.byte	0
 12661 0042 49       		.uleb128 0x49
 12662 0043 13       		.uleb128 0x13
 12663 0044 00       		.byte	0
 12664 0045 00       		.byte	0
 12665 0046 07       		.uleb128 0x7
 12666 0047 16       		.uleb128 0x16
 12667 0048 00       		.byte	0
 12668 0049 03       		.uleb128 0x3
 12669 004a 0E       		.uleb128 0xe
 12670 004b 3A       		.uleb128 0x3a
 12671 004c 0B       		.uleb128 0xb
 12672 004d 3B       		.uleb128 0x3b
 12673 004e 05       		.uleb128 0x5
 12674 004f 49       		.uleb128 0x49
 12675 0050 13       		.uleb128 0x13
 12676 0051 00       		.byte	0
 12677 0052 00       		.byte	0
 12678 0053 08       		.uleb128 0x8
 12679 0054 35       		.uleb128 0x35
 12680 0055 00       		.byte	0
 12681 0056 49       		.uleb128 0x49
 12682 0057 13       		.uleb128 0x13
 12683 0058 00       		.byte	0
 12684 0059 00       		.byte	0
 12685 005a 09       		.uleb128 0x9
 12686 005b 13       		.uleb128 0x13
 12687 005c 01       		.byte	0x1
 12688 005d 0B       		.uleb128 0xb
 12689 005e 0B       		.uleb128 0xb
 12690 005f 3A       		.uleb128 0x3a
 12691 0060 0B       		.uleb128 0xb
 12692 0061 3B       		.uleb128 0x3b
 12693 0062 0B       		.uleb128 0xb
 12694 0063 01       		.uleb128 0x1
 12695 0064 13       		.uleb128 0x13
 12696 0065 00       		.byte	0
 12697 0066 00       		.byte	0
 12698 0067 0A       		.uleb128 0xa
 12699 0068 0D       		.uleb128 0xd
 12700 0069 00       		.byte	0
 12701 006a 03       		.uleb128 0x3
 12702 006b 0E       		.uleb128 0xe
ARM GAS  C:\Users\FRANKL~1\AppData\Local\Temp\ccXJlYBQ.s 			page 256


 12703 006c 3A       		.uleb128 0x3a
 12704 006d 0B       		.uleb128 0xb
 12705 006e 3B       		.uleb128 0x3b
 12706 006f 0B       		.uleb128 0xb
 12707 0070 49       		.uleb128 0x49
 12708 0071 13       		.uleb128 0x13
 12709 0072 38       		.uleb128 0x38
 12710 0073 0B       		.uleb128 0xb
 12711 0074 00       		.byte	0
 12712 0075 00       		.byte	0
 12713 0076 0B       		.uleb128 0xb
 12714 0077 01       		.uleb128 0x1
 12715 0078 01       		.byte	0x1
 12716 0079 49       		.uleb128 0x49
 12717 007a 13       		.uleb128 0x13
 12718 007b 01       		.uleb128 0x1
 12719 007c 13       		.uleb128 0x13
 12720 007d 00       		.byte	0
 12721 007e 00       		.byte	0
 12722 007f 0C       		.uleb128 0xc
 12723 0080 21       		.uleb128 0x21
 12724 0081 00       		.byte	0
 12725 0082 49       		.uleb128 0x49
 12726 0083 13       		.uleb128 0x13
 12727 0084 2F       		.uleb128 0x2f
 12728 0085 0B       		.uleb128 0xb
 12729 0086 00       		.byte	0
 12730 0087 00       		.byte	0
 12731 0088 0D       		.uleb128 0xd
 12732 0089 13       		.uleb128 0x13
 12733 008a 01       		.byte	0x1
 12734 008b 03       		.uleb128 0x3
 12735 008c 0E       		.uleb128 0xe
 12736 008d 0B       		.uleb128 0xb
 12737 008e 0B       		.uleb128 0xb
 12738 008f 3A       		.uleb128 0x3a
 12739 0090 0B       		.uleb128 0xb
 12740 0091 3B       		.uleb128 0x3b
 12741 0092 0B       		.uleb128 0xb
 12742 0093 01       		.uleb128 0x1
 12743 0094 13       		.uleb128 0x13
 12744 0095 00       		.byte	0
 12745 0096 00       		.byte	0
 12746 0097 0E       		.uleb128 0xe
 12747 0098 2E       		.uleb128 0x2e
 12748 0099 01       		.byte	0x1
 12749 009a 3F       		.uleb128 0x3f
 12750 009b 19       		.uleb128 0x19
 12751 009c 03       		.uleb128 0x3
 12752 009d 0E       		.uleb128 0xe
 12753 009e 3A       		.uleb128 0x3a
 12754 009f 0B       		.uleb128 0xb
 12755 00a0 3B       		.uleb128 0x3b
 12756 00a1 0B       		.uleb128 0xb
 12757 00a2 11       		.uleb128 0x11
 12758 00a3 01       		.uleb128 0x1
 12759 00a4 12       		.uleb128 0x12
ARM GAS  C:\Users\FRANKL~1\AppData\Local\Temp\ccXJlYBQ.s 			page 257


 12760 00a5 06       		.uleb128 0x6
 12761 00a6 40       		.uleb128 0x40
 12762 00a7 18       		.uleb128 0x18
 12763 00a8 9742     		.uleb128 0x2117
 12764 00aa 19       		.uleb128 0x19
 12765 00ab 01       		.uleb128 0x1
 12766 00ac 13       		.uleb128 0x13
 12767 00ad 00       		.byte	0
 12768 00ae 00       		.byte	0
 12769 00af 0F       		.uleb128 0xf
 12770 00b0 34       		.uleb128 0x34
 12771 00b1 00       		.byte	0
 12772 00b2 03       		.uleb128 0x3
 12773 00b3 0E       		.uleb128 0xe
 12774 00b4 3A       		.uleb128 0x3a
 12775 00b5 0B       		.uleb128 0xb
 12776 00b6 3B       		.uleb128 0x3b
 12777 00b7 0B       		.uleb128 0xb
 12778 00b8 49       		.uleb128 0x49
 12779 00b9 13       		.uleb128 0x13
 12780 00ba 02       		.uleb128 0x2
 12781 00bb 17       		.uleb128 0x17
 12782 00bc 00       		.byte	0
 12783 00bd 00       		.byte	0
 12784 00be 10       		.uleb128 0x10
 12785 00bf 898201   		.uleb128 0x4109
 12786 00c2 00       		.byte	0
 12787 00c3 11       		.uleb128 0x11
 12788 00c4 01       		.uleb128 0x1
 12789 00c5 31       		.uleb128 0x31
 12790 00c6 13       		.uleb128 0x13
 12791 00c7 00       		.byte	0
 12792 00c8 00       		.byte	0
 12793 00c9 11       		.uleb128 0x11
 12794 00ca 2E       		.uleb128 0x2e
 12795 00cb 01       		.byte	0x1
 12796 00cc 3F       		.uleb128 0x3f
 12797 00cd 19       		.uleb128 0x19
 12798 00ce 03       		.uleb128 0x3
 12799 00cf 0E       		.uleb128 0xe
 12800 00d0 3A       		.uleb128 0x3a
 12801 00d1 0B       		.uleb128 0xb
 12802 00d2 3B       		.uleb128 0x3b
 12803 00d3 0B       		.uleb128 0xb
 12804 00d4 49       		.uleb128 0x49
 12805 00d5 13       		.uleb128 0x13
 12806 00d6 11       		.uleb128 0x11
 12807 00d7 01       		.uleb128 0x1
 12808 00d8 12       		.uleb128 0x12
 12809 00d9 06       		.uleb128 0x6
 12810 00da 40       		.uleb128 0x40
 12811 00db 18       		.uleb128 0x18
 12812 00dc 9742     		.uleb128 0x2117
 12813 00de 19       		.uleb128 0x19
 12814 00df 01       		.uleb128 0x1
 12815 00e0 13       		.uleb128 0x13
 12816 00e1 00       		.byte	0
ARM GAS  C:\Users\FRANKL~1\AppData\Local\Temp\ccXJlYBQ.s 			page 258


 12817 00e2 00       		.byte	0
 12818 00e3 12       		.uleb128 0x12
 12819 00e4 2E       		.uleb128 0x2e
 12820 00e5 01       		.byte	0x1
 12821 00e6 3F       		.uleb128 0x3f
 12822 00e7 19       		.uleb128 0x19
 12823 00e8 03       		.uleb128 0x3
 12824 00e9 0E       		.uleb128 0xe
 12825 00ea 3A       		.uleb128 0x3a
 12826 00eb 0B       		.uleb128 0xb
 12827 00ec 3B       		.uleb128 0x3b
 12828 00ed 05       		.uleb128 0x5
 12829 00ee 27       		.uleb128 0x27
 12830 00ef 19       		.uleb128 0x19
 12831 00f0 11       		.uleb128 0x11
 12832 00f1 01       		.uleb128 0x1
 12833 00f2 12       		.uleb128 0x12
 12834 00f3 06       		.uleb128 0x6
 12835 00f4 40       		.uleb128 0x40
 12836 00f5 18       		.uleb128 0x18
 12837 00f6 9742     		.uleb128 0x2117
 12838 00f8 19       		.uleb128 0x19
 12839 00f9 01       		.uleb128 0x1
 12840 00fa 13       		.uleb128 0x13
 12841 00fb 00       		.byte	0
 12842 00fc 00       		.byte	0
 12843 00fd 13       		.uleb128 0x13
 12844 00fe 0B       		.uleb128 0xb
 12845 00ff 01       		.byte	0x1
 12846 0100 11       		.uleb128 0x11
 12847 0101 01       		.uleb128 0x1
 12848 0102 12       		.uleb128 0x12
 12849 0103 06       		.uleb128 0x6
 12850 0104 01       		.uleb128 0x1
 12851 0105 13       		.uleb128 0x13
 12852 0106 00       		.byte	0
 12853 0107 00       		.byte	0
 12854 0108 14       		.uleb128 0x14
 12855 0109 34       		.uleb128 0x34
 12856 010a 00       		.byte	0
 12857 010b 03       		.uleb128 0x3
 12858 010c 0E       		.uleb128 0xe
 12859 010d 3A       		.uleb128 0x3a
 12860 010e 0B       		.uleb128 0xb
 12861 010f 3B       		.uleb128 0x3b
 12862 0110 05       		.uleb128 0x5
 12863 0111 49       		.uleb128 0x49
 12864 0112 13       		.uleb128 0x13
 12865 0113 02       		.uleb128 0x2
 12866 0114 18       		.uleb128 0x18
 12867 0115 00       		.byte	0
 12868 0116 00       		.byte	0
 12869 0117 15       		.uleb128 0x15
 12870 0118 34       		.uleb128 0x34
 12871 0119 00       		.byte	0
 12872 011a 03       		.uleb128 0x3
 12873 011b 0E       		.uleb128 0xe
ARM GAS  C:\Users\FRANKL~1\AppData\Local\Temp\ccXJlYBQ.s 			page 259


 12874 011c 3A       		.uleb128 0x3a
 12875 011d 0B       		.uleb128 0xb
 12876 011e 3B       		.uleb128 0x3b
 12877 011f 05       		.uleb128 0x5
 12878 0120 49       		.uleb128 0x49
 12879 0121 13       		.uleb128 0x13
 12880 0122 02       		.uleb128 0x2
 12881 0123 17       		.uleb128 0x17
 12882 0124 00       		.byte	0
 12883 0125 00       		.byte	0
 12884 0126 16       		.uleb128 0x16
 12885 0127 34       		.uleb128 0x34
 12886 0128 00       		.byte	0
 12887 0129 03       		.uleb128 0x3
 12888 012a 08       		.uleb128 0x8
 12889 012b 3A       		.uleb128 0x3a
 12890 012c 0B       		.uleb128 0xb
 12891 012d 3B       		.uleb128 0x3b
 12892 012e 05       		.uleb128 0x5
 12893 012f 49       		.uleb128 0x49
 12894 0130 13       		.uleb128 0x13
 12895 0131 02       		.uleb128 0x2
 12896 0132 17       		.uleb128 0x17
 12897 0133 00       		.byte	0
 12898 0134 00       		.byte	0
 12899 0135 17       		.uleb128 0x17
 12900 0136 0B       		.uleb128 0xb
 12901 0137 01       		.byte	0x1
 12902 0138 11       		.uleb128 0x11
 12903 0139 01       		.uleb128 0x1
 12904 013a 12       		.uleb128 0x12
 12905 013b 06       		.uleb128 0x6
 12906 013c 00       		.byte	0
 12907 013d 00       		.byte	0
 12908 013e 18       		.uleb128 0x18
 12909 013f 898201   		.uleb128 0x4109
 12910 0142 01       		.byte	0x1
 12911 0143 11       		.uleb128 0x11
 12912 0144 01       		.uleb128 0x1
 12913 0145 31       		.uleb128 0x31
 12914 0146 13       		.uleb128 0x13
 12915 0147 00       		.byte	0
 12916 0148 00       		.byte	0
 12917 0149 19       		.uleb128 0x19
 12918 014a 8A8201   		.uleb128 0x410a
 12919 014d 00       		.byte	0
 12920 014e 02       		.uleb128 0x2
 12921 014f 18       		.uleb128 0x18
 12922 0150 9142     		.uleb128 0x2111
 12923 0152 18       		.uleb128 0x18
 12924 0153 00       		.byte	0
 12925 0154 00       		.byte	0
 12926 0155 1A       		.uleb128 0x1a
 12927 0156 898201   		.uleb128 0x4109
 12928 0159 01       		.byte	0x1
 12929 015a 11       		.uleb128 0x11
 12930 015b 01       		.uleb128 0x1
ARM GAS  C:\Users\FRANKL~1\AppData\Local\Temp\ccXJlYBQ.s 			page 260


 12931 015c 31       		.uleb128 0x31
 12932 015d 13       		.uleb128 0x13
 12933 015e 01       		.uleb128 0x1
 12934 015f 13       		.uleb128 0x13
 12935 0160 00       		.byte	0
 12936 0161 00       		.byte	0
 12937 0162 1B       		.uleb128 0x1b
 12938 0163 2E       		.uleb128 0x2e
 12939 0164 01       		.byte	0x1
 12940 0165 3F       		.uleb128 0x3f
 12941 0166 19       		.uleb128 0x19
 12942 0167 03       		.uleb128 0x3
 12943 0168 0E       		.uleb128 0xe
 12944 0169 3A       		.uleb128 0x3a
 12945 016a 0B       		.uleb128 0xb
 12946 016b 3B       		.uleb128 0x3b
 12947 016c 0B       		.uleb128 0xb
 12948 016d 27       		.uleb128 0x27
 12949 016e 19       		.uleb128 0x19
 12950 016f 49       		.uleb128 0x49
 12951 0170 13       		.uleb128 0x13
 12952 0171 11       		.uleb128 0x11
 12953 0172 01       		.uleb128 0x1
 12954 0173 12       		.uleb128 0x12
 12955 0174 06       		.uleb128 0x6
 12956 0175 40       		.uleb128 0x40
 12957 0176 18       		.uleb128 0x18
 12958 0177 9742     		.uleb128 0x2117
 12959 0179 19       		.uleb128 0x19
 12960 017a 01       		.uleb128 0x1
 12961 017b 13       		.uleb128 0x13
 12962 017c 00       		.byte	0
 12963 017d 00       		.byte	0
 12964 017e 1C       		.uleb128 0x1c
 12965 017f 05       		.uleb128 0x5
 12966 0180 00       		.byte	0
 12967 0181 03       		.uleb128 0x3
 12968 0182 0E       		.uleb128 0xe
 12969 0183 3A       		.uleb128 0x3a
 12970 0184 0B       		.uleb128 0xb
 12971 0185 3B       		.uleb128 0x3b
 12972 0186 0B       		.uleb128 0xb
 12973 0187 49       		.uleb128 0x49
 12974 0188 13       		.uleb128 0x13
 12975 0189 02       		.uleb128 0x2
 12976 018a 17       		.uleb128 0x17
 12977 018b 00       		.byte	0
 12978 018c 00       		.byte	0
 12979 018d 1D       		.uleb128 0x1d
 12980 018e 0B       		.uleb128 0xb
 12981 018f 01       		.byte	0x1
 12982 0190 55       		.uleb128 0x55
 12983 0191 17       		.uleb128 0x17
 12984 0192 01       		.uleb128 0x1
 12985 0193 13       		.uleb128 0x13
 12986 0194 00       		.byte	0
 12987 0195 00       		.byte	0
ARM GAS  C:\Users\FRANKL~1\AppData\Local\Temp\ccXJlYBQ.s 			page 261


 12988 0196 1E       		.uleb128 0x1e
 12989 0197 34       		.uleb128 0x34
 12990 0198 00       		.byte	0
 12991 0199 03       		.uleb128 0x3
 12992 019a 08       		.uleb128 0x8
 12993 019b 3A       		.uleb128 0x3a
 12994 019c 0B       		.uleb128 0xb
 12995 019d 3B       		.uleb128 0x3b
 12996 019e 0B       		.uleb128 0xb
 12997 019f 49       		.uleb128 0x49
 12998 01a0 13       		.uleb128 0x13
 12999 01a1 02       		.uleb128 0x2
 13000 01a2 17       		.uleb128 0x17
 13001 01a3 00       		.byte	0
 13002 01a4 00       		.byte	0
 13003 01a5 1F       		.uleb128 0x1f
 13004 01a6 2E       		.uleb128 0x2e
 13005 01a7 01       		.byte	0x1
 13006 01a8 3F       		.uleb128 0x3f
 13007 01a9 19       		.uleb128 0x19
 13008 01aa 03       		.uleb128 0x3
 13009 01ab 0E       		.uleb128 0xe
 13010 01ac 3A       		.uleb128 0x3a
 13011 01ad 0B       		.uleb128 0xb
 13012 01ae 3B       		.uleb128 0x3b
 13013 01af 0B       		.uleb128 0xb
 13014 01b0 27       		.uleb128 0x27
 13015 01b1 19       		.uleb128 0x19
 13016 01b2 11       		.uleb128 0x11
 13017 01b3 01       		.uleb128 0x1
 13018 01b4 12       		.uleb128 0x12
 13019 01b5 06       		.uleb128 0x6
 13020 01b6 40       		.uleb128 0x40
 13021 01b7 18       		.uleb128 0x18
 13022 01b8 9742     		.uleb128 0x2117
 13023 01ba 19       		.uleb128 0x19
 13024 01bb 01       		.uleb128 0x1
 13025 01bc 13       		.uleb128 0x13
 13026 01bd 00       		.byte	0
 13027 01be 00       		.byte	0
 13028 01bf 20       		.uleb128 0x20
 13029 01c0 05       		.uleb128 0x5
 13030 01c1 00       		.byte	0
 13031 01c2 03       		.uleb128 0x3
 13032 01c3 0E       		.uleb128 0xe
 13033 01c4 3A       		.uleb128 0x3a
 13034 01c5 0B       		.uleb128 0xb
 13035 01c6 3B       		.uleb128 0x3b
 13036 01c7 0B       		.uleb128 0xb
 13037 01c8 49       		.uleb128 0x49
 13038 01c9 13       		.uleb128 0x13
 13039 01ca 02       		.uleb128 0x2
 13040 01cb 18       		.uleb128 0x18
 13041 01cc 00       		.byte	0
 13042 01cd 00       		.byte	0
 13043 01ce 21       		.uleb128 0x21
 13044 01cf 2E       		.uleb128 0x2e
ARM GAS  C:\Users\FRANKL~1\AppData\Local\Temp\ccXJlYBQ.s 			page 262


 13045 01d0 01       		.byte	0x1
 13046 01d1 3F       		.uleb128 0x3f
 13047 01d2 19       		.uleb128 0x19
 13048 01d3 03       		.uleb128 0x3
 13049 01d4 0E       		.uleb128 0xe
 13050 01d5 3A       		.uleb128 0x3a
 13051 01d6 0B       		.uleb128 0xb
 13052 01d7 3B       		.uleb128 0x3b
 13053 01d8 0B       		.uleb128 0xb
 13054 01d9 27       		.uleb128 0x27
 13055 01da 19       		.uleb128 0x19
 13056 01db 11       		.uleb128 0x11
 13057 01dc 01       		.uleb128 0x1
 13058 01dd 12       		.uleb128 0x12
 13059 01de 06       		.uleb128 0x6
 13060 01df 40       		.uleb128 0x40
 13061 01e0 18       		.uleb128 0x18
 13062 01e1 9642     		.uleb128 0x2116
 13063 01e3 19       		.uleb128 0x19
 13064 01e4 01       		.uleb128 0x1
 13065 01e5 13       		.uleb128 0x13
 13066 01e6 00       		.byte	0
 13067 01e7 00       		.byte	0
 13068 01e8 22       		.uleb128 0x22
 13069 01e9 0B       		.uleb128 0xb
 13070 01ea 01       		.byte	0x1
 13071 01eb 55       		.uleb128 0x55
 13072 01ec 17       		.uleb128 0x17
 13073 01ed 00       		.byte	0
 13074 01ee 00       		.byte	0
 13075 01ef 23       		.uleb128 0x23
 13076 01f0 34       		.uleb128 0x34
 13077 01f1 00       		.byte	0
 13078 01f2 03       		.uleb128 0x3
 13079 01f3 0E       		.uleb128 0xe
 13080 01f4 3A       		.uleb128 0x3a
 13081 01f5 0B       		.uleb128 0xb
 13082 01f6 3B       		.uleb128 0x3b
 13083 01f7 0B       		.uleb128 0xb
 13084 01f8 49       		.uleb128 0x49
 13085 01f9 13       		.uleb128 0x13
 13086 01fa 02       		.uleb128 0x2
 13087 01fb 18       		.uleb128 0x18
 13088 01fc 00       		.byte	0
 13089 01fd 00       		.byte	0
 13090 01fe 24       		.uleb128 0x24
 13091 01ff 2E       		.uleb128 0x2e
 13092 0200 01       		.byte	0x1
 13093 0201 3F       		.uleb128 0x3f
 13094 0202 19       		.uleb128 0x19
 13095 0203 03       		.uleb128 0x3
 13096 0204 0E       		.uleb128 0xe
 13097 0205 3A       		.uleb128 0x3a
 13098 0206 0B       		.uleb128 0xb
 13099 0207 3B       		.uleb128 0x3b
 13100 0208 05       		.uleb128 0x5
 13101 0209 11       		.uleb128 0x11
ARM GAS  C:\Users\FRANKL~1\AppData\Local\Temp\ccXJlYBQ.s 			page 263


 13102 020a 01       		.uleb128 0x1
 13103 020b 12       		.uleb128 0x12
 13104 020c 06       		.uleb128 0x6
 13105 020d 40       		.uleb128 0x40
 13106 020e 18       		.uleb128 0x18
 13107 020f 9742     		.uleb128 0x2117
 13108 0211 19       		.uleb128 0x19
 13109 0212 01       		.uleb128 0x1
 13110 0213 13       		.uleb128 0x13
 13111 0214 00       		.byte	0
 13112 0215 00       		.byte	0
 13113 0216 25       		.uleb128 0x25
 13114 0217 2E       		.uleb128 0x2e
 13115 0218 01       		.byte	0x1
 13116 0219 3F       		.uleb128 0x3f
 13117 021a 19       		.uleb128 0x19
 13118 021b 03       		.uleb128 0x3
 13119 021c 0E       		.uleb128 0xe
 13120 021d 3A       		.uleb128 0x3a
 13121 021e 0B       		.uleb128 0xb
 13122 021f 3B       		.uleb128 0x3b
 13123 0220 05       		.uleb128 0x5
 13124 0221 27       		.uleb128 0x27
 13125 0222 19       		.uleb128 0x19
 13126 0223 11       		.uleb128 0x11
 13127 0224 01       		.uleb128 0x1
 13128 0225 12       		.uleb128 0x12
 13129 0226 06       		.uleb128 0x6
 13130 0227 40       		.uleb128 0x40
 13131 0228 18       		.uleb128 0x18
 13132 0229 9642     		.uleb128 0x2116
 13133 022b 19       		.uleb128 0x19
 13134 022c 01       		.uleb128 0x1
 13135 022d 13       		.uleb128 0x13
 13136 022e 00       		.byte	0
 13137 022f 00       		.byte	0
 13138 0230 26       		.uleb128 0x26
 13139 0231 05       		.uleb128 0x5
 13140 0232 00       		.byte	0
 13141 0233 03       		.uleb128 0x3
 13142 0234 0E       		.uleb128 0xe
 13143 0235 3A       		.uleb128 0x3a
 13144 0236 0B       		.uleb128 0xb
 13145 0237 3B       		.uleb128 0x3b
 13146 0238 05       		.uleb128 0x5
 13147 0239 49       		.uleb128 0x49
 13148 023a 13       		.uleb128 0x13
 13149 023b 02       		.uleb128 0x2
 13150 023c 17       		.uleb128 0x17
 13151 023d 00       		.byte	0
 13152 023e 00       		.byte	0
 13153 023f 27       		.uleb128 0x27
 13154 0240 34       		.uleb128 0x34
 13155 0241 00       		.byte	0
 13156 0242 03       		.uleb128 0x3
 13157 0243 0E       		.uleb128 0xe
 13158 0244 3A       		.uleb128 0x3a
ARM GAS  C:\Users\FRANKL~1\AppData\Local\Temp\ccXJlYBQ.s 			page 264


 13159 0245 0B       		.uleb128 0xb
 13160 0246 3B       		.uleb128 0x3b
 13161 0247 05       		.uleb128 0x5
 13162 0248 49       		.uleb128 0x49
 13163 0249 13       		.uleb128 0x13
 13164 024a 1C       		.uleb128 0x1c
 13165 024b 0A       		.uleb128 0xa
 13166 024c 00       		.byte	0
 13167 024d 00       		.byte	0
 13168 024e 28       		.uleb128 0x28
 13169 024f 2E       		.uleb128 0x2e
 13170 0250 01       		.byte	0x1
 13171 0251 3F       		.uleb128 0x3f
 13172 0252 19       		.uleb128 0x19
 13173 0253 03       		.uleb128 0x3
 13174 0254 0E       		.uleb128 0xe
 13175 0255 3A       		.uleb128 0x3a
 13176 0256 0B       		.uleb128 0xb
 13177 0257 3B       		.uleb128 0x3b
 13178 0258 05       		.uleb128 0x5
 13179 0259 49       		.uleb128 0x49
 13180 025a 13       		.uleb128 0x13
 13181 025b 11       		.uleb128 0x11
 13182 025c 01       		.uleb128 0x1
 13183 025d 12       		.uleb128 0x12
 13184 025e 06       		.uleb128 0x6
 13185 025f 40       		.uleb128 0x40
 13186 0260 18       		.uleb128 0x18
 13187 0261 9642     		.uleb128 0x2116
 13188 0263 19       		.uleb128 0x19
 13189 0264 01       		.uleb128 0x1
 13190 0265 13       		.uleb128 0x13
 13191 0266 00       		.byte	0
 13192 0267 00       		.byte	0
 13193 0268 29       		.uleb128 0x29
 13194 0269 05       		.uleb128 0x5
 13195 026a 00       		.byte	0
 13196 026b 03       		.uleb128 0x3
 13197 026c 08       		.uleb128 0x8
 13198 026d 3A       		.uleb128 0x3a
 13199 026e 0B       		.uleb128 0xb
 13200 026f 3B       		.uleb128 0x3b
 13201 0270 05       		.uleb128 0x5
 13202 0271 49       		.uleb128 0x49
 13203 0272 13       		.uleb128 0x13
 13204 0273 02       		.uleb128 0x2
 13205 0274 17       		.uleb128 0x17
 13206 0275 00       		.byte	0
 13207 0276 00       		.byte	0
 13208 0277 2A       		.uleb128 0x2a
 13209 0278 2E       		.uleb128 0x2e
 13210 0279 01       		.byte	0x1
 13211 027a 3F       		.uleb128 0x3f
 13212 027b 19       		.uleb128 0x19
 13213 027c 03       		.uleb128 0x3
 13214 027d 0E       		.uleb128 0xe
 13215 027e 3A       		.uleb128 0x3a
ARM GAS  C:\Users\FRANKL~1\AppData\Local\Temp\ccXJlYBQ.s 			page 265


 13216 027f 0B       		.uleb128 0xb
 13217 0280 3B       		.uleb128 0x3b
 13218 0281 05       		.uleb128 0x5
 13219 0282 11       		.uleb128 0x11
 13220 0283 01       		.uleb128 0x1
 13221 0284 12       		.uleb128 0x12
 13222 0285 06       		.uleb128 0x6
 13223 0286 40       		.uleb128 0x40
 13224 0287 18       		.uleb128 0x18
 13225 0288 9642     		.uleb128 0x2116
 13226 028a 19       		.uleb128 0x19
 13227 028b 01       		.uleb128 0x1
 13228 028c 13       		.uleb128 0x13
 13229 028d 00       		.byte	0
 13230 028e 00       		.byte	0
 13231 028f 2B       		.uleb128 0x2b
 13232 0290 34       		.uleb128 0x34
 13233 0291 00       		.byte	0
 13234 0292 03       		.uleb128 0x3
 13235 0293 0E       		.uleb128 0xe
 13236 0294 3A       		.uleb128 0x3a
 13237 0295 0B       		.uleb128 0xb
 13238 0296 3B       		.uleb128 0x3b
 13239 0297 05       		.uleb128 0x5
 13240 0298 49       		.uleb128 0x49
 13241 0299 13       		.uleb128 0x13
 13242 029a 1C       		.uleb128 0x1c
 13243 029b 0B       		.uleb128 0xb
 13244 029c 00       		.byte	0
 13245 029d 00       		.byte	0
 13246 029e 2C       		.uleb128 0x2c
 13247 029f 34       		.uleb128 0x34
 13248 02a0 00       		.byte	0
 13249 02a1 03       		.uleb128 0x3
 13250 02a2 0E       		.uleb128 0xe
 13251 02a3 3A       		.uleb128 0x3a
 13252 02a4 0B       		.uleb128 0xb
 13253 02a5 3B       		.uleb128 0x3b
 13254 02a6 05       		.uleb128 0x5
 13255 02a7 49       		.uleb128 0x49
 13256 02a8 13       		.uleb128 0x13
 13257 02a9 00       		.byte	0
 13258 02aa 00       		.byte	0
 13259 02ab 2D       		.uleb128 0x2d
 13260 02ac 2E       		.uleb128 0x2e
 13261 02ad 01       		.byte	0x1
 13262 02ae 3F       		.uleb128 0x3f
 13263 02af 19       		.uleb128 0x19
 13264 02b0 03       		.uleb128 0x3
 13265 02b1 0E       		.uleb128 0xe
 13266 02b2 3A       		.uleb128 0x3a
 13267 02b3 0B       		.uleb128 0xb
 13268 02b4 3B       		.uleb128 0x3b
 13269 02b5 05       		.uleb128 0x5
 13270 02b6 27       		.uleb128 0x27
 13271 02b7 19       		.uleb128 0x19
 13272 02b8 49       		.uleb128 0x49
ARM GAS  C:\Users\FRANKL~1\AppData\Local\Temp\ccXJlYBQ.s 			page 266


 13273 02b9 13       		.uleb128 0x13
 13274 02ba 8701     		.uleb128 0x87
 13275 02bc 19       		.uleb128 0x19
 13276 02bd 11       		.uleb128 0x11
 13277 02be 01       		.uleb128 0x1
 13278 02bf 12       		.uleb128 0x12
 13279 02c0 06       		.uleb128 0x6
 13280 02c1 40       		.uleb128 0x40
 13281 02c2 18       		.uleb128 0x18
 13282 02c3 9642     		.uleb128 0x2116
 13283 02c5 19       		.uleb128 0x19
 13284 02c6 01       		.uleb128 0x1
 13285 02c7 13       		.uleb128 0x13
 13286 02c8 00       		.byte	0
 13287 02c9 00       		.byte	0
 13288 02ca 2E       		.uleb128 0x2e
 13289 02cb 34       		.uleb128 0x34
 13290 02cc 00       		.byte	0
 13291 02cd 03       		.uleb128 0x3
 13292 02ce 08       		.uleb128 0x8
 13293 02cf 3A       		.uleb128 0x3a
 13294 02d0 0B       		.uleb128 0xb
 13295 02d1 3B       		.uleb128 0x3b
 13296 02d2 05       		.uleb128 0x5
 13297 02d3 49       		.uleb128 0x49
 13298 02d4 13       		.uleb128 0x13
 13299 02d5 02       		.uleb128 0x2
 13300 02d6 18       		.uleb128 0x18
 13301 02d7 00       		.byte	0
 13302 02d8 00       		.byte	0
 13303 02d9 2F       		.uleb128 0x2f
 13304 02da 34       		.uleb128 0x34
 13305 02db 00       		.byte	0
 13306 02dc 03       		.uleb128 0x3
 13307 02dd 0E       		.uleb128 0xe
 13308 02de 3A       		.uleb128 0x3a
 13309 02df 0B       		.uleb128 0xb
 13310 02e0 3B       		.uleb128 0x3b
 13311 02e1 05       		.uleb128 0x5
 13312 02e2 49       		.uleb128 0x49
 13313 02e3 13       		.uleb128 0x13
 13314 02e4 3F       		.uleb128 0x3f
 13315 02e5 19       		.uleb128 0x19
 13316 02e6 3C       		.uleb128 0x3c
 13317 02e7 19       		.uleb128 0x19
 13318 02e8 00       		.byte	0
 13319 02e9 00       		.byte	0
 13320 02ea 30       		.uleb128 0x30
 13321 02eb 34       		.uleb128 0x34
 13322 02ec 00       		.byte	0
 13323 02ed 03       		.uleb128 0x3
 13324 02ee 0E       		.uleb128 0xe
 13325 02ef 3A       		.uleb128 0x3a
 13326 02f0 0B       		.uleb128 0xb
 13327 02f1 3B       		.uleb128 0x3b
 13328 02f2 0B       		.uleb128 0xb
 13329 02f3 49       		.uleb128 0x49
ARM GAS  C:\Users\FRANKL~1\AppData\Local\Temp\ccXJlYBQ.s 			page 267


 13330 02f4 13       		.uleb128 0x13
 13331 02f5 3F       		.uleb128 0x3f
 13332 02f6 19       		.uleb128 0x19
 13333 02f7 02       		.uleb128 0x2
 13334 02f8 18       		.uleb128 0x18
 13335 02f9 00       		.byte	0
 13336 02fa 00       		.byte	0
 13337 02fb 31       		.uleb128 0x31
 13338 02fc 2E       		.uleb128 0x2e
 13339 02fd 00       		.byte	0
 13340 02fe 3F       		.uleb128 0x3f
 13341 02ff 19       		.uleb128 0x19
 13342 0300 3C       		.uleb128 0x3c
 13343 0301 19       		.uleb128 0x19
 13344 0302 6E       		.uleb128 0x6e
 13345 0303 0E       		.uleb128 0xe
 13346 0304 03       		.uleb128 0x3
 13347 0305 0E       		.uleb128 0xe
 13348 0306 3A       		.uleb128 0x3a
 13349 0307 0B       		.uleb128 0xb
 13350 0308 3B       		.uleb128 0x3b
 13351 0309 05       		.uleb128 0x5
 13352 030a 00       		.byte	0
 13353 030b 00       		.byte	0
 13354 030c 32       		.uleb128 0x32
 13355 030d 2E       		.uleb128 0x2e
 13356 030e 00       		.byte	0
 13357 030f 3F       		.uleb128 0x3f
 13358 0310 19       		.uleb128 0x19
 13359 0311 3C       		.uleb128 0x3c
 13360 0312 19       		.uleb128 0x19
 13361 0313 6E       		.uleb128 0x6e
 13362 0314 0E       		.uleb128 0xe
 13363 0315 03       		.uleb128 0x3
 13364 0316 0E       		.uleb128 0xe
 13365 0317 3A       		.uleb128 0x3a
 13366 0318 0B       		.uleb128 0xb
 13367 0319 3B       		.uleb128 0x3b
 13368 031a 0B       		.uleb128 0xb
 13369 031b 00       		.byte	0
 13370 031c 00       		.byte	0
 13371 031d 33       		.uleb128 0x33
 13372 031e 2E       		.uleb128 0x2e
 13373 031f 00       		.byte	0
 13374 0320 3F       		.uleb128 0x3f
 13375 0321 19       		.uleb128 0x19
 13376 0322 3C       		.uleb128 0x3c
 13377 0323 19       		.uleb128 0x19
 13378 0324 6E       		.uleb128 0x6e
 13379 0325 0E       		.uleb128 0xe
 13380 0326 03       		.uleb128 0x3
 13381 0327 0E       		.uleb128 0xe
 13382 0328 3A       		.uleb128 0x3a
 13383 0329 0B       		.uleb128 0xb
 13384 032a 3B       		.uleb128 0x3b
 13385 032b 0B       		.uleb128 0xb
 13386 032c 6E       		.uleb128 0x6e
ARM GAS  C:\Users\FRANKL~1\AppData\Local\Temp\ccXJlYBQ.s 			page 268


 13387 032d 0E       		.uleb128 0xe
 13388 032e 00       		.byte	0
 13389 032f 00       		.byte	0
 13390 0330 00       		.byte	0
 13391              		.section	.debug_loc,"",%progbits
 13392              	.Ldebug_loc0:
 13393              	.LLST0:
 13394 0000 02000000 		.4byte	.LVL0
 13395 0004 12000000 		.4byte	.LVL3
 13396 0008 0200     		.2byte	0x2
 13397 000a 30       		.byte	0x30
 13398 000b 9F       		.byte	0x9f
 13399 000c 12000000 		.4byte	.LVL3
 13400 0010 18000000 		.4byte	.LFE64
 13401 0014 0200     		.2byte	0x2
 13402 0016 31       		.byte	0x31
 13403 0017 9F       		.byte	0x9f
 13404 0018 00000000 		.4byte	0
 13405 001c 00000000 		.4byte	0
 13406              	.LLST1:
 13407 0020 14000000 		.4byte	.LVL10
 13408 0024 7C000000 		.4byte	.LVL18
 13409 0028 0100     		.2byte	0x1
 13410 002a 50       		.byte	0x50
 13411 002b 00000000 		.4byte	0
 13412 002f 00000000 		.4byte	0
 13413              	.LLST2:
 13414 0033 14000000 		.4byte	.LVL10
 13415 0037 18000000 		.4byte	.LVL11
 13416 003b 0200     		.2byte	0x2
 13417 003d 30       		.byte	0x30
 13418 003e 9F       		.byte	0x9f
 13419 003f 18000000 		.4byte	.LVL11
 13420 0043 74000000 		.4byte	.LVL16
 13421 0047 0100     		.2byte	0x1
 13422 0049 53       		.byte	0x53
 13423 004a 76000000 		.4byte	.LVL17
 13424 004e 7C000000 		.4byte	.LVL18
 13425 0052 0100     		.2byte	0x1
 13426 0054 53       		.byte	0x53
 13427 0055 00000000 		.4byte	0
 13428 0059 00000000 		.4byte	0
 13429              	.LLST3:
 13430 005d 20000000 		.4byte	.LVL12
 13431 0061 3A000000 		.4byte	.LVL13
 13432 0065 0100     		.2byte	0x1
 13433 0067 52       		.byte	0x52
 13434 0068 3A000000 		.4byte	.LVL13
 13435 006c 58000000 		.4byte	.LVL14
 13436 0070 0800     		.2byte	0x8
 13437 0072 91       		.byte	0x91
 13438 0073 00       		.sleb128 0
 13439 0074 73       		.byte	0x73
 13440 0075 00       		.sleb128 0
 13441 0076 22       		.byte	0x22
 13442 0077 08       		.byte	0x8
 13443 0078 50       		.byte	0x50
ARM GAS  C:\Users\FRANKL~1\AppData\Local\Temp\ccXJlYBQ.s 			page 269


 13444 0079 1C       		.byte	0x1c
 13445 007a 58000000 		.4byte	.LVL14
 13446 007e 5C000000 		.4byte	.LVL15
 13447 0082 0100     		.2byte	0x1
 13448 0084 52       		.byte	0x52
 13449 0085 5C000000 		.4byte	.LVL15
 13450 0089 74000000 		.4byte	.LVL16
 13451 008d 0800     		.2byte	0x8
 13452 008f 91       		.byte	0x91
 13453 0090 00       		.sleb128 0
 13454 0091 73       		.byte	0x73
 13455 0092 00       		.sleb128 0
 13456 0093 22       		.byte	0x22
 13457 0094 08       		.byte	0x8
 13458 0095 50       		.byte	0x50
 13459 0096 1C       		.byte	0x1c
 13460 0097 74000000 		.4byte	.LVL16
 13461 009b 76000000 		.4byte	.LVL17
 13462 009f 0800     		.2byte	0x8
 13463 00a1 91       		.byte	0x91
 13464 00a2 00       		.sleb128 0
 13465 00a3 73       		.byte	0x73
 13466 00a4 00       		.sleb128 0
 13467 00a5 22       		.byte	0x22
 13468 00a6 08       		.byte	0x8
 13469 00a7 51       		.byte	0x51
 13470 00a8 1C       		.byte	0x1c
 13471 00a9 00000000 		.4byte	0
 13472 00ad 00000000 		.4byte	0
 13473              	.LLST4:
 13474 00b1 FC000000 		.4byte	.LVL21
 13475 00b5 0C010000 		.4byte	.LVL22
 13476 00b9 0600     		.2byte	0x6
 13477 00bb 03       		.byte	0x3
 13478 00bc 00000000 		.4byte	USBUART_Receive_Buffer
 13479 00c0 9F       		.byte	0x9f
 13480 00c1 0C010000 		.4byte	.LVL22
 13481 00c5 7C010000 		.4byte	.LVL28
 13482 00c9 0100     		.2byte	0x1
 13483 00cb 54       		.byte	0x54
 13484 00cc 00000000 		.4byte	0
 13485 00d0 00000000 		.4byte	0
 13486              	.LLST5:
 13487 00d4 00000000 		.4byte	.LVL31
 13488 00d8 06000000 		.4byte	.LVL32
 13489 00dc 0100     		.2byte	0x1
 13490 00de 50       		.byte	0x50
 13491 00df 06000000 		.4byte	.LVL32
 13492 00e3 08000000 		.4byte	.LVL33
 13493 00e7 0400     		.2byte	0x4
 13494 00e9 F3       		.byte	0xf3
 13495 00ea 01       		.uleb128 0x1
 13496 00eb 50       		.byte	0x50
 13497 00ec 9F       		.byte	0x9f
 13498 00ed 08000000 		.4byte	.LVL33
 13499 00f1 16000000 		.4byte	.LVL37
 13500 00f5 0100     		.2byte	0x1
ARM GAS  C:\Users\FRANKL~1\AppData\Local\Temp\ccXJlYBQ.s 			page 270


 13501 00f7 56       		.byte	0x56
 13502 00f8 16000000 		.4byte	.LVL37
 13503 00fc 1E000000 		.4byte	.LVL38
 13504 0100 0100     		.2byte	0x1
 13505 0102 50       		.byte	0x50
 13506 0103 1E000000 		.4byte	.LVL38
 13507 0107 50000000 		.4byte	.LFE66
 13508 010b 0100     		.2byte	0x1
 13509 010d 56       		.byte	0x56
 13510 010e 00000000 		.4byte	0
 13511 0112 00000000 		.4byte	0
 13512              	.LLST6:
 13513 0116 00000000 		.4byte	.LVL31
 13514 011a 08000000 		.4byte	.LVL33
 13515 011e 0100     		.2byte	0x1
 13516 0120 51       		.byte	0x51
 13517 0121 08000000 		.4byte	.LVL33
 13518 0125 16000000 		.4byte	.LVL37
 13519 0129 0400     		.2byte	0x4
 13520 012b F3       		.byte	0xf3
 13521 012c 01       		.uleb128 0x1
 13522 012d 51       		.byte	0x51
 13523 012e 9F       		.byte	0x9f
 13524 012f 16000000 		.4byte	.LVL37
 13525 0133 1E000000 		.4byte	.LVL38
 13526 0137 0100     		.2byte	0x1
 13527 0139 51       		.byte	0x51
 13528 013a 1E000000 		.4byte	.LVL38
 13529 013e 50000000 		.4byte	.LFE66
 13530 0142 0400     		.2byte	0x4
 13531 0144 F3       		.byte	0xf3
 13532 0145 01       		.uleb128 0x1
 13533 0146 51       		.byte	0x51
 13534 0147 9F       		.byte	0x9f
 13535 0148 00000000 		.4byte	0
 13536 014c 00000000 		.4byte	0
 13537              	.LLST7:
 13538 0150 08000000 		.4byte	.LVL33
 13539 0154 16000000 		.4byte	.LVL37
 13540 0158 0100     		.2byte	0x1
 13541 015a 54       		.byte	0x54
 13542 015b 1E000000 		.4byte	.LVL38
 13543 015f 50000000 		.4byte	.LFE66
 13544 0163 0100     		.2byte	0x1
 13545 0165 54       		.byte	0x54
 13546 0166 00000000 		.4byte	0
 13547 016a 00000000 		.4byte	0
 13548              	.LLST8:
 13549 016e 00000000 		.4byte	.LVL43
 13550 0172 08000000 		.4byte	.LVL44
 13551 0176 0100     		.2byte	0x1
 13552 0178 50       		.byte	0x50
 13553 0179 08000000 		.4byte	.LVL44
 13554 017d 24000000 		.4byte	.LFE67
 13555 0181 0100     		.2byte	0x1
 13556 0183 54       		.byte	0x54
 13557 0184 00000000 		.4byte	0
ARM GAS  C:\Users\FRANKL~1\AppData\Local\Temp\ccXJlYBQ.s 			page 271


 13558 0188 00000000 		.4byte	0
 13559              	.LLST9:
 13560 018c 00000000 		.4byte	.LVL43
 13561 0190 08000000 		.4byte	.LVL44
 13562 0194 0100     		.2byte	0x1
 13563 0196 51       		.byte	0x51
 13564 0197 08000000 		.4byte	.LVL44
 13565 019b 24000000 		.4byte	.LFE67
 13566 019f 0100     		.2byte	0x1
 13567 01a1 55       		.byte	0x55
 13568 01a2 00000000 		.4byte	0
 13569 01a6 00000000 		.4byte	0
 13570              	.LLST10:
 13571 01aa 00000000 		.4byte	.LVL51
 13572 01ae 1E000000 		.4byte	.LVL56
 13573 01b2 0100     		.2byte	0x1
 13574 01b4 50       		.byte	0x50
 13575 01b5 1E000000 		.4byte	.LVL56
 13576 01b9 58000000 		.4byte	.LFE69
 13577 01bd 0100     		.2byte	0x1
 13578 01bf 55       		.byte	0x55
 13579 01c0 00000000 		.4byte	0
 13580 01c4 00000000 		.4byte	0
 13581              	.LLST11:
 13582 01c8 00000000 		.4byte	.LVL51
 13583 01cc 1E000000 		.4byte	.LVL56
 13584 01d0 0100     		.2byte	0x1
 13585 01d2 51       		.byte	0x51
 13586 01d3 1E000000 		.4byte	.LVL56
 13587 01d7 58000000 		.4byte	.LFE69
 13588 01db 0400     		.2byte	0x4
 13589 01dd F3       		.byte	0xf3
 13590 01de 01       		.uleb128 0x1
 13591 01df 51       		.byte	0x51
 13592 01e0 9F       		.byte	0x9f
 13593 01e1 00000000 		.4byte	0
 13594 01e5 00000000 		.4byte	0
 13595              	.LLST12:
 13596 01e9 00000000 		.4byte	.LVL51
 13597 01ed 0E000000 		.4byte	.LVL53
 13598 01f1 0100     		.2byte	0x1
 13599 01f3 52       		.byte	0x52
 13600 01f4 0E000000 		.4byte	.LVL53
 13601 01f8 58000000 		.4byte	.LFE69
 13602 01fc 0100     		.2byte	0x1
 13603 01fe 57       		.byte	0x57
 13604 01ff 00000000 		.4byte	0
 13605 0203 00000000 		.4byte	0
 13606              	.LLST13:
 13607 0207 0A000000 		.4byte	.LVL52
 13608 020b 0E000000 		.4byte	.LVL53
 13609 020f 0200     		.2byte	0x2
 13610 0211 30       		.byte	0x30
 13611 0212 9F       		.byte	0x9f
 13612 0213 0E000000 		.4byte	.LVL53
 13613 0217 14000000 		.4byte	.LVL54
 13614 021b 0100     		.2byte	0x1
ARM GAS  C:\Users\FRANKL~1\AppData\Local\Temp\ccXJlYBQ.s 			page 272


 13615 021d 53       		.byte	0x53
 13616 021e 16000000 		.4byte	.LVL55
 13617 0222 1E000000 		.4byte	.LVL56
 13618 0226 0100     		.2byte	0x1
 13619 0228 53       		.byte	0x53
 13620 0229 00000000 		.4byte	0
 13621 022d 00000000 		.4byte	0
 13622              	.LLST14:
 13623 0231 1E000000 		.4byte	.LVL56
 13624 0235 4A000000 		.4byte	.LVL61
 13625 0239 0100     		.2byte	0x1
 13626 023b 54       		.byte	0x54
 13627 023c 4C000000 		.4byte	.LVL62
 13628 0240 58000000 		.4byte	.LFE69
 13629 0244 0100     		.2byte	0x1
 13630 0246 54       		.byte	0x54
 13631 0247 00000000 		.4byte	0
 13632 024b 00000000 		.4byte	0
 13633              	.LLST15:
 13634 024f 0A000000 		.4byte	.LVL64
 13635 0253 0E000000 		.4byte	.LVL65
 13636 0257 0200     		.2byte	0x2
 13637 0259 30       		.byte	0x30
 13638 025a 9F       		.byte	0x9f
 13639 025b 0E000000 		.4byte	.LVL65
 13640 025f 16000000 		.4byte	.LVL66
 13641 0263 0100     		.2byte	0x1
 13642 0265 53       		.byte	0x53
 13643 0266 18000000 		.4byte	.LVL67
 13644 026a 1E000000 		.4byte	.LVL68
 13645 026e 0100     		.2byte	0x1
 13646 0270 53       		.byte	0x53
 13647 0271 00000000 		.4byte	0
 13648 0275 00000000 		.4byte	0
 13649              	.LLST16:
 13650 0279 20000000 		.4byte	.LVL69
 13651 027d 2A000000 		.4byte	.LVL70
 13652 0281 0100     		.2byte	0x1
 13653 0283 53       		.byte	0x53
 13654 0284 2C000000 		.4byte	.LVL71
 13655 0288 32000000 		.4byte	.LFE70
 13656 028c 0100     		.2byte	0x1
 13657 028e 53       		.byte	0x53
 13658 028f 00000000 		.4byte	0
 13659 0293 00000000 		.4byte	0
 13660              	.LLST17:
 13661 0297 00000000 		.4byte	.LVL72
 13662 029b 12000000 		.4byte	.LVL73
 13663 029f 0100     		.2byte	0x1
 13664 02a1 50       		.byte	0x50
 13665 02a2 12000000 		.4byte	.LVL73
 13666 02a6 90010000 		.4byte	.LFE71
 13667 02aa 0400     		.2byte	0x4
 13668 02ac F3       		.byte	0xf3
 13669 02ad 01       		.uleb128 0x1
 13670 02ae 50       		.byte	0x50
 13671 02af 9F       		.byte	0x9f
ARM GAS  C:\Users\FRANKL~1\AppData\Local\Temp\ccXJlYBQ.s 			page 273


 13672 02b0 00000000 		.4byte	0
 13673 02b4 00000000 		.4byte	0
 13674              	.LLST18:
 13675 02b8 2A000000 		.4byte	.LVL77
 13676 02bc 32000000 		.4byte	.LVL79
 13677 02c0 0C00     		.2byte	0xc
 13678 02c2 74       		.byte	0x74
 13679 02c3 00       		.sleb128 0
 13680 02c4 08       		.byte	0x8
 13681 02c5 FF       		.byte	0xff
 13682 02c6 1E       		.byte	0x1e
 13683 02c7 03       		.byte	0x3
 13684 02c8 00000000 		.4byte	selectors
 13685 02cc 22       		.byte	0x22
 13686 02cd 9F       		.byte	0x9f
 13687 02ce 32000000 		.4byte	.LVL79
 13688 02d2 5C010000 		.4byte	.LVL108
 13689 02d6 0C00     		.2byte	0xc
 13690 02d8 78       		.byte	0x78
 13691 02d9 7F       		.sleb128 -1
 13692 02da 08       		.byte	0x8
 13693 02db FF       		.byte	0xff
 13694 02dc 1E       		.byte	0x1e
 13695 02dd 03       		.byte	0x3
 13696 02de 00000000 		.4byte	selectors
 13697 02e2 22       		.byte	0x22
 13698 02e3 9F       		.byte	0x9f
 13699 02e4 00000000 		.4byte	0
 13700 02e8 00000000 		.4byte	0
 13701              	.LLST19:
 13702 02ec 44000000 		.4byte	.LVL80
 13703 02f0 48000000 		.4byte	.LVL81
 13704 02f4 0200     		.2byte	0x2
 13705 02f6 30       		.byte	0x30
 13706 02f7 9F       		.byte	0x9f
 13707 02f8 48000000 		.4byte	.LVL81
 13708 02fc C6000000 		.4byte	.LVL93
 13709 0300 0100     		.2byte	0x1
 13710 0302 54       		.byte	0x54
 13711 0303 00000000 		.4byte	0
 13712 0307 00000000 		.4byte	0
 13713              	.LLST20:
 13714 030b 00000000 		.4byte	.LVL109
 13715 030f 16000000 		.4byte	.LVL111
 13716 0313 0100     		.2byte	0x1
 13717 0315 50       		.byte	0x50
 13718 0316 16000000 		.4byte	.LVL111
 13719 031a B2000000 		.4byte	.LVL139
 13720 031e 0200     		.2byte	0x2
 13721 0320 7D       		.byte	0x7d
 13722 0321 00       		.sleb128 0
 13723 0322 B2000000 		.4byte	.LVL139
 13724 0326 B6000000 		.4byte	.LFE72
 13725 032a 0200     		.2byte	0x2
 13726 032c 91       		.byte	0x91
 13727 032d 50       		.sleb128 -48
 13728 032e 00000000 		.4byte	0
ARM GAS  C:\Users\FRANKL~1\AppData\Local\Temp\ccXJlYBQ.s 			page 274


 13729 0332 00000000 		.4byte	0
 13730              	.LLST21:
 13731 0336 00000000 		.4byte	.LVL109
 13732 033a 16000000 		.4byte	.LVL111
 13733 033e 0100     		.2byte	0x1
 13734 0340 51       		.byte	0x51
 13735 0341 16000000 		.4byte	.LVL111
 13736 0345 B6000000 		.4byte	.LFE72
 13737 0349 0200     		.2byte	0x2
 13738 034b 91       		.byte	0x91
 13739 034c 54       		.sleb128 -44
 13740 034d 00000000 		.4byte	0
 13741 0351 00000000 		.4byte	0
 13742              	.LLST22:
 13743 0355 00000000 		.4byte	.LVL109
 13744 0359 16000000 		.4byte	.LVL111
 13745 035d 0100     		.2byte	0x1
 13746 035f 52       		.byte	0x52
 13747 0360 16000000 		.4byte	.LVL111
 13748 0364 B6000000 		.4byte	.LFE72
 13749 0368 0100     		.2byte	0x1
 13750 036a 5B       		.byte	0x5b
 13751 036b 00000000 		.4byte	0
 13752 036f 00000000 		.4byte	0
 13753              	.LLST23:
 13754 0373 0C000000 		.4byte	.LVL110
 13755 0377 16000000 		.4byte	.LVL111
 13756 037b 0200     		.2byte	0x2
 13757 037d 30       		.byte	0x30
 13758 037e 9F       		.byte	0x9f
 13759 037f 16000000 		.4byte	.LVL111
 13760 0383 84000000 		.4byte	.LVL132
 13761 0387 0100     		.2byte	0x1
 13762 0389 55       		.byte	0x55
 13763 038a A0000000 		.4byte	.LVL137
 13764 038e A2000000 		.4byte	.LVL138
 13765 0392 0100     		.2byte	0x1
 13766 0394 50       		.byte	0x50
 13767 0395 A2000000 		.4byte	.LVL138
 13768 0399 B6000000 		.4byte	.LFE72
 13769 039d 0100     		.2byte	0x1
 13770 039f 55       		.byte	0x55
 13771 03a0 00000000 		.4byte	0
 13772 03a4 00000000 		.4byte	0
 13773              	.LLST24:
 13774 03a8 0C000000 		.4byte	.LVL110
 13775 03ac 16000000 		.4byte	.LVL111
 13776 03b0 0200     		.2byte	0x2
 13777 03b2 30       		.byte	0x30
 13778 03b3 9F       		.byte	0x9f
 13779 03b4 16000000 		.4byte	.LVL111
 13780 03b8 74000000 		.4byte	.LVL127
 13781 03bc 0100     		.2byte	0x1
 13782 03be 59       		.byte	0x59
 13783 03bf 74000000 		.4byte	.LVL127
 13784 03c3 76000000 		.4byte	.LVL128
 13785 03c7 0100     		.2byte	0x1
ARM GAS  C:\Users\FRANKL~1\AppData\Local\Temp\ccXJlYBQ.s 			page 275


 13786 03c9 50       		.byte	0x50
 13787 03ca 76000000 		.4byte	.LVL128
 13788 03ce B6000000 		.4byte	.LFE72
 13789 03d2 0100     		.2byte	0x1
 13790 03d4 59       		.byte	0x59
 13791 03d5 00000000 		.4byte	0
 13792 03d9 00000000 		.4byte	0
 13793              	.LLST25:
 13794 03dd 0C000000 		.4byte	.LVL110
 13795 03e1 16000000 		.4byte	.LVL111
 13796 03e5 0200     		.2byte	0x2
 13797 03e7 31       		.byte	0x31
 13798 03e8 9F       		.byte	0x9f
 13799 03e9 16000000 		.4byte	.LVL111
 13800 03ed B6000000 		.4byte	.LFE72
 13801 03f1 0100     		.2byte	0x1
 13802 03f3 54       		.byte	0x54
 13803 03f4 00000000 		.4byte	0
 13804 03f8 00000000 		.4byte	0
 13805              	.LLST26:
 13806 03fc 2E000000 		.4byte	.LVL116
 13807 0400 30000000 		.4byte	.LVL117
 13808 0404 0100     		.2byte	0x1
 13809 0406 50       		.byte	0x50
 13810 0407 30000000 		.4byte	.LVL117
 13811 040b 7C000000 		.4byte	.LVL130
 13812 040f 0100     		.2byte	0x1
 13813 0411 57       		.byte	0x57
 13814 0412 00000000 		.4byte	0
 13815 0416 00000000 		.4byte	0
 13816              	.LLST27:
 13817 041a 10000000 		.4byte	.LVL141
 13818 041e 14000000 		.4byte	.LVL142
 13819 0422 0200     		.2byte	0x2
 13820 0424 30       		.byte	0x30
 13821 0425 9F       		.byte	0x9f
 13822 0426 14000000 		.4byte	.LVL142
 13823 042a 50000000 		.4byte	.LVL149
 13824 042e 0100     		.2byte	0x1
 13825 0430 54       		.byte	0x54
 13826 0431 52000000 		.4byte	.LVL150
 13827 0435 5A000000 		.4byte	.LVL151
 13828 0439 0100     		.2byte	0x1
 13829 043b 54       		.byte	0x54
 13830 043c 00000000 		.4byte	0
 13831 0440 00000000 		.4byte	0
 13832              	.LLST28:
 13833 0444 02000000 		.4byte	.LVL152
 13834 0448 06000000 		.4byte	.LVL153
 13835 044c 0200     		.2byte	0x2
 13836 044e 30       		.byte	0x30
 13837 044f 9F       		.byte	0x9f
 13838 0450 06000000 		.4byte	.LVL153
 13839 0454 14000000 		.4byte	.LVL155
 13840 0458 0100     		.2byte	0x1
 13841 045a 54       		.byte	0x54
 13842 045b 16000000 		.4byte	.LVL156
ARM GAS  C:\Users\FRANKL~1\AppData\Local\Temp\ccXJlYBQ.s 			page 276


 13843 045f 36000000 		.4byte	.LVL157
 13844 0463 0100     		.2byte	0x1
 13845 0465 54       		.byte	0x54
 13846 0466 00000000 		.4byte	0
 13847 046a 00000000 		.4byte	0
 13848              	.LLST29:
 13849 046e 00000000 		.4byte	.LVL158
 13850 0472 04000000 		.4byte	.LVL159
 13851 0476 0100     		.2byte	0x1
 13852 0478 50       		.byte	0x50
 13853 0479 04000000 		.4byte	.LVL159
 13854 047d 06000000 		.4byte	.LVL160
 13855 0481 0400     		.2byte	0x4
 13856 0483 F3       		.byte	0xf3
 13857 0484 01       		.uleb128 0x1
 13858 0485 50       		.byte	0x50
 13859 0486 9F       		.byte	0x9f
 13860 0487 06000000 		.4byte	.LVL160
 13861 048b 1C000000 		.4byte	.LVL162
 13862 048f 0100     		.2byte	0x1
 13863 0491 53       		.byte	0x53
 13864 0492 00000000 		.4byte	0
 13865 0496 00000000 		.4byte	0
 13866              	.LLST30:
 13867 049a 00000000 		.4byte	.LVL158
 13868 049e 06000000 		.4byte	.LVL160
 13869 04a2 0100     		.2byte	0x1
 13870 04a4 51       		.byte	0x51
 13871 04a5 06000000 		.4byte	.LVL160
 13872 04a9 0C000000 		.4byte	.LVL161
 13873 04ad 0300     		.2byte	0x3
 13874 04af 71       		.byte	0x71
 13875 04b0 7F       		.sleb128 -1
 13876 04b1 9F       		.byte	0x9f
 13877 04b2 0C000000 		.4byte	.LVL161
 13878 04b6 2C000000 		.4byte	.LFE75
 13879 04ba 0600     		.2byte	0x6
 13880 04bc F3       		.byte	0xf3
 13881 04bd 01       		.uleb128 0x1
 13882 04be 51       		.byte	0x51
 13883 04bf 31       		.byte	0x31
 13884 04c0 1C       		.byte	0x1c
 13885 04c1 9F       		.byte	0x9f
 13886 04c2 00000000 		.4byte	0
 13887 04c6 00000000 		.4byte	0
 13888              	.LLST31:
 13889 04ca 00000000 		.4byte	.LVL164
 13890 04ce 02000000 		.4byte	.LVL165
 13891 04d2 0100     		.2byte	0x1
 13892 04d4 50       		.byte	0x50
 13893 04d5 02000000 		.4byte	.LVL165
 13894 04d9 04000000 		.4byte	.LVL166
 13895 04dd 0400     		.2byte	0x4
 13896 04df F3       		.byte	0xf3
 13897 04e0 01       		.uleb128 0x1
 13898 04e1 50       		.byte	0x50
 13899 04e2 9F       		.byte	0x9f
ARM GAS  C:\Users\FRANKL~1\AppData\Local\Temp\ccXJlYBQ.s 			page 277


 13900 04e3 04000000 		.4byte	.LVL166
 13901 04e7 26000000 		.4byte	.LVL171
 13902 04eb 0100     		.2byte	0x1
 13903 04ed 50       		.byte	0x50
 13904 04ee 30000000 		.4byte	.LVL173
 13905 04f2 32000000 		.4byte	.LFE76
 13906 04f6 0100     		.2byte	0x1
 13907 04f8 50       		.byte	0x50
 13908 04f9 00000000 		.4byte	0
 13909 04fd 00000000 		.4byte	0
 13910              	.LLST32:
 13911 0501 00000000 		.4byte	.LVL164
 13912 0505 04000000 		.4byte	.LVL166
 13913 0509 0100     		.2byte	0x1
 13914 050b 51       		.byte	0x51
 13915 050c 04000000 		.4byte	.LVL166
 13916 0510 2D000000 		.4byte	.LVL172-1
 13917 0514 0300     		.2byte	0x3
 13918 0516 71       		.byte	0x71
 13919 0517 7F       		.sleb128 -1
 13920 0518 9F       		.byte	0x9f
 13921 0519 2D000000 		.4byte	.LVL172-1
 13922 051d 30000000 		.4byte	.LVL173
 13923 0521 0600     		.2byte	0x6
 13924 0523 F3       		.byte	0xf3
 13925 0524 01       		.uleb128 0x1
 13926 0525 51       		.byte	0x51
 13927 0526 31       		.byte	0x31
 13928 0527 1C       		.byte	0x1c
 13929 0528 9F       		.byte	0x9f
 13930 0529 30000000 		.4byte	.LVL173
 13931 052d 32000000 		.4byte	.LFE76
 13932 0531 0300     		.2byte	0x3
 13933 0533 71       		.byte	0x71
 13934 0534 7F       		.sleb128 -1
 13935 0535 9F       		.byte	0x9f
 13936 0536 00000000 		.4byte	0
 13937 053a 00000000 		.4byte	0
 13938              	.LLST33:
 13939 053e 12000000 		.4byte	.LVL167
 13940 0542 16000000 		.4byte	.LVL168
 13941 0546 0200     		.2byte	0x2
 13942 0548 30       		.byte	0x30
 13943 0549 9F       		.byte	0x9f
 13944 054a 16000000 		.4byte	.LVL168
 13945 054e 1E000000 		.4byte	.LVL169
 13946 0552 0300     		.2byte	0x3
 13947 0554 08       		.byte	0x8
 13948 0555 20       		.byte	0x20
 13949 0556 9F       		.byte	0x9f
 13950 0557 1E000000 		.4byte	.LVL169
 13951 055b 24000000 		.4byte	.LVL170
 13952 055f 0200     		.2byte	0x2
 13953 0561 30       		.byte	0x30
 13954 0562 9F       		.byte	0x9f
 13955 0563 24000000 		.4byte	.LVL170
 13956 0567 2D000000 		.4byte	.LVL172-1
ARM GAS  C:\Users\FRANKL~1\AppData\Local\Temp\ccXJlYBQ.s 			page 278


 13957 056b 0100     		.2byte	0x1
 13958 056d 53       		.byte	0x53
 13959 056e 00000000 		.4byte	0
 13960 0572 00000000 		.4byte	0
 13961              	.LLST34:
 13962 0576 00000000 		.4byte	.LVL174
 13963 057a 04000000 		.4byte	.LVL175
 13964 057e 0100     		.2byte	0x1
 13965 0580 50       		.byte	0x50
 13966 0581 04000000 		.4byte	.LVL175
 13967 0585 06000000 		.4byte	.LVL176
 13968 0589 0400     		.2byte	0x4
 13969 058b F3       		.byte	0xf3
 13970 058c 01       		.uleb128 0x1
 13971 058d 50       		.byte	0x50
 13972 058e 9F       		.byte	0x9f
 13973 058f 06000000 		.4byte	.LVL176
 13974 0593 26000000 		.4byte	.LVL182
 13975 0597 0100     		.2byte	0x1
 13976 0599 53       		.byte	0x53
 13977 059a 00000000 		.4byte	0
 13978 059e 00000000 		.4byte	0
 13979              	.LLST35:
 13980 05a2 00000000 		.4byte	.LVL174
 13981 05a6 06000000 		.4byte	.LVL176
 13982 05aa 0100     		.2byte	0x1
 13983 05ac 51       		.byte	0x51
 13984 05ad 06000000 		.4byte	.LVL176
 13985 05b1 0C000000 		.4byte	.LVL177
 13986 05b5 0300     		.2byte	0x3
 13987 05b7 71       		.byte	0x71
 13988 05b8 7F       		.sleb128 -1
 13989 05b9 9F       		.byte	0x9f
 13990 05ba 0C000000 		.4byte	.LVL177
 13991 05be 40000000 		.4byte	.LFE77
 13992 05c2 0600     		.2byte	0x6
 13993 05c4 F3       		.byte	0xf3
 13994 05c5 01       		.uleb128 0x1
 13995 05c6 51       		.byte	0x51
 13996 05c7 31       		.byte	0x31
 13997 05c8 1C       		.byte	0x1c
 13998 05c9 9F       		.byte	0x9f
 13999 05ca 00000000 		.4byte	0
 14000 05ce 00000000 		.4byte	0
 14001              	.LLST36:
 14002 05d2 12000000 		.4byte	.LVL178
 14003 05d6 16000000 		.4byte	.LVL179
 14004 05da 0200     		.2byte	0x2
 14005 05dc 30       		.byte	0x30
 14006 05dd 9F       		.byte	0x9f
 14007 05de 16000000 		.4byte	.LVL179
 14008 05e2 1E000000 		.4byte	.LVL180
 14009 05e6 0300     		.2byte	0x3
 14010 05e8 08       		.byte	0x8
 14011 05e9 20       		.byte	0x20
 14012 05ea 9F       		.byte	0x9f
 14013 05eb 1E000000 		.4byte	.LVL180
ARM GAS  C:\Users\FRANKL~1\AppData\Local\Temp\ccXJlYBQ.s 			page 279


 14014 05ef 24000000 		.4byte	.LVL181
 14015 05f3 0200     		.2byte	0x2
 14016 05f5 30       		.byte	0x30
 14017 05f6 9F       		.byte	0x9f
 14018 05f7 24000000 		.4byte	.LVL181
 14019 05fb 2A000000 		.4byte	.LVL183
 14020 05ff 0100     		.2byte	0x1
 14021 0601 52       		.byte	0x52
 14022 0602 00000000 		.4byte	0
 14023 0606 00000000 		.4byte	0
 14024              	.LLST37:
 14025 060a 00000000 		.4byte	.LVL185
 14026 060e 04000000 		.4byte	.LVL186
 14027 0612 0100     		.2byte	0x1
 14028 0614 50       		.byte	0x50
 14029 0615 04000000 		.4byte	.LVL186
 14030 0619 06000000 		.4byte	.LVL187
 14031 061d 0400     		.2byte	0x4
 14032 061f F3       		.byte	0xf3
 14033 0620 01       		.uleb128 0x1
 14034 0621 50       		.byte	0x50
 14035 0622 9F       		.byte	0x9f
 14036 0623 06000000 		.4byte	.LVL187
 14037 0627 3C000000 		.4byte	.LVL196
 14038 062b 0100     		.2byte	0x1
 14039 062d 55       		.byte	0x55
 14040 062e 00000000 		.4byte	0
 14041 0632 00000000 		.4byte	0
 14042              	.LLST38:
 14043 0636 06000000 		.4byte	.LVL187
 14044 063a 0A000000 		.4byte	.LVL188
 14045 063e 0200     		.2byte	0x2
 14046 0640 30       		.byte	0x30
 14047 0641 9F       		.byte	0x9f
 14048 0642 0A000000 		.4byte	.LVL188
 14049 0646 34000000 		.4byte	.LVL194
 14050 064a 0100     		.2byte	0x1
 14051 064c 54       		.byte	0x54
 14052 064d 36000000 		.4byte	.LVL195
 14053 0651 3C000000 		.4byte	.LVL196
 14054 0655 0100     		.2byte	0x1
 14055 0657 54       		.byte	0x54
 14056 0658 00000000 		.4byte	0
 14057 065c 00000000 		.4byte	0
 14058              	.LLST39:
 14059 0660 0A000000 		.4byte	.LVL188
 14060 0664 0E000000 		.4byte	.LVL189
 14061 0668 0200     		.2byte	0x2
 14062 066a 30       		.byte	0x30
 14063 066b 9F       		.byte	0x9f
 14064 066c 0E000000 		.4byte	.LVL189
 14065 0670 16000000 		.4byte	.LVL190
 14066 0674 0300     		.2byte	0x3
 14067 0676 08       		.byte	0x8
 14068 0677 20       		.byte	0x20
 14069 0678 9F       		.byte	0x9f
 14070 0679 16000000 		.4byte	.LVL190
ARM GAS  C:\Users\FRANKL~1\AppData\Local\Temp\ccXJlYBQ.s 			page 280


 14071 067d 1C000000 		.4byte	.LVL191
 14072 0681 0200     		.2byte	0x2
 14073 0683 30       		.byte	0x30
 14074 0684 9F       		.byte	0x9f
 14075 0685 1C000000 		.4byte	.LVL191
 14076 0689 22000000 		.4byte	.LVL192
 14077 068d 0100     		.2byte	0x1
 14078 068f 53       		.byte	0x53
 14079 0690 00000000 		.4byte	0
 14080 0694 00000000 		.4byte	0
 14081              	.LLST40:
 14082 0698 02000000 		.4byte	.LVL197
 14083 069c 06000000 		.4byte	.LVL198
 14084 06a0 0200     		.2byte	0x2
 14085 06a2 30       		.byte	0x30
 14086 06a3 9F       		.byte	0x9f
 14087 06a4 06000000 		.4byte	.LVL198
 14088 06a8 28000000 		.4byte	.LVL204
 14089 06ac 0100     		.2byte	0x1
 14090 06ae 54       		.byte	0x54
 14091 06af 2A000000 		.4byte	.LVL205
 14092 06b3 30000000 		.4byte	.LVL206
 14093 06b7 0100     		.2byte	0x1
 14094 06b9 54       		.byte	0x54
 14095 06ba 00000000 		.4byte	0
 14096 06be 00000000 		.4byte	0
 14097              	.LLST41:
 14098 06c2 06000000 		.4byte	.LVL198
 14099 06c6 16000000 		.4byte	.LVL199
 14100 06ca 0100     		.2byte	0x1
 14101 06cc 53       		.byte	0x53
 14102 06cd 18000000 		.4byte	.LVL200
 14103 06d1 1A000000 		.4byte	.LVL201
 14104 06d5 0100     		.2byte	0x1
 14105 06d7 53       		.byte	0x53
 14106 06d8 1C000000 		.4byte	.LVL202
 14107 06dc 25000000 		.4byte	.LVL203-1
 14108 06e0 0100     		.2byte	0x1
 14109 06e2 53       		.byte	0x53
 14110 06e3 00000000 		.4byte	0
 14111 06e7 00000000 		.4byte	0
 14112              	.LLST42:
 14113 06eb 00000000 		.4byte	.LVL207
 14114 06ef 04000000 		.4byte	.LVL208
 14115 06f3 0100     		.2byte	0x1
 14116 06f5 50       		.byte	0x50
 14117 06f6 04000000 		.4byte	.LVL208
 14118 06fa 06000000 		.4byte	.LVL209
 14119 06fe 0400     		.2byte	0x4
 14120 0700 F3       		.byte	0xf3
 14121 0701 01       		.uleb128 0x1
 14122 0702 50       		.byte	0x50
 14123 0703 9F       		.byte	0x9f
 14124 0704 06000000 		.4byte	.LVL209
 14125 0708 23000000 		.4byte	.LVL213-1
 14126 070c 0100     		.2byte	0x1
 14127 070e 50       		.byte	0x50
ARM GAS  C:\Users\FRANKL~1\AppData\Local\Temp\ccXJlYBQ.s 			page 281


 14128 070f 00000000 		.4byte	0
 14129 0713 00000000 		.4byte	0
 14130              	.LLST43:
 14131 0717 06000000 		.4byte	.LVL209
 14132 071b 0A000000 		.4byte	.LVL210
 14133 071f 0200     		.2byte	0x2
 14134 0721 30       		.byte	0x30
 14135 0722 9F       		.byte	0x9f
 14136 0723 0A000000 		.4byte	.LVL210
 14137 0727 1A000000 		.4byte	.LVL211
 14138 072b 0100     		.2byte	0x1
 14139 072d 53       		.byte	0x53
 14140 072e 1C000000 		.4byte	.LVL212
 14141 0732 23000000 		.4byte	.LVL213-1
 14142 0736 0100     		.2byte	0x1
 14143 0738 53       		.byte	0x53
 14144 0739 00000000 		.4byte	0
 14145 073d 00000000 		.4byte	0
 14146              	.LLST44:
 14147 0741 00000000 		.4byte	.LVL214
 14148 0745 04000000 		.4byte	.LVL215
 14149 0749 0100     		.2byte	0x1
 14150 074b 50       		.byte	0x50
 14151 074c 04000000 		.4byte	.LVL215
 14152 0750 38000000 		.4byte	.LFE81
 14153 0754 0400     		.2byte	0x4
 14154 0756 F3       		.byte	0xf3
 14155 0757 01       		.uleb128 0x1
 14156 0758 50       		.byte	0x50
 14157 0759 9F       		.byte	0x9f
 14158 075a 00000000 		.4byte	0
 14159 075e 00000000 		.4byte	0
 14160              	.LLST45:
 14161 0762 02000000 		.4byte	.LVL220
 14162 0766 06000000 		.4byte	.LVL221
 14163 076a 0200     		.2byte	0x2
 14164 076c 31       		.byte	0x31
 14165 076d 9F       		.byte	0x9f
 14166 076e 06000000 		.4byte	.LVL221
 14167 0772 0E000000 		.4byte	.LVL223
 14168 0776 0100     		.2byte	0x1
 14169 0778 54       		.byte	0x54
 14170 0779 10000000 		.4byte	.LVL224
 14171 077d 16000000 		.4byte	.LFE82
 14172 0781 0100     		.2byte	0x1
 14173 0783 54       		.byte	0x54
 14174 0784 00000000 		.4byte	0
 14175 0788 00000000 		.4byte	0
 14176              	.LLST46:
 14177 078c 00000000 		.4byte	.LVL225
 14178 0790 1E000000 		.4byte	.LVL229
 14179 0794 0100     		.2byte	0x1
 14180 0796 50       		.byte	0x50
 14181 0797 1E000000 		.4byte	.LVL229
 14182 079b FE000000 		.4byte	.LVL257
 14183 079f 0200     		.2byte	0x2
 14184 07a1 91       		.byte	0x91
ARM GAS  C:\Users\FRANKL~1\AppData\Local\Temp\ccXJlYBQ.s 			page 282


 14185 07a2 48       		.sleb128 -56
 14186 07a3 FE000000 		.4byte	.LVL257
 14187 07a7 14010000 		.4byte	.LFE83
 14188 07ab 0200     		.2byte	0x2
 14189 07ad 7D       		.byte	0x7d
 14190 07ae 48       		.sleb128 -56
 14191 07af 00000000 		.4byte	0
 14192 07b3 00000000 		.4byte	0
 14193              	.LLST47:
 14194 07b7 00000000 		.4byte	.LVL225
 14195 07bb 16000000 		.4byte	.LVL227
 14196 07bf 0100     		.2byte	0x1
 14197 07c1 51       		.byte	0x51
 14198 07c2 16000000 		.4byte	.LVL227
 14199 07c6 FE000000 		.4byte	.LVL257
 14200 07ca 0200     		.2byte	0x2
 14201 07cc 91       		.byte	0x91
 14202 07cd 4C       		.sleb128 -52
 14203 07ce FE000000 		.4byte	.LVL257
 14204 07d2 14010000 		.4byte	.LFE83
 14205 07d6 0200     		.2byte	0x2
 14206 07d8 7D       		.byte	0x7d
 14207 07d9 4C       		.sleb128 -52
 14208 07da 00000000 		.4byte	0
 14209 07de 00000000 		.4byte	0
 14210              	.LLST48:
 14211 07e2 00000000 		.4byte	.LVL225
 14212 07e6 10000000 		.4byte	.LVL226
 14213 07ea 0100     		.2byte	0x1
 14214 07ec 52       		.byte	0x52
 14215 07ed 10000000 		.4byte	.LVL226
 14216 07f1 FE000000 		.4byte	.LVL257
 14217 07f5 0100     		.2byte	0x1
 14218 07f7 5B       		.byte	0x5b
 14219 07f8 FE000000 		.4byte	.LVL257
 14220 07fc 14010000 		.4byte	.LFE83
 14221 0800 0400     		.2byte	0x4
 14222 0802 F3       		.byte	0xf3
 14223 0803 01       		.uleb128 0x1
 14224 0804 52       		.byte	0x52
 14225 0805 9F       		.byte	0x9f
 14226 0806 00000000 		.4byte	0
 14227 080a 00000000 		.4byte	0
 14228              	.LLST49:
 14229 080e 1A000000 		.4byte	.LVL228
 14230 0812 2C000000 		.4byte	.LVL231
 14231 0816 0600     		.2byte	0x6
 14232 0818 9E       		.byte	0x9e
 14233 0819 04       		.uleb128 0x4
 14234 081a 00000000 		.4byte	0
 14235 081e 44000000 		.4byte	.LVL235
 14236 0822 47000000 		.4byte	.LVL236-1
 14237 0826 0100     		.2byte	0x1
 14238 0828 50       		.byte	0x50
 14239 0829 47000000 		.4byte	.LVL236-1
 14240 082d 9C000000 		.4byte	.LVL244
 14241 0831 0100     		.2byte	0x1
ARM GAS  C:\Users\FRANKL~1\AppData\Local\Temp\ccXJlYBQ.s 			page 283


 14242 0833 55       		.byte	0x55
 14243 0834 00000000 		.4byte	0
 14244 0838 00000000 		.4byte	0
 14245              	.LLST50:
 14246 083c 1A000000 		.4byte	.LVL228
 14247 0840 2C000000 		.4byte	.LVL231
 14248 0844 0600     		.2byte	0x6
 14249 0846 9E       		.byte	0x9e
 14250 0847 04       		.uleb128 0x4
 14251 0848 00000000 		.4byte	0
 14252 084c 2C000000 		.4byte	.LVL231
 14253 0850 E6000000 		.4byte	.LVL255
 14254 0854 0100     		.2byte	0x1
 14255 0856 59       		.byte	0x59
 14256 0857 E6000000 		.4byte	.LVL255
 14257 085b E8000000 		.4byte	.LVL256
 14258 085f 0100     		.2byte	0x1
 14259 0861 50       		.byte	0x50
 14260 0862 E8000000 		.4byte	.LVL256
 14261 0866 FE000000 		.4byte	.LVL257
 14262 086a 0100     		.2byte	0x1
 14263 086c 59       		.byte	0x59
 14264 086d 00000000 		.4byte	0
 14265 0871 00000000 		.4byte	0
 14266              	.LLST51:
 14267 0875 1A000000 		.4byte	.LVL228
 14268 0879 2C000000 		.4byte	.LVL231
 14269 087d 0600     		.2byte	0x6
 14270 087f 9E       		.byte	0x9e
 14271 0880 04       		.uleb128 0x4
 14272 0881 00000000 		.4byte	0
 14273 0885 2C000000 		.4byte	.LVL231
 14274 0889 D4000000 		.4byte	.LVL251
 14275 088d 0100     		.2byte	0x1
 14276 088f 58       		.byte	0x58
 14277 0890 D4000000 		.4byte	.LVL251
 14278 0894 D8000000 		.4byte	.LVL252
 14279 0898 0100     		.2byte	0x1
 14280 089a 50       		.byte	0x50
 14281 089b D8000000 		.4byte	.LVL252
 14282 089f FE000000 		.4byte	.LVL257
 14283 08a3 0100     		.2byte	0x1
 14284 08a5 58       		.byte	0x58
 14285 08a6 FE000000 		.4byte	.LVL257
 14286 08aa 14010000 		.4byte	.LFE83
 14287 08ae 0200     		.2byte	0x2
 14288 08b0 73       		.byte	0x73
 14289 08b1 00       		.sleb128 0
 14290 08b2 00000000 		.4byte	0
 14291 08b6 00000000 		.4byte	0
 14292              	.LLST52:
 14293 08ba 22000000 		.4byte	.LVL230
 14294 08be 2C000000 		.4byte	.LVL231
 14295 08c2 0200     		.2byte	0x2
 14296 08c4 31       		.byte	0x31
 14297 08c5 9F       		.byte	0x9f
 14298 08c6 2C000000 		.4byte	.LVL231
ARM GAS  C:\Users\FRANKL~1\AppData\Local\Temp\ccXJlYBQ.s 			page 284


 14299 08ca FE000000 		.4byte	.LVL257
 14300 08ce 0100     		.2byte	0x1
 14301 08d0 54       		.byte	0x54
 14302 08d1 00000000 		.4byte	0
 14303 08d5 00000000 		.4byte	0
 14304              	.LLST53:
 14305 08d9 08000000 		.4byte	.LVL262
 14306 08dd 1C000000 		.4byte	.LVL265
 14307 08e1 0100     		.2byte	0x1
 14308 08e3 54       		.byte	0x54
 14309 08e4 36000000 		.4byte	.LVL271
 14310 08e8 4A000000 		.4byte	.LVL275
 14311 08ec 0100     		.2byte	0x1
 14312 08ee 54       		.byte	0x54
 14313 08ef 00000000 		.4byte	0
 14314 08f3 00000000 		.4byte	0
 14315              	.LLST54:
 14316 08f7 0E000000 		.4byte	.LVL263
 14317 08fb 3A000000 		.4byte	.LVL272
 14318 08ff 0100     		.2byte	0x1
 14319 0901 55       		.byte	0x55
 14320 0902 3C000000 		.4byte	.LVL273
 14321 0906 60000000 		.4byte	.LVL281
 14322 090a 0100     		.2byte	0x1
 14323 090c 55       		.byte	0x55
 14324 090d 00000000 		.4byte	0
 14325 0911 00000000 		.4byte	0
 14326              	.LLST55:
 14327 0915 0E000000 		.4byte	.LVL263
 14328 0919 1A000000 		.4byte	.LVL264
 14329 091d 0200     		.2byte	0x2
 14330 091f 31       		.byte	0x31
 14331 0920 9F       		.byte	0x9f
 14332 0921 1A000000 		.4byte	.LVL264
 14333 0925 1C000000 		.4byte	.LVL265
 14334 0929 0100     		.2byte	0x1
 14335 092b 56       		.byte	0x56
 14336 092c 3C000000 		.4byte	.LVL273
 14337 0930 48000000 		.4byte	.LVL274
 14338 0934 0200     		.2byte	0x2
 14339 0936 31       		.byte	0x31
 14340 0937 9F       		.byte	0x9f
 14341 0938 48000000 		.4byte	.LVL274
 14342 093c 4A000000 		.4byte	.LVL275
 14343 0940 0100     		.2byte	0x1
 14344 0942 56       		.byte	0x56
 14345 0943 00000000 		.4byte	0
 14346 0947 00000000 		.4byte	0
 14347              	.LLST56:
 14348 094b 1A000000 		.4byte	.LVL264
 14349 094f 2A000000 		.4byte	.LVL268
 14350 0953 0100     		.2byte	0x1
 14351 0955 54       		.byte	0x54
 14352 0956 2C000000 		.4byte	.LVL269
 14353 095a 34000000 		.4byte	.LVL270
 14354 095e 0100     		.2byte	0x1
 14355 0960 54       		.byte	0x54
ARM GAS  C:\Users\FRANKL~1\AppData\Local\Temp\ccXJlYBQ.s 			page 285


 14356 0961 00000000 		.4byte	0
 14357 0965 00000000 		.4byte	0
 14358              	.LLST57:
 14359 0969 48000000 		.4byte	.LVL274
 14360 096d 58000000 		.4byte	.LVL278
 14361 0971 0100     		.2byte	0x1
 14362 0973 54       		.byte	0x54
 14363 0974 5A000000 		.4byte	.LVL279
 14364 0978 5E000000 		.4byte	.LVL280
 14365 097c 0100     		.2byte	0x1
 14366 097e 54       		.byte	0x54
 14367 097f 00000000 		.4byte	0
 14368 0983 00000000 		.4byte	0
 14369              	.LLST58:
 14370 0987 00000000 		.4byte	.LVL282
 14371 098b 26000000 		.4byte	.LVL285
 14372 098f 0100     		.2byte	0x1
 14373 0991 50       		.byte	0x50
 14374 0992 26000000 		.4byte	.LVL285
 14375 0996 74000000 		.4byte	.LFE86
 14376 099a 0400     		.2byte	0x4
 14377 099c F3       		.byte	0xf3
 14378 099d 01       		.uleb128 0x1
 14379 099e 50       		.byte	0x50
 14380 099f 9F       		.byte	0x9f
 14381 09a0 00000000 		.4byte	0
 14382 09a4 00000000 		.4byte	0
 14383              	.LLST59:
 14384 09a8 16000000 		.4byte	.LVL283
 14385 09ac 66000000 		.4byte	.LVL300
 14386 09b0 0100     		.2byte	0x1
 14387 09b2 55       		.byte	0x55
 14388 09b3 00000000 		.4byte	0
 14389 09b7 00000000 		.4byte	0
 14390              	.LLST60:
 14391 09bb 16000000 		.4byte	.LVL283
 14392 09bf 22000000 		.4byte	.LVL284
 14393 09c3 0200     		.2byte	0x2
 14394 09c5 31       		.byte	0x31
 14395 09c6 9F       		.byte	0x9f
 14396 09c7 22000000 		.4byte	.LVL284
 14397 09cb 66000000 		.4byte	.LVL300
 14398 09cf 0100     		.2byte	0x1
 14399 09d1 56       		.byte	0x56
 14400 09d2 00000000 		.4byte	0
 14401 09d6 00000000 		.4byte	0
 14402              	.LLST61:
 14403 09da 22000000 		.4byte	.LVL284
 14404 09de 26000000 		.4byte	.LVL285
 14405 09e2 0200     		.2byte	0x2
 14406 09e4 30       		.byte	0x30
 14407 09e5 9F       		.byte	0x9f
 14408 09e6 26000000 		.4byte	.LVL285
 14409 09ea 5C000000 		.4byte	.LVL298
 14410 09ee 0100     		.2byte	0x1
 14411 09f0 57       		.byte	0x57
 14412 09f1 5E000000 		.4byte	.LVL299
ARM GAS  C:\Users\FRANKL~1\AppData\Local\Temp\ccXJlYBQ.s 			page 286


 14413 09f5 66000000 		.4byte	.LVL300
 14414 09f9 0100     		.2byte	0x1
 14415 09fb 57       		.byte	0x57
 14416 09fc 00000000 		.4byte	0
 14417 0a00 00000000 		.4byte	0
 14418              	.LLST62:
 14419 0a04 2E000000 		.4byte	.LVL287
 14420 0a08 3C000000 		.4byte	.LVL290
 14421 0a0c 0100     		.2byte	0x1
 14422 0a0e 54       		.byte	0x54
 14423 0a0f 3E000000 		.4byte	.LVL291
 14424 0a13 40000000 		.4byte	.LVL292
 14425 0a17 0100     		.2byte	0x1
 14426 0a19 54       		.byte	0x54
 14427 0a1a 42000000 		.4byte	.LVL293
 14428 0a1e 54000000 		.4byte	.LVL296
 14429 0a22 0100     		.2byte	0x1
 14430 0a24 54       		.byte	0x54
 14431 0a25 00000000 		.4byte	0
 14432 0a29 00000000 		.4byte	0
 14433              	.LLST63:
 14434 0a2d 00000000 		.4byte	.LVL301
 14435 0a31 26000000 		.4byte	.LVL305
 14436 0a35 0100     		.2byte	0x1
 14437 0a37 50       		.byte	0x50
 14438 0a38 26000000 		.4byte	.LVL305
 14439 0a3c 74000000 		.4byte	.LFE87
 14440 0a40 0400     		.2byte	0x4
 14441 0a42 F3       		.byte	0xf3
 14442 0a43 01       		.uleb128 0x1
 14443 0a44 50       		.byte	0x50
 14444 0a45 9F       		.byte	0x9f
 14445 0a46 00000000 		.4byte	0
 14446 0a4a 00000000 		.4byte	0
 14447              	.LLST64:
 14448 0a4e 10000000 		.4byte	.LVL302
 14449 0a52 22000000 		.4byte	.LVL304
 14450 0a56 0200     		.2byte	0x2
 14451 0a58 31       		.byte	0x31
 14452 0a59 9F       		.byte	0x9f
 14453 0a5a 22000000 		.4byte	.LVL304
 14454 0a5e 66000000 		.4byte	.LVL320
 14455 0a62 0100     		.2byte	0x1
 14456 0a64 56       		.byte	0x56
 14457 0a65 00000000 		.4byte	0
 14458 0a69 00000000 		.4byte	0
 14459              	.LLST65:
 14460 0a6d 16000000 		.4byte	.LVL303
 14461 0a71 66000000 		.4byte	.LVL320
 14462 0a75 0100     		.2byte	0x1
 14463 0a77 55       		.byte	0x55
 14464 0a78 00000000 		.4byte	0
 14465 0a7c 00000000 		.4byte	0
 14466              	.LLST66:
 14467 0a80 22000000 		.4byte	.LVL304
 14468 0a84 26000000 		.4byte	.LVL305
 14469 0a88 0100     		.2byte	0x1
ARM GAS  C:\Users\FRANKL~1\AppData\Local\Temp\ccXJlYBQ.s 			page 287


 14470 0a8a 55       		.byte	0x55
 14471 0a8b 26000000 		.4byte	.LVL305
 14472 0a8f 5C000000 		.4byte	.LVL318
 14473 0a93 0100     		.2byte	0x1
 14474 0a95 57       		.byte	0x57
 14475 0a96 5E000000 		.4byte	.LVL319
 14476 0a9a 66000000 		.4byte	.LVL320
 14477 0a9e 0100     		.2byte	0x1
 14478 0aa0 57       		.byte	0x57
 14479 0aa1 00000000 		.4byte	0
 14480 0aa5 00000000 		.4byte	0
 14481              	.LLST67:
 14482 0aa9 2E000000 		.4byte	.LVL307
 14483 0aad 3C000000 		.4byte	.LVL310
 14484 0ab1 0100     		.2byte	0x1
 14485 0ab3 54       		.byte	0x54
 14486 0ab4 3E000000 		.4byte	.LVL311
 14487 0ab8 40000000 		.4byte	.LVL312
 14488 0abc 0100     		.2byte	0x1
 14489 0abe 54       		.byte	0x54
 14490 0abf 42000000 		.4byte	.LVL313
 14491 0ac3 54000000 		.4byte	.LVL316
 14492 0ac7 0100     		.2byte	0x1
 14493 0ac9 54       		.byte	0x54
 14494 0aca 00000000 		.4byte	0
 14495 0ace 00000000 		.4byte	0
 14496              	.LLST68:
 14497 0ad2 00000000 		.4byte	.LVL321
 14498 0ad6 22000000 		.4byte	.LVL325
 14499 0ada 0100     		.2byte	0x1
 14500 0adc 50       		.byte	0x50
 14501 0add 22000000 		.4byte	.LVL325
 14502 0ae1 7C000000 		.4byte	.LFE88
 14503 0ae5 0400     		.2byte	0x4
 14504 0ae7 F3       		.byte	0xf3
 14505 0ae8 01       		.uleb128 0x1
 14506 0ae9 50       		.byte	0x50
 14507 0aea 9F       		.byte	0x9f
 14508 0aeb 00000000 		.4byte	0
 14509 0aef 00000000 		.4byte	0
 14510              	.LLST69:
 14511 0af3 06000000 		.4byte	.LVL322
 14512 0af7 1A000000 		.4byte	.LVL323
 14513 0afb 0200     		.2byte	0x2
 14514 0afd 31       		.byte	0x31
 14515 0afe 9F       		.byte	0x9f
 14516 0aff 1A000000 		.4byte	.LVL323
 14517 0b03 70000000 		.4byte	.LVL338
 14518 0b07 0100     		.2byte	0x1
 14519 0b09 58       		.byte	0x58
 14520 0b0a 00000000 		.4byte	0
 14521 0b0e 00000000 		.4byte	0
 14522              	.LLST70:
 14523 0b12 20000000 		.4byte	.LVL324
 14524 0b16 66000000 		.4byte	.LVL336
 14525 0b1a 0100     		.2byte	0x1
 14526 0b1c 56       		.byte	0x56
ARM GAS  C:\Users\FRANKL~1\AppData\Local\Temp\ccXJlYBQ.s 			page 288


 14527 0b1d 68000000 		.4byte	.LVL337
 14528 0b21 70000000 		.4byte	.LVL338
 14529 0b25 0100     		.2byte	0x1
 14530 0b27 56       		.byte	0x56
 14531 0b28 00000000 		.4byte	0
 14532 0b2c 00000000 		.4byte	0
 14533              	.LLST71:
 14534 0b30 32000000 		.4byte	.LVL327
 14535 0b34 68000000 		.4byte	.LVL337
 14536 0b38 0100     		.2byte	0x1
 14537 0b3a 55       		.byte	0x55
 14538 0b3b 00000000 		.4byte	0
 14539 0b3f 00000000 		.4byte	0
 14540              	.LLST72:
 14541 0b43 3A000000 		.4byte	.LVL328
 14542 0b47 68000000 		.4byte	.LVL337
 14543 0b4b 0100     		.2byte	0x1
 14544 0b4d 54       		.byte	0x54
 14545 0b4e 00000000 		.4byte	0
 14546 0b52 00000000 		.4byte	0
 14547              	.LLST73:
 14548 0b56 00000000 		.4byte	.LVL339
 14549 0b5a 0A000000 		.4byte	.LVL340
 14550 0b5e 0100     		.2byte	0x1
 14551 0b60 50       		.byte	0x50
 14552 0b61 0A000000 		.4byte	.LVL340
 14553 0b65 5C000000 		.4byte	.LVL354
 14554 0b69 0100     		.2byte	0x1
 14555 0b6b 54       		.byte	0x54
 14556 0b6c 5C000000 		.4byte	.LVL354
 14557 0b70 64000000 		.4byte	.LFE89
 14558 0b74 0500     		.2byte	0x5
 14559 0b76 03       		.byte	0x3
 14560 0b77 00000000 		.4byte	Vds_Index_Goal_Relative
 14561 0b7b 00000000 		.4byte	0
 14562 0b7f 00000000 		.4byte	0
 14563              	.LLST74:
 14564 0b83 1E000000 		.4byte	.LVL342
 14565 0b87 24000000 		.4byte	.LVL343
 14566 0b8b 0100     		.2byte	0x1
 14567 0b8d 53       		.byte	0x53
 14568 0b8e 24000000 		.4byte	.LVL343
 14569 0b92 28000000 		.4byte	.LVL344
 14570 0b96 0100     		.2byte	0x1
 14571 0b98 50       		.byte	0x50
 14572 0b99 38000000 		.4byte	.LVL347
 14573 0b9d 3E000000 		.4byte	.LVL348
 14574 0ba1 0100     		.2byte	0x1
 14575 0ba3 53       		.byte	0x53
 14576 0ba4 3E000000 		.4byte	.LVL348
 14577 0ba8 42000000 		.4byte	.LVL349
 14578 0bac 0100     		.2byte	0x1
 14579 0bae 50       		.byte	0x50
 14580 0baf 50000000 		.4byte	.LVL352
 14581 0bb3 55000000 		.4byte	.LVL353-1
 14582 0bb7 0100     		.2byte	0x1
 14583 0bb9 53       		.byte	0x53
ARM GAS  C:\Users\FRANKL~1\AppData\Local\Temp\ccXJlYBQ.s 			page 289


 14584 0bba 00000000 		.4byte	0
 14585 0bbe 00000000 		.4byte	0
 14586              	.LLST75:
 14587 0bc2 00000000 		.4byte	.LVL355
 14588 0bc6 0A000000 		.4byte	.LVL356
 14589 0bca 0100     		.2byte	0x1
 14590 0bcc 50       		.byte	0x50
 14591 0bcd 0A000000 		.4byte	.LVL356
 14592 0bd1 5C000000 		.4byte	.LVL370
 14593 0bd5 0100     		.2byte	0x1
 14594 0bd7 54       		.byte	0x54
 14595 0bd8 5C000000 		.4byte	.LVL370
 14596 0bdc 64000000 		.4byte	.LFE90
 14597 0be0 0500     		.2byte	0x5
 14598 0be2 03       		.byte	0x3
 14599 0be3 00000000 		.4byte	Vgs_Index_Goal_Relative
 14600 0be7 00000000 		.4byte	0
 14601 0beb 00000000 		.4byte	0
 14602              	.LLST76:
 14603 0bef 1E000000 		.4byte	.LVL358
 14604 0bf3 24000000 		.4byte	.LVL359
 14605 0bf7 0100     		.2byte	0x1
 14606 0bf9 53       		.byte	0x53
 14607 0bfa 24000000 		.4byte	.LVL359
 14608 0bfe 28000000 		.4byte	.LVL360
 14609 0c02 0100     		.2byte	0x1
 14610 0c04 50       		.byte	0x50
 14611 0c05 38000000 		.4byte	.LVL363
 14612 0c09 3E000000 		.4byte	.LVL364
 14613 0c0d 0100     		.2byte	0x1
 14614 0c0f 53       		.byte	0x53
 14615 0c10 3E000000 		.4byte	.LVL364
 14616 0c14 42000000 		.4byte	.LVL365
 14617 0c18 0100     		.2byte	0x1
 14618 0c1a 50       		.byte	0x50
 14619 0c1b 50000000 		.4byte	.LVL368
 14620 0c1f 55000000 		.4byte	.LVL369-1
 14621 0c23 0100     		.2byte	0x1
 14622 0c25 53       		.byte	0x53
 14623 0c26 00000000 		.4byte	0
 14624 0c2a 00000000 		.4byte	0
 14625              	.LLST77:
 14626 0c2e 00000000 		.4byte	.LVL371
 14627 0c32 05000000 		.4byte	.LVL372-1
 14628 0c36 0100     		.2byte	0x1
 14629 0c38 50       		.byte	0x50
 14630 0c39 05000000 		.4byte	.LVL372-1
 14631 0c3d 38000000 		.4byte	.LFE91
 14632 0c41 0600     		.2byte	0x6
 14633 0c43 F3       		.byte	0xf3
 14634 0c44 03       		.uleb128 0x3
 14635 0c45 F5       		.byte	0xf5
 14636 0c46 00       		.uleb128 0
 14637 0c47 25       		.uleb128 0x25
 14638 0c48 9F       		.byte	0x9f
 14639 0c49 00000000 		.4byte	0
 14640 0c4d 00000000 		.4byte	0
ARM GAS  C:\Users\FRANKL~1\AppData\Local\Temp\ccXJlYBQ.s 			page 290


 14641              	.LLST78:
 14642 0c51 00000000 		.4byte	.LVL377
 14643 0c55 05000000 		.4byte	.LVL378-1
 14644 0c59 0100     		.2byte	0x1
 14645 0c5b 50       		.byte	0x50
 14646 0c5c 05000000 		.4byte	.LVL378-1
 14647 0c60 38000000 		.4byte	.LFE92
 14648 0c64 0600     		.2byte	0x6
 14649 0c66 F3       		.byte	0xf3
 14650 0c67 03       		.uleb128 0x3
 14651 0c68 F5       		.byte	0xf5
 14652 0c69 00       		.uleb128 0
 14653 0c6a 25       		.uleb128 0x25
 14654 0c6b 9F       		.byte	0x9f
 14655 0c6c 00000000 		.4byte	0
 14656 0c70 00000000 		.4byte	0
 14657              	.LLST79:
 14658 0c74 00000000 		.4byte	.LVL383
 14659 0c78 07000000 		.4byte	.LVL384-1
 14660 0c7c 0100     		.2byte	0x1
 14661 0c7e 50       		.byte	0x50
 14662 0c7f 07000000 		.4byte	.LVL384-1
 14663 0c83 14000000 		.4byte	.LFE93
 14664 0c87 0600     		.2byte	0x6
 14665 0c89 F3       		.byte	0xf3
 14666 0c8a 03       		.uleb128 0x3
 14667 0c8b F5       		.byte	0xf5
 14668 0c8c 00       		.uleb128 0
 14669 0c8d 25       		.uleb128 0x25
 14670 0c8e 9F       		.byte	0x9f
 14671 0c8f 00000000 		.4byte	0
 14672 0c93 00000000 		.4byte	0
 14673              	.LLST80:
 14674 0c97 00000000 		.4byte	.LVL386
 14675 0c9b 07000000 		.4byte	.LVL387-1
 14676 0c9f 0100     		.2byte	0x1
 14677 0ca1 50       		.byte	0x50
 14678 0ca2 07000000 		.4byte	.LVL387-1
 14679 0ca6 14000000 		.4byte	.LFE94
 14680 0caa 0600     		.2byte	0x6
 14681 0cac F3       		.byte	0xf3
 14682 0cad 03       		.uleb128 0x3
 14683 0cae F5       		.byte	0xf5
 14684 0caf 00       		.uleb128 0
 14685 0cb0 25       		.uleb128 0x25
 14686 0cb1 9F       		.byte	0x9f
 14687 0cb2 00000000 		.4byte	0
 14688 0cb6 00000000 		.4byte	0
 14689              	.LLST81:
 14690 0cba 2E000000 		.4byte	.LVL412
 14691 0cbe 31000000 		.4byte	.LVL413-1
 14692 0cc2 0100     		.2byte	0x1
 14693 0cc4 50       		.byte	0x50
 14694 0cc5 31000000 		.4byte	.LVL413-1
 14695 0cc9 76000000 		.4byte	.LVL426
 14696 0ccd 0100     		.2byte	0x1
 14697 0ccf 54       		.byte	0x54
ARM GAS  C:\Users\FRANKL~1\AppData\Local\Temp\ccXJlYBQ.s 			page 291


 14698 0cd0 00000000 		.4byte	0
 14699 0cd4 00000000 		.4byte	0
 14700              	.LLST82:
 14701 0cd8 54000000 		.4byte	.LVL419
 14702 0cdc 57000000 		.4byte	.LVL420-1
 14703 0ce0 0100     		.2byte	0x1
 14704 0ce2 50       		.byte	0x50
 14705 0ce3 57000000 		.4byte	.LVL420-1
 14706 0ce7 C4000000 		.4byte	.LVL435
 14707 0ceb 0100     		.2byte	0x1
 14708 0ced 59       		.byte	0x59
 14709 0cee 00000000 		.4byte	0
 14710 0cf2 00000000 		.4byte	0
 14711              	.LLST83:
 14712 0cf6 5E000000 		.4byte	.LVL422
 14713 0cfa 61000000 		.4byte	.LVL423-1
 14714 0cfe 0100     		.2byte	0x1
 14715 0d00 50       		.byte	0x50
 14716 0d01 61000000 		.4byte	.LVL423-1
 14717 0d05 C4000000 		.4byte	.LVL435
 14718 0d09 0100     		.2byte	0x1
 14719 0d0b 5A       		.byte	0x5a
 14720 0d0c 00000000 		.4byte	0
 14721 0d10 00000000 		.4byte	0
 14722              	.LLST84:
 14723 0d14 00000000 		.4byte	.LVL436
 14724 0d18 08000000 		.4byte	.LVL438
 14725 0d1c 0100     		.2byte	0x1
 14726 0d1e 50       		.byte	0x50
 14727 0d1f 08000000 		.4byte	.LVL438
 14728 0d23 14000000 		.4byte	.LFE100
 14729 0d27 0100     		.2byte	0x1
 14730 0d29 55       		.byte	0x55
 14731 0d2a 00000000 		.4byte	0
 14732 0d2e 00000000 		.4byte	0
 14733              	.LLST85:
 14734 0d32 04000000 		.4byte	.LVL437
 14735 0d36 08000000 		.4byte	.LVL438
 14736 0d3a 0200     		.2byte	0x2
 14737 0d3c 30       		.byte	0x30
 14738 0d3d 9F       		.byte	0x9f
 14739 0d3e 08000000 		.4byte	.LVL438
 14740 0d42 14000000 		.4byte	.LFE100
 14741 0d46 0100     		.2byte	0x1
 14742 0d48 54       		.byte	0x54
 14743 0d49 00000000 		.4byte	0
 14744 0d4d 00000000 		.4byte	0
 14745              	.LLST86:
 14746 0d51 04000000 		.4byte	.LVL441
 14747 0d55 10000000 		.4byte	.LVL442
 14748 0d59 0200     		.2byte	0x2
 14749 0d5b 31       		.byte	0x31
 14750 0d5c 9F       		.byte	0x9f
 14751 0d5d 10000000 		.4byte	.LVL442
 14752 0d61 40000000 		.4byte	.LVL447
 14753 0d65 0100     		.2byte	0x1
 14754 0d67 54       		.byte	0x54
ARM GAS  C:\Users\FRANKL~1\AppData\Local\Temp\ccXJlYBQ.s 			page 292


 14755 0d68 40000000 		.4byte	.LVL447
 14756 0d6c 7E000000 		.4byte	.LVL455
 14757 0d70 0100     		.2byte	0x1
 14758 0d72 58       		.byte	0x58
 14759 0d73 7E000000 		.4byte	.LVL455
 14760 0d77 88000000 		.4byte	.LVL456
 14761 0d7b 0100     		.2byte	0x1
 14762 0d7d 54       		.byte	0x54
 14763 0d7e 00000000 		.4byte	0
 14764 0d82 00000000 		.4byte	0
 14765              	.LLST87:
 14766 0d86 04000000 		.4byte	.LVL441
 14767 0d8a 10000000 		.4byte	.LVL442
 14768 0d8e 0200     		.2byte	0x2
 14769 0d90 30       		.byte	0x30
 14770 0d91 9F       		.byte	0x9f
 14771 0d92 10000000 		.4byte	.LVL442
 14772 0d96 60000000 		.4byte	.LVL451
 14773 0d9a 0100     		.2byte	0x1
 14774 0d9c 55       		.byte	0x55
 14775 0d9d 62000000 		.4byte	.LVL452
 14776 0da1 8C000000 		.4byte	.LVL457
 14777 0da5 0100     		.2byte	0x1
 14778 0da7 55       		.byte	0x55
 14779 0da8 00000000 		.4byte	0
 14780 0dac 00000000 		.4byte	0
 14781              	.LLST88:
 14782 0db0 04000000 		.4byte	.LVL441
 14783 0db4 10000000 		.4byte	.LVL442
 14784 0db8 0200     		.2byte	0x2
 14785 0dba 30       		.byte	0x30
 14786 0dbb 9F       		.byte	0x9f
 14787 0dbc 10000000 		.4byte	.LVL442
 14788 0dc0 30000000 		.4byte	.LVL445
 14789 0dc4 0100     		.2byte	0x1
 14790 0dc6 59       		.byte	0x59
 14791 0dc7 34000000 		.4byte	.LVL446
 14792 0dcb 8C000000 		.4byte	.LVL457
 14793 0dcf 0100     		.2byte	0x1
 14794 0dd1 59       		.byte	0x59
 14795 0dd2 00000000 		.4byte	0
 14796 0dd6 00000000 		.4byte	0
 14797              	.LLST89:
 14798 0dda 04000000 		.4byte	.LVL441
 14799 0dde 10000000 		.4byte	.LVL442
 14800 0de2 0200     		.2byte	0x2
 14801 0de4 30       		.byte	0x30
 14802 0de5 9F       		.byte	0x9f
 14803 0de6 10000000 		.4byte	.LVL442
 14804 0dea 66000000 		.4byte	.LVL453
 14805 0dee 0100     		.2byte	0x1
 14806 0df0 56       		.byte	0x56
 14807 0df1 68000000 		.4byte	.LVL454
 14808 0df5 8C000000 		.4byte	.LVL457
 14809 0df9 0100     		.2byte	0x1
 14810 0dfb 56       		.byte	0x56
 14811 0dfc 00000000 		.4byte	0
ARM GAS  C:\Users\FRANKL~1\AppData\Local\Temp\ccXJlYBQ.s 			page 293


 14812 0e00 00000000 		.4byte	0
 14813              	.LLST90:
 14814 0e04 04000000 		.4byte	.LVL441
 14815 0e08 10000000 		.4byte	.LVL442
 14816 0e0c 0200     		.2byte	0x2
 14817 0e0e 30       		.byte	0x30
 14818 0e0f 9F       		.byte	0x9f
 14819 0e10 10000000 		.4byte	.LVL442
 14820 0e14 1E000000 		.4byte	.LVL443
 14821 0e18 0100     		.2byte	0x1
 14822 0e1a 57       		.byte	0x57
 14823 0e1b 20000000 		.4byte	.LVL444
 14824 0e1f 8C000000 		.4byte	.LVL457
 14825 0e23 0100     		.2byte	0x1
 14826 0e25 57       		.byte	0x57
 14827 0e26 00000000 		.4byte	0
 14828 0e2a 00000000 		.4byte	0
 14829              	.LLST91:
 14830 0e2e 00000000 		.4byte	.LVL458
 14831 0e32 16000000 		.4byte	.LVL459
 14832 0e36 0100     		.2byte	0x1
 14833 0e38 50       		.byte	0x50
 14834 0e39 16000000 		.4byte	.LVL459
 14835 0e3d 22000000 		.4byte	.LVL461
 14836 0e41 0400     		.2byte	0x4
 14837 0e43 F3       		.byte	0xf3
 14838 0e44 01       		.uleb128 0x1
 14839 0e45 50       		.byte	0x50
 14840 0e46 9F       		.byte	0x9f
 14841 0e47 22000000 		.4byte	.LVL461
 14842 0e4b 24000000 		.4byte	.LVL462
 14843 0e4f 0100     		.2byte	0x1
 14844 0e51 50       		.byte	0x50
 14845 0e52 24000000 		.4byte	.LVL462
 14846 0e56 80010000 		.4byte	.LFE102
 14847 0e5a 0400     		.2byte	0x4
 14848 0e5c F3       		.byte	0xf3
 14849 0e5d 01       		.uleb128 0x1
 14850 0e5e 50       		.byte	0x50
 14851 0e5f 9F       		.byte	0x9f
 14852 0e60 00000000 		.4byte	0
 14853 0e64 00000000 		.4byte	0
 14854              	.LLST92:
 14855 0e68 2A000000 		.4byte	.LVL464
 14856 0e6c 62010000 		.4byte	.LVL504
 14857 0e70 0200     		.2byte	0x2
 14858 0e72 91       		.byte	0x91
 14859 0e73 48       		.sleb128 -56
 14860 0e74 62010000 		.4byte	.LVL504
 14861 0e78 80010000 		.4byte	.LFE102
 14862 0e7c 0200     		.2byte	0x2
 14863 0e7e 7D       		.byte	0x7d
 14864 0e7f 48       		.sleb128 -56
 14865 0e80 00000000 		.4byte	0
 14866 0e84 00000000 		.4byte	0
 14867              	.LLST93:
 14868 0e88 2A000000 		.4byte	.LVL464
ARM GAS  C:\Users\FRANKL~1\AppData\Local\Temp\ccXJlYBQ.s 			page 294


 14869 0e8c 4C000000 		.4byte	.LVL465
 14870 0e90 0200     		.2byte	0x2
 14871 0e92 40       		.byte	0x40
 14872 0e93 9F       		.byte	0x9f
 14873 0e94 4C000000 		.4byte	.LVL465
 14874 0e98 54000000 		.4byte	.LVL468
 14875 0e9c 0100     		.2byte	0x1
 14876 0e9e 56       		.byte	0x56
 14877 0e9f 00000000 		.4byte	0
 14878 0ea3 00000000 		.4byte	0
 14879              	.LLST94:
 14880 0ea7 2A000000 		.4byte	.LVL464
 14881 0eab 4C000000 		.4byte	.LVL465
 14882 0eaf 0200     		.2byte	0x2
 14883 0eb1 30       		.byte	0x30
 14884 0eb2 9F       		.byte	0x9f
 14885 0eb3 4C000000 		.4byte	.LVL465
 14886 0eb7 50000000 		.4byte	.LVL466
 14887 0ebb 0100     		.2byte	0x1
 14888 0ebd 57       		.byte	0x57
 14889 0ebe 50000000 		.4byte	.LVL466
 14890 0ec2 54000000 		.4byte	.LVL468
 14891 0ec6 0100     		.2byte	0x1
 14892 0ec8 53       		.byte	0x53
 14893 0ec9 00000000 		.4byte	0
 14894 0ecd 00000000 		.4byte	0
 14895              	.LLST95:
 14896 0ed1 2A000000 		.4byte	.LVL464
 14897 0ed5 4C000000 		.4byte	.LVL465
 14898 0ed9 0300     		.2byte	0x3
 14899 0edb 09       		.byte	0x9
 14900 0edc F0       		.byte	0xf0
 14901 0edd 9F       		.byte	0x9f
 14902 0ede 4C000000 		.4byte	.LVL465
 14903 0ee2 52000000 		.4byte	.LVL467
 14904 0ee6 0100     		.2byte	0x1
 14905 0ee8 58       		.byte	0x58
 14906 0ee9 52000000 		.4byte	.LVL467
 14907 0eed 54000000 		.4byte	.LVL468
 14908 0ef1 0100     		.2byte	0x1
 14909 0ef3 57       		.byte	0x57
 14910 0ef4 00000000 		.4byte	0
 14911 0ef8 00000000 		.4byte	0
 14912              	.LLST96:
 14913 0efc 4C000000 		.4byte	.LVL465
 14914 0f00 50000000 		.4byte	.LVL466
 14915 0f04 0100     		.2byte	0x1
 14916 0f06 57       		.byte	0x57
 14917 0f07 50000000 		.4byte	.LVL466
 14918 0f0b 54000000 		.4byte	.LVL468
 14919 0f0f 0100     		.2byte	0x1
 14920 0f11 53       		.byte	0x53
 14921 0f12 54000000 		.4byte	.LVL468
 14922 0f16 52010000 		.4byte	.LVL503
 14923 0f1a 0100     		.2byte	0x1
 14924 0f1c 58       		.byte	0x58
 14925 0f1d 00000000 		.4byte	0
ARM GAS  C:\Users\FRANKL~1\AppData\Local\Temp\ccXJlYBQ.s 			page 295


 14926 0f21 00000000 		.4byte	0
 14927              	.LLST97:
 14928 0f25 54000000 		.4byte	.LVL468
 14929 0f29 34010000 		.4byte	.LVL498
 14930 0f2d 0100     		.2byte	0x1
 14931 0f2f 54       		.byte	0x54
 14932 0f30 36010000 		.4byte	.LVL499
 14933 0f34 38010000 		.4byte	.LVL500
 14934 0f38 0100     		.2byte	0x1
 14935 0f3a 54       		.byte	0x54
 14936 0f3b 3A010000 		.4byte	.LVL501
 14937 0f3f 46010000 		.4byte	.LVL502
 14938 0f43 0100     		.2byte	0x1
 14939 0f45 54       		.byte	0x54
 14940 0f46 00000000 		.4byte	0
 14941 0f4a 00000000 		.4byte	0
 14942              	.LLST98:
 14943 0f4e 8E000000 		.4byte	.LVL475
 14944 0f52 91000000 		.4byte	.LVL476-1
 14945 0f56 0100     		.2byte	0x1
 14946 0f58 50       		.byte	0x50
 14947 0f59 91000000 		.4byte	.LVL476-1
 14948 0f5d D6000000 		.4byte	.LVL489
 14949 0f61 0100     		.2byte	0x1
 14950 0f63 55       		.byte	0x55
 14951 0f64 00000000 		.4byte	0
 14952 0f68 00000000 		.4byte	0
 14953              	.LLST99:
 14954 0f6c B4000000 		.4byte	.LVL482
 14955 0f70 B7000000 		.4byte	.LVL483-1
 14956 0f74 0100     		.2byte	0x1
 14957 0f76 50       		.byte	0x50
 14958 0f77 B7000000 		.4byte	.LVL483-1
 14959 0f7b 38010000 		.4byte	.LVL500
 14960 0f7f 0100     		.2byte	0x1
 14961 0f81 5A       		.byte	0x5a
 14962 0f82 00000000 		.4byte	0
 14963 0f86 00000000 		.4byte	0
 14964              	.LLST100:
 14965 0f8a BE000000 		.4byte	.LVL485
 14966 0f8e C1000000 		.4byte	.LVL486-1
 14967 0f92 0100     		.2byte	0x1
 14968 0f94 50       		.byte	0x50
 14969 0f95 C1000000 		.4byte	.LVL486-1
 14970 0f99 38010000 		.4byte	.LVL500
 14971 0f9d 0100     		.2byte	0x1
 14972 0f9f 5B       		.byte	0x5b
 14973 0fa0 00000000 		.4byte	0
 14974 0fa4 00000000 		.4byte	0
 14975              	.LLST101:
 14976 0fa8 00000000 		.4byte	.LVL505
 14977 0fac 0A000000 		.4byte	.LVL506
 14978 0fb0 0100     		.2byte	0x1
 14979 0fb2 50       		.byte	0x50
 14980 0fb3 0A000000 		.4byte	.LVL506
 14981 0fb7 64010000 		.4byte	.LFE103
 14982 0fbb 0400     		.2byte	0x4
ARM GAS  C:\Users\FRANKL~1\AppData\Local\Temp\ccXJlYBQ.s 			page 296


 14983 0fbd F3       		.byte	0xf3
 14984 0fbe 01       		.uleb128 0x1
 14985 0fbf 50       		.byte	0x50
 14986 0fc0 9F       		.byte	0x9f
 14987 0fc1 00000000 		.4byte	0
 14988 0fc5 00000000 		.4byte	0
 14989              	.LLST102:
 14990 0fc9 0E000000 		.4byte	.LVL507
 14991 0fcd 14000000 		.4byte	.LVL508
 14992 0fd1 0200     		.2byte	0x2
 14993 0fd3 30       		.byte	0x30
 14994 0fd4 9F       		.byte	0x9f
 14995 0fd5 14000000 		.4byte	.LVL508
 14996 0fd9 4C010000 		.4byte	.LVL548
 14997 0fdd 0200     		.2byte	0x2
 14998 0fdf 91       		.byte	0x91
 14999 0fe0 48       		.sleb128 -56
 15000 0fe1 4C010000 		.4byte	.LVL548
 15001 0fe5 64010000 		.4byte	.LFE103
 15002 0fe9 0200     		.2byte	0x2
 15003 0feb 7D       		.byte	0x7d
 15004 0fec 48       		.sleb128 -56
 15005 0fed 00000000 		.4byte	0
 15006 0ff1 00000000 		.4byte	0
 15007              	.LLST103:
 15008 0ff5 14000000 		.4byte	.LVL508
 15009 0ff9 36000000 		.4byte	.LVL509
 15010 0ffd 0200     		.2byte	0x2
 15011 0fff 40       		.byte	0x40
 15012 1000 9F       		.byte	0x9f
 15013 1001 36000000 		.4byte	.LVL509
 15014 1005 3E000000 		.4byte	.LVL512
 15015 1009 0100     		.2byte	0x1
 15016 100b 56       		.byte	0x56
 15017 100c 00000000 		.4byte	0
 15018 1010 00000000 		.4byte	0
 15019              	.LLST104:
 15020 1014 14000000 		.4byte	.LVL508
 15021 1018 36000000 		.4byte	.LVL509
 15022 101c 0200     		.2byte	0x2
 15023 101e 30       		.byte	0x30
 15024 101f 9F       		.byte	0x9f
 15025 1020 36000000 		.4byte	.LVL509
 15026 1024 3A000000 		.4byte	.LVL510
 15027 1028 0100     		.2byte	0x1
 15028 102a 57       		.byte	0x57
 15029 102b 3A000000 		.4byte	.LVL510
 15030 102f 3E000000 		.4byte	.LVL512
 15031 1033 0100     		.2byte	0x1
 15032 1035 53       		.byte	0x53
 15033 1036 00000000 		.4byte	0
 15034 103a 00000000 		.4byte	0
 15035              	.LLST105:
 15036 103e 14000000 		.4byte	.LVL508
 15037 1042 36000000 		.4byte	.LVL509
 15038 1046 0300     		.2byte	0x3
 15039 1048 09       		.byte	0x9
ARM GAS  C:\Users\FRANKL~1\AppData\Local\Temp\ccXJlYBQ.s 			page 297


 15040 1049 F0       		.byte	0xf0
 15041 104a 9F       		.byte	0x9f
 15042 104b 36000000 		.4byte	.LVL509
 15043 104f 3C000000 		.4byte	.LVL511
 15044 1053 0100     		.2byte	0x1
 15045 1055 58       		.byte	0x58
 15046 1056 3C000000 		.4byte	.LVL511
 15047 105a 3E000000 		.4byte	.LVL512
 15048 105e 0100     		.2byte	0x1
 15049 1060 57       		.byte	0x57
 15050 1061 00000000 		.4byte	0
 15051 1065 00000000 		.4byte	0
 15052              	.LLST106:
 15053 1069 36000000 		.4byte	.LVL509
 15054 106d 3A000000 		.4byte	.LVL510
 15055 1071 0100     		.2byte	0x1
 15056 1073 57       		.byte	0x57
 15057 1074 3A000000 		.4byte	.LVL510
 15058 1078 3E000000 		.4byte	.LVL512
 15059 107c 0100     		.2byte	0x1
 15060 107e 53       		.byte	0x53
 15061 107f 3E000000 		.4byte	.LVL512
 15062 1083 3C010000 		.4byte	.LVL547
 15063 1087 0100     		.2byte	0x1
 15064 1089 58       		.byte	0x58
 15065 108a 00000000 		.4byte	0
 15066 108e 00000000 		.4byte	0
 15067              	.LLST107:
 15068 1092 3E000000 		.4byte	.LVL512
 15069 1096 1E010000 		.4byte	.LVL542
 15070 109a 0100     		.2byte	0x1
 15071 109c 54       		.byte	0x54
 15072 109d 20010000 		.4byte	.LVL543
 15073 10a1 22010000 		.4byte	.LVL544
 15074 10a5 0100     		.2byte	0x1
 15075 10a7 54       		.byte	0x54
 15076 10a8 24010000 		.4byte	.LVL545
 15077 10ac 30010000 		.4byte	.LVL546
 15078 10b0 0100     		.2byte	0x1
 15079 10b2 54       		.byte	0x54
 15080 10b3 00000000 		.4byte	0
 15081 10b7 00000000 		.4byte	0
 15082              	.LLST108:
 15083 10bb 78000000 		.4byte	.LVL519
 15084 10bf 7B000000 		.4byte	.LVL520-1
 15085 10c3 0100     		.2byte	0x1
 15086 10c5 50       		.byte	0x50
 15087 10c6 7B000000 		.4byte	.LVL520-1
 15088 10ca C0000000 		.4byte	.LVL533
 15089 10ce 0100     		.2byte	0x1
 15090 10d0 55       		.byte	0x55
 15091 10d1 00000000 		.4byte	0
 15092 10d5 00000000 		.4byte	0
 15093              	.LLST109:
 15094 10d9 9E000000 		.4byte	.LVL526
 15095 10dd A1000000 		.4byte	.LVL527-1
 15096 10e1 0100     		.2byte	0x1
ARM GAS  C:\Users\FRANKL~1\AppData\Local\Temp\ccXJlYBQ.s 			page 298


 15097 10e3 50       		.byte	0x50
 15098 10e4 A1000000 		.4byte	.LVL527-1
 15099 10e8 22010000 		.4byte	.LVL544
 15100 10ec 0100     		.2byte	0x1
 15101 10ee 5A       		.byte	0x5a
 15102 10ef 00000000 		.4byte	0
 15103 10f3 00000000 		.4byte	0
 15104              	.LLST110:
 15105 10f7 A8000000 		.4byte	.LVL529
 15106 10fb AB000000 		.4byte	.LVL530-1
 15107 10ff 0100     		.2byte	0x1
 15108 1101 50       		.byte	0x50
 15109 1102 AB000000 		.4byte	.LVL530-1
 15110 1106 22010000 		.4byte	.LVL544
 15111 110a 0100     		.2byte	0x1
 15112 110c 5B       		.byte	0x5b
 15113 110d 00000000 		.4byte	0
 15114 1111 00000000 		.4byte	0
 15115              	.LLST111:
 15116 1115 00000000 		.4byte	.LVL549
 15117 1119 0C000000 		.4byte	.LVL551
 15118 111d 0100     		.2byte	0x1
 15119 111f 50       		.byte	0x50
 15120 1120 0C000000 		.4byte	.LVL551
 15121 1124 90000000 		.4byte	.LFE104
 15122 1128 0400     		.2byte	0x4
 15123 112a F3       		.byte	0xf3
 15124 112b 01       		.uleb128 0x1
 15125 112c 50       		.byte	0x50
 15126 112d 9F       		.byte	0x9f
 15127 112e 00000000 		.4byte	0
 15128 1132 00000000 		.4byte	0
 15129              	.LLST112:
 15130 1136 00000000 		.4byte	.LVL549
 15131 113a 0C000000 		.4byte	.LVL551
 15132 113e 0100     		.2byte	0x1
 15133 1140 51       		.byte	0x51
 15134 1141 0C000000 		.4byte	.LVL551
 15135 1145 90000000 		.4byte	.LFE104
 15136 1149 0400     		.2byte	0x4
 15137 114b F3       		.byte	0xf3
 15138 114c 01       		.uleb128 0x1
 15139 114d 51       		.byte	0x51
 15140 114e 9F       		.byte	0x9f
 15141 114f 00000000 		.4byte	0
 15142 1153 00000000 		.4byte	0
 15143              	.LLST113:
 15144 1157 08000000 		.4byte	.LVL550
 15145 115b 0C000000 		.4byte	.LVL551
 15146 115f 0200     		.2byte	0x2
 15147 1161 31       		.byte	0x31
 15148 1162 9F       		.byte	0x9f
 15149 1163 0C000000 		.4byte	.LVL551
 15150 1167 84000000 		.4byte	.LVL565
 15151 116b 0100     		.2byte	0x1
 15152 116d 54       		.byte	0x54
 15153 116e 00000000 		.4byte	0
ARM GAS  C:\Users\FRANKL~1\AppData\Local\Temp\ccXJlYBQ.s 			page 299


 15154 1172 00000000 		.4byte	0
 15155              	.LLST114:
 15156 1176 0C000000 		.4byte	.LVL551
 15157 117a 7C000000 		.4byte	.LVL564
 15158 117e 0100     		.2byte	0x1
 15159 1180 54       		.byte	0x54
 15160 1181 00000000 		.4byte	0
 15161 1185 00000000 		.4byte	0
 15162              	.LLST115:
 15163 1189 10000000 		.4byte	.LVL552
 15164 118d 7C000000 		.4byte	.LVL564
 15165 1191 0100     		.2byte	0x1
 15166 1193 56       		.byte	0x56
 15167 1194 00000000 		.4byte	0
 15168 1198 00000000 		.4byte	0
 15169              	.LLST116:
 15170 119c 10000000 		.4byte	.LVL552
 15171 11a0 7C000000 		.4byte	.LVL564
 15172 11a4 0200     		.2byte	0x2
 15173 11a6 31       		.byte	0x31
 15174 11a7 9F       		.byte	0x9f
 15175 11a8 00000000 		.4byte	0
 15176 11ac 00000000 		.4byte	0
 15177              	.LLST117:
 15178 11b0 10000000 		.4byte	.LVL552
 15179 11b4 7C000000 		.4byte	.LVL564
 15180 11b8 0200     		.2byte	0x2
 15181 11ba 32       		.byte	0x32
 15182 11bb 9F       		.byte	0x9f
 15183 11bc 00000000 		.4byte	0
 15184 11c0 00000000 		.4byte	0
 15185              	.LLST118:
 15186 11c4 00000000 		.4byte	.LVL566
 15187 11c8 18000000 		.4byte	.LVL567
 15188 11cc 0100     		.2byte	0x1
 15189 11ce 50       		.byte	0x50
 15190 11cf 18000000 		.4byte	.LVL567
 15191 11d3 94000000 		.4byte	.LVL581
 15192 11d7 0400     		.2byte	0x4
 15193 11d9 F3       		.byte	0xf3
 15194 11da 01       		.uleb128 0x1
 15195 11db 50       		.byte	0x50
 15196 11dc 9F       		.byte	0x9f
 15197 11dd 94000000 		.4byte	.LVL581
 15198 11e1 A4000000 		.4byte	.LFE105
 15199 11e5 0100     		.2byte	0x1
 15200 11e7 50       		.byte	0x50
 15201 11e8 00000000 		.4byte	0
 15202 11ec 00000000 		.4byte	0
 15203              	.LLST119:
 15204 11f0 00000000 		.4byte	.LVL566
 15205 11f4 18000000 		.4byte	.LVL567
 15206 11f8 0100     		.2byte	0x1
 15207 11fa 51       		.byte	0x51
 15208 11fb 18000000 		.4byte	.LVL567
 15209 11ff 94000000 		.4byte	.LVL581
 15210 1203 0400     		.2byte	0x4
ARM GAS  C:\Users\FRANKL~1\AppData\Local\Temp\ccXJlYBQ.s 			page 300


 15211 1205 F3       		.byte	0xf3
 15212 1206 01       		.uleb128 0x1
 15213 1207 51       		.byte	0x51
 15214 1208 9F       		.byte	0x9f
 15215 1209 94000000 		.4byte	.LVL581
 15216 120d A4000000 		.4byte	.LFE105
 15217 1211 0100     		.2byte	0x1
 15218 1213 51       		.byte	0x51
 15219 1214 00000000 		.4byte	0
 15220 1218 00000000 		.4byte	0
 15221              	.LLST120:
 15222 121c 00000000 		.4byte	.LVL566
 15223 1220 18000000 		.4byte	.LVL567
 15224 1224 0100     		.2byte	0x1
 15225 1226 52       		.byte	0x52
 15226 1227 18000000 		.4byte	.LVL567
 15227 122b 94000000 		.4byte	.LVL581
 15228 122f 0400     		.2byte	0x4
 15229 1231 F3       		.byte	0xf3
 15230 1232 01       		.uleb128 0x1
 15231 1233 52       		.byte	0x52
 15232 1234 9F       		.byte	0x9f
 15233 1235 94000000 		.4byte	.LVL581
 15234 1239 A4000000 		.4byte	.LFE105
 15235 123d 0100     		.2byte	0x1
 15236 123f 52       		.byte	0x52
 15237 1240 00000000 		.4byte	0
 15238 1244 00000000 		.4byte	0
 15239              	.LLST121:
 15240 1248 00000000 		.4byte	.LVL566
 15241 124c 18000000 		.4byte	.LVL567
 15242 1250 0100     		.2byte	0x1
 15243 1252 53       		.byte	0x53
 15244 1253 18000000 		.4byte	.LVL567
 15245 1257 94000000 		.4byte	.LVL581
 15246 125b 0400     		.2byte	0x4
 15247 125d F3       		.byte	0xf3
 15248 125e 01       		.uleb128 0x1
 15249 125f 53       		.byte	0x53
 15250 1260 9F       		.byte	0x9f
 15251 1261 94000000 		.4byte	.LVL581
 15252 1265 A4000000 		.4byte	.LFE105
 15253 1269 0100     		.2byte	0x1
 15254 126b 53       		.byte	0x53
 15255 126c 00000000 		.4byte	0
 15256 1270 00000000 		.4byte	0
 15257              	.LLST122:
 15258 1274 18000000 		.4byte	.LVL567
 15259 1278 94000000 		.4byte	.LVL581
 15260 127c 0100     		.2byte	0x1
 15261 127e 54       		.byte	0x54
 15262 127f 00000000 		.4byte	0
 15263 1283 00000000 		.4byte	0
 15264              	.LLST123:
 15265 1287 18000000 		.4byte	.LVL567
 15266 128b 8C000000 		.4byte	.LVL580
 15267 128f 0100     		.2byte	0x1
ARM GAS  C:\Users\FRANKL~1\AppData\Local\Temp\ccXJlYBQ.s 			page 301


 15268 1291 54       		.byte	0x54
 15269 1292 00000000 		.4byte	0
 15270 1296 00000000 		.4byte	0
 15271              	.LLST124:
 15272 129a 1C000000 		.4byte	.LVL568
 15273 129e 8C000000 		.4byte	.LVL580
 15274 12a2 0100     		.2byte	0x1
 15275 12a4 56       		.byte	0x56
 15276 12a5 00000000 		.4byte	0
 15277 12a9 00000000 		.4byte	0
 15278              	.LLST125:
 15279 12ad 1C000000 		.4byte	.LVL568
 15280 12b1 8C000000 		.4byte	.LVL580
 15281 12b5 0200     		.2byte	0x2
 15282 12b7 31       		.byte	0x31
 15283 12b8 9F       		.byte	0x9f
 15284 12b9 00000000 		.4byte	0
 15285 12bd 00000000 		.4byte	0
 15286              	.LLST126:
 15287 12c1 1C000000 		.4byte	.LVL568
 15288 12c5 8C000000 		.4byte	.LVL580
 15289 12c9 0200     		.2byte	0x2
 15290 12cb 32       		.byte	0x32
 15291 12cc 9F       		.byte	0x9f
 15292 12cd 00000000 		.4byte	0
 15293 12d1 00000000 		.4byte	0
 15294              	.LLST127:
 15295 12d5 76000000 		.4byte	.LVL598
 15296 12d9 86000000 		.4byte	.LVL599
 15297 12dd 0600     		.2byte	0x6
 15298 12df 03       		.byte	0x3
 15299 12e0 00000000 		.4byte	USBUART_Receive_Buffer
 15300 12e4 9F       		.byte	0x9f
 15301 12e5 86000000 		.4byte	.LVL599
 15302 12e9 18020000 		.4byte	.LVL640
 15303 12ed 0100     		.2byte	0x1
 15304 12ef 54       		.byte	0x54
 15305 12f0 46020000 		.4byte	.LVL648
 15306 12f4 6C020000 		.4byte	.LVL653
 15307 12f8 0100     		.2byte	0x1
 15308 12fa 54       		.byte	0x54
 15309 12fb 9A020000 		.4byte	.LVL661
 15310 12ff A8020000 		.4byte	.LVL663
 15311 1303 0100     		.2byte	0x1
 15312 1305 54       		.byte	0x54
 15313 1306 6C030000 		.4byte	.LVL671
 15314 130a AE030000 		.4byte	.LVL677
 15315 130e 0100     		.2byte	0x1
 15316 1310 54       		.byte	0x54
 15317 1311 FE030000 		.4byte	.LVL686
 15318 1315 46040000 		.4byte	.LVL692
 15319 1319 0100     		.2byte	0x1
 15320 131b 54       		.byte	0x54
 15321 131c 9C040000 		.4byte	.LVL701
 15322 1320 E8040000 		.4byte	.LVL707
 15323 1324 0100     		.2byte	0x1
 15324 1326 54       		.byte	0x54
ARM GAS  C:\Users\FRANKL~1\AppData\Local\Temp\ccXJlYBQ.s 			page 302


 15325 1327 44050000 		.4byte	.LVL717
 15326 132b 5A050000 		.4byte	.LVL720
 15327 132f 0100     		.2byte	0x1
 15328 1331 54       		.byte	0x54
 15329 1332 A0050000 		.4byte	.LVL730
 15330 1336 B6050000 		.4byte	.LVL733
 15331 133a 0100     		.2byte	0x1
 15332 133c 54       		.byte	0x54
 15333 133d FC050000 		.4byte	.LVL743
 15334 1341 12060000 		.4byte	.LVL746
 15335 1345 0100     		.2byte	0x1
 15336 1347 54       		.byte	0x54
 15337 1348 58060000 		.4byte	.LVL756
 15338 134c 82060000 		.4byte	.LVL762
 15339 1350 0100     		.2byte	0x1
 15340 1352 54       		.byte	0x54
 15341 1353 EC060000 		.4byte	.LVL767
 15342 1357 00070000 		.4byte	.LVL770
 15343 135b 0100     		.2byte	0x1
 15344 135d 54       		.byte	0x54
 15345 135e 2C070000 		.4byte	.LVL774
 15346 1362 56070000 		.4byte	.LVL780
 15347 1366 0100     		.2byte	0x1
 15348 1368 54       		.byte	0x54
 15349 1369 76070000 		.4byte	.LVL785
 15350 136d A0070000 		.4byte	.LVL791
 15351 1371 0100     		.2byte	0x1
 15352 1373 54       		.byte	0x54
 15353 1374 C0070000 		.4byte	.LVL796
 15354 1378 D4070000 		.4byte	.LVL799
 15355 137c 0100     		.2byte	0x1
 15356 137e 54       		.byte	0x54
 15357 137f FC070000 		.4byte	.LVL803
 15358 1383 22080000 		.4byte	.LVL807
 15359 1387 0100     		.2byte	0x1
 15360 1389 54       		.byte	0x54
 15361 138a 5E080000 		.4byte	.LVL812
 15362 138e B8080000 		.4byte	.LFE107
 15363 1392 0100     		.2byte	0x1
 15364 1394 54       		.byte	0x54
 15365 1395 00000000 		.4byte	0
 15366 1399 00000000 		.4byte	0
 15367              	.LLST128:
 15368 139d BE000000 		.4byte	.LVL604
 15369 13a1 C1000000 		.4byte	.LVL605-1
 15370 13a5 0100     		.2byte	0x1
 15371 13a7 50       		.byte	0x50
 15372 13a8 00000000 		.4byte	0
 15373 13ac 00000000 		.4byte	0
 15374              	.LLST129:
 15375 13b0 1E010000 		.4byte	.LVL614
 15376 13b4 23010000 		.4byte	.LVL615-1
 15377 13b8 0100     		.2byte	0x1
 15378 13ba 50       		.byte	0x50
 15379 13bb 00000000 		.4byte	0
 15380 13bf 00000000 		.4byte	0
 15381              	.LLST130:
ARM GAS  C:\Users\FRANKL~1\AppData\Local\Temp\ccXJlYBQ.s 			page 303


 15382 13c3 46010000 		.4byte	.LVL618
 15383 13c7 4B010000 		.4byte	.LVL619-1
 15384 13cb 0100     		.2byte	0x1
 15385 13cd 50       		.byte	0x50
 15386 13ce 00000000 		.4byte	0
 15387 13d2 00000000 		.4byte	0
 15388              	.LLST131:
 15389 13d6 6E010000 		.4byte	.LVL622
 15390 13da 73010000 		.4byte	.LVL623-1
 15391 13de 0100     		.2byte	0x1
 15392 13e0 50       		.byte	0x50
 15393 13e1 00000000 		.4byte	0
 15394 13e5 00000000 		.4byte	0
 15395              	.LLST132:
 15396 13e9 96010000 		.4byte	.LVL626
 15397 13ed 9B010000 		.4byte	.LVL627-1
 15398 13f1 0100     		.2byte	0x1
 15399 13f3 50       		.byte	0x50
 15400 13f4 00000000 		.4byte	0
 15401 13f8 00000000 		.4byte	0
 15402              	.LLST133:
 15403 13fc B2010000 		.4byte	.LVL629
 15404 1400 BF010000 		.4byte	.LVL630-1
 15405 1404 0100     		.2byte	0x1
 15406 1406 50       		.byte	0x50
 15407 1407 00000000 		.4byte	0
 15408 140b 00000000 		.4byte	0
 15409              	.LLST134:
 15410 140f DC010000 		.4byte	.LVL633
 15411 1413 E9010000 		.4byte	.LVL634-1
 15412 1417 0100     		.2byte	0x1
 15413 1419 50       		.byte	0x50
 15414 141a 00000000 		.4byte	0
 15415 141e 00000000 		.4byte	0
 15416              	.LLST135:
 15417 1422 18020000 		.4byte	.LVL640
 15418 1426 1B020000 		.4byte	.LVL641-1
 15419 142a 0100     		.2byte	0x1
 15420 142c 50       		.byte	0x50
 15421 142d 1B020000 		.4byte	.LVL641-1
 15422 1431 24020000 		.4byte	.LVL643
 15423 1435 0100     		.2byte	0x1
 15424 1437 54       		.byte	0x54
 15425 1438 00000000 		.4byte	0
 15426 143c 00000000 		.4byte	0
 15427              	.LLST136:
 15428 1440 6C020000 		.4byte	.LVL653
 15429 1444 6F020000 		.4byte	.LVL654-1
 15430 1448 0100     		.2byte	0x1
 15431 144a 50       		.byte	0x50
 15432 144b 6F020000 		.4byte	.LVL654-1
 15433 144f 78020000 		.4byte	.LVL656
 15434 1453 0100     		.2byte	0x1
 15435 1455 54       		.byte	0x54
 15436 1456 00000000 		.4byte	0
 15437 145a 00000000 		.4byte	0
 15438              	.LLST137:
ARM GAS  C:\Users\FRANKL~1\AppData\Local\Temp\ccXJlYBQ.s 			page 304


 15439 145e BC030000 		.4byte	.LVL679
 15440 1462 FE030000 		.4byte	.LVL686
 15441 1466 0100     		.2byte	0x1
 15442 1468 56       		.byte	0x56
 15443 1469 00000000 		.4byte	0
 15444 146d 00000000 		.4byte	0
 15445              	.LLST138:
 15446 1471 C6030000 		.4byte	.LVL680
 15447 1475 CE030000 		.4byte	.LVL681
 15448 1479 0100     		.2byte	0x1
 15449 147b 50       		.byte	0x50
 15450 147c CE030000 		.4byte	.LVL681
 15451 1480 D1030000 		.4byte	.LVL682-1
 15452 1484 0100     		.2byte	0x1
 15453 1486 51       		.byte	0x51
 15454 1487 00000000 		.4byte	0
 15455 148b 00000000 		.4byte	0
 15456              	.LLST139:
 15457 148f 54040000 		.4byte	.LVL694
 15458 1493 9C040000 		.4byte	.LVL701
 15459 1497 0100     		.2byte	0x1
 15460 1499 56       		.byte	0x56
 15461 149a 00000000 		.4byte	0
 15462 149e 00000000 		.4byte	0
 15463              	.LLST140:
 15464 14a2 5E040000 		.4byte	.LVL695
 15465 14a6 66040000 		.4byte	.LVL696
 15466 14aa 0100     		.2byte	0x1
 15467 14ac 50       		.byte	0x50
 15468 14ad 66040000 		.4byte	.LVL696
 15469 14b1 69040000 		.4byte	.LVL697-1
 15470 14b5 0100     		.2byte	0x1
 15471 14b7 51       		.byte	0x51
 15472 14b8 00000000 		.4byte	0
 15473 14bc 00000000 		.4byte	0
 15474              	.LLST141:
 15475 14c0 F6040000 		.4byte	.LVL709
 15476 14c4 0E050000 		.4byte	.LVL713
 15477 14c8 0100     		.2byte	0x1
 15478 14ca 56       		.byte	0x56
 15479 14cb 00000000 		.4byte	0
 15480 14cf 00000000 		.4byte	0
 15481              	.LLST142:
 15482 14d3 00050000 		.4byte	.LVL710
 15483 14d7 08050000 		.4byte	.LVL711
 15484 14db 0100     		.2byte	0x1
 15485 14dd 50       		.byte	0x50
 15486 14de 08050000 		.4byte	.LVL711
 15487 14e2 0B050000 		.4byte	.LVL712-1
 15488 14e6 0100     		.2byte	0x1
 15489 14e8 51       		.byte	0x51
 15490 14e9 00000000 		.4byte	0
 15491 14ed 00000000 		.4byte	0
 15492              	.LLST143:
 15493 14f1 68050000 		.4byte	.LVL722
 15494 14f5 A0050000 		.4byte	.LVL730
 15495 14f9 0100     		.2byte	0x1
ARM GAS  C:\Users\FRANKL~1\AppData\Local\Temp\ccXJlYBQ.s 			page 305


 15496 14fb 55       		.byte	0x55
 15497 14fc 00000000 		.4byte	0
 15498 1500 00000000 		.4byte	0
 15499              	.LLST144:
 15500 1504 74050000 		.4byte	.LVL724
 15501 1508 A0050000 		.4byte	.LVL730
 15502 150c 0100     		.2byte	0x1
 15503 150e 56       		.byte	0x56
 15504 150f 00000000 		.4byte	0
 15505 1513 00000000 		.4byte	0
 15506              	.LLST145:
 15507 1517 C4050000 		.4byte	.LVL735
 15508 151b FC050000 		.4byte	.LVL743
 15509 151f 0100     		.2byte	0x1
 15510 1521 55       		.byte	0x55
 15511 1522 00000000 		.4byte	0
 15512 1526 00000000 		.4byte	0
 15513              	.LLST146:
 15514 152a D0050000 		.4byte	.LVL737
 15515 152e FC050000 		.4byte	.LVL743
 15516 1532 0100     		.2byte	0x1
 15517 1534 56       		.byte	0x56
 15518 1535 00000000 		.4byte	0
 15519 1539 00000000 		.4byte	0
 15520              	.LLST147:
 15521 153d 20060000 		.4byte	.LVL748
 15522 1541 58060000 		.4byte	.LVL756
 15523 1545 0100     		.2byte	0x1
 15524 1547 55       		.byte	0x55
 15525 1548 00000000 		.4byte	0
 15526 154c 00000000 		.4byte	0
 15527              	.LLST148:
 15528 1550 2C060000 		.4byte	.LVL750
 15529 1554 58060000 		.4byte	.LVL756
 15530 1558 0100     		.2byte	0x1
 15531 155a 56       		.byte	0x56
 15532 155b 00000000 		.4byte	0
 15533 155f 00000000 		.4byte	0
 15534              	.LLST149:
 15535 1563 7A060000 		.4byte	.LVL760
 15536 1567 EC060000 		.4byte	.LVL767
 15537 156b 0100     		.2byte	0x1
 15538 156d 55       		.byte	0x55
 15539 156e 00000000 		.4byte	0
 15540 1572 00000000 		.4byte	0
 15541              	.LLST150:
 15542 1576 4E070000 		.4byte	.LVL778
 15543 157a 76070000 		.4byte	.LVL785
 15544 157e 0100     		.2byte	0x1
 15545 1580 55       		.byte	0x55
 15546 1581 00000000 		.4byte	0
 15547 1585 00000000 		.4byte	0
 15548              	.LLST151:
 15549 1589 98070000 		.4byte	.LVL789
 15550 158d C0070000 		.4byte	.LVL796
 15551 1591 0100     		.2byte	0x1
 15552 1593 55       		.byte	0x55
ARM GAS  C:\Users\FRANKL~1\AppData\Local\Temp\ccXJlYBQ.s 			page 306


 15553 1594 00000000 		.4byte	0
 15554 1598 00000000 		.4byte	0
 15555              	.LLST152:
 15556 159c 1C080000 		.4byte	.LVL806
 15557 15a0 28080000 		.4byte	.LVL808
 15558 15a4 0100     		.2byte	0x1
 15559 15a6 50       		.byte	0x50
 15560 15a7 00000000 		.4byte	0
 15561 15ab 00000000 		.4byte	0
 15562              		.section	.debug_aranges,"",%progbits
 15563 0000 74010000 		.4byte	0x174
 15564 0004 0200     		.2byte	0x2
 15565 0006 00000000 		.4byte	.Ldebug_info0
 15566 000a 04       		.byte	0x4
 15567 000b 00       		.byte	0
 15568 000c 0000     		.2byte	0
 15569 000e 0000     		.2byte	0
 15570 0010 00000000 		.4byte	.LFB64
 15571 0014 18000000 		.4byte	.LFE64-.LFB64
 15572 0018 00000000 		.4byte	.LFB65
 15573 001c 1E000000 		.4byte	.LFE65-.LFB65
 15574 0020 00000000 		.4byte	.LFB106
 15575 0024 B0010000 		.4byte	.LFE106-.LFB106
 15576 0028 00000000 		.4byte	.LFB66
 15577 002c 50000000 		.4byte	.LFE66-.LFB66
 15578 0030 00000000 		.4byte	.LFB67
 15579 0034 24000000 		.4byte	.LFE67-.LFB67
 15580 0038 00000000 		.4byte	.LFB68
 15581 003c 16000000 		.4byte	.LFE68-.LFB68
 15582 0040 00000000 		.4byte	.LFB69
 15583 0044 58000000 		.4byte	.LFE69-.LFB69
 15584 0048 00000000 		.4byte	.LFB70
 15585 004c 32000000 		.4byte	.LFE70-.LFB70
 15586 0050 00000000 		.4byte	.LFB71
 15587 0054 90010000 		.4byte	.LFE71-.LFB71
 15588 0058 00000000 		.4byte	.LFB72
 15589 005c B6000000 		.4byte	.LFE72-.LFB72
 15590 0060 00000000 		.4byte	.LFB73
 15591 0064 64000000 		.4byte	.LFE73-.LFB73
 15592 0068 00000000 		.4byte	.LFB74
 15593 006c 3C000000 		.4byte	.LFE74-.LFB74
 15594 0070 00000000 		.4byte	.LFB75
 15595 0074 2C000000 		.4byte	.LFE75-.LFB75
 15596 0078 00000000 		.4byte	.LFB76
 15597 007c 32000000 		.4byte	.LFE76-.LFB76
 15598 0080 00000000 		.4byte	.LFB77
 15599 0084 40000000 		.4byte	.LFE77-.LFB77
 15600 0088 00000000 		.4byte	.LFB78
 15601 008c 40000000 		.4byte	.LFE78-.LFB78
 15602 0090 00000000 		.4byte	.LFB79
 15603 0094 34000000 		.4byte	.LFE79-.LFB79
 15604 0098 00000000 		.4byte	.LFB80
 15605 009c 2C000000 		.4byte	.LFE80-.LFB80
 15606 00a0 00000000 		.4byte	.LFB81
 15607 00a4 38000000 		.4byte	.LFE81-.LFB81
 15608 00a8 00000000 		.4byte	.LFB82
 15609 00ac 16000000 		.4byte	.LFE82-.LFB82
ARM GAS  C:\Users\FRANKL~1\AppData\Local\Temp\ccXJlYBQ.s 			page 307


 15610 00b0 00000000 		.4byte	.LFB83
 15611 00b4 14010000 		.4byte	.LFE83-.LFB83
 15612 00b8 00000000 		.4byte	.LFB84
 15613 00bc 54000000 		.4byte	.LFE84-.LFB84
 15614 00c0 00000000 		.4byte	.LFB85
 15615 00c4 68000000 		.4byte	.LFE85-.LFB85
 15616 00c8 00000000 		.4byte	.LFB86
 15617 00cc 74000000 		.4byte	.LFE86-.LFB86
 15618 00d0 00000000 		.4byte	.LFB87
 15619 00d4 74000000 		.4byte	.LFE87-.LFB87
 15620 00d8 00000000 		.4byte	.LFB88
 15621 00dc 7C000000 		.4byte	.LFE88-.LFB88
 15622 00e0 00000000 		.4byte	.LFB89
 15623 00e4 64000000 		.4byte	.LFE89-.LFB89
 15624 00e8 00000000 		.4byte	.LFB90
 15625 00ec 64000000 		.4byte	.LFE90-.LFB90
 15626 00f0 00000000 		.4byte	.LFB91
 15627 00f4 38000000 		.4byte	.LFE91-.LFB91
 15628 00f8 00000000 		.4byte	.LFB92
 15629 00fc 38000000 		.4byte	.LFE92-.LFB92
 15630 0100 00000000 		.4byte	.LFB93
 15631 0104 14000000 		.4byte	.LFE93-.LFB93
 15632 0108 00000000 		.4byte	.LFB94
 15633 010c 14000000 		.4byte	.LFE94-.LFB94
 15634 0110 00000000 		.4byte	.LFB95
 15635 0114 30000000 		.4byte	.LFE95-.LFB95
 15636 0118 00000000 		.4byte	.LFB96
 15637 011c 48000000 		.4byte	.LFE96-.LFB96
 15638 0120 00000000 		.4byte	.LFB97
 15639 0124 48000000 		.4byte	.LFE97-.LFB97
 15640 0128 00000000 		.4byte	.LFB98
 15641 012c 1C000000 		.4byte	.LFE98-.LFB98
 15642 0130 00000000 		.4byte	.LFB99
 15643 0134 D8000000 		.4byte	.LFE99-.LFB99
 15644 0138 00000000 		.4byte	.LFB100
 15645 013c 14000000 		.4byte	.LFE100-.LFB100
 15646 0140 00000000 		.4byte	.LFB101
 15647 0144 90000000 		.4byte	.LFE101-.LFB101
 15648 0148 00000000 		.4byte	.LFB102
 15649 014c 80010000 		.4byte	.LFE102-.LFB102
 15650 0150 00000000 		.4byte	.LFB103
 15651 0154 64010000 		.4byte	.LFE103-.LFB103
 15652 0158 00000000 		.4byte	.LFB104
 15653 015c 90000000 		.4byte	.LFE104-.LFB104
 15654 0160 00000000 		.4byte	.LFB105
 15655 0164 A4000000 		.4byte	.LFE105-.LFB105
 15656 0168 00000000 		.4byte	.LFB107
 15657 016c B8080000 		.4byte	.LFE107-.LFB107
 15658 0170 00000000 		.4byte	0
 15659 0174 00000000 		.4byte	0
 15660              		.section	.debug_ranges,"",%progbits
 15661              	.Ldebug_ranges0:
 15662 0000 08000000 		.4byte	.LBB6
 15663 0004 16000000 		.4byte	.LBE6
 15664 0008 1E000000 		.4byte	.LBB7
 15665 000c 22000000 		.4byte	.LBE7
 15666 0010 00000000 		.4byte	0
ARM GAS  C:\Users\FRANKL~1\AppData\Local\Temp\ccXJlYBQ.s 			page 308


 15667 0014 00000000 		.4byte	0
 15668 0018 0C000000 		.4byte	.LBB13
 15669 001c 0E000000 		.4byte	.LBE13
 15670 0020 14000000 		.4byte	.LBB15
 15671 0024 A6000000 		.4byte	.LBE15
 15672 0028 00000000 		.4byte	0
 15673 002c 00000000 		.4byte	0
 15674 0030 06000000 		.4byte	.LBB22
 15675 0034 1A000000 		.4byte	.LBE22
 15676 0038 1C000000 		.4byte	.LBB23
 15677 003c 20000000 		.4byte	.LBE23
 15678 0040 00000000 		.4byte	0
 15679 0044 00000000 		.4byte	0
 15680 0048 22000000 		.4byte	.LBB26
 15681 004c 24000000 		.4byte	.LBE26
 15682 0050 2A000000 		.4byte	.LBB27
 15683 0054 EC000000 		.4byte	.LBE27
 15684 0058 00000000 		.4byte	0
 15685 005c 00000000 		.4byte	0
 15686 0060 2E000000 		.4byte	.LBB31
 15687 0064 40000000 		.4byte	.LBE31
 15688 0068 42000000 		.4byte	.LBB32
 15689 006c 46000000 		.4byte	.LBE32
 15690 0070 00000000 		.4byte	0
 15691 0074 00000000 		.4byte	0
 15692 0078 2E000000 		.4byte	.LBB34
 15693 007c 40000000 		.4byte	.LBE34
 15694 0080 42000000 		.4byte	.LBB35
 15695 0084 46000000 		.4byte	.LBE35
 15696 0088 00000000 		.4byte	0
 15697 008c 00000000 		.4byte	0
 15698 0090 1C000000 		.4byte	.LBB39
 15699 0094 22000000 		.4byte	.LBE39
 15700 0098 2A000000 		.4byte	.LBB47
 15701 009c 5C010000 		.4byte	.LBE47
 15702 00a0 00000000 		.4byte	0
 15703 00a4 00000000 		.4byte	0
 15704 00a8 1C000000 		.4byte	.LBB40
 15705 00ac 22000000 		.4byte	.LBE40
 15706 00b0 2A000000 		.4byte	.LBB46
 15707 00b4 4A010000 		.4byte	.LBE46
 15708 00b8 00000000 		.4byte	0
 15709 00bc 00000000 		.4byte	0
 15710 00c0 1C000000 		.4byte	.LBB41
 15711 00c4 22000000 		.4byte	.LBE41
 15712 00c8 52000000 		.4byte	.LBB45
 15713 00cc 4A010000 		.4byte	.LBE45
 15714 00d0 00000000 		.4byte	0
 15715 00d4 00000000 		.4byte	0
 15716 00d8 54000000 		.4byte	.LBB42
 15717 00dc 38010000 		.4byte	.LBE42
 15718 00e0 3A010000 		.4byte	.LBB44
 15719 00e4 3E010000 		.4byte	.LBE44
 15720 00e8 00000000 		.4byte	0
 15721 00ec 00000000 		.4byte	0
 15722 00f0 3E000000 		.4byte	.LBB51
 15723 00f4 22010000 		.4byte	.LBE51
ARM GAS  C:\Users\FRANKL~1\AppData\Local\Temp\ccXJlYBQ.s 			page 309


 15724 00f8 24010000 		.4byte	.LBB53
 15725 00fc 28010000 		.4byte	.LBE53
 15726 0100 00000000 		.4byte	0
 15727 0104 00000000 		.4byte	0
 15728 0108 00000000 		.4byte	.LFB64
 15729 010c 18000000 		.4byte	.LFE64
 15730 0110 00000000 		.4byte	.LFB65
 15731 0114 1E000000 		.4byte	.LFE65
 15732 0118 00000000 		.4byte	.LFB106
 15733 011c B0010000 		.4byte	.LFE106
 15734 0120 00000000 		.4byte	.LFB66
 15735 0124 50000000 		.4byte	.LFE66
 15736 0128 00000000 		.4byte	.LFB67
 15737 012c 24000000 		.4byte	.LFE67
 15738 0130 00000000 		.4byte	.LFB68
 15739 0134 16000000 		.4byte	.LFE68
 15740 0138 00000000 		.4byte	.LFB69
 15741 013c 58000000 		.4byte	.LFE69
 15742 0140 00000000 		.4byte	.LFB70
 15743 0144 32000000 		.4byte	.LFE70
 15744 0148 00000000 		.4byte	.LFB71
 15745 014c 90010000 		.4byte	.LFE71
 15746 0150 00000000 		.4byte	.LFB72
 15747 0154 B6000000 		.4byte	.LFE72
 15748 0158 00000000 		.4byte	.LFB73
 15749 015c 64000000 		.4byte	.LFE73
 15750 0160 00000000 		.4byte	.LFB74
 15751 0164 3C000000 		.4byte	.LFE74
 15752 0168 00000000 		.4byte	.LFB75
 15753 016c 2C000000 		.4byte	.LFE75
 15754 0170 00000000 		.4byte	.LFB76
 15755 0174 32000000 		.4byte	.LFE76
 15756 0178 00000000 		.4byte	.LFB77
 15757 017c 40000000 		.4byte	.LFE77
 15758 0180 00000000 		.4byte	.LFB78
 15759 0184 40000000 		.4byte	.LFE78
 15760 0188 00000000 		.4byte	.LFB79
 15761 018c 34000000 		.4byte	.LFE79
 15762 0190 00000000 		.4byte	.LFB80
 15763 0194 2C000000 		.4byte	.LFE80
 15764 0198 00000000 		.4byte	.LFB81
 15765 019c 38000000 		.4byte	.LFE81
 15766 01a0 00000000 		.4byte	.LFB82
 15767 01a4 16000000 		.4byte	.LFE82
 15768 01a8 00000000 		.4byte	.LFB83
 15769 01ac 14010000 		.4byte	.LFE83
 15770 01b0 00000000 		.4byte	.LFB84
 15771 01b4 54000000 		.4byte	.LFE84
 15772 01b8 00000000 		.4byte	.LFB85
 15773 01bc 68000000 		.4byte	.LFE85
 15774 01c0 00000000 		.4byte	.LFB86
 15775 01c4 74000000 		.4byte	.LFE86
 15776 01c8 00000000 		.4byte	.LFB87
 15777 01cc 74000000 		.4byte	.LFE87
 15778 01d0 00000000 		.4byte	.LFB88
 15779 01d4 7C000000 		.4byte	.LFE88
 15780 01d8 00000000 		.4byte	.LFB89
ARM GAS  C:\Users\FRANKL~1\AppData\Local\Temp\ccXJlYBQ.s 			page 310


 15781 01dc 64000000 		.4byte	.LFE89
 15782 01e0 00000000 		.4byte	.LFB90
 15783 01e4 64000000 		.4byte	.LFE90
 15784 01e8 00000000 		.4byte	.LFB91
 15785 01ec 38000000 		.4byte	.LFE91
 15786 01f0 00000000 		.4byte	.LFB92
 15787 01f4 38000000 		.4byte	.LFE92
 15788 01f8 00000000 		.4byte	.LFB93
 15789 01fc 14000000 		.4byte	.LFE93
 15790 0200 00000000 		.4byte	.LFB94
 15791 0204 14000000 		.4byte	.LFE94
 15792 0208 00000000 		.4byte	.LFB95
 15793 020c 30000000 		.4byte	.LFE95
 15794 0210 00000000 		.4byte	.LFB96
 15795 0214 48000000 		.4byte	.LFE96
 15796 0218 00000000 		.4byte	.LFB97
 15797 021c 48000000 		.4byte	.LFE97
 15798 0220 00000000 		.4byte	.LFB98
 15799 0224 1C000000 		.4byte	.LFE98
 15800 0228 00000000 		.4byte	.LFB99
 15801 022c D8000000 		.4byte	.LFE99
 15802 0230 00000000 		.4byte	.LFB100
 15803 0234 14000000 		.4byte	.LFE100
 15804 0238 00000000 		.4byte	.LFB101
 15805 023c 90000000 		.4byte	.LFE101
 15806 0240 00000000 		.4byte	.LFB102
 15807 0244 80010000 		.4byte	.LFE102
 15808 0248 00000000 		.4byte	.LFB103
 15809 024c 64010000 		.4byte	.LFE103
 15810 0250 00000000 		.4byte	.LFB104
 15811 0254 90000000 		.4byte	.LFE104
 15812 0258 00000000 		.4byte	.LFB105
 15813 025c A4000000 		.4byte	.LFE105
 15814 0260 00000000 		.4byte	.LFB107
 15815 0264 B8080000 		.4byte	.LFE107
 15816 0268 00000000 		.4byte	0
 15817 026c 00000000 		.4byte	0
 15818              		.section	.debug_line,"",%progbits
 15819              	.Ldebug_line0:
 15820 0000 DE0C0000 		.section	.debug_str,"MS",%progbits,1
 15820      0200D302 
 15820      00000201 
 15820      FB0E0D00 
 15820      01010101 
 15821              	.LASF87:
 15822 0000 696E6372 		.ascii	"increment\000"
 15822      656D656E 
 15822      7400
 15823              	.LASF35:
 15824 000a 636F756E 		.ascii	"count\000"
 15824      7400
 15825              	.LASF200:
 15826 0010 56444143 		.ascii	"VDAC_Vds_Start\000"
 15826      5F566473 
 15826      5F537461 
 15826      727400
 15827              	.LASF33:
ARM GAS  C:\Users\FRANKL~1\AppData\Local\Temp\ccXJlYBQ.s 			page 311


 15828 001f 52656365 		.ascii	"ReceiveBuffer\000"
 15828      69766542 
 15828      75666665 
 15828      7200
 15829              	.LASF212:
 15830 002d 433A5C55 		.ascii	"C:\\Users\\FranklinLab_PC_1\\Documents\\Python Scri"
 15830      73657273 
 15830      5C467261 
 15830      6E6B6C69 
 15830      6E4C6162 
 15831 005c 7074735C 		.ascii	"pts\\CNT_IV\\PSoC\\Layout 2_14\\Version 2\\Master\\"
 15831      434E545F 
 15831      49565C50 
 15831      536F435C 
 15831      4C61796F 
 15832 0089 4D617374 		.ascii	"Master 1\\Design01.cydsn\000"
 15832      65722031 
 15832      5C446573 
 15832      69676E30 
 15832      312E6379 
 15833              	.LASF138:
 15834 00a1 73746F70 		.ascii	"stopDevice\000"
 15834      44657669 
 15834      636500
 15835              	.LASF178:
 15836 00ac 73707269 		.ascii	"sprintf\000"
 15836      6E746600 
 15837              	.LASF94:
 15838 00b4 5365745F 		.ascii	"Set_Vds_Rel\000"
 15838      5664735F 
 15838      52656C00 
 15839              	.LASF141:
 15840 00c0 76647369 		.ascii	"vdsi\000"
 15840      00
 15841              	.LASF130:
 15842 00c5 77696465 		.ascii	"wide\000"
 15842      00
 15843              	.LASF146:
 15844 00ca 73656C65 		.ascii	"selectors\000"
 15844      63746F72 
 15844      7300
 15845              	.LASF165:
 15846 00d4 73747273 		.ascii	"strstr\000"
 15846      747200
 15847              	.LASF119:
 15848 00db 73746172 		.ascii	"startGateIndex\000"
 15848      74476174 
 15848      65496E64 
 15848      657800
 15849              	.LASF125:
 15850 00ea 64697265 		.ascii	"direction\000"
 15850      6374696F 
 15850      6E00
 15851              	.LASF85:
 15852 00f4 69737461 		.ascii	"istart\000"
 15852      727400
 15853              	.LASF206:
ARM GAS  C:\Users\FRANKL~1\AppData\Local\Temp\ccXJlYBQ.s 			page 312


 15854 00fb 4144435F 		.ascii	"ADC_SAR_2_Start\000"
 15854      5341525F 
 15854      325F5374 
 15854      61727400 
 15855              	.LASF39:
 15856 010b 55534255 		.ascii	"USBUARTH_Receive_Until\000"
 15856      41525448 
 15856      5F526563 
 15856      65697665 
 15856      5F556E74 
 15857              	.LASF69:
 15858 0122 436F6E6E 		.ascii	"Connect_Intermediate\000"
 15858      6563745F 
 15858      496E7465 
 15858      726D6564 
 15858      69617465 
 15859              	.LASF11:
 15860 0137 6C6F6E67 		.ascii	"long long unsigned int\000"
 15860      206C6F6E 
 15860      6720756E 
 15860      7369676E 
 15860      65642069 
 15861              	.LASF59:
 15862 014e 436F6E6E 		.ascii	"Connect_Channel_On_Intermediate\000"
 15862      6563745F 
 15862      4368616E 
 15862      6E656C5F 
 15862      4F6E5F49 
 15863              	.LASF201:
 15864 016e 56444143 		.ascii	"VDAC_Vgs_Start\000"
 15864      5F566773 
 15864      5F537461 
 15864      727400
 15865              	.LASF62:
 15866 017d 436F6E6E 		.ascii	"Connect_Contact_To_Intermediate\000"
 15866      6563745F 
 15866      436F6E74 
 15866      6163745F 
 15866      546F5F49 
 15867              	.LASF92:
 15868 019d 6E65775F 		.ascii	"new_Vgs\000"
 15868      56677300 
 15869              	.LASF74:
 15870 01a5 766F6C74 		.ascii	"voltage\000"
 15870      61676500 
 15871              	.LASF103:
 15872 01ad 4765745F 		.ascii	"Get_Vgs\000"
 15872      56677300 
 15873              	.LASF202:
 15874 01b5 56444143 		.ascii	"VDAC_Ref_Start\000"
 15874      5F526566 
 15874      5F537461 
 15874      727400
 15875              	.LASF145:
 15876 01c4 49544D5F 		.ascii	"ITM_RxBuffer\000"
 15876      52784275 
 15876      66666572 
ARM GAS  C:\Users\FRANKL~1\AppData\Local\Temp\ccXJlYBQ.s 			page 313


 15876      00
 15877              	.LASF44:
 15878 01d1 55706461 		.ascii	"Update_Selector\000"
 15878      74655F53 
 15878      656C6563 
 15878      746F7200 
 15879              	.LASF137:
 15880 01e1 73746172 		.ascii	"startDevice\000"
 15880      74446576 
 15880      69636500 
 15881              	.LASF161:
 15882 01ed 55534255 		.ascii	"USBUART_GetConfiguration\000"
 15882      4152545F 
 15882      47657443 
 15882      6F6E6669 
 15882      67757261 
 15883              	.LASF111:
 15884 0206 4D656173 		.ascii	"Measure_Gate_Sweep_New\000"
 15884      7572655F 
 15884      47617465 
 15884      5F537765 
 15884      65705F4E 
 15885              	.LASF122:
 15886 021d 67617465 		.ascii	"gateArrived\000"
 15886      41727269 
 15886      76656400 
 15887              	.LASF131:
 15888 0229 64657669 		.ascii	"device\000"
 15888      636500
 15889              	.LASF52:
 15890 0230 4144435F 		.ascii	"ADC_Result_Current\000"
 15890      52657375 
 15890      6C745F43 
 15890      75727265 
 15890      6E7400
 15891              	.LASF3:
 15892 0243 6C6F6E67 		.ascii	"long long int\000"
 15892      206C6F6E 
 15892      6720696E 
 15892      7400
 15893              	.LASF5:
 15894 0251 7369676E 		.ascii	"signed char\000"
 15894      65642063 
 15894      68617200 
 15895              	.LASF215:
 15896 025d 73747263 		.ascii	"strchr\000"
 15896      687200
 15897              	.LASF63:
 15898 0264 636F6E74 		.ascii	"contact\000"
 15898      61637400 
 15899              	.LASF143:
 15900 026c 5667735F 		.ascii	"Vgs_mV\000"
 15900      6D5600
 15901              	.LASF172:
 15902 0273 55534255 		.ascii	"USBUART_GetChar\000"
 15902      4152545F 
 15902      47657443 
ARM GAS  C:\Users\FRANKL~1\AppData\Local\Temp\ccXJlYBQ.s 			page 314


 15902      68617200 
 15903              	.LASF53:
 15904 0283 55534255 		.ascii	"USBUARTH_Maintain_Configuration\000"
 15904      41525448 
 15904      5F4D6169 
 15904      6E746169 
 15904      6E5F436F 
 15905              	.LASF187:
 15906 02a3 56444143 		.ascii	"VDAC_Ref_SetValue\000"
 15906      5F526566 
 15906      5F536574 
 15906      56616C75 
 15906      6500
 15907              	.LASF21:
 15908 02b5 696E7433 		.ascii	"int32\000"
 15908      3200
 15909              	.LASF208:
 15910 02bb 436F6D6D 		.ascii	"CommunicationTimer_Start\000"
 15910      756E6963 
 15910      6174696F 
 15910      6E54696D 
 15910      65725F53 
 15911              	.LASF153:
 15912 02d4 55415254 		.ascii	"UART_Rx_Position\000"
 15912      5F52785F 
 15912      506F7369 
 15912      74696F6E 
 15912      00
 15913              	.LASF80:
 15914 02e5 756E6974 		.ascii	"unitConversion\000"
 15914      436F6E76 
 15914      65727369 
 15914      6F6E00
 15915              	.LASF84:
 15916 02f4 48616E64 		.ascii	"Handle_Compliance_Breach\000"
 15916      6C655F43 
 15916      6F6D706C 
 15916      69616E63 
 15916      655F4272 
 15917              	.LASF9:
 15918 030d 6C6F6E67 		.ascii	"long int\000"
 15918      20696E74 
 15918      00
 15919              	.LASF90:
 15920 0316 5365745F 		.ascii	"Set_Vgs_Raw\000"
 15920      5667735F 
 15920      52617700 
 15921              	.LASF196:
 15922 0322 73747274 		.ascii	"strtol\000"
 15922      6F6C00
 15923              	.LASF176:
 15924 0329 4932435F 		.ascii	"I2C_1_Stop\000"
 15924      315F5374 
 15924      6F7000
 15925              	.LASF199:
 15926 0334 55415254 		.ascii	"UART_1_Start\000"
 15926      5F315F53 
ARM GAS  C:\Users\FRANKL~1\AppData\Local\Temp\ccXJlYBQ.s 			page 315


 15926      74617274 
 15926      00
 15927              	.LASF171:
 15928 0341 55534255 		.ascii	"USBUART_PutData\000"
 15928      4152545F 
 15928      50757444 
 15928      61746100 
 15929              	.LASF16:
 15930 0351 75696E74 		.ascii	"uint8\000"
 15930      3800
 15931              	.LASF198:
 15932 0357 55534255 		.ascii	"USBUART_Start\000"
 15932      4152545F 
 15932      53746172 
 15932      7400
 15933              	.LASF1:
 15934 0365 646F7562 		.ascii	"double\000"
 15934      6C6500
 15935              	.LASF76:
 15936 036c 63757272 		.ascii	"currentNow\000"
 15936      656E744E 
 15936      6F7700
 15937              	.LASF167:
 15938 0377 55415254 		.ascii	"UART_1_GetChar\000"
 15938      5F315F47 
 15938      65744368 
 15938      617200
 15939              	.LASF203:
 15940 0386 4144435F 		.ascii	"ADC_DelSig_1_Start\000"
 15940      44656C53 
 15940      69675F31 
 15940      5F537461 
 15940      727400
 15941              	.LASF18:
 15942 0399 75696E74 		.ascii	"uint32\000"
 15942      333200
 15943              	.LASF144:
 15944 03a0 5664735F 		.ascii	"Vds_mV\000"
 15944      6D5600
 15945              	.LASF47:
 15946 03a7 61766572 		.ascii	"average\000"
 15946      61676500 
 15947              	.LASF195:
 15948 03af 4144435F 		.ascii	"ADC_SAR_2_CountsTo_Volts\000"
 15948      5341525F 
 15948      325F436F 
 15948      756E7473 
 15948      546F5F56 
 15949              	.LASF160:
 15950 03c8 55534255 		.ascii	"USBUART_IsConfigurationChanged\000"
 15950      4152545F 
 15950      4973436F 
 15950      6E666967 
 15950      75726174 
 15951              	.LASF66:
 15952 03e7 44697363 		.ascii	"Disconnect_Contact_From_All_Intermediates\000"
 15952      6F6E6E65 
ARM GAS  C:\Users\FRANKL~1\AppData\Local\Temp\ccXJlYBQ.s 			page 316


 15952      63745F43 
 15952      6F6E7461 
 15952      63745F46 
 15953              	.LASF17:
 15954 0411 75696E74 		.ascii	"uint16\000"
 15954      313600
 15955              	.LASF27:
 15956 0418 62757341 		.ascii	"busAddress\000"
 15956      64647265 
 15956      737300
 15957              	.LASF42:
 15958 0423 53657475 		.ascii	"Setup_Selector_I2C_Struct\000"
 15958      705F5365 
 15958      6C656374 
 15958      6F725F49 
 15958      32435F53 
 15959              	.LASF51:
 15960 043d 4144435F 		.ascii	"ADC_SD\000"
 15960      534400
 15961              	.LASF89:
 15962 0444 76616C75 		.ascii	"value\000"
 15962      6500
 15963              	.LASF75:
 15964 044a 766F6C74 		.ascii	"voltageSD\000"
 15964      61676553 
 15964      4400
 15965              	.LASF98:
 15966 0454 5365745F 		.ascii	"Set_Vds\000"
 15966      56647300 
 15967              	.LASF186:
 15968 045c 56444143 		.ascii	"VDAC_Vds_SetValue\000"
 15968      5F566473 
 15968      5F536574 
 15968      56616C75 
 15968      6500
 15969              	.LASF2:
 15970 046e 756E7369 		.ascii	"unsigned int\000"
 15970      676E6564 
 15970      20696E74 
 15970      00
 15971              	.LASF123:
 15972 047b 4D656173 		.ascii	"Measure_Gate_Sweep\000"
 15972      7572655F 
 15972      47617465 
 15972      5F537765 
 15972      657000
 15973              	.LASF204:
 15974 048e 5449415F 		.ascii	"TIA_1_Start\000"
 15974      315F5374 
 15974      61727400 
 15975              	.LASF163:
 15976 049a 55534255 		.ascii	"USBUART_DataIsReady\000"
 15976      4152545F 
 15976      44617461 
 15976      49735265 
 15976      61647900 
 15977              	.LASF173:
ARM GAS  C:\Users\FRANKL~1\AppData\Local\Temp\ccXJlYBQ.s 			page 317


 15978 04ae 7374726C 		.ascii	"strlen\000"
 15978      656E00
 15979              	.LASF105:
 15980 04b5 5A65726F 		.ascii	"Zero_All_DACs\000"
 15980      5F416C6C 
 15980      5F444143 
 15980      7300
 15981              	.LASF124:
 15982 04c3 6C6F6F70 		.ascii	"loop\000"
 15982      00
 15983              	.LASF57:
 15984 04c8 49647353 		.ascii	"IdsStandardDeviation\000"
 15984      74616E64 
 15984      61726444 
 15984      65766961 
 15984      74696F6E 
 15985              	.LASF180:
 15986 04dd 4932435F 		.ascii	"I2C_1_MasterWriteBuf\000"
 15986      315F4D61 
 15986      73746572 
 15986      57726974 
 15986      65427566 
 15987              	.LASF10:
 15988 04f2 6C6F6E67 		.ascii	"long unsigned int\000"
 15988      20756E73 
 15988      69676E65 
 15988      6420696E 
 15988      7400
 15989              	.LASF114:
 15990 0504 73746172 		.ascii	"startRefIndex\000"
 15990      74526566 
 15990      496E6465 
 15990      7800
 15991              	.LASF177:
 15992 0512 4932435F 		.ascii	"I2C_1_Start\000"
 15992      315F5374 
 15992      61727400 
 15993              	.LASF36:
 15994 051e 55534255 		.ascii	"USBUARTH_Send\000"
 15994      41525448 
 15994      5F53656E 
 15994      6400
 15995              	.LASF151:
 15996 052c 475F5061 		.ascii	"G_Pause\000"
 15996      75736500 
 15997              	.LASF133:
 15998 0534 636F6E74 		.ascii	"contact2\000"
 15998      61637432 
 15998      00
 15999              	.LASF24:
 16000 053d 64617461 		.ascii	"data\000"
 16000      00
 16001              	.LASF8:
 16002 0542 73686F72 		.ascii	"short unsigned int\000"
 16002      7420756E 
 16002      7369676E 
 16002      65642069 
ARM GAS  C:\Users\FRANKL~1\AppData\Local\Temp\ccXJlYBQ.s 			page 318


 16002      6E7400
 16003              	.LASF95:
 16004 0555 6162736F 		.ascii	"absolute\000"
 16004      6C757465 
 16004      00
 16005              	.LASF19:
 16006 055e 696E7438 		.ascii	"int8\000"
 16006      00
 16007              	.LASF164:
 16008 0563 55534255 		.ascii	"USBUART_GetAll\000"
 16008      4152545F 
 16008      47657441 
 16008      6C6C00
 16009              	.LASF179:
 16010 0572 4932435F 		.ascii	"I2C_1_MasterClearStatus\000"
 16010      315F4D61 
 16010      73746572 
 16010      436C6561 
 16010      72537461 
 16011              	.LASF129:
 16012 058a 5363616E 		.ascii	"Scan\000"
 16012      00
 16013              	.LASF91:
 16014 058f 5365745F 		.ascii	"Set_Ref_Raw\000"
 16014      5265665F 
 16014      52617700 
 16015              	.LASF70:
 16016 059b 436F6E6E 		.ascii	"Connect_Intermediates\000"
 16016      6563745F 
 16016      496E7465 
 16016      726D6564 
 16016      69617465 
 16017              	.LASF117:
 16018 05b1 72656641 		.ascii	"refArrived\000"
 16018      72726976 
 16018      656400
 16019              	.LASF46:
 16020 05bc 4144435F 		.ascii	"ADC_Measure_uV\000"
 16020      4D656173 
 16020      7572655F 
 16020      755600
 16021              	.LASF7:
 16022 05cb 73686F72 		.ascii	"short int\000"
 16022      7420696E 
 16022      7400
 16023              	.LASF14:
 16024 05d5 5F5F696E 		.ascii	"__int32_t\000"
 16024      7433325F 
 16024      7400
 16025              	.LASF108:
 16026 05df 53415231 		.ascii	"SAR1\000"
 16026      00
 16027              	.LASF109:
 16028 05e4 53415232 		.ascii	"SAR2\000"
 16028      00
 16029              	.LASF159:
 16030 05e9 43757272 		.ascii	"Current_Measurement_Sample_Count\000"
ARM GAS  C:\Users\FRANKL~1\AppData\Local\Temp\ccXJlYBQ.s 			page 319


 16030      656E745F 
 16030      4D656173 
 16030      7572656D 
 16030      656E745F 
 16031              	.LASF25:
 16032 060a 77726974 		.ascii	"write\000"
 16032      6500
 16033              	.LASF134:
 16034 0610 696E7465 		.ascii	"intermediate1\000"
 16034      726D6564 
 16034      69617465 
 16034      3100
 16035              	.LASF135:
 16036 061e 696E7465 		.ascii	"intermediate2\000"
 16036      726D6564 
 16036      69617465 
 16036      3200
 16037              	.LASF126:
 16038 062c 4D656173 		.ascii	"Measure_Wide_Gate_Sweep\000"
 16038      7572655F 
 16038      57696465 
 16038      5F476174 
 16038      655F5377 
 16039              	.LASF118:
 16040 0644 67617465 		.ascii	"gateIncrement\000"
 16040      496E6372 
 16040      656D656E 
 16040      7400
 16041              	.LASF12:
 16042 0652 73697A65 		.ascii	"sizetype\000"
 16042      74797065 
 16042      00
 16043              	.LASF140:
 16044 065b 76677369 		.ascii	"vgsi\000"
 16044      00
 16045              	.LASF81:
 16046 0660 41745F43 		.ascii	"At_Compliance\000"
 16046      6F6D706C 
 16046      69616E63 
 16046      6500
 16047              	.LASF197:
 16048 066e 73736361 		.ascii	"sscanf\000"
 16048      6E6600
 16049              	.LASF112:
 16050 0675 72656654 		.ascii	"refTurn\000"
 16050      75726E00 
 16051              	.LASF184:
 16052 067d 4144435F 		.ascii	"ADC_DelSig_1_CountsTo_uVolts\000"
 16052      44656C53 
 16052      69675F31 
 16052      5F436F75 
 16052      6E747354 
 16053              	.LASF83:
 16054 069a 63757272 		.ascii	"currentSD\000"
 16054      656E7453 
 16054      4400
 16055              	.LASF73:
ARM GAS  C:\Users\FRANKL~1\AppData\Local\Temp\ccXJlYBQ.s 			page 320


 16056 06a4 63757272 		.ascii	"currentStdDevIn\000"
 16056      656E7453 
 16056      74644465 
 16056      76496E00 
 16057              	.LASF191:
 16058 06b4 4144435F 		.ascii	"ADC_SAR_2_IsEndConversion\000"
 16058      5341525F 
 16058      325F4973 
 16058      456E6443 
 16058      6F6E7665 
 16059              	.LASF142:
 16060 06ce 73756363 		.ascii	"success\000"
 16060      65737300 
 16061              	.LASF77:
 16062 06d6 63757272 		.ascii	"currentAverage\000"
 16062      656E7441 
 16062      76657261 
 16062      676500
 16063              	.LASF205:
 16064 06e5 4144435F 		.ascii	"ADC_SAR_1_Start\000"
 16064      5341525F 
 16064      315F5374 
 16064      61727400 
 16065              	.LASF211:
 16066 06f5 6D61696E 		.ascii	"main.c\000"
 16066      2E6300
 16067              	.LASF158:
 16068 06fc 5664735F 		.ascii	"Vds_Index_Goal_Relative\000"
 16068      496E6465 
 16068      785F476F 
 16068      616C5F52 
 16068      656C6174 
 16069              	.LASF82:
 16070 0714 63757272 		.ascii	"current\000"
 16070      656E7400 
 16071              	.LASF121:
 16072 071c 67617465 		.ascii	"gateIndex\000"
 16072      496E6465 
 16072      7800
 16073              	.LASF216:
 16074 0726 5F5F6275 		.ascii	"__builtin_strchr\000"
 16074      696C7469 
 16074      6E5F7374 
 16074      72636872 
 16074      00
 16075              	.LASF154:
 16076 0737 55534255 		.ascii	"USBUART_Receive_Buffer\000"
 16076      4152545F 
 16076      52656365 
 16076      6976655F 
 16076      42756666 
 16077              	.LASF0:
 16078 074e 666C6F61 		.ascii	"float\000"
 16078      7400
 16079              	.LASF175:
 16080 0754 55415254 		.ascii	"UART_1_PutString\000"
 16080      5F315F50 
ARM GAS  C:\Users\FRANKL~1\AppData\Local\Temp\ccXJlYBQ.s 			page 321


 16080      75745374 
 16080      72696E67 
 16080      00
 16081              	.LASF132:
 16082 0765 636F6E74 		.ascii	"contact1\000"
 16082      61637431 
 16082      00
 16083              	.LASF113:
 16084 076e 72656649 		.ascii	"refIncrement\000"
 16084      6E637265 
 16084      6D656E74 
 16084      00
 16085              	.LASF169:
 16086 077b 436F6D6D 		.ascii	"CommunicationTimer_ReadStatusRegister\000"
 16086      756E6963 
 16086      6174696F 
 16086      6E54696D 
 16086      65725F52 
 16087              	.LASF120:
 16088 07a1 656E6447 		.ascii	"endGateIndex\000"
 16088      61746549 
 16088      6E646578 
 16088      00
 16089              	.LASF22:
 16090 07ae 72656738 		.ascii	"reg8\000"
 16090      00
 16091              	.LASF116:
 16092 07b3 72656649 		.ascii	"refIndex\000"
 16092      6E646578 
 16092      00
 16093              	.LASF86:
 16094 07bc 6973746F 		.ascii	"istop\000"
 16094      7000
 16095              	.LASF15:
 16096 07c2 696E7433 		.ascii	"int32_t\000"
 16096      325F7400 
 16097              	.LASF6:
 16098 07ca 756E7369 		.ascii	"unsigned char\000"
 16098      676E6564 
 16098      20636861 
 16098      7200
 16099              	.LASF30:
 16100 07d8 74726965 		.ascii	"tries\000"
 16100      7300
 16101              	.LASF38:
 16102 07de 55534255 		.ascii	"USBUARTH_GetChar\000"
 16102      41525448 
 16102      5F476574 
 16102      43686172 
 16102      00
 16103              	.LASF65:
 16104 07ef 44697363 		.ascii	"Disconnect_Contact_From_Intermediate\000"
 16104      6F6E6E65 
 16104      63745F43 
 16104      6F6E7461 
 16104      63745F46 
 16105              	.LASF41:
ARM GAS  C:\Users\FRANKL~1\AppData\Local\Temp\ccXJlYBQ.s 			page 322


 16106 0814 7465726D 		.ascii	"termination\000"
 16106      696E6174 
 16106      696F6E00 
 16107              	.LASF166:
 16108 0820 55415254 		.ascii	"UART_1_GetRxBufferSize\000"
 16108      5F315F47 
 16108      65745278 
 16108      42756666 
 16108      65725369 
 16109              	.LASF170:
 16110 0837 55534255 		.ascii	"USBUART_CDCIsReady\000"
 16110      4152545F 
 16110      43444349 
 16110      73526561 
 16110      647900
 16111              	.LASF101:
 16112 084a 4765745F 		.ascii	"Get_Ref\000"
 16112      52656600 
 16113              	.LASF99:
 16114 0852 5365745F 		.ascii	"Set_Vgs_mV\000"
 16114      5667735F 
 16114      6D5600
 16115              	.LASF157:
 16116 085d 5667735F 		.ascii	"Vgs_Index_Goal_Relative\000"
 16116      496E6465 
 16116      785F476F 
 16116      616C5F52 
 16116      656C6174 
 16117              	.LASF209:
 16118 0875 436F6D6D 		.ascii	"CommunicationInterrupt_StartEx\000"
 16118      756E6963 
 16118      6174696F 
 16118      6E496E74 
 16118      65727275 
 16119              	.LASF210:
 16120 0894 474E5520 		.ascii	"GNU C11 5.4.1 20160609 (release) [ARM/embedded-5-br"
 16120      43313120 
 16120      352E342E 
 16120      31203230 
 16120      31363036 
 16121 08c7 616E6368 		.ascii	"anch revision 237715] -mcpu=cortex-m3 -mthumb -g -O"
 16121      20726576 
 16121      6973696F 
 16121      6E203233 
 16121      37373135 
 16122 08fa 67202D66 		.ascii	"g -ffunction-sections -ffat-lto-objects\000"
 16122      66756E63 
 16122      74696F6E 
 16122      2D736563 
 16122      74696F6E 
 16123              	.LASF56:
 16124 0922 49647341 		.ascii	"IdsAverage\000"
 16124      76657261 
 16124      676500
 16125              	.LASF96:
 16126 092d 5365745F 		.ascii	"Set_Vgs_Rel\000"
 16126      5667735F 
ARM GAS  C:\Users\FRANKL~1\AppData\Local\Temp\ccXJlYBQ.s 			page 323


 16126      52656C00 
 16127              	.LASF93:
 16128 0939 6E65775F 		.ascii	"new_Vds\000"
 16128      56647300 
 16129              	.LASF192:
 16130 0941 4144435F 		.ascii	"ADC_SAR_1_GetResult16\000"
 16130      5341525F 
 16130      315F4765 
 16130      74526573 
 16130      756C7431 
 16131              	.LASF181:
 16132 0957 4144435F 		.ascii	"ADC_DelSig_1_StartConvert\000"
 16132      44656C53 
 16132      69675F31 
 16132      5F537461 
 16132      7274436F 
 16133              	.LASF97:
 16134 0971 5365745F 		.ascii	"Set_Vgs\000"
 16134      56677300 
 16135              	.LASF55:
 16136 0979 56677369 		.ascii	"Vgsi\000"
 16136      00
 16137              	.LASF162:
 16138 097e 55534255 		.ascii	"USBUART_CDC_Init\000"
 16138      4152545F 
 16138      4344435F 
 16138      496E6974 
 16138      00
 16139              	.LASF139:
 16140 098f 6C6F6361 		.ascii	"location\000"
 16140      74696F6E 
 16140      00
 16141              	.LASF4:
 16142 0998 6C6F6E67 		.ascii	"long double\000"
 16142      20646F75 
 16142      626C6500 
 16143              	.LASF183:
 16144 09a4 4144435F 		.ascii	"ADC_DelSig_1_GetResult32\000"
 16144      44656C53 
 16144      69675F31 
 16144      5F476574 
 16144      52657375 
 16145              	.LASF72:
 16146 09bd 63757272 		.ascii	"currentAverageIn\000"
 16146      656E7441 
 16146      76657261 
 16146      6765496E 
 16146      00
 16147              	.LASF13:
 16148 09ce 63686172 		.ascii	"char\000"
 16148      00
 16149              	.LASF148:
 16150 09d3 6E657744 		.ascii	"newData\000"
 16150      61746100 
 16151              	.LASF29:
 16152 09db 436F6D6D 		.ascii	"CommunicationHandlerISR\000"
 16152      756E6963 
ARM GAS  C:\Users\FRANKL~1\AppData\Local\Temp\ccXJlYBQ.s 			page 324


 16152      6174696F 
 16152      6E48616E 
 16152      646C6572 
 16153              	.LASF48:
 16154 09f3 7374616E 		.ascii	"standardDeviation\000"
 16154      64617264 
 16154      44657669 
 16154      6174696F 
 16154      6E00
 16155              	.LASF88:
 16156 0a05 5365745F 		.ascii	"Set_Vds_Raw\000"
 16156      5664735F 
 16156      52617700 
 16157              	.LASF49:
 16158 0a11 73616D70 		.ascii	"sampleCount\000"
 16158      6C65436F 
 16158      756E7400 
 16159              	.LASF213:
 16160 0a1d 53656C65 		.ascii	"Selector_I2C_Struct\000"
 16160      63746F72 
 16160      5F493243 
 16160      5F537472 
 16160      75637400 
 16161              	.LASF100:
 16162 0a31 5365745F 		.ascii	"Set_Vds_mV\000"
 16162      5664735F 
 16162      6D5600
 16163              	.LASF34:
 16164 0a3c 62756666 		.ascii	"buffer\000"
 16164      657200
 16165              	.LASF107:
 16166 0a43 49647341 		.ascii	"IdsAverageAmps\000"
 16166      76657261 
 16166      6765416D 
 16166      707300
 16167              	.LASF189:
 16168 0a52 4144435F 		.ascii	"ADC_SAR_2_StartConvert\000"
 16168      5341525F 
 16168      325F5374 
 16168      61727443 
 16168      6F6E7665 
 16169              	.LASF79:
 16170 0a69 5449415F 		.ascii	"TIA_Feedback_R\000"
 16170      46656564 
 16170      6261636B 
 16170      5F5200
 16171              	.LASF64:
 16172 0a78 6F666673 		.ascii	"offset\000"
 16172      657400
 16173              	.LASF207:
 16174 0a7f 43794465 		.ascii	"CyDelay\000"
 16174      6C617900 
 16175              	.LASF149:
 16176 0a87 475F5374 		.ascii	"G_Stop\000"
 16176      6F7000
 16177              	.LASF185:
 16178 0a8e 56444143 		.ascii	"VDAC_Vgs_SetValue\000"
ARM GAS  C:\Users\FRANKL~1\AppData\Local\Temp\ccXJlYBQ.s 			page 325


 16178      5F566773 
 16178      5F536574 
 16178      56616C75 
 16178      6500
 16179              	.LASF110:
 16180 0aa0 4D656173 		.ascii	"Measure_Multiple\000"
 16180      7572655F 
 16180      4D756C74 
 16180      69706C65 
 16180      00
 16181              	.LASF31:
 16182 0ab1 74656D70 		.ascii	"temp_buffer\000"
 16182      5F627566 
 16182      66657200 
 16183              	.LASF71:
 16184 0abd 4D656173 		.ascii	"Measure_Current_Vss\000"
 16184      7572655F 
 16184      43757272 
 16184      656E745F 
 16184      56737300 
 16185              	.LASF128:
 16186 0ad1 74656D70 		.ascii	"temp\000"
 16186      00
 16187              	.LASF104:
 16188 0ad6 4765745F 		.ascii	"Get_Vds\000"
 16188      56647300 
 16189              	.LASF58:
 16190 0ade 53657475 		.ascii	"Setup_Selectors\000"
 16190      705F5365 
 16190      6C656374 
 16190      6F727300 
 16191              	.LASF150:
 16192 0aee 475F4272 		.ascii	"G_Break\000"
 16192      65616B00 
 16193              	.LASF147:
 16194 0af6 5472616E 		.ascii	"TransmitBuffer\000"
 16194      736D6974 
 16194      42756666 
 16194      657200
 16195              	.LASF182:
 16196 0b05 4144435F 		.ascii	"ADC_DelSig_1_IsEndConversion\000"
 16196      44656C53 
 16196      69675F31 
 16196      5F497345 
 16196      6E64436F 
 16197              	.LASF37:
 16198 0b22 55534255 		.ascii	"USBUARTH_Receive\000"
 16198      41525448 
 16198      5F526563 
 16198      65697665 
 16198      00
 16199              	.LASF68:
 16200 0b33 44697363 		.ascii	"Disconnect_All_Contacts_From_Intermediate\000"
 16200      6F6E6E65 
 16200      63745F41 
 16200      6C6C5F43 
 16200      6F6E7461 
ARM GAS  C:\Users\FRANKL~1\AppData\Local\Temp\ccXJlYBQ.s 			page 326


 16201              	.LASF54:
 16202 0b5d 4D656173 		.ascii	"Measure_Sweep\000"
 16202      7572655F 
 16202      53776565 
 16202      7000
 16203              	.LASF190:
 16204 0b6b 4144435F 		.ascii	"ADC_SAR_1_IsEndConversion\000"
 16204      5341525F 
 16204      315F4973 
 16204      456E6443 
 16204      6F6E7665 
 16205              	.LASF78:
 16206 0b85 63757272 		.ascii	"currentStdDev\000"
 16206      656E7453 
 16206      74644465 
 16206      7600
 16207              	.LASF61:
 16208 0b93 696E7465 		.ascii	"intermediate\000"
 16208      726D6564 
 16208      69617465 
 16208      00
 16209              	.LASF43:
 16210 0ba0 73656C65 		.ascii	"selector\000"
 16210      63746F72 
 16210      00
 16211              	.LASF50:
 16212 0ba9 4144435F 		.ascii	"ADC_Result\000"
 16212      52657375 
 16212      6C7400
 16213              	.LASF60:
 16214 0bb4 6368616E 		.ascii	"channel\000"
 16214      6E656C00 
 16215              	.LASF40:
 16216 0bbc 6D61784C 		.ascii	"maxLength\000"
 16216      656E6774 
 16216      6800
 16217              	.LASF32:
 16218 0bc6 74656D70 		.ascii	"temp_count\000"
 16218      5F636F75 
 16218      6E7400
 16219              	.LASF20:
 16220 0bd1 696E7431 		.ascii	"int16\000"
 16220      3600
 16221              	.LASF136:
 16222 0bd7 5363616E 		.ascii	"Scan_Range\000"
 16222      5F52616E 
 16222      676500
 16223              	.LASF26:
 16224 0be2 72656164 		.ascii	"read\000"
 16224      00
 16225              	.LASF127:
 16226 0be7 73706565 		.ascii	"speed\000"
 16226      6400
 16227              	.LASF115:
 16228 0bed 656E6452 		.ascii	"endRefIndex\000"
 16228      6566496E 
 16228      64657800 
ARM GAS  C:\Users\FRANKL~1\AppData\Local\Temp\ccXJlYBQ.s 			page 327


 16229              	.LASF45:
 16230 0bf9 73656C65 		.ascii	"selectori\000"
 16230      63746F72 
 16230      6900
 16231              	.LASF152:
 16232 0c03 55415254 		.ascii	"UART_Receive_Buffer\000"
 16232      5F526563 
 16232      65697665 
 16232      5F427566 
 16232      66657200 
 16233              	.LASF28:
 16234 0c17 55534255 		.ascii	"USBUARTH_DataIsReady\000"
 16234      41525448 
 16234      5F446174 
 16234      61497352 
 16234      65616479 
 16235              	.LASF156:
 16236 0c2c 436F6D70 		.ascii	"Compliance_Reached\000"
 16236      6C69616E 
 16236      63655F52 
 16236      65616368 
 16236      656400
 16237              	.LASF67:
 16238 0c3f 44697363 		.ascii	"Disconnect_All_Contacts_From_All_Intermediates\000"
 16238      6F6E6E65 
 16238      63745F41 
 16238      6C6C5F43 
 16238      6F6E7461 
 16239              	.LASF188:
 16240 0c6e 4144435F 		.ascii	"ADC_SAR_1_StartConvert\000"
 16240      5341525F 
 16240      315F5374 
 16240      61727443 
 16240      6F6E7665 
 16241              	.LASF194:
 16242 0c85 4144435F 		.ascii	"ADC_SAR_2_GetResult16\000"
 16242      5341525F 
 16242      325F4765 
 16242      74526573 
 16242      756C7431 
 16243              	.LASF155:
 16244 0c9b 55534255 		.ascii	"USBUART_Rx_Position\000"
 16244      4152545F 
 16244      52785F50 
 16244      6F736974 
 16244      696F6E00 
 16245              	.LASF193:
 16246 0caf 4144435F 		.ascii	"ADC_SAR_1_CountsTo_Volts\000"
 16246      5341525F 
 16246      315F436F 
 16246      756E7473 
 16246      546F5F56 
 16247              	.LASF214:
 16248 0cc8 6D61696E 		.ascii	"main\000"
 16248      00
 16249              	.LASF23:
 16250 0ccd 73756241 		.ascii	"subAddress\000"
ARM GAS  C:\Users\FRANKL~1\AppData\Local\Temp\ccXJlYBQ.s 			page 328


 16250      64647265 
 16250      737300
 16251              	.LASF102:
 16252 0cd8 72657375 		.ascii	"result\000"
 16252      6C7400
 16253              	.LASF168:
 16254 0cdf 436F6D6D 		.ascii	"CommunicationInterrupt_ClearPending\000"
 16254      756E6963 
 16254      6174696F 
 16254      6E496E74 
 16254      65727275 
 16255              	.LASF174:
 16256 0d03 4932435F 		.ascii	"I2C_1_MasterStatus\000"
 16256      315F4D61 
 16256      73746572 
 16256      53746174 
 16256      757300
 16257              	.LASF106:
 16258 0d16 4D656173 		.ascii	"Measure\000"
 16258      75726500 
 16259              		.ident	"GCC: (GNU Tools for ARM Embedded Processors) 5.4.1 20160609 (release) [ARM/embedded-5-bran
